
/home/dangcaominh/STM32MP1/optee-os/optee-os/../build/optee-stm32mp157d-dk1/ta/stm32mp_nvmem/1a8342cc-81a5-4512-99fe-9e2b3e37d626.elf:     file format elf32-littlearm
/home/dangcaominh/STM32MP1/optee-os/optee-os/../build/optee-stm32mp157d-dk1/ta/stm32mp_nvmem/1a8342cc-81a5-4512-99fe-9e2b3e37d626.elf
architecture: armv7, flags 0x00000150:
HAS_SYMS, DYNAMIC, D_PAGED
start address 0x000003a8

Program Header:
    LOAD off    0x00001000 vaddr 0x00000000 paddr 0x00000000 align 2**12
         filesz 0x00009e58 memsz 0x00009e58 flags r-x
    LOAD off    0x0000b000 vaddr 0x0000a000 paddr 0x0000a000 align 2**12
         filesz 0x000003b8 memsz 0x00007c20 flags rw-
 DYNAMIC off    0x0000b000 vaddr 0x0000a000 paddr 0x0000a000 align 2**2
         filesz 0x00000088 memsz 0x00000088 flags rw-
   STACK off    0x00000000 vaddr 0x00000000 paddr 0x00000000 align 2**4
         filesz 0x00000000 memsz 0x00000000 flags rw-

Dynamic Section:
  HASH                 0x00009e28
  GNU_HASH             0x00009d30
  STRTAB               0x00009df0
  SYMTAB               0x00009d80
  STRSZ                0x00000036
  SYMENT               0x00000010
  DEBUG                0x00000000
  REL                  0x0000a0e8
  RELSZ                0x000001b0
  RELENT               0x00000008
  FLAGS_1              0x08000000
  RELCOUNT             0x00000021
private flags = 0x5000400: [Version5 EABI] [hard-float ABI]

Sections:
Idx Name          Size      VMA       LMA       File off  Algn
  0 .text         00008d78  00000000  00000000  00001000  2**3
                  CONTENTS, ALLOC, LOAD, READONLY, CODE
  1 .rodata       00000fb7  00008d78  00008d78  00009d78  2**2
                  CONTENTS, ALLOC, LOAD, READONLY, DATA
  2 .gnu.hash     00000030  00009d30  00009d30  0000ad30  2**2
                  CONTENTS, ALLOC, LOAD, READONLY, DATA
  3 .ta_head      00000020  00009d60  00009d60  0000ad60  2**3
                  CONTENTS, ALLOC, LOAD, READONLY, DATA
  4 .dynsym       00000070  00009d80  00009d80  0000ad80  2**2
                  CONTENTS, ALLOC, LOAD, READONLY, DATA
  5 .dynstr       00000036  00009df0  00009df0  0000adf0  2**0
                  CONTENTS, ALLOC, LOAD, READONLY, DATA
  6 .hash         00000030  00009e28  00009e28  0000ae28  2**2
                  CONTENTS, ALLOC, LOAD, READONLY, DATA
  7 .dynamic      00000088  0000a000  0000a000  0000b000  2**2
                  CONTENTS, ALLOC, LOAD, DATA
  8 .got          00000060  0000a088  0000a088  0000b088  2**2
                  CONTENTS, ALLOC, LOAD, DATA
  9 .rel.got      000000a8  0000a1f0  0000a1f0  0000b1f0  2**2
                  CONTENTS, ALLOC, LOAD, READONLY, DATA
 10 .data         00000120  0000a298  0000a298  0000b298  2**2
                  CONTENTS, ALLOC, LOAD, DATA
 11 .bss          00007868  0000a3b8  0000a3b8  0000b3b8  2**2
                  ALLOC
 12 .debug_info   00019f06  00000000  00000000  0000b3b8  2**0
                  CONTENTS, READONLY, DEBUGGING, OCTETS
 13 .debug_abbrev 000049ed  00000000  00000000  000252be  2**0
                  CONTENTS, READONLY, DEBUGGING, OCTETS
 14 .debug_loclists 0000f801  00000000  00000000  00029cab  2**0
                  CONTENTS, READONLY, DEBUGGING, OCTETS
 15 .debug_aranges 00000628  00000000  00000000  000394b0  2**3
                  CONTENTS, READONLY, DEBUGGING, OCTETS
 16 .debug_rnglists 00000af1  00000000  00000000  00039ad8  2**0
                  CONTENTS, READONLY, DEBUGGING, OCTETS
 17 .debug_macro  0003063e  00000000  00000000  0003a5c9  2**0
                  CONTENTS, READONLY, DEBUGGING, OCTETS
 18 .debug_line   00010c88  00000000  00000000  0006ac07  2**0
                  CONTENTS, READONLY, DEBUGGING, OCTETS
 19 .debug_str    0001d85e  00000000  00000000  0007b88f  2**0
                  CONTENTS, READONLY, DEBUGGING, OCTETS
 20 .comment      00000012  00000000  00000000  000990ed  2**0
                  CONTENTS, READONLY
 21 .ARM.attributes 00000033  00000000  00000000  000990ff  2**0
                  CONTENTS, READONLY
 22 .debug_frame  000026f0  00000000  00000000  00099134  2**2
                  CONTENTS, READONLY, DEBUGGING, OCTETS
 23 .rel.dyn      00000108  0000a0e8  0000a0e8  0000b0e8  2**2
                  CONTENTS, ALLOC, LOAD, READONLY, DATA
 24 .debug_line_str 00000122  00000000  00000000  0009b824  2**0
                  CONTENTS, READONLY, DEBUGGING, OCTETS
SYMBOL TABLE:
00000000 l    d  .text	00000000 .text
00008d78 l    d  .rodata	00000000 .rodata
00009d30 l    d  .gnu.hash	00000000 .gnu.hash
00009d60 l    d  .ta_head	00000000 .ta_head
00009d80 l    d  .dynsym	00000000 .dynsym
00009df0 l    d  .dynstr	00000000 .dynstr
00009e28 l    d  .hash	00000000 .hash
0000a000 l    d  .dynamic	00000000 .dynamic
0000a088 l    d  .got	00000000 .got
0000a1f0 l    d  .rel.got	00000000 .rel.got
0000a298 l    d  .data	00000000 .data
0000a3b8 l    d  .bss	00000000 .bss
00000000 l    d  .debug_info	00000000 .debug_info
00000000 l    d  .debug_abbrev	00000000 .debug_abbrev
00000000 l    d  .debug_loclists	00000000 .debug_loclists
00000000 l    d  .debug_aranges	00000000 .debug_aranges
00000000 l    d  .debug_rnglists	00000000 .debug_rnglists
00000000 l    d  .debug_macro	00000000 .debug_macro
00000000 l    d  .debug_line	00000000 .debug_line
00000000 l    d  .debug_str	00000000 .debug_str
00000000 l    d  .comment	00000000 .comment
00000000 l    d  .ARM.attributes	00000000 .ARM.attributes
00000000 l    d  .debug_frame	00000000 .debug_frame
0000a0e8 l    d  .rel.dyn	00000000 .rel.dyn
00000000 l    d  .debug_line_str	00000000 .debug_line_str
00000000 l    df *ABS*	00000000 ta_stm32mp_nvmem.c
00008d78 l     O .rodata	00000010 uuid.2
00008d88 l     O .rodata	0000001b __func__.1
0000a3b8 l     O .bss	00000004 session_refcount
0000a3bc l     O .bss	00000004 pta_session
00000000 l    df *ABS*	00000000 user_ta_header.c
00008da8 l     O .rodata	00000001 __compound_literal.6
00008dac l     O .rodata	00000004 __compound_literal.5
00008db0 l     O .rodata	00000004 __compound_literal.4
00008db4 l     O .rodata	00000004 __compound_literal.3
00008db8 l     O .rodata	00000001 __compound_literal.2
00008db9 l     O .rodata	00000001 __compound_literal.1
00008dba l     O .rodata	00000001 __compound_literal.0
0000dc18 l     O .bss	00000001 stack_canary_inited.0
00000000 l    df *ABS*	00000000 ta_entry_a32.o
00000000 l    df *ABS*	00000000 stack_check.c
00000000 l    df *ABS*	00000000 trace.c
00009abf l     O .rodata	00000005 lvl_strs.0
00000000 l    df *ABS*	00000000 snprintk.c
00000684 l     F .text	0000079c kprintf.constprop.0
00009ac4 l     O .rodata	00000011 hexdigits
00009ad5 l     O .rodata	00000011 HEXDIGITS
00000000 l    df *ABS*	00000000 arm32_aeabi_ldivmod_a32.o
00000000 l    df *ABS*	00000000 arm32_aeabi_ldivmod.c
00000e68 l     F .text	0000008a ul_div_qr
00000000 l    df *ABS*	00000000 trace_ext.c
00000000 l    df *ABS*	00000000 tee_api.c
00001110 l     F .text	00000052 copy_param
00001162 l     F .text	00000052 copy_gp11_param
000011b4 l     F .text	00000070 check_mem_access_rights_params
00001224 l     F .text	00000028 buf_overlaps_no_share_heap
0000124c l     F .text	0000005c check_invoke_param
000012a8 l     F .text	00000064 update_out_param
0000130c l     F .text	00000064 update_out_gp11_param
000014bc l     F .text	00000110 map_tmp_param
00008dc8 l     O .rodata	0000000b __func__.0
0000a3c0 l     O .bss	00000004 tee_api_instance_data
00000000 l    df *ABS*	00000000 tee_api_panic.c
00001bd8 l     F .text	00000020 check_access
00001bfc l     F .text	00000006 check_res.part.0
00001c02 l     F .text	0000002e __utee_check_outbuf_annotation.localalias
00001c68 l     F .text	00000018 __utee_check_attr_in_annotation.localalias
00000000 l    df *ABS*	00000000 tee_api_property.c
00001c98 l     F .text	00000050 propset_get
00001ce8 l     F .text	00000014 is_propset_pseudo_handle
00001cfc l     F .text	000000c0 propget_get_ext_prop
00001dbc l     F .text	00000158 propget_get_property
00008dd8 l     O .rodata	00000004 __compound_literal.3
00008ddc l     O .rodata	00000004 __compound_literal.2
00008de0 l     O .rodata	00000004 __compound_literal.1
00008de4 l     O .rodata	00000004 __compound_literal.0
00000000 l    df *ABS*	00000000 tee_system_pta.c
000026fc l     F .text	00000050 invoke_system_pta
00008de8 l     O .rodata	00000010 uuid.2
00008df8 l     O .rodata	0000000a __func__.1
00008e02 l     O .rodata	00000017 __func__.0
0000a3c8 l     O .bss	00000004 sess.3
00000000 l    df *ABS*	00000000 user_ta_entry.c
000028f4 l     F .text	0000006a _get_fn_array
0000295e l     F .text	0000006a _fini_iterate_phdr_cb
000029c8 l     F .text	0000001c ta_header_get_session
000029e4 l     F .text	0000005a to_utee_params
00002a3e l     F .text	0000003c from_utee_params
00002a7a l     F .text	00000062 _init_iterate_phdr_cb
00002bd8 l     F .text	0000006c ta_header_remove_session
00009ae6 l     O .rodata	00000016 __func__.0
0000a3cc l     O .bss	00000004 _num_mod_init
0000a3d0 l     O .bss	00000001 init_done
0000a348 l     O .data	00000008 ta_sessions
0000a350 l     O .data	00000008 __phdr_info_head
00000000 l    df *ABS*	00000000 utee_syscalls_a32.o
00000000 l    df *ABS*	00000000 abort.c
00000000 l    df *ABS*	00000000 base64.c
00009afc l     O .rodata	00000041 base64_table
00000000 l    df *ABS*	00000000 tee_api_arith_mpi.c
000034cc l     F .text	00000020 api_panic
000034ec l     F .text	00000020 mpi_panic
0000350c l     F .text	00000050 get_mpi
0000355c l     F .text	00000040 copy_mpi_to_bigint
0000359c l     F .text	000000e0 bigint_binary
0000367c l     F .text	00000010 mpi_is_odd
0000368c l     F .text	00000016 rng_read
000036a2 l     F .text	00000496 mpi_egcd
0000a408 l     O .bss	00003800 data.18
00003f00 l     F .text	00000148 bigint_binary_mod
00009b3d l     O .rodata	00000008 __func__.15
00009b45 l     O .rodata	0000000e __func__.11
00009b53 l     O .rodata	00000009 __func__.2
00009b5c l     O .rodata	00000012 __func__.17
00009b6e l     O .rodata	0000000f __func__.16
00009b7d l     O .rodata	0000001f __func__.14
00009b9c l     O .rodata	00000019 __func__.13
00009bb5 l     O .rodata	00000012 __func__.7
00009bc7 l     O .rodata	00000015 __func__.12
00009bdc l     O .rodata	0000000e __func__.10
00009bea l     O .rodata	0000000e __func__.9
00009bf8 l     O .rodata	0000000e __func__.8
00009c06 l     O .rodata	00000011 __func__.6
00009c17 l     O .rodata	00000018 __func__.5
00009c2f l     O .rodata	00000011 __func__.4
00009c40 l     O .rodata	0000001d __func__.3
00009c5d l     O .rodata	00000019 __func__.1
00009c76 l     O .rodata	00000015 __func__.0
00000000 l    df *ABS*	00000000 tcb.c
00009c8b l     O .rodata	00000010 __func__.1
00009c9b l     O .rodata	00000010 __func__.0
0000dc08 l     O .bss	00000004 _tls_size
0000dc0c l     O .bss	00000004 _tcb
00000000 l    df *ABS*	00000000 assert.c
00000000 l    df *ABS*	00000000 bignum.c
00005004 l     F .text	00000020 mbedtls_ct_bool
00005024 l     F .text	00000028 mbedtls_ct_mpi_sign_if
0000504c l     F .text	00000036 mpi_get_digit
000052e0 l     F .text	00000036 mbedtls_mpi_resize_clear
000058a8 l     F .text	0000005e add_sub_mpi
000060f4 l     F .text	00000220 mbedtls_mpi_exp_mod_optionally_safe
00006518 l     F .text	0000008c mpi_check_small_factors
000067b8 l     F .text	000001c8 mpi_miller_rabin
00008e1c l     O .rodata	000000a7 small_prime_gaps
00008ec4 l     O .rodata	00000024 gcd_pairs
00000000 l    df *ABS*	00000000 bignum_core.c
000072f0 l     F .text	00000020 mbedtls_ct_bool
00007310 l     F .text	0000003c mbedtls_ct_uint_lt
00007a06 l     F .text	000001b6 mbedtls_mpi_core_exp_mod_optionally_safe
00000000 l    df *ABS*	00000000 constant_time.c
00007de8 l     F .text	00000020 mbedtls_ct_bool
00007e08 l     F .text	0000003c mbedtls_ct_uint_lt
00000000 l    df *ABS*	00000000 platform_util.c
0000a358 l     O .data	00000004 memset_func
00000000 l    df *ABS*	00000000 bget_malloc.c
00007fe8 l     F .text	0000000a _assert_trap
00007ff2 l     F .text	00000022 bget_buf_size.part.0
00009cab l     O .rodata	0000000e __func__.2
00009cb9 l     O .rodata	00000005 __func__.8
00009cbe l     O .rodata	00000006 __func__.7
00009cc4 l     O .rodata	00000005 __func__.5
00009cc9 l     O .rodata	00000006 __func__.6
00009ccf l     O .rodata	00000006 __func__.4
00009cd5 l     O .rodata	00000007 __func__.3
00009cdc l     O .rodata	00000014 __func__.1
00009cf0 l     O .rodata	00000013 __func__.0
0000a35c l     O .data	0000005c malloc_ctx
00000000 l    df *ABS*	00000000 snprintf.c
00000000 l    df *ABS*	00000000 memcpy.c
00000000 l    df *ABS*	00000000 mempool.c
00009d03 l     O .rodata	00000013 __func__.2
00009d16 l     O .rodata	0000000b __func__.1
00009d21 l     O .rodata	0000000e __func__.0
00000000 l    df *ABS*	00000000 memset.c
00000000 l    df *ABS*	00000000 memchr.c
00000000 l    df *ABS*	00000000 strlen.c
00000000 l    df *ABS*	00000000 memmove.c
00000000 l    df *ABS*	00000000 strcmp.c
00000000 l    df *ABS*	00000000 strlcpy.c
00000000 l    df *ABS*	00000000 consttime_memcmp.c
00000000 l    df *ABS*	00000000 
0000a000 l     O *ABS*	00000000 _DYNAMIC
0000a088 l     O *ABS*	00000000 _GLOBAL_OFFSET_TABLE_
00008d48 l     F .text	00000010 ___utee_panic_from_thumb
00008d58 l     F .text	00000010 ___utee_cache_operation_from_thumb
00008d68 l     F .text	00000010 ___utee_log_from_thumb
000010b8 g     F .text	00000058 putchar
00003c44 g     F .text	00000004 __GP11_TEE_BigIntConvertFromOctetString
0000771a g     F .text	0000003a mbedtls_mpi_core_add_if
00004bfe g     F .text	00000004 TEE_BigIntConvertToFMM
00004698 g     F .text	00000008 TEE_BigIntSquareMod
00004048 g     F .text	00000148 TEE_BigIntShiftRight
0000883e g     F .text	0000007e raw_malloc_add_pool
00002838 g     F .text	000000bc tee_invoke_supp_plugin
00007bf0 g     F .text	0000005e mbedtls_mpi_core_fill_random
00005194 g     F .text	00000098 mbedtls_mpi_grow
00000f60 g     F .text	000000a8 __l_divmod
00002536 g     F .text	000000c6 __GP11_TEE_GetPropertyName
00001b38 g     F .text	00000088 TEE_Realloc
00007610 g     F .text	00000070 mbedtls_mpi_core_shift_r
00001c82 g     F .text	00000016 __utee_check_inout_annotation
0000868c g     F .text	00000008 raw_free
00007e5e g     F .text	0000004e mbedtls_ct_memcmp_partial
00001022 g     F .text	00000072 printf
000042f8 g     F .text	00000010 TEE_BigIntAbs
00002e98 g     F .text	00000014 _utee_log
00001778 g     F .text	000000fc TEE_InvokeTACommand
00001c02 g     F .text	0000002e __utee_check_outbuf_annotation
000075ac g     F .text	00000064 mbedtls_mpi_core_write_be
00005130 g     F .text	00000024 mbedtls_mpi_init_mempool
00003134 g     F .text	00000014 _utee_cryp_random_number_generate
000055d4 g     F .text	0000000c mbedtls_mpi_write_binary
00000628 g     F .text	0000000e vsnprintk
00005974 g     F .text	00000064 mbedtls_mpi_sub_int
00008c88 g     F .text	00000034 memmove
00008a1c g     F .text	00000054 snprintf
00003ea4 g     F .text	0000005c TEE_BigIntCmpS32
00001984 g     F .text	00000004 __GP11_TEE_MemMove
0000a308 g     O .data	00000004 __stack_chk_guard
00005316 g     F .text	000000b2 mbedtls_mpi_shrink
00001994 g     F .text	00000004 __GP11_TEE_MemFill
00004308 g     F .text	00000020 TEE_BigIntAdd
00003094 g     F .text	00000014 _utee_cryp_obj_restrict_usage
00008dc0 g     O .rodata	00000004 ta_heap_size
000031bc g     F .text	00000018 _utee_asymm_operate
00003338 g     F .text	0000000e _base64_enc_len
00005b4e g     F .text	00000156 mbedtls_mpi_read_string
00007792 g     F .text	00000176 mbedtls_mpi_core_mla
00004348 g     F .text	000000a8 TEE_BigIntNeg
00003258 g     F .text	00000014 _utee_storage_free_enum
00000000 g       .text	00000000 __text_start
0000265c g     F .text	000000a0 TEE_GetNextProperty
0000561a g     F .text	00000012 mbedtls_mpi_shift_r
00008a0c g     F .text	00000010 malloc_buffer_overlaps_heap
00002ffc g     F .text	00000014 _utee_hash_init
00004660 g     F .text	0000001c TEE_BigIntSubMod
00006d78 g     F .text	00000244 mbedtls_mpi_gen_prime
00002364 g     F .text	00000064 TEE_GetPropertyAsBinaryBlock
000054c8 g     F .text	00000020 mbedtls_mpi_get_bit
00007c4e g     F .text	0000009e mbedtls_mpi_core_random
00008dbc g     O .rodata	00000004 __ta_no_share_heap_size
0000559c g     F .text	0000002c mbedtls_mpi_read_binary
00000574 g     F .text	0000004c trace_printf
000065b2 g     F .text	00000024 mbedtls_mpi_montmul
0000330c g     F .text	00000014 _utee_cache_operation
00008a80 g     F .text	000000d8 memcpy
00007d02 g     F .text	00000020 mbedtls_mpi_core_exp_mod
00004c02 g     F .text	0000009a TEE_BigIntConvertFromFMM
00001bf8 g     F .text	00000004 TEE_Panic
00007f18 g     F .text	0000003c mbedtls_ct_memcpy_if
00000e50 g     F .text	00000018 __aeabi_uldivmod
00001094 g     F .text	00000024 puts
00004c9c g     F .text	000000f4 TEE_BigIntComputeFMM
000089dc g     F .text	00000010 malloc_get_stats
00001a30 g     F .text	00000016 TEE_GetREETime
000089c4 g     F .text	00000018 raw_malloc_get_stats
0000a29c g     O .data	0000006c ta_props
00001af8 g     F .text	00000004 __GP11_TEE_Malloc
000016a8 g     F .text	000000d0 __GP11_TEE_OpenTASession
00001c32 g     F .text	0000001c __utee_check_instring_annotation
0000878a g     F .text	00000012 malloc
00000334 g     F .text	00000070 __ta_entry_c
00002528 g     F .text	00000004 TEE_FreePropertyEnumerator
00008a70 g     F .text	0000000e vsnprintf
0000a298 g     O .data	00000004 trace_level
00003e38 g     F .text	0000006c TEE_BigIntCmp
00008da4 g     O .rodata	00000004 ta_num_props
000084a0 g     F .text	00000080 bgetr
000031ec g     F .text	00000018 _utee_storage_obj_open
0000198c g     F .text	00000004 __GP11_TEE_MemCompare
00008c3c g     F .text	00000010 mempool_free
00003010 g     F .text	00000014 _utee_hash_update
00003c48 g     F .text	0000008c TEE_BigIntConvertToOctetString
0000555c g     F .text	00000008 mbedtls_mpi_bitlen
00004194 g     F .text	00000060 TEE_BigIntGetBit
00008dc4 g     O .rodata	00000003 trace_ext_prefix
00003294 g     F .text	00000014 _utee_storage_next_enum
0000867a g     F .text	00000012 raw_malloc
00008230 g     F .text	0000005c bgetz
00001974 g     F .text	0000000c TEE_GetInstanceData
000019ae g     F .text	0000001e TEE_Wait
000059d8 g     F .text	00000114 mbedtls_mpi_mul_mpi
00004190 g     F .text	00000004 __GP11_TEE_BigIntShiftRight
00001bca g     F .text	00000006 TEE_CacheFlush
00000404 g     F .text	00000170 trace_vprintf
00000004 g     F .text	00000002 TA_DestroyEntryPoint
00005124 g     F .text	0000000c mbedtls_mpi_init
0000321c g     F .text	00000014 _utee_storage_obj_del
00005536 g     F .text	00000026 mbedtls_mpi_lsb
00004fcc g     F .text	00000028 _assert_log
00002fd4 g     F .text	00000014 _utee_cryp_state_copy
00004bf6 g     F .text	00000004 TEE_BigIntFMMContextSizeInU32
000027b8 g     F .text	00000080 tee_unmap
00003b38 g     F .text	00000044 _TEE_MathAPI_Init
00004d90 g     F .text	0000017c __utee_tcb_init
00005906 g     F .text	00000004 mbedtls_mpi_add_mpi
00003320 g     F .text	00000018 abort
00006980 g     F .text	0000003e mbedtls_mpi_random
000003ac g     F .text	00000028 __stack_chk_fail
00001c52 g     F .text	00000016 __utee_check_out_annotation
0000dc19 g     O .bss	00004000 ta_heap
000046a0 g     F .text	000000f4 TEE_BigIntInvMod
00002adc g     F .text	000000ec __utee_call_elf_init_fn
000000d0 g     F .text	00000018 TA_CloseSessionEntryPoint
00002f04 g     F .text	00000014 _utee_close_ta_session
00004be2 g     F .text	00000004 __GP11_TEE_BigIntInitFMMContext
00007d66 g     F .text	00000018 mbedtls_mpi_core_check_zero_ct
0000590a g     F .text	00000006 mbedtls_mpi_sub_mpi
00008cfc g     F .text	00000048 consttime_memcmp
00002e84 g     F .text	00000014 _utee_return
00002eac g     F .text	00000014 __utee_panic
00007e44 g     F .text	0000001a mbedtls_ct_memcmp
00004f0c g     F .text	00000018 __tls_get_addr
000000e8 g     F .text	0000024c TA_InvokeCommandEntryPoint
00002bc8 g     F .text	00000010 __utee_call_elf_fini_fn
00008818 g     F .text	00000010 free_wipe
00008bdc g     F .text	0000003c mempool_alloc
00002e70 g     F .text	00000014 _utee_panic
0000882c g     F .text	00000012 raw_malloc_init_ctx
00008c18 g     F .text	00000024 mempool_calloc
000032f8 g     F .text	00000014 _utee_cryp_obj_generate_key
000032d0 g     F .text	00000014 _utee_storage_obj_trunc
0000a30c g     O .data	0000003c tee_props
00002f58 g     F .text	00000014 _utee_unmask_cancellation
000024f8 g     F .text	00000008 TEE_ResetPropertyEnumerator
0000879c g     F .text	00000020 calloc
00001a46 g     F .text	000000b2 TEE_Malloc
00001474 g     F .text	00000048 TEE_CheckMemoryAccessRights
000023c8 g     F .text	00000098 TEE_GetPropertyAsUUID
00000ef2 g     F .text	0000006e __ul_divmod
00002ec0 g     F .text	00000018 _utee_get_property
0000424c g     F .text	00000080 TEE_BigIntSetBit
00005490 g     F .text	00000038 mbedtls_mpi_lset
00000006 g     F .text	000000ca TA_OpenSessionEntryPoint
00007d44 g     F .text	00000022 mbedtls_mpi_core_sub_int
00004f24 g     F .text	000000a8 dl_iterate_phdr
00011c20 g       .bss	00000000 __ftrace_buf_end
0000a404 g     O .bss	00000004 ta_param_types
0000602a g     F .text	00000066 mbedtls_mpi_div_int
00007548 g     F .text	00000064 mbedtls_mpi_core_write_le
00006cdc g     F .text	0000009c mbedtls_mpi_is_prime_ext
00004b68 g     F .text	00000070 TEE_BigIntIsProbablePrime
00005aec g     F .text	00000062 mbedtls_mpi_mul_int
0000662c g     F .text	00000012 mbedtls_mpi_exp_mod
0000522c g     F .text	00000052 mbedtls_mpi_safe_cond_assign
00001f14 g     F .text	0000018c TEE_GetPropertyAsString
00005082 g     F .text	000000a2 mbedtls_mpi_lt_mpi_ct
00003b7c g     F .text	00000038 TEE_BigIntInit
00003cd4 g     F .text	0000004c __GP11_TEE_BigIntConvertToOctetString
000042cc g     F .text	0000002c TEE_BigIntAssign
00001c4e g     F .text	00000002 __utee_check_outstring_annotation
00001980 g     F .text	00000004 TEE_MemMove
00007fbc g     F .text	00000018 mbedtls_platform_zeroize
00003bb8 g     F .text	0000008c TEE_BigIntConvertFromOctetString
000031a4 g     F .text	00000018 _utee_authenc_dec_final
0000562c g     F .text	0000005e mbedtls_mpi_cmp_abs
000032a8 g     F .text	00000014 _utee_storage_obj_read
00008c5c g     F .text	0000001c memchr
000013d4 g     F .text	00000050 TEE_UnmaskCancellation
00006fbc g     F .text	00000334 mbedtls_mpi_self_test
000032e4 g     F .text	00000014 _utee_storage_obj_seek
00001c30 g     F .text	00000002 __utee_check_gp11_outbuf_annotation
00007464 g     F .text	00000050 mbedtls_mpi_core_cond_swap
00002f44 g     F .text	00000014 _utee_check_access_rights
000074fe g     F .text	0000004a mbedtls_mpi_core_read_be
00001874 g     F .text	000000f0 __GP11_TEE_InvokeTACommand
00005714 g     F .text	00000064 mbedtls_mpi_cmp_int
00003408 g     F .text	000000c4 _base64_dec
0000326c g     F .text	00000014 _utee_storage_reset_enum
00001c68 g     F .text	00000018 __utee_check_attr_in_annotation
00003174 g     F .text	00000018 _utee_authenc_update_payload
000045f4 g     F .text	00000050 TEE_BigIntMod
00006314 g     F .text	0000006c mbedtls_mpi_mod_int
00005570 g     F .text	0000002c mbedtls_mpi_read_binary_le
000044d2 g     F .text	00000122 TEE_BigIntDiv
000030bc g     F .text	00000014 _utee_cryp_obj_alloc
00011c20 g       .bss	00000000 __ftrace_buf_start
00008cd2 g     F .text	0000002a strlcpy
000053c8 g     F .text	0000006a mbedtls_mpi_copy
0000734c g     F .text	00000006 mbedtls_mpi_core_clz
00008618 g     F .text	00000014 malloc_reset_stats
00002460 g     F .text	00000098 TEE_GetPropertyAsIdentity
00000e20 g     F .text	00000016 __vsprintf
00002230 g     F .text	00000098 TEE_GetPropertyAsU64
00002fa8 g     F .text	00000014 _utee_set_ta_time
00002f18 g     F .text	00000018 _utee_invoke_ta_command
000087bc g     F .text	0000001c realloc
00005432 g     F .text	0000005e mbedtls_mpi_swap
00008b58 g     F .text	00000084 mempool_alloc_pool
000043f0 g     F .text	000000dc TEE_BigIntMul
00008828 g     F .text	00000004 raw_malloc_get_ctx_size
000055e0 g     F .text	0000003a mbedtls_mpi_shift_l
0000568a g     F .text	0000008a mbedtls_mpi_cmp_mpi
00001990 g     F .text	00000004 TEE_MemFill
00007d22 g     F .text	00000022 mbedtls_mpi_core_exp_mod_unsafe
000089ec g     F .text	00000010 malloc_add_pool
000003f0 g     F .text	00000014 trace_get_level
00005778 g     F .text	00000090 mbedtls_mpi_add_abs
00004bea g     F .text	00000008 TEE_BigIntFMMSizeInU32
00002104 g     F .text	00000094 TEE_GetPropertyAsBool
000086e4 g     F .text	000000a6 raw_realloc
00004bd8 g     F .text	00000004 TEE_BigIntInitFMM
0000303c g     F .text	00000014 _utee_cipher_init
00002c44 g     F .text	0000022c __utee_entry
00002198 g     F .text	00000098 TEE_GetPropertyAsU32
00008d78 g       .text	00000000 __text_end
00004794 g     F .text	000000b0 TEE_BigIntRelativePrime
00006090 g     F .text	00000064 mbedtls_mpi_mod_mpi
000073d8 g     F .text	00000050 mbedtls_mpi_core_lt_ct
00003080 g     F .text	00000014 _utee_cryp_obj_get_info
00007754 g     F .text	0000003e mbedtls_mpi_core_sub
00008520 g     F .text	00000098 bpool
00002500 g     F .text	00000028 TEE_AllocatePropertyEnumerator
00002fbc g     F .text	00000018 _utee_cryp_state_alloc
00001384 g     F .text	00000050 TEE_GetCancellationFlag
00006652 g     F .text	00000136 mbedtls_mpi_gcd
00001a08 g     F .text	00000028 TEE_SetTAPersistentTime
00007fd4 g     F .text	00000014 mbedtls_zeroize_and_free
000055c8 g     F .text	0000000c mbedtls_mpi_write_binary_le
00008c4c g     F .text	00000010 memset
0000862c g     F .text	0000004e raw_memalign
000019cc g     F .text	0000003c TEE_GetTAPersistentTime
000005c0 g     F .text	00000002 dhex_dump
00007376 g     F .text	00000026 mbedtls_mpi_core_bigendian_to_host
00001424 g     F .text	00000050 TEE_MaskCancellation
000030a8 g     F .text	00000014 _utee_cryp_obj_get_attr
00003068 g     F .text	00000018 _utee_cipher_final
000003d4 g     F .text	0000001c trace_set_level
00007d7e g     F .text	00000016 mbedtls_mpi_core_to_mont_rep
00007f54 g     F .text	00000054 mbedtls_ct_memcpy_offset
00002fe8 g     F .text	00000014 _utee_cryp_state_free
00008cbc g     F .text	00000016 strcmp
00002eec g     F .text	00000018 _utee_open_ta_session
00003da4 g     F .text	00000094 TEE_BigIntConvertToS32
00004328 g     F .text	00000020 TEE_BigIntSub
000003a4 g     F .text	00000004 tahead_get_trace_level
00003280 g     F .text	00000014 _utee_storage_start_enum
00007eac g     F .text	0000006c mbedtls_ct_memmove_left
0000274c g     F .text	0000006c tee_map_zi
000065d6 g     F .text	00000056 mbedtls_mpi_montred
000087d8 g     F .text	00000020 memalign
00003bb4 g     F .text	00000004 __GP11_TEE_BigIntInit
00007680 g     F .text	0000006c mbedtls_mpi_core_shift_l
00003d20 g     F .text	00000084 TEE_BigIntConvertFromS32
00005910 g     F .text	00000064 mbedtls_mpi_add_int
0000318c g     F .text	00000018 _utee_authenc_enc_final
000089fc g     F .text	00000010 malloc_buffer_is_within_alloced
000030d0 g     F .text	00000014 _utee_cryp_obj_close
00004be0 g     F .text	00000002 TEE_BigIntInitFMMContext
00002f6c g     F .text	00000014 _utee_mask_cancellation
0000a3e0 g     O .bss	00000004 __ta_no_share_malloc_ctx
00003230 g     F .text	00000014 _utee_storage_obj_rename
00001964 g     F .text	00000004 __GP11_TEE_CheckMemoryAccessRights
000044cc g     F .text	00000006 TEE_BigIntSquare
000032bc g     F .text	00000014 _utee_storage_obj_write
00007352 g     F .text	00000024 mbedtls_mpi_core_bitlen
00000000 g     F .text	00000004 TA_CreateEntryPoint
000003a8 g     F .text	00000004 __ta_entry
0000dc19 g     O .bss	00000000 __ta_no_share_heap
00003160 g     F .text	00000014 _utee_authenc_update_aad
000065a4 g     F .text	0000000e mbedtls_mpi_montg_init
00000636 g     F .text	0000004e snprintk
000041f4 g     F .text	00000058 TEE_BigIntGetBitCount
0000310c g     F .text	00000014 _utee_cryp_obj_copy
0000467c g     F .text	0000001c TEE_BigIntMulMod
000069be g     F .text	0000031e mbedtls_mpi_inv_mod
00001c80 g     F .text	00000002 __utee_check_gp11_attr_in_annotation
0000a3e4 g     O .bss	00000020 ta_params
00005ca4 g     F .text	00000386 mbedtls_mpi_div_mpi
00001c50 g     F .text	00000002 __utee_check_gp11_outstring_annotation
00005564 g     F .text	0000000c mbedtls_mpi_size
00008014 g     F .text	0000021c bget
00004bfa g     F .text	00000004 __GP11_TEE_BigIntFMMContextSizeInU32
0000252c g     F .text	0000000a TEE_StartPropertyEnumerator
00002f80 g     F .text	00000014 _utee_wait
000054e8 g     F .text	0000004e mbedtls_mpi_set_bit
0000739c g     F .text	0000003c mbedtls_mpi_core_uint_le_mpi
00001afc g     F .text	0000003c TEE_Free
00001bd0 g     F .text	00000006 TEE_CacheInvalidate
00004ff4 g     F .text	00000010 _assert_break
00007cec g     F .text	00000016 mbedtls_mpi_core_exp_mod_working_limbs
00004644 g     F .text	0000001c TEE_BigIntAddMod
00004bdc g     F .text	00000004 __GP11_TEE_BigIntInitFMM
00002f94 g     F .text	00000014 _utee_get_time
000076ec g     F .text	0000002e mbedtls_mpi_core_add
000025fc g     F .text	00000060 TEE_GetPropertyName
00001bc0 g     F .text	00000004 __GP11_TEE_Realloc
000030f8 g     F .text	00000014 _utee_cryp_obj_populate
000074b4 g     F .text	0000004a mbedtls_mpi_core_read_le
0000dc14 g     O .bss	00000004 mbedtls_ct_zero
00001988 g     F .text	00000004 TEE_MemCompare
00003050 g     F .text	00000018 _utee_cipher_update
000005c4 g     F .text	00000064 __vsnprintf
0000a3d4 g     O .bss	0000000c __elf_phdr_info
0000663e g     F .text	00000014 mbedtls_mpi_exp_mod_unsafe
000015cc g     F .text	000000dc TEE_OpenTASession
00007fa8 g     F .text	00000014 mbedtls_ct_zeroize_if
00007d94 g     F .text	00000054 mbedtls_mpi_core_from_mont_rep
00001008 g     F .text	00000014 trace_ext_puts
000020a0 g     F .text	00000064 __GP11_TEE_GetPropertyAsString
0000890e g     F .text	000000b6 raw_malloc_buffer_is_within_alloced
0000101c g     F .text	00000006 trace_ext_get_thread_id
000088bc g     F .text	00000052 raw_malloc_buffer_overlaps_heap
00003120 g     F .text	00000014 _utee_cryp_derive_key
00005154 g     F .text	00000040 mbedtls_mpi_free
000030e4 g     F .text	00000014 _utee_cryp_obj_reset
00001bc4 g     F .text	00000006 TEE_CacheClean
00002ed8 g     F .text	00000014 _utee_get_property_name_to_index
0000796c g     F .text	0000009a mbedtls_mpi_core_montmul
00008694 g     F .text	00000050 raw_calloc
00003346 g     F .text	000000c2 _base64_enc
0000527e g     F .text	00000062 mbedtls_mpi_safe_cond_swap
00003148 g     F .text	00000018 _utee_authenc_init
00008c78 g     F .text	00000010 strlen
00004998 g     F .text	000001d0 TEE_BigIntComputeExtendedGcd
00003244 g     F .text	00000014 _utee_storage_alloc_enum
00004844 g     F .text	00000154 TEE_BigIntExpMod
00001998 g     F .text	00000016 TEE_GetSystemTime
000031d4 g     F .text	00000018 _utee_asymm_verify
00009d60 g     O .ta_head	00000020 ta_head
0000828c g     F .text	00000214 brel
000022c8 g     F .text	0000009c __GP11_TEE_GetPropertyAsBinaryBlock
00005808 g     F .text	000000a0 mbedtls_mpi_sub_abs
00006788 g     F .text	00000030 mbedtls_mpi_fill_random
00001968 g     F .text	0000000c TEE_SetInstanceData
00002f30 g     F .text	00000014 _utee_get_cancellation_flag
00007428 g     F .text	0000003c mbedtls_mpi_core_cond_assign
00000e38 g     F .text	00000018 __aeabi_ldivmod
00006380 g     F .text	00000198 mbedtls_mpi_write_string
000087f8 g     F .text	00000012 aligned_alloc
0000794a g     F .text	00000022 mbedtls_mpi_core_montmul_init
00004be6 g     F .text	00000004 TEE_BigIntInitFMMContext1
00007bbc g     F .text	00000034 mbedtls_mpi_core_get_mont_r2_unsafe
00001370 g     F .text	00000014 TEE_CloseTASession
00003204 g     F .text	00000018 _utee_storage_obj_create
00004bf2 g     F .text	00000004 __GP11_TEE_BigIntFMMSizeInU32
00007908 g     F .text	00000042 mbedtls_mpi_core_mul
0000880a g     F .text	0000000e free
000085b8 g     F .text	00000060 bstats
0000dc10 g     O .bss	00000004 mbedtls_mpi_mempool
00003024 g     F .text	00000018 _utee_hash_final



Disassembly of section .text:

00000000 <TA_CreateEntryPoint>:
TA_CreateEntryPoint():
/home/dangcaominh/STM32MP1/optee-os/optee-os/ta/stm32mp_nvmem/ta_stm32mp_nvmem.c:195
       0:	2000      	movs	r0, #0
       2:	4770      	bx	lr

00000004 <TA_DestroyEntryPoint>:
TA_DestroyEntryPoint():
/home/dangcaominh/STM32MP1/optee-os/optee-os/ta/stm32mp_nvmem/ta_stm32mp_nvmem.c:199
       4:	4770      	bx	lr

00000006 <TA_OpenSessionEntryPoint>:
TA_OpenSessionEntryPoint():
/home/dangcaominh/STM32MP1/optee-os/optee-os/ta/stm32mp_nvmem/ta_stm32mp_nvmem.c:204
       6:	4a2c      	ldr	r2, [pc, #176]	@ (b8 <TA_OpenSessionEntryPoint+0xb2>)
       8:	4b2c      	ldr	r3, [pc, #176]	@ (bc <TA_OpenSessionEntryPoint+0xb6>)
       a:	447a      	add	r2, pc
/home/dangcaominh/STM32MP1/optee-os/optee-os/ta/stm32mp_nvmem/ta_stm32mp_nvmem.c:208
       c:	efc0 0010 	vmov.i32	d16, #0	@ 0x00000000
/home/dangcaominh/STM32MP1/optee-os/optee-os/ta/stm32mp_nvmem/ta_stm32mp_nvmem.c:204
      10:	b530      	push	{r4, r5, lr}
      12:	b08b      	sub	sp, #44	@ 0x2c
      14:	58d3      	ldr	r3, [r2, r3]
/home/dangcaominh/STM32MP1/optee-os/optee-os/ta/stm32mp_nvmem/ta_stm32mp_nvmem.c:210
      16:	a803      	add	r0, sp, #12
/home/dangcaominh/STM32MP1/optee-os/optee-os/ta/stm32mp_nvmem/ta_stm32mp_nvmem.c:208
      18:	ad04      	add	r5, sp, #16
/home/dangcaominh/STM32MP1/optee-os/optee-os/ta/stm32mp_nvmem/ta_stm32mp_nvmem.c:204
      1a:	681b      	ldr	r3, [r3, #0]
      1c:	9309      	str	r3, [sp, #36]	@ 0x24
      1e:	f04f 0300 	mov.w	r3, #0
/home/dangcaominh/STM32MP1/optee-os/optee-os/ta/stm32mp_nvmem/ta_stm32mp_nvmem.c:207
      22:	2300      	movs	r3, #0
/home/dangcaominh/STM32MP1/optee-os/optee-os/ta/stm32mp_nvmem/ta_stm32mp_nvmem.c:208
      24:	edcd 0b06 	vstr	d16, [sp, #24]
      28:	edcd 0b04 	vstr	d16, [sp, #16]
      2c:	edcd 0b07 	vstr	d16, [sp, #28]
/home/dangcaominh/STM32MP1/optee-os/optee-os/ta/stm32mp_nvmem/ta_stm32mp_nvmem.c:207
      30:	9303      	str	r3, [sp, #12]
/home/dangcaominh/STM32MP1/optee-os/optee-os/ta/stm32mp_nvmem/ta_stm32mp_nvmem.c:210
      32:	f002 fa65 	bl	2500 <TEE_AllocatePropertyEnumerator>
/home/dangcaominh/STM32MP1/optee-os/optee-os/ta/stm32mp_nvmem/ta_stm32mp_nvmem.c:211
      36:	4604      	mov	r4, r0
      38:	b9c0      	cbnz	r0, 6c <TA_OpenSessionEntryPoint+0x66>
/home/dangcaominh/STM32MP1/optee-os/optee-os/ta/stm32mp_nvmem/ta_stm32mp_nvmem.c:214
      3a:	f06f 0101 	mvn.w	r1, #1
      3e:	9803      	ldr	r0, [sp, #12]
      40:	f002 fa74 	bl	252c <TEE_StartPropertyEnumerator>
/home/dangcaominh/STM32MP1/optee-os/optee-os/ta/stm32mp_nvmem/ta_stm32mp_nvmem.c:216
      44:	9803      	ldr	r0, [sp, #12]
      46:	4621      	mov	r1, r4
      48:	462a      	mov	r2, r5
      4a:	f002 fa09 	bl	2460 <TEE_GetPropertyAsIdentity>
/home/dangcaominh/STM32MP1/optee-os/optee-os/ta/stm32mp_nvmem/ta_stm32mp_nvmem.c:217
      4e:	4604      	mov	r4, r0
      50:	b960      	cbnz	r0, 6c <TA_OpenSessionEntryPoint+0x66>
/home/dangcaominh/STM32MP1/optee-os/optee-os/ta/stm32mp_nvmem/ta_stm32mp_nvmem.c:220
      52:	9b04      	ldr	r3, [sp, #16]
      54:	f1b3 4f00 	cmp.w	r3, #2147483648	@ 0x80000000
      58:	d027      	beq.n	aa <TA_OpenSessionEntryPoint+0xa4>
/home/dangcaominh/STM32MP1/optee-os/optee-os/ta/stm32mp_nvmem/ta_stm32mp_nvmem.c:225
      5a:	4b19      	ldr	r3, [pc, #100]	@ (c0 <TA_OpenSessionEntryPoint+0xba>)
      5c:	447b      	add	r3, pc
      5e:	681a      	ldr	r2, [r3, #0]
      60:	b1a2      	cbz	r2, 8c <TA_OpenSessionEntryPoint+0x86>
/home/dangcaominh/STM32MP1/optee-os/optee-os/ta/stm32mp_nvmem/ta_stm32mp_nvmem.c:232
      62:	4a18      	ldr	r2, [pc, #96]	@ (c4 <TA_OpenSessionEntryPoint+0xbe>)
      64:	447a      	add	r2, pc
      66:	6813      	ldr	r3, [r2, #0]
      68:	3301      	adds	r3, #1
      6a:	6013      	str	r3, [r2, #0]
/home/dangcaominh/STM32MP1/optee-os/optee-os/ta/stm32mp_nvmem/ta_stm32mp_nvmem.c:235
      6c:	9803      	ldr	r0, [sp, #12]
      6e:	b108      	cbz	r0, 74 <TA_OpenSessionEntryPoint+0x6e>
/home/dangcaominh/STM32MP1/optee-os/optee-os/ta/stm32mp_nvmem/ta_stm32mp_nvmem.c:236
      70:	f002 fa5a 	bl	2528 <TEE_FreePropertyEnumerator>
/home/dangcaominh/STM32MP1/optee-os/optee-os/ta/stm32mp_nvmem/ta_stm32mp_nvmem.c:204
      74:	4a14      	ldr	r2, [pc, #80]	@ (c8 <TA_OpenSessionEntryPoint+0xc2>)
/home/dangcaominh/STM32MP1/optee-os/optee-os/ta/stm32mp_nvmem/ta_stm32mp_nvmem.c:239
      76:	4b11      	ldr	r3, [pc, #68]	@ (bc <TA_OpenSessionEntryPoint+0xb6>)
/home/dangcaominh/STM32MP1/optee-os/optee-os/ta/stm32mp_nvmem/ta_stm32mp_nvmem.c:204
      78:	447a      	add	r2, pc
/home/dangcaominh/STM32MP1/optee-os/optee-os/ta/stm32mp_nvmem/ta_stm32mp_nvmem.c:239
      7a:	58d3      	ldr	r3, [r2, r3]
      7c:	681a      	ldr	r2, [r3, #0]
      7e:	9b09      	ldr	r3, [sp, #36]	@ 0x24
      80:	405a      	eors	r2, r3
      82:	f04f 0300 	mov.w	r3, #0
      86:	d012      	beq.n	ae <TA_OpenSessionEntryPoint+0xa8>
      88:	f000 f990 	bl	3ac <__stack_chk_fail>
/home/dangcaominh/STM32MP1/optee-os/optee-os/ta/stm32mp_nvmem/ta_stm32mp_nvmem.c:226
      8c:	9001      	str	r0, [sp, #4]
      8e:	3304      	adds	r3, #4
      90:	9300      	str	r3, [sp, #0]
      92:	4602      	mov	r2, r0
      94:	4603      	mov	r3, r0
      96:	f04f 31ff 	mov.w	r1, #4294967295	@ 0xffffffff
      9a:	480c      	ldr	r0, [pc, #48]	@ (cc <TA_OpenSessionEntryPoint+0xc6>)
      9c:	4478      	add	r0, pc
      9e:	f001 fa95 	bl	15cc <TEE_OpenTASession>
/home/dangcaominh/STM32MP1/optee-os/optee-os/ta/stm32mp_nvmem/ta_stm32mp_nvmem.c:228
      a2:	2800      	cmp	r0, #0
      a4:	d0dd      	beq.n	62 <TA_OpenSessionEntryPoint+0x5c>
/home/dangcaominh/STM32MP1/optee-os/optee-os/ta/stm32mp_nvmem/ta_stm32mp_nvmem.c:226
      a6:	4604      	mov	r4, r0
      a8:	e7e0      	b.n	6c <TA_OpenSessionEntryPoint+0x66>
/home/dangcaominh/STM32MP1/optee-os/optee-os/ta/stm32mp_nvmem/ta_stm32mp_nvmem.c:221
      aa:	4c02      	ldr	r4, [pc, #8]	@ (b4 <TA_OpenSessionEntryPoint+0xae>)
      ac:	e7de      	b.n	6c <TA_OpenSessionEntryPoint+0x66>
/home/dangcaominh/STM32MP1/optee-os/optee-os/ta/stm32mp_nvmem/ta_stm32mp_nvmem.c:239
      ae:	4620      	mov	r0, r4
      b0:	b00b      	add	sp, #44	@ 0x2c
      b2:	bd30      	pop	{r4, r5, pc}
      b4:	ffff0001 	.word	0xffff0001
      b8:	0000a07a 	.word	0x0000a07a
      bc:	0000000c 	.word	0x0000000c
      c0:	0000a358 	.word	0x0000a358
      c4:	0000a350 	.word	0x0000a350
      c8:	0000a00c 	.word	0x0000a00c
      cc:	00008cd8 	.word	0x00008cd8

000000d0 <TA_CloseSessionEntryPoint>:
TA_CloseSessionEntryPoint():
/home/dangcaominh/STM32MP1/optee-os/optee-os/ta/stm32mp_nvmem/ta_stm32mp_nvmem.c:243
      d0:	4a04      	ldr	r2, [pc, #16]	@ (e4 <TA_CloseSessionEntryPoint+0x14>)
      d2:	447a      	add	r2, pc
      d4:	6813      	ldr	r3, [r2, #0]
      d6:	3b01      	subs	r3, #1
      d8:	6013      	str	r3, [r2, #0]
/home/dangcaominh/STM32MP1/optee-os/optee-os/ta/stm32mp_nvmem/ta_stm32mp_nvmem.c:245
      da:	b913      	cbnz	r3, e2 <TA_CloseSessionEntryPoint+0x12>
/home/dangcaominh/STM32MP1/optee-os/optee-os/ta/stm32mp_nvmem/ta_stm32mp_nvmem.c:246
      dc:	6850      	ldr	r0, [r2, #4]
      de:	f001 b947 	b.w	1370 <TEE_CloseTASession>
/home/dangcaominh/STM32MP1/optee-os/optee-os/ta/stm32mp_nvmem/ta_stm32mp_nvmem.c:247
      e2:	4770      	bx	lr
      e4:	0000a2e2 	.word	0x0000a2e2

000000e8 <TA_InvokeCommandEntryPoint>:
TA_InvokeCommandEntryPoint():
/home/dangcaominh/STM32MP1/optee-os/optee-os/ta/stm32mp_nvmem/ta_stm32mp_nvmem.c:252
      e8:	e92d 4ff0 	stmdb	sp!, {r4, r5, r6, r7, r8, r9, sl, fp, lr}
      ec:	4c88      	ldr	r4, [pc, #544]	@ (310 <TA_InvokeCommandEntryPoint+0x228>)
      ee:	4889      	ldr	r0, [pc, #548]	@ (314 <TA_InvokeCommandEntryPoint+0x22c>)
      f0:	447c      	add	r4, pc
      f2:	ed2d 8b02 	vpush	{d8}
      f6:	5820      	ldr	r0, [r4, r0]
      f8:	b091      	sub	sp, #68	@ 0x44
      fa:	6800      	ldr	r0, [r0, #0]
      fc:	900f      	str	r0, [sp, #60]	@ 0x3c
      fe:	f04f 0000 	mov.w	r0, #0
/home/dangcaominh/STM32MP1/optee-os/optee-os/ta/stm32mp_nvmem/ta_stm32mp_nvmem.c:253
     102:	b189      	cbz	r1, 128 <TA_InvokeCommandEntryPoint+0x40>
     104:	2901      	cmp	r1, #1
     106:	f000 8091 	beq.w	22c <TA_InvokeCommandEntryPoint+0x144>
/home/dangcaominh/STM32MP1/optee-os/optee-os/ta/stm32mp_nvmem/ta_stm32mp_nvmem.c:259
     10a:	4b83      	ldr	r3, [pc, #524]	@ (318 <TA_InvokeCommandEntryPoint+0x230>)
     10c:	4883      	ldr	r0, [pc, #524]	@ (31c <TA_InvokeCommandEntryPoint+0x234>)
     10e:	447b      	add	r3, pc
     110:	9300      	str	r3, [sp, #0]
     112:	2301      	movs	r3, #1
     114:	4478      	add	r0, pc
     116:	461a      	mov	r2, r3
     118:	9101      	str	r1, [sp, #4]
     11a:	3010      	adds	r0, #16
/home/dangcaominh/STM32MP1/optee-os/optee-os/ta/stm32mp_nvmem/ta_stm32mp_nvmem.c:260
     11c:	4c7a      	ldr	r4, [pc, #488]	@ (308 <TA_InvokeCommandEntryPoint+0x220>)
/home/dangcaominh/STM32MP1/optee-os/optee-os/ta/stm32mp_nvmem/ta_stm32mp_nvmem.c:259
     11e:	f240 1103 	movw	r1, #259	@ 0x103
     122:	f000 fa27 	bl	574 <trace_printf>
/home/dangcaominh/STM32MP1/optee-os/optee-os/ta/stm32mp_nvmem/ta_stm32mp_nvmem.c:260
     126:	e075      	b.n	214 <TA_InvokeCommandEntryPoint+0x12c>
nvmem_read():
/home/dangcaominh/STM32MP1/optee-os/optee-os/ta/stm32mp_nvmem/ta_stm32mp_nvmem.c:67
     128:	2a61      	cmp	r2, #97	@ 0x61
     12a:	f040 80e5 	bne.w	2f8 <TA_InvokeCommandEntryPoint+0x210>
/home/dangcaominh/STM32MP1/optee-os/optee-os/ta/stm32mp_nvmem/ta_stm32mp_nvmem.c:61
     12e:	f8d3 8008 	ldr.w	r8, [r3, #8]
/home/dangcaominh/STM32MP1/optee-os/optee-os/ta/stm32mp_nvmem/ta_stm32mp_nvmem.c:67 (discriminator 1)
     132:	f1b8 0f00 	cmp.w	r8, #0
     136:	f000 80df 	beq.w	2f8 <TA_InvokeCommandEntryPoint+0x210>
/home/dangcaominh/STM32MP1/optee-os/optee-os/ta/stm32mp_nvmem/ta_stm32mp_nvmem.c:62
     13a:	68df      	ldr	r7, [r3, #12]
/home/dangcaominh/STM32MP1/optee-os/optee-os/ta/stm32mp_nvmem/ta_stm32mp_nvmem.c:67 (discriminator 2)
     13c:	2f0f      	cmp	r7, #15
     13e:	f240 80db 	bls.w	2f8 <TA_InvokeCommandEntryPoint+0x210>
/home/dangcaominh/STM32MP1/optee-os/optee-os/ta/stm32mp_nvmem/ta_stm32mp_nvmem.c:72
     142:	6818      	ldr	r0, [r3, #0]
     144:	f007 0207 	and.w	r2, r7, #7
     148:	4613      	mov	r3, r2
/home/dangcaominh/STM32MP1/optee-os/optee-os/ta/stm32mp_nvmem/ta_stm32mp_nvmem.c:73
     14a:	f008 0203 	and.w	r2, r8, #3
/home/dangcaominh/STM32MP1/optee-os/optee-os/ta/stm32mp_nvmem/ta_stm32mp_nvmem.c:72
     14e:	4303      	orrs	r3, r0
     150:	ea53 0402 	orrs.w	r4, r3, r2
     154:	f040 80d0 	bne.w	2f8 <TA_InvokeCommandEntryPoint+0x210>
/home/dangcaominh/STM32MP1/optee-os/optee-os/ta/stm32mp_nvmem/ta_stm32mp_nvmem.c:77
     158:	2502      	movs	r5, #2
nvmem_get_state():
/home/dangcaominh/STM32MP1/optee-os/optee-os/ta/stm32mp_nvmem/ta_stm32mp_nvmem.c:38
     15a:	ae07      	add	r6, sp, #28
nvmem_read():
/home/dangcaominh/STM32MP1/optee-os/optee-os/ta/stm32mp_nvmem/ta_stm32mp_nvmem.c:77
     15c:	f8c8 5000 	str.w	r5, [r8]
nvmem_get_state():
/home/dangcaominh/STM32MP1/optee-os/optee-os/ta/stm32mp_nvmem/ta_stm32mp_nvmem.c:38
     160:	2220      	movs	r2, #32
     162:	4630      	mov	r0, r6
     164:	f008 fd72 	bl	8c4c <memset>
/home/dangcaominh/STM32MP1/optee-os/optee-os/ta/stm32mp_nvmem/ta_stm32mp_nvmem.c:46
     168:	486d      	ldr	r0, [pc, #436]	@ (320 <TA_InvokeCommandEntryPoint+0x238>)
     16a:	462b      	mov	r3, r5
     16c:	9401      	str	r4, [sp, #4]
     16e:	2203      	movs	r2, #3
     170:	4478      	add	r0, pc
     172:	f04f 31ff 	mov.w	r1, #4294967295	@ 0xffffffff
     176:	9600      	str	r6, [sp, #0]
     178:	6840      	ldr	r0, [r0, #4]
     17a:	f001 fafd 	bl	1778 <TEE_InvokeTACommand>
/home/dangcaominh/STM32MP1/optee-os/optee-os/ta/stm32mp_nvmem/ta_stm32mp_nvmem.c:49
     17e:	4604      	mov	r4, r0
     180:	2800      	cmp	r0, #0
     182:	d147      	bne.n	214 <TA_InvokeCommandEntryPoint+0x12c>
/home/dangcaominh/STM32MP1/optee-os/optee-os/ta/stm32mp_nvmem/ta_stm32mp_nvmem.c:50
     184:	9b07      	ldr	r3, [sp, #28]
nvmem_read():
/home/dangcaominh/STM32MP1/optee-os/optee-os/ta/stm32mp_nvmem/ta_stm32mp_nvmem.c:80
     186:	f108 0508 	add.w	r5, r8, #8
/home/dangcaominh/STM32MP1/optee-os/optee-os/ta/stm32mp_nvmem/ta_stm32mp_nvmem.c:84
     18a:	08bf      	lsrs	r7, r7, #2
/home/dangcaominh/STM32MP1/optee-os/optee-os/ta/stm32mp_nvmem/ta_stm32mp_nvmem.c:86
     18c:	ef80 8010 	vmov.i32	d8, #0	@ 0x00000000
nvmem_get_state():
/home/dangcaominh/STM32MP1/optee-os/optee-os/ta/stm32mp_nvmem/ta_stm32mp_nvmem.c:50
     190:	f8c8 3004 	str.w	r3, [r8, #4]
nvmem_read():
/home/dangcaominh/STM32MP1/optee-os/optee-os/ta/stm32mp_nvmem/ta_stm32mp_nvmem.c:84
     194:	3f02      	subs	r7, #2
/home/dangcaominh/STM32MP1/optee-os/optee-os/ta/stm32mp_nvmem/ta_stm32mp_nvmem.c:86
     196:	f10d 082c 	add.w	r8, sp, #44	@ 0x2c
/home/dangcaominh/STM32MP1/optee-os/optee-os/ta/stm32mp_nvmem/ta_stm32mp_nvmem.c:84
     19a:	087b      	lsrs	r3, r7, #1
     19c:	9303      	str	r3, [sp, #12]
/home/dangcaominh/STM32MP1/optee-os/optee-os/ta/stm32mp_nvmem/ta_stm32mp_nvmem.c:94
     19e:	f8df 9184 	ldr.w	r9, [pc, #388]	@ 324 <TA_InvokeCommandEntryPoint+0x23c>
     1a2:	2200      	movs	r2, #0
/home/dangcaominh/STM32MP1/optee-os/optee-os/ta/stm32mp_nvmem/ta_stm32mp_nvmem.c:86
     1a4:	ed88 8b00 	vstr	d8, [r8]
/home/dangcaominh/STM32MP1/optee-os/optee-os/ta/stm32mp_nvmem/ta_stm32mp_nvmem.c:94
     1a8:	44f9      	add	r9, pc
/home/dangcaominh/STM32MP1/optee-os/optee-os/ta/stm32mp_nvmem/ta_stm32mp_nvmem.c:90
     1aa:	2701      	movs	r7, #1
/home/dangcaominh/STM32MP1/optee-os/optee-os/ta/stm32mp_nvmem/ta_stm32mp_nvmem.c:86
     1ac:	ed88 8b02 	vstr	d8, [r8, #8]
/home/dangcaominh/STM32MP1/optee-os/optee-os/ta/stm32mp_nvmem/ta_stm32mp_nvmem.c:89
     1b0:	ea4f 0b84 	mov.w	fp, r4, lsl #2
/home/dangcaominh/STM32MP1/optee-os/optee-os/ta/stm32mp_nvmem/ta_stm32mp_nvmem.c:92
     1b4:	f04f 0a04 	mov.w	sl, #4
/home/dangcaominh/STM32MP1/optee-os/optee-os/ta/stm32mp_nvmem/ta_stm32mp_nvmem.c:94
     1b8:	9201      	str	r2, [sp, #4]
     1ba:	2361      	movs	r3, #97	@ 0x61
     1bc:	9600      	str	r6, [sp, #0]
     1be:	f04f 31ff 	mov.w	r1, #4294967295	@ 0xffffffff
     1c2:	f8d9 0004 	ldr.w	r0, [r9, #4]
/home/dangcaominh/STM32MP1/optee-os/optee-os/ta/stm32mp_nvmem/ta_stm32mp_nvmem.c:89
     1c6:	f8cd b01c 	str.w	fp, [sp, #28]
/home/dangcaominh/STM32MP1/optee-os/optee-os/ta/stm32mp_nvmem/ta_stm32mp_nvmem.c:90
     1ca:	9708      	str	r7, [sp, #32]
/home/dangcaominh/STM32MP1/optee-os/optee-os/ta/stm32mp_nvmem/ta_stm32mp_nvmem.c:91
     1cc:	9509      	str	r5, [sp, #36]	@ 0x24
/home/dangcaominh/STM32MP1/optee-os/optee-os/ta/stm32mp_nvmem/ta_stm32mp_nvmem.c:92
     1ce:	f8cd a028 	str.w	sl, [sp, #40]	@ 0x28
/home/dangcaominh/STM32MP1/optee-os/optee-os/ta/stm32mp_nvmem/ta_stm32mp_nvmem.c:94
     1d2:	f001 fad1 	bl	1778 <TEE_InvokeTACommand>
/home/dangcaominh/STM32MP1/optee-os/optee-os/ta/stm32mp_nvmem/ta_stm32mp_nvmem.c:97
     1d6:	b118      	cbz	r0, 1e0 <TA_InvokeCommandEntryPoint+0xf8>
/home/dangcaominh/STM32MP1/optee-os/optee-os/ta/stm32mp_nvmem/ta_stm32mp_nvmem.c:98
     1d8:	2200      	movs	r2, #0
     1da:	602a      	str	r2, [r5, #0]
/home/dangcaominh/STM32MP1/optee-os/optee-os/ta/stm32mp_nvmem/ta_stm32mp_nvmem.c:114
     1dc:	606f      	str	r7, [r5, #4]
     1de:	e013      	b.n	208 <TA_InvokeCommandEntryPoint+0x120>
/home/dangcaominh/STM32MP1/optee-os/optee-os/ta/stm32mp_nvmem/ta_stm32mp_nvmem.c:110
     1e0:	9001      	str	r0, [sp, #4]
/home/dangcaominh/STM32MP1/optee-os/optee-os/ta/stm32mp_nvmem/ta_stm32mp_nvmem.c:107
     1e2:	2302      	movs	r3, #2
     1e4:	9308      	str	r3, [sp, #32]
/home/dangcaominh/STM32MP1/optee-os/optee-os/ta/stm32mp_nvmem/ta_stm32mp_nvmem.c:98
     1e6:	1d2b      	adds	r3, r5, #4
/home/dangcaominh/STM32MP1/optee-os/optee-os/ta/stm32mp_nvmem/ta_stm32mp_nvmem.c:108
     1e8:	9309      	str	r3, [sp, #36]	@ 0x24
/home/dangcaominh/STM32MP1/optee-os/optee-os/ta/stm32mp_nvmem/ta_stm32mp_nvmem.c:110
     1ea:	4602      	mov	r2, r0
     1ec:	9600      	str	r6, [sp, #0]
     1ee:	2361      	movs	r3, #97	@ 0x61
     1f0:	f8d9 0004 	ldr.w	r0, [r9, #4]
     1f4:	f04f 31ff 	mov.w	r1, #4294967295	@ 0xffffffff
/home/dangcaominh/STM32MP1/optee-os/optee-os/ta/stm32mp_nvmem/ta_stm32mp_nvmem.c:106
     1f8:	f8cd b01c 	str.w	fp, [sp, #28]
/home/dangcaominh/STM32MP1/optee-os/optee-os/ta/stm32mp_nvmem/ta_stm32mp_nvmem.c:109
     1fc:	f8cd a028 	str.w	sl, [sp, #40]	@ 0x28
/home/dangcaominh/STM32MP1/optee-os/optee-os/ta/stm32mp_nvmem/ta_stm32mp_nvmem.c:110
     200:	f001 faba 	bl	1778 <TEE_InvokeTACommand>
/home/dangcaominh/STM32MP1/optee-os/optee-os/ta/stm32mp_nvmem/ta_stm32mp_nvmem.c:113
     204:	2800      	cmp	r0, #0
     206:	d1e9      	bne.n	1dc <TA_InvokeCommandEntryPoint+0xf4>
/home/dangcaominh/STM32MP1/optee-os/optee-os/ta/stm32mp_nvmem/ta_stm32mp_nvmem.c:85 (discriminator 1)
     208:	9b03      	ldr	r3, [sp, #12]
/home/dangcaominh/STM32MP1/optee-os/optee-os/ta/stm32mp_nvmem/ta_stm32mp_nvmem.c:85 (discriminator 2)
     20a:	3401      	adds	r4, #1
     20c:	3508      	adds	r5, #8
/home/dangcaominh/STM32MP1/optee-os/optee-os/ta/stm32mp_nvmem/ta_stm32mp_nvmem.c:85 (discriminator 1)
     20e:	42a3      	cmp	r3, r4
     210:	d1c5      	bne.n	19e <TA_InvokeCommandEntryPoint+0xb6>
/home/dangcaominh/STM32MP1/optee-os/optee-os/ta/stm32mp_nvmem/ta_stm32mp_nvmem.c:117
     212:	2400      	movs	r4, #0
TA_InvokeCommandEntryPoint():
/home/dangcaominh/STM32MP1/optee-os/optee-os/ta/stm32mp_nvmem/ta_stm32mp_nvmem.c:252
     214:	4a44      	ldr	r2, [pc, #272]	@ (328 <TA_InvokeCommandEntryPoint+0x240>)
/home/dangcaominh/STM32MP1/optee-os/optee-os/ta/stm32mp_nvmem/ta_stm32mp_nvmem.c:262
     216:	4b3f      	ldr	r3, [pc, #252]	@ (314 <TA_InvokeCommandEntryPoint+0x22c>)
/home/dangcaominh/STM32MP1/optee-os/optee-os/ta/stm32mp_nvmem/ta_stm32mp_nvmem.c:252
     218:	447a      	add	r2, pc
/home/dangcaominh/STM32MP1/optee-os/optee-os/ta/stm32mp_nvmem/ta_stm32mp_nvmem.c:262
     21a:	58d3      	ldr	r3, [r2, r3]
     21c:	681a      	ldr	r2, [r3, #0]
     21e:	9b0f      	ldr	r3, [sp, #60]	@ 0x3c
     220:	405a      	eors	r2, r3
     222:	f04f 0300 	mov.w	r3, #0
     226:	d069      	beq.n	2fc <TA_InvokeCommandEntryPoint+0x214>
     228:	f000 f8c0 	bl	3ac <__stack_chk_fail>
nvmem_write():
/home/dangcaominh/STM32MP1/optee-os/optee-os/ta/stm32mp_nvmem/ta_stm32mp_nvmem.c:131
     22c:	2a51      	cmp	r2, #81	@ 0x51
     22e:	d163      	bne.n	2f8 <TA_InvokeCommandEntryPoint+0x210>
/home/dangcaominh/STM32MP1/optee-os/optee-os/ta/stm32mp_nvmem/ta_stm32mp_nvmem.c:126
     230:	689f      	ldr	r7, [r3, #8]
/home/dangcaominh/STM32MP1/optee-os/optee-os/ta/stm32mp_nvmem/ta_stm32mp_nvmem.c:131 (discriminator 1)
     232:	2f00      	cmp	r7, #0
     234:	d060      	beq.n	2f8 <TA_InvokeCommandEntryPoint+0x210>
/home/dangcaominh/STM32MP1/optee-os/optee-os/ta/stm32mp_nvmem/ta_stm32mp_nvmem.c:127
     236:	68de      	ldr	r6, [r3, #12]
/home/dangcaominh/STM32MP1/optee-os/optee-os/ta/stm32mp_nvmem/ta_stm32mp_nvmem.c:131 (discriminator 2)
     238:	2e0f      	cmp	r6, #15
     23a:	d95d      	bls.n	2f8 <TA_InvokeCommandEntryPoint+0x210>
/home/dangcaominh/STM32MP1/optee-os/optee-os/ta/stm32mp_nvmem/ta_stm32mp_nvmem.c:137
     23c:	681b      	ldr	r3, [r3, #0]
/home/dangcaominh/STM32MP1/optee-os/optee-os/ta/stm32mp_nvmem/ta_stm32mp_nvmem.c:136
     23e:	f006 0507 	and.w	r5, r6, #7
     242:	431d      	orrs	r5, r3
/home/dangcaominh/STM32MP1/optee-os/optee-os/ta/stm32mp_nvmem/ta_stm32mp_nvmem.c:137
     244:	f007 0303 	and.w	r3, r7, #3
/home/dangcaominh/STM32MP1/optee-os/optee-os/ta/stm32mp_nvmem/ta_stm32mp_nvmem.c:136
     248:	431d      	orrs	r5, r3
     24a:	d155      	bne.n	2f8 <TA_InvokeCommandEntryPoint+0x210>
/home/dangcaominh/STM32MP1/optee-os/optee-os/ta/stm32mp_nvmem/ta_stm32mp_nvmem.c:141
     24c:	683b      	ldr	r3, [r7, #0]
     24e:	2b02      	cmp	r3, #2
     250:	d152      	bne.n	2f8 <TA_InvokeCommandEntryPoint+0x210>
/home/dangcaominh/STM32MP1/optee-os/optee-os/ta/stm32mp_nvmem/ta_stm32mp_nvmem.c:147
     252:	08b6      	lsrs	r6, r6, #2
     254:	3710      	adds	r7, #16
/home/dangcaominh/STM32MP1/optee-os/optee-os/ta/stm32mp_nvmem/ta_stm32mp_nvmem.c:163
     256:	f8df b0d4 	ldr.w	fp, [pc, #212]	@ 32c <TA_InvokeCommandEntryPoint+0x244>
/home/dangcaominh/STM32MP1/optee-os/optee-os/ta/stm32mp_nvmem/ta_stm32mp_nvmem.c:147
     25a:	3e02      	subs	r6, #2
/home/dangcaominh/STM32MP1/optee-os/optee-os/ta/stm32mp_nvmem/ta_stm32mp_nvmem.c:180
     25c:	f8df a0d0 	ldr.w	sl, [pc, #208]	@ 330 <TA_InvokeCommandEntryPoint+0x248>
/home/dangcaominh/STM32MP1/optee-os/optee-os/ta/stm32mp_nvmem/ta_stm32mp_nvmem.c:149
     260:	f10d 081c 	add.w	r8, sp, #28
/home/dangcaominh/STM32MP1/optee-os/optee-os/ta/stm32mp_nvmem/ta_stm32mp_nvmem.c:147
     264:	0876      	lsrs	r6, r6, #1
/home/dangcaominh/STM32MP1/optee-os/optee-os/ta/stm32mp_nvmem/ta_stm32mp_nvmem.c:163
     266:	44fb      	add	fp, pc
     268:	00b6      	lsls	r6, r6, #2
/home/dangcaominh/STM32MP1/optee-os/optee-os/ta/stm32mp_nvmem/ta_stm32mp_nvmem.c:180
     26a:	44fa      	add	sl, pc
/home/dangcaominh/STM32MP1/optee-os/optee-os/ta/stm32mp_nvmem/ta_stm32mp_nvmem.c:149
     26c:	2220      	movs	r2, #32
     26e:	2100      	movs	r1, #0
     270:	4640      	mov	r0, r8
     272:	f008 fceb 	bl	8c4c <memset>
/home/dangcaominh/STM32MP1/optee-os/optee-os/ta/stm32mp_nvmem/ta_stm32mp_nvmem.c:150
     276:	f857 3c08 	ldr.w	r3, [r7, #-8]
     27a:	9305      	str	r3, [sp, #20]
/home/dangcaominh/STM32MP1/optee-os/optee-os/ta/stm32mp_nvmem/ta_stm32mp_nvmem.c:151
     27c:	f857 9c04 	ldr.w	r9, [r7, #-4]
/home/dangcaominh/STM32MP1/optee-os/optee-os/ta/stm32mp_nvmem/ta_stm32mp_nvmem.c:154
     280:	f1b9 0f00 	cmp.w	r9, #0
     284:	db04      	blt.n	290 <TA_InvokeCommandEntryPoint+0x1a8>
/home/dangcaominh/STM32MP1/optee-os/optee-os/ta/stm32mp_nvmem/ta_stm32mp_nvmem.c:148 (discriminator 1)
     286:	3504      	adds	r5, #4
     288:	3708      	adds	r7, #8
     28a:	42ae      	cmp	r6, r5
     28c:	d1ee      	bne.n	26c <TA_InvokeCommandEntryPoint+0x184>
     28e:	e7c0      	b.n	212 <TA_InvokeCommandEntryPoint+0x12a>
/home/dangcaominh/STM32MP1/optee-os/optee-os/ta/stm32mp_nvmem/ta_stm32mp_nvmem.c:158
     290:	b9e3      	cbnz	r3, 2cc <TA_InvokeCommandEntryPoint+0x1e4>
/home/dangcaominh/STM32MP1/optee-os/optee-os/ta/stm32mp_nvmem/ta_stm32mp_nvmem.c:172
     292:	f019 4f80 	tst.w	r9, #1073741824	@ 0x40000000
     296:	d0f6      	beq.n	286 <TA_InvokeCommandEntryPoint+0x19e>
/home/dangcaominh/STM32MP1/optee-os/optee-os/ta/stm32mp_nvmem/ta_stm32mp_nvmem.c:180
     298:	f8cd 8000 	str.w	r8, [sp]
/home/dangcaominh/STM32MP1/optee-os/optee-os/ta/stm32mp_nvmem/ta_stm32mp_nvmem.c:173
     29c:	f04f 4380 	mov.w	r3, #1073741824	@ 0x40000000
/home/dangcaominh/STM32MP1/optee-os/optee-os/ta/stm32mp_nvmem/ta_stm32mp_nvmem.c:176
     2a0:	e9cd 3506 	strd	r3, r5, [sp, #24]
/home/dangcaominh/STM32MP1/optee-os/optee-os/ta/stm32mp_nvmem/ta_stm32mp_nvmem.c:177
     2a4:	2302      	movs	r3, #2
/home/dangcaominh/STM32MP1/optee-os/optee-os/ta/stm32mp_nvmem/ta_stm32mp_nvmem.c:180
     2a6:	2201      	movs	r2, #1
/home/dangcaominh/STM32MP1/optee-os/optee-os/ta/stm32mp_nvmem/ta_stm32mp_nvmem.c:177
     2a8:	9308      	str	r3, [sp, #32]
/home/dangcaominh/STM32MP1/optee-os/optee-os/ta/stm32mp_nvmem/ta_stm32mp_nvmem.c:178
     2aa:	ab06      	add	r3, sp, #24
     2ac:	9309      	str	r3, [sp, #36]	@ 0x24
/home/dangcaominh/STM32MP1/optee-os/optee-os/ta/stm32mp_nvmem/ta_stm32mp_nvmem.c:179
     2ae:	2304      	movs	r3, #4
     2b0:	930a      	str	r3, [sp, #40]	@ 0x28
/home/dangcaominh/STM32MP1/optee-os/optee-os/ta/stm32mp_nvmem/ta_stm32mp_nvmem.c:180
     2b2:	2300      	movs	r3, #0
     2b4:	9301      	str	r3, [sp, #4]
     2b6:	f04f 31ff 	mov.w	r1, #4294967295	@ 0xffffffff
     2ba:	f8da 0004 	ldr.w	r0, [sl, #4]
     2be:	2351      	movs	r3, #81	@ 0x51
     2c0:	f001 fa5a 	bl	1778 <TEE_InvokeTACommand>
/home/dangcaominh/STM32MP1/optee-os/optee-os/ta/stm32mp_nvmem/ta_stm32mp_nvmem.c:184
     2c4:	4604      	mov	r4, r0
     2c6:	2800      	cmp	r0, #0
     2c8:	d0dd      	beq.n	286 <TA_InvokeCommandEntryPoint+0x19e>
     2ca:	e7a3      	b.n	214 <TA_InvokeCommandEntryPoint+0x12c>
/home/dangcaominh/STM32MP1/optee-os/optee-os/ta/stm32mp_nvmem/ta_stm32mp_nvmem.c:163
     2cc:	f8cd 8000 	str.w	r8, [sp]
/home/dangcaominh/STM32MP1/optee-os/optee-os/ta/stm32mp_nvmem/ta_stm32mp_nvmem.c:161
     2d0:	ab05      	add	r3, sp, #20
     2d2:	9309      	str	r3, [sp, #36]	@ 0x24
/home/dangcaominh/STM32MP1/optee-os/optee-os/ta/stm32mp_nvmem/ta_stm32mp_nvmem.c:162
     2d4:	2304      	movs	r3, #4
     2d6:	930a      	str	r3, [sp, #40]	@ 0x28
/home/dangcaominh/STM32MP1/optee-os/optee-os/ta/stm32mp_nvmem/ta_stm32mp_nvmem.c:163
     2d8:	2300      	movs	r3, #0
     2da:	9301      	str	r3, [sp, #4]
/home/dangcaominh/STM32MP1/optee-os/optee-os/ta/stm32mp_nvmem/ta_stm32mp_nvmem.c:160
     2dc:	2201      	movs	r2, #1
/home/dangcaominh/STM32MP1/optee-os/optee-os/ta/stm32mp_nvmem/ta_stm32mp_nvmem.c:163
     2de:	f8db 0004 	ldr.w	r0, [fp, #4]
     2e2:	2351      	movs	r3, #81	@ 0x51
/home/dangcaominh/STM32MP1/optee-os/optee-os/ta/stm32mp_nvmem/ta_stm32mp_nvmem.c:159
     2e4:	9507      	str	r5, [sp, #28]
/home/dangcaominh/STM32MP1/optee-os/optee-os/ta/stm32mp_nvmem/ta_stm32mp_nvmem.c:163
     2e6:	f04f 31ff 	mov.w	r1, #4294967295	@ 0xffffffff
/home/dangcaominh/STM32MP1/optee-os/optee-os/ta/stm32mp_nvmem/ta_stm32mp_nvmem.c:160
     2ea:	9208      	str	r2, [sp, #32]
/home/dangcaominh/STM32MP1/optee-os/optee-os/ta/stm32mp_nvmem/ta_stm32mp_nvmem.c:163
     2ec:	f001 fa44 	bl	1778 <TEE_InvokeTACommand>
/home/dangcaominh/STM32MP1/optee-os/optee-os/ta/stm32mp_nvmem/ta_stm32mp_nvmem.c:167
     2f0:	4604      	mov	r4, r0
     2f2:	2800      	cmp	r0, #0
     2f4:	d0cd      	beq.n	292 <TA_InvokeCommandEntryPoint+0x1aa>
     2f6:	e78d      	b.n	214 <TA_InvokeCommandEntryPoint+0x12c>
nvmem_read():
/home/dangcaominh/STM32MP1/optee-os/optee-os/ta/stm32mp_nvmem/ta_stm32mp_nvmem.c:68
     2f8:	4c04      	ldr	r4, [pc, #16]	@ (30c <TA_InvokeCommandEntryPoint+0x224>)
     2fa:	e78b      	b.n	214 <TA_InvokeCommandEntryPoint+0x12c>
TA_InvokeCommandEntryPoint():
/home/dangcaominh/STM32MP1/optee-os/optee-os/ta/stm32mp_nvmem/ta_stm32mp_nvmem.c:262
     2fc:	4620      	mov	r0, r4
     2fe:	b011      	add	sp, #68	@ 0x44
     300:	ecbd 8b02 	vpop	{d8}
     304:	e8bd 8ff0 	ldmia.w	sp!, {r4, r5, r6, r7, r8, r9, sl, fp, pc}
     308:	ffff000a 	.word	0xffff000a
     30c:	ffff0006 	.word	0xffff0006
     310:	00009f94 	.word	0x00009f94
     314:	0000000c 	.word	0x0000000c
     318:	00008dd6 	.word	0x00008dd6
     31c:	00008c60 	.word	0x00008c60
     320:	0000a244 	.word	0x0000a244
     324:	0000a20c 	.word	0x0000a20c
     328:	00009e6c 	.word	0x00009e6c
     32c:	0000a14e 	.word	0x0000a14e
     330:	0000a14a 	.word	0x0000a14a

00000334 <__ta_entry_c>:
__ta_entry_c():
/home/dangcaominh/STM32MP1/optee-os/optee-os/../build/optee-stm32mp157d-dk1/export-ta_arm32/src/user_ta_header.c:55
     334:	f8df 805c 	ldr.w	r8, [pc, #92]	@ 394 <__ta_entry_c+0x60>
/home/dangcaominh/STM32MP1/optee-os/optee-os/../build/optee-stm32mp157d-dk1/export-ta_arm32/src/user_ta_header.c:51
     338:	4616      	mov	r6, r2
     33a:	4a17      	ldr	r2, [pc, #92]	@ (398 <__ta_entry_c+0x64>)
     33c:	4604      	mov	r4, r0
     33e:	b583      	push	{r0, r1, r7, lr}
     340:	461f      	mov	r7, r3
     342:	447a      	add	r2, pc
     344:	460d      	mov	r5, r1
     346:	4b15      	ldr	r3, [pc, #84]	@ (39c <__ta_entry_c+0x68>)
/home/dangcaominh/STM32MP1/optee-os/optee-os/../build/optee-stm32mp157d-dk1/export-ta_arm32/src/user_ta_header.c:55
     348:	44f8      	add	r8, pc
/home/dangcaominh/STM32MP1/optee-os/optee-os/../build/optee-stm32mp157d-dk1/export-ta_arm32/src/user_ta_header.c:51
     34a:	58d3      	ldr	r3, [r2, r3]
     34c:	f8df 9050 	ldr.w	r9, [pc, #80]	@ 3a0 <__ta_entry_c+0x6c>
     350:	681b      	ldr	r3, [r3, #0]
     352:	9301      	str	r3, [sp, #4]
     354:	f04f 0300 	mov.w	r3, #0
/home/dangcaominh/STM32MP1/optee-os/optee-os/../build/optee-stm32mp157d-dk1/export-ta_arm32/src/user_ta_header.c:55
     358:	f898 3000 	ldrb.w	r3, [r8]
/home/dangcaominh/STM32MP1/optee-os/optee-os/../build/optee-stm32mp157d-dk1/export-ta_arm32/src/user_ta_header.c:51
     35c:	44f9      	add	r9, pc
/home/dangcaominh/STM32MP1/optee-os/optee-os/../build/optee-stm32mp157d-dk1/export-ta_arm32/src/user_ta_header.c:55
     35e:	b98b      	cbnz	r3, 384 <__ta_entry_c+0x50>
/home/dangcaominh/STM32MP1/optee-os/optee-os/../build/optee-stm32mp157d-dk1/export-ta_arm32/src/user_ta_header.c:56
     360:	9300      	str	r3, [sp, #0]
/home/dangcaominh/STM32MP1/optee-os/optee-os/../build/optee-stm32mp157d-dk1/export-ta_arm32/src/user_ta_header.c:58
     362:	2104      	movs	r1, #4
     364:	4668      	mov	r0, sp
     366:	f002 eee6 	blx	3134 <_utee_cryp_random_number_generate>
/home/dangcaominh/STM32MP1/optee-os/optee-os/../build/optee-stm32mp157d-dk1/export-ta_arm32/src/user_ta_header.c:60
     36a:	b108      	cbz	r0, 370 <__ta_entry_c+0x3c>
/home/dangcaominh/STM32MP1/optee-os/optee-os/../build/optee-stm32mp157d-dk1/export-ta_arm32/src/user_ta_header.c:81
     36c:	f002 ed8a 	blx	2e84 <_utee_return>
/home/dangcaominh/STM32MP1/optee-os/optee-os/../build/optee-stm32mp157d-dk1/export-ta_arm32/src/user_ta_header.c:66
     370:	4b0a      	ldr	r3, [pc, #40]	@ (39c <__ta_entry_c+0x68>)
     372:	f859 2003 	ldr.w	r2, [r9, r3]
/home/dangcaominh/STM32MP1/optee-os/optee-os/../build/optee-stm32mp157d-dk1/export-ta_arm32/src/user_ta_header.c:64
     376:	9b00      	ldr	r3, [sp, #0]
     378:	f023 03ff 	bic.w	r3, r3, #255	@ 0xff
/home/dangcaominh/STM32MP1/optee-os/optee-os/../build/optee-stm32mp157d-dk1/export-ta_arm32/src/user_ta_header.c:66
     37c:	6013      	str	r3, [r2, #0]
/home/dangcaominh/STM32MP1/optee-os/optee-os/../build/optee-stm32mp157d-dk1/export-ta_arm32/src/user_ta_header.c:67
     37e:	2301      	movs	r3, #1
     380:	f888 3000 	strb.w	r3, [r8]
/home/dangcaominh/STM32MP1/optee-os/optee-os/../build/optee-stm32mp157d-dk1/export-ta_arm32/src/user_ta_header.c:70
     384:	463b      	mov	r3, r7
     386:	4632      	mov	r2, r6
     388:	4629      	mov	r1, r5
     38a:	4620      	mov	r0, r4
     38c:	f002 fc5a 	bl	2c44 <__utee_entry>
     390:	e7ec      	b.n	36c <__ta_entry_c+0x38>
     392:	bf00      	nop
     394:	0000d8cc 	.word	0x0000d8cc
     398:	00009d42 	.word	0x00009d42
     39c:	0000000c 	.word	0x0000000c
     3a0:	00009d28 	.word	0x00009d28

000003a4 <tahead_get_trace_level>:
tahead_get_trace_level():
/home/dangcaominh/STM32MP1/optee-os/optee-os/../build/optee-stm32mp157d-dk1/export-ta_arm32/src/user_ta_header.c:193
     3a4:	2001      	movs	r0, #1
     3a6:	4770      	bx	lr

000003a8 <__ta_entry>:
__ta_entry():
/home/dangcaominh/STM32MP1/optee-os/optee-os/../build/optee-stm32mp157d-dk1/export-ta_arm32/src/ta_entry_a32.S:22
     3a8:	faffffe1 	blx	334 <__ta_entry_c>

000003ac <__stack_chk_fail>:
__stack_chk_fail():
/home/dangcaominh/STM32MP1/optee-os/optee-os/lib/libutils/isoc/stack_check.c:25
     3ac:	4b08      	ldr	r3, [pc, #32]	@ (3d0 <__stack_chk_fail+0x24>)
/home/dangcaominh/STM32MP1/optee-os/optee-os/lib/libutils/isoc/stack_check.c:24
     3ae:	b507      	push	{r0, r1, r2, lr}
/home/dangcaominh/STM32MP1/optee-os/optee-os/lib/libutils/isoc/stack_check.c:25
     3b0:	2100      	movs	r1, #0
     3b2:	447b      	add	r3, pc
     3b4:	4608      	mov	r0, r1
     3b6:	9300      	str	r3, [sp, #0]
     3b8:	2301      	movs	r3, #1
/home/dangcaominh/STM32MP1/optee-os/optee-os/lib/libutils/isoc/stack_check.c:27 (discriminator 1)
     3ba:	4c04      	ldr	r4, [pc, #16]	@ (3cc <__stack_chk_fail+0x20>)
/home/dangcaominh/STM32MP1/optee-os/optee-os/lib/libutils/isoc/stack_check.c:25
     3bc:	461a      	mov	r2, r3
     3be:	f000 f8d9 	bl	574 <trace_printf>
/home/dangcaominh/STM32MP1/optee-os/optee-os/lib/libutils/isoc/stack_check.c:27 (discriminator 1)
     3c2:	4620      	mov	r0, r4
     3c4:	f002 ed54 	blx	2e70 <_utee_panic>
/home/dangcaominh/STM32MP1/optee-os/optee-os/lib/libutils/isoc/stack_check.c:26
     3c8:	e7fb      	b.n	3c2 <__stack_chk_fail+0x16>
     3ca:	bf00      	nop
     3cc:	ffff300f 	.word	0xffff300f
     3d0:	00008c37 	.word	0x00008c37

000003d4 <trace_set_level>:
trace_set_level():
/home/dangcaominh/STM32MP1/optee-os/optee-os/lib/libutils/ext/trace.c:24
     3d4:	4b04      	ldr	r3, [pc, #16]	@ (3e8 <trace_set_level+0x14>)
/home/dangcaominh/STM32MP1/optee-os/optee-os/lib/libutils/ext/trace.c:28
     3d6:	2805      	cmp	r0, #5
     3d8:	4a04      	ldr	r2, [pc, #16]	@ (3ec <trace_set_level+0x18>)
     3da:	bf28      	it	cs
     3dc:	2004      	movcs	r0, #4
/home/dangcaominh/STM32MP1/optee-os/optee-os/lib/libutils/ext/trace.c:24
     3de:	447b      	add	r3, pc
     3e0:	589b      	ldr	r3, [r3, r2]
     3e2:	6018      	str	r0, [r3, #0]
/home/dangcaominh/STM32MP1/optee-os/optee-os/lib/libutils/ext/trace.c:29
     3e4:	4770      	bx	lr
     3e6:	bf00      	nop
     3e8:	00009ca6 	.word	0x00009ca6
     3ec:	0000001c 	.word	0x0000001c

000003f0 <trace_get_level>:
trace_get_level():
/home/dangcaominh/STM32MP1/optee-os/optee-os/lib/libutils/ext/trace.c:32
     3f0:	4b02      	ldr	r3, [pc, #8]	@ (3fc <trace_get_level+0xc>)
/home/dangcaominh/STM32MP1/optee-os/optee-os/lib/libutils/ext/trace.c:33
     3f2:	4a03      	ldr	r2, [pc, #12]	@ (400 <trace_get_level+0x10>)
/home/dangcaominh/STM32MP1/optee-os/optee-os/lib/libutils/ext/trace.c:32
     3f4:	447b      	add	r3, pc
/home/dangcaominh/STM32MP1/optee-os/optee-os/lib/libutils/ext/trace.c:33
     3f6:	589b      	ldr	r3, [r3, r2]
/home/dangcaominh/STM32MP1/optee-os/optee-os/lib/libutils/ext/trace.c:34
     3f8:	6818      	ldr	r0, [r3, #0]
     3fa:	4770      	bx	lr
     3fc:	00009c90 	.word	0x00009c90
     400:	0000001c 	.word	0x0000001c

00000404 <trace_vprintf>:
trace_vprintf():
/home/dangcaominh/STM32MP1/optee-os/optee-os/lib/libutils/ext/trace.c:113
     404:	e92d 4ff0 	stmdb	sp!, {r4, r5, r6, r7, r8, r9, sl, fp, lr}
     408:	4688      	mov	r8, r1
     40a:	494d      	ldr	r1, [pc, #308]	@ (540 <trace_vprintf+0x13c>)
     40c:	4614      	mov	r4, r2
     40e:	4a4d      	ldr	r2, [pc, #308]	@ (544 <trace_vprintf+0x140>)
     410:	b0c7      	sub	sp, #284	@ 0x11c
     412:	4479      	add	r1, pc
     414:	4607      	mov	r7, r0
     416:	4e4c      	ldr	r6, [pc, #304]	@ (548 <trace_vprintf+0x144>)
/home/dangcaominh/STM32MP1/optee-os/optee-os/lib/libutils/ext/trace.c:118
     418:	469b      	mov	fp, r3
/home/dangcaominh/STM32MP1/optee-os/optee-os/lib/libutils/ext/trace.c:113
     41a:	588a      	ldr	r2, [r1, r2]
     41c:	447e      	add	r6, pc
     41e:	f8dd 9140 	ldr.w	r9, [sp, #320]	@ 0x140
     422:	6812      	ldr	r2, [r2, #0]
     424:	9245      	str	r2, [sp, #276]	@ 0x114
     426:	f04f 0200 	mov.w	r2, #0
/home/dangcaominh/STM32MP1/optee-os/optee-os/lib/libutils/ext/trace.c:118
     42a:	2b00      	cmp	r3, #0
     42c:	d072      	beq.n	514 <trace_vprintf+0x110>
/home/dangcaominh/STM32MP1/optee-os/optee-os/lib/libutils/ext/trace.c:118 (discriminator 1)
     42e:	4b47      	ldr	r3, [pc, #284]	@ (54c <trace_vprintf+0x148>)
     430:	58f3      	ldr	r3, [r6, r3]
     432:	681b      	ldr	r3, [r3, #0]
     434:	42a3      	cmp	r3, r4
     436:	db61      	blt.n	4fc <trace_vprintf+0xf8>
trace_level_to_string():
/home/dangcaominh/STM32MP1/optee-os/optee-os/lib/libutils/ext/trace.c:54
     438:	4a45      	ldr	r2, [pc, #276]	@ (550 <trace_vprintf+0x14c>)
/home/dangcaominh/STM32MP1/optee-os/optee-os/lib/libutils/ext/trace.c:46
     43a:	2c05      	cmp	r4, #5
     43c:	bf34      	ite	cc
     43e:	4623      	movcc	r3, r4
     440:	2300      	movcs	r3, #0
/home/dangcaominh/STM32MP1/optee-os/optee-os/lib/libutils/ext/trace.c:54
     442:	447a      	add	r2, pc
     444:	5cd3      	ldrb	r3, [r2, r3]
trace_vprintf():
/home/dangcaominh/STM32MP1/optee-os/optee-os/lib/libutils/ext/trace.c:122
     446:	4a43      	ldr	r2, [pc, #268]	@ (554 <trace_vprintf+0x150>)
     448:	ad05      	add	r5, sp, #20
     44a:	f44f 7180 	mov.w	r1, #256	@ 0x100
     44e:	4628      	mov	r0, r5
     450:	447a      	add	r2, pc
     452:	f000 f8f0 	bl	636 <snprintk>
/home/dangcaominh/STM32MP1/optee-os/optee-os/lib/libutils/ext/trace.c:124
     456:	f1b0 0a00 	subs.w	sl, r0, #0
     45a:	db4f      	blt.n	4fc <trace_vprintf+0xf8>
/home/dangcaominh/STM32MP1/optee-os/optee-os/lib/libutils/ext/trace.c:129
     45c:	4b3e      	ldr	r3, [pc, #248]	@ (558 <trace_vprintf+0x154>)
     45e:	f5ca 7180 	rsb	r1, sl, #256	@ 0x100
     462:	4a3e      	ldr	r2, [pc, #248]	@ (55c <trace_vprintf+0x158>)
     464:	58f3      	ldr	r3, [r6, r3]
     466:	447a      	add	r2, pc
     468:	eb05 000a 	add.w	r0, r5, sl
     46c:	9303      	str	r3, [sp, #12]
     46e:	f000 f8e2 	bl	636 <snprintk>
/home/dangcaominh/STM32MP1/optee-os/optee-os/lib/libutils/ext/trace.c:131
     472:	2800      	cmp	r0, #0
     474:	db42      	blt.n	4fc <trace_vprintf+0xf8>
/home/dangcaominh/STM32MP1/optee-os/optee-os/lib/libutils/ext/trace.c:133
     476:	eb00 060a 	add.w	r6, r0, sl
/home/dangcaominh/STM32MP1/optee-os/optee-os/lib/libutils/ext/trace.c:135
     47a:	f1bb 0f00 	cmp.w	fp, #0
     47e:	d052      	beq.n	526 <trace_vprintf+0x122>
/home/dangcaominh/STM32MP1/optee-os/optee-os/lib/libutils/ext/trace.c:135 (discriminator 1)
     480:	231a      	movs	r3, #26
     482:	40e3      	lsrs	r3, r4
     484:	07db      	lsls	r3, r3, #31
     486:	d54e      	bpl.n	526 <trace_vprintf+0x122>
/home/dangcaominh/STM32MP1/optee-os/optee-os/lib/libutils/ext/trace.c:143
     488:	19ac      	adds	r4, r5, r6
print_thread_id():
/home/dangcaominh/STM32MP1/optee-os/optee-os/lib/libutils/ext/trace.c:66
     48a:	f000 fdc7 	bl	101c <trace_ext_get_thread_id>
/home/dangcaominh/STM32MP1/optee-os/optee-os/lib/libutils/ext/trace.c:68
     48e:	2800      	cmp	r0, #0
trace_vprintf():
/home/dangcaominh/STM32MP1/optee-os/optee-os/lib/libutils/ext/trace.c:143
     490:	f5c6 7a80 	rsb	sl, r6, #256	@ 0x100
print_thread_id():
/home/dangcaominh/STM32MP1/optee-os/optee-os/lib/libutils/ext/trace.c:68
     494:	db40      	blt.n	518 <trace_vprintf+0x114>
/home/dangcaominh/STM32MP1/optee-os/optee-os/lib/libutils/ext/trace.c:69
     496:	4a32      	ldr	r2, [pc, #200]	@ (560 <trace_vprintf+0x15c>)
     498:	2301      	movs	r3, #1
     49a:	9000      	str	r0, [sp, #0]
     49c:	447a      	add	r2, pc
/home/dangcaominh/STM32MP1/optee-os/optee-os/lib/libutils/ext/trace.c:71
     49e:	4651      	mov	r1, sl
     4a0:	4620      	mov	r0, r4
     4a2:	f000 f8c8 	bl	636 <snprintk>
trace_vprintf():
/home/dangcaominh/STM32MP1/optee-os/optee-os/lib/libutils/ext/trace.c:144
     4a6:	2800      	cmp	r0, #0
     4a8:	db28      	blt.n	4fc <trace_vprintf+0xf8>
/home/dangcaominh/STM32MP1/optee-os/optee-os/lib/libutils/ext/trace.c:146
     4aa:	1984      	adds	r4, r0, r6
/home/dangcaominh/STM32MP1/optee-os/optee-os/lib/libutils/ext/trace.c:148
     4ac:	b167      	cbz	r7, 4c8 <trace_vprintf+0xc4>
/home/dangcaominh/STM32MP1/optee-os/optee-os/lib/libutils/ext/trace.c:149
     4ae:	4a2d      	ldr	r2, [pc, #180]	@ (564 <trace_vprintf+0x160>)
     4b0:	463b      	mov	r3, r7
     4b2:	1928      	adds	r0, r5, r4
     4b4:	f5c4 7180 	rsb	r1, r4, #256	@ 0x100
     4b8:	447a      	add	r2, pc
     4ba:	f8cd 8000 	str.w	r8, [sp]
     4be:	f000 f8ba 	bl	636 <snprintk>
/home/dangcaominh/STM32MP1/optee-os/optee-os/lib/libutils/ext/trace.c:151
     4c2:	2800      	cmp	r0, #0
     4c4:	db1a      	blt.n	4fc <trace_vprintf+0xf8>
/home/dangcaominh/STM32MP1/optee-os/optee-os/lib/libutils/ext/trace.c:153
     4c6:	4404      	add	r4, r0
/home/dangcaominh/STM32MP1/optee-os/optee-os/lib/libutils/ext/trace.c:163
     4c8:	1928      	adds	r0, r5, r4
     4ca:	f5c4 7180 	rsb	r1, r4, #256	@ 0x100
     4ce:	9b51      	ldr	r3, [sp, #324]	@ 0x144
     4d0:	464a      	mov	r2, r9
     4d2:	f000 f8a9 	bl	628 <vsnprintk>
/home/dangcaominh/STM32MP1/optee-os/optee-os/lib/libutils/ext/trace.c:164
     4d6:	2800      	cmp	r0, #0
/home/dangcaominh/STM32MP1/optee-os/optee-os/lib/libutils/ext/trace.c:170
     4d8:	f04f 030a 	mov.w	r3, #10
/home/dangcaominh/STM32MP1/optee-os/optee-os/lib/libutils/ext/trace.c:165
     4dc:	bfc8      	it	gt
     4de:	1824      	addgt	r4, r4, r0
/home/dangcaominh/STM32MP1/optee-os/optee-os/lib/libutils/ext/trace.c:167
     4e0:	2cfe      	cmp	r4, #254	@ 0xfe
     4e2:	bf28      	it	cs
     4e4:	24fe      	movcs	r4, #254	@ 0xfe
/home/dangcaominh/STM32MP1/optee-os/optee-os/lib/libutils/ext/trace.c:170
     4e6:	552b      	strb	r3, [r5, r4]
/home/dangcaominh/STM32MP1/optee-os/optee-os/lib/libutils/ext/trace.c:171
     4e8:	b114      	cbz	r4, 4f0 <trace_vprintf+0xec>
/home/dangcaominh/STM32MP1/optee-os/optee-os/lib/libutils/ext/trace.c:171 (discriminator 1)
     4ea:	5d2b      	ldrb	r3, [r5, r4]
     4ec:	2b0a      	cmp	r3, #10
     4ee:	d022      	beq.n	536 <trace_vprintf+0x132>
/home/dangcaominh/STM32MP1/optee-os/optee-os/lib/libutils/ext/trace.c:174
     4f0:	442c      	add	r4, r5
     4f2:	2300      	movs	r3, #0
/home/dangcaominh/STM32MP1/optee-os/optee-os/lib/libutils/ext/trace.c:176
     4f4:	4628      	mov	r0, r5
/home/dangcaominh/STM32MP1/optee-os/optee-os/lib/libutils/ext/trace.c:174
     4f6:	70a3      	strb	r3, [r4, #2]
/home/dangcaominh/STM32MP1/optee-os/optee-os/lib/libutils/ext/trace.c:176
     4f8:	f000 fd86 	bl	1008 <trace_ext_puts>
/home/dangcaominh/STM32MP1/optee-os/optee-os/lib/libutils/ext/trace.c:113
     4fc:	4a1a      	ldr	r2, [pc, #104]	@ (568 <trace_vprintf+0x164>)
/home/dangcaominh/STM32MP1/optee-os/optee-os/lib/libutils/ext/trace.c:177
     4fe:	4b11      	ldr	r3, [pc, #68]	@ (544 <trace_vprintf+0x140>)
/home/dangcaominh/STM32MP1/optee-os/optee-os/lib/libutils/ext/trace.c:113
     500:	447a      	add	r2, pc
/home/dangcaominh/STM32MP1/optee-os/optee-os/lib/libutils/ext/trace.c:177
     502:	58d3      	ldr	r3, [r2, r3]
     504:	681a      	ldr	r2, [r3, #0]
     506:	9b45      	ldr	r3, [sp, #276]	@ 0x114
     508:	405a      	eors	r2, r3
     50a:	f04f 0300 	mov.w	r3, #0
     50e:	d014      	beq.n	53a <trace_vprintf+0x136>
     510:	f7ff ff4c 	bl	3ac <__stack_chk_fail>
trace_level_to_string():
/home/dangcaominh/STM32MP1/optee-os/optee-os/lib/libutils/ext/trace.c:49
     514:	234d      	movs	r3, #77	@ 0x4d
     516:	e796      	b.n	446 <trace_vprintf+0x42>
print_thread_id():
/home/dangcaominh/STM32MP1/optee-os/optee-os/lib/libutils/ext/trace.c:71
     518:	4b14      	ldr	r3, [pc, #80]	@ (56c <trace_vprintf+0x168>)
     51a:	4a15      	ldr	r2, [pc, #84]	@ (570 <trace_vprintf+0x16c>)
     51c:	447b      	add	r3, pc
     51e:	9300      	str	r3, [sp, #0]
     520:	2301      	movs	r3, #1
     522:	447a      	add	r2, pc
     524:	e7bb      	b.n	49e <trace_vprintf+0x9a>
trace_vprintf():
/home/dangcaominh/STM32MP1/optee-os/optee-os/lib/libutils/ext/trace.c:157
     526:	2efe      	cmp	r6, #254	@ 0xfe
     528:	d8e8      	bhi.n	4fc <trace_vprintf+0xf8>
/home/dangcaominh/STM32MP1/optee-os/optee-os/lib/libutils/ext/trace.c:159
     52a:	2320      	movs	r3, #32
     52c:	1c74      	adds	r4, r6, #1
     52e:	55ab      	strb	r3, [r5, r6]
/home/dangcaominh/STM32MP1/optee-os/optee-os/lib/libutils/ext/trace.c:160
     530:	2300      	movs	r3, #0
     532:	552b      	strb	r3, [r5, r4]
     534:	e7c8      	b.n	4c8 <trace_vprintf+0xc4>
/home/dangcaominh/STM32MP1/optee-os/optee-os/lib/libutils/ext/trace.c:172
     536:	3c01      	subs	r4, #1
     538:	e7d6      	b.n	4e8 <trace_vprintf+0xe4>
/home/dangcaominh/STM32MP1/optee-os/optee-os/lib/libutils/ext/trace.c:177
     53a:	b047      	add	sp, #284	@ 0x11c
     53c:	e8bd 8ff0 	ldmia.w	sp!, {r4, r5, r6, r7, r8, r9, sl, fp, pc}
     540:	00009c72 	.word	0x00009c72
     544:	0000000c 	.word	0x0000000c
     548:	00009c68 	.word	0x00009c68
     54c:	0000001c 	.word	0x0000001c
     550:	00009679 	.word	0x00009679
     554:	00008bb1 	.word	0x00008bb1
     558:	00000024 	.word	0x00000024
     55c:	00008b9f 	.word	0x00008b9f
     560:	00008b6d 	.word	0x00008b6d
     564:	00008b5c 	.word	0x00008b5c
     568:	00009b84 	.word	0x00009b84
     56c:	0000925c 	.word	0x0000925c
     570:	00008aed 	.word	0x00008aed

00000574 <trace_printf>:
trace_printf():
/home/dangcaominh/STM32MP1/optee-os/optee-os/lib/libutils/ext/trace.c:104
     574:	b5f0      	push	{r4, r5, r6, r7, lr}
     576:	b085      	sub	sp, #20
     578:	4f0e      	ldr	r7, [pc, #56]	@ (5b4 <trace_printf+0x40>)
     57a:	ac0a      	add	r4, sp, #40	@ 0x28
     57c:	4e0e      	ldr	r6, [pc, #56]	@ (5b8 <trace_printf+0x44>)
     57e:	447f      	add	r7, pc
     580:	f854 5b04 	ldr.w	r5, [r4], #4
     584:	59be      	ldr	r6, [r7, r6]
     586:	6836      	ldr	r6, [r6, #0]
     588:	9603      	str	r6, [sp, #12]
     58a:	f04f 0600 	mov.w	r6, #0
/home/dangcaominh/STM32MP1/optee-os/optee-os/lib/libutils/ext/trace.c:108
     58e:	9401      	str	r4, [sp, #4]
     590:	9500      	str	r5, [sp, #0]
/home/dangcaominh/STM32MP1/optee-os/optee-os/lib/libutils/ext/trace.c:107
     592:	9402      	str	r4, [sp, #8]
/home/dangcaominh/STM32MP1/optee-os/optee-os/lib/libutils/ext/trace.c:108
     594:	f7ff ff36 	bl	404 <trace_vprintf>
/home/dangcaominh/STM32MP1/optee-os/optee-os/lib/libutils/ext/trace.c:104
     598:	4a08      	ldr	r2, [pc, #32]	@ (5bc <trace_printf+0x48>)
/home/dangcaominh/STM32MP1/optee-os/optee-os/lib/libutils/ext/trace.c:110
     59a:	4b07      	ldr	r3, [pc, #28]	@ (5b8 <trace_printf+0x44>)
/home/dangcaominh/STM32MP1/optee-os/optee-os/lib/libutils/ext/trace.c:104
     59c:	447a      	add	r2, pc
/home/dangcaominh/STM32MP1/optee-os/optee-os/lib/libutils/ext/trace.c:110
     59e:	58d3      	ldr	r3, [r2, r3]
     5a0:	681a      	ldr	r2, [r3, #0]
     5a2:	9b03      	ldr	r3, [sp, #12]
     5a4:	405a      	eors	r2, r3
     5a6:	f04f 0300 	mov.w	r3, #0
     5aa:	d001      	beq.n	5b0 <trace_printf+0x3c>
     5ac:	f7ff fefe 	bl	3ac <__stack_chk_fail>
     5b0:	b005      	add	sp, #20
     5b2:	bdf0      	pop	{r4, r5, r6, r7, pc}
     5b4:	00009b06 	.word	0x00009b06
     5b8:	0000000c 	.word	0x0000000c
     5bc:	00009ae8 	.word	0x00009ae8

000005c0 <dhex_dump>:
dhex_dump():
/home/dangcaominh/STM32MP1/optee-os/optee-os/lib/libutils/ext/trace.c:287
     5c0:	4770      	bx	lr
     5c2:	bf00      	nop

000005c4 <__vsnprintf>:
__vsnprintf():
/home/dangcaominh/STM32MP1/optee-os/optee-os/lib/libutils/ext/snprintk.c:138
     5c4:	b57f      	push	{r0, r1, r2, r3, r4, r5, r6, lr}
     5c6:	460d      	mov	r5, r1
     5c8:	4914      	ldr	r1, [pc, #80]	@ (61c <__vsnprintf+0x58>)
     5ca:	4604      	mov	r4, r0
/home/dangcaominh/STM32MP1/optee-os/optee-os/lib/libutils/ext/snprintk.c:142
     5cc:	1966      	adds	r6, r4, r5
/home/dangcaominh/STM32MP1/optee-os/optee-os/lib/libutils/ext/snprintk.c:138
     5ce:	4610      	mov	r0, r2
     5d0:	4479      	add	r1, pc
     5d2:	4a13      	ldr	r2, [pc, #76]	@ (620 <__vsnprintf+0x5c>)
     5d4:	588a      	ldr	r2, [r1, r2]
/home/dangcaominh/STM32MP1/optee-os/optee-os/lib/libutils/ext/snprintk.c:143
     5d6:	a902      	add	r1, sp, #8
/home/dangcaominh/STM32MP1/optee-os/optee-os/lib/libutils/ext/snprintk.c:138
     5d8:	6812      	ldr	r2, [r2, #0]
     5da:	9203      	str	r2, [sp, #12]
     5dc:	f04f 0200 	mov.w	r2, #0
/home/dangcaominh/STM32MP1/optee-os/optee-os/lib/libutils/ext/snprintk.c:143
     5e0:	f89d 2020 	ldrb.w	r2, [sp, #32]
/home/dangcaominh/STM32MP1/optee-os/optee-os/lib/libutils/ext/snprintk.c:142
     5e4:	9602      	str	r6, [sp, #8]
/home/dangcaominh/STM32MP1/optee-os/optee-os/lib/libutils/ext/snprintk.c:143
     5e6:	9200      	str	r2, [sp, #0]
     5e8:	4622      	mov	r2, r4
     5ea:	f000 f84b 	bl	684 <kprintf.constprop.0>
/home/dangcaominh/STM32MP1/optee-os/optee-os/lib/libutils/ext/snprintk.c:144
     5ee:	b13c      	cbz	r4, 600 <__vsnprintf+0x3c>
/home/dangcaominh/STM32MP1/optee-os/optee-os/lib/libutils/ext/snprintk.c:144 (discriminator 1)
     5f0:	b135      	cbz	r5, 600 <__vsnprintf+0x3c>
/home/dangcaominh/STM32MP1/optee-os/optee-os/lib/libutils/ext/snprintk.c:146
     5f2:	42a8      	cmp	r0, r5
     5f4:	f04f 0300 	mov.w	r3, #0
/home/dangcaominh/STM32MP1/optee-os/optee-os/lib/libutils/ext/snprintk.c:147
     5f8:	bf2c      	ite	cs
     5fa:	f806 3c01 	strbcs.w	r3, [r6, #-1]
/home/dangcaominh/STM32MP1/optee-os/optee-os/lib/libutils/ext/snprintk.c:149
     5fe:	5423      	strbcc	r3, [r4, r0]
/home/dangcaominh/STM32MP1/optee-os/optee-os/lib/libutils/ext/snprintk.c:138
     600:	4a08      	ldr	r2, [pc, #32]	@ (624 <__vsnprintf+0x60>)
/home/dangcaominh/STM32MP1/optee-os/optee-os/lib/libutils/ext/snprintk.c:152
     602:	4b07      	ldr	r3, [pc, #28]	@ (620 <__vsnprintf+0x5c>)
/home/dangcaominh/STM32MP1/optee-os/optee-os/lib/libutils/ext/snprintk.c:138
     604:	447a      	add	r2, pc
/home/dangcaominh/STM32MP1/optee-os/optee-os/lib/libutils/ext/snprintk.c:152
     606:	58d3      	ldr	r3, [r2, r3]
     608:	681a      	ldr	r2, [r3, #0]
     60a:	9b03      	ldr	r3, [sp, #12]
     60c:	405a      	eors	r2, r3
     60e:	f04f 0300 	mov.w	r3, #0
     612:	d001      	beq.n	618 <__vsnprintf+0x54>
     614:	f7ff feca 	bl	3ac <__stack_chk_fail>
     618:	b004      	add	sp, #16
     61a:	bd70      	pop	{r4, r5, r6, pc}
     61c:	00009ab4 	.word	0x00009ab4
     620:	0000000c 	.word	0x0000000c
     624:	00009a80 	.word	0x00009a80

00000628 <vsnprintk>:
vsnprintk():
/home/dangcaominh/STM32MP1/optee-os/optee-os/lib/libutils/ext/snprintk.c:130
     628:	b513      	push	{r0, r1, r4, lr}
/home/dangcaominh/STM32MP1/optee-os/optee-os/lib/libutils/ext/snprintk.c:131
     62a:	2401      	movs	r4, #1
     62c:	9400      	str	r4, [sp, #0]
     62e:	f7ff ffc9 	bl	5c4 <__vsnprintf>
/home/dangcaominh/STM32MP1/optee-os/optee-os/lib/libutils/ext/snprintk.c:132
     632:	b002      	add	sp, #8
     634:	bd10      	pop	{r4, pc}

00000636 <snprintk>:
snprintk():
/home/dangcaominh/STM32MP1/optee-os/optee-os/lib/libutils/ext/snprintk.c:113
     636:	b40c      	push	{r2, r3}
     638:	b537      	push	{r0, r1, r2, r4, r5, lr}
     63a:	ab06      	add	r3, sp, #24
     63c:	4d0e      	ldr	r5, [pc, #56]	@ (678 <snprintk+0x42>)
     63e:	4c0f      	ldr	r4, [pc, #60]	@ (67c <snprintk+0x46>)
     640:	447d      	add	r5, pc
     642:	f853 2b04 	ldr.w	r2, [r3], #4
     646:	592c      	ldr	r4, [r5, r4]
     648:	6824      	ldr	r4, [r4, #0]
     64a:	9401      	str	r4, [sp, #4]
     64c:	f04f 0400 	mov.w	r4, #0
/home/dangcaominh/STM32MP1/optee-os/optee-os/lib/libutils/ext/snprintk.c:117
     650:	9300      	str	r3, [sp, #0]
/home/dangcaominh/STM32MP1/optee-os/optee-os/lib/libutils/ext/snprintk.c:118
     652:	f7ff ffe9 	bl	628 <vsnprintk>
/home/dangcaominh/STM32MP1/optee-os/optee-os/lib/libutils/ext/snprintk.c:113
     656:	4a0a      	ldr	r2, [pc, #40]	@ (680 <snprintk+0x4a>)
/home/dangcaominh/STM32MP1/optee-os/optee-os/lib/libutils/ext/snprintk.c:122
     658:	4b08      	ldr	r3, [pc, #32]	@ (67c <snprintk+0x46>)
/home/dangcaominh/STM32MP1/optee-os/optee-os/lib/libutils/ext/snprintk.c:113
     65a:	447a      	add	r2, pc
/home/dangcaominh/STM32MP1/optee-os/optee-os/lib/libutils/ext/snprintk.c:122
     65c:	58d3      	ldr	r3, [r2, r3]
     65e:	681a      	ldr	r2, [r3, #0]
     660:	9b01      	ldr	r3, [sp, #4]
     662:	405a      	eors	r2, r3
     664:	f04f 0300 	mov.w	r3, #0
     668:	d001      	beq.n	66e <snprintk+0x38>
     66a:	f7ff fe9f 	bl	3ac <__stack_chk_fail>
     66e:	b003      	add	sp, #12
     670:	e8bd 4030 	ldmia.w	sp!, {r4, r5, lr}
     674:	b002      	add	sp, #8
     676:	4770      	bx	lr
     678:	00009a44 	.word	0x00009a44
     67c:	0000000c 	.word	0x0000000c
     680:	00009a2a 	.word	0x00009a2a

00000684 <kprintf.constprop.0>:
kprintf():
/home/dangcaominh/STM32MP1/optee-os/optee-os/lib/libutils/ext/snprintk.c:242
     684:	e92d 4ff0 	stmdb	sp!, {r4, r5, r6, r7, r8, r9, sl, fp, lr}
     688:	b09f      	sub	sp, #124	@ 0x7c
     68a:	4680      	mov	r8, r0
     68c:	4616      	mov	r6, r2
     68e:	f8df 0770 	ldr.w	r0, [pc, #1904]	@ e00 <kprintf.constprop.0+0x77c>
     692:	461d      	mov	r5, r3
     694:	f89d 20a0 	ldrb.w	r2, [sp, #160]	@ 0xa0
     698:	4478      	add	r0, pc
     69a:	9211      	str	r2, [sp, #68]	@ 0x44
     69c:	f8df 2764 	ldr.w	r2, [pc, #1892]	@ e04 <kprintf.constprop.0+0x780>
     6a0:	5882      	ldr	r2, [r0, r2]
     6a2:	6812      	ldr	r2, [r2, #0]
     6a4:	921d      	str	r2, [sp, #116]	@ 0x74
     6a6:	f04f 0200 	mov.w	r2, #0
/home/dangcaominh/STM32MP1/optee-os/optee-os/lib/libutils/ext/snprintk.c:264 (discriminator 1)
     6aa:	910c      	str	r1, [sp, #48]	@ 0x30
     6ac:	b1d9      	cbz	r1, 6e6 <kprintf.constprop.0+0x62>
/home/dangcaominh/STM32MP1/optee-os/optee-os/lib/libutils/ext/snprintk.c:265
     6ae:	680b      	ldr	r3, [r1, #0]
/home/dangcaominh/STM32MP1/optee-os/optee-os/lib/libutils/ext/snprintk.c:267
     6b0:	930e      	str	r3, [sp, #56]	@ 0x38
/home/dangcaominh/STM32MP1/optee-os/optee-os/lib/libutils/ext/snprintk.c:275
     6b2:	2300      	movs	r3, #0
     6b4:	930f      	str	r3, [sp, #60]	@ 0x3c
/home/dangcaominh/STM32MP1/optee-os/optee-os/lib/libutils/ext/snprintk.c:273
     6b6:	930b      	str	r3, [sp, #44]	@ 0x2c
/home/dangcaominh/STM32MP1/optee-os/optee-os/lib/libutils/ext/snprintk.c:281 (discriminator 1)
     6b8:	f898 3000 	ldrb.w	r3, [r8]
     6bc:	2b25      	cmp	r3, #37	@ 0x25
     6be:	d022      	beq.n	706 <kprintf.constprop.0+0x82>
/home/dangcaominh/STM32MP1/optee-os/optee-os/lib/libutils/ext/snprintk.c:281 (discriminator 2)
     6c0:	b99b      	cbnz	r3, 6ea <kprintf.constprop.0+0x66>
/home/dangcaominh/STM32MP1/optee-os/optee-os/lib/libutils/ext/snprintk.c:619 (discriminator 1)
     6c2:	9b0c      	ldr	r3, [sp, #48]	@ 0x30
     6c4:	b103      	cbz	r3, 6c8 <kprintf.constprop.0+0x44>
/home/dangcaominh/STM32MP1/optee-os/optee-os/lib/libutils/ext/snprintk.c:620
     6c6:	601e      	str	r6, [r3, #0]
/home/dangcaominh/STM32MP1/optee-os/optee-os/lib/libutils/ext/snprintk.c:242
     6c8:	f8df 273c 	ldr.w	r2, [pc, #1852]	@ e08 <kprintf.constprop.0+0x784>
/home/dangcaominh/STM32MP1/optee-os/optee-os/lib/libutils/ext/snprintk.c:622
     6cc:	f8df 3734 	ldr.w	r3, [pc, #1844]	@ e04 <kprintf.constprop.0+0x780>
/home/dangcaominh/STM32MP1/optee-os/optee-os/lib/libutils/ext/snprintk.c:242
     6d0:	447a      	add	r2, pc
/home/dangcaominh/STM32MP1/optee-os/optee-os/lib/libutils/ext/snprintk.c:622
     6d2:	58d3      	ldr	r3, [r2, r3]
     6d4:	681a      	ldr	r2, [r3, #0]
     6d6:	9b1d      	ldr	r3, [sp, #116]	@ 0x74
     6d8:	405a      	eors	r2, r3
     6da:	f04f 0300 	mov.w	r3, #0
     6de:	f000 838a 	beq.w	df6 <kprintf.constprop.0+0x772>
     6e2:	f7ff fe63 	bl	3ac <__stack_chk_fail>
/home/dangcaominh/STM32MP1/optee-os/optee-os/lib/libutils/ext/snprintk.c:267
     6e6:	9b0c      	ldr	r3, [sp, #48]	@ 0x30
     6e8:	e7e2      	b.n	6b0 <kprintf.constprop.0+0x2c>
/home/dangcaominh/STM32MP1/optee-os/optee-os/lib/libutils/ext/snprintk.c:282
     6ea:	9a0b      	ldr	r2, [sp, #44]	@ 0x2c
     6ec:	3201      	adds	r2, #1
     6ee:	920b      	str	r2, [sp, #44]	@ 0x2c
/home/dangcaominh/STM32MP1/optee-os/optee-os/lib/libutils/ext/snprintk.c:283 (discriminator 1)
     6f0:	b136      	cbz	r6, 700 <kprintf.constprop.0+0x7c>
/home/dangcaominh/STM32MP1/optee-os/optee-os/lib/libutils/ext/snprintk.c:283 (discriminator 3)
     6f2:	9a0c      	ldr	r2, [sp, #48]	@ 0x30
     6f4:	b112      	cbz	r2, 6fc <kprintf.constprop.0+0x78>
/home/dangcaominh/STM32MP1/optee-os/optee-os/lib/libutils/ext/snprintk.c:283 (discriminator 5)
     6f6:	9a0e      	ldr	r2, [sp, #56]	@ 0x38
     6f8:	4296      	cmp	r6, r2
     6fa:	d201      	bcs.n	700 <kprintf.constprop.0+0x7c>
/home/dangcaominh/STM32MP1/optee-os/optee-os/lib/libutils/ext/snprintk.c:283 (discriminator 6)
     6fc:	f806 3b01 	strb.w	r3, [r6], #1
/home/dangcaominh/STM32MP1/optee-os/optee-os/lib/libutils/ext/snprintk.c:281
     700:	f108 0801 	add.w	r8, r8, #1
     704:	e7d8      	b.n	6b8 <kprintf.constprop.0+0x34>
/home/dangcaominh/STM32MP1/optee-os/optee-os/lib/libutils/ext/snprintk.c:294
     706:	f04f 0900 	mov.w	r9, #0
/home/dangcaominh/STM32MP1/optee-os/optee-os/lib/libutils/ext/snprintk.c:288
     70a:	f108 0801 	add.w	r8, r8, #1
/home/dangcaominh/STM32MP1/optee-os/optee-os/lib/libutils/ext/snprintk.c:292
     70e:	f8cd 9034 	str.w	r9, [sp, #52]	@ 0x34
/home/dangcaominh/STM32MP1/optee-os/optee-os/lib/libutils/ext/snprintk.c:288
     712:	462b      	mov	r3, r5
/home/dangcaominh/STM32MP1/optee-os/optee-os/lib/libutils/ext/snprintk.c:293
     714:	f04f 37ff 	mov.w	r7, #4294967295	@ 0xffffffff
/home/dangcaominh/STM32MP1/optee-os/optee-os/lib/libutils/ext/snprintk.c:290
     718:	464c      	mov	r4, r9
/home/dangcaominh/STM32MP1/optee-os/optee-os/lib/libutils/ext/snprintk.c:296
     71a:	f818 bb01 	ldrb.w	fp, [r8], #1
/home/dangcaominh/STM32MP1/optee-os/optee-os/lib/libutils/ext/snprintk.c:297
     71e:	f1bb 0f39 	cmp.w	fp, #57	@ 0x39
     722:	f300 80cf 	bgt.w	8c4 <kprintf.constprop.0+0x240>
     726:	f1bb 0f1f 	cmp.w	fp, #31
     72a:	f300 808d 	bgt.w	848 <kprintf.constprop.0+0x1c4>
/home/dangcaominh/STM32MP1/optee-os/optee-os/lib/libutils/ext/snprintk.c:547
     72e:	f1bb 0f00 	cmp.w	fp, #0
     732:	f040 80cc 	bne.w	8ce <kprintf.constprop.0+0x24a>
     736:	e7c4      	b.n	6c2 <kprintf.constprop.0+0x3e>
/home/dangcaominh/STM32MP1/optee-os/optee-os/lib/libutils/ext/snprintk.c:297
     738:	f04f 092b 	mov.w	r9, #43	@ 0x2b
     73c:	e7ed      	b.n	71a <kprintf.constprop.0+0x96>
     73e:	2a36      	cmp	r2, #54	@ 0x36
     740:	d8f5      	bhi.n	72e <kprintf.constprop.0+0xaa>
     742:	a102      	add	r1, pc, #8	@ (adr r1, 74c <kprintf.constprop.0+0xc8>)
     744:	f851 2022 	ldr.w	r2, [r1, r2, lsl #2]
     748:	4411      	add	r1, r2
     74a:	4708      	bx	r1
     74c:	0000024f 	.word	0x0000024f
     750:	ffffffe3 	.word	0xffffffe3
     754:	ffffffe3 	.word	0xffffffe3
     758:	ffffffe3 	.word	0xffffffe3
     75c:	ffffffe3 	.word	0xffffffe3
     760:	ffffffe3 	.word	0xffffffe3
     764:	ffffffe3 	.word	0xffffffe3
     768:	ffffffe3 	.word	0xffffffe3
     76c:	ffffffe3 	.word	0xffffffe3
     770:	ffffffe3 	.word	0xffffffe3
     774:	ffffffe3 	.word	0xffffffe3
     778:	000003cb 	.word	0x000003cb
     77c:	ffffffe3 	.word	0xffffffe3
     780:	ffffffe3 	.word	0xffffffe3
     784:	ffffffe3 	.word	0xffffffe3
     788:	ffffffe3 	.word	0xffffffe3
     78c:	ffffffe3 	.word	0xffffffe3
     790:	000004fb 	.word	0x000004fb
     794:	ffffffe3 	.word	0xffffffe3
     798:	ffffffe3 	.word	0xffffffe3
     79c:	0000056f 	.word	0x0000056f
     7a0:	ffffffe3 	.word	0xffffffe3
     7a4:	ffffffe3 	.word	0xffffffe3
     7a8:	ffffffe3 	.word	0xffffffe3
     7ac:	ffffffe3 	.word	0xffffffe3
     7b0:	ffffffe3 	.word	0xffffffe3
     7b4:	ffffffe3 	.word	0xffffffe3
     7b8:	ffffffe3 	.word	0xffffffe3
     7bc:	ffffffe3 	.word	0xffffffe3
     7c0:	ffffffe3 	.word	0xffffffe3
     7c4:	ffffffe3 	.word	0xffffffe3
     7c8:	00000239 	.word	0x00000239
     7cc:	00000253 	.word	0x00000253
     7d0:	ffffffe3 	.word	0xffffffe3
     7d4:	ffffffe3 	.word	0xffffffe3
     7d8:	ffffffe3 	.word	0xffffffe3
     7dc:	00000209 	.word	0x00000209
     7e0:	00000253 	.word	0x00000253
     7e4:	0000020f 	.word	0x0000020f
     7e8:	ffffffe3 	.word	0xffffffe3
     7ec:	00000215 	.word	0x00000215
     7f0:	ffffffe3 	.word	0xffffffe3
     7f4:	00000393 	.word	0x00000393
     7f8:	000003cf 	.word	0x000003cf
     7fc:	0000042b 	.word	0x0000042b
     800:	00000221 	.word	0x00000221
     804:	ffffffe3 	.word	0xffffffe3
     808:	000004c1 	.word	0x000004c1
     80c:	0000022d 	.word	0x0000022d
     810:	000004ff 	.word	0x000004ff
     814:	ffffffe3 	.word	0xffffffe3
     818:	ffffffe3 	.word	0xffffffe3
     81c:	000000dd 	.word	0x000000dd
     820:	ffffffe3 	.word	0xffffffe3
     824:	00000233 	.word	0x00000233
/home/dangcaominh/STM32MP1/optee-os/optee-os/lib/libutils/ext/snprintk.c:480
     828:	f8df 25e0 	ldr.w	r2, [pc, #1504]	@ e0c <kprintf.constprop.0+0x788>
     82c:	447a      	add	r2, pc
/home/dangcaominh/STM32MP1/optee-os/optee-os/lib/libutils/ext/snprintk.c:297
     82e:	920f      	str	r2, [sp, #60]	@ 0x3c
/home/dangcaominh/STM32MP1/optee-os/optee-os/lib/libutils/ext/snprintk.c:481
     830:	f014 0280 	ands.w	r2, r4, #128	@ 0x80
     834:	f000 8245 	beq.w	cc2 <kprintf.constprop.0+0x63e>
/home/dangcaominh/STM32MP1/optee-os/optee-os/lib/libutils/ext/snprintk.c:481 (discriminator 10)
     838:	3307      	adds	r3, #7
     83a:	f023 0307 	bic.w	r3, r3, #7
     83e:	461d      	mov	r5, r3
     840:	6859      	ldr	r1, [r3, #4]
     842:	f855 0b08 	ldr.w	r0, [r5], #8
     846:	e243      	b.n	cd0 <kprintf.constprop.0+0x64c>
/home/dangcaominh/STM32MP1/optee-os/optee-os/lib/libutils/ext/snprintk.c:297
     848:	f1ab 0220 	sub.w	r2, fp, #32
     84c:	2a19      	cmp	r2, #25
     84e:	f63f af6e 	bhi.w	72e <kprintf.constprop.0+0xaa>
     852:	a102      	add	r1, pc, #8	@ (adr r1, 85c <kprintf.constprop.0+0x1d8>)
     854:	f851 2022 	ldr.w	r2, [r1, r2, lsl #2]
     858:	4411      	add	r1, r2
     85a:	4708      	bx	r1
     85c:	0000007b 	.word	0x0000007b
     860:	fffffed3 	.word	0xfffffed3
     864:	fffffed3 	.word	0xfffffed3
     868:	00000087 	.word	0x00000087
     86c:	fffffed3 	.word	0xfffffed3
     870:	fffffed3 	.word	0xfffffed3
     874:	fffffed3 	.word	0xfffffed3
     878:	fffffed3 	.word	0xfffffed3
     87c:	fffffed3 	.word	0xfffffed3
     880:	fffffed3 	.word	0xfffffed3
     884:	0000008d 	.word	0x0000008d
     888:	fffffedd 	.word	0xfffffedd
     88c:	fffffed3 	.word	0xfffffed3
     890:	0000009d 	.word	0x0000009d
     894:	000000a3 	.word	0x000000a3
     898:	fffffed3 	.word	0xfffffed3
     89c:	000000d3 	.word	0x000000d3
     8a0:	000000d9 	.word	0x000000d9
     8a4:	000000d9 	.word	0x000000d9
     8a8:	000000d9 	.word	0x000000d9
     8ac:	000000d9 	.word	0x000000d9
     8b0:	000000d9 	.word	0x000000d9
     8b4:	000000d9 	.word	0x000000d9
     8b8:	000000d9 	.word	0x000000d9
     8bc:	000000d9 	.word	0x000000d9
     8c0:	000000d9 	.word	0x000000d9
     8c4:	f1ab 0244 	sub.w	r2, fp, #68	@ 0x44
     8c8:	2a36      	cmp	r2, #54	@ 0x36
     8ca:	f67f af38 	bls.w	73e <kprintf.constprop.0+0xba>
/home/dangcaominh/STM32MP1/optee-os/optee-os/lib/libutils/ext/snprintk.c:551
     8ce:	f88d b04c 	strb.w	fp, [sp, #76]	@ 0x4c
/home/dangcaominh/STM32MP1/optee-os/optee-os/lib/libutils/ext/snprintk.c:554
     8d2:	461d      	mov	r5, r3
     8d4:	e05b      	b.n	98e <kprintf.constprop.0+0x30a>
/home/dangcaominh/STM32MP1/optee-os/optee-os/lib/libutils/ext/snprintk.c:305
     8d6:	f1b9 0f00 	cmp.w	r9, #0
     8da:	bf08      	it	eq
     8dc:	f04f 0920 	moveq.w	r9, #32
     8e0:	e71b      	b.n	71a <kprintf.constprop.0+0x96>
/home/dangcaominh/STM32MP1/optee-os/optee-os/lib/libutils/ext/snprintk.c:308
     8e2:	f044 0401 	orr.w	r4, r4, #1
/home/dangcaominh/STM32MP1/optee-os/optee-os/lib/libutils/ext/snprintk.c:309
     8e6:	e718      	b.n	71a <kprintf.constprop.0+0x96>
/home/dangcaominh/STM32MP1/optee-os/optee-os/lib/libutils/ext/snprintk.c:317
     8e8:	f853 2b04 	ldr.w	r2, [r3], #4
     8ec:	920d      	str	r2, [sp, #52]	@ 0x34
/home/dangcaominh/STM32MP1/optee-os/optee-os/lib/libutils/ext/snprintk.c:317 (discriminator 1)
     8ee:	2a00      	cmp	r2, #0
     8f0:	f6bf af13 	bge.w	71a <kprintf.constprop.0+0x96>
/home/dangcaominh/STM32MP1/optee-os/optee-os/lib/libutils/ext/snprintk.c:319
     8f4:	4252      	negs	r2, r2
     8f6:	920d      	str	r2, [sp, #52]	@ 0x34
/home/dangcaominh/STM32MP1/optee-os/optee-os/lib/libutils/ext/snprintk.c:322
     8f8:	f044 0404 	orr.w	r4, r4, #4
/home/dangcaominh/STM32MP1/optee-os/optee-os/lib/libutils/ext/snprintk.c:323
     8fc:	e70d      	b.n	71a <kprintf.constprop.0+0x96>
/home/dangcaominh/STM32MP1/optee-os/optee-os/lib/libutils/ext/snprintk.c:328
     8fe:	f818 bb01 	ldrb.w	fp, [r8], #1
     902:	f1bb 0f2a 	cmp.w	fp, #42	@ 0x2a
     906:	d10f      	bne.n	928 <kprintf.constprop.0+0x2a4>
/home/dangcaominh/STM32MP1/optee-os/optee-os/lib/libutils/ext/snprintk.c:330
     908:	f853 7b04 	ldr.w	r7, [r3], #4
     90c:	ea47 77e7 	orr.w	r7, r7, r7, asr #31
/home/dangcaominh/STM32MP1/optee-os/optee-os/lib/libutils/ext/snprintk.c:331
     910:	e703      	b.n	71a <kprintf.constprop.0+0x96>
/home/dangcaominh/STM32MP1/optee-os/optee-os/lib/libutils/ext/snprintk.c:335
     912:	fb01 2707 	mla	r7, r1, r7, r2
/home/dangcaominh/STM32MP1/optee-os/optee-os/lib/libutils/ext/snprintk.c:336
     916:	f818 bb01 	ldrb.w	fp, [r8], #1
/home/dangcaominh/STM32MP1/optee-os/optee-os/lib/libutils/ext/snprintk.c:334
     91a:	f1ab 0230 	sub.w	r2, fp, #48	@ 0x30
     91e:	2a09      	cmp	r2, #9
     920:	d9f7      	bls.n	912 <kprintf.constprop.0+0x28e>
/home/dangcaominh/STM32MP1/optee-os/optee-os/lib/libutils/ext/snprintk.c:338
     922:	ea47 77e7 	orr.w	r7, r7, r7, asr #31
/home/dangcaominh/STM32MP1/optee-os/optee-os/lib/libutils/ext/snprintk.c:339
     926:	e6fa      	b.n	71e <kprintf.constprop.0+0x9a>
/home/dangcaominh/STM32MP1/optee-os/optee-os/lib/libutils/ext/snprintk.c:333
     928:	2700      	movs	r7, #0
/home/dangcaominh/STM32MP1/optee-os/optee-os/lib/libutils/ext/snprintk.c:335
     92a:	210a      	movs	r1, #10
     92c:	e7f5      	b.n	91a <kprintf.constprop.0+0x296>
/home/dangcaominh/STM32MP1/optee-os/optee-os/lib/libutils/ext/snprintk.c:346
     92e:	f444 6480 	orr.w	r4, r4, #1024	@ 0x400
/home/dangcaominh/STM32MP1/optee-os/optee-os/lib/libutils/ext/snprintk.c:347
     932:	e6f2      	b.n	71a <kprintf.constprop.0+0x96>
/home/dangcaominh/STM32MP1/optee-os/optee-os/lib/libutils/ext/snprintk.c:352
     934:	210a      	movs	r1, #10
/home/dangcaominh/STM32MP1/optee-os/optee-os/lib/libutils/ext/snprintk.c:297
     936:	2200      	movs	r2, #0
     938:	920d      	str	r2, [sp, #52]	@ 0x34
/home/dangcaominh/STM32MP1/optee-os/optee-os/lib/libutils/ext/snprintk.c:352
     93a:	980d      	ldr	r0, [sp, #52]	@ 0x34
     93c:	f1ab 0230 	sub.w	r2, fp, #48	@ 0x30
/home/dangcaominh/STM32MP1/optee-os/optee-os/lib/libutils/ext/snprintk.c:353
     940:	f818 bb01 	ldrb.w	fp, [r8], #1
/home/dangcaominh/STM32MP1/optee-os/optee-os/lib/libutils/ext/snprintk.c:352
     944:	fb01 2200 	mla	r2, r1, r0, r2
     948:	920d      	str	r2, [sp, #52]	@ 0x34
/home/dangcaominh/STM32MP1/optee-os/optee-os/lib/libutils/ext/snprintk.c:354 (discriminator 1)
     94a:	f1ab 0230 	sub.w	r2, fp, #48	@ 0x30
     94e:	2a09      	cmp	r2, #9
     950:	d9f3      	bls.n	93a <kprintf.constprop.0+0x2b6>
     952:	e6e4      	b.n	71e <kprintf.constprop.0+0x9a>
/home/dangcaominh/STM32MP1/optee-os/optee-os/lib/libutils/ext/snprintk.c:358
     954:	f044 0440 	orr.w	r4, r4, #64	@ 0x40
/home/dangcaominh/STM32MP1/optee-os/optee-os/lib/libutils/ext/snprintk.c:359
     958:	e6df      	b.n	71a <kprintf.constprop.0+0x96>
/home/dangcaominh/STM32MP1/optee-os/optee-os/lib/libutils/ext/snprintk.c:361
     95a:	f044 0480 	orr.w	r4, r4, #128	@ 0x80
/home/dangcaominh/STM32MP1/optee-os/optee-os/lib/libutils/ext/snprintk.c:362
     95e:	e6dc      	b.n	71a <kprintf.constprop.0+0x96>
/home/dangcaominh/STM32MP1/optee-os/optee-os/lib/libutils/ext/snprintk.c:364
     960:	f898 2000 	ldrb.w	r2, [r8]
     964:	2a6c      	cmp	r2, #108	@ 0x6c
     966:	d104      	bne.n	972 <kprintf.constprop.0+0x2ee>
/home/dangcaominh/STM32MP1/optee-os/optee-os/lib/libutils/ext/snprintk.c:328
     968:	f108 0801 	add.w	r8, r8, #1
/home/dangcaominh/STM32MP1/optee-os/optee-os/lib/libutils/ext/snprintk.c:372
     96c:	f044 0420 	orr.w	r4, r4, #32
/home/dangcaominh/STM32MP1/optee-os/optee-os/lib/libutils/ext/snprintk.c:373
     970:	e6d3      	b.n	71a <kprintf.constprop.0+0x96>
/home/dangcaominh/STM32MP1/optee-os/optee-os/lib/libutils/ext/snprintk.c:368
     972:	f044 0410 	orr.w	r4, r4, #16
     976:	e6d0      	b.n	71a <kprintf.constprop.0+0x96>
/home/dangcaominh/STM32MP1/optee-os/optee-os/lib/libutils/ext/snprintk.c:375
     978:	f444 7480 	orr.w	r4, r4, #256	@ 0x100
/home/dangcaominh/STM32MP1/optee-os/optee-os/lib/libutils/ext/snprintk.c:376
     97c:	e6cd      	b.n	71a <kprintf.constprop.0+0x96>
/home/dangcaominh/STM32MP1/optee-os/optee-os/lib/libutils/ext/snprintk.c:378
     97e:	f444 7400 	orr.w	r4, r4, #512	@ 0x200
/home/dangcaominh/STM32MP1/optee-os/optee-os/lib/libutils/ext/snprintk.c:379
     982:	e6ca      	b.n	71a <kprintf.constprop.0+0x96>
/home/dangcaominh/STM32MP1/optee-os/optee-os/lib/libutils/ext/snprintk.c:381
     984:	461d      	mov	r5, r3
/home/dangcaominh/STM32MP1/optee-os/optee-os/lib/libutils/ext/snprintk.c:381 (discriminator 1)
     986:	f855 3b04 	ldr.w	r3, [r5], #4
     98a:	f88d 304c 	strb.w	r3, [sp, #76]	@ 0x4c
/home/dangcaominh/STM32MP1/optee-os/optee-os/lib/libutils/ext/snprintk.c:291
     98e:	2000      	movs	r0, #0
/home/dangcaominh/STM32MP1/optee-os/optee-os/lib/libutils/ext/snprintk.c:552
     990:	2701      	movs	r7, #1
/home/dangcaominh/STM32MP1/optee-os/optee-os/lib/libutils/ext/snprintk.c:553
     992:	4681      	mov	r9, r0
/home/dangcaominh/STM32MP1/optee-os/optee-os/lib/libutils/ext/snprintk.c:550
     994:	f10d 0a4c 	add.w	sl, sp, #76	@ 0x4c
/home/dangcaominh/STM32MP1/optee-os/optee-os/lib/libutils/ext/snprintk.c:554
     998:	e03b      	b.n	a12 <kprintf.constprop.0+0x38e>
/home/dangcaominh/STM32MP1/optee-os/optee-os/lib/libutils/ext/snprintk.c:386
     99a:	f044 0410 	orr.w	r4, r4, #16
/home/dangcaominh/STM32MP1/optee-os/optee-os/lib/libutils/ext/snprintk.c:390
     99e:	0622      	lsls	r2, r4, #24
     9a0:	f140 8084 	bpl.w	aac <kprintf.constprop.0+0x428>
/home/dangcaominh/STM32MP1/optee-os/optee-os/lib/libutils/ext/snprintk.c:390 (discriminator 10)
     9a4:	3307      	adds	r3, #7
     9a6:	f023 0307 	bic.w	r3, r3, #7
     9aa:	461d      	mov	r5, r3
/home/dangcaominh/STM32MP1/optee-os/optee-os/lib/libutils/ext/snprintk.c:390 (discriminator 1)
     9ac:	6859      	ldr	r1, [r3, #4]
     9ae:	f855 0b08 	ldr.w	r0, [r5], #8
/home/dangcaominh/STM32MP1/optee-os/optee-os/lib/libutils/ext/snprintk.c:391
     9b2:	2900      	cmp	r1, #0
     9b4:	f280 8155 	bge.w	c62 <kprintf.constprop.0+0x5de>
/home/dangcaominh/STM32MP1/optee-os/optee-os/lib/libutils/ext/snprintk.c:392
     9b8:	4240      	negs	r0, r0
/home/dangcaominh/STM32MP1/optee-os/optee-os/lib/libutils/ext/snprintk.c:395
     9ba:	f04f 0301 	mov.w	r3, #1
/home/dangcaominh/STM32MP1/optee-os/optee-os/lib/libutils/ext/snprintk.c:392
     9be:	eb61 0141 	sbc.w	r1, r1, r1, lsl #1
/home/dangcaominh/STM32MP1/optee-os/optee-os/lib/libutils/ext/snprintk.c:393
     9c2:	f04f 092d 	mov.w	r9, #45	@ 0x2d
/home/dangcaominh/STM32MP1/optee-os/optee-os/lib/libutils/ext/snprintk.c:494
     9c6:	2f00      	cmp	r7, #0
     9c8:	f280 81a4 	bge.w	d14 <kprintf.constprop.0+0x690>
/home/dangcaominh/STM32MP1/optee-os/optee-os/lib/libutils/ext/snprintk.c:509
     9cc:	2b01      	cmp	r3, #1
     9ce:	f000 814a 	beq.w	c66 <kprintf.constprop.0+0x5e2>
     9d2:	2b02      	cmp	r3, #2
     9d4:	f000 810a 	beq.w	bec <kprintf.constprop.0+0x568>
/home/dangcaominh/STM32MP1/optee-os/optee-os/lib/libutils/ext/snprintk.c:494
     9d8:	f10d 0a71 	add.w	sl, sp, #113	@ 0x71
/home/dangcaominh/STM32MP1/optee-os/optee-os/lib/libutils/ext/snprintk.c:512
     9dc:	f000 0307 	and.w	r3, r0, #7
     9e0:	4652      	mov	r2, sl
/home/dangcaominh/STM32MP1/optee-os/optee-os/lib/libutils/ext/snprintk.c:513
     9e2:	08c0      	lsrs	r0, r0, #3
/home/dangcaominh/STM32MP1/optee-os/optee-os/lib/libutils/ext/snprintk.c:512
     9e4:	3330      	adds	r3, #48	@ 0x30
/home/dangcaominh/STM32MP1/optee-os/optee-os/lib/libutils/ext/snprintk.c:513
     9e6:	ea40 7041 	orr.w	r0, r0, r1, lsl #29
     9ea:	08c9      	lsrs	r1, r1, #3
/home/dangcaominh/STM32MP1/optee-os/optee-os/lib/libutils/ext/snprintk.c:514 (discriminator 1)
     9ec:	ea50 0c01 	orrs.w	ip, r0, r1
/home/dangcaominh/STM32MP1/optee-os/optee-os/lib/libutils/ext/snprintk.c:512
     9f0:	f80a 3d01 	strb.w	r3, [sl, #-1]!
/home/dangcaominh/STM32MP1/optee-os/optee-os/lib/libutils/ext/snprintk.c:514 (discriminator 1)
     9f4:	d1f2      	bne.n	9dc <kprintf.constprop.0+0x358>
/home/dangcaominh/STM32MP1/optee-os/optee-os/lib/libutils/ext/snprintk.c:516
     9f6:	07e1      	lsls	r1, r4, #31
     9f8:	d506      	bpl.n	a08 <kprintf.constprop.0+0x384>
/home/dangcaominh/STM32MP1/optee-os/optee-os/lib/libutils/ext/snprintk.c:516 (discriminator 1)
     9fa:	2b30      	cmp	r3, #48	@ 0x30
     9fc:	d004      	beq.n	a08 <kprintf.constprop.0+0x384>
/home/dangcaominh/STM32MP1/optee-os/optee-os/lib/libutils/ext/snprintk.c:517
     9fe:	2330      	movs	r3, #48	@ 0x30
     a00:	f80a 3c01 	strb.w	r3, [sl, #-1]
     a04:	f1a2 0a02 	sub.w	sl, r2, #2
/home/dangcaominh/STM32MP1/optee-os/optee-os/lib/libutils/ext/snprintk.c:494
     a08:	4638      	mov	r0, r7
/home/dangcaominh/STM32MP1/optee-os/optee-os/lib/libutils/ext/snprintk.c:543
     a0a:	f10d 0771 	add.w	r7, sp, #113	@ 0x71
     a0e:	eba7 070a 	sub.w	r7, r7, sl
/home/dangcaominh/STM32MP1/optee-os/optee-os/lib/libutils/ext/snprintk.c:571
     a12:	42b8      	cmp	r0, r7
     a14:	4603      	mov	r3, r0
     a16:	bfb8      	it	lt
     a18:	463b      	movlt	r3, r7
/home/dangcaominh/STM32MP1/optee-os/optee-os/lib/libutils/ext/snprintk.c:572
     a1a:	f1b9 0f00 	cmp.w	r9, #0
     a1e:	f000 819d 	beq.w	d5c <kprintf.constprop.0+0x6d8>
/home/dangcaominh/STM32MP1/optee-os/optee-os/lib/libutils/ext/snprintk.c:573
     a22:	3301      	adds	r3, #1
/home/dangcaominh/STM32MP1/optee-os/optee-os/lib/libutils/ext/snprintk.c:578
     a24:	9a0b      	ldr	r2, [sp, #44]	@ 0x2c
     a26:	990d      	ldr	r1, [sp, #52]	@ 0x34
     a28:	428b      	cmp	r3, r1
     a2a:	bfac      	ite	ge
     a2c:	18d2      	addge	r2, r2, r3
     a2e:	1852      	addlt	r2, r2, r1
/home/dangcaominh/STM32MP1/optee-os/optee-os/lib/libutils/ext/snprintk.c:581
     a30:	f240 4104 	movw	r1, #1028	@ 0x404
     a34:	ea14 0e01 	ands.w	lr, r4, r1
/home/dangcaominh/STM32MP1/optee-os/optee-os/lib/libutils/ext/snprintk.c:578
     a38:	920b      	str	r2, [sp, #44]	@ 0x2c
/home/dangcaominh/STM32MP1/optee-os/optee-os/lib/libutils/ext/snprintk.c:581
     a3a:	d104      	bne.n	a46 <kprintf.constprop.0+0x3c2>
/home/dangcaominh/STM32MP1/optee-os/optee-os/lib/libutils/ext/snprintk.c:582
     a3c:	9a0d      	ldr	r2, [sp, #52]	@ 0x34
     a3e:	1ad2      	subs	r2, r2, r3
/home/dangcaominh/STM32MP1/optee-os/optee-os/lib/libutils/ext/snprintk.c:583
     a40:	2a00      	cmp	r2, #0
     a42:	f300 818f 	bgt.w	d64 <kprintf.constprop.0+0x6e0>
/home/dangcaominh/STM32MP1/optee-os/optee-os/lib/libutils/ext/snprintk.c:588
     a46:	f1b9 0f00 	cmp.w	r9, #0
     a4a:	f000 8197 	beq.w	d7c <kprintf.constprop.0+0x6f8>
/home/dangcaominh/STM32MP1/optee-os/optee-os/lib/libutils/ext/snprintk.c:589 (discriminator 1)
     a4e:	b136      	cbz	r6, a5e <kprintf.constprop.0+0x3da>
/home/dangcaominh/STM32MP1/optee-os/optee-os/lib/libutils/ext/snprintk.c:589 (discriminator 3)
     a50:	9a0c      	ldr	r2, [sp, #48]	@ 0x30
     a52:	b112      	cbz	r2, a5a <kprintf.constprop.0+0x3d6>
/home/dangcaominh/STM32MP1/optee-os/optee-os/lib/libutils/ext/snprintk.c:589 (discriminator 5)
     a54:	9a0e      	ldr	r2, [sp, #56]	@ 0x38
     a56:	42b2      	cmp	r2, r6
     a58:	d901      	bls.n	a5e <kprintf.constprop.0+0x3da>
/home/dangcaominh/STM32MP1/optee-os/optee-os/lib/libutils/ext/snprintk.c:589 (discriminator 6)
     a5a:	f806 9b01 	strb.w	r9, [r6], #1
/home/dangcaominh/STM32MP1/optee-os/optee-os/lib/libutils/ext/snprintk.c:596
     a5e:	f5be 6f80 	cmp.w	lr, #1024	@ 0x400
     a62:	d106      	bne.n	a72 <kprintf.constprop.0+0x3ee>
/home/dangcaominh/STM32MP1/optee-os/optee-os/lib/libutils/ext/snprintk.c:597
     a64:	9a0d      	ldr	r2, [sp, #52]	@ 0x34
/home/dangcaominh/STM32MP1/optee-os/optee-os/lib/libutils/ext/snprintk.c:599 (discriminator 6)
     a66:	f04f 0c30 	mov.w	ip, #48	@ 0x30
/home/dangcaominh/STM32MP1/optee-os/optee-os/lib/libutils/ext/snprintk.c:597
     a6a:	1ad2      	subs	r2, r2, r3
/home/dangcaominh/STM32MP1/optee-os/optee-os/lib/libutils/ext/snprintk.c:598
     a6c:	2a00      	cmp	r2, #0
     a6e:	f300 81a1 	bgt.w	db4 <kprintf.constprop.0+0x730>
/home/dangcaominh/STM32MP1/optee-os/optee-os/lib/libutils/ext/snprintk.c:603
     a72:	1bc0      	subs	r0, r0, r7
/home/dangcaominh/STM32MP1/optee-os/optee-os/lib/libutils/ext/snprintk.c:605 (discriminator 6)
     a74:	2230      	movs	r2, #48	@ 0x30
/home/dangcaominh/STM32MP1/optee-os/optee-os/lib/libutils/ext/snprintk.c:604
     a76:	2800      	cmp	r0, #0
     a78:	f300 81a6 	bgt.w	dc8 <kprintf.constprop.0+0x744>
     a7c:	4457      	add	r7, sl
/home/dangcaominh/STM32MP1/optee-os/optee-os/lib/libutils/ext/snprintk.c:608 (discriminator 1)
     a7e:	45ba      	cmp	sl, r7
     a80:	f040 81ac 	bne.w	ddc <kprintf.constprop.0+0x758>
/home/dangcaominh/STM32MP1/optee-os/optee-os/lib/libutils/ext/snprintk.c:611
     a84:	0762      	lsls	r2, r4, #29
     a86:	f57f ae17 	bpl.w	6b8 <kprintf.constprop.0+0x34>
/home/dangcaominh/STM32MP1/optee-os/optee-os/lib/libutils/ext/snprintk.c:612
     a8a:	9a0d      	ldr	r2, [sp, #52]	@ 0x34
     a8c:	1ad3      	subs	r3, r2, r3
/home/dangcaominh/STM32MP1/optee-os/optee-os/lib/libutils/ext/snprintk.c:613
     a8e:	2b00      	cmp	r3, #0
     a90:	f77f ae12 	ble.w	6b8 <kprintf.constprop.0+0x34>
/home/dangcaominh/STM32MP1/optee-os/optee-os/lib/libutils/ext/snprintk.c:614 (discriminator 1)
     a94:	b146      	cbz	r6, aa8 <kprintf.constprop.0+0x424>
/home/dangcaominh/STM32MP1/optee-os/optee-os/lib/libutils/ext/snprintk.c:614 (discriminator 3)
     a96:	9a0c      	ldr	r2, [sp, #48]	@ 0x30
     a98:	b112      	cbz	r2, aa0 <kprintf.constprop.0+0x41c>
/home/dangcaominh/STM32MP1/optee-os/optee-os/lib/libutils/ext/snprintk.c:614 (discriminator 5)
     a9a:	9a0e      	ldr	r2, [sp, #56]	@ 0x38
     a9c:	42b2      	cmp	r2, r6
     a9e:	d903      	bls.n	aa8 <kprintf.constprop.0+0x424>
/home/dangcaominh/STM32MP1/optee-os/optee-os/lib/libutils/ext/snprintk.c:614 (discriminator 6)
     aa0:	f04f 0220 	mov.w	r2, #32
     aa4:	f806 2b01 	strb.w	r2, [r6], #1
     aa8:	3b01      	subs	r3, #1
     aaa:	e7f0      	b.n	a8e <kprintf.constprop.0+0x40a>
/home/dangcaominh/STM32MP1/optee-os/optee-os/lib/libutils/ext/snprintk.c:390 (discriminator 2)
     aac:	05e5      	lsls	r5, r4, #23
     aae:	d504      	bpl.n	aba <kprintf.constprop.0+0x436>
/home/dangcaominh/STM32MP1/optee-os/optee-os/lib/libutils/ext/snprintk.c:390 (discriminator 7)
     ab0:	461d      	mov	r5, r3
/home/dangcaominh/STM32MP1/optee-os/optee-os/lib/libutils/ext/snprintk.c:390 (discriminator 1)
     ab2:	f855 0b04 	ldr.w	r0, [r5], #4
     ab6:	17c1      	asrs	r1, r0, #31
     ab8:	e77b      	b.n	9b2 <kprintf.constprop.0+0x32e>
/home/dangcaominh/STM32MP1/optee-os/optee-os/lib/libutils/ext/snprintk.c:390 (discriminator 5)
     aba:	05a0      	lsls	r0, r4, #22
     abc:	d4f8      	bmi.n	ab0 <kprintf.constprop.0+0x42c>
/home/dangcaominh/STM32MP1/optee-os/optee-os/lib/libutils/ext/snprintk.c:390 (discriminator 8)
     abe:	06a1      	lsls	r1, r4, #26
     ac0:	f53f af70 	bmi.w	9a4 <kprintf.constprop.0+0x320>
/home/dangcaominh/STM32MP1/optee-os/optee-os/lib/libutils/ext/snprintk.c:390 (discriminator 11)
     ac4:	06e2      	lsls	r2, r4, #27
/home/dangcaominh/STM32MP1/optee-os/optee-os/lib/libutils/ext/snprintk.c:317
     ac6:	461d      	mov	r5, r3
     ac8:	f855 1b04 	ldr.w	r1, [r5], #4
/home/dangcaominh/STM32MP1/optee-os/optee-os/lib/libutils/ext/snprintk.c:390 (discriminator 11)
     acc:	d501      	bpl.n	ad2 <kprintf.constprop.0+0x44e>
/home/dangcaominh/STM32MP1/optee-os/optee-os/lib/libutils/ext/snprintk.c:390 (discriminator 1)
     ace:	4608      	mov	r0, r1
     ad0:	e7f1      	b.n	ab6 <kprintf.constprop.0+0x432>
/home/dangcaominh/STM32MP1/optee-os/optee-os/lib/libutils/ext/snprintk.c:390 (discriminator 14)
     ad2:	0663      	lsls	r3, r4, #25
     ad4:	d5fb      	bpl.n	ace <kprintf.constprop.0+0x44a>
/home/dangcaominh/STM32MP1/optee-os/optee-os/lib/libutils/ext/snprintk.c:390 (discriminator 1)
     ad6:	b208      	sxth	r0, r1
     ad8:	f341 31c0 	sbfx	r1, r1, #15, #1
     adc:	e769      	b.n	9b2 <kprintf.constprop.0+0x32e>
/home/dangcaominh/STM32MP1/optee-os/optee-os/lib/libutils/ext/snprintk.c:398
     ade:	0620      	lsls	r0, r4, #24
     ae0:	d506      	bpl.n	af0 <kprintf.constprop.0+0x46c>
/home/dangcaominh/STM32MP1/optee-os/optee-os/lib/libutils/ext/snprintk.c:405 (discriminator 1)
     ae2:	990b      	ldr	r1, [sp, #44]	@ 0x2c
     ae4:	681a      	ldr	r2, [r3, #0]
     ae6:	980b      	ldr	r0, [sp, #44]	@ 0x2c
     ae8:	17c9      	asrs	r1, r1, #31
     aea:	e9c2 0100 	strd	r0, r1, [r2]
     aee:	e004      	b.n	afa <kprintf.constprop.0+0x476>
/home/dangcaominh/STM32MP1/optee-os/optee-os/lib/libutils/ext/snprintk.c:400
     af0:	05e1      	lsls	r1, r4, #23
     af2:	d504      	bpl.n	afe <kprintf.constprop.0+0x47a>
/home/dangcaominh/STM32MP1/optee-os/optee-os/lib/libutils/ext/snprintk.c:401 (discriminator 1)
     af4:	681a      	ldr	r2, [r3, #0]
     af6:	990b      	ldr	r1, [sp, #44]	@ 0x2c
     af8:	6011      	str	r1, [r2, #0]
/home/dangcaominh/STM32MP1/optee-os/optee-os/lib/libutils/ext/snprintk.c:317
     afa:	1d1d      	adds	r5, r3, #4
     afc:	e5dc      	b.n	6b8 <kprintf.constprop.0+0x34>
/home/dangcaominh/STM32MP1/optee-os/optee-os/lib/libutils/ext/snprintk.c:402
     afe:	05a2      	lsls	r2, r4, #22
     b00:	d4f8      	bmi.n	af4 <kprintf.constprop.0+0x470>
/home/dangcaominh/STM32MP1/optee-os/optee-os/lib/libutils/ext/snprintk.c:404
     b02:	06a7      	lsls	r7, r4, #26
     b04:	d4ed      	bmi.n	ae2 <kprintf.constprop.0+0x45e>
/home/dangcaominh/STM32MP1/optee-os/optee-os/lib/libutils/ext/snprintk.c:406
     b06:	06e5      	lsls	r5, r4, #27
     b08:	d4f4      	bmi.n	af4 <kprintf.constprop.0+0x470>
/home/dangcaominh/STM32MP1/optee-os/optee-os/lib/libutils/ext/snprintk.c:408
     b0a:	0664      	lsls	r4, r4, #25
     b0c:	d5f2      	bpl.n	af4 <kprintf.constprop.0+0x470>
/home/dangcaominh/STM32MP1/optee-os/optee-os/lib/libutils/ext/snprintk.c:409 (discriminator 1)
     b0e:	681a      	ldr	r2, [r3, #0]
     b10:	990b      	ldr	r1, [sp, #44]	@ 0x2c
     b12:	8011      	strh	r1, [r2, #0]
     b14:	e7f1      	b.n	afa <kprintf.constprop.0+0x476>
/home/dangcaominh/STM32MP1/optee-os/optee-os/lib/libutils/ext/snprintk.c:414
     b16:	f044 0410 	orr.w	r4, r4, #16
/home/dangcaominh/STM32MP1/optee-os/optee-os/lib/libutils/ext/snprintk.c:417
     b1a:	f014 0280 	ands.w	r2, r4, #128	@ 0x80
     b1e:	d007      	beq.n	b30 <kprintf.constprop.0+0x4ac>
/home/dangcaominh/STM32MP1/optee-os/optee-os/lib/libutils/ext/snprintk.c:417 (discriminator 10)
     b20:	3307      	adds	r3, #7
     b22:	f023 0307 	bic.w	r3, r3, #7
     b26:	461d      	mov	r5, r3
     b28:	6859      	ldr	r1, [r3, #4]
     b2a:	f855 0b08 	ldr.w	r0, [r5], #8
     b2e:	e006      	b.n	b3e <kprintf.constprop.0+0x4ba>
/home/dangcaominh/STM32MP1/optee-os/optee-os/lib/libutils/ext/snprintk.c:417 (discriminator 2)
     b30:	f414 7180 	ands.w	r1, r4, #256	@ 0x100
     b34:	d00a      	beq.n	b4c <kprintf.constprop.0+0x4c8>
/home/dangcaominh/STM32MP1/optee-os/optee-os/lib/libutils/ext/snprintk.c:417 (discriminator 4)
     b36:	461d      	mov	r5, r3
/home/dangcaominh/STM32MP1/optee-os/optee-os/lib/libutils/ext/snprintk.c:417 (discriminator 1)
     b38:	4611      	mov	r1, r2
     b3a:	f855 0b04 	ldr.w	r0, [r5], #4
/home/dangcaominh/STM32MP1/optee-os/optee-os/lib/libutils/ext/snprintk.c:494
     b3e:	2f00      	cmp	r7, #0
     b40:	f04f 0900 	mov.w	r9, #0
     b44:	f6ff af48 	blt.w	9d8 <kprintf.constprop.0+0x354>
     b48:	464b      	mov	r3, r9
     b4a:	e0e3      	b.n	d14 <kprintf.constprop.0+0x690>
/home/dangcaominh/STM32MP1/optee-os/optee-os/lib/libutils/ext/snprintk.c:417 (discriminator 5)
     b4c:	05a0      	lsls	r0, r4, #22
     b4e:	d503      	bpl.n	b58 <kprintf.constprop.0+0x4d4>
/home/dangcaominh/STM32MP1/optee-os/optee-os/lib/libutils/ext/snprintk.c:417 (discriminator 7)
     b50:	461d      	mov	r5, r3
/home/dangcaominh/STM32MP1/optee-os/optee-os/lib/libutils/ext/snprintk.c:417 (discriminator 1)
     b52:	f855 0b04 	ldr.w	r0, [r5], #4
     b56:	e7f2      	b.n	b3e <kprintf.constprop.0+0x4ba>
/home/dangcaominh/STM32MP1/optee-os/optee-os/lib/libutils/ext/snprintk.c:417 (discriminator 8)
     b58:	f014 0120 	ands.w	r1, r4, #32
     b5c:	d1e0      	bne.n	b20 <kprintf.constprop.0+0x49c>
/home/dangcaominh/STM32MP1/optee-os/optee-os/lib/libutils/ext/snprintk.c:317
     b5e:	461d      	mov	r5, r3
/home/dangcaominh/STM32MP1/optee-os/optee-os/lib/libutils/ext/snprintk.c:417 (discriminator 11)
     b60:	f014 0310 	ands.w	r3, r4, #16
/home/dangcaominh/STM32MP1/optee-os/optee-os/lib/libutils/ext/snprintk.c:317
     b64:	f855 0b04 	ldr.w	r0, [r5], #4
/home/dangcaominh/STM32MP1/optee-os/optee-os/lib/libutils/ext/snprintk.c:417 (discriminator 11)
     b68:	d1e9      	bne.n	b3e <kprintf.constprop.0+0x4ba>
/home/dangcaominh/STM32MP1/optee-os/optee-os/lib/libutils/ext/snprintk.c:417 (discriminator 14)
     b6a:	f014 0140 	ands.w	r1, r4, #64	@ 0x40
     b6e:	d0e6      	beq.n	b3e <kprintf.constprop.0+0x4ba>
/home/dangcaominh/STM32MP1/optee-os/optee-os/lib/libutils/ext/snprintk.c:417 (discriminator 1)
     b70:	b280      	uxth	r0, r0
     b72:	4619      	mov	r1, r3
     b74:	e7e3      	b.n	b3e <kprintf.constprop.0+0x4ba>
/home/dangcaominh/STM32MP1/optee-os/optee-os/lib/libutils/ext/snprintk.c:317
     b76:	461d      	mov	r5, r3
/home/dangcaominh/STM32MP1/optee-os/optee-os/lib/libutils/ext/snprintk.c:421
     b78:	9b11      	ldr	r3, [sp, #68]	@ 0x44
     b7a:	f855 0b04 	ldr.w	r0, [r5], #4
     b7e:	b343      	cbz	r3, bd2 <kprintf.constprop.0+0x54e>
/home/dangcaominh/STM32MP1/optee-os/optee-os/lib/libutils/ext/snprintk.c:421 (discriminator 1)
     b80:	f898 3000 	ldrb.w	r3, [r8]
     b84:	2b55      	cmp	r3, #85	@ 0x55
     b86:	d124      	bne.n	bd2 <kprintf.constprop.0+0x54e>
/home/dangcaominh/STM32MP1/optee-os/optee-os/lib/libutils/ext/snprintk.c:421 (discriminator 2)
     b88:	f898 3001 	ldrb.w	r3, [r8, #1]
     b8c:	2b6c      	cmp	r3, #108	@ 0x6c
     b8e:	d120      	bne.n	bd2 <kprintf.constprop.0+0x54e>
uuid2str():
/home/dangcaominh/STM32MP1/optee-os/optee-os/lib/libutils/ext/snprintk.c:229
     b90:	7bc3      	ldrb	r3, [r0, #15]
     b92:	f10d 0a4c 	add.w	sl, sp, #76	@ 0x4c
     b96:	4a9e      	ldr	r2, [pc, #632]	@ (e10 <kprintf.constprop.0+0x78c>)
     b98:	2125      	movs	r1, #37	@ 0x25
     b9a:	9309      	str	r3, [sp, #36]	@ 0x24
kprintf():
/home/dangcaominh/STM32MP1/optee-os/optee-os/lib/libutils/ext/snprintk.c:426
     b9c:	f108 0802 	add.w	r8, r8, #2
uuid2str():
/home/dangcaominh/STM32MP1/optee-os/optee-os/lib/libutils/ext/snprintk.c:229
     ba0:	7b83      	ldrb	r3, [r0, #14]
     ba2:	447a      	add	r2, pc
     ba4:	9308      	str	r3, [sp, #32]
     ba6:	7b43      	ldrb	r3, [r0, #13]
     ba8:	9307      	str	r3, [sp, #28]
     baa:	7b03      	ldrb	r3, [r0, #12]
     bac:	9306      	str	r3, [sp, #24]
     bae:	7ac3      	ldrb	r3, [r0, #11]
     bb0:	9305      	str	r3, [sp, #20]
     bb2:	7a83      	ldrb	r3, [r0, #10]
     bb4:	9304      	str	r3, [sp, #16]
     bb6:	7a43      	ldrb	r3, [r0, #9]
     bb8:	9303      	str	r3, [sp, #12]
     bba:	7a03      	ldrb	r3, [r0, #8]
     bbc:	9302      	str	r3, [sp, #8]
     bbe:	88c3      	ldrh	r3, [r0, #6]
     bc0:	9301      	str	r3, [sp, #4]
     bc2:	8883      	ldrh	r3, [r0, #4]
     bc4:	9300      	str	r3, [sp, #0]
     bc6:	6803      	ldr	r3, [r0, #0]
     bc8:	4650      	mov	r0, sl
     bca:	f7ff fd34 	bl	636 <snprintk>
kprintf():
/home/dangcaominh/STM32MP1/optee-os/optee-os/lib/libutils/ext/snprintk.c:466
     bce:	4607      	mov	r7, r0
     bd0:	e032      	b.n	c38 <kprintf.constprop.0+0x5b4>
/home/dangcaominh/STM32MP1/optee-os/optee-os/lib/libutils/ext/snprintk.c:443
     bd2:	4b90      	ldr	r3, [pc, #576]	@ (e14 <kprintf.constprop.0+0x790>)
/home/dangcaominh/STM32MP1/optee-os/optee-os/lib/libutils/ext/snprintk.c:441 (discriminator 1)
     bd4:	2100      	movs	r1, #0
/home/dangcaominh/STM32MP1/optee-os/optee-os/lib/libutils/ext/snprintk.c:444
     bd6:	f044 0402 	orr.w	r4, r4, #2
/home/dangcaominh/STM32MP1/optee-os/optee-os/lib/libutils/ext/snprintk.c:445
     bda:	f04f 0b78 	mov.w	fp, #120	@ 0x78
/home/dangcaominh/STM32MP1/optee-os/optee-os/lib/libutils/ext/snprintk.c:443
     bde:	447b      	add	r3, pc
     be0:	930f      	str	r3, [sp, #60]	@ 0x3c
/home/dangcaominh/STM32MP1/optee-os/optee-os/lib/libutils/ext/snprintk.c:494
     be2:	2f00      	cmp	r7, #0
     be4:	f04f 0900 	mov.w	r9, #0
     be8:	f280 80a0 	bge.w	d2c <kprintf.constprop.0+0x6a8>
     bec:	f10d 0a71 	add.w	sl, sp, #113	@ 0x71
/home/dangcaominh/STM32MP1/optee-os/optee-os/lib/libutils/ext/snprintk.c:531
     bf0:	9a0f      	ldr	r2, [sp, #60]	@ 0x3c
     bf2:	f000 030f 	and.w	r3, r0, #15
/home/dangcaominh/STM32MP1/optee-os/optee-os/lib/libutils/ext/snprintk.c:532
     bf6:	0900      	lsrs	r0, r0, #4
/home/dangcaominh/STM32MP1/optee-os/optee-os/lib/libutils/ext/snprintk.c:531
     bf8:	5cd3      	ldrb	r3, [r2, r3]
/home/dangcaominh/STM32MP1/optee-os/optee-os/lib/libutils/ext/snprintk.c:532
     bfa:	ea40 7001 	orr.w	r0, r0, r1, lsl #28
     bfe:	0909      	lsrs	r1, r1, #4
/home/dangcaominh/STM32MP1/optee-os/optee-os/lib/libutils/ext/snprintk.c:531
     c00:	f80a 3d01 	strb.w	r3, [sl, #-1]!
/home/dangcaominh/STM32MP1/optee-os/optee-os/lib/libutils/ext/snprintk.c:533 (discriminator 1)
     c04:	ea50 0301 	orrs.w	r3, r0, r1
     c08:	d1f2      	bne.n	bf0 <kprintf.constprop.0+0x56c>
     c0a:	e6fd      	b.n	a08 <kprintf.constprop.0+0x384>
/home/dangcaominh/STM32MP1/optee-os/optee-os/lib/libutils/ext/snprintk.c:448
     c0c:	461d      	mov	r5, r3
     c0e:	f855 ab04 	ldr.w	sl, [r5], #4
/home/dangcaominh/STM32MP1/optee-os/optee-os/lib/libutils/ext/snprintk.c:448 (discriminator 1)
     c12:	f1ba 0f00 	cmp.w	sl, #0
     c16:	d102      	bne.n	c1e <kprintf.constprop.0+0x59a>
/home/dangcaominh/STM32MP1/optee-os/optee-os/lib/libutils/ext/snprintk.c:450
     c18:	f8df a1fc 	ldr.w	sl, [pc, #508]	@ e18 <kprintf.constprop.0+0x794>
     c1c:	44fa      	add	sl, pc
/home/dangcaominh/STM32MP1/optee-os/optee-os/lib/libutils/ext/snprintk.c:451
     c1e:	2f00      	cmp	r7, #0
     c20:	db0d      	blt.n	c3e <kprintf.constprop.0+0x5ba>
/home/dangcaominh/STM32MP1/optee-os/optee-os/lib/libutils/ext/snprintk.c:457
     c22:	463a      	mov	r2, r7
     c24:	2100      	movs	r1, #0
     c26:	4650      	mov	r0, sl
     c28:	f008 f818 	bl	8c5c <memchr>
/home/dangcaominh/STM32MP1/optee-os/optee-os/lib/libutils/ext/snprintk.c:459
     c2c:	b128      	cbz	r0, c3a <kprintf.constprop.0+0x5b6>
/home/dangcaominh/STM32MP1/optee-os/optee-os/lib/libutils/ext/snprintk.c:460
     c2e:	eba0 000a 	sub.w	r0, r0, sl
/home/dangcaominh/STM32MP1/optee-os/optee-os/lib/libutils/ext/snprintk.c:461
     c32:	4287      	cmp	r7, r0
     c34:	bfa8      	it	ge
     c36:	4607      	movge	r7, r0
/home/dangcaominh/STM32MP1/optee-os/optee-os/lib/libutils/ext/snprintk.c:291
     c38:	2000      	movs	r0, #0
/home/dangcaominh/STM32MP1/optee-os/optee-os/lib/libutils/ext/snprintk.c:467
     c3a:	4681      	mov	r9, r0
     c3c:	e6e9      	b.n	a12 <kprintf.constprop.0+0x38e>
/home/dangcaominh/STM32MP1/optee-os/optee-os/lib/libutils/ext/snprintk.c:466
     c3e:	4650      	mov	r0, sl
     c40:	f008 f81a 	bl	8c78 <strlen>
     c44:	e7c3      	b.n	bce <kprintf.constprop.0+0x54a>
/home/dangcaominh/STM32MP1/optee-os/optee-os/lib/libutils/ext/snprintk.c:470
     c46:	f044 0410 	orr.w	r4, r4, #16
/home/dangcaominh/STM32MP1/optee-os/optee-os/lib/libutils/ext/snprintk.c:473
     c4a:	f014 0280 	ands.w	r2, r4, #128	@ 0x80
     c4e:	d00e      	beq.n	c6e <kprintf.constprop.0+0x5ea>
/home/dangcaominh/STM32MP1/optee-os/optee-os/lib/libutils/ext/snprintk.c:473 (discriminator 1)
     c50:	3307      	adds	r3, #7
     c52:	f023 0307 	bic.w	r3, r3, #7
     c56:	461d      	mov	r5, r3
     c58:	6859      	ldr	r1, [r3, #4]
     c5a:	f855 0b08 	ldr.w	r0, [r5], #8
/home/dangcaominh/STM32MP1/optee-os/optee-os/lib/libutils/ext/snprintk.c:488
     c5e:	f04f 0900 	mov.w	r9, #0
/home/dangcaominh/STM32MP1/optee-os/optee-os/lib/libutils/ext/snprintk.c:494
     c62:	2f00      	cmp	r7, #0
     c64:	da55      	bge.n	d12 <kprintf.constprop.0+0x68e>
     c66:	f10d 0371 	add.w	r3, sp, #113	@ 0x71
     c6a:	9310      	str	r3, [sp, #64]	@ 0x40
     c6c:	e06a      	b.n	d44 <kprintf.constprop.0+0x6c0>
/home/dangcaominh/STM32MP1/optee-os/optee-os/lib/libutils/ext/snprintk.c:473 (discriminator 2)
     c6e:	f414 7180 	ands.w	r1, r4, #256	@ 0x100
     c72:	d004      	beq.n	c7e <kprintf.constprop.0+0x5fa>
/home/dangcaominh/STM32MP1/optee-os/optee-os/lib/libutils/ext/snprintk.c:473 (discriminator 4)
     c74:	461d      	mov	r5, r3
/home/dangcaominh/STM32MP1/optee-os/optee-os/lib/libutils/ext/snprintk.c:473 (discriminator 1)
     c76:	4611      	mov	r1, r2
     c78:	f855 0b04 	ldr.w	r0, [r5], #4
     c7c:	e7ef      	b.n	c5e <kprintf.constprop.0+0x5da>
/home/dangcaominh/STM32MP1/optee-os/optee-os/lib/libutils/ext/snprintk.c:473 (discriminator 5)
     c7e:	f414 7900 	ands.w	r9, r4, #512	@ 0x200
     c82:	d003      	beq.n	c8c <kprintf.constprop.0+0x608>
/home/dangcaominh/STM32MP1/optee-os/optee-os/lib/libutils/ext/snprintk.c:473 (discriminator 7)
     c84:	461d      	mov	r5, r3
/home/dangcaominh/STM32MP1/optee-os/optee-os/lib/libutils/ext/snprintk.c:473 (discriminator 1)
     c86:	f855 0b04 	ldr.w	r0, [r5], #4
     c8a:	e7e8      	b.n	c5e <kprintf.constprop.0+0x5da>
/home/dangcaominh/STM32MP1/optee-os/optee-os/lib/libutils/ext/snprintk.c:473 (discriminator 8)
     c8c:	f014 0120 	ands.w	r1, r4, #32
     c90:	d007      	beq.n	ca2 <kprintf.constprop.0+0x61e>
/home/dangcaominh/STM32MP1/optee-os/optee-os/lib/libutils/ext/snprintk.c:473 (discriminator 10)
     c92:	3307      	adds	r3, #7
     c94:	f023 0307 	bic.w	r3, r3, #7
     c98:	461d      	mov	r5, r3
     c9a:	6859      	ldr	r1, [r3, #4]
     c9c:	f855 0b08 	ldr.w	r0, [r5], #8
     ca0:	e7df      	b.n	c62 <kprintf.constprop.0+0x5de>
/home/dangcaominh/STM32MP1/optee-os/optee-os/lib/libutils/ext/snprintk.c:317
     ca2:	461d      	mov	r5, r3
/home/dangcaominh/STM32MP1/optee-os/optee-os/lib/libutils/ext/snprintk.c:473 (discriminator 11)
     ca4:	f014 0310 	ands.w	r3, r4, #16
/home/dangcaominh/STM32MP1/optee-os/optee-os/lib/libutils/ext/snprintk.c:317
     ca8:	f855 0b04 	ldr.w	r0, [r5], #4
/home/dangcaominh/STM32MP1/optee-os/optee-os/lib/libutils/ext/snprintk.c:473 (discriminator 11)
     cac:	d1d7      	bne.n	c5e <kprintf.constprop.0+0x5da>
/home/dangcaominh/STM32MP1/optee-os/optee-os/lib/libutils/ext/snprintk.c:473 (discriminator 14)
     cae:	f014 0140 	ands.w	r1, r4, #64	@ 0x40
     cb2:	d0d4      	beq.n	c5e <kprintf.constprop.0+0x5da>
/home/dangcaominh/STM32MP1/optee-os/optee-os/lib/libutils/ext/snprintk.c:473 (discriminator 1)
     cb4:	b280      	uxth	r0, r0
     cb6:	4619      	mov	r1, r3
     cb8:	e7d1      	b.n	c5e <kprintf.constprop.0+0x5da>
/home/dangcaominh/STM32MP1/optee-os/optee-os/lib/libutils/ext/snprintk.c:297
     cba:	4a58      	ldr	r2, [pc, #352]	@ (e1c <kprintf.constprop.0+0x798>)
     cbc:	447a      	add	r2, pc
     cbe:	3211      	adds	r2, #17
     cc0:	e5b5      	b.n	82e <kprintf.constprop.0+0x1aa>
/home/dangcaominh/STM32MP1/optee-os/optee-os/lib/libutils/ext/snprintk.c:481 (discriminator 2)
     cc2:	f414 7180 	ands.w	r1, r4, #256	@ 0x100
     cc6:	d00e      	beq.n	ce6 <kprintf.constprop.0+0x662>
/home/dangcaominh/STM32MP1/optee-os/optee-os/lib/libutils/ext/snprintk.c:481 (discriminator 4)
     cc8:	461d      	mov	r5, r3
/home/dangcaominh/STM32MP1/optee-os/optee-os/lib/libutils/ext/snprintk.c:481 (discriminator 1)
     cca:	4611      	mov	r1, r2
     ccc:	f855 0b04 	ldr.w	r0, [r5], #4
/home/dangcaominh/STM32MP1/optee-os/optee-os/lib/libutils/ext/snprintk.c:484
     cd0:	07e3      	lsls	r3, r4, #31
     cd2:	d586      	bpl.n	be2 <kprintf.constprop.0+0x55e>
/home/dangcaominh/STM32MP1/optee-os/optee-os/lib/libutils/ext/snprintk.c:484 (discriminator 1)
     cd4:	ea50 0301 	orrs.w	r3, r0, r1
     cd8:	d083      	beq.n	be2 <kprintf.constprop.0+0x55e>
/home/dangcaominh/STM32MP1/optee-os/optee-os/lib/libutils/ext/snprintk.c:485
     cda:	f044 0402 	orr.w	r4, r4, #2
/home/dangcaominh/STM32MP1/optee-os/optee-os/lib/libutils/ext/snprintk.c:482
     cde:	2302      	movs	r3, #2
/home/dangcaominh/STM32MP1/optee-os/optee-os/lib/libutils/ext/snprintk.c:488
     ce0:	f04f 0900 	mov.w	r9, #0
     ce4:	e66f      	b.n	9c6 <kprintf.constprop.0+0x342>
/home/dangcaominh/STM32MP1/optee-os/optee-os/lib/libutils/ext/snprintk.c:481 (discriminator 5)
     ce6:	05a2      	lsls	r2, r4, #22
     ce8:	d503      	bpl.n	cf2 <kprintf.constprop.0+0x66e>
/home/dangcaominh/STM32MP1/optee-os/optee-os/lib/libutils/ext/snprintk.c:481 (discriminator 7)
     cea:	461d      	mov	r5, r3
/home/dangcaominh/STM32MP1/optee-os/optee-os/lib/libutils/ext/snprintk.c:481 (discriminator 1)
     cec:	f855 0b04 	ldr.w	r0, [r5], #4
     cf0:	e7ee      	b.n	cd0 <kprintf.constprop.0+0x64c>
/home/dangcaominh/STM32MP1/optee-os/optee-os/lib/libutils/ext/snprintk.c:481 (discriminator 8)
     cf2:	f014 0120 	ands.w	r1, r4, #32
     cf6:	f47f ad9f 	bne.w	838 <kprintf.constprop.0+0x1b4>
/home/dangcaominh/STM32MP1/optee-os/optee-os/lib/libutils/ext/snprintk.c:317
     cfa:	461d      	mov	r5, r3
/home/dangcaominh/STM32MP1/optee-os/optee-os/lib/libutils/ext/snprintk.c:481 (discriminator 11)
     cfc:	f014 0310 	ands.w	r3, r4, #16
/home/dangcaominh/STM32MP1/optee-os/optee-os/lib/libutils/ext/snprintk.c:317
     d00:	f855 0b04 	ldr.w	r0, [r5], #4
/home/dangcaominh/STM32MP1/optee-os/optee-os/lib/libutils/ext/snprintk.c:481 (discriminator 11)
     d04:	d1e4      	bne.n	cd0 <kprintf.constprop.0+0x64c>
/home/dangcaominh/STM32MP1/optee-os/optee-os/lib/libutils/ext/snprintk.c:481 (discriminator 14)
     d06:	f014 0140 	ands.w	r1, r4, #64	@ 0x40
/home/dangcaominh/STM32MP1/optee-os/optee-os/lib/libutils/ext/snprintk.c:481 (discriminator 1)
     d0a:	bf1c      	itt	ne
     d0c:	b280      	uxthne	r0, r0
     d0e:	4619      	movne	r1, r3
     d10:	e7de      	b.n	cd0 <kprintf.constprop.0+0x64c>
/home/dangcaominh/STM32MP1/optee-os/optee-os/lib/libutils/ext/snprintk.c:494
     d12:	2301      	movs	r3, #1
/home/dangcaominh/STM32MP1/optee-os/optee-os/lib/libutils/ext/snprintk.c:503
     d14:	ea50 0201 	orrs.w	r2, r0, r1
/home/dangcaominh/STM32MP1/optee-os/optee-os/lib/libutils/ext/snprintk.c:495
     d18:	f424 6480 	bic.w	r4, r4, #1024	@ 0x400
/home/dangcaominh/STM32MP1/optee-os/optee-os/lib/libutils/ext/snprintk.c:503
     d1c:	f47f ae56 	bne.w	9cc <kprintf.constprop.0+0x348>
/home/dangcaominh/STM32MP1/optee-os/optee-os/lib/libutils/ext/snprintk.c:503 (discriminator 1)
     d20:	2f00      	cmp	r7, #0
     d22:	f47f ae53 	bne.w	9cc <kprintf.constprop.0+0x348>
/home/dangcaominh/STM32MP1/optee-os/optee-os/lib/libutils/ext/snprintk.c:502
     d26:	f10d 0a71 	add.w	sl, sp, #113	@ 0x71
     d2a:	e66d      	b.n	a08 <kprintf.constprop.0+0x384>
/home/dangcaominh/STM32MP1/optee-os/optee-os/lib/libutils/ext/snprintk.c:494
     d2c:	2302      	movs	r3, #2
     d2e:	e7f1      	b.n	d14 <kprintf.constprop.0+0x690>
/home/dangcaominh/STM32MP1/optee-os/optee-os/lib/libutils/ext/snprintk.c:523
     d30:	220a      	movs	r2, #10
     d32:	2300      	movs	r3, #0
     d34:	f000 e88c 	blx	e50 <__aeabi_uldivmod>
     d38:	9b10      	ldr	r3, [sp, #64]	@ 0x40
     d3a:	3230      	adds	r2, #48	@ 0x30
     d3c:	f8cd a040 	str.w	sl, [sp, #64]	@ 0x40
     d40:	f803 2c01 	strb.w	r2, [r3, #-1]
     d44:	9b10      	ldr	r3, [sp, #64]	@ 0x40
/home/dangcaominh/STM32MP1/optee-os/optee-os/lib/libutils/ext/snprintk.c:522
     d46:	280a      	cmp	r0, #10
/home/dangcaominh/STM32MP1/optee-os/optee-os/lib/libutils/ext/snprintk.c:523
     d48:	f103 3aff 	add.w	sl, r3, #4294967295	@ 0xffffffff
/home/dangcaominh/STM32MP1/optee-os/optee-os/lib/libutils/ext/snprintk.c:522
     d4c:	f171 0300 	sbcs.w	r3, r1, #0
     d50:	d2ee      	bcs.n	d30 <kprintf.constprop.0+0x6ac>
/home/dangcaominh/STM32MP1/optee-os/optee-os/lib/libutils/ext/snprintk.c:526
     d52:	9b10      	ldr	r3, [sp, #64]	@ 0x40
     d54:	3030      	adds	r0, #48	@ 0x30
     d56:	f803 0c01 	strb.w	r0, [r3, #-1]
/home/dangcaominh/STM32MP1/optee-os/optee-os/lib/libutils/ext/snprintk.c:527
     d5a:	e655      	b.n	a08 <kprintf.constprop.0+0x384>
/home/dangcaominh/STM32MP1/optee-os/optee-os/lib/libutils/ext/snprintk.c:574
     d5c:	07a2      	lsls	r2, r4, #30
/home/dangcaominh/STM32MP1/optee-os/optee-os/lib/libutils/ext/snprintk.c:575
     d5e:	bf48      	it	mi
     d60:	3302      	addmi	r3, #2
     d62:	e65f      	b.n	a24 <kprintf.constprop.0+0x3a0>
/home/dangcaominh/STM32MP1/optee-os/optee-os/lib/libutils/ext/snprintk.c:584 (discriminator 1)
     d64:	b146      	cbz	r6, d78 <kprintf.constprop.0+0x6f4>
/home/dangcaominh/STM32MP1/optee-os/optee-os/lib/libutils/ext/snprintk.c:584 (discriminator 3)
     d66:	990c      	ldr	r1, [sp, #48]	@ 0x30
     d68:	b111      	cbz	r1, d70 <kprintf.constprop.0+0x6ec>
/home/dangcaominh/STM32MP1/optee-os/optee-os/lib/libutils/ext/snprintk.c:584 (discriminator 5)
     d6a:	990e      	ldr	r1, [sp, #56]	@ 0x38
     d6c:	42b1      	cmp	r1, r6
     d6e:	d903      	bls.n	d78 <kprintf.constprop.0+0x6f4>
/home/dangcaominh/STM32MP1/optee-os/optee-os/lib/libutils/ext/snprintk.c:584 (discriminator 6)
     d70:	f04f 0120 	mov.w	r1, #32
     d74:	f806 1b01 	strb.w	r1, [r6], #1
     d78:	3a01      	subs	r2, #1
     d7a:	e661      	b.n	a40 <kprintf.constprop.0+0x3bc>
/home/dangcaominh/STM32MP1/optee-os/optee-os/lib/libutils/ext/snprintk.c:590
     d7c:	07a1      	lsls	r1, r4, #30
     d7e:	f57f ae6e 	bpl.w	a5e <kprintf.constprop.0+0x3da>
/home/dangcaominh/STM32MP1/optee-os/optee-os/lib/libutils/ext/snprintk.c:591 (discriminator 1)
     d82:	2e00      	cmp	r6, #0
     d84:	f43f ae6b 	beq.w	a5e <kprintf.constprop.0+0x3da>
/home/dangcaominh/STM32MP1/optee-os/optee-os/lib/libutils/ext/snprintk.c:591 (discriminator 3)
     d88:	9a0c      	ldr	r2, [sp, #48]	@ 0x30
     d8a:	b16a      	cbz	r2, da8 <kprintf.constprop.0+0x724>
/home/dangcaominh/STM32MP1/optee-os/optee-os/lib/libutils/ext/snprintk.c:591 (discriminator 5)
     d8c:	9a0e      	ldr	r2, [sp, #56]	@ 0x38
     d8e:	42b2      	cmp	r2, r6
     d90:	f67f ae65 	bls.w	a5e <kprintf.constprop.0+0x3da>
/home/dangcaominh/STM32MP1/optee-os/optee-os/lib/libutils/ext/snprintk.c:592 (discriminator 5)
     d94:	990e      	ldr	r1, [sp, #56]	@ 0x38
/home/dangcaominh/STM32MP1/optee-os/optee-os/lib/libutils/ext/snprintk.c:591 (discriminator 6)
     d96:	4632      	mov	r2, r6
     d98:	f04f 0c30 	mov.w	ip, #48	@ 0x30
     d9c:	f802 cb01 	strb.w	ip, [r2], #1
/home/dangcaominh/STM32MP1/optee-os/optee-os/lib/libutils/ext/snprintk.c:592 (discriminator 5)
     da0:	4291      	cmp	r1, r2
     da2:	d803      	bhi.n	dac <kprintf.constprop.0+0x728>
     da4:	4616      	mov	r6, r2
     da6:	e65a      	b.n	a5e <kprintf.constprop.0+0x3da>
/home/dangcaominh/STM32MP1/optee-os/optee-os/lib/libutils/ext/snprintk.c:591 (discriminator 6)
     da8:	2230      	movs	r2, #48	@ 0x30
     daa:	7032      	strb	r2, [r6, #0]
/home/dangcaominh/STM32MP1/optee-os/optee-os/lib/libutils/ext/snprintk.c:592 (discriminator 6)
     dac:	f886 b001 	strb.w	fp, [r6, #1]
     db0:	3602      	adds	r6, #2
     db2:	e654      	b.n	a5e <kprintf.constprop.0+0x3da>
/home/dangcaominh/STM32MP1/optee-os/optee-os/lib/libutils/ext/snprintk.c:599 (discriminator 1)
     db4:	b136      	cbz	r6, dc4 <kprintf.constprop.0+0x740>
/home/dangcaominh/STM32MP1/optee-os/optee-os/lib/libutils/ext/snprintk.c:599 (discriminator 3)
     db6:	990c      	ldr	r1, [sp, #48]	@ 0x30
     db8:	b111      	cbz	r1, dc0 <kprintf.constprop.0+0x73c>
/home/dangcaominh/STM32MP1/optee-os/optee-os/lib/libutils/ext/snprintk.c:599 (discriminator 5)
     dba:	990e      	ldr	r1, [sp, #56]	@ 0x38
     dbc:	42b1      	cmp	r1, r6
     dbe:	d901      	bls.n	dc4 <kprintf.constprop.0+0x740>
/home/dangcaominh/STM32MP1/optee-os/optee-os/lib/libutils/ext/snprintk.c:599 (discriminator 6)
     dc0:	f806 cb01 	strb.w	ip, [r6], #1
     dc4:	3a01      	subs	r2, #1
     dc6:	e651      	b.n	a6c <kprintf.constprop.0+0x3e8>
/home/dangcaominh/STM32MP1/optee-os/optee-os/lib/libutils/ext/snprintk.c:605 (discriminator 1)
     dc8:	b136      	cbz	r6, dd8 <kprintf.constprop.0+0x754>
/home/dangcaominh/STM32MP1/optee-os/optee-os/lib/libutils/ext/snprintk.c:605 (discriminator 3)
     dca:	990c      	ldr	r1, [sp, #48]	@ 0x30
     dcc:	b111      	cbz	r1, dd4 <kprintf.constprop.0+0x750>
/home/dangcaominh/STM32MP1/optee-os/optee-os/lib/libutils/ext/snprintk.c:605 (discriminator 5)
     dce:	990e      	ldr	r1, [sp, #56]	@ 0x38
     dd0:	42b1      	cmp	r1, r6
     dd2:	d901      	bls.n	dd8 <kprintf.constprop.0+0x754>
/home/dangcaominh/STM32MP1/optee-os/optee-os/lib/libutils/ext/snprintk.c:605 (discriminator 6)
     dd4:	f806 2b01 	strb.w	r2, [r6], #1
     dd8:	3801      	subs	r0, #1
     dda:	e64c      	b.n	a76 <kprintf.constprop.0+0x3f2>
/home/dangcaominh/STM32MP1/optee-os/optee-os/lib/libutils/ext/snprintk.c:609 (discriminator 1)
     ddc:	b146      	cbz	r6, df0 <kprintf.constprop.0+0x76c>
/home/dangcaominh/STM32MP1/optee-os/optee-os/lib/libutils/ext/snprintk.c:609 (discriminator 3)
     dde:	9a0c      	ldr	r2, [sp, #48]	@ 0x30
     de0:	b112      	cbz	r2, de8 <kprintf.constprop.0+0x764>
/home/dangcaominh/STM32MP1/optee-os/optee-os/lib/libutils/ext/snprintk.c:609 (discriminator 5)
     de2:	9a0e      	ldr	r2, [sp, #56]	@ 0x38
     de4:	42b2      	cmp	r2, r6
     de6:	d903      	bls.n	df0 <kprintf.constprop.0+0x76c>
/home/dangcaominh/STM32MP1/optee-os/optee-os/lib/libutils/ext/snprintk.c:609 (discriminator 6)
     de8:	f89a 2000 	ldrb.w	r2, [sl]
     dec:	f806 2b01 	strb.w	r2, [r6], #1
/home/dangcaominh/STM32MP1/optee-os/optee-os/lib/libutils/ext/snprintk.c:608
     df0:	f10a 0a01 	add.w	sl, sl, #1
     df4:	e643      	b.n	a7e <kprintf.constprop.0+0x3fa>
/home/dangcaominh/STM32MP1/optee-os/optee-os/lib/libutils/ext/snprintk.c:622
     df6:	980b      	ldr	r0, [sp, #44]	@ 0x2c
     df8:	b01f      	add	sp, #124	@ 0x7c
     dfa:	e8bd 8ff0 	ldmia.w	sp!, {r4, r5, r6, r7, r8, r9, sl, fp, pc}
     dfe:	bf00      	nop
     e00:	000099ec 	.word	0x000099ec
     e04:	0000000c 	.word	0x0000000c
     e08:	000099b4 	.word	0x000099b4
     e0c:	00009294 	.word	0x00009294
     e10:	00008480 	.word	0x00008480
     e14:	00008ee2 	.word	0x00008ee2
     e18:	000083ff 	.word	0x000083ff
     e1c:	00008e04 	.word	0x00008e04

00000e20 <__vsprintf>:
__vsprintf():
/home/dangcaominh/STM32MP1/optee-os/optee-os/lib/libutils/ext/snprintk.c:155
     e20:	b513      	push	{r0, r1, r4, lr}
     e22:	4604      	mov	r4, r0
     e24:	4608      	mov	r0, r1
/home/dangcaominh/STM32MP1/optee-os/optee-os/lib/libutils/ext/snprintk.c:156
     e26:	2100      	movs	r1, #0
     e28:	9100      	str	r1, [sp, #0]
/home/dangcaominh/STM32MP1/optee-os/optee-os/lib/libutils/ext/snprintk.c:155
     e2a:	4613      	mov	r3, r2
/home/dangcaominh/STM32MP1/optee-os/optee-os/lib/libutils/ext/snprintk.c:156
     e2c:	4622      	mov	r2, r4
     e2e:	f7ff fc29 	bl	684 <kprintf.constprop.0>
/home/dangcaominh/STM32MP1/optee-os/optee-os/lib/libutils/ext/snprintk.c:157
     e32:	b002      	add	sp, #8
     e34:	bd10      	pop	{r4, pc}
     e36:	bf00      	nop

00000e38 <__aeabi_ldivmod>:
__aeabi_ldivmod():
/home/dangcaominh/STM32MP1/optee-os/optee-os/lib/libutils/isoc/arch/arm/arm32_aeabi_ldivmod_a32.S:14
     e38:	e92d5000 	push	{ip, lr}
/home/dangcaominh/STM32MP1/optee-os/optee-os/lib/libutils/isoc/arch/arm/arm32_aeabi_ldivmod_a32.S:16
     e3c:	e92d000f 	push	{r0, r1, r2, r3}
/home/dangcaominh/STM32MP1/optee-os/optee-os/lib/libutils/isoc/arch/arm/arm32_aeabi_ldivmod_a32.S:18
     e40:	e1a0000d 	mov	r0, sp
/home/dangcaominh/STM32MP1/optee-os/optee-os/lib/libutils/isoc/arch/arm/arm32_aeabi_ldivmod_a32.S:19
     e44:	fa000045 	blx	f60 <__l_divmod>
/home/dangcaominh/STM32MP1/optee-os/optee-os/lib/libutils/isoc/arch/arm/arm32_aeabi_ldivmod_a32.S:20
     e48:	e8bd000f 	pop	{r0, r1, r2, r3}
/home/dangcaominh/STM32MP1/optee-os/optee-os/lib/libutils/isoc/arch/arm/arm32_aeabi_ldivmod_a32.S:21
     e4c:	e8bd9000 	pop	{ip, pc}

00000e50 <__aeabi_uldivmod>:
__aeabi_uldivmod():
/home/dangcaominh/STM32MP1/optee-os/optee-os/lib/libutils/isoc/arch/arm/arm32_aeabi_ldivmod_a32.S:29
     e50:	e92d5000 	push	{ip, lr}
/home/dangcaominh/STM32MP1/optee-os/optee-os/lib/libutils/isoc/arch/arm/arm32_aeabi_ldivmod_a32.S:31
     e54:	e92d000f 	push	{r0, r1, r2, r3}
/home/dangcaominh/STM32MP1/optee-os/optee-os/lib/libutils/isoc/arch/arm/arm32_aeabi_ldivmod_a32.S:33
     e58:	e1a0000d 	mov	r0, sp
/home/dangcaominh/STM32MP1/optee-os/optee-os/lib/libutils/isoc/arch/arm/arm32_aeabi_ldivmod_a32.S:34
     e5c:	fb000023 	blx	ef2 <__ul_divmod>
/home/dangcaominh/STM32MP1/optee-os/optee-os/lib/libutils/isoc/arch/arm/arm32_aeabi_ldivmod_a32.S:35
     e60:	e8bd000f 	pop	{r0, r1, r2, r3}
/home/dangcaominh/STM32MP1/optee-os/optee-os/lib/libutils/isoc/arch/arm/arm32_aeabi_ldivmod_a32.S:36
     e64:	e8bd9000 	pop	{ip, pc}

00000e68 <ul_div_qr>:
ul_div_qr():
/home/dangcaominh/STM32MP1/optee-os/optee-os/lib/libutils/isoc/arch/arm/arm32_aeabi_ldivmod.c:47
     e68:	468c      	mov	ip, r1
division_lqr():
/home/dangcaominh/STM32MP1/optee-os/optee-os/lib/libutils/isoc/arch/arm/arm32_aeabi_ldivmod.c:22
     e6a:	ea52 0103 	orrs.w	r1, r2, r3
ul_div_qr():
/home/dangcaominh/STM32MP1/optee-os/optee-os/lib/libutils/isoc/arch/arm/arm32_aeabi_ldivmod.c:47
     e6e:	b5f0      	push	{r4, r5, r6, r7, lr}
     e70:	9d05      	ldr	r5, [sp, #20]
division_lqr():
/home/dangcaominh/STM32MP1/optee-os/optee-os/lib/libutils/isoc/arch/arm/arm32_aeabi_ldivmod.c:22
     e72:	d126      	bne.n	ec2 <ul_div_qr+0x5a>
/home/dangcaominh/STM32MP1/optee-os/optee-os/lib/libutils/isoc/arch/arm/arm32_aeabi_ldivmod.c:23
     e74:	ffc7 0e1f 	vmov.i8	d16, #255	@ 0xff
     e78:	edc5 0b02 	vstr	d16, [r5, #8]
ul_div_qr():
/home/dangcaominh/STM32MP1/optee-os/optee-os/lib/libutils/isoc/arch/arm/arm32_aeabi_ldivmod.c:52
     e7c:	692b      	ldr	r3, [r5, #16]
     e7e:	b133      	cbz	r3, e8e <ul_div_qr+0x26>
/home/dangcaominh/STM32MP1/optee-os/optee-os/lib/libutils/isoc/arch/arm/arm32_aeabi_ldivmod.c:53
     e80:	e9d5 3200 	ldrd	r3, r2, [r5]
     e84:	425b      	negs	r3, r3
     e86:	eb62 0242 	sbc.w	r2, r2, r2, lsl #1
     e8a:	e9c5 3200 	strd	r3, r2, [r5]
/home/dangcaominh/STM32MP1/optee-os/optee-os/lib/libutils/isoc/arch/arm/arm32_aeabi_ldivmod.c:54
     e8e:	696b      	ldr	r3, [r5, #20]
     e90:	b133      	cbz	r3, ea0 <ul_div_qr+0x38>
/home/dangcaominh/STM32MP1/optee-os/optee-os/lib/libutils/isoc/arch/arm/arm32_aeabi_ldivmod.c:55
     e92:	e9d5 3202 	ldrd	r3, r2, [r5, #8]
     e96:	425b      	negs	r3, r3
     e98:	eb62 0242 	sbc.w	r2, r2, r2, lsl #1
     e9c:	e9c5 3202 	strd	r3, r2, [r5, #8]
/home/dangcaominh/STM32MP1/optee-os/optee-os/lib/libutils/isoc/arch/arm/arm32_aeabi_ldivmod.c:56
     ea0:	bdf0      	pop	{r4, r5, r6, r7, pc}
division_lqr():
/home/dangcaominh/STM32MP1/optee-os/optee-os/lib/libutils/isoc/arch/arm/arm32_aeabi_ldivmod.c:28
     ea2:	19b6      	adds	r6, r6, r6
     ea4:	417f      	adcs	r7, r7
/home/dangcaominh/STM32MP1/optee-os/optee-os/lib/libutils/isoc/arch/arm/arm32_aeabi_ldivmod.c:29
     ea6:	1892      	adds	r2, r2, r2
     ea8:	415b      	adcs	r3, r3
/home/dangcaominh/STM32MP1/optee-os/optee-os/lib/libutils/isoc/arch/arm/arm32_aeabi_ldivmod.c:27
     eaa:	2b00      	cmp	r3, #0
     eac:	daf9      	bge.n	ea2 <ul_div_qr+0x3a>
/home/dangcaominh/STM32MP1/optee-os/optee-os/lib/libutils/isoc/arch/arm/arm32_aeabi_ldivmod.c:21
     eae:	2400      	movs	r4, #0
     eb0:	4621      	mov	r1, r4
/home/dangcaominh/STM32MP1/optee-os/optee-os/lib/libutils/isoc/arch/arm/arm32_aeabi_ldivmod.c:32
     eb2:	ea56 0e07 	orrs.w	lr, r6, r7
     eb6:	d107      	bne.n	ec8 <ul_div_qr+0x60>
/home/dangcaominh/STM32MP1/optee-os/optee-os/lib/libutils/isoc/arch/arm/arm32_aeabi_ldivmod.c:41
     eb8:	e9c5 0c02 	strd	r0, ip, [r5, #8]
/home/dangcaominh/STM32MP1/optee-os/optee-os/lib/libutils/isoc/arch/arm/arm32_aeabi_ldivmod.c:42
     ebc:	e9c5 4100 	strd	r4, r1, [r5]
     ec0:	e7dc      	b.n	e7c <ul_div_qr+0x14>
/home/dangcaominh/STM32MP1/optee-os/optee-os/lib/libutils/isoc/arch/arm/arm32_aeabi_ldivmod.c:21
     ec2:	2601      	movs	r6, #1
     ec4:	2700      	movs	r7, #0
     ec6:	e7f0      	b.n	eaa <ul_div_qr+0x42>
/home/dangcaominh/STM32MP1/optee-os/optee-os/lib/libutils/isoc/arch/arm/arm32_aeabi_ldivmod.c:33
     ec8:	1924      	adds	r4, r4, r4
     eca:	4149      	adcs	r1, r1
/home/dangcaominh/STM32MP1/optee-os/optee-os/lib/libutils/isoc/arch/arm/arm32_aeabi_ldivmod.c:34
     ecc:	4290      	cmp	r0, r2
     ece:	eb7c 0e03 	sbcs.w	lr, ip, r3
     ed2:	d305      	bcc.n	ee0 <ul_div_qr+0x78>
/home/dangcaominh/STM32MP1/optee-os/optee-os/lib/libutils/isoc/arch/arm/arm32_aeabi_ldivmod.c:35
     ed4:	1a80      	subs	r0, r0, r2
     ed6:	eb6c 0c03 	sbc.w	ip, ip, r3
/home/dangcaominh/STM32MP1/optee-os/optee-os/lib/libutils/isoc/arch/arm/arm32_aeabi_ldivmod.c:36
     eda:	3401      	adds	r4, #1
     edc:	f141 0100 	adc.w	r1, r1, #0
/home/dangcaominh/STM32MP1/optee-os/optee-os/lib/libutils/isoc/arch/arm/arm32_aeabi_ldivmod.c:38
     ee0:	0852      	lsrs	r2, r2, #1
/home/dangcaominh/STM32MP1/optee-os/optee-os/lib/libutils/isoc/arch/arm/arm32_aeabi_ldivmod.c:39
     ee2:	0876      	lsrs	r6, r6, #1
/home/dangcaominh/STM32MP1/optee-os/optee-os/lib/libutils/isoc/arch/arm/arm32_aeabi_ldivmod.c:38
     ee4:	ea42 72c3 	orr.w	r2, r2, r3, lsl #31
/home/dangcaominh/STM32MP1/optee-os/optee-os/lib/libutils/isoc/arch/arm/arm32_aeabi_ldivmod.c:39
     ee8:	ea46 76c7 	orr.w	r6, r6, r7, lsl #31
/home/dangcaominh/STM32MP1/optee-os/optee-os/lib/libutils/isoc/arch/arm/arm32_aeabi_ldivmod.c:38
     eec:	085b      	lsrs	r3, r3, #1
/home/dangcaominh/STM32MP1/optee-os/optee-os/lib/libutils/isoc/arch/arm/arm32_aeabi_ldivmod.c:39
     eee:	087f      	lsrs	r7, r7, #1
     ef0:	e7df      	b.n	eb2 <ul_div_qr+0x4a>

00000ef2 <__ul_divmod>:
__ul_divmod():
/home/dangcaominh/STM32MP1/optee-os/optee-os/lib/libutils/isoc/arch/arm/arm32_aeabi_ldivmod.c:66
     ef2:	4a18      	ldr	r2, [pc, #96]	@ (f54 <__ul_divmod+0x62>)
     ef4:	4b18      	ldr	r3, [pc, #96]	@ (f58 <__ul_divmod+0x66>)
     ef6:	447a      	add	r2, pc
     ef8:	b510      	push	{r4, lr}
     efa:	b08a      	sub	sp, #40	@ 0x28
     efc:	58d3      	ldr	r3, [r2, r3]
     efe:	4604      	mov	r4, r0
/home/dangcaominh/STM32MP1/optee-os/optee-os/lib/libutils/isoc/arch/arm/arm32_aeabi_ldivmod.c:69
     f00:	efc0 0010 	vmov.i32	d16, #0	@ 0x00000000
/home/dangcaominh/STM32MP1/optee-os/optee-os/lib/libutils/isoc/arch/arm/arm32_aeabi_ldivmod.c:66
     f04:	681b      	ldr	r3, [r3, #0]
     f06:	9309      	str	r3, [sp, #36]	@ 0x24
     f08:	f04f 0300 	mov.w	r3, #0
/home/dangcaominh/STM32MP1/optee-os/optee-os/lib/libutils/isoc/arch/arm/arm32_aeabi_ldivmod.c:69
     f0c:	ab02      	add	r3, sp, #8
/home/dangcaominh/STM32MP1/optee-os/optee-os/lib/libutils/isoc/arch/arm/arm32_aeabi_ldivmod.c:71
     f0e:	9300      	str	r3, [sp, #0]
     f10:	e9d0 2302 	ldrd	r2, r3, [r0, #8]
     f14:	e9d0 0100 	ldrd	r0, r1, [r0]
/home/dangcaominh/STM32MP1/optee-os/optee-os/lib/libutils/isoc/arch/arm/arm32_aeabi_ldivmod.c:69
     f18:	edcd 0b02 	vstr	d16, [sp, #8]
     f1c:	edcd 0b04 	vstr	d16, [sp, #16]
     f20:	edcd 0b06 	vstr	d16, [sp, #24]
/home/dangcaominh/STM32MP1/optee-os/optee-os/lib/libutils/isoc/arch/arm/arm32_aeabi_ldivmod.c:71
     f24:	f7ff ffa0 	bl	e68 <ul_div_qr>
/home/dangcaominh/STM32MP1/optee-os/optee-os/lib/libutils/isoc/arch/arm/arm32_aeabi_ldivmod.c:73
     f28:	e9dd 2302 	ldrd	r2, r3, [sp, #8]
     f2c:	e9c4 2300 	strd	r2, r3, [r4]
/home/dangcaominh/STM32MP1/optee-os/optee-os/lib/libutils/isoc/arch/arm/arm32_aeabi_ldivmod.c:74
     f30:	e9dd 2304 	ldrd	r2, r3, [sp, #16]
     f34:	e9c4 2302 	strd	r2, r3, [r4, #8]
/home/dangcaominh/STM32MP1/optee-os/optee-os/lib/libutils/isoc/arch/arm/arm32_aeabi_ldivmod.c:66
     f38:	4a08      	ldr	r2, [pc, #32]	@ (f5c <__ul_divmod+0x6a>)
/home/dangcaominh/STM32MP1/optee-os/optee-os/lib/libutils/isoc/arch/arm/arm32_aeabi_ldivmod.c:75
     f3a:	4b07      	ldr	r3, [pc, #28]	@ (f58 <__ul_divmod+0x66>)
/home/dangcaominh/STM32MP1/optee-os/optee-os/lib/libutils/isoc/arch/arm/arm32_aeabi_ldivmod.c:66
     f3c:	447a      	add	r2, pc
/home/dangcaominh/STM32MP1/optee-os/optee-os/lib/libutils/isoc/arch/arm/arm32_aeabi_ldivmod.c:75
     f3e:	58d3      	ldr	r3, [r2, r3]
     f40:	681a      	ldr	r2, [r3, #0]
     f42:	9b09      	ldr	r3, [sp, #36]	@ 0x24
     f44:	405a      	eors	r2, r3
     f46:	f04f 0300 	mov.w	r3, #0
     f4a:	d001      	beq.n	f50 <__ul_divmod+0x5e>
     f4c:	f7ff fa2e 	bl	3ac <__stack_chk_fail>
     f50:	b00a      	add	sp, #40	@ 0x28
     f52:	bd10      	pop	{r4, pc}
     f54:	0000918e 	.word	0x0000918e
     f58:	0000000c 	.word	0x0000000c
     f5c:	00009148 	.word	0x00009148

00000f60 <__l_divmod>:
__l_divmod():
/home/dangcaominh/STM32MP1/optee-os/optee-os/lib/libutils/isoc/arch/arm/arm32_aeabi_ldivmod.c:85
     f60:	4a26      	ldr	r2, [pc, #152]	@ (ffc <__l_divmod+0x9c>)
     f62:	b570      	push	{r4, r5, r6, lr}
     f64:	4604      	mov	r4, r0
/home/dangcaominh/STM32MP1/optee-os/optee-os/lib/libutils/isoc/arch/arm/arm32_aeabi_ldivmod.c:88
     f66:	efc0 0010 	vmov.i32	d16, #0	@ 0x00000000
/home/dangcaominh/STM32MP1/optee-os/optee-os/lib/libutils/isoc/arch/arm/arm32_aeabi_ldivmod.c:85
     f6a:	447a      	add	r2, pc
     f6c:	b08a      	sub	sp, #40	@ 0x28
     f6e:	4b24      	ldr	r3, [pc, #144]	@ (1000 <__l_divmod+0xa0>)
/home/dangcaominh/STM32MP1/optee-os/optee-os/lib/libutils/isoc/arch/arm/arm32_aeabi_ldivmod.c:88
     f70:	ad02      	add	r5, sp, #8
/home/dangcaominh/STM32MP1/optee-os/optee-os/lib/libutils/isoc/arch/arm/arm32_aeabi_ldivmod.c:86
     f72:	e9d0 0100 	ldrd	r0, r1, [r0]
/home/dangcaominh/STM32MP1/optee-os/optee-os/lib/libutils/isoc/arch/arm/arm32_aeabi_ldivmod.c:85
     f76:	58d3      	ldr	r3, [r2, r3]
/home/dangcaominh/STM32MP1/optee-os/optee-os/lib/libutils/isoc/arch/arm/arm32_aeabi_ldivmod.c:90
     f78:	2900      	cmp	r1, #0
/home/dangcaominh/STM32MP1/optee-os/optee-os/lib/libutils/isoc/arch/arm/arm32_aeabi_ldivmod.c:85
     f7a:	681b      	ldr	r3, [r3, #0]
     f7c:	9309      	str	r3, [sp, #36]	@ 0x24
     f7e:	f04f 0300 	mov.w	r3, #0
/home/dangcaominh/STM32MP1/optee-os/optee-os/lib/libutils/isoc/arch/arm/arm32_aeabi_ldivmod.c:88
     f82:	edcd 0b02 	vstr	d16, [sp, #8]
     f86:	edc5 0b02 	vstr	d16, [r5, #8]
     f8a:	edc5 0b04 	vstr	d16, [r5, #16]
/home/dangcaominh/STM32MP1/optee-os/optee-os/lib/libutils/isoc/arch/arm/arm32_aeabi_ldivmod.c:87
     f8e:	e9d4 2302 	ldrd	r2, r3, [r4, #8]
/home/dangcaominh/STM32MP1/optee-os/optee-os/lib/libutils/isoc/arch/arm/arm32_aeabi_ldivmod.c:90
     f92:	da0a      	bge.n	faa <__l_divmod+0x4a>
/home/dangcaominh/STM32MP1/optee-os/optee-os/lib/libutils/isoc/arch/arm/arm32_aeabi_ldivmod.c:90 (discriminator 1)
     f94:	2a01      	cmp	r2, #1
     f96:	f173 0600 	sbcs.w	r6, r3, #0
     f9a:	da29      	bge.n	ff0 <__l_divmod+0x90>
/home/dangcaominh/STM32MP1/optee-os/optee-os/lib/libutils/isoc/arch/arm/arm32_aeabi_ldivmod.c:94
     f9c:	4240      	negs	r0, r0
/home/dangcaominh/STM32MP1/optee-os/optee-os/lib/libutils/isoc/arch/arm/arm32_aeabi_ldivmod.c:95
     f9e:	f04f 0601 	mov.w	r6, #1
/home/dangcaominh/STM32MP1/optee-os/optee-os/lib/libutils/isoc/arch/arm/arm32_aeabi_ldivmod.c:94
     fa2:	eb61 0141 	sbc.w	r1, r1, r1, lsl #1
/home/dangcaominh/STM32MP1/optee-os/optee-os/lib/libutils/isoc/arch/arm/arm32_aeabi_ldivmod.c:95
     fa6:	9607      	str	r6, [sp, #28]
     fa8:	e006      	b.n	fb8 <__l_divmod+0x58>
/home/dangcaominh/STM32MP1/optee-os/optee-os/lib/libutils/isoc/arch/arm/arm32_aeabi_ldivmod.c:90 (discriminator 3)
     faa:	ea50 0601 	orrs.w	r6, r0, r1
     fae:	d003      	beq.n	fb8 <__l_divmod+0x58>
/home/dangcaominh/STM32MP1/optee-os/optee-os/lib/libutils/isoc/arch/arm/arm32_aeabi_ldivmod.c:91
     fb0:	2b00      	cmp	r3, #0
     fb2:	da01      	bge.n	fb8 <__l_divmod+0x58>
/home/dangcaominh/STM32MP1/optee-os/optee-os/lib/libutils/isoc/arch/arm/arm32_aeabi_ldivmod.c:92
     fb4:	2601      	movs	r6, #1
     fb6:	9606      	str	r6, [sp, #24]
/home/dangcaominh/STM32MP1/optee-os/optee-os/lib/libutils/isoc/arch/arm/arm32_aeabi_ldivmod.c:97
     fb8:	2b00      	cmp	r3, #0
     fba:	da02      	bge.n	fc2 <__l_divmod+0x62>
     fbc:	4252      	negs	r2, r2
     fbe:	eb63 0343 	sbc.w	r3, r3, r3, lsl #1
/home/dangcaominh/STM32MP1/optee-os/optee-os/lib/libutils/isoc/arch/arm/arm32_aeabi_ldivmod.c:100
     fc2:	9500      	str	r5, [sp, #0]
     fc4:	f7ff ff50 	bl	e68 <ul_div_qr>
/home/dangcaominh/STM32MP1/optee-os/optee-os/lib/libutils/isoc/arch/arm/arm32_aeabi_ldivmod.c:102
     fc8:	e9dd 2302 	ldrd	r2, r3, [sp, #8]
     fcc:	e9c4 2300 	strd	r2, r3, [r4]
/home/dangcaominh/STM32MP1/optee-os/optee-os/lib/libutils/isoc/arch/arm/arm32_aeabi_ldivmod.c:103
     fd0:	e9dd 2304 	ldrd	r2, r3, [sp, #16]
     fd4:	e9c4 2302 	strd	r2, r3, [r4, #8]
/home/dangcaominh/STM32MP1/optee-os/optee-os/lib/libutils/isoc/arch/arm/arm32_aeabi_ldivmod.c:85
     fd8:	4a0a      	ldr	r2, [pc, #40]	@ (1004 <__l_divmod+0xa4>)
/home/dangcaominh/STM32MP1/optee-os/optee-os/lib/libutils/isoc/arch/arm/arm32_aeabi_ldivmod.c:104
     fda:	4b09      	ldr	r3, [pc, #36]	@ (1000 <__l_divmod+0xa0>)
/home/dangcaominh/STM32MP1/optee-os/optee-os/lib/libutils/isoc/arch/arm/arm32_aeabi_ldivmod.c:85
     fdc:	447a      	add	r2, pc
/home/dangcaominh/STM32MP1/optee-os/optee-os/lib/libutils/isoc/arch/arm/arm32_aeabi_ldivmod.c:104
     fde:	58d3      	ldr	r3, [r2, r3]
     fe0:	681a      	ldr	r2, [r3, #0]
     fe2:	9b09      	ldr	r3, [sp, #36]	@ 0x24
     fe4:	405a      	eors	r2, r3
     fe6:	f04f 0300 	mov.w	r3, #0
     fea:	d004      	beq.n	ff6 <__l_divmod+0x96>
     fec:	f7ff f9de 	bl	3ac <__stack_chk_fail>
/home/dangcaominh/STM32MP1/optee-os/optee-os/lib/libutils/isoc/arch/arm/arm32_aeabi_ldivmod.c:92
     ff0:	2601      	movs	r6, #1
     ff2:	9606      	str	r6, [sp, #24]
/home/dangcaominh/STM32MP1/optee-os/optee-os/lib/libutils/isoc/arch/arm/arm32_aeabi_ldivmod.c:93
     ff4:	e7d2      	b.n	f9c <__l_divmod+0x3c>
/home/dangcaominh/STM32MP1/optee-os/optee-os/lib/libutils/isoc/arch/arm/arm32_aeabi_ldivmod.c:104
     ff6:	b00a      	add	sp, #40	@ 0x28
     ff8:	bd70      	pop	{r4, r5, r6, pc}
     ffa:	bf00      	nop
     ffc:	0000911a 	.word	0x0000911a
    1000:	0000000c 	.word	0x0000000c
    1004:	000090a8 	.word	0x000090a8

00001008 <trace_ext_puts>:
trace_ext_puts():
/home/dangcaominh/STM32MP1/optee-os/optee-os/lib/libutee/trace_ext.c:22
    1008:	b510      	push	{r4, lr}
    100a:	4604      	mov	r4, r0
/home/dangcaominh/STM32MP1/optee-os/optee-os/lib/libutee/trace_ext.c:26
    100c:	f007 fe34 	bl	8c78 <strlen>
    1010:	4601      	mov	r1, r0
/home/dangcaominh/STM32MP1/optee-os/optee-os/lib/libutee/trace_ext.c:26 (discriminator 1)
    1012:	4620      	mov	r0, r4
/home/dangcaominh/STM32MP1/optee-os/optee-os/lib/libutee/trace_ext.c:28
    1014:	e8bd 4010 	ldmia.w	sp!, {r4, lr}
/home/dangcaominh/STM32MP1/optee-os/optee-os/lib/libutee/trace_ext.c:26 (discriminator 1)
    1018:	f007 bea6 	b.w	8d68 <___utee_log_from_thumb>

0000101c <trace_ext_get_thread_id>:
trace_ext_get_thread_id():
/home/dangcaominh/STM32MP1/optee-os/optee-os/lib/libutee/trace_ext.c:33
    101c:	f04f 30ff 	mov.w	r0, #4294967295	@ 0xffffffff
    1020:	4770      	bx	lr

00001022 <printf>:
printf():
/home/dangcaominh/STM32MP1/optee-os/optee-os/lib/libutee/trace_ext.c:41
    1022:	b40f      	push	{r0, r1, r2, r3}
    1024:	4a18      	ldr	r2, [pc, #96]	@ (1088 <printf+0x66>)
    1026:	4b19      	ldr	r3, [pc, #100]	@ (108c <printf+0x6a>)
    1028:	447a      	add	r2, pc
    102a:	b530      	push	{r4, r5, lr}
    102c:	b0c3      	sub	sp, #268	@ 0x10c
    102e:	58d3      	ldr	r3, [r2, r3]
    1030:	9c46      	ldr	r4, [sp, #280]	@ 0x118
    1032:	681b      	ldr	r3, [r3, #0]
    1034:	9341      	str	r3, [sp, #260]	@ 0x104
    1036:	f04f 0300 	mov.w	r3, #0
/home/dangcaominh/STM32MP1/optee-os/optee-os/lib/libutee/trace_ext.c:46
    103a:	f7ff f9d9 	bl	3f0 <trace_get_level>
/home/dangcaominh/STM32MP1/optee-os/optee-os/lib/libutee/trace_ext.c:46 (discriminator 1)
    103e:	2800      	cmp	r0, #0
    1040:	dd1a      	ble.n	1078 <printf+0x56>
/home/dangcaominh/STM32MP1/optee-os/optee-os/lib/libutee/trace_ext.c:49
    1042:	466a      	mov	r2, sp
    1044:	ab47      	add	r3, sp, #284	@ 0x11c
/home/dangcaominh/STM32MP1/optee-os/optee-os/lib/libutee/trace_ext.c:50
    1046:	ad01      	add	r5, sp, #4
    1048:	f44f 7180 	mov.w	r1, #256	@ 0x100
/home/dangcaominh/STM32MP1/optee-os/optee-os/lib/libutee/trace_ext.c:49
    104c:	6013      	str	r3, [r2, #0]
/home/dangcaominh/STM32MP1/optee-os/optee-os/lib/libutee/trace_ext.c:50
    104e:	4628      	mov	r0, r5
    1050:	4622      	mov	r2, r4
    1052:	f007 fd0d 	bl	8a70 <vsnprintf>
/home/dangcaominh/STM32MP1/optee-os/optee-os/lib/libutee/trace_ext.c:53
    1056:	1e04      	subs	r4, r0, #0
    1058:	db02      	blt.n	1060 <printf+0x3e>
/home/dangcaominh/STM32MP1/optee-os/optee-os/lib/libutee/trace_ext.c:56
    105a:	4628      	mov	r0, r5
    105c:	f7ff ffd4 	bl	1008 <trace_ext_puts>
/home/dangcaominh/STM32MP1/optee-os/optee-os/lib/libutee/trace_ext.c:41
    1060:	4a0b      	ldr	r2, [pc, #44]	@ (1090 <printf+0x6e>)
/home/dangcaominh/STM32MP1/optee-os/optee-os/lib/libutee/trace_ext.c:59
    1062:	4b0a      	ldr	r3, [pc, #40]	@ (108c <printf+0x6a>)
/home/dangcaominh/STM32MP1/optee-os/optee-os/lib/libutee/trace_ext.c:41
    1064:	447a      	add	r2, pc
/home/dangcaominh/STM32MP1/optee-os/optee-os/lib/libutee/trace_ext.c:59
    1066:	58d3      	ldr	r3, [r2, r3]
    1068:	681a      	ldr	r2, [r3, #0]
    106a:	9b41      	ldr	r3, [sp, #260]	@ 0x104
    106c:	405a      	eors	r2, r3
    106e:	f04f 0300 	mov.w	r3, #0
    1072:	d003      	beq.n	107c <printf+0x5a>
    1074:	f7ff f99a 	bl	3ac <__stack_chk_fail>
/home/dangcaominh/STM32MP1/optee-os/optee-os/lib/libutee/trace_ext.c:47
    1078:	2400      	movs	r4, #0
    107a:	e7f1      	b.n	1060 <printf+0x3e>
/home/dangcaominh/STM32MP1/optee-os/optee-os/lib/libutee/trace_ext.c:59
    107c:	4620      	mov	r0, r4
    107e:	b043      	add	sp, #268	@ 0x10c
    1080:	e8bd 4030 	ldmia.w	sp!, {r4, r5, lr}
    1084:	b004      	add	sp, #16
    1086:	4770      	bx	lr
    1088:	0000905c 	.word	0x0000905c
    108c:	0000000c 	.word	0x0000000c
    1090:	00009020 	.word	0x00009020

00001094 <puts>:
puts():
/home/dangcaominh/STM32MP1/optee-os/optee-os/lib/libutee/trace_ext.c:62
    1094:	b510      	push	{r4, lr}
    1096:	4604      	mov	r4, r0
/home/dangcaominh/STM32MP1/optee-os/optee-os/lib/libutee/trace_ext.c:63
    1098:	f7ff f9aa 	bl	3f0 <trace_get_level>
/home/dangcaominh/STM32MP1/optee-os/optee-os/lib/libutee/trace_ext.c:63 (discriminator 1)
    109c:	2800      	cmp	r0, #0
    109e:	dd06      	ble.n	10ae <puts+0x1a>
/home/dangcaominh/STM32MP1/optee-os/optee-os/lib/libutee/trace_ext.c:64
    10a0:	4620      	mov	r0, r4
    10a2:	f7ff ffb1 	bl	1008 <trace_ext_puts>
/home/dangcaominh/STM32MP1/optee-os/optee-os/lib/libutee/trace_ext.c:65
    10a6:	4803      	ldr	r0, [pc, #12]	@ (10b4 <puts+0x20>)
    10a8:	4478      	add	r0, pc
    10aa:	f7ff ffad 	bl	1008 <trace_ext_puts>
/home/dangcaominh/STM32MP1/optee-os/optee-os/lib/libutee/trace_ext.c:68
    10ae:	2001      	movs	r0, #1
    10b0:	bd10      	pop	{r4, pc}
    10b2:	bf00      	nop
    10b4:	000086cf 	.word	0x000086cf

000010b8 <putchar>:
putchar():
/home/dangcaominh/STM32MP1/optee-os/optee-os/lib/libutee/trace_ext.c:71
    10b8:	4a12      	ldr	r2, [pc, #72]	@ (1104 <putchar+0x4c>)
    10ba:	4b13      	ldr	r3, [pc, #76]	@ (1108 <putchar+0x50>)
    10bc:	447a      	add	r2, pc
    10be:	b513      	push	{r0, r1, r4, lr}
    10c0:	4604      	mov	r4, r0
    10c2:	58d3      	ldr	r3, [r2, r3]
    10c4:	681b      	ldr	r3, [r3, #0]
    10c6:	9301      	str	r3, [sp, #4]
    10c8:	f04f 0300 	mov.w	r3, #0
/home/dangcaominh/STM32MP1/optee-os/optee-os/lib/libutee/trace_ext.c:72
    10cc:	2300      	movs	r3, #0
    10ce:	f88d 0000 	strb.w	r0, [sp]
    10d2:	f88d 3001 	strb.w	r3, [sp, #1]
/home/dangcaominh/STM32MP1/optee-os/optee-os/lib/libutee/trace_ext.c:74
    10d6:	f7ff f98b 	bl	3f0 <trace_get_level>
/home/dangcaominh/STM32MP1/optee-os/optee-os/lib/libutee/trace_ext.c:74 (discriminator 1)
    10da:	2800      	cmp	r0, #0
    10dc:	dd02      	ble.n	10e4 <putchar+0x2c>
/home/dangcaominh/STM32MP1/optee-os/optee-os/lib/libutee/trace_ext.c:75
    10de:	4668      	mov	r0, sp
    10e0:	f7ff ff92 	bl	1008 <trace_ext_puts>
/home/dangcaominh/STM32MP1/optee-os/optee-os/lib/libutee/trace_ext.c:71
    10e4:	4a09      	ldr	r2, [pc, #36]	@ (110c <putchar+0x54>)
/home/dangcaominh/STM32MP1/optee-os/optee-os/lib/libutee/trace_ext.c:81
    10e6:	b2e0      	uxtb	r0, r4
/home/dangcaominh/STM32MP1/optee-os/optee-os/lib/libutee/trace_ext.c:82
    10e8:	4b07      	ldr	r3, [pc, #28]	@ (1108 <putchar+0x50>)
/home/dangcaominh/STM32MP1/optee-os/optee-os/lib/libutee/trace_ext.c:71
    10ea:	447a      	add	r2, pc
/home/dangcaominh/STM32MP1/optee-os/optee-os/lib/libutee/trace_ext.c:82
    10ec:	58d3      	ldr	r3, [r2, r3]
    10ee:	681a      	ldr	r2, [r3, #0]
    10f0:	9b01      	ldr	r3, [sp, #4]
    10f2:	405a      	eors	r2, r3
    10f4:	f04f 0300 	mov.w	r3, #0
    10f8:	d001      	beq.n	10fe <putchar+0x46>
    10fa:	f7ff f957 	bl	3ac <__stack_chk_fail>
    10fe:	b002      	add	sp, #8
    1100:	bd10      	pop	{r4, pc}
    1102:	bf00      	nop
    1104:	00008fc8 	.word	0x00008fc8
    1108:	0000000c 	.word	0x0000000c
    110c:	00008f9a 	.word	0x00008f9a

00001110 <copy_param>:
copy_param():
/home/dangcaominh/STM32MP1/optee-os/optee-os/lib/libutee/tee_api.c:38
    1110:	b5f0      	push	{r4, r5, r6, r7, lr}
    1112:	4616      	mov	r6, r2
/home/dangcaominh/STM32MP1/optee-os/optee-os/lib/libutee/tee_api.c:43
    1114:	2400      	movs	r4, #0
    1116:	e9c0 1400 	strd	r1, r4, [r0]
/home/dangcaominh/STM32MP1/optee-os/optee-os/lib/libutee/tee_api.c:45
    111a:	fa21 f304 	lsr.w	r3, r1, r4
    111e:	f003 050f 	and.w	r5, r3, #15
    1122:	2d03      	cmp	r5, #3
    1124:	d00d      	beq.n	1142 <copy_param+0x32>
    1126:	f013 030c 	ands.w	r3, r3, #12
    112a:	d105      	bne.n	1138 <copy_param+0x28>
    112c:	2d01      	cmp	r5, #1
    112e:	d008      	beq.n	1142 <copy_param+0x32>
    1130:	461f      	mov	r7, r3
    1132:	469c      	mov	ip, r3
    1134:	461d      	mov	r5, r3
    1136:	e009      	b.n	114c <copy_param+0x3c>
    1138:	3d05      	subs	r5, #5
    113a:	2d02      	cmp	r5, #2
    113c:	d901      	bls.n	1142 <copy_param+0x32>
    113e:	2300      	movs	r3, #0
    1140:	e7f6      	b.n	1130 <copy_param+0x20>
/home/dangcaominh/STM32MP1/optee-os/optee-os/lib/libutee/tee_api.c:54
    1142:	f852 c014 	ldr.w	ip, [r2, r4, lsl #1]
    1146:	2500      	movs	r5, #0
/home/dangcaominh/STM32MP1/optee-os/optee-os/lib/libutee/tee_api.c:55
    1148:	6873      	ldr	r3, [r6, #4]
    114a:	462f      	mov	r7, r5
/home/dangcaominh/STM32MP1/optee-os/optee-os/lib/libutee/tee_api.c:44 (discriminator 1)
    114c:	3404      	adds	r4, #4
    114e:	3608      	adds	r6, #8
    1150:	2c10      	cmp	r4, #16
/home/dangcaominh/STM32MP1/optee-os/optee-os/lib/libutee/tee_api.c:61
    1152:	e9c0 c502 	strd	ip, r5, [r0, #8]
/home/dangcaominh/STM32MP1/optee-os/optee-os/lib/libutee/tee_api.c:62
    1156:	e9c0 3704 	strd	r3, r7, [r0, #16]
/home/dangcaominh/STM32MP1/optee-os/optee-os/lib/libutee/tee_api.c:44 (discriminator 1)
    115a:	f100 0010 	add.w	r0, r0, #16
    115e:	d1dc      	bne.n	111a <copy_param+0xa>
/home/dangcaominh/STM32MP1/optee-os/optee-os/lib/libutee/tee_api.c:64
    1160:	bdf0      	pop	{r4, r5, r6, r7, pc}

00001162 <copy_gp11_param>:
copy_gp11_param():
/home/dangcaominh/STM32MP1/optee-os/optee-os/lib/libutee/tee_api.c:68
    1162:	b5f0      	push	{r4, r5, r6, r7, lr}
    1164:	4616      	mov	r6, r2
/home/dangcaominh/STM32MP1/optee-os/optee-os/lib/libutee/tee_api.c:73
    1166:	2400      	movs	r4, #0
    1168:	e9c0 1400 	strd	r1, r4, [r0]
/home/dangcaominh/STM32MP1/optee-os/optee-os/lib/libutee/tee_api.c:75
    116c:	fa21 f304 	lsr.w	r3, r1, r4
    1170:	f003 050f 	and.w	r5, r3, #15
    1174:	2d03      	cmp	r5, #3
    1176:	d00d      	beq.n	1194 <copy_gp11_param+0x32>
    1178:	f013 030c 	ands.w	r3, r3, #12
    117c:	d105      	bne.n	118a <copy_gp11_param+0x28>
    117e:	2d01      	cmp	r5, #1
    1180:	d008      	beq.n	1194 <copy_gp11_param+0x32>
    1182:	461f      	mov	r7, r3
    1184:	469c      	mov	ip, r3
    1186:	461d      	mov	r5, r3
    1188:	e009      	b.n	119e <copy_gp11_param+0x3c>
    118a:	3d05      	subs	r5, #5
    118c:	2d02      	cmp	r5, #2
    118e:	d901      	bls.n	1194 <copy_gp11_param+0x32>
    1190:	2300      	movs	r3, #0
    1192:	e7f6      	b.n	1182 <copy_gp11_param+0x20>
/home/dangcaominh/STM32MP1/optee-os/optee-os/lib/libutee/tee_api.c:84
    1194:	f852 c014 	ldr.w	ip, [r2, r4, lsl #1]
    1198:	2500      	movs	r5, #0
/home/dangcaominh/STM32MP1/optee-os/optee-os/lib/libutee/tee_api.c:85
    119a:	6873      	ldr	r3, [r6, #4]
    119c:	462f      	mov	r7, r5
/home/dangcaominh/STM32MP1/optee-os/optee-os/lib/libutee/tee_api.c:74 (discriminator 1)
    119e:	3404      	adds	r4, #4
    11a0:	3608      	adds	r6, #8
    11a2:	2c10      	cmp	r4, #16
/home/dangcaominh/STM32MP1/optee-os/optee-os/lib/libutee/tee_api.c:91
    11a4:	e9c0 c502 	strd	ip, r5, [r0, #8]
/home/dangcaominh/STM32MP1/optee-os/optee-os/lib/libutee/tee_api.c:92
    11a8:	e9c0 3704 	strd	r3, r7, [r0, #16]
/home/dangcaominh/STM32MP1/optee-os/optee-os/lib/libutee/tee_api.c:74 (discriminator 1)
    11ac:	f100 0010 	add.w	r0, r0, #16
    11b0:	d1dc      	bne.n	116c <copy_gp11_param+0xa>
/home/dangcaominh/STM32MP1/optee-os/optee-os/lib/libutee/tee_api.c:94
    11b2:	bdf0      	pop	{r4, r5, r6, r7, pc}

000011b4 <check_mem_access_rights_params>:
check_mem_access_rights_params():
/home/dangcaominh/STM32MP1/optee-os/optee-os/lib/libutee/tee_api.c:255
    11b4:	4b18      	ldr	r3, [pc, #96]	@ (1218 <check_mem_access_rights_params+0x64>)
    11b6:	b5f0      	push	{r4, r5, r6, r7, lr}
bufs_intersect():
/home/dangcaominh/STM32MP1/optee-os/optee-os/lib/libutee/tee_api.c:241
    11b8:	1e57      	subs	r7, r2, #1
check_mem_access_rights_params():
/home/dangcaominh/STM32MP1/optee-os/optee-os/lib/libutee/tee_api.c:255
    11ba:	447b      	add	r3, pc
/home/dangcaominh/STM32MP1/optee-os/optee-os/lib/libutee/tee_api.c:261
    11bc:	2500      	movs	r5, #0
    11be:	4c17      	ldr	r4, [pc, #92]	@ (121c <check_mem_access_rights_params+0x68>)
bufs_intersect():
/home/dangcaominh/STM32MP1/optee-os/optee-os/lib/libutee/tee_api.c:241
    11c0:	440f      	add	r7, r1
check_mem_access_rights_params():
/home/dangcaominh/STM32MP1/optee-os/optee-os/lib/libutee/tee_api.c:261
    11c2:	591c      	ldr	r4, [r3, r4]
    11c4:	f8d4 c000 	ldr.w	ip, [r4]
    11c8:	4c15      	ldr	r4, [pc, #84]	@ (1220 <check_mem_access_rights_params+0x6c>)
    11ca:	591e      	ldr	r6, [r3, r4]
    11cc:	fa2c f305 	lsr.w	r3, ip, r5
    11d0:	f003 030f 	and.w	r3, r3, #15
    11d4:	2b05      	cmp	r3, #5
    11d6:	d019      	beq.n	120c <check_mem_access_rights_params+0x58>
    11d8:	3b06      	subs	r3, #6
    11da:	2b01      	cmp	r3, #1
    11dc:	d810      	bhi.n	1200 <check_mem_access_rights_params+0x4c>
    11de:	2406      	movs	r4, #6
bufs_intersect():
/home/dangcaominh/STM32MP1/optee-os/optee-os/lib/libutee/tee_api.c:244
    11e0:	b172      	cbz	r2, 1200 <check_mem_access_rights_params+0x4c>
check_mem_access_rights_params():
/home/dangcaominh/STM32MP1/optee-os/optee-os/lib/libutee/tee_api.c:268
    11e2:	6873      	ldr	r3, [r6, #4]
bufs_intersect():
/home/dangcaominh/STM32MP1/optee-os/optee-os/lib/libutee/tee_api.c:244 (discriminator 1)
    11e4:	b163      	cbz	r3, 1200 <check_mem_access_rights_params+0x4c>
/home/dangcaominh/STM32MP1/optee-os/optee-os/lib/libutee/tee_api.c:240
    11e6:	f8d6 e000 	ldr.w	lr, [r6]
/home/dangcaominh/STM32MP1/optee-os/optee-os/lib/libutee/tee_api.c:247
    11ea:	45be      	cmp	lr, r7
    11ec:	d808      	bhi.n	1200 <check_mem_access_rights_params+0x4c>
/home/dangcaominh/STM32MP1/optee-os/optee-os/lib/libutee/tee_api.c:242
    11ee:	3b01      	subs	r3, #1
    11f0:	4473      	add	r3, lr
/home/dangcaominh/STM32MP1/optee-os/optee-os/lib/libutee/tee_api.c:247 (discriminator 1)
    11f2:	4299      	cmp	r1, r3
    11f4:	d804      	bhi.n	1200 <check_mem_access_rights_params+0x4c>
check_mem_access_rights_params():
/home/dangcaominh/STM32MP1/optee-os/optee-os/lib/libutee/tee_api.c:267
    11f6:	f044 0401 	orr.w	r4, r4, #1
/home/dangcaominh/STM32MP1/optee-os/optee-os/lib/libutee/tee_api.c:271
    11fa:	ea30 0404 	bics.w	r4, r0, r4
    11fe:	d107      	bne.n	1210 <check_mem_access_rights_params+0x5c>
/home/dangcaominh/STM32MP1/optee-os/optee-os/lib/libutee/tee_api.c:258 (discriminator 1)
    1200:	3504      	adds	r5, #4
    1202:	3608      	adds	r6, #8
    1204:	2d10      	cmp	r5, #16
    1206:	d1e1      	bne.n	11cc <check_mem_access_rights_params+0x18>
/home/dangcaominh/STM32MP1/optee-os/optee-os/lib/libutee/tee_api.c:280
    1208:	2000      	movs	r0, #0
/home/dangcaominh/STM32MP1/optee-os/optee-os/lib/libutee/tee_api.c:281
    120a:	bdf0      	pop	{r4, r5, r6, r7, pc}
/home/dangcaominh/STM32MP1/optee-os/optee-os/lib/libutee/tee_api.c:259
    120c:	2404      	movs	r4, #4
    120e:	e7e7      	b.n	11e0 <check_mem_access_rights_params+0x2c>
/home/dangcaominh/STM32MP1/optee-os/optee-os/lib/libutee/tee_api.c:272
    1210:	4800      	ldr	r0, [pc, #0]	@ (1214 <check_mem_access_rights_params+0x60>)
    1212:	e7fa      	b.n	120a <check_mem_access_rights_params+0x56>
    1214:	ffff0001 	.word	0xffff0001
    1218:	00008eca 	.word	0x00008eca
    121c:	0000003c 	.word	0x0000003c
    1220:	0000004c 	.word	0x0000004c

00001224 <buf_overlaps_no_share_heap>:
buf_overlaps_no_share_heap():
/home/dangcaominh/STM32MP1/optee-os/optee-os/lib/libutee/tee_api.c:284
    1224:	460a      	mov	r2, r1
    1226:	4907      	ldr	r1, [pc, #28]	@ (1244 <buf_overlaps_no_share_heap+0x20>)
    1228:	b508      	push	{r3, lr}
    122a:	4603      	mov	r3, r0
    122c:	4479      	add	r1, pc
/home/dangcaominh/STM32MP1/optee-os/optee-os/lib/libutee/tee_api.c:285
    122e:	4806      	ldr	r0, [pc, #24]	@ (1248 <buf_overlaps_no_share_heap+0x24>)
    1230:	5809      	ldr	r1, [r1, r0]
    1232:	6808      	ldr	r0, [r1, #0]
/home/dangcaominh/STM32MP1/optee-os/optee-os/lib/libutee/tee_api.c:287
    1234:	b110      	cbz	r0, 123c <buf_overlaps_no_share_heap+0x18>
/home/dangcaominh/STM32MP1/optee-os/optee-os/lib/libutee/tee_api.c:287 (discriminator 1)
    1236:	4619      	mov	r1, r3
    1238:	f007 fb40 	bl	88bc <raw_malloc_buffer_overlaps_heap>
/home/dangcaominh/STM32MP1/optee-os/optee-os/lib/libutee/tee_api.c:288
    123c:	f000 0001 	and.w	r0, r0, #1
    1240:	bd08      	pop	{r3, pc}
    1242:	bf00      	nop
    1244:	00008e58 	.word	0x00008e58
    1248:	00000044 	.word	0x00000044

0000124c <check_invoke_param>:
check_invoke_param():
/home/dangcaominh/STM32MP1/optee-os/optee-os/lib/libutee/tee_api.c:291
    124c:	e92d 43f8 	stmdb	sp!, {r3, r4, r5, r6, r7, r8, r9, lr}
    1250:	4606      	mov	r6, r0
    1252:	460d      	mov	r5, r1
    1254:	2400      	movs	r4, #0
/home/dangcaominh/STM32MP1/optee-os/optee-os/lib/libutee/tee_api.c:297
    1256:	f101 0804 	add.w	r8, r1, #4
/home/dangcaominh/STM32MP1/optee-os/optee-os/lib/libutee/tee_api.c:299
    125a:	fa26 f304 	lsr.w	r3, r6, r4
    125e:	f003 030f 	and.w	r3, r3, #15
    1262:	2b05      	cmp	r3, #5
    1264:	d01e      	beq.n	12a4 <check_invoke_param+0x58>
    1266:	3b06      	subs	r3, #6
    1268:	2b01      	cmp	r3, #1
    126a:	d816      	bhi.n	129a <check_invoke_param+0x4e>
    126c:	2006      	movs	r0, #6
/home/dangcaominh/STM32MP1/optee-os/optee-os/lib/libutee/tee_api.c:296
    126e:	f855 7014 	ldr.w	r7, [r5, r4, lsl #1]
/home/dangcaominh/STM32MP1/optee-os/optee-os/lib/libutee/tee_api.c:306
    1272:	f040 0001 	orr.w	r0, r0, #1
/home/dangcaominh/STM32MP1/optee-os/optee-os/lib/libutee/tee_api.c:297
    1276:	f858 9014 	ldr.w	r9, [r8, r4, lsl #1]
/home/dangcaominh/STM32MP1/optee-os/optee-os/lib/libutee/tee_api.c:306
    127a:	4639      	mov	r1, r7
    127c:	464a      	mov	r2, r9
    127e:	f7ff ff99 	bl	11b4 <check_mem_access_rights_params>
/home/dangcaominh/STM32MP1/optee-os/optee-os/lib/libutee/tee_api.c:306 (discriminator 1)
    1282:	b110      	cbz	r0, 128a <check_invoke_param+0x3e>
/home/dangcaominh/STM32MP1/optee-os/optee-os/lib/libutee/tee_api.c:307
    1284:	2000      	movs	r0, #0
    1286:	f000 fcb7 	bl	1bf8 <TEE_Panic>
/home/dangcaominh/STM32MP1/optee-os/optee-os/lib/libutee/tee_api.c:308
    128a:	4649      	mov	r1, r9
    128c:	4638      	mov	r0, r7
    128e:	f7ff ffc9 	bl	1224 <buf_overlaps_no_share_heap>
/home/dangcaominh/STM32MP1/optee-os/optee-os/lib/libutee/tee_api.c:308 (discriminator 1)
    1292:	b110      	cbz	r0, 129a <check_invoke_param+0x4e>
/home/dangcaominh/STM32MP1/optee-os/optee-os/lib/libutee/tee_api.c:309
    1294:	2000      	movs	r0, #0
    1296:	f000 fcaf 	bl	1bf8 <TEE_Panic>
/home/dangcaominh/STM32MP1/optee-os/optee-os/lib/libutee/tee_api.c:294 (discriminator 1)
    129a:	3404      	adds	r4, #4
    129c:	2c10      	cmp	r4, #16
    129e:	d1dc      	bne.n	125a <check_invoke_param+0xe>
/home/dangcaominh/STM32MP1/optee-os/optee-os/lib/libutee/tee_api.c:315
    12a0:	e8bd 83f8 	ldmia.w	sp!, {r3, r4, r5, r6, r7, r8, r9, pc}
/home/dangcaominh/STM32MP1/optee-os/optee-os/lib/libutee/tee_api.c:295
    12a4:	2004      	movs	r0, #4
    12a6:	e7e2      	b.n	126e <check_invoke_param+0x22>

000012a8 <update_out_param>:
update_out_param():
/home/dangcaominh/STM32MP1/optee-os/optee-os/lib/libutee/tee_api.c:180
    12a8:	e92d 47f0 	stmdb	sp!, {r4, r5, r6, r7, r8, r9, sl, lr}
    12ac:	4607      	mov	r7, r0
/home/dangcaominh/STM32MP1/optee-os/optee-os/lib/libutee/tee_api.c:182
    12ae:	f8d2 a000 	ldr.w	sl, [r2]
/home/dangcaominh/STM32MP1/optee-os/optee-os/lib/libutee/tee_api.c:180
    12b2:	4688      	mov	r8, r1
    12b4:	4614      	mov	r4, r2
    12b6:	4606      	mov	r6, r0
/home/dangcaominh/STM32MP1/optee-os/optee-os/lib/libutee/tee_api.c:182
    12b8:	2500      	movs	r5, #0
/home/dangcaominh/STM32MP1/optee-os/optee-os/lib/libutee/tee_api.c:188
    12ba:	fa2a f305 	lsr.w	r3, sl, r5
/home/dangcaominh/STM32MP1/optee-os/optee-os/lib/libutee/tee_api.c:185
    12be:	68a2      	ldr	r2, [r4, #8]
/home/dangcaominh/STM32MP1/optee-os/optee-os/lib/libutee/tee_api.c:188
    12c0:	f013 0f0c 	tst.w	r3, #12
/home/dangcaominh/STM32MP1/optee-os/optee-os/lib/libutee/tee_api.c:186
    12c4:	f8d4 9010 	ldr.w	r9, [r4, #16]
/home/dangcaominh/STM32MP1/optee-os/optee-os/lib/libutee/tee_api.c:188
    12c8:	d10a      	bne.n	12e0 <update_out_param+0x38>
    12ca:	f013 0f0e 	tst.w	r3, #14
    12ce:	d118      	bne.n	1302 <update_out_param+0x5a>
/home/dangcaominh/STM32MP1/optee-os/optee-os/lib/libutee/tee_api.c:184 (discriminator 1)
    12d0:	3504      	adds	r5, #4
    12d2:	3410      	adds	r4, #16
    12d4:	2d10      	cmp	r5, #16
    12d6:	f106 0608 	add.w	r6, r6, #8
    12da:	d1ee      	bne.n	12ba <update_out_param+0x12>
/home/dangcaominh/STM32MP1/optee-os/optee-os/lib/libutee/tee_api.c:205
    12dc:	e8bd 87f0 	ldmia.w	sp!, {r4, r5, r6, r7, r8, r9, sl, pc}
/home/dangcaominh/STM32MP1/optee-os/optee-os/lib/libutee/tee_api.c:188
    12e0:	f003 030f 	and.w	r3, r3, #15
    12e4:	3b06      	subs	r3, #6
    12e6:	2b01      	cmp	r3, #1
    12e8:	d8f2      	bhi.n	12d0 <update_out_param+0x28>
/home/dangcaominh/STM32MP1/optee-os/optee-os/lib/libutee/tee_api.c:196
    12ea:	f858 1005 	ldr.w	r1, [r8, r5]
    12ee:	b151      	cbz	r1, 1306 <update_out_param+0x5e>
/home/dangcaominh/STM32MP1/optee-os/optee-os/lib/libutee/tee_api.c:198
    12f0:	6872      	ldr	r2, [r6, #4]
/home/dangcaominh/STM32MP1/optee-os/optee-os/lib/libutee/tee_api.c:197
    12f2:	f857 0015 	ldr.w	r0, [r7, r5, lsl #1]
    12f6:	454a      	cmp	r2, r9
    12f8:	bf28      	it	cs
    12fa:	464a      	movcs	r2, r9
    12fc:	f007 fbc0 	bl	8a80 <memcpy>
    1300:	e001      	b.n	1306 <update_out_param+0x5e>
/home/dangcaominh/STM32MP1/optee-os/optee-os/lib/libutee/tee_api.c:185
    1302:	f847 2015 	str.w	r2, [r7, r5, lsl #1]
/home/dangcaominh/STM32MP1/optee-os/optee-os/lib/libutee/tee_api.c:199
    1306:	f8c6 9004 	str.w	r9, [r6, #4]
/home/dangcaominh/STM32MP1/optee-os/optee-os/lib/libutee/tee_api.c:200
    130a:	e7e1      	b.n	12d0 <update_out_param+0x28>

0000130c <update_out_gp11_param>:
update_out_gp11_param():
/home/dangcaominh/STM32MP1/optee-os/optee-os/lib/libutee/tee_api.c:210
    130c:	e92d 47f0 	stmdb	sp!, {r4, r5, r6, r7, r8, r9, sl, lr}
    1310:	4607      	mov	r7, r0
/home/dangcaominh/STM32MP1/optee-os/optee-os/lib/libutee/tee_api.c:212
    1312:	f8d2 a000 	ldr.w	sl, [r2]
/home/dangcaominh/STM32MP1/optee-os/optee-os/lib/libutee/tee_api.c:210
    1316:	4688      	mov	r8, r1
    1318:	4614      	mov	r4, r2
    131a:	4606      	mov	r6, r0
/home/dangcaominh/STM32MP1/optee-os/optee-os/lib/libutee/tee_api.c:212
    131c:	2500      	movs	r5, #0
/home/dangcaominh/STM32MP1/optee-os/optee-os/lib/libutee/tee_api.c:218
    131e:	fa2a f305 	lsr.w	r3, sl, r5
/home/dangcaominh/STM32MP1/optee-os/optee-os/lib/libutee/tee_api.c:215
    1322:	68a2      	ldr	r2, [r4, #8]
/home/dangcaominh/STM32MP1/optee-os/optee-os/lib/libutee/tee_api.c:218
    1324:	f013 0f0c 	tst.w	r3, #12
/home/dangcaominh/STM32MP1/optee-os/optee-os/lib/libutee/tee_api.c:216
    1328:	f8d4 9010 	ldr.w	r9, [r4, #16]
/home/dangcaominh/STM32MP1/optee-os/optee-os/lib/libutee/tee_api.c:218
    132c:	d10a      	bne.n	1344 <update_out_gp11_param+0x38>
    132e:	f013 0f0e 	tst.w	r3, #14
    1332:	d118      	bne.n	1366 <update_out_gp11_param+0x5a>
/home/dangcaominh/STM32MP1/optee-os/optee-os/lib/libutee/tee_api.c:214 (discriminator 1)
    1334:	3504      	adds	r5, #4
    1336:	3410      	adds	r4, #16
    1338:	2d10      	cmp	r5, #16
    133a:	f106 0608 	add.w	r6, r6, #8
    133e:	d1ee      	bne.n	131e <update_out_gp11_param+0x12>
/home/dangcaominh/STM32MP1/optee-os/optee-os/lib/libutee/tee_api.c:235
    1340:	e8bd 87f0 	ldmia.w	sp!, {r4, r5, r6, r7, r8, r9, sl, pc}
/home/dangcaominh/STM32MP1/optee-os/optee-os/lib/libutee/tee_api.c:218
    1344:	f003 030f 	and.w	r3, r3, #15
    1348:	3b06      	subs	r3, #6
    134a:	2b01      	cmp	r3, #1
    134c:	d8f2      	bhi.n	1334 <update_out_gp11_param+0x28>
/home/dangcaominh/STM32MP1/optee-os/optee-os/lib/libutee/tee_api.c:226
    134e:	f858 1005 	ldr.w	r1, [r8, r5]
    1352:	b151      	cbz	r1, 136a <update_out_gp11_param+0x5e>
/home/dangcaominh/STM32MP1/optee-os/optee-os/lib/libutee/tee_api.c:228
    1354:	6872      	ldr	r2, [r6, #4]
/home/dangcaominh/STM32MP1/optee-os/optee-os/lib/libutee/tee_api.c:227
    1356:	f857 0015 	ldr.w	r0, [r7, r5, lsl #1]
    135a:	454a      	cmp	r2, r9
    135c:	bf28      	it	cs
    135e:	464a      	movcs	r2, r9
    1360:	f007 fb8e 	bl	8a80 <memcpy>
    1364:	e001      	b.n	136a <update_out_gp11_param+0x5e>
/home/dangcaominh/STM32MP1/optee-os/optee-os/lib/libutee/tee_api.c:215
    1366:	f847 2015 	str.w	r2, [r7, r5, lsl #1]
/home/dangcaominh/STM32MP1/optee-os/optee-os/lib/libutee/tee_api.c:229
    136a:	f8c6 9004 	str.w	r9, [r6, #4]
/home/dangcaominh/STM32MP1/optee-os/optee-os/lib/libutee/tee_api.c:230
    136e:	e7e1      	b.n	1334 <update_out_gp11_param+0x28>

00001370 <TEE_CloseTASession>:
TEE_CloseTASession():
/home/dangcaominh/STM32MP1/optee-os/optee-os/lib/libutee/tee_api.c:414
    1370:	b508      	push	{r3, lr}
/home/dangcaominh/STM32MP1/optee-os/optee-os/lib/libutee/tee_api.c:415
    1372:	b130      	cbz	r0, 1382 <TEE_CloseTASession+0x12>
/home/dangcaominh/STM32MP1/optee-os/optee-os/lib/libutee/tee_api.c:416
    1374:	f001 edc6 	blx	2f04 <_utee_close_ta_session>
/home/dangcaominh/STM32MP1/optee-os/optee-os/lib/libutee/tee_api.c:418
    1378:	b118      	cbz	r0, 1382 <TEE_CloseTASession+0x12>
/home/dangcaominh/STM32MP1/optee-os/optee-os/lib/libutee/tee_api.c:421
    137a:	e8bd 4008 	ldmia.w	sp!, {r3, lr}
/home/dangcaominh/STM32MP1/optee-os/optee-os/lib/libutee/tee_api.c:419
    137e:	f000 bc3b 	b.w	1bf8 <TEE_Panic>
/home/dangcaominh/STM32MP1/optee-os/optee-os/lib/libutee/tee_api.c:421
    1382:	bd08      	pop	{r3, pc}

00001384 <TEE_GetCancellationFlag>:
TEE_GetCancellationFlag():
/home/dangcaominh/STM32MP1/optee-os/optee-os/lib/libutee/tee_api.c:530
    1384:	b507      	push	{r0, r1, r2, lr}
/home/dangcaominh/STM32MP1/optee-os/optee-os/lib/libutee/tee_api.c:532
    1386:	4668      	mov	r0, sp
/home/dangcaominh/STM32MP1/optee-os/optee-os/lib/libutee/tee_api.c:530
    1388:	4a0f      	ldr	r2, [pc, #60]	@ (13c8 <TEE_GetCancellationFlag+0x44>)
    138a:	4b10      	ldr	r3, [pc, #64]	@ (13cc <TEE_GetCancellationFlag+0x48>)
    138c:	447a      	add	r2, pc
    138e:	58d3      	ldr	r3, [r2, r3]
    1390:	681b      	ldr	r3, [r3, #0]
    1392:	9301      	str	r3, [sp, #4]
    1394:	f04f 0300 	mov.w	r3, #0
/home/dangcaominh/STM32MP1/optee-os/optee-os/lib/libutee/tee_api.c:532
    1398:	f001 edca 	blx	2f30 <_utee_get_cancellation_flag>
/home/dangcaominh/STM32MP1/optee-os/optee-os/lib/libutee/tee_api.c:534
    139c:	b108      	cbz	r0, 13a2 <TEE_GetCancellationFlag+0x1e>
/home/dangcaominh/STM32MP1/optee-os/optee-os/lib/libutee/tee_api.c:535
    139e:	2300      	movs	r3, #0
    13a0:	9300      	str	r3, [sp, #0]
/home/dangcaominh/STM32MP1/optee-os/optee-os/lib/libutee/tee_api.c:530
    13a2:	4a0b      	ldr	r2, [pc, #44]	@ (13d0 <TEE_GetCancellationFlag+0x4c>)
/home/dangcaominh/STM32MP1/optee-os/optee-os/lib/libutee/tee_api.c:537
    13a4:	4b09      	ldr	r3, [pc, #36]	@ (13cc <TEE_GetCancellationFlag+0x48>)
/home/dangcaominh/STM32MP1/optee-os/optee-os/lib/libutee/tee_api.c:530
    13a6:	447a      	add	r2, pc
/home/dangcaominh/STM32MP1/optee-os/optee-os/lib/libutee/tee_api.c:536
    13a8:	9800      	ldr	r0, [sp, #0]
/home/dangcaominh/STM32MP1/optee-os/optee-os/lib/libutee/tee_api.c:537
    13aa:	58d3      	ldr	r3, [r2, r3]
/home/dangcaominh/STM32MP1/optee-os/optee-os/lib/libutee/tee_api.c:536
    13ac:	3800      	subs	r0, #0
    13ae:	bf18      	it	ne
    13b0:	2001      	movne	r0, #1
/home/dangcaominh/STM32MP1/optee-os/optee-os/lib/libutee/tee_api.c:537
    13b2:	681a      	ldr	r2, [r3, #0]
    13b4:	9b01      	ldr	r3, [sp, #4]
    13b6:	405a      	eors	r2, r3
    13b8:	f04f 0300 	mov.w	r3, #0
    13bc:	d001      	beq.n	13c2 <TEE_GetCancellationFlag+0x3e>
    13be:	f7fe fff5 	bl	3ac <__stack_chk_fail>
    13c2:	b003      	add	sp, #12
    13c4:	f85d fb04 	ldr.w	pc, [sp], #4
    13c8:	00008cf8 	.word	0x00008cf8
    13cc:	0000000c 	.word	0x0000000c
    13d0:	00008cde 	.word	0x00008cde

000013d4 <TEE_UnmaskCancellation>:
TEE_UnmaskCancellation():
/home/dangcaominh/STM32MP1/optee-os/optee-os/lib/libutee/tee_api.c:540
    13d4:	b507      	push	{r0, r1, r2, lr}
/home/dangcaominh/STM32MP1/optee-os/optee-os/lib/libutee/tee_api.c:542
    13d6:	4668      	mov	r0, sp
/home/dangcaominh/STM32MP1/optee-os/optee-os/lib/libutee/tee_api.c:540
    13d8:	4a0f      	ldr	r2, [pc, #60]	@ (1418 <TEE_UnmaskCancellation+0x44>)
    13da:	4b10      	ldr	r3, [pc, #64]	@ (141c <TEE_UnmaskCancellation+0x48>)
    13dc:	447a      	add	r2, pc
    13de:	58d3      	ldr	r3, [r2, r3]
    13e0:	681b      	ldr	r3, [r3, #0]
    13e2:	9301      	str	r3, [sp, #4]
    13e4:	f04f 0300 	mov.w	r3, #0
/home/dangcaominh/STM32MP1/optee-os/optee-os/lib/libutee/tee_api.c:542
    13e8:	f001 edb6 	blx	2f58 <_utee_unmask_cancellation>
/home/dangcaominh/STM32MP1/optee-os/optee-os/lib/libutee/tee_api.c:544
    13ec:	b108      	cbz	r0, 13f2 <TEE_UnmaskCancellation+0x1e>
/home/dangcaominh/STM32MP1/optee-os/optee-os/lib/libutee/tee_api.c:545
    13ee:	f000 fc03 	bl	1bf8 <TEE_Panic>
/home/dangcaominh/STM32MP1/optee-os/optee-os/lib/libutee/tee_api.c:540
    13f2:	4a0b      	ldr	r2, [pc, #44]	@ (1420 <TEE_UnmaskCancellation+0x4c>)
/home/dangcaominh/STM32MP1/optee-os/optee-os/lib/libutee/tee_api.c:547
    13f4:	4b09      	ldr	r3, [pc, #36]	@ (141c <TEE_UnmaskCancellation+0x48>)
/home/dangcaominh/STM32MP1/optee-os/optee-os/lib/libutee/tee_api.c:540
    13f6:	447a      	add	r2, pc
/home/dangcaominh/STM32MP1/optee-os/optee-os/lib/libutee/tee_api.c:546
    13f8:	9800      	ldr	r0, [sp, #0]
/home/dangcaominh/STM32MP1/optee-os/optee-os/lib/libutee/tee_api.c:547
    13fa:	58d3      	ldr	r3, [r2, r3]
/home/dangcaominh/STM32MP1/optee-os/optee-os/lib/libutee/tee_api.c:546
    13fc:	3800      	subs	r0, #0
    13fe:	bf18      	it	ne
    1400:	2001      	movne	r0, #1
/home/dangcaominh/STM32MP1/optee-os/optee-os/lib/libutee/tee_api.c:547
    1402:	681a      	ldr	r2, [r3, #0]
    1404:	9b01      	ldr	r3, [sp, #4]
    1406:	405a      	eors	r2, r3
    1408:	f04f 0300 	mov.w	r3, #0
    140c:	d001      	beq.n	1412 <TEE_UnmaskCancellation+0x3e>
    140e:	f7fe ffcd 	bl	3ac <__stack_chk_fail>
    1412:	b003      	add	sp, #12
    1414:	f85d fb04 	ldr.w	pc, [sp], #4
    1418:	00008ca8 	.word	0x00008ca8
    141c:	0000000c 	.word	0x0000000c
    1420:	00008c8e 	.word	0x00008c8e

00001424 <TEE_MaskCancellation>:
TEE_MaskCancellation():
/home/dangcaominh/STM32MP1/optee-os/optee-os/lib/libutee/tee_api.c:550
    1424:	b507      	push	{r0, r1, r2, lr}
/home/dangcaominh/STM32MP1/optee-os/optee-os/lib/libutee/tee_api.c:552
    1426:	4668      	mov	r0, sp
/home/dangcaominh/STM32MP1/optee-os/optee-os/lib/libutee/tee_api.c:550
    1428:	4a0f      	ldr	r2, [pc, #60]	@ (1468 <TEE_MaskCancellation+0x44>)
    142a:	4b10      	ldr	r3, [pc, #64]	@ (146c <TEE_MaskCancellation+0x48>)
    142c:	447a      	add	r2, pc
    142e:	58d3      	ldr	r3, [r2, r3]
    1430:	681b      	ldr	r3, [r3, #0]
    1432:	9301      	str	r3, [sp, #4]
    1434:	f04f 0300 	mov.w	r3, #0
/home/dangcaominh/STM32MP1/optee-os/optee-os/lib/libutee/tee_api.c:552
    1438:	f001 ed98 	blx	2f6c <_utee_mask_cancellation>
/home/dangcaominh/STM32MP1/optee-os/optee-os/lib/libutee/tee_api.c:554
    143c:	b108      	cbz	r0, 1442 <TEE_MaskCancellation+0x1e>
/home/dangcaominh/STM32MP1/optee-os/optee-os/lib/libutee/tee_api.c:555
    143e:	f000 fbdb 	bl	1bf8 <TEE_Panic>
/home/dangcaominh/STM32MP1/optee-os/optee-os/lib/libutee/tee_api.c:550
    1442:	4a0b      	ldr	r2, [pc, #44]	@ (1470 <TEE_MaskCancellation+0x4c>)
/home/dangcaominh/STM32MP1/optee-os/optee-os/lib/libutee/tee_api.c:557
    1444:	4b09      	ldr	r3, [pc, #36]	@ (146c <TEE_MaskCancellation+0x48>)
/home/dangcaominh/STM32MP1/optee-os/optee-os/lib/libutee/tee_api.c:550
    1446:	447a      	add	r2, pc
/home/dangcaominh/STM32MP1/optee-os/optee-os/lib/libutee/tee_api.c:556
    1448:	9800      	ldr	r0, [sp, #0]
/home/dangcaominh/STM32MP1/optee-os/optee-os/lib/libutee/tee_api.c:557
    144a:	58d3      	ldr	r3, [r2, r3]
/home/dangcaominh/STM32MP1/optee-os/optee-os/lib/libutee/tee_api.c:556
    144c:	3800      	subs	r0, #0
    144e:	bf18      	it	ne
    1450:	2001      	movne	r0, #1
/home/dangcaominh/STM32MP1/optee-os/optee-os/lib/libutee/tee_api.c:557
    1452:	681a      	ldr	r2, [r3, #0]
    1454:	9b01      	ldr	r3, [sp, #4]
    1456:	405a      	eors	r2, r3
    1458:	f04f 0300 	mov.w	r3, #0
    145c:	d001      	beq.n	1462 <TEE_MaskCancellation+0x3e>
    145e:	f7fe ffa5 	bl	3ac <__stack_chk_fail>
    1462:	b003      	add	sp, #12
    1464:	f85d fb04 	ldr.w	pc, [sp], #4
    1468:	00008c58 	.word	0x00008c58
    146c:	0000000c 	.word	0x0000000c
    1470:	00008c3e 	.word	0x00008c3e

00001474 <TEE_CheckMemoryAccessRights>:
TEE_CheckMemoryAccessRights():
/home/dangcaominh/STM32MP1/optee-os/optee-os/lib/libutee/tee_api.c:563
    1474:	b570      	push	{r4, r5, r6, lr}
    1476:	4606      	mov	r6, r0
    1478:	460d      	mov	r5, r1
/home/dangcaominh/STM32MP1/optee-os/optee-os/lib/libutee/tee_api.c:566
    147a:	4614      	mov	r4, r2
    147c:	b90a      	cbnz	r2, 1482 <TEE_CheckMemoryAccessRights+0xe>
/home/dangcaominh/STM32MP1/optee-os/optee-os/lib/libutee/tee_api.c:567
    147e:	2000      	movs	r0, #0
/home/dangcaominh/STM32MP1/optee-os/optee-os/lib/libutee/tee_api.c:592
    1480:	bd70      	pop	{r4, r5, r6, pc}
/home/dangcaominh/STM32MP1/optee-os/optee-os/lib/libutee/tee_api.c:573
    1482:	f001 ed60 	blx	2f44 <_utee_check_access_rights>
/home/dangcaominh/STM32MP1/optee-os/optee-os/lib/libutee/tee_api.c:573 (discriminator 1)
    1486:	b108      	cbz	r0, 148c <TEE_CheckMemoryAccessRights+0x18>
/home/dangcaominh/STM32MP1/optee-os/optee-os/lib/libutee/tee_api.c:574
    1488:	480b      	ldr	r0, [pc, #44]	@ (14b8 <TEE_CheckMemoryAccessRights+0x44>)
    148a:	e7f9      	b.n	1480 <TEE_CheckMemoryAccessRights+0xc>
/home/dangcaominh/STM32MP1/optee-os/optee-os/lib/libutee/tee_api.c:584
    148c:	4622      	mov	r2, r4
    148e:	4629      	mov	r1, r5
    1490:	f006 0007 	and.w	r0, r6, #7
    1494:	f7ff fe8e 	bl	11b4 <check_mem_access_rights_params>
/home/dangcaominh/STM32MP1/optee-os/optee-os/lib/libutee/tee_api.c:584 (discriminator 1)
    1498:	2800      	cmp	r0, #0
    149a:	d1f5      	bne.n	1488 <TEE_CheckMemoryAccessRights+0x14>
/home/dangcaominh/STM32MP1/optee-os/optee-os/lib/libutee/tee_api.c:587
    149c:	4621      	mov	r1, r4
    149e:	4628      	mov	r0, r5
    14a0:	f007 fab4 	bl	8a0c <malloc_buffer_overlaps_heap>
/home/dangcaominh/STM32MP1/optee-os/optee-os/lib/libutee/tee_api.c:587 (discriminator 1)
    14a4:	2800      	cmp	r0, #0
    14a6:	d0ea      	beq.n	147e <TEE_CheckMemoryAccessRights+0xa>
/home/dangcaominh/STM32MP1/optee-os/optee-os/lib/libutee/tee_api.c:588
    14a8:	4621      	mov	r1, r4
    14aa:	4628      	mov	r0, r5
    14ac:	f007 faa6 	bl	89fc <malloc_buffer_is_within_alloced>
/home/dangcaominh/STM32MP1/optee-os/optee-os/lib/libutee/tee_api.c:587 (discriminator 1)
    14b0:	2800      	cmp	r0, #0
    14b2:	d1e4      	bne.n	147e <TEE_CheckMemoryAccessRights+0xa>
    14b4:	e7e8      	b.n	1488 <TEE_CheckMemoryAccessRights+0x14>
    14b6:	bf00      	nop
    14b8:	ffff0001 	.word	0xffff0001

000014bc <map_tmp_param>:
map_tmp_param():
/home/dangcaominh/STM32MP1/optee-os/optee-os/lib/libutee/tee_api.c:98
    14bc:	e92d 4ff0 	stmdb	sp!, {r4, r5, r6, r7, r8, r9, sl, fp, lr}
    14c0:	4691      	mov	r9, r2
    14c2:	4a3f      	ldr	r2, [pc, #252]	@ (15c0 <map_tmp_param+0x104>)
    14c4:	4698      	mov	r8, r3
    14c6:	4b3f      	ldr	r3, [pc, #252]	@ (15c4 <map_tmp_param+0x108>)
    14c8:	b085      	sub	sp, #20
    14ca:	447a      	add	r2, pc
/home/dangcaominh/STM32MP1/optee-os/optee-os/lib/libutee/tee_api.c:103
    14cc:	2400      	movs	r4, #0
/home/dangcaominh/STM32MP1/optee-os/optee-os/lib/libutee/tee_api.c:98
    14ce:	4607      	mov	r7, r0
    14d0:	468a      	mov	sl, r1
    14d2:	58d3      	ldr	r3, [r2, r3]
    14d4:	4606      	mov	r6, r0
/home/dangcaominh/STM32MP1/optee-os/optee-os/lib/libutee/tee_api.c:115
    14d6:	4683      	mov	fp, r0
/home/dangcaominh/STM32MP1/optee-os/optee-os/lib/libutee/tee_api.c:116
    14d8:	4625      	mov	r5, r4
/home/dangcaominh/STM32MP1/optee-os/optee-os/lib/libutee/tee_api.c:98
    14da:	681b      	ldr	r3, [r3, #0]
    14dc:	9303      	str	r3, [sp, #12]
    14de:	f04f 0300 	mov.w	r3, #0
/home/dangcaominh/STM32MP1/optee-os/optee-os/lib/libutee/tee_api.c:117
    14e2:	4623      	mov	r3, r4
/home/dangcaominh/STM32MP1/optee-os/optee-os/lib/libutee/tee_api.c:114
    14e4:	600c      	str	r4, [r1, #0]
/home/dangcaominh/STM32MP1/optee-os/optee-os/lib/libutee/tee_api.c:103
    14e6:	9402      	str	r4, [sp, #8]
/home/dangcaominh/STM32MP1/optee-os/optee-os/lib/libutee/tee_api.c:115
    14e8:	f8c9 4000 	str.w	r4, [r9]
/home/dangcaominh/STM32MP1/optee-os/optee-os/lib/libutee/tee_api.c:118
    14ec:	00a9      	lsls	r1, r5, #2
    14ee:	683a      	ldr	r2, [r7, #0]
/home/dangcaominh/STM32MP1/optee-os/optee-os/lib/libutee/tee_api.c:117
    14f0:	f848 3025 	str.w	r3, [r8, r5, lsl #2]
/home/dangcaominh/STM32MP1/optee-os/optee-os/lib/libutee/tee_api.c:118
    14f4:	40ca      	lsrs	r2, r1
    14f6:	f002 020f 	and.w	r2, r2, #15
    14fa:	3a05      	subs	r2, #5
    14fc:	2a02      	cmp	r2, #2
    14fe:	d813      	bhi.n	1528 <map_tmp_param+0x6c>
/home/dangcaominh/STM32MP1/optee-os/optee-os/lib/libutee/tee_api.c:122
    1500:	f8db 1008 	ldr.w	r1, [fp, #8]
/home/dangcaominh/STM32MP1/optee-os/optee-os/lib/libutee/tee_api.c:133
    1504:	b181      	cbz	r1, 1528 <map_tmp_param+0x6c>
/home/dangcaominh/STM32MP1/optee-os/optee-os/lib/libutee/tee_api.c:123
    1506:	f8db 2010 	ldr.w	r2, [fp, #16]
/home/dangcaominh/STM32MP1/optee-os/optee-os/lib/libutee/tee_api.c:133 (discriminator 1)
    150a:	b16a      	cbz	r2, 1528 <map_tmp_param+0x6c>
/home/dangcaominh/STM32MP1/optee-os/optee-os/lib/libutee/tee_api.c:134
    150c:	9201      	str	r2, [sp, #4]
    150e:	2001      	movs	r0, #1
    1510:	f7ff ffb0 	bl	1474 <TEE_CheckMemoryAccessRights>
/home/dangcaominh/STM32MP1/optee-os/optee-os/lib/libutee/tee_api.c:133 (discriminator 2)
    1514:	2300      	movs	r3, #0
    1516:	b938      	cbnz	r0, 1528 <map_tmp_param+0x6c>
/home/dangcaominh/STM32MP1/optee-os/optee-os/lib/libutee/tee_api.c:136
    1518:	9a01      	ldr	r2, [sp, #4]
/home/dangcaominh/STM32MP1/optee-os/optee-os/lib/libutee/tee_api.c:135
    151a:	a902      	add	r1, sp, #8
    151c:	2001      	movs	r0, #1
    151e:	5468      	strb	r0, [r5, r1]
/home/dangcaominh/STM32MP1/optee-os/optee-os/lib/libutee/tee_api.c:136
    1520:	3207      	adds	r2, #7
    1522:	f022 0207 	bic.w	r2, r2, #7
    1526:	4414      	add	r4, r2
/home/dangcaominh/STM32MP1/optee-os/optee-os/lib/libutee/tee_api.c:116 (discriminator 2)
    1528:	3501      	adds	r5, #1
/home/dangcaominh/STM32MP1/optee-os/optee-os/lib/libutee/tee_api.c:116 (discriminator 1)
    152a:	f10b 0b10 	add.w	fp, fp, #16
    152e:	2d04      	cmp	r5, #4
    1530:	d1dc      	bne.n	14ec <map_tmp_param+0x30>
/home/dangcaominh/STM32MP1/optee-os/optee-os/lib/libutee/tee_api.c:144
    1532:	b3bc      	cbz	r4, 15a4 <map_tmp_param+0xe8>
/home/dangcaominh/STM32MP1/optee-os/optee-os/lib/libutee/tee_api.c:145
    1534:	4629      	mov	r1, r5
    1536:	4620      	mov	r0, r4
    1538:	f001 f908 	bl	274c <tee_map_zi>
/home/dangcaominh/STM32MP1/optee-os/optee-os/lib/libutee/tee_api.c:146
    153c:	4605      	mov	r5, r0
    153e:	b3c0      	cbz	r0, 15b2 <map_tmp_param+0xf6>
/home/dangcaominh/STM32MP1/optee-os/optee-os/lib/libutee/tee_api.c:148
    1540:	f8ca 0000 	str.w	r0, [sl]
/home/dangcaominh/STM32MP1/optee-os/optee-os/lib/libutee/tee_api.c:149
    1544:	f8c9 4000 	str.w	r4, [r9]
/home/dangcaominh/STM32MP1/optee-os/optee-os/lib/libutee/tee_api.c:100
    1548:	2400      	movs	r4, #0
/home/dangcaominh/STM32MP1/optee-os/optee-os/lib/libutee/tee_api.c:157
    154a:	f10d 0a08 	add.w	sl, sp, #8
/home/dangcaominh/STM32MP1/optee-os/optee-os/lib/libutee/tee_api.c:163
    154e:	46a3      	mov	fp, r4
/home/dangcaominh/STM32MP1/optee-os/optee-os/lib/libutee/tee_api.c:153
    1550:	00a2      	lsls	r2, r4, #2
    1552:	683b      	ldr	r3, [r7, #0]
    1554:	40d3      	lsrs	r3, r2
    1556:	f003 030f 	and.w	r3, r3, #15
    155a:	1f5a      	subs	r2, r3, #5
    155c:	2a02      	cmp	r2, #2
    155e:	d810      	bhi.n	1582 <map_tmp_param+0xc6>
/home/dangcaominh/STM32MP1/optee-os/optee-os/lib/libutee/tee_api.c:157
    1560:	f814 200a 	ldrb.w	r2, [r4, sl]
    1564:	b16a      	cbz	r2, 1582 <map_tmp_param+0xc6>
/home/dangcaominh/STM32MP1/optee-os/optee-os/lib/libutee/tee_api.c:160
    1566:	68b1      	ldr	r1, [r6, #8]
/home/dangcaominh/STM32MP1/optee-os/optee-os/lib/libutee/tee_api.c:164
    1568:	2b06      	cmp	r3, #6
/home/dangcaominh/STM32MP1/optee-os/optee-os/lib/libutee/tee_api.c:159
    156a:	f8d6 9010 	ldr.w	r9, [r6, #16]
/home/dangcaominh/STM32MP1/optee-os/optee-os/lib/libutee/tee_api.c:161
    156e:	f848 5024 	str.w	r5, [r8, r4, lsl #2]
/home/dangcaominh/STM32MP1/optee-os/optee-os/lib/libutee/tee_api.c:163
    1572:	e9c6 5b02 	strd	r5, fp, [r6, #8]
/home/dangcaominh/STM32MP1/optee-os/optee-os/lib/libutee/tee_api.c:164
    1576:	d117      	bne.n	15a8 <map_tmp_param+0xec>
/home/dangcaominh/STM32MP1/optee-os/optee-os/lib/libutee/tee_api.c:162
    1578:	f109 0907 	add.w	r9, r9, #7
    157c:	f029 0907 	bic.w	r9, r9, #7
    1580:	444d      	add	r5, r9
/home/dangcaominh/STM32MP1/optee-os/optee-os/lib/libutee/tee_api.c:152 (discriminator 2)
    1582:	3401      	adds	r4, #1
/home/dangcaominh/STM32MP1/optee-os/optee-os/lib/libutee/tee_api.c:152 (discriminator 1)
    1584:	3610      	adds	r6, #16
    1586:	2c04      	cmp	r4, #4
    1588:	d1e2      	bne.n	1550 <map_tmp_param+0x94>
/home/dangcaominh/STM32MP1/optee-os/optee-os/lib/libutee/tee_api.c:173
    158a:	2000      	movs	r0, #0
/home/dangcaominh/STM32MP1/optee-os/optee-os/lib/libutee/tee_api.c:98
    158c:	4a0e      	ldr	r2, [pc, #56]	@ (15c8 <map_tmp_param+0x10c>)
/home/dangcaominh/STM32MP1/optee-os/optee-os/lib/libutee/tee_api.c:175
    158e:	4b0d      	ldr	r3, [pc, #52]	@ (15c4 <map_tmp_param+0x108>)
/home/dangcaominh/STM32MP1/optee-os/optee-os/lib/libutee/tee_api.c:98
    1590:	447a      	add	r2, pc
/home/dangcaominh/STM32MP1/optee-os/optee-os/lib/libutee/tee_api.c:175
    1592:	58d3      	ldr	r3, [r2, r3]
    1594:	681a      	ldr	r2, [r3, #0]
    1596:	9b03      	ldr	r3, [sp, #12]
    1598:	405a      	eors	r2, r3
    159a:	f04f 0300 	mov.w	r3, #0
    159e:	d00a      	beq.n	15b6 <map_tmp_param+0xfa>
    15a0:	f7fe ff04 	bl	3ac <__stack_chk_fail>
/home/dangcaominh/STM32MP1/optee-os/optee-os/lib/libutee/tee_api.c:100
    15a4:	4625      	mov	r5, r4
    15a6:	e7cf      	b.n	1548 <map_tmp_param+0x8c>
/home/dangcaominh/STM32MP1/optee-os/optee-os/lib/libutee/tee_api.c:166
    15a8:	464a      	mov	r2, r9
    15aa:	4628      	mov	r0, r5
    15ac:	f007 fa68 	bl	8a80 <memcpy>
    15b0:	e7e2      	b.n	1578 <map_tmp_param+0xbc>
/home/dangcaominh/STM32MP1/optee-os/optee-os/lib/libutee/tee_api.c:147
    15b2:	4802      	ldr	r0, [pc, #8]	@ (15bc <map_tmp_param+0x100>)
    15b4:	e7ea      	b.n	158c <map_tmp_param+0xd0>
/home/dangcaominh/STM32MP1/optee-os/optee-os/lib/libutee/tee_api.c:175
    15b6:	b005      	add	sp, #20
    15b8:	e8bd 8ff0 	ldmia.w	sp!, {r4, r5, r6, r7, r8, r9, sl, fp, pc}
    15bc:	ffff000c 	.word	0xffff000c
    15c0:	00008bba 	.word	0x00008bba
    15c4:	0000000c 	.word	0x0000000c
    15c8:	00008af4 	.word	0x00008af4

000015cc <TEE_OpenTASession>:
TEE_OpenTASession():
/home/dangcaominh/STM32MP1/optee-os/optee-os/lib/libutee/tee_api.c:323
    15cc:	e92d 4ff0 	stmdb	sp!, {r4, r5, r6, r7, r8, r9, sl, fp, lr}
    15d0:	4614      	mov	r4, r2
    15d2:	4a32      	ldr	r2, [pc, #200]	@ (169c <TEE_OpenTASession+0xd0>)
    15d4:	461d      	mov	r5, r3
    15d6:	4b32      	ldr	r3, [pc, #200]	@ (16a0 <TEE_OpenTASession+0xd4>)
    15d8:	b09f      	sub	sp, #124	@ 0x7c
    15da:	447a      	add	r2, pc
/home/dangcaominh/STM32MP1/optee-os/optee-os/lib/libutee/tee_api.c:325
    15dc:	ae0a      	add	r6, sp, #40	@ 0x28
/home/dangcaominh/STM32MP1/optee-os/optee-os/lib/libutee/tee_api.c:323
    15de:	4680      	mov	r8, r0
    15e0:	4689      	mov	r9, r1
    15e2:	58d3      	ldr	r3, [r2, r3]
/home/dangcaominh/STM32MP1/optee-os/optee-os/lib/libutee/tee_api.c:325
    15e4:	2100      	movs	r1, #0
    15e6:	4630      	mov	r0, r6
    15e8:	2248      	movs	r2, #72	@ 0x48
/home/dangcaominh/STM32MP1/optee-os/optee-os/lib/libutee/tee_api.c:323
    15ea:	681b      	ldr	r3, [r3, #0]
    15ec:	931d      	str	r3, [sp, #116]	@ 0x74
    15ee:	f04f 0300 	mov.w	r3, #0
/home/dangcaominh/STM32MP1/optee-os/optee-os/lib/libutee/tee_api.c:329
    15f2:	af06      	add	r7, sp, #24
/home/dangcaominh/STM32MP1/optee-os/optee-os/lib/libutee/tee_api.c:323
    15f4:	e9dd ab28 	ldrd	sl, fp, [sp, #160]	@ 0xa0
/home/dangcaominh/STM32MP1/optee-os/optee-os/lib/libutee/tee_api.c:325
    15f8:	f007 fb28 	bl	8c4c <memset>
/home/dangcaominh/STM32MP1/optee-os/optee-os/lib/libutee/tee_api.c:329
    15fc:	efc0 0010 	vmov.i32	d16, #0	@ 0x00000000
/home/dangcaominh/STM32MP1/optee-os/optee-os/lib/libutee/tee_api.c:326
    1600:	2300      	movs	r3, #0
    1602:	9303      	str	r3, [sp, #12]
/home/dangcaominh/STM32MP1/optee-os/optee-os/lib/libutee/tee_api.c:329
    1604:	edcd 0b06 	vstr	d16, [sp, #24]
    1608:	edc7 0b02 	vstr	d16, [r7, #8]
/home/dangcaominh/STM32MP1/optee-os/optee-os/lib/libutee/tee_api.c:328
    160c:	e9cd 3304 	strd	r3, r3, [sp, #16]
/home/dangcaominh/STM32MP1/optee-os/optee-os/lib/libutee/tee_api.c:331
    1610:	b13c      	cbz	r4, 1622 <TEE_OpenTASession+0x56>
/home/dangcaominh/STM32MP1/optee-os/optee-os/lib/libutee/tee_api.c:332
    1612:	2120      	movs	r1, #32
    1614:	4628      	mov	r0, r5
    1616:	f000 fb34 	bl	1c82 <__utee_check_inout_annotation>
/home/dangcaominh/STM32MP1/optee-os/optee-os/lib/libutee/tee_api.c:335
    161a:	4629      	mov	r1, r5
    161c:	4620      	mov	r0, r4
    161e:	f7ff fe15 	bl	124c <check_invoke_param>
/home/dangcaominh/STM32MP1/optee-os/optee-os/lib/libutee/tee_api.c:337
    1622:	2104      	movs	r1, #4
    1624:	4650      	mov	r0, sl
    1626:	f000 fb14 	bl	1c52 <__utee_check_out_annotation>
/home/dangcaominh/STM32MP1/optee-os/optee-os/lib/libutee/tee_api.c:339
    162a:	4621      	mov	r1, r4
    162c:	462a      	mov	r2, r5
    162e:	4630      	mov	r0, r6
    1630:	f7ff fd6e 	bl	1110 <copy_param>
/home/dangcaominh/STM32MP1/optee-os/optee-os/lib/libutee/tee_api.c:340
    1634:	463b      	mov	r3, r7
    1636:	aa05      	add	r2, sp, #20
    1638:	a904      	add	r1, sp, #16
    163a:	4630      	mov	r0, r6
    163c:	f7ff ff3e 	bl	14bc <map_tmp_param>
/home/dangcaominh/STM32MP1/optee-os/optee-os/lib/libutee/tee_api.c:341
    1640:	4604      	mov	r4, r0
    1642:	b9b0      	cbnz	r0, 1672 <TEE_OpenTASession+0xa6>
/home/dangcaominh/STM32MP1/optee-os/optee-os/lib/libutee/tee_api.c:343
    1644:	f8cd b000 	str.w	fp, [sp]
    1648:	ab03      	add	r3, sp, #12
    164a:	4632      	mov	r2, r6
    164c:	4649      	mov	r1, r9
    164e:	4640      	mov	r0, r8
    1650:	f001 ec4c 	blx	2eec <_utee_open_ta_session>
    1654:	4604      	mov	r4, r0
/home/dangcaominh/STM32MP1/optee-os/optee-os/lib/libutee/tee_api.c:345
    1656:	4632      	mov	r2, r6
    1658:	4628      	mov	r0, r5
    165a:	4639      	mov	r1, r7
    165c:	f7ff fe24 	bl	12a8 <update_out_param>
/home/dangcaominh/STM32MP1/optee-os/optee-os/lib/libutee/tee_api.c:346
    1660:	9804      	ldr	r0, [sp, #16]
    1662:	b128      	cbz	r0, 1670 <TEE_OpenTASession+0xa4>
/home/dangcaominh/STM32MP1/optee-os/optee-os/lib/libutee/tee_api.c:347
    1664:	9905      	ldr	r1, [sp, #20]
    1666:	f001 f8a7 	bl	27b8 <tee_unmap>
/home/dangcaominh/STM32MP1/optee-os/optee-os/lib/libutee/tee_api.c:349
    166a:	b108      	cbz	r0, 1670 <TEE_OpenTASession+0xa4>
/home/dangcaominh/STM32MP1/optee-os/optee-os/lib/libutee/tee_api.c:350
    166c:	f000 fac4 	bl	1bf8 <TEE_Panic>
/home/dangcaominh/STM32MP1/optee-os/optee-os/lib/libutee/tee_api.c:359
    1670:	b10c      	cbz	r4, 1676 <TEE_OpenTASession+0xaa>
/home/dangcaominh/STM32MP1/optee-os/optee-os/lib/libutee/tee_api.c:360
    1672:	2300      	movs	r3, #0
    1674:	9303      	str	r3, [sp, #12]
/home/dangcaominh/STM32MP1/optee-os/optee-os/lib/libutee/tee_api.c:362
    1676:	9b03      	ldr	r3, [sp, #12]
/home/dangcaominh/STM32MP1/optee-os/optee-os/lib/libutee/tee_api.c:323
    1678:	4a0a      	ldr	r2, [pc, #40]	@ (16a4 <TEE_OpenTASession+0xd8>)
/home/dangcaominh/STM32MP1/optee-os/optee-os/lib/libutee/tee_api.c:362
    167a:	f8ca 3000 	str.w	r3, [sl]
/home/dangcaominh/STM32MP1/optee-os/optee-os/lib/libutee/tee_api.c:323
    167e:	447a      	add	r2, pc
/home/dangcaominh/STM32MP1/optee-os/optee-os/lib/libutee/tee_api.c:364
    1680:	4b07      	ldr	r3, [pc, #28]	@ (16a0 <TEE_OpenTASession+0xd4>)
    1682:	58d3      	ldr	r3, [r2, r3]
    1684:	681a      	ldr	r2, [r3, #0]
    1686:	9b1d      	ldr	r3, [sp, #116]	@ 0x74
    1688:	405a      	eors	r2, r3
    168a:	f04f 0300 	mov.w	r3, #0
    168e:	d001      	beq.n	1694 <TEE_OpenTASession+0xc8>
    1690:	f7fe fe8c 	bl	3ac <__stack_chk_fail>
    1694:	4620      	mov	r0, r4
    1696:	b01f      	add	sp, #124	@ 0x7c
    1698:	e8bd 8ff0 	ldmia.w	sp!, {r4, r5, r6, r7, r8, r9, sl, fp, pc}
    169c:	00008aaa 	.word	0x00008aaa
    16a0:	0000000c 	.word	0x0000000c
    16a4:	00008a06 	.word	0x00008a06

000016a8 <__GP11_TEE_OpenTASession>:
__GP11_TEE_OpenTASession():
/home/dangcaominh/STM32MP1/optee-os/optee-os/lib/libutee/tee_api.c:372
    16a8:	e92d 4ff0 	stmdb	sp!, {r4, r5, r6, r7, r8, r9, sl, fp, lr}
    16ac:	4614      	mov	r4, r2
    16ae:	4a2f      	ldr	r2, [pc, #188]	@ (176c <__GP11_TEE_OpenTASession+0xc4>)
    16b0:	461d      	mov	r5, r3
    16b2:	4b2f      	ldr	r3, [pc, #188]	@ (1770 <__GP11_TEE_OpenTASession+0xc8>)
    16b4:	b09f      	sub	sp, #124	@ 0x7c
    16b6:	447a      	add	r2, pc
/home/dangcaominh/STM32MP1/optee-os/optee-os/lib/libutee/tee_api.c:374
    16b8:	ae0a      	add	r6, sp, #40	@ 0x28
/home/dangcaominh/STM32MP1/optee-os/optee-os/lib/libutee/tee_api.c:372
    16ba:	4680      	mov	r8, r0
    16bc:	4689      	mov	r9, r1
    16be:	58d3      	ldr	r3, [r2, r3]
/home/dangcaominh/STM32MP1/optee-os/optee-os/lib/libutee/tee_api.c:374
    16c0:	2100      	movs	r1, #0
    16c2:	4630      	mov	r0, r6
    16c4:	2248      	movs	r2, #72	@ 0x48
/home/dangcaominh/STM32MP1/optee-os/optee-os/lib/libutee/tee_api.c:372
    16c6:	681b      	ldr	r3, [r3, #0]
    16c8:	931d      	str	r3, [sp, #116]	@ 0x74
    16ca:	f04f 0300 	mov.w	r3, #0
/home/dangcaominh/STM32MP1/optee-os/optee-os/lib/libutee/tee_api.c:378
    16ce:	af06      	add	r7, sp, #24
/home/dangcaominh/STM32MP1/optee-os/optee-os/lib/libutee/tee_api.c:372
    16d0:	e9dd ab28 	ldrd	sl, fp, [sp, #160]	@ 0xa0
/home/dangcaominh/STM32MP1/optee-os/optee-os/lib/libutee/tee_api.c:374
    16d4:	f007 faba 	bl	8c4c <memset>
/home/dangcaominh/STM32MP1/optee-os/optee-os/lib/libutee/tee_api.c:378
    16d8:	efc0 0010 	vmov.i32	d16, #0	@ 0x00000000
/home/dangcaominh/STM32MP1/optee-os/optee-os/lib/libutee/tee_api.c:375
    16dc:	2300      	movs	r3, #0
    16de:	9303      	str	r3, [sp, #12]
/home/dangcaominh/STM32MP1/optee-os/optee-os/lib/libutee/tee_api.c:378
    16e0:	edcd 0b06 	vstr	d16, [sp, #24]
    16e4:	edc7 0b02 	vstr	d16, [r7, #8]
/home/dangcaominh/STM32MP1/optee-os/optee-os/lib/libutee/tee_api.c:380
    16e8:	b11c      	cbz	r4, 16f2 <__GP11_TEE_OpenTASession+0x4a>
/home/dangcaominh/STM32MP1/optee-os/optee-os/lib/libutee/tee_api.c:381
    16ea:	2120      	movs	r1, #32
    16ec:	4628      	mov	r0, r5
    16ee:	f000 fac8 	bl	1c82 <__utee_check_inout_annotation>
/home/dangcaominh/STM32MP1/optee-os/optee-os/lib/libutee/tee_api.c:384
    16f2:	2104      	movs	r1, #4
    16f4:	4650      	mov	r0, sl
    16f6:	f000 faac 	bl	1c52 <__utee_check_out_annotation>
/home/dangcaominh/STM32MP1/optee-os/optee-os/lib/libutee/tee_api.c:386
    16fa:	4621      	mov	r1, r4
    16fc:	462a      	mov	r2, r5
    16fe:	4630      	mov	r0, r6
    1700:	f7ff fd2f 	bl	1162 <copy_gp11_param>
/home/dangcaominh/STM32MP1/optee-os/optee-os/lib/libutee/tee_api.c:387
    1704:	463b      	mov	r3, r7
    1706:	aa05      	add	r2, sp, #20
    1708:	a904      	add	r1, sp, #16
    170a:	4630      	mov	r0, r6
    170c:	f7ff fed6 	bl	14bc <map_tmp_param>
/home/dangcaominh/STM32MP1/optee-os/optee-os/lib/libutee/tee_api.c:388
    1710:	4604      	mov	r4, r0
    1712:	b9b0      	cbnz	r0, 1742 <__GP11_TEE_OpenTASession+0x9a>
/home/dangcaominh/STM32MP1/optee-os/optee-os/lib/libutee/tee_api.c:390
    1714:	f8cd b000 	str.w	fp, [sp]
    1718:	ab03      	add	r3, sp, #12
    171a:	4632      	mov	r2, r6
    171c:	4649      	mov	r1, r9
    171e:	4640      	mov	r0, r8
    1720:	f001 ebe4 	blx	2eec <_utee_open_ta_session>
    1724:	4604      	mov	r4, r0
/home/dangcaominh/STM32MP1/optee-os/optee-os/lib/libutee/tee_api.c:392
    1726:	4632      	mov	r2, r6
    1728:	4628      	mov	r0, r5
    172a:	4639      	mov	r1, r7
    172c:	f7ff fdee 	bl	130c <update_out_gp11_param>
/home/dangcaominh/STM32MP1/optee-os/optee-os/lib/libutee/tee_api.c:393
    1730:	9804      	ldr	r0, [sp, #16]
    1732:	b128      	cbz	r0, 1740 <__GP11_TEE_OpenTASession+0x98>
/home/dangcaominh/STM32MP1/optee-os/optee-os/lib/libutee/tee_api.c:394
    1734:	9905      	ldr	r1, [sp, #20]
    1736:	f001 f83f 	bl	27b8 <tee_unmap>
/home/dangcaominh/STM32MP1/optee-os/optee-os/lib/libutee/tee_api.c:396
    173a:	b108      	cbz	r0, 1740 <__GP11_TEE_OpenTASession+0x98>
/home/dangcaominh/STM32MP1/optee-os/optee-os/lib/libutee/tee_api.c:397
    173c:	f000 fa5c 	bl	1bf8 <TEE_Panic>
/home/dangcaominh/STM32MP1/optee-os/optee-os/lib/libutee/tee_api.c:406
    1740:	b10c      	cbz	r4, 1746 <__GP11_TEE_OpenTASession+0x9e>
/home/dangcaominh/STM32MP1/optee-os/optee-os/lib/libutee/tee_api.c:407
    1742:	2300      	movs	r3, #0
    1744:	9303      	str	r3, [sp, #12]
/home/dangcaominh/STM32MP1/optee-os/optee-os/lib/libutee/tee_api.c:409
    1746:	9b03      	ldr	r3, [sp, #12]
/home/dangcaominh/STM32MP1/optee-os/optee-os/lib/libutee/tee_api.c:372
    1748:	4a0a      	ldr	r2, [pc, #40]	@ (1774 <__GP11_TEE_OpenTASession+0xcc>)
/home/dangcaominh/STM32MP1/optee-os/optee-os/lib/libutee/tee_api.c:409
    174a:	f8ca 3000 	str.w	r3, [sl]
/home/dangcaominh/STM32MP1/optee-os/optee-os/lib/libutee/tee_api.c:372
    174e:	447a      	add	r2, pc
/home/dangcaominh/STM32MP1/optee-os/optee-os/lib/libutee/tee_api.c:411
    1750:	4b07      	ldr	r3, [pc, #28]	@ (1770 <__GP11_TEE_OpenTASession+0xc8>)
    1752:	58d3      	ldr	r3, [r2, r3]
    1754:	681a      	ldr	r2, [r3, #0]
    1756:	9b1d      	ldr	r3, [sp, #116]	@ 0x74
    1758:	405a      	eors	r2, r3
    175a:	f04f 0300 	mov.w	r3, #0
    175e:	d001      	beq.n	1764 <__GP11_TEE_OpenTASession+0xbc>
    1760:	f7fe fe24 	bl	3ac <__stack_chk_fail>
    1764:	4620      	mov	r0, r4
    1766:	b01f      	add	sp, #124	@ 0x7c
    1768:	e8bd 8ff0 	ldmia.w	sp!, {r4, r5, r6, r7, r8, r9, sl, fp, pc}
    176c:	000089ce 	.word	0x000089ce
    1770:	0000000c 	.word	0x0000000c
    1774:	00008936 	.word	0x00008936

00001778 <TEE_InvokeTACommand>:
TEE_InvokeTACommand():
/home/dangcaominh/STM32MP1/optee-os/optee-os/lib/libutee/tee_api.c:428
    1778:	e92d 4ff0 	stmdb	sp!, {r4, r5, r6, r7, r8, r9, sl, fp, lr}
    177c:	4693      	mov	fp, r2
    177e:	4a3a      	ldr	r2, [pc, #232]	@ (1868 <TEE_InvokeTACommand+0xf0>)
    1780:	461c      	mov	r4, r3
    1782:	4b3a      	ldr	r3, [pc, #232]	@ (186c <TEE_InvokeTACommand+0xf4>)
    1784:	b09f      	sub	sp, #124	@ 0x7c
    1786:	447a      	add	r2, pc
/home/dangcaominh/STM32MP1/optee-os/optee-os/lib/libutee/tee_api.c:431
    1788:	ad0a      	add	r5, sp, #40	@ 0x28
/home/dangcaominh/STM32MP1/optee-os/optee-os/lib/libutee/tee_api.c:428
    178a:	4681      	mov	r9, r0
    178c:	468a      	mov	sl, r1
    178e:	58d3      	ldr	r3, [r2, r3]
/home/dangcaominh/STM32MP1/optee-os/optee-os/lib/libutee/tee_api.c:431
    1790:	2100      	movs	r1, #0
    1792:	4628      	mov	r0, r5
    1794:	2248      	movs	r2, #72	@ 0x48
/home/dangcaominh/STM32MP1/optee-os/optee-os/lib/libutee/tee_api.c:428
    1796:	681b      	ldr	r3, [r3, #0]
    1798:	931d      	str	r3, [sp, #116]	@ 0x74
    179a:	f04f 0300 	mov.w	r3, #0
/home/dangcaominh/STM32MP1/optee-os/optee-os/lib/libutee/tee_api.c:430
    179e:	2303      	movs	r3, #3
    17a0:	9303      	str	r3, [sp, #12]
/home/dangcaominh/STM32MP1/optee-os/optee-os/lib/libutee/tee_api.c:434
    17a2:	f10d 0818 	add.w	r8, sp, #24
/home/dangcaominh/STM32MP1/optee-os/optee-os/lib/libutee/tee_api.c:428
    17a6:	e9dd 7628 	ldrd	r7, r6, [sp, #160]	@ 0xa0
/home/dangcaominh/STM32MP1/optee-os/optee-os/lib/libutee/tee_api.c:431
    17aa:	f007 fa4f 	bl	8c4c <memset>
/home/dangcaominh/STM32MP1/optee-os/optee-os/lib/libutee/tee_api.c:434
    17ae:	efc0 0010 	vmov.i32	d16, #0	@ 0x00000000
/home/dangcaominh/STM32MP1/optee-os/optee-os/lib/libutee/tee_api.c:432
    17b2:	2300      	movs	r3, #0
/home/dangcaominh/STM32MP1/optee-os/optee-os/lib/libutee/tee_api.c:433
    17b4:	e9cd 3304 	strd	r3, r3, [sp, #16]
/home/dangcaominh/STM32MP1/optee-os/optee-os/lib/libutee/tee_api.c:434
    17b8:	edcd 0b06 	vstr	d16, [sp, #24]
    17bc:	edc8 0b02 	vstr	d16, [r8, #8]
/home/dangcaominh/STM32MP1/optee-os/optee-os/lib/libutee/tee_api.c:436
    17c0:	b13c      	cbz	r4, 17d2 <TEE_InvokeTACommand+0x5a>
/home/dangcaominh/STM32MP1/optee-os/optee-os/lib/libutee/tee_api.c:437
    17c2:	2120      	movs	r1, #32
    17c4:	4638      	mov	r0, r7
    17c6:	f000 fa5c 	bl	1c82 <__utee_check_inout_annotation>
/home/dangcaominh/STM32MP1/optee-os/optee-os/lib/libutee/tee_api.c:440
    17ca:	4639      	mov	r1, r7
    17cc:	4620      	mov	r0, r4
    17ce:	f7ff fd3d 	bl	124c <check_invoke_param>
/home/dangcaominh/STM32MP1/optee-os/optee-os/lib/libutee/tee_api.c:442
    17d2:	b11e      	cbz	r6, 17dc <TEE_InvokeTACommand+0x64>
/home/dangcaominh/STM32MP1/optee-os/optee-os/lib/libutee/tee_api.c:443
    17d4:	2104      	movs	r1, #4
    17d6:	4630      	mov	r0, r6
    17d8:	f000 fa3b 	bl	1c52 <__utee_check_out_annotation>
/home/dangcaominh/STM32MP1/optee-os/optee-os/lib/libutee/tee_api.c:446
    17dc:	4621      	mov	r1, r4
    17de:	463a      	mov	r2, r7
    17e0:	4628      	mov	r0, r5
    17e2:	f7ff fc95 	bl	1110 <copy_param>
/home/dangcaominh/STM32MP1/optee-os/optee-os/lib/libutee/tee_api.c:447
    17e6:	4643      	mov	r3, r8
    17e8:	aa05      	add	r2, sp, #20
    17ea:	a904      	add	r1, sp, #16
    17ec:	4628      	mov	r0, r5
    17ee:	f7ff fe65 	bl	14bc <map_tmp_param>
/home/dangcaominh/STM32MP1/optee-os/optee-os/lib/libutee/tee_api.c:448
    17f2:	4604      	mov	r4, r0
    17f4:	b9a8      	cbnz	r0, 1822 <TEE_InvokeTACommand+0xaa>
/home/dangcaominh/STM32MP1/optee-os/optee-os/lib/libutee/tee_api.c:450
    17f6:	ab03      	add	r3, sp, #12
    17f8:	465a      	mov	r2, fp
    17fa:	9300      	str	r3, [sp, #0]
    17fc:	4651      	mov	r1, sl
    17fe:	462b      	mov	r3, r5
    1800:	4648      	mov	r0, r9
    1802:	f001 eb8a 	blx	2f18 <_utee_invoke_ta_command>
    1806:	4604      	mov	r4, r0
/home/dangcaominh/STM32MP1/optee-os/optee-os/lib/libutee/tee_api.c:453
    1808:	462a      	mov	r2, r5
    180a:	4638      	mov	r0, r7
    180c:	4641      	mov	r1, r8
    180e:	f7ff fd4b 	bl	12a8 <update_out_param>
/home/dangcaominh/STM32MP1/optee-os/optee-os/lib/libutee/tee_api.c:454
    1812:	9804      	ldr	r0, [sp, #16]
    1814:	b128      	cbz	r0, 1822 <TEE_InvokeTACommand+0xaa>
/home/dangcaominh/STM32MP1/optee-os/optee-os/lib/libutee/tee_api.c:455
    1816:	9905      	ldr	r1, [sp, #20]
    1818:	f000 ffce 	bl	27b8 <tee_unmap>
/home/dangcaominh/STM32MP1/optee-os/optee-os/lib/libutee/tee_api.c:457
    181c:	b108      	cbz	r0, 1822 <TEE_InvokeTACommand+0xaa>
/home/dangcaominh/STM32MP1/optee-os/optee-os/lib/libutee/tee_api.c:458
    181e:	f000 f9eb 	bl	1bf8 <TEE_Panic>
/home/dangcaominh/STM32MP1/optee-os/optee-os/lib/libutee/tee_api.c:463
    1822:	9b03      	ldr	r3, [sp, #12]
/home/dangcaominh/STM32MP1/optee-os/optee-os/lib/libutee/tee_api.c:462
    1824:	b106      	cbz	r6, 1828 <TEE_InvokeTACommand+0xb0>
/home/dangcaominh/STM32MP1/optee-os/optee-os/lib/libutee/tee_api.c:463
    1826:	6033      	str	r3, [r6, #0]
/home/dangcaominh/STM32MP1/optee-os/optee-os/lib/libutee/tee_api.c:465
    1828:	2b04      	cmp	r3, #4
    182a:	d009      	beq.n	1840 <TEE_InvokeTACommand+0xc8>
/home/dangcaominh/STM32MP1/optee-os/optee-os/lib/libutee/tee_api.c:468
    182c:	b144      	cbz	r4, 1840 <TEE_InvokeTACommand+0xc8>
/home/dangcaominh/STM32MP1/optee-os/optee-os/lib/libutee/tee_api.c:468 (discriminator 1)
    182e:	4b0c      	ldr	r3, [pc, #48]	@ (1860 <TEE_InvokeTACommand+0xe8>)
    1830:	429c      	cmp	r4, r3
    1832:	d005      	beq.n	1840 <TEE_InvokeTACommand+0xc8>
/home/dangcaominh/STM32MP1/optee-os/optee-os/lib/libutee/tee_api.c:469
    1834:	4b0b      	ldr	r3, [pc, #44]	@ (1864 <TEE_InvokeTACommand+0xec>)
    1836:	429c      	cmp	r4, r3
    1838:	d002      	beq.n	1840 <TEE_InvokeTACommand+0xc8>
/home/dangcaominh/STM32MP1/optee-os/optee-os/lib/libutee/tee_api.c:471
    183a:	4620      	mov	r0, r4
    183c:	f000 f9dc 	bl	1bf8 <TEE_Panic>
/home/dangcaominh/STM32MP1/optee-os/optee-os/lib/libutee/tee_api.c:428
    1840:	4a0b      	ldr	r2, [pc, #44]	@ (1870 <TEE_InvokeTACommand+0xf8>)
/home/dangcaominh/STM32MP1/optee-os/optee-os/lib/libutee/tee_api.c:474
    1842:	4b0a      	ldr	r3, [pc, #40]	@ (186c <TEE_InvokeTACommand+0xf4>)
/home/dangcaominh/STM32MP1/optee-os/optee-os/lib/libutee/tee_api.c:428
    1844:	447a      	add	r2, pc
/home/dangcaominh/STM32MP1/optee-os/optee-os/lib/libutee/tee_api.c:474
    1846:	58d3      	ldr	r3, [r2, r3]
    1848:	681a      	ldr	r2, [r3, #0]
    184a:	9b1d      	ldr	r3, [sp, #116]	@ 0x74
    184c:	405a      	eors	r2, r3
    184e:	f04f 0300 	mov.w	r3, #0
    1852:	d001      	beq.n	1858 <TEE_InvokeTACommand+0xe0>
    1854:	f7fe fdaa 	bl	3ac <__stack_chk_fail>
    1858:	4620      	mov	r0, r4
    185a:	b01f      	add	sp, #124	@ 0x7c
    185c:	e8bd 8ff0 	ldmia.w	sp!, {r4, r5, r6, r7, r8, r9, sl, fp, pc}
    1860:	ffff000c 	.word	0xffff000c
    1864:	ffff3024 	.word	0xffff3024
    1868:	000088fe 	.word	0x000088fe
    186c:	0000000c 	.word	0x0000000c
    1870:	00008840 	.word	0x00008840

00001874 <__GP11_TEE_InvokeTACommand>:
__GP11_TEE_InvokeTACommand():
/home/dangcaominh/STM32MP1/optee-os/optee-os/lib/libutee/tee_api.c:481
    1874:	e92d 4ff0 	stmdb	sp!, {r4, r5, r6, r7, r8, r9, sl, fp, lr}
    1878:	4693      	mov	fp, r2
    187a:	4a37      	ldr	r2, [pc, #220]	@ (1958 <__GP11_TEE_InvokeTACommand+0xe4>)
    187c:	461c      	mov	r4, r3
    187e:	4b37      	ldr	r3, [pc, #220]	@ (195c <__GP11_TEE_InvokeTACommand+0xe8>)
    1880:	b09f      	sub	sp, #124	@ 0x7c
    1882:	447a      	add	r2, pc
/home/dangcaominh/STM32MP1/optee-os/optee-os/lib/libutee/tee_api.c:484
    1884:	ad0a      	add	r5, sp, #40	@ 0x28
/home/dangcaominh/STM32MP1/optee-os/optee-os/lib/libutee/tee_api.c:481
    1886:	4681      	mov	r9, r0
    1888:	468a      	mov	sl, r1
    188a:	58d3      	ldr	r3, [r2, r3]
/home/dangcaominh/STM32MP1/optee-os/optee-os/lib/libutee/tee_api.c:484
    188c:	2100      	movs	r1, #0
    188e:	4628      	mov	r0, r5
    1890:	2248      	movs	r2, #72	@ 0x48
/home/dangcaominh/STM32MP1/optee-os/optee-os/lib/libutee/tee_api.c:481
    1892:	681b      	ldr	r3, [r3, #0]
    1894:	931d      	str	r3, [sp, #116]	@ 0x74
    1896:	f04f 0300 	mov.w	r3, #0
/home/dangcaominh/STM32MP1/optee-os/optee-os/lib/libutee/tee_api.c:483
    189a:	2303      	movs	r3, #3
/home/dangcaominh/STM32MP1/optee-os/optee-os/lib/libutee/tee_api.c:481
    189c:	e9dd 7628 	ldrd	r7, r6, [sp, #160]	@ 0xa0
/home/dangcaominh/STM32MP1/optee-os/optee-os/lib/libutee/tee_api.c:483
    18a0:	9303      	str	r3, [sp, #12]
/home/dangcaominh/STM32MP1/optee-os/optee-os/lib/libutee/tee_api.c:484
    18a2:	f007 f9d3 	bl	8c4c <memset>
/home/dangcaominh/STM32MP1/optee-os/optee-os/lib/libutee/tee_api.c:487
    18a6:	efc0 0010 	vmov.i32	d16, #0	@ 0x00000000
    18aa:	f10d 0818 	add.w	r8, sp, #24
    18ae:	edcd 0b06 	vstr	d16, [sp, #24]
    18b2:	edc8 0b02 	vstr	d16, [r8, #8]
/home/dangcaominh/STM32MP1/optee-os/optee-os/lib/libutee/tee_api.c:489
    18b6:	b11c      	cbz	r4, 18c0 <__GP11_TEE_InvokeTACommand+0x4c>
/home/dangcaominh/STM32MP1/optee-os/optee-os/lib/libutee/tee_api.c:490
    18b8:	2120      	movs	r1, #32
    18ba:	4638      	mov	r0, r7
    18bc:	f000 f9e1 	bl	1c82 <__utee_check_inout_annotation>
/home/dangcaominh/STM32MP1/optee-os/optee-os/lib/libutee/tee_api.c:493
    18c0:	b11e      	cbz	r6, 18ca <__GP11_TEE_InvokeTACommand+0x56>
/home/dangcaominh/STM32MP1/optee-os/optee-os/lib/libutee/tee_api.c:494
    18c2:	2104      	movs	r1, #4
    18c4:	4630      	mov	r0, r6
    18c6:	f000 f9c4 	bl	1c52 <__utee_check_out_annotation>
/home/dangcaominh/STM32MP1/optee-os/optee-os/lib/libutee/tee_api.c:497
    18ca:	4621      	mov	r1, r4
    18cc:	463a      	mov	r2, r7
    18ce:	4628      	mov	r0, r5
    18d0:	f7ff fc47 	bl	1162 <copy_gp11_param>
/home/dangcaominh/STM32MP1/optee-os/optee-os/lib/libutee/tee_api.c:498
    18d4:	4643      	mov	r3, r8
    18d6:	aa05      	add	r2, sp, #20
    18d8:	a904      	add	r1, sp, #16
    18da:	4628      	mov	r0, r5
    18dc:	f7ff fdee 	bl	14bc <map_tmp_param>
/home/dangcaominh/STM32MP1/optee-os/optee-os/lib/libutee/tee_api.c:499
    18e0:	4604      	mov	r4, r0
    18e2:	b9a8      	cbnz	r0, 1910 <__GP11_TEE_InvokeTACommand+0x9c>
/home/dangcaominh/STM32MP1/optee-os/optee-os/lib/libutee/tee_api.c:501
    18e4:	ab03      	add	r3, sp, #12
    18e6:	465a      	mov	r2, fp
    18e8:	9300      	str	r3, [sp, #0]
    18ea:	4651      	mov	r1, sl
    18ec:	462b      	mov	r3, r5
    18ee:	4648      	mov	r0, r9
    18f0:	f001 eb12 	blx	2f18 <_utee_invoke_ta_command>
    18f4:	4604      	mov	r4, r0
/home/dangcaominh/STM32MP1/optee-os/optee-os/lib/libutee/tee_api.c:504
    18f6:	462a      	mov	r2, r5
    18f8:	4638      	mov	r0, r7
    18fa:	4641      	mov	r1, r8
    18fc:	f7ff fd06 	bl	130c <update_out_gp11_param>
/home/dangcaominh/STM32MP1/optee-os/optee-os/lib/libutee/tee_api.c:505
    1900:	9804      	ldr	r0, [sp, #16]
    1902:	b128      	cbz	r0, 1910 <__GP11_TEE_InvokeTACommand+0x9c>
/home/dangcaominh/STM32MP1/optee-os/optee-os/lib/libutee/tee_api.c:506
    1904:	9905      	ldr	r1, [sp, #20]
    1906:	f000 ff57 	bl	27b8 <tee_unmap>
/home/dangcaominh/STM32MP1/optee-os/optee-os/lib/libutee/tee_api.c:508
    190a:	b108      	cbz	r0, 1910 <__GP11_TEE_InvokeTACommand+0x9c>
/home/dangcaominh/STM32MP1/optee-os/optee-os/lib/libutee/tee_api.c:509
    190c:	f000 f974 	bl	1bf8 <TEE_Panic>
/home/dangcaominh/STM32MP1/optee-os/optee-os/lib/libutee/tee_api.c:514
    1910:	9b03      	ldr	r3, [sp, #12]
/home/dangcaominh/STM32MP1/optee-os/optee-os/lib/libutee/tee_api.c:513
    1912:	b106      	cbz	r6, 1916 <__GP11_TEE_InvokeTACommand+0xa2>
/home/dangcaominh/STM32MP1/optee-os/optee-os/lib/libutee/tee_api.c:514
    1914:	6033      	str	r3, [r6, #0]
/home/dangcaominh/STM32MP1/optee-os/optee-os/lib/libutee/tee_api.c:516
    1916:	2b04      	cmp	r3, #4
    1918:	d009      	beq.n	192e <__GP11_TEE_InvokeTACommand+0xba>
/home/dangcaominh/STM32MP1/optee-os/optee-os/lib/libutee/tee_api.c:519
    191a:	b144      	cbz	r4, 192e <__GP11_TEE_InvokeTACommand+0xba>
/home/dangcaominh/STM32MP1/optee-os/optee-os/lib/libutee/tee_api.c:519 (discriminator 1)
    191c:	4b0c      	ldr	r3, [pc, #48]	@ (1950 <__GP11_TEE_InvokeTACommand+0xdc>)
    191e:	429c      	cmp	r4, r3
    1920:	d005      	beq.n	192e <__GP11_TEE_InvokeTACommand+0xba>
/home/dangcaominh/STM32MP1/optee-os/optee-os/lib/libutee/tee_api.c:520
    1922:	4b0c      	ldr	r3, [pc, #48]	@ (1954 <__GP11_TEE_InvokeTACommand+0xe0>)
    1924:	429c      	cmp	r4, r3
    1926:	d002      	beq.n	192e <__GP11_TEE_InvokeTACommand+0xba>
/home/dangcaominh/STM32MP1/optee-os/optee-os/lib/libutee/tee_api.c:522
    1928:	4620      	mov	r0, r4
    192a:	f000 f965 	bl	1bf8 <TEE_Panic>
/home/dangcaominh/STM32MP1/optee-os/optee-os/lib/libutee/tee_api.c:481
    192e:	4a0c      	ldr	r2, [pc, #48]	@ (1960 <__GP11_TEE_InvokeTACommand+0xec>)
/home/dangcaominh/STM32MP1/optee-os/optee-os/lib/libutee/tee_api.c:525
    1930:	4b0a      	ldr	r3, [pc, #40]	@ (195c <__GP11_TEE_InvokeTACommand+0xe8>)
/home/dangcaominh/STM32MP1/optee-os/optee-os/lib/libutee/tee_api.c:481
    1932:	447a      	add	r2, pc
/home/dangcaominh/STM32MP1/optee-os/optee-os/lib/libutee/tee_api.c:525
    1934:	58d3      	ldr	r3, [r2, r3]
    1936:	681a      	ldr	r2, [r3, #0]
    1938:	9b1d      	ldr	r3, [sp, #116]	@ 0x74
    193a:	405a      	eors	r2, r3
    193c:	f04f 0300 	mov.w	r3, #0
    1940:	d001      	beq.n	1946 <__GP11_TEE_InvokeTACommand+0xd2>
    1942:	f7fe fd33 	bl	3ac <__stack_chk_fail>
    1946:	4620      	mov	r0, r4
    1948:	b01f      	add	sp, #124	@ 0x7c
    194a:	e8bd 8ff0 	ldmia.w	sp!, {r4, r5, r6, r7, r8, r9, sl, fp, pc}
    194e:	bf00      	nop
    1950:	ffff000c 	.word	0xffff000c
    1954:	ffff3024 	.word	0xffff3024
    1958:	00008802 	.word	0x00008802
    195c:	0000000c 	.word	0x0000000c
    1960:	00008752 	.word	0x00008752

00001964 <__GP11_TEE_CheckMemoryAccessRights>:
__GP11_TEE_CheckMemoryAccessRights():
/home/dangcaominh/STM32MP1/optee-os/optee-os/lib/libutee/tee_api.c:597
    1964:	f7ff bd86 	b.w	1474 <TEE_CheckMemoryAccessRights>

00001968 <TEE_SetInstanceData>:
TEE_SetInstanceData():
/home/dangcaominh/STM32MP1/optee-os/optee-os/lib/libutee/tee_api.c:602
    1968:	4b01      	ldr	r3, [pc, #4]	@ (1970 <TEE_SetInstanceData+0x8>)
    196a:	447b      	add	r3, pc
    196c:	6018      	str	r0, [r3, #0]
/home/dangcaominh/STM32MP1/optee-os/optee-os/lib/libutee/tee_api.c:603
    196e:	4770      	bx	lr
    1970:	00008a52 	.word	0x00008a52

00001974 <TEE_GetInstanceData>:
TEE_GetInstanceData():
/home/dangcaominh/STM32MP1/optee-os/optee-os/lib/libutee/tee_api.c:608
    1974:	4b01      	ldr	r3, [pc, #4]	@ (197c <TEE_GetInstanceData+0x8>)
    1976:	447b      	add	r3, pc
    1978:	6818      	ldr	r0, [r3, #0]
    197a:	4770      	bx	lr
    197c:	00008a46 	.word	0x00008a46

00001980 <TEE_MemMove>:
TEE_MemMove():
/home/dangcaominh/STM32MP1/optee-os/optee-os/lib/libutee/tee_api.c:612
    1980:	f007 b982 	b.w	8c88 <memmove>

00001984 <__GP11_TEE_MemMove>:
__GP11_TEE_MemMove():
/home/dangcaominh/STM32MP1/optee-os/optee-os/lib/libutee/tee_api.c:617
    1984:	f7ff bffc 	b.w	1980 <TEE_MemMove>

00001988 <TEE_MemCompare>:
TEE_MemCompare():
/home/dangcaominh/STM32MP1/optee-os/optee-os/lib/libutee/tee_api.c:622
    1988:	f007 b9b8 	b.w	8cfc <consttime_memcmp>

0000198c <__GP11_TEE_MemCompare>:
__GP11_TEE_MemCompare():
/home/dangcaominh/STM32MP1/optee-os/optee-os/lib/libutee/tee_api.c:628
    198c:	f7ff bffc 	b.w	1988 <TEE_MemCompare>

00001990 <TEE_MemFill>:
TEE_MemFill():
/home/dangcaominh/STM32MP1/optee-os/optee-os/lib/libutee/tee_api.c:633
    1990:	f007 b95c 	b.w	8c4c <memset>

00001994 <__GP11_TEE_MemFill>:
__GP11_TEE_MemFill():
/home/dangcaominh/STM32MP1/optee-os/optee-os/lib/libutee/tee_api.c:638
    1994:	f7ff bffc 	b.w	1990 <TEE_MemFill>

00001998 <TEE_GetSystemTime>:
TEE_GetSystemTime():
/home/dangcaominh/STM32MP1/optee-os/optee-os/lib/libutee/tee_api.c:644
    1998:	4601      	mov	r1, r0
/home/dangcaominh/STM32MP1/optee-os/optee-os/lib/libutee/tee_api.c:645
    199a:	2000      	movs	r0, #0
/home/dangcaominh/STM32MP1/optee-os/optee-os/lib/libutee/tee_api.c:644
    199c:	b508      	push	{r3, lr}
/home/dangcaominh/STM32MP1/optee-os/optee-os/lib/libutee/tee_api.c:645
    199e:	f001 eafa 	blx	2f94 <_utee_get_time>
/home/dangcaominh/STM32MP1/optee-os/optee-os/lib/libutee/tee_api.c:647
    19a2:	b118      	cbz	r0, 19ac <TEE_GetSystemTime+0x14>
/home/dangcaominh/STM32MP1/optee-os/optee-os/lib/libutee/tee_api.c:649
    19a4:	e8bd 4008 	ldmia.w	sp!, {r3, lr}
/home/dangcaominh/STM32MP1/optee-os/optee-os/lib/libutee/tee_api.c:648
    19a8:	f000 b926 	b.w	1bf8 <TEE_Panic>
/home/dangcaominh/STM32MP1/optee-os/optee-os/lib/libutee/tee_api.c:649
    19ac:	bd08      	pop	{r3, pc}

000019ae <TEE_Wait>:
TEE_Wait():
/home/dangcaominh/STM32MP1/optee-os/optee-os/lib/libutee/tee_api.c:652
    19ae:	b510      	push	{r4, lr}
/home/dangcaominh/STM32MP1/optee-os/optee-os/lib/libutee/tee_api.c:653
    19b0:	f001 eae6 	blx	2f80 <_utee_wait>
/home/dangcaominh/STM32MP1/optee-os/optee-os/lib/libutee/tee_api.c:655
    19b4:	4604      	mov	r4, r0
    19b6:	b120      	cbz	r0, 19c2 <TEE_Wait+0x14>
/home/dangcaominh/STM32MP1/optee-os/optee-os/lib/libutee/tee_api.c:655 (discriminator 1)
    19b8:	4b03      	ldr	r3, [pc, #12]	@ (19c8 <TEE_Wait+0x1a>)
    19ba:	4298      	cmp	r0, r3
    19bc:	d001      	beq.n	19c2 <TEE_Wait+0x14>
/home/dangcaominh/STM32MP1/optee-os/optee-os/lib/libutee/tee_api.c:656
    19be:	f000 f91b 	bl	1bf8 <TEE_Panic>
/home/dangcaominh/STM32MP1/optee-os/optee-os/lib/libutee/tee_api.c:659
    19c2:	4620      	mov	r0, r4
    19c4:	bd10      	pop	{r4, pc}
    19c6:	bf00      	nop
    19c8:	ffff0002 	.word	0xffff0002

000019cc <TEE_GetTAPersistentTime>:
TEE_GetTAPersistentTime():
/home/dangcaominh/STM32MP1/optee-os/optee-os/lib/libutee/tee_api.c:662
    19cc:	b538      	push	{r3, r4, r5, lr}
/home/dangcaominh/STM32MP1/optee-os/optee-os/lib/libutee/tee_api.c:665
    19ce:	4601      	mov	r1, r0
/home/dangcaominh/STM32MP1/optee-os/optee-os/lib/libutee/tee_api.c:662
    19d0:	4605      	mov	r5, r0
/home/dangcaominh/STM32MP1/optee-os/optee-os/lib/libutee/tee_api.c:665
    19d2:	2001      	movs	r0, #1
    19d4:	f001 eade 	blx	2f94 <_utee_get_time>
    19d8:	4604      	mov	r4, r0
/home/dangcaominh/STM32MP1/optee-os/optee-os/lib/libutee/tee_api.c:667
    19da:	b170      	cbz	r0, 19fa <TEE_GetTAPersistentTime+0x2e>
/home/dangcaominh/STM32MP1/optee-os/optee-os/lib/libutee/tee_api.c:667 (discriminator 1)
    19dc:	4b08      	ldr	r3, [pc, #32]	@ (1a00 <TEE_GetTAPersistentTime+0x34>)
    19de:	4298      	cmp	r0, r3
    19e0:	d00b      	beq.n	19fa <TEE_GetTAPersistentTime+0x2e>
/home/dangcaominh/STM32MP1/optee-os/optee-os/lib/libutee/tee_api.c:668
    19e2:	2300      	movs	r3, #0
    19e4:	602b      	str	r3, [r5, #0]
/home/dangcaominh/STM32MP1/optee-os/optee-os/lib/libutee/tee_api.c:669
    19e6:	606b      	str	r3, [r5, #4]
/home/dangcaominh/STM32MP1/optee-os/optee-os/lib/libutee/tee_api.c:672 (discriminator 1)
    19e8:	f500 4330 	add.w	r3, r0, #45056	@ 0xb000
    19ec:	2b01      	cmp	r3, #1
    19ee:	d904      	bls.n	19fa <TEE_GetTAPersistentTime+0x2e>
/home/dangcaominh/STM32MP1/optee-os/optee-os/lib/libutee/tee_api.c:675
    19f0:	4b04      	ldr	r3, [pc, #16]	@ (1a04 <TEE_GetTAPersistentTime+0x38>)
    19f2:	4298      	cmp	r0, r3
    19f4:	d001      	beq.n	19fa <TEE_GetTAPersistentTime+0x2e>
/home/dangcaominh/STM32MP1/optee-os/optee-os/lib/libutee/tee_api.c:677
    19f6:	f000 f8ff 	bl	1bf8 <TEE_Panic>
/home/dangcaominh/STM32MP1/optee-os/optee-os/lib/libutee/tee_api.c:680
    19fa:	4620      	mov	r0, r4
    19fc:	bd38      	pop	{r3, r4, r5, pc}
    19fe:	bf00      	nop
    1a00:	ffff300f 	.word	0xffff300f
    1a04:	ffff000c 	.word	0xffff000c

00001a08 <TEE_SetTAPersistentTime>:
TEE_SetTAPersistentTime():
/home/dangcaominh/STM32MP1/optee-os/optee-os/lib/libutee/tee_api.c:683
    1a08:	b510      	push	{r4, lr}
/home/dangcaominh/STM32MP1/optee-os/optee-os/lib/libutee/tee_api.c:686
    1a0a:	f001 eace 	blx	2fa8 <_utee_set_ta_time>
/home/dangcaominh/STM32MP1/optee-os/optee-os/lib/libutee/tee_api.c:688
    1a0e:	4604      	mov	r4, r0
    1a10:	b138      	cbz	r0, 1a22 <TEE_SetTAPersistentTime+0x1a>
/home/dangcaominh/STM32MP1/optee-os/optee-os/lib/libutee/tee_api.c:688 (discriminator 1)
    1a12:	4b05      	ldr	r3, [pc, #20]	@ (1a28 <TEE_SetTAPersistentTime+0x20>)
    1a14:	4298      	cmp	r0, r3
    1a16:	d004      	beq.n	1a22 <TEE_SetTAPersistentTime+0x1a>
/home/dangcaominh/STM32MP1/optee-os/optee-os/lib/libutee/tee_api.c:689
    1a18:	4b04      	ldr	r3, [pc, #16]	@ (1a2c <TEE_SetTAPersistentTime+0x24>)
    1a1a:	4298      	cmp	r0, r3
    1a1c:	d001      	beq.n	1a22 <TEE_SetTAPersistentTime+0x1a>
/home/dangcaominh/STM32MP1/optee-os/optee-os/lib/libutee/tee_api.c:691
    1a1e:	f000 f8eb 	bl	1bf8 <TEE_Panic>
/home/dangcaominh/STM32MP1/optee-os/optee-os/lib/libutee/tee_api.c:694
    1a22:	4620      	mov	r0, r4
    1a24:	bd10      	pop	{r4, pc}
    1a26:	bf00      	nop
    1a28:	ffff000c 	.word	0xffff000c
    1a2c:	ffff3041 	.word	0xffff3041

00001a30 <TEE_GetREETime>:
TEE_GetREETime():
/home/dangcaominh/STM32MP1/optee-os/optee-os/lib/libutee/tee_api.c:697
    1a30:	4601      	mov	r1, r0
/home/dangcaominh/STM32MP1/optee-os/optee-os/lib/libutee/tee_api.c:698
    1a32:	2002      	movs	r0, #2
/home/dangcaominh/STM32MP1/optee-os/optee-os/lib/libutee/tee_api.c:697
    1a34:	b508      	push	{r3, lr}
/home/dangcaominh/STM32MP1/optee-os/optee-os/lib/libutee/tee_api.c:698
    1a36:	f001 eaae 	blx	2f94 <_utee_get_time>
/home/dangcaominh/STM32MP1/optee-os/optee-os/lib/libutee/tee_api.c:700
    1a3a:	b118      	cbz	r0, 1a44 <TEE_GetREETime+0x14>
/home/dangcaominh/STM32MP1/optee-os/optee-os/lib/libutee/tee_api.c:702
    1a3c:	e8bd 4008 	ldmia.w	sp!, {r3, lr}
/home/dangcaominh/STM32MP1/optee-os/optee-os/lib/libutee/tee_api.c:701
    1a40:	f000 b8da 	b.w	1bf8 <TEE_Panic>
/home/dangcaominh/STM32MP1/optee-os/optee-os/lib/libutee/tee_api.c:702
    1a44:	bd08      	pop	{r3, pc}

00001a46 <TEE_Malloc>:
TEE_Malloc():
/home/dangcaominh/STM32MP1/optee-os/optee-os/lib/libutee/tee_api.c:705
    1a46:	4b28      	ldr	r3, [pc, #160]	@ (1ae8 <TEE_Malloc+0xa2>)
/home/dangcaominh/STM32MP1/optee-os/optee-os/lib/libutee/tee_api.c:706
    1a48:	2903      	cmp	r1, #3
/home/dangcaominh/STM32MP1/optee-os/optee-os/lib/libutee/tee_api.c:705
    1a4a:	b513      	push	{r0, r1, r4, lr}
    1a4c:	4602      	mov	r2, r0
    1a4e:	447b      	add	r3, pc
    1a50:	460c      	mov	r4, r1
/home/dangcaominh/STM32MP1/optee-os/optee-os/lib/libutee/tee_api.c:706
    1a52:	d806      	bhi.n	1a62 <TEE_Malloc+0x1c>
    1a54:	3901      	subs	r1, #1
    1a56:	2902      	cmp	r1, #2
    1a58:	d814      	bhi.n	1a84 <TEE_Malloc+0x3e>
    1a5a:	e8df f001 	tbb	[pc, r1]
    1a5e:	1f1b      	.short	0x1f1b
    1a60:	2e          	.byte	0x2e
    1a61:	00          	.byte	0x00
    1a62:	f1b1 4f00 	cmp.w	r1, #2147483648	@ 0x80000000
    1a66:	d035      	beq.n	1ad4 <TEE_Malloc+0x8e>
/home/dangcaominh/STM32MP1/optee-os/optee-os/lib/libutee/tee_api.c:739
    1a68:	4b20      	ldr	r3, [pc, #128]	@ (1aec <TEE_Malloc+0xa6>)
    1a6a:	f240 21e3 	movw	r1, #739	@ 0x2e3
    1a6e:	4820      	ldr	r0, [pc, #128]	@ (1af0 <TEE_Malloc+0xaa>)
    1a70:	447b      	add	r3, pc
    1a72:	9300      	str	r3, [sp, #0]
    1a74:	2301      	movs	r3, #1
    1a76:	4478      	add	r0, pc
    1a78:	461a      	mov	r2, r3
    1a7a:	9401      	str	r4, [sp, #4]
    1a7c:	f7fe fd7a 	bl	574 <trace_printf>
/home/dangcaominh/STM32MP1/optee-os/optee-os/lib/libutee/tee_api.c:720
    1a80:	2000      	movs	r0, #0
    1a82:	e018      	b.n	1ab6 <TEE_Malloc+0x70>
/home/dangcaominh/STM32MP1/optee-os/optee-os/lib/libutee/tee_api.c:708
    1a84:	b372      	cbz	r2, 1ae4 <TEE_Malloc+0x9e>
/home/dangcaominh/STM32MP1/optee-os/optee-os/lib/libutee/tee_api.c:710
    1a86:	4611      	mov	r1, r2
    1a88:	2001      	movs	r0, #1
/home/dangcaominh/STM32MP1/optee-os/optee-os/lib/libutee/tee_api.c:742
    1a8a:	b002      	add	sp, #8
    1a8c:	e8bd 4010 	ldmia.w	sp!, {r4, lr}
/home/dangcaominh/STM32MP1/optee-os/optee-os/lib/libutee/tee_api.c:710
    1a90:	f006 be84 	b.w	879c <calloc>
/home/dangcaominh/STM32MP1/optee-os/optee-os/lib/libutee/tee_api.c:713
    1a94:	2000      	movs	r0, #0
    1a96:	f000 f8af 	bl	1bf8 <TEE_Panic>
/home/dangcaominh/STM32MP1/optee-os/optee-os/lib/libutee/tee_api.c:714
    1a9a:	e7e5      	b.n	1a68 <TEE_Malloc+0x22>
/home/dangcaominh/STM32MP1/optee-os/optee-os/lib/libutee/tee_api.c:717
    1a9c:	b302      	cbz	r2, 1ae0 <TEE_Malloc+0x9a>
/home/dangcaominh/STM32MP1/optee-os/optee-os/lib/libutee/tee_api.c:719
    1a9e:	4915      	ldr	r1, [pc, #84]	@ (1af4 <TEE_Malloc+0xae>)
    1aa0:	585b      	ldr	r3, [r3, r1]
    1aa2:	681b      	ldr	r3, [r3, #0]
    1aa4:	2b00      	cmp	r3, #0
    1aa6:	d0eb      	beq.n	1a80 <TEE_Malloc+0x3a>
/home/dangcaominh/STM32MP1/optee-os/optee-os/lib/libutee/tee_api.c:721
    1aa8:	9300      	str	r3, [sp, #0]
    1aaa:	2100      	movs	r1, #0
    1aac:	4613      	mov	r3, r2
    1aae:	4608      	mov	r0, r1
    1ab0:	2201      	movs	r2, #1
    1ab2:	f006 fdef 	bl	8694 <raw_calloc>
/home/dangcaominh/STM32MP1/optee-os/optee-os/lib/libutee/tee_api.c:742
    1ab6:	b002      	add	sp, #8
    1ab8:	bd10      	pop	{r4, pc}
/home/dangcaominh/STM32MP1/optee-os/optee-os/lib/libutee/tee_api.c:724
    1aba:	b18a      	cbz	r2, 1ae0 <TEE_Malloc+0x9a>
/home/dangcaominh/STM32MP1/optee-os/optee-os/lib/libutee/tee_api.c:726
    1abc:	490d      	ldr	r1, [pc, #52]	@ (1af4 <TEE_Malloc+0xae>)
    1abe:	585b      	ldr	r3, [r3, r1]
    1ac0:	681b      	ldr	r3, [r3, #0]
    1ac2:	2b00      	cmp	r3, #0
    1ac4:	d0dc      	beq.n	1a80 <TEE_Malloc+0x3a>
/home/dangcaominh/STM32MP1/optee-os/optee-os/lib/libutee/tee_api.c:728
    1ac6:	2100      	movs	r1, #0
    1ac8:	4608      	mov	r0, r1
/home/dangcaominh/STM32MP1/optee-os/optee-os/lib/libutee/tee_api.c:742
    1aca:	b002      	add	sp, #8
    1acc:	e8bd 4010 	ldmia.w	sp!, {r4, lr}
/home/dangcaominh/STM32MP1/optee-os/optee-os/lib/libutee/tee_api.c:728
    1ad0:	f006 bdd3 	b.w	867a <raw_malloc>
/home/dangcaominh/STM32MP1/optee-os/optee-os/lib/libutee/tee_api.c:731
    1ad4:	b130      	cbz	r0, 1ae4 <TEE_Malloc+0x9e>
/home/dangcaominh/STM32MP1/optee-os/optee-os/lib/libutee/tee_api.c:742
    1ad6:	b002      	add	sp, #8
    1ad8:	e8bd 4010 	ldmia.w	sp!, {r4, lr}
/home/dangcaominh/STM32MP1/optee-os/optee-os/lib/libutee/tee_api.c:733
    1adc:	f006 be55 	b.w	878a <malloc>
/home/dangcaominh/STM32MP1/optee-os/optee-os/lib/libutee/tee_api.c:718
    1ae0:	2002      	movs	r0, #2
    1ae2:	e7e8      	b.n	1ab6 <TEE_Malloc+0x70>
/home/dangcaominh/STM32MP1/optee-os/optee-os/lib/libutee/tee_api.c:709
    1ae4:	2001      	movs	r0, #1
    1ae6:	e7e6      	b.n	1ab6 <TEE_Malloc+0x70>
    1ae8:	00008636 	.word	0x00008636
    1aec:	000075e3 	.word	0x000075e3
    1af0:	0000734e 	.word	0x0000734e
    1af4:	00000044 	.word	0x00000044

00001af8 <__GP11_TEE_Malloc>:
__GP11_TEE_Malloc():
/home/dangcaominh/STM32MP1/optee-os/optee-os/lib/libutee/tee_api.c:746
    1af8:	f7ff bfa5 	b.w	1a46 <TEE_Malloc>

00001afc <TEE_Free>:
TEE_Free():
/home/dangcaominh/STM32MP1/optee-os/optee-os/lib/libutee/tee_api.c:790
    1afc:	b538      	push	{r3, r4, r5, lr}
/home/dangcaominh/STM32MP1/optee-os/optee-os/lib/libutee/tee_api.c:791
    1afe:	1e43      	subs	r3, r0, #1
/home/dangcaominh/STM32MP1/optee-os/optee-os/lib/libutee/tee_api.c:790
    1b00:	4d0b      	ldr	r5, [pc, #44]	@ (1b30 <TEE_Free+0x34>)
/home/dangcaominh/STM32MP1/optee-os/optee-os/lib/libutee/tee_api.c:791
    1b02:	2b01      	cmp	r3, #1
/home/dangcaominh/STM32MP1/optee-os/optee-os/lib/libutee/tee_api.c:790
    1b04:	4604      	mov	r4, r0
    1b06:	447d      	add	r5, pc
/home/dangcaominh/STM32MP1/optee-os/optee-os/lib/libutee/tee_api.c:791
    1b08:	d911      	bls.n	1b2e <TEE_Free+0x32>
addr_is_in_no_share_heap():
/home/dangcaominh/STM32MP1/optee-os/optee-os/lib/libutee/tee_api.c:751
    1b0a:	2101      	movs	r1, #1
    1b0c:	f7ff fb8a 	bl	1224 <buf_overlaps_no_share_heap>
TEE_Free():
/home/dangcaominh/STM32MP1/optee-os/optee-os/lib/libutee/tee_api.c:793 (discriminator 1)
    1b10:	b140      	cbz	r0, 1b24 <TEE_Free+0x28>
/home/dangcaominh/STM32MP1/optee-os/optee-os/lib/libutee/tee_api.c:794
    1b12:	4b08      	ldr	r3, [pc, #32]	@ (1b34 <TEE_Free+0x38>)
    1b14:	4620      	mov	r0, r4
    1b16:	2200      	movs	r2, #0
    1b18:	58eb      	ldr	r3, [r5, r3]
    1b1a:	6819      	ldr	r1, [r3, #0]
/home/dangcaominh/STM32MP1/optee-os/optee-os/lib/libutee/tee_api.c:798
    1b1c:	e8bd 4038 	ldmia.w	sp!, {r3, r4, r5, lr}
/home/dangcaominh/STM32MP1/optee-os/optee-os/lib/libutee/tee_api.c:794
    1b20:	f006 bdb4 	b.w	868c <raw_free>
/home/dangcaominh/STM32MP1/optee-os/optee-os/lib/libutee/tee_api.c:796
    1b24:	4620      	mov	r0, r4
/home/dangcaominh/STM32MP1/optee-os/optee-os/lib/libutee/tee_api.c:798
    1b26:	e8bd 4038 	ldmia.w	sp!, {r3, r4, r5, lr}
/home/dangcaominh/STM32MP1/optee-os/optee-os/lib/libutee/tee_api.c:796
    1b2a:	f006 be6e 	b.w	880a <free>
/home/dangcaominh/STM32MP1/optee-os/optee-os/lib/libutee/tee_api.c:798
    1b2e:	bd38      	pop	{r3, r4, r5, pc}
    1b30:	0000857e 	.word	0x0000857e
    1b34:	00000044 	.word	0x00000044

00001b38 <TEE_Realloc>:
TEE_Realloc():
/home/dangcaominh/STM32MP1/optee-os/optee-os/lib/libutee/tee_api.c:755
    1b38:	b573      	push	{r0, r1, r4, r5, r6, lr}
    1b3a:	4605      	mov	r5, r0
    1b3c:	4c1e      	ldr	r4, [pc, #120]	@ (1bb8 <TEE_Realloc+0x80>)
/home/dangcaominh/STM32MP1/optee-os/optee-os/lib/libutee/tee_api.c:756
    1b3e:	460e      	mov	r6, r1
/home/dangcaominh/STM32MP1/optee-os/optee-os/lib/libutee/tee_api.c:755
    1b40:	447c      	add	r4, pc
/home/dangcaominh/STM32MP1/optee-os/optee-os/lib/libutee/tee_api.c:756
    1b42:	b961      	cbnz	r1, 1b5e <TEE_Realloc+0x26>
addr_is_in_no_share_heap():
/home/dangcaominh/STM32MP1/optee-os/optee-os/lib/libutee/tee_api.c:751
    1b44:	2101      	movs	r1, #1
    1b46:	f7ff fb6d 	bl	1224 <buf_overlaps_no_share_heap>
TEE_Realloc():
/home/dangcaominh/STM32MP1/optee-os/optee-os/lib/libutee/tee_api.c:760
    1b4a:	2800      	cmp	r0, #0
/home/dangcaominh/STM32MP1/optee-os/optee-os/lib/libutee/tee_api.c:764
    1b4c:	4628      	mov	r0, r5
/home/dangcaominh/STM32MP1/optee-os/optee-os/lib/libutee/tee_api.c:760
    1b4e:	bf0c      	ite	eq
    1b50:	2401      	moveq	r4, #1
    1b52:	2402      	movne	r4, #2
/home/dangcaominh/STM32MP1/optee-os/optee-os/lib/libutee/tee_api.c:764
    1b54:	f7ff ffd2 	bl	1afc <TEE_Free>
/home/dangcaominh/STM32MP1/optee-os/optee-os/lib/libutee/tee_api.c:782
    1b58:	4620      	mov	r0, r4
    1b5a:	b002      	add	sp, #8
    1b5c:	bd70      	pop	{r4, r5, r6, pc}
/home/dangcaominh/STM32MP1/optee-os/optee-os/lib/libutee/tee_api.c:769
    1b5e:	2801      	cmp	r0, #1
    1b60:	d104      	bne.n	1b6c <TEE_Realloc+0x34>
/home/dangcaominh/STM32MP1/optee-os/optee-os/lib/libutee/tee_api.c:782
    1b62:	b002      	add	sp, #8
    1b64:	e8bd 4070 	ldmia.w	sp!, {r4, r5, r6, lr}
/home/dangcaominh/STM32MP1/optee-os/optee-os/lib/libutee/tee_api.c:770
    1b68:	f006 be18 	b.w	879c <calloc>
/home/dangcaominh/STM32MP1/optee-os/optee-os/lib/libutee/tee_api.c:771
    1b6c:	2802      	cmp	r0, #2
    1b6e:	d10d      	bne.n	1b8c <TEE_Realloc+0x54>
/home/dangcaominh/STM32MP1/optee-os/optee-os/lib/libutee/tee_api.c:772
    1b70:	4b12      	ldr	r3, [pc, #72]	@ (1bbc <TEE_Realloc+0x84>)
    1b72:	58e3      	ldr	r3, [r4, r3]
    1b74:	681c      	ldr	r4, [r3, #0]
    1b76:	2c00      	cmp	r4, #0
    1b78:	d0ee      	beq.n	1b58 <TEE_Realloc+0x20>
/home/dangcaominh/STM32MP1/optee-os/optee-os/lib/libutee/tee_api.c:774
    1b7a:	9400      	str	r4, [sp, #0]
    1b7c:	460b      	mov	r3, r1
    1b7e:	2100      	movs	r1, #0
    1b80:	2201      	movs	r2, #1
    1b82:	4608      	mov	r0, r1
    1b84:	f006 fd86 	bl	8694 <raw_calloc>
/home/dangcaominh/STM32MP1/optee-os/optee-os/lib/libutee/tee_api.c:778
    1b88:	4604      	mov	r4, r0
    1b8a:	e7e5      	b.n	1b58 <TEE_Realloc+0x20>
addr_is_in_no_share_heap():
/home/dangcaominh/STM32MP1/optee-os/optee-os/lib/libutee/tee_api.c:751
    1b8c:	2101      	movs	r1, #1
    1b8e:	f7ff fb49 	bl	1224 <buf_overlaps_no_share_heap>
TEE_Realloc():
/home/dangcaominh/STM32MP1/optee-os/optee-os/lib/libutee/tee_api.c:777 (discriminator 1)
    1b92:	b150      	cbz	r0, 1baa <TEE_Realloc+0x72>
/home/dangcaominh/STM32MP1/optee-os/optee-os/lib/libutee/tee_api.c:778
    1b94:	4b09      	ldr	r3, [pc, #36]	@ (1bbc <TEE_Realloc+0x84>)
    1b96:	2200      	movs	r2, #0
    1b98:	4611      	mov	r1, r2
    1b9a:	4628      	mov	r0, r5
    1b9c:	58e3      	ldr	r3, [r4, r3]
    1b9e:	681b      	ldr	r3, [r3, #0]
    1ba0:	9300      	str	r3, [sp, #0]
    1ba2:	4633      	mov	r3, r6
    1ba4:	f006 fd9e 	bl	86e4 <raw_realloc>
    1ba8:	e7ee      	b.n	1b88 <TEE_Realloc+0x50>
/home/dangcaominh/STM32MP1/optee-os/optee-os/lib/libutee/tee_api.c:781
    1baa:	4631      	mov	r1, r6
    1bac:	4628      	mov	r0, r5
/home/dangcaominh/STM32MP1/optee-os/optee-os/lib/libutee/tee_api.c:782
    1bae:	b002      	add	sp, #8
    1bb0:	e8bd 4070 	ldmia.w	sp!, {r4, r5, r6, lr}
/home/dangcaominh/STM32MP1/optee-os/optee-os/lib/libutee/tee_api.c:781
    1bb4:	f006 be02 	b.w	87bc <realloc>
    1bb8:	00008544 	.word	0x00008544
    1bbc:	00000044 	.word	0x00000044

00001bc0 <__GP11_TEE_Realloc>:
__GP11_TEE_Realloc():
/home/dangcaominh/STM32MP1/optee-os/optee-os/lib/libutee/tee_api.c:786
    1bc0:	f7ff bfba 	b.w	1b38 <TEE_Realloc>

00001bc4 <TEE_CacheClean>:
TEE_CacheClean():
/home/dangcaominh/STM32MP1/optee-os/optee-os/lib/libutee/tee_api.c:803
    1bc4:	2200      	movs	r2, #0
    1bc6:	f007 b8c7 	b.w	8d58 <___utee_cache_operation_from_thumb>

00001bca <TEE_CacheFlush>:
TEE_CacheFlush():
/home/dangcaominh/STM32MP1/optee-os/optee-os/lib/libutee/tee_api.c:807
    1bca:	2201      	movs	r2, #1
    1bcc:	f007 b8c4 	b.w	8d58 <___utee_cache_operation_from_thumb>

00001bd0 <TEE_CacheInvalidate>:
TEE_CacheInvalidate():
/home/dangcaominh/STM32MP1/optee-os/optee-os/lib/libutee/tee_api.c:812
    1bd0:	2202      	movs	r2, #2
    1bd2:	f007 b8c1 	b.w	8d58 <___utee_cache_operation_from_thumb>
    1bd6:	bf00      	nop

00001bd8 <check_access>:
check_access():
/home/dangcaominh/STM32MP1/optee-os/optee-os/lib/libutee/tee_api_panic.c:40
    1bd8:	4613      	mov	r3, r2
/home/dangcaominh/STM32MP1/optee-os/optee-os/lib/libutee/tee_api_panic.c:39
    1bda:	b410      	push	{r4}
/home/dangcaominh/STM32MP1/optee-os/optee-os/lib/libutee/tee_api_panic.c:40
    1bdc:	b12a      	cbz	r2, 1bea <check_access+0x12>
/home/dangcaominh/STM32MP1/optee-os/optee-os/lib/libutee/tee_api_panic.c:43
    1bde:	b119      	cbz	r1, 1be8 <check_access+0x10>
/home/dangcaominh/STM32MP1/optee-os/optee-os/lib/libutee/tee_api_panic.c:50
    1be0:	f85d 4b04 	ldr.w	r4, [sp], #4
/home/dangcaominh/STM32MP1/optee-os/optee-os/lib/libutee/tee_api_panic.c:47
    1be4:	f7ff bc46 	b.w	1474 <TEE_CheckMemoryAccessRights>
/home/dangcaominh/STM32MP1/optee-os/optee-os/lib/libutee/tee_api_panic.c:44
    1be8:	4b02      	ldr	r3, [pc, #8]	@ (1bf4 <check_access+0x1c>)
/home/dangcaominh/STM32MP1/optee-os/optee-os/lib/libutee/tee_api_panic.c:50
    1bea:	f85d 4b04 	ldr.w	r4, [sp], #4
    1bee:	4618      	mov	r0, r3
    1bf0:	4770      	bx	lr
    1bf2:	bf00      	nop
    1bf4:	ffff000f 	.word	0xffff000f

00001bf8 <TEE_Panic>:
TEE_Panic():
/home/dangcaominh/STM32MP1/optee-os/optee-os/lib/libutee/tee_api_panic.c:24
    1bf8:	f007 b8a6 	b.w	8d48 <___utee_panic_from_thumb>

00001bfc <check_res.part.0>:
check_res():
/home/dangcaominh/STM32MP1/optee-os/optee-os/lib/libutee/tee_api_panic.c:34
    1bfc:	2000      	movs	r0, #0
    1bfe:	f7ff bffb 	b.w	1bf8 <TEE_Panic>

00001c02 <__utee_check_outbuf_annotation>:
__utee_check_outbuf_annotation():
/home/dangcaominh/STM32MP1/optee-os/optee-os/lib/libutee/tee_api_panic.c:53
    1c02:	b538      	push	{r3, r4, r5, lr}
    1c04:	4605      	mov	r5, r0
check_access():
/home/dangcaominh/STM32MP1/optee-os/optee-os/lib/libutee/tee_api_panic.c:43
    1c06:	460c      	mov	r4, r1
    1c08:	b951      	cbnz	r1, 1c20 <__utee_check_outbuf_annotation+0x1e>
check_res():
/home/dangcaominh/STM32MP1/optee-os/optee-os/lib/libutee/tee_api_panic.c:43
    1c0a:	f7ff fff7 	bl	1bfc <check_res.part.0>
__utee_check_outbuf_annotation():
/home/dangcaominh/STM32MP1/optee-os/optee-os/lib/libutee/tee_api_panic.c:56
    1c0e:	6822      	ldr	r2, [r4, #0]
    1c10:	4629      	mov	r1, r5
    1c12:	2006      	movs	r0, #6
    1c14:	f7ff ffe0 	bl	1bd8 <check_access>
check_res():
/home/dangcaominh/STM32MP1/optee-os/optee-os/lib/libutee/tee_api_panic.c:32
    1c18:	b148      	cbz	r0, 1c2e <__utee_check_outbuf_annotation+0x2c>
__utee_check_outbuf_annotation():
/home/dangcaominh/STM32MP1/optee-os/optee-os/lib/libutee/tee_api_panic.c:58
    1c1a:	e8bd 4038 	ldmia.w	sp!, {r3, r4, r5, lr}
check_res():
/home/dangcaominh/STM32MP1/optee-os/optee-os/lib/libutee/tee_api_panic.c:58
    1c1e:	e7ed      	b.n	1bfc <check_res.part.0>
check_access():
/home/dangcaominh/STM32MP1/optee-os/optee-os/lib/libutee/tee_api_panic.c:47
    1c20:	2204      	movs	r2, #4
    1c22:	2003      	movs	r0, #3
    1c24:	f7ff fc26 	bl	1474 <TEE_CheckMemoryAccessRights>
check_res():
/home/dangcaominh/STM32MP1/optee-os/optee-os/lib/libutee/tee_api_panic.c:32
    1c28:	2800      	cmp	r0, #0
    1c2a:	d0f0      	beq.n	1c0e <__utee_check_outbuf_annotation+0xc>
    1c2c:	e7ed      	b.n	1c0a <__utee_check_outbuf_annotation+0x8>
__utee_check_outbuf_annotation():
/home/dangcaominh/STM32MP1/optee-os/optee-os/lib/libutee/tee_api_panic.c:58
    1c2e:	bd38      	pop	{r3, r4, r5, pc}

00001c30 <__utee_check_gp11_outbuf_annotation>:
__utee_check_gp11_outbuf_annotation():
/home/dangcaominh/STM32MP1/optee-os/optee-os/lib/libutee/tee_api_panic.c:60
    1c30:	e7e7      	b.n	1c02 <__utee_check_outbuf_annotation>

00001c32 <__utee_check_instring_annotation>:
__utee_check_instring_annotation():
/home/dangcaominh/STM32MP1/optee-os/optee-os/lib/libutee/tee_api_panic.c:69
    1c32:	b510      	push	{r4, lr}
    1c34:	4604      	mov	r4, r0
/home/dangcaominh/STM32MP1/optee-os/optee-os/lib/libutee/tee_api_panic.c:71
    1c36:	f007 f81f 	bl	8c78 <strlen>
/home/dangcaominh/STM32MP1/optee-os/optee-os/lib/libutee/tee_api_panic.c:70
    1c3a:	1c42      	adds	r2, r0, #1
    1c3c:	4621      	mov	r1, r4
    1c3e:	2001      	movs	r0, #1
    1c40:	f7ff ffca 	bl	1bd8 <check_access>
check_res():
/home/dangcaominh/STM32MP1/optee-os/optee-os/lib/libutee/tee_api_panic.c:32
    1c44:	b110      	cbz	r0, 1c4c <__utee_check_instring_annotation+0x1a>
__utee_check_instring_annotation():
/home/dangcaominh/STM32MP1/optee-os/optee-os/lib/libutee/tee_api_panic.c:72
    1c46:	e8bd 4010 	ldmia.w	sp!, {r4, lr}
check_res():
/home/dangcaominh/STM32MP1/optee-os/optee-os/lib/libutee/tee_api_panic.c:72
    1c4a:	e7d7      	b.n	1bfc <check_res.part.0>
__utee_check_instring_annotation():
/home/dangcaominh/STM32MP1/optee-os/optee-os/lib/libutee/tee_api_panic.c:72
    1c4c:	bd10      	pop	{r4, pc}

00001c4e <__utee_check_outstring_annotation>:
__utee_check_outstring_annotation():
/home/dangcaominh/STM32MP1/optee-os/optee-os/lib/libutee/tee_api_panic.c:74
    1c4e:	e7d8      	b.n	1c02 <__utee_check_outbuf_annotation>

00001c50 <__utee_check_gp11_outstring_annotation>:
__utee_check_gp11_outstring_annotation():
/home/dangcaominh/STM32MP1/optee-os/optee-os/lib/libutee/tee_api_panic.c:82
    1c50:	e7d7      	b.n	1c02 <__utee_check_outbuf_annotation>

00001c52 <__utee_check_out_annotation>:
__utee_check_out_annotation():
/home/dangcaominh/STM32MP1/optee-os/optee-os/lib/libutee/tee_api_panic.c:91
    1c52:	460a      	mov	r2, r1
/home/dangcaominh/STM32MP1/optee-os/optee-os/lib/libutee/tee_api_panic.c:92
    1c54:	4601      	mov	r1, r0
/home/dangcaominh/STM32MP1/optee-os/optee-os/lib/libutee/tee_api_panic.c:91
    1c56:	b508      	push	{r3, lr}
/home/dangcaominh/STM32MP1/optee-os/optee-os/lib/libutee/tee_api_panic.c:92
    1c58:	2002      	movs	r0, #2
    1c5a:	f7ff ffbd 	bl	1bd8 <check_access>
check_res():
/home/dangcaominh/STM32MP1/optee-os/optee-os/lib/libutee/tee_api_panic.c:32
    1c5e:	b110      	cbz	r0, 1c66 <__utee_check_out_annotation+0x14>
__utee_check_out_annotation():
/home/dangcaominh/STM32MP1/optee-os/optee-os/lib/libutee/tee_api_panic.c:94
    1c60:	e8bd 4008 	ldmia.w	sp!, {r3, lr}
check_res():
/home/dangcaominh/STM32MP1/optee-os/optee-os/lib/libutee/tee_api_panic.c:94
    1c64:	e7ca      	b.n	1bfc <check_res.part.0>
__utee_check_out_annotation():
/home/dangcaominh/STM32MP1/optee-os/optee-os/lib/libutee/tee_api_panic.c:94
    1c66:	bd08      	pop	{r3, pc}

00001c68 <__utee_check_attr_in_annotation>:
__utee_check_attr_in_annotation():
/home/dangcaominh/STM32MP1/optee-os/optee-os/lib/libutee/tee_api_panic.c:98
    1c68:	220c      	movs	r2, #12
    1c6a:	434a      	muls	r2, r1
/home/dangcaominh/STM32MP1/optee-os/optee-os/lib/libutee/tee_api_panic.c:97
    1c6c:	b508      	push	{r3, lr}
/home/dangcaominh/STM32MP1/optee-os/optee-os/lib/libutee/tee_api_panic.c:98
    1c6e:	4601      	mov	r1, r0
    1c70:	2001      	movs	r0, #1
    1c72:	f7ff ffb1 	bl	1bd8 <check_access>
check_res():
/home/dangcaominh/STM32MP1/optee-os/optee-os/lib/libutee/tee_api_panic.c:32
    1c76:	b110      	cbz	r0, 1c7e <__utee_check_attr_in_annotation+0x16>
__utee_check_attr_in_annotation():
/home/dangcaominh/STM32MP1/optee-os/optee-os/lib/libutee/tee_api_panic.c:100
    1c78:	e8bd 4008 	ldmia.w	sp!, {r3, lr}
check_res():
/home/dangcaominh/STM32MP1/optee-os/optee-os/lib/libutee/tee_api_panic.c:100
    1c7c:	e7be      	b.n	1bfc <check_res.part.0>
__utee_check_attr_in_annotation():
/home/dangcaominh/STM32MP1/optee-os/optee-os/lib/libutee/tee_api_panic.c:100
    1c7e:	bd08      	pop	{r3, pc}

00001c80 <__utee_check_gp11_attr_in_annotation>:
__utee_check_gp11_attr_in_annotation():
/home/dangcaominh/STM32MP1/optee-os/optee-os/lib/libutee/tee_api_panic.c:102
    1c80:	e7f2      	b.n	1c68 <__utee_check_attr_in_annotation>

00001c82 <__utee_check_inout_annotation>:
__utee_check_inout_annotation():
