Archive member included to satisfy reference by file (symbol)

./../build/optee-nor-stm32mp157d-ev1/lib/libfdt.a(fdt.o)
                              ./../build/optee-nor-stm32mp157d-ev1/bl2/fconf.o (fdt_check_header)
./../build/optee-nor-stm32mp157d-ev1/lib/libfdt.a(fdt_addresses.o)
                              ./../build/optee-nor-stm32mp157d-ev1/bl2/fdt_wrappers.o (fdt_address_cells)
./../build/optee-nor-stm32mp157d-ev1/lib/libfdt.a(fdt_ro.o)
                              ./../build/optee-nor-stm32mp157d-ev1/bl2/fdt_wrappers.o (fdt_get_name)
./../build/optee-nor-stm32mp157d-ev1/lib/libfdt.a(fdt_rw.o)
                              ./../build/optee-nor-stm32mp157d-ev1/lib/libfdt.a(fdt_addresses.o) (fdt_appendprop)
./../build/optee-nor-stm32mp157d-ev1/lib/libfdt.a(fdt_strerror.o)
                              ./../build/optee-nor-stm32mp157d-ev1/bl2/fdt_wrappers.o (fdt_strerror)
./../build/optee-nor-stm32mp157d-ev1/lib/libfdt.a(fdt_wip.o)
                              ./../build/optee-nor-stm32mp157d-ev1/bl2/fdt_wrappers.o (fdt_setprop_inplace_namelen_partial)
./../build/optee-nor-stm32mp157d-ev1/lib/libc.a(assert.o)
                              ./../build/optee-nor-stm32mp157d-ev1/bl2/bl2_image_load_v2.o (__assert)
./../build/optee-nor-stm32mp157d-ev1/lib/libc.a(memchr.o)
                              ./../build/optee-nor-stm32mp157d-ev1/lib/libfdt.a(fdt_ro.o) (memchr)
./../build/optee-nor-stm32mp157d-ev1/lib/libc.a(memcmp.o)
                              ./../build/optee-nor-stm32mp157d-ev1/bl2/uuid.o (memcmp)
./../build/optee-nor-stm32mp157d-ev1/lib/libc.a(memcpy.o)
                              ./../build/optee-nor-stm32mp157d-ev1/bl2/fdt_wrappers.o (memcpy)
./../build/optee-nor-stm32mp157d-ev1/lib/libc.a(memmove.o)
                              ./../build/optee-nor-stm32mp157d-ev1/bl2/xlat_tables_core.o (memmove)
./../build/optee-nor-stm32mp157d-ev1/lib/libc.a(memset.o)
                              ./../build/optee-nor-stm32mp157d-ev1/bl2/uuid.o (memset)
./../build/optee-nor-stm32mp157d-ev1/lib/libc.a(printf.o)
                              ./../build/optee-nor-stm32mp157d-ev1/bl2/tf_log.o (vprintf)
./../build/optee-nor-stm32mp157d-ev1/lib/libc.a(snprintf.o)
                              ./../build/optee-nor-stm32mp157d-ev1/bl2/stm32mp1_clk.o (snprintf)
./../build/optee-nor-stm32mp157d-ev1/lib/libc.a(strchr.o)
                              ./../build/optee-nor-stm32mp157d-ev1/bl2/fdt_wrappers.o (strchr)
./../build/optee-nor-stm32mp157d-ev1/lib/libc.a(strcmp.o)
                              ./../build/optee-nor-stm32mp157d-ev1/bl2/stm32mp_pmic.o (strcmp)
./../build/optee-nor-stm32mp157d-ev1/lib/libc.a(strlcpy.o)
                              ./../build/optee-nor-stm32mp157d-ev1/bl2/fdt_wrappers.o (strlcpy)
./../build/optee-nor-stm32mp157d-ev1/lib/libc.a(strlen.o)
                              ./../build/optee-nor-stm32mp157d-ev1/bl2/fdt_wrappers.o (strlen)
./../build/optee-nor-stm32mp157d-ev1/lib/libc.a(strncmp.o)
                              ./../build/optee-nor-stm32mp157d-ev1/bl2/fdt_wrappers.o (strncmp)
./../build/optee-nor-stm32mp157d-ev1/lib/libc.a(strnlen.o)
                              ./../build/optee-nor-stm32mp157d-ev1/bl2/uuid.o (strnlen)
./../build/optee-nor-stm32mp157d-ev1/lib/libc.a(strrchr.o)
                              ./../build/optee-nor-stm32mp157d-ev1/lib/libfdt.a(fdt_ro.o) (strrchr)

Discarded input sections

 .text          0x00000000        0x0 ./../build/optee-nor-stm32mp157d-ev1/bl2/build_message.o
 .data          0x00000000        0x0 ./../build/optee-nor-stm32mp157d-ev1/bl2/build_message.o
 .bss           0x00000000        0x0 ./../build/optee-nor-stm32mp157d-ev1/bl2/build_message.o
 .rodata.version
                0x00000000        0x8 ./../build/optee-nor-stm32mp157d-ev1/bl2/build_message.o
 .text          0x00000000        0x0 ./../build/optee-nor-stm32mp157d-ev1/bl2/bl2_arch_setup.o
 .data          0x00000000        0x0 ./../build/optee-nor-stm32mp157d-ev1/bl2/bl2_arch_setup.o
 .bss           0x00000000        0x0 ./../build/optee-nor-stm32mp157d-ev1/bl2/bl2_arch_setup.o
 .text          0x00000000        0x0 ./../build/optee-nor-stm32mp157d-ev1/bl2/bl2_image_load_v2.o
 .data          0x00000000        0x0 ./../build/optee-nor-stm32mp157d-ev1/bl2/bl2_image_load_v2.o
 .bss           0x00000000        0x0 ./../build/optee-nor-stm32mp157d-ev1/bl2/bl2_image_load_v2.o
 .text          0x00000000        0x0 ./../build/optee-nor-stm32mp157d-ev1/bl2/bl2_main.o
 .data          0x00000000        0x0 ./../build/optee-nor-stm32mp157d-ev1/bl2/bl2_main.o
 .bss           0x00000000        0x0 ./../build/optee-nor-stm32mp157d-ev1/bl2/bl2_main.o
 .text          0x00000000        0x0 ./../build/optee-nor-stm32mp157d-ev1/bl2/bl_common.o
 .data          0x00000000        0x0 ./../build/optee-nor-stm32mp157d-ev1/bl2/bl_common.o
 .bss           0x00000000        0x0 ./../build/optee-nor-stm32mp157d-ev1/bl2/bl_common.o
 .text.page_align
                0x00000000       0x14 ./../build/optee-nor-stm32mp157d-ev1/bl2/bl_common.o
 .text.get_version
                0x00000000        0x8 ./../build/optee-nor-stm32mp157d-ev1/bl2/bl_common.o
 .text          0x00000000        0x0 ./../build/optee-nor-stm32mp157d-ev1/bl2/desc_image_load.o
 .data          0x00000000        0x0 ./../build/optee-nor-stm32mp157d-ev1/bl2/desc_image_load.o
 .bss           0x00000000        0x0 ./../build/optee-nor-stm32mp157d-ev1/bl2/desc_image_load.o
 .text.bl31_params_parse_helper
                0x00000000       0x98 ./../build/optee-nor-stm32mp157d-ev1/bl2/desc_image_load.o
 .text          0x00000000        0x0 ./../build/optee-nor-stm32mp157d-ev1/bl2/fdt_wrappers.o
 .data          0x00000000        0x0 ./../build/optee-nor-stm32mp157d-ev1/bl2/fdt_wrappers.o
 .bss           0x00000000        0x0 ./../build/optee-nor-stm32mp157d-ev1/bl2/fdt_wrappers.o
 .text.fdt_read_uint64_default
                0x00000000       0x20 ./../build/optee-nor-stm32mp157d-ev1/bl2/fdt_wrappers.o
 .text.fdtw_read_bytes
                0x00000000       0x84 ./../build/optee-nor-stm32mp157d-ev1/bl2/fdt_wrappers.o
 .rodata.fdtw_write_inplace_cells.str1.1
                0x00000000       0x2a ./../build/optee-nor-stm32mp157d-ev1/bl2/fdt_wrappers.o
 .text.fdtw_write_inplace_cells
                0x00000000       0x70 ./../build/optee-nor-stm32mp157d-ev1/bl2/fdt_wrappers.o
 .rodata.fdtw_write_inplace_bytes.str1.1
                0x00000000       0x27 ./../build/optee-nor-stm32mp157d-ev1/bl2/fdt_wrappers.o
 .text.fdtw_write_inplace_bytes
                0x00000000       0xac ./../build/optee-nor-stm32mp157d-ev1/bl2/fdt_wrappers.o
 .rodata.fdtw_translate_address.str1.1
                0x00000000       0x6d ./../build/optee-nor-stm32mp157d-ev1/bl2/fdt_wrappers.o
 .text.fdtw_translate_address
                0x00000000      0x164 ./../build/optee-nor-stm32mp157d-ev1/bl2/fdt_wrappers.o
 .rodata.fdtw_for_each_cpu.str1.1
                0x00000000        0xb ./../build/optee-nor-stm32mp157d-ev1/bl2/fdt_wrappers.o
 .text.fdtw_for_each_cpu
                0x00000000       0x7c ./../build/optee-nor-stm32mp157d-ev1/bl2/fdt_wrappers.o
 .rodata.fdtw_find_or_add_subnode.str1.1
                0x00000000        0xd ./../build/optee-nor-stm32mp157d-ev1/bl2/fdt_wrappers.o
 .text.fdtw_find_or_add_subnode
                0x00000000       0x40 ./../build/optee-nor-stm32mp157d-ev1/bl2/fdt_wrappers.o
 .rodata.__func__.0
                0x00000000       0x19 ./../build/optee-nor-stm32mp157d-ev1/bl2/fdt_wrappers.o
 .text          0x00000000        0x0 ./../build/optee-nor-stm32mp157d-ev1/bl2/tf_log.o
 .data          0x00000000        0x0 ./../build/optee-nor-stm32mp157d-ev1/bl2/tf_log.o
 .bss           0x00000000        0x0 ./../build/optee-nor-stm32mp157d-ev1/bl2/tf_log.o
 .text.tf_log_newline
                0x00000000       0x3c ./../build/optee-nor-stm32mp157d-ev1/bl2/tf_log.o
 .text.tf_log_set_max_level
                0x00000000       0x30 ./../build/optee-nor-stm32mp157d-ev1/bl2/tf_log.o
 .text          0x00000000        0x0 ./../build/optee-nor-stm32mp157d-ev1/bl2/uuid.o
 .data          0x00000000        0x0 ./../build/optee-nor-stm32mp157d-ev1/bl2/uuid.o
 .bss           0x00000000        0x0 ./../build/optee-nor-stm32mp157d-ev1/bl2/uuid.o
 .text.uuid_match
                0x00000000       0x10 ./../build/optee-nor-stm32mp157d-ev1/bl2/uuid.o
 .text.copy_uuid
                0x00000000       0x12 ./../build/optee-nor-stm32mp157d-ev1/bl2/uuid.o
 .text.is_null_uuid
                0x00000000       0x20 ./../build/optee-nor-stm32mp157d-ev1/bl2/uuid.o
 .text          0x00000000        0x0 ./../build/optee-nor-stm32mp157d-ev1/bl2/tzc400.o
 .data          0x00000000        0x0 ./../build/optee-nor-stm32mp157d-ev1/bl2/tzc400.o
 .bss           0x00000000        0x0 ./../build/optee-nor-stm32mp157d-ev1/bl2/tzc400.o
 .rodata.tzc400_it_handler.str1.1
                0x00000000       0x93 ./../build/optee-nor-stm32mp157d-ev1/bl2/tzc400.o
 .text.tzc400_it_handler
                0x00000000       0xac ./../build/optee-nor-stm32mp157d-ev1/bl2/tzc400.o
 .text          0x00000000        0x0 ./../build/optee-nor-stm32mp157d-ev1/bl2/clk.o
 .data          0x00000000        0x0 ./../build/optee-nor-stm32mp157d-ev1/bl2/clk.o
 .bss           0x00000000        0x0 ./../build/optee-nor-stm32mp157d-ev1/bl2/clk.o
 .text.clk_get_parent
                0x00000000       0x24 ./../build/optee-nor-stm32mp157d-ev1/bl2/clk.o
 .text          0x00000000        0x0 ./../build/optee-nor-stm32mp157d-ev1/bl2/multi_console.o
 .data          0x00000000        0x0 ./../build/optee-nor-stm32mp157d-ev1/bl2/multi_console.o
 .bss           0x00000000        0x0 ./../build/optee-nor-stm32mp157d-ev1/bl2/multi_console.o
 .text.console_unregister
                0x00000000       0x2c ./../build/optee-nor-stm32mp157d-ev1/bl2/multi_console.o
 .text.console_switch_state
                0x00000000        0xc ./../build/optee-nor-stm32mp157d-ev1/bl2/multi_console.o
 .text          0x00000000        0x0 ./../build/optee-nor-stm32mp157d-ev1/bl2/delay_timer.o
 .data          0x00000000        0x0 ./../build/optee-nor-stm32mp157d-ev1/bl2/delay_timer.o
 .bss           0x00000000        0x0 ./../build/optee-nor-stm32mp157d-ev1/bl2/delay_timer.o
 .text          0x00000000        0x0 ./../build/optee-nor-stm32mp157d-ev1/bl2/generic_delay_timer.o
 .data          0x00000000        0x0 ./../build/optee-nor-stm32mp157d-ev1/bl2/generic_delay_timer.o
 .bss           0x00000000        0x0 ./../build/optee-nor-stm32mp157d-ev1/bl2/generic_delay_timer.o
 .text          0x00000000        0x0 ./../build/optee-nor-stm32mp157d-ev1/bl2/fwu.o
 .data          0x00000000        0x0 ./../build/optee-nor-stm32mp157d-ev1/bl2/fwu.o
 .bss           0x00000000        0x0 ./../build/optee-nor-stm32mp157d-ev1/bl2/fwu.o
 .text.fwu_get_active_bank_state
                0x00000000       0x3c ./../build/optee-nor-stm32mp157d-ev1/bl2/fwu.o
 .text          0x00000000        0x0 ./../build/optee-nor-stm32mp157d-ev1/bl2/io_block.o
 .data          0x00000000        0x0 ./../build/optee-nor-stm32mp157d-ev1/bl2/io_block.o
 .bss           0x00000000        0x0 ./../build/optee-nor-stm32mp157d-ev1/bl2/io_block.o
 .text.device_type_block
                0x00000000        0x4 ./../build/optee-nor-stm32mp157d-ev1/bl2/io_block.o
 .text.block_close
                0x00000000        0x8 ./../build/optee-nor-stm32mp157d-ev1/bl2/io_block.o
 .rodata.block_seek.str1.1
                0x00000000       0x16 ./../build/optee-nor-stm32mp157d-ev1/bl2/io_block.o
 .text.block_seek
                0x00000000       0x54 ./../build/optee-nor-stm32mp157d-ev1/bl2/io_block.o
 .text.block_open
                0x00000000       0x4c ./../build/optee-nor-stm32mp157d-ev1/bl2/io_block.o
 .text.block_write
                0x00000000      0x11c ./../build/optee-nor-stm32mp157d-ev1/bl2/io_block.o
 .text.block_read
                0x00000000       0xe4 ./../build/optee-nor-stm32mp157d-ev1/bl2/io_block.o
 .text.block_dev_close
                0x00000000       0x48 ./../build/optee-nor-stm32mp157d-ev1/bl2/io_block.o
 .text.block_dev_open
                0x00000000       0x78 ./../build/optee-nor-stm32mp157d-ev1/bl2/io_block.o
 .text.register_io_dev_block
                0x00000000       0x2c ./../build/optee-nor-stm32mp157d-ev1/bl2/io_block.o
 .bss.block_dev_count
                0x00000000        0x4 ./../build/optee-nor-stm32mp157d-ev1/bl2/io_block.o
 .bss.dev_info_pool
                0x00000000        0x8 ./../build/optee-nor-stm32mp157d-ev1/bl2/io_block.o
 .bss.state_pool
                0x00000000       0x18 ./../build/optee-nor-stm32mp157d-ev1/bl2/io_block.o
 .rodata.block_dev_funcs
                0x00000000       0x24 ./../build/optee-nor-stm32mp157d-ev1/bl2/io_block.o
 .rodata.block_dev_connector
                0x00000000        0x4 ./../build/optee-nor-stm32mp157d-ev1/bl2/io_block.o
 .debug_info    0x00000000      0xe6e ./../build/optee-nor-stm32mp157d-ev1/bl2/io_block.o
 .debug_abbrev  0x00000000      0x342 ./../build/optee-nor-stm32mp157d-ev1/bl2/io_block.o
 .debug_loc     0x00000000      0xdcb ./../build/optee-nor-stm32mp157d-ev1/bl2/io_block.o
 .debug_aranges
                0x00000000       0x60 ./../build/optee-nor-stm32mp157d-ev1/bl2/io_block.o
 .debug_ranges  0x00000000       0xf8 ./../build/optee-nor-stm32mp157d-ev1/bl2/io_block.o
 .debug_line    0x00000000      0x77f ./../build/optee-nor-stm32mp157d-ev1/bl2/io_block.o
 .debug_str     0x00000000      0x66f ./../build/optee-nor-stm32mp157d-ev1/bl2/io_block.o
 .comment       0x00000000       0x13 ./../build/optee-nor-stm32mp157d-ev1/bl2/io_block.o
 .note.GNU-stack
                0x00000000        0x0 ./../build/optee-nor-stm32mp157d-ev1/bl2/io_block.o
 .debug_frame   0x00000000      0x114 ./../build/optee-nor-stm32mp157d-ev1/bl2/io_block.o
 .ARM.attributes
                0x00000000       0x33 ./../build/optee-nor-stm32mp157d-ev1/bl2/io_block.o
 .text          0x00000000        0x0 ./../build/optee-nor-stm32mp157d-ev1/bl2/io_fip.o
 .data          0x00000000        0x0 ./../build/optee-nor-stm32mp157d-ev1/bl2/io_fip.o
 .bss           0x00000000        0x0 ./../build/optee-nor-stm32mp157d-ev1/bl2/io_fip.o
 .text.fip_dev_get_plat_toc_flag
                0x00000000       0x1c ./../build/optee-nor-stm32mp157d-ev1/bl2/io_fip.o
 .text          0x00000000        0x0 ./../build/optee-nor-stm32mp157d-ev1/bl2/io_mtd.o
 .data          0x00000000        0x0 ./../build/optee-nor-stm32mp157d-ev1/bl2/io_mtd.o
 .bss           0x00000000        0x0 ./../build/optee-nor-stm32mp157d-ev1/bl2/io_mtd.o
 .text          0x00000000        0x0 ./../build/optee-nor-stm32mp157d-ev1/bl2/io_storage.o
 .data          0x00000000        0x0 ./../build/optee-nor-stm32mp157d-ev1/bl2/io_storage.o
 .bss           0x00000000        0x0 ./../build/optee-nor-stm32mp157d-ev1/bl2/io_storage.o
 .text.io_write
                0x00000000       0x48 ./../build/optee-nor-stm32mp157d-ev1/bl2/io_storage.o
 .text          0x00000000        0x0 ./../build/optee-nor-stm32mp157d-ev1/bl2/spi_nor.o
 .data          0x00000000        0x0 ./../build/optee-nor-stm32mp157d-ev1/bl2/spi_nor.o
 .bss           0x00000000        0x0 ./../build/optee-nor-stm32mp157d-ev1/bl2/spi_nor.o
 .text.plat_get_nor_data
                0x00000000        0x4 ./../build/optee-nor-stm32mp157d-ev1/bl2/spi_nor.o
 .text          0x00000000        0x0 ./../build/optee-nor-stm32mp157d-ev1/bl2/spi_mem.o
 .data          0x00000000        0x0 ./../build/optee-nor-stm32mp157d-ev1/bl2/spi_mem.o
 .bss           0x00000000        0x0 ./../build/optee-nor-stm32mp157d-ev1/bl2/spi_mem.o
 .text.spi_mem_dtr_supports_op
                0x00000000       0x3e ./../build/optee-nor-stm32mp157d-ev1/bl2/spi_mem.o
 .text          0x00000000        0x0 ./../build/optee-nor-stm32mp157d-ev1/bl2/bsec2.o
 .data          0x00000000        0x0 ./../build/optee-nor-stm32mp157d-ev1/bl2/bsec2.o
 .bss           0x00000000        0x0 ./../build/optee-nor-stm32mp157d-ev1/bl2/bsec2.o
 .text.bsec_permanent_lock_otp
                0x00000000       0x98 ./../build/optee-nor-stm32mp157d-ev1/bl2/bsec2.o
 .text.bsec_write_scratch
                0x00000000        0xc ./../build/optee-nor-stm32mp157d-ev1/bl2/bsec2.o
 .text.bsec_set_sr_lock
                0x00000000       0x40 ./../build/optee-nor-stm32mp157d-ev1/bl2/bsec2.o
 .text.bsec_set_sw_lock
                0x00000000       0x40 ./../build/optee-nor-stm32mp157d-ev1/bl2/bsec2.o
 .text.bsec_set_sp_lock
                0x00000000       0x40 ./../build/optee-nor-stm32mp157d-ev1/bl2/bsec2.o
 .text.bsec_get_state
                0x00000000       0x18 ./../build/optee-nor-stm32mp157d-ev1/bl2/bsec2.o
 .text          0x00000000        0x0 ./../build/optee-nor-stm32mp157d-ev1/bl2/stm32mp1_clk.o
 .data          0x00000000        0x0 ./../build/optee-nor-stm32mp157d-ev1/bl2/stm32mp1_clk.o
 .bss           0x00000000        0x0 ./../build/optee-nor-stm32mp157d-ev1/bl2/stm32mp1_clk.o
 .text.clk_mux_get_parent
                0x00000000       0x3c ./../build/optee-nor-stm32mp157d-ev1/bl2/stm32mp1_clk.o
 .text.stm32mp1_rcc_is_secure
                0x00000000        0xe ./../build/optee-nor-stm32mp157d-ev1/bl2/stm32mp1_clk.o
 .text.stm32mp1_rcc_is_mckprot
                0x00000000       0x14 ./../build/optee-nor-stm32mp157d-ev1/bl2/stm32mp1_clk.o
 .text.stm32mp1_clk_mcuss_protect
                0x00000000       0x1a ./../build/optee-nor-stm32mp157d-ev1/bl2/stm32mp1_clk.o
 .text          0x00000000        0x0 ./../build/optee-nor-stm32mp157d-ev1/bl2/stm32mp_clkfunc.o
 .data          0x00000000        0x0 ./../build/optee-nor-stm32mp157d-ev1/bl2/stm32mp_clkfunc.o
 .bss           0x00000000        0x0 ./../build/optee-nor-stm32mp157d-ev1/bl2/stm32mp_clkfunc.o
 .rodata.fdt_get_rcc_node.str1.1
                0x00000000       0x10 ./../build/optee-nor-stm32mp157d-ev1/bl2/stm32mp_clkfunc.o
 .text.fdt_get_rcc_node
                0x00000000       0x24 ./../build/optee-nor-stm32mp157d-ev1/bl2/stm32mp_clkfunc.o
 .text.fdt_rcc_read_uint32_array
                0x00000000       0x36 ./../build/optee-nor-stm32mp157d-ev1/bl2/stm32mp_clkfunc.o
 .text.fdt_rcc_subnode_offset
                0x00000000       0x32 ./../build/optee-nor-stm32mp157d-ev1/bl2/stm32mp_clkfunc.o
 .text.fdt_rcc_read_prop
                0x00000000       0x32 ./../build/optee-nor-stm32mp157d-ev1/bl2/stm32mp_clkfunc.o
 .rodata.fdt_get_uart_clock_freq.str1.1
                0x00000000       0x10 ./../build/optee-nor-stm32mp157d-ev1/bl2/stm32mp_clkfunc.o
 .text.fdt_get_uart_clock_freq
                0x00000000       0x30 ./../build/optee-nor-stm32mp157d-ev1/bl2/stm32mp_clkfunc.o
 .bss.node.0    0x00000000        0x4 ./../build/optee-nor-stm32mp157d-ev1/bl2/stm32mp_clkfunc.o
 .text          0x00000000        0x0 ./../build/optee-nor-stm32mp157d-ev1/bl2/stm32_hash.o
 .data          0x00000000        0x0 ./../build/optee-nor-stm32mp157d-ev1/bl2/stm32_hash.o
 .bss           0x00000000        0x0 ./../build/optee-nor-stm32mp157d-ev1/bl2/stm32_hash.o
 .rodata.hash_write_data.str1.1
                0x00000000       0x13 ./../build/optee-nor-stm32mp157d-ev1/bl2/stm32_hash.o
 .text.hash_write_data
                0x00000000       0x64 ./../build/optee-nor-stm32mp157d-ev1/bl2/stm32_hash.o
 .rodata.stm32_hash_update.str1.1
                0x00000000       0x1f ./../build/optee-nor-stm32mp157d-ev1/bl2/stm32_hash.o
 .text.stm32_hash_update
                0x00000000       0xb8 ./../build/optee-nor-stm32mp157d-ev1/bl2/stm32_hash.o
 .text.stm32_hash_final
                0x00000000       0xfc ./../build/optee-nor-stm32mp157d-ev1/bl2/stm32_hash.o
 .text.stm32_hash_final_update
                0x00000000       0x16 ./../build/optee-nor-stm32mp157d-ev1/bl2/stm32_hash.o
 .rodata.stm32_hash_init.str1.1
                0x00000000       0x1b ./../build/optee-nor-stm32mp157d-ev1/bl2/stm32_hash.o
 .text.stm32_hash_init
                0x00000000       0x70 ./../build/optee-nor-stm32mp157d-ev1/bl2/stm32_hash.o
 .rodata.stm32_hash_register.str1.1
                0x00000000       0x12 ./../build/optee-nor-stm32mp157d-ev1/bl2/stm32_hash.o
 .text.stm32_hash_register
                0x00000000       0x8c ./../build/optee-nor-stm32mp157d-ev1/bl2/stm32_hash.o
 .rodata.__func__.0
                0x00000000       0x10 ./../build/optee-nor-stm32mp157d-ev1/bl2/stm32_hash.o
 .rodata.__func__.1
                0x00000000       0x16 ./../build/optee-nor-stm32mp157d-ev1/bl2/stm32_hash.o
 .rodata.__func__.2
                0x00000000        0xf ./../build/optee-nor-stm32mp157d-ev1/bl2/stm32_hash.o
 .bss.stm32_remain
                0x00000000        0x8 ./../build/optee-nor-stm32mp157d-ev1/bl2/stm32_hash.o
 .bss.stm32_hash
                0x00000000        0xc ./../build/optee-nor-stm32mp157d-ev1/bl2/stm32_hash.o
 .debug_info    0x00000000     0x1241 ./../build/optee-nor-stm32mp157d-ev1/bl2/stm32_hash.o
 .debug_abbrev  0x00000000      0x469 ./../build/optee-nor-stm32mp157d-ev1/bl2/stm32_hash.o
 .debug_loc     0x00000000      0xbad ./../build/optee-nor-stm32mp157d-ev1/bl2/stm32_hash.o
 .debug_aranges
                0x00000000       0x48 ./../build/optee-nor-stm32mp157d-ev1/bl2/stm32_hash.o
 .debug_ranges  0x00000000      0x2a0 ./../build/optee-nor-stm32mp157d-ev1/bl2/stm32_hash.o
 .debug_line    0x00000000      0x8d1 ./../build/optee-nor-stm32mp157d-ev1/bl2/stm32_hash.o
 .debug_str     0x00000000      0x614 ./../build/optee-nor-stm32mp157d-ev1/bl2/stm32_hash.o
 .comment       0x00000000       0x13 ./../build/optee-nor-stm32mp157d-ev1/bl2/stm32_hash.o
 .note.GNU-stack
                0x00000000        0x0 ./../build/optee-nor-stm32mp157d-ev1/bl2/stm32_hash.o
 .debug_frame   0x00000000       0xf0 ./../build/optee-nor-stm32mp157d-ev1/bl2/stm32_hash.o
 .ARM.attributes
                0x00000000       0x33 ./../build/optee-nor-stm32mp157d-ev1/bl2/stm32_hash.o
 .text          0x00000000        0x0 ./../build/optee-nor-stm32mp157d-ev1/bl2/stm32mp1_ddr.o
 .data          0x00000000        0x0 ./../build/optee-nor-stm32mp157d-ev1/bl2/stm32mp1_ddr.o
 .bss           0x00000000        0x0 ./../build/optee-nor-stm32mp157d-ev1/bl2/stm32mp1_ddr.o
 .text          0x00000000        0x0 ./../build/optee-nor-stm32mp157d-ev1/bl2/stm32mp1_ddr_helpers.o
 .data          0x00000000        0x0 ./../build/optee-nor-stm32mp157d-ev1/bl2/stm32mp1_ddr_helpers.o
 .bss           0x00000000        0x0 ./../build/optee-nor-stm32mp157d-ev1/bl2/stm32mp1_ddr_helpers.o
 .text          0x00000000        0x0 ./../build/optee-nor-stm32mp157d-ev1/bl2/stm32mp1_ram.o
 .data          0x00000000        0x0 ./../build/optee-nor-stm32mp157d-ev1/bl2/stm32mp1_ram.o
 .bss           0x00000000        0x0 ./../build/optee-nor-stm32mp157d-ev1/bl2/stm32mp1_ram.o
 .text          0x00000000        0x0 ./../build/optee-nor-stm32mp157d-ev1/bl2/stm32mp_ddr.o
 .data          0x00000000        0x0 ./../build/optee-nor-stm32mp157d-ev1/bl2/stm32mp_ddr.o
 .bss           0x00000000        0x0 ./../build/optee-nor-stm32mp157d-ev1/bl2/stm32mp_ddr.o
 .text          0x00000000        0x0 ./../build/optee-nor-stm32mp157d-ev1/bl2/stm32mp_ddr_test.o
 .data          0x00000000        0x0 ./../build/optee-nor-stm32mp157d-ev1/bl2/stm32mp_ddr_test.o
 .bss           0x00000000        0x0 ./../build/optee-nor-stm32mp157d-ev1/bl2/stm32mp_ddr_test.o
 .text          0x00000000        0x0 ./../build/optee-nor-stm32mp157d-ev1/bl2/stm32mp_ram.o
 .data          0x00000000        0x0 ./../build/optee-nor-stm32mp157d-ev1/bl2/stm32mp_ram.o
 .bss           0x00000000        0x0 ./../build/optee-nor-stm32mp157d-ev1/bl2/stm32mp_ram.o
 .text          0x00000000        0x0 ./../build/optee-nor-stm32mp157d-ev1/bl2/stm32_gpio.o
 .data          0x00000000        0x0 ./../build/optee-nor-stm32mp157d-ev1/bl2/stm32_gpio.o
 .bss           0x00000000        0x0 ./../build/optee-nor-stm32mp157d-ev1/bl2/stm32_gpio.o
 .text.set_gpio_secure_cfg
                0x00000000       0x4c ./../build/optee-nor-stm32mp157d-ev1/bl2/stm32_gpio.o
 .text.set_gpio_reset_cfg
                0x00000000       0x2e ./../build/optee-nor-stm32mp157d-ev1/bl2/stm32_gpio.o
 .text.set_gpio_level
                0x00000000       0x48 ./../build/optee-nor-stm32mp157d-ev1/bl2/stm32_gpio.o
 .text.get_gpio_level
                0x00000000       0x40 ./../build/optee-nor-stm32mp157d-ev1/bl2/stm32_gpio.o
 .text.set_gpio_config
                0x00000000       0x30 ./../build/optee-nor-stm32mp157d-ev1/bl2/stm32_gpio.o
 .text          0x00000000        0x0 ./../build/optee-nor-stm32mp157d-ev1/bl2/stm32_i2c.o
 .data          0x00000000        0x0 ./../build/optee-nor-stm32mp157d-ev1/bl2/stm32_i2c.o
 .bss           0x00000000        0x0 ./../build/optee-nor-stm32mp157d-ev1/bl2/stm32_i2c.o
 .text.stm32_i2c_master_transmit
                0x00000000       0x18 ./../build/optee-nor-stm32mp157d-ev1/bl2/stm32_i2c.o
 .text.stm32_i2c_master_receive
                0x00000000       0x14 ./../build/optee-nor-stm32mp157d-ev1/bl2/stm32_i2c.o
 .text          0x00000000        0x0 ./../build/optee-nor-stm32mp157d-ev1/bl2/stm32_iwdg.o
 .data          0x00000000        0x0 ./../build/optee-nor-stm32mp157d-ev1/bl2/stm32_iwdg.o
 .bss           0x00000000        0x0 ./../build/optee-nor-stm32mp157d-ev1/bl2/stm32_iwdg.o
 .text          0x00000000        0x0 ./../build/optee-nor-stm32mp157d-ev1/bl2/nvmem.o
 .data          0x00000000        0x0 ./../build/optee-nor-stm32mp157d-ev1/bl2/nvmem.o
 .bss           0x00000000        0x0 ./../build/optee-nor-stm32mp157d-ev1/bl2/nvmem.o
 .text          0x00000000        0x0 ./../build/optee-nor-stm32mp157d-ev1/bl2/stm32mp_tamp_nvram_core.o
 .data          0x00000000        0x0 ./../build/optee-nor-stm32mp157d-ev1/bl2/stm32mp_tamp_nvram_core.o
 .bss           0x00000000        0x0 ./../build/optee-nor-stm32mp157d-ev1/bl2/stm32mp_tamp_nvram_core.o
 .text.stm32_tamp_nvram_reg_field_write
                0x00000000       0x72 ./../build/optee-nor-stm32mp157d-ev1/bl2/stm32mp_tamp_nvram_core.o
 .text          0x00000000        0x0 ./../build/optee-nor-stm32mp157d-ev1/bl2/stm32mp_tamp_nvram_mp1.o
 .data          0x00000000        0x0 ./../build/optee-nor-stm32mp157d-ev1/bl2/stm32mp_tamp_nvram_mp1.o
 .bss           0x00000000        0x0 ./../build/optee-nor-stm32mp157d-ev1/bl2/stm32mp_tamp_nvram_mp1.o
 .text          0x00000000        0x0 ./../build/optee-nor-stm32mp157d-ev1/bl2/stm32mp_pmic.o
 .data          0x00000000        0x0 ./../build/optee-nor-stm32mp157d-ev1/bl2/stm32mp_pmic.o
 .bss           0x00000000        0x0 ./../build/optee-nor-stm32mp157d-ev1/bl2/stm32mp_pmic.o
 .text          0x00000000        0x0 ./../build/optee-nor-stm32mp157d-ev1/bl2/stpmic1.o
 .data          0x00000000        0x0 ./../build/optee-nor-stm32mp157d-ev1/bl2/stpmic1.o
 .bss           0x00000000        0x0 ./../build/optee-nor-stm32mp157d-ev1/bl2/stpmic1.o
 .text.stpmic1_dump_regulators
                0x00000000        0x2 ./../build/optee-nor-stm32mp157d-ev1/bl2/stpmic1.o
 .text          0x00000000        0x0 ./../build/optee-nor-stm32mp157d-ev1/bl2/regulator_core.o
 .data          0x00000000        0x0 ./../build/optee-nor-stm32mp157d-ev1/bl2/regulator_core.o
 .bss           0x00000000        0x0 ./../build/optee-nor-stm32mp157d-ev1/bl2/regulator_core.o
 .text.regulator_get_by_name
                0x00000000       0x48 ./../build/optee-nor-stm32mp157d-ev1/bl2/regulator_core.o
 .text.regulator_disable
                0x00000000       0x3c ./../build/optee-nor-stm32mp157d-ev1/bl2/regulator_core.o
 .rodata.regulator_is_enabled.str1.1
                0x00000000       0x24 ./../build/optee-nor-stm32mp157d-ev1/bl2/regulator_core.o
 .text.regulator_is_enabled
                0x00000000       0x4c ./../build/optee-nor-stm32mp157d-ev1/bl2/regulator_core.o
 .rodata.regulator_set_flag.str1.1
                0x00000000       0x3d ./../build/optee-nor-stm32mp157d-ev1/bl2/regulator_core.o
 .text.regulator_set_flag
                0x00000000       0x78 ./../build/optee-nor-stm32mp157d-ev1/bl2/regulator_core.o
 .rodata.__func__.1
                0x00000000       0x16 ./../build/optee-nor-stm32mp157d-ev1/bl2/regulator_core.o
 .text          0x00000000        0x0 ./../build/optee-nor-stm32mp157d-ev1/bl2/regulator_fixed.o
 .data          0x00000000        0x0 ./../build/optee-nor-stm32mp157d-ev1/bl2/regulator_fixed.o
 .bss           0x00000000        0x0 ./../build/optee-nor-stm32mp157d-ev1/bl2/regulator_fixed.o
 .text          0x00000000        0x0 ./../build/optee-nor-stm32mp157d-ev1/bl2/regulator_gpio.o
 .data          0x00000000        0x0 ./../build/optee-nor-stm32mp157d-ev1/bl2/regulator_gpio.o
 .bss           0x00000000        0x0 ./../build/optee-nor-stm32mp157d-ev1/bl2/regulator_gpio.o
 .rodata.gpio_regulator_register.str1.1
                0x00000000       0x63 ./../build/optee-nor-stm32mp157d-ev1/bl2/regulator_gpio.o
 .text.gpio_regulator_register
                0x00000000       0x44 ./../build/optee-nor-stm32mp157d-ev1/bl2/regulator_gpio.o
 .debug_info    0x00000000      0x6dd ./../build/optee-nor-stm32mp157d-ev1/bl2/regulator_gpio.o
 .debug_abbrev  0x00000000      0x21f ./../build/optee-nor-stm32mp157d-ev1/bl2/regulator_gpio.o
 .debug_loc     0x00000000       0x58 ./../build/optee-nor-stm32mp157d-ev1/bl2/regulator_gpio.o
 .debug_aranges
                0x00000000       0x20 ./../build/optee-nor-stm32mp157d-ev1/bl2/regulator_gpio.o
 .debug_ranges  0x00000000       0x10 ./../build/optee-nor-stm32mp157d-ev1/bl2/regulator_gpio.o
 .debug_line    0x00000000      0x1d8 ./../build/optee-nor-stm32mp157d-ev1/bl2/regulator_gpio.o
 .debug_str     0x00000000      0x4e3 ./../build/optee-nor-stm32mp157d-ev1/bl2/regulator_gpio.o
 .comment       0x00000000       0x13 ./../build/optee-nor-stm32mp157d-ev1/bl2/regulator_gpio.o
 .note.GNU-stack
                0x00000000        0x0 ./../build/optee-nor-stm32mp157d-ev1/bl2/regulator_gpio.o
 .debug_frame   0x00000000       0x2c ./../build/optee-nor-stm32mp157d-ev1/bl2/regulator_gpio.o
 .ARM.attributes
                0x00000000       0x33 ./../build/optee-nor-stm32mp157d-ev1/bl2/regulator_gpio.o
 .text          0x00000000        0x0 ./../build/optee-nor-stm32mp157d-ev1/bl2/stm32mp1_reset.o
 .data          0x00000000        0x0 ./../build/optee-nor-stm32mp157d-ev1/bl2/stm32mp1_reset.o
 .bss           0x00000000        0x0 ./../build/optee-nor-stm32mp157d-ev1/bl2/stm32mp1_reset.o
 .text          0x00000000        0x0 ./../build/optee-nor-stm32mp157d-ev1/bl2/stm32_qspi.o
 .data          0x00000000        0x0 ./../build/optee-nor-stm32mp157d-ev1/bl2/stm32_qspi.o
 .bss           0x00000000        0x0 ./../build/optee-nor-stm32mp157d-ev1/bl2/stm32_qspi.o
 .text          0x00000000        0x0 ./../build/optee-nor-stm32mp157d-ev1/bl2/ctzdi2.o
 .data          0x00000000        0x0 ./../build/optee-nor-stm32mp157d-ev1/bl2/ctzdi2.o
 .bss           0x00000000        0x0 ./../build/optee-nor-stm32mp157d-ev1/bl2/ctzdi2.o
 .text          0x00000000        0x0 ./../build/optee-nor-stm32mp157d-ev1/bl2/divdi3.o
 .data          0x00000000        0x0 ./../build/optee-nor-stm32mp157d-ev1/bl2/divdi3.o
 .bss           0x00000000        0x0 ./../build/optee-nor-stm32mp157d-ev1/bl2/divdi3.o
 .text.__divdi3
                0x00000000       0x3e ./../build/optee-nor-stm32mp157d-ev1/bl2/divdi3.o
 .debug_info    0x00000000      0x1f2 ./../build/optee-nor-stm32mp157d-ev1/bl2/divdi3.o
 .debug_abbrev  0x00000000      0x124 ./../build/optee-nor-stm32mp157d-ev1/bl2/divdi3.o
 .debug_loc     0x00000000       0xd2 ./../build/optee-nor-stm32mp157d-ev1/bl2/divdi3.o
 .debug_aranges
                0x00000000       0x20 ./../build/optee-nor-stm32mp157d-ev1/bl2/divdi3.o
 .debug_ranges  0x00000000       0x28 ./../build/optee-nor-stm32mp157d-ev1/bl2/divdi3.o
 .debug_line    0x00000000      0x10e ./../build/optee-nor-stm32mp157d-ev1/bl2/divdi3.o
 .debug_str     0x00000000      0x24b ./../build/optee-nor-stm32mp157d-ev1/bl2/divdi3.o
 .comment       0x00000000       0x13 ./../build/optee-nor-stm32mp157d-ev1/bl2/divdi3.o
 .note.GNU-stack
                0x00000000        0x0 ./../build/optee-nor-stm32mp157d-ev1/bl2/divdi3.o
 .debug_frame   0x00000000       0x30 ./../build/optee-nor-stm32mp157d-ev1/bl2/divdi3.o
 .ARM.attributes
                0x00000000       0x33 ./../build/optee-nor-stm32mp157d-ev1/bl2/divdi3.o
 .text          0x00000000        0x0 ./../build/optee-nor-stm32mp157d-ev1/bl2/divmoddi4.o
 .data          0x00000000        0x0 ./../build/optee-nor-stm32mp157d-ev1/bl2/divmoddi4.o
 .bss           0x00000000        0x0 ./../build/optee-nor-stm32mp157d-ev1/bl2/divmoddi4.o
 .text.__divmoddi4
                0x00000000       0x54 ./../build/optee-nor-stm32mp157d-ev1/bl2/divmoddi4.o
 .debug_info    0x00000000      0x19b ./../build/optee-nor-stm32mp157d-ev1/bl2/divmoddi4.o
 .debug_abbrev  0x00000000      0x106 ./../build/optee-nor-stm32mp157d-ev1/bl2/divmoddi4.o
 .debug_loc     0x00000000       0x8c ./../build/optee-nor-stm32mp157d-ev1/bl2/divmoddi4.o
 .debug_aranges
                0x00000000       0x20 ./../build/optee-nor-stm32mp157d-ev1/bl2/divmoddi4.o
 .debug_ranges  0x00000000       0x10 ./../build/optee-nor-stm32mp157d-ev1/bl2/divmoddi4.o
 .debug_line    0x00000000      0x10b ./../build/optee-nor-stm32mp157d-ev1/bl2/divmoddi4.o
 .debug_str     0x00000000      0x259 ./../build/optee-nor-stm32mp157d-ev1/bl2/divmoddi4.o
 .comment       0x00000000       0x13 ./../build/optee-nor-stm32mp157d-ev1/bl2/divmoddi4.o
 .note.GNU-stack
                0x00000000        0x0 ./../build/optee-nor-stm32mp157d-ev1/bl2/divmoddi4.o
 .debug_frame   0x00000000       0x34 ./../build/optee-nor-stm32mp157d-ev1/bl2/divmoddi4.o
 .ARM.attributes
                0x00000000       0x33 ./../build/optee-nor-stm32mp157d-ev1/bl2/divmoddi4.o
 .text          0x00000000        0x0 ./../build/optee-nor-stm32mp157d-ev1/bl2/lshrdi3.o
 .data          0x00000000        0x0 ./../build/optee-nor-stm32mp157d-ev1/bl2/lshrdi3.o
 .bss           0x00000000        0x0 ./../build/optee-nor-stm32mp157d-ev1/bl2/lshrdi3.o
 .text.__lshrdi3
                0x00000000       0x26 ./../build/optee-nor-stm32mp157d-ev1/bl2/lshrdi3.o
 .debug_info    0x00000000      0x18c ./../build/optee-nor-stm32mp157d-ev1/bl2/lshrdi3.o
 .debug_abbrev  0x00000000       0xdf ./../build/optee-nor-stm32mp157d-ev1/bl2/lshrdi3.o
 .debug_loc     0x00000000       0x97 ./../build/optee-nor-stm32mp157d-ev1/bl2/lshrdi3.o
 .debug_aranges
                0x00000000       0x20 ./../build/optee-nor-stm32mp157d-ev1/bl2/lshrdi3.o
 .debug_ranges  0x00000000       0x10 ./../build/optee-nor-stm32mp157d-ev1/bl2/lshrdi3.o
 .debug_line    0x00000000       0xf2 ./../build/optee-nor-stm32mp157d-ev1/bl2/lshrdi3.o
 .debug_str     0x00000000      0x26e ./../build/optee-nor-stm32mp157d-ev1/bl2/lshrdi3.o
 .comment       0x00000000       0x13 ./../build/optee-nor-stm32mp157d-ev1/bl2/lshrdi3.o
 .note.GNU-stack
                0x00000000        0x0 ./../build/optee-nor-stm32mp157d-ev1/bl2/lshrdi3.o
 .debug_frame   0x00000000       0x28 ./../build/optee-nor-stm32mp157d-ev1/bl2/lshrdi3.o
 .ARM.attributes
                0x00000000       0x33 ./../build/optee-nor-stm32mp157d-ev1/bl2/lshrdi3.o
 .text          0x00000000        0x0 ./../build/optee-nor-stm32mp157d-ev1/bl2/popcountdi2.o
 .data          0x00000000        0x0 ./../build/optee-nor-stm32mp157d-ev1/bl2/popcountdi2.o
 .bss           0x00000000        0x0 ./../build/optee-nor-stm32mp157d-ev1/bl2/popcountdi2.o
 .text.__popcountdi2
                0x00000000       0x52 ./../build/optee-nor-stm32mp157d-ev1/bl2/popcountdi2.o
 .debug_info    0x00000000      0x125 ./../build/optee-nor-stm32mp157d-ev1/bl2/popcountdi2.o
 .debug_abbrev  0x00000000       0x7d ./../build/optee-nor-stm32mp157d-ev1/bl2/popcountdi2.o
 .debug_loc     0x00000000       0xa3 ./../build/optee-nor-stm32mp157d-ev1/bl2/popcountdi2.o
 .debug_aranges
                0x00000000       0x20 ./../build/optee-nor-stm32mp157d-ev1/bl2/popcountdi2.o
 .debug_ranges  0x00000000       0x10 ./../build/optee-nor-stm32mp157d-ev1/bl2/popcountdi2.o
 .debug_line    0x00000000      0x109 ./../build/optee-nor-stm32mp157d-ev1/bl2/popcountdi2.o
 .debug_str     0x00000000      0x24f ./../build/optee-nor-stm32mp157d-ev1/bl2/popcountdi2.o
 .comment       0x00000000       0x13 ./../build/optee-nor-stm32mp157d-ev1/bl2/popcountdi2.o
 .note.GNU-stack
                0x00000000        0x0 ./../build/optee-nor-stm32mp157d-ev1/bl2/popcountdi2.o
 .debug_frame   0x00000000       0x20 ./../build/optee-nor-stm32mp157d-ev1/bl2/popcountdi2.o
 .ARM.attributes
                0x00000000       0x33 ./../build/optee-nor-stm32mp157d-ev1/bl2/popcountdi2.o
 .text          0x00000000        0x0 ./../build/optee-nor-stm32mp157d-ev1/bl2/popcountsi2.o
 .data          0x00000000        0x0 ./../build/optee-nor-stm32mp157d-ev1/bl2/popcountsi2.o
 .bss           0x00000000        0x0 ./../build/optee-nor-stm32mp157d-ev1/bl2/popcountsi2.o
 .text.__popcountsi2
                0x00000000       0x2a ./../build/optee-nor-stm32mp157d-ev1/bl2/popcountsi2.o
 .debug_info    0x00000000       0xfa ./../build/optee-nor-stm32mp157d-ev1/bl2/popcountsi2.o
 .debug_abbrev  0x00000000       0x7d ./../build/optee-nor-stm32mp157d-ev1/bl2/popcountsi2.o
 .debug_loc     0x00000000      0x17c ./../build/optee-nor-stm32mp157d-ev1/bl2/popcountsi2.o
 .debug_aranges
                0x00000000       0x20 ./../build/optee-nor-stm32mp157d-ev1/bl2/popcountsi2.o
 .debug_ranges  0x00000000       0x10 ./../build/optee-nor-stm32mp157d-ev1/bl2/popcountsi2.o
 .debug_line    0x00000000       0xc1 ./../build/optee-nor-stm32mp157d-ev1/bl2/popcountsi2.o
 .debug_str     0x00000000      0x23f ./../build/optee-nor-stm32mp157d-ev1/bl2/popcountsi2.o
 .comment       0x00000000       0x13 ./../build/optee-nor-stm32mp157d-ev1/bl2/popcountsi2.o
 .note.GNU-stack
                0x00000000        0x0 ./../build/optee-nor-stm32mp157d-ev1/bl2/popcountsi2.o
 .debug_frame   0x00000000       0x20 ./../build/optee-nor-stm32mp157d-ev1/bl2/popcountsi2.o
 .ARM.attributes
                0x00000000       0x33 ./../build/optee-nor-stm32mp157d-ev1/bl2/popcountsi2.o
 .text          0x00000000        0x0 ./../build/optee-nor-stm32mp157d-ev1/bl2/udivmoddi4.o
 .data          0x00000000        0x0 ./../build/optee-nor-stm32mp157d-ev1/bl2/udivmoddi4.o
 .bss           0x00000000        0x0 ./../build/optee-nor-stm32mp157d-ev1/bl2/udivmoddi4.o
 .text          0x00000000        0x0 ./../build/optee-nor-stm32mp157d-ev1/bl2/pmuv3.o
 .data          0x00000000        0x0 ./../build/optee-nor-stm32mp157d-ev1/bl2/pmuv3.o
 .bss           0x00000000        0x0 ./../build/optee-nor-stm32mp157d-ev1/bl2/pmuv3.o
 .text.pmuv3_init_el3
                0x00000000       0x1e ./../build/optee-nor-stm32mp157d-ev1/bl2/pmuv3.o
 .debug_info    0x00000000      0x1e9 ./../build/optee-nor-stm32mp157d-ev1/bl2/pmuv3.o
 .debug_abbrev  0x00000000      0x14f ./../build/optee-nor-stm32mp157d-ev1/bl2/pmuv3.o
 .debug_loc     0x00000000       0xba ./../build/optee-nor-stm32mp157d-ev1/bl2/pmuv3.o
 .debug_aranges
                0x00000000       0x20 ./../build/optee-nor-stm32mp157d-ev1/bl2/pmuv3.o
 .debug_ranges  0x00000000       0x40 ./../build/optee-nor-stm32mp157d-ev1/bl2/pmuv3.o
 .debug_line    0x00000000      0x11b ./../build/optee-nor-stm32mp157d-ev1/bl2/pmuv3.o
 .debug_str     0x00000000      0x258 ./../build/optee-nor-stm32mp157d-ev1/bl2/pmuv3.o
 .comment       0x00000000       0x13 ./../build/optee-nor-stm32mp157d-ev1/bl2/pmuv3.o
 .note.GNU-stack
                0x00000000        0x0 ./../build/optee-nor-stm32mp157d-ev1/bl2/pmuv3.o
 .debug_frame   0x00000000       0x20 ./../build/optee-nor-stm32mp157d-ev1/bl2/pmuv3.o
 .ARM.attributes
                0x00000000       0x33 ./../build/optee-nor-stm32mp157d-ev1/bl2/pmuv3.o
 .text          0x00000000        0x0 ./../build/optee-nor-stm32mp157d-ev1/bl2/fconf.o
 .data          0x00000000        0x0 ./../build/optee-nor-stm32mp157d-ev1/bl2/fconf.o
 .bss           0x00000000        0x0 ./../build/optee-nor-stm32mp157d-ev1/bl2/fconf.o
 .text.fconf_load_config
                0x00000000       0x60 ./../build/optee-nor-stm32mp157d-ev1/bl2/fconf.o
 .text          0x00000000        0x0 ./../build/optee-nor-stm32mp157d-ev1/bl2/fconf_dyn_cfg_getter.o
 .data          0x00000000        0x0 ./../build/optee-nor-stm32mp157d-ev1/bl2/fconf_dyn_cfg_getter.o
 .bss           0x00000000        0x0 ./../build/optee-nor-stm32mp157d-ev1/bl2/fconf_dyn_cfg_getter.o
 .text          0x00000000        0x0 ./../build/optee-nor-stm32mp157d-ev1/bl2/optee_utils.o
 .data          0x00000000        0x0 ./../build/optee-nor-stm32mp157d-ev1/bl2/optee_utils.o
 .bss           0x00000000        0x0 ./../build/optee-nor-stm32mp157d-ev1/bl2/optee_utils.o
 .text          0x00000000        0x0 ./../build/optee-nor-stm32mp157d-ev1/bl2/xlat_tables_arch.o
 .data          0x00000000        0x0 ./../build/optee-nor-stm32mp157d-ev1/bl2/xlat_tables_arch.o
 .bss           0x00000000        0x0 ./../build/optee-nor-stm32mp157d-ev1/bl2/xlat_tables_arch.o
 .text.xlat_arch_is_granule_size_supported
                0x00000000        0xa ./../build/optee-nor-stm32mp157d-ev1/bl2/xlat_tables_arch.o
 .text.xlat_arch_get_max_supported_granule_size
                0x00000000        0x6 ./../build/optee-nor-stm32mp157d-ev1/bl2/xlat_tables_arch.o
 .text          0x00000000        0x0 ./../build/optee-nor-stm32mp157d-ev1/bl2/xlat_tables_context.o
 .data          0x00000000        0x0 ./../build/optee-nor-stm32mp157d-ev1/bl2/xlat_tables_context.o
 .bss           0x00000000        0x0 ./../build/optee-nor-stm32mp157d-ev1/bl2/xlat_tables_context.o
 .text.mmap_add_region_alloc_va
                0x00000000       0x30 ./../build/optee-nor-stm32mp157d-ev1/bl2/xlat_tables_context.o
 .text.mmap_add_alloc_va
                0x00000000       0x2c ./../build/optee-nor-stm32mp157d-ev1/bl2/xlat_tables_context.o
 .text.mmap_add_dynamic_region_alloc_va
                0x00000000       0x30 ./../build/optee-nor-stm32mp157d-ev1/bl2/xlat_tables_context.o
 .text.xlat_get_mem_attributes
                0x00000000       0x10 ./../build/optee-nor-stm32mp157d-ev1/bl2/xlat_tables_context.o
 .text.xlat_change_mem_attributes
                0x00000000       0x10 ./../build/optee-nor-stm32mp157d-ev1/bl2/xlat_tables_context.o
 .text.enable_mmu_hyp
                0x00000000       0x34 ./../build/optee-nor-stm32mp157d-ev1/bl2/xlat_tables_context.o
 .text          0x00000000        0x0 ./../build/optee-nor-stm32mp157d-ev1/bl2/xlat_tables_core.o
 .data          0x00000000        0x0 ./../build/optee-nor-stm32mp157d-ev1/bl2/xlat_tables_core.o
 .bss           0x00000000        0x0 ./../build/optee-nor-stm32mp157d-ev1/bl2/xlat_tables_core.o
 .text.mmap_alloc_va_align_ctx.isra.0
                0x00000000       0x32 ./../build/optee-nor-stm32mp157d-ev1/bl2/xlat_tables_core.o
 .text.mmap_add_region_alloc_va_ctx
                0x00000000       0x38 ./../build/optee-nor-stm32mp157d-ev1/bl2/xlat_tables_core.o
 .text.mmap_add_dynamic_region_alloc_va_ctx
                0x00000000       0x2a ./../build/optee-nor-stm32mp157d-ev1/bl2/xlat_tables_core.o
 .text.xlat_setup_dynamic_ctx
                0x00000000       0x62 ./../build/optee-nor-stm32mp157d-ev1/bl2/xlat_tables_core.o
 .text          0x00000000        0x0 ./../build/optee-nor-stm32mp157d-ev1/bl2/xlat_tables_utils.o
 .data          0x00000000        0x0 ./../build/optee-nor-stm32mp157d-ev1/bl2/xlat_tables_utils.o
 .bss           0x00000000        0x0 ./../build/optee-nor-stm32mp157d-ev1/bl2/xlat_tables_utils.o
 .rodata.find_xlat_table_entry.str1.1
                0x00000000       0x53 ./../build/optee-nor-stm32mp157d-ev1/bl2/xlat_tables_utils.o
 .text.find_xlat_table_entry
                0x00000000       0x8c ./../build/optee-nor-stm32mp157d-ev1/bl2/xlat_tables_utils.o
 .rodata.xlat_get_mem_attributes_internal.str1.1
                0x00000000       0x1f ./../build/optee-nor-stm32mp157d-ev1/bl2/xlat_tables_utils.o
 .text.xlat_get_mem_attributes_internal
                0x00000000      0x118 ./../build/optee-nor-stm32mp157d-ev1/bl2/xlat_tables_utils.o
 .text.xlat_get_mem_attributes_ctx
                0x00000000       0x12 ./../build/optee-nor-stm32mp157d-ev1/bl2/xlat_tables_utils.o
 .rodata.xlat_change_mem_attributes_ctx.str1.1
                0x00000000      0x152 ./../build/optee-nor-stm32mp157d-ev1/bl2/xlat_tables_utils.o
 .text.xlat_change_mem_attributes_ctx
                0x00000000      0x194 ./../build/optee-nor-stm32mp157d-ev1/bl2/xlat_tables_utils.o
 .rodata.__func__.0
                0x00000000       0x1f ./../build/optee-nor-stm32mp157d-ev1/bl2/xlat_tables_utils.o
 .text          0x00000000        0x0 ./../build/optee-nor-stm32mp157d-ev1/bl2/adler32.o
 .data          0x00000000        0x0 ./../build/optee-nor-stm32mp157d-ev1/bl2/adler32.o
 .bss           0x00000000        0x0 ./../build/optee-nor-stm32mp157d-ev1/bl2/adler32.o
 .text.adler32_combine_
                0x00000000       0x70 ./../build/optee-nor-stm32mp157d-ev1/bl2/adler32.o
 .text.adler32_z
                0x00000000      0x226 ./../build/optee-nor-stm32mp157d-ev1/bl2/adler32.o
 .text.adler32  0x00000000        0x4 ./../build/optee-nor-stm32mp157d-ev1/bl2/adler32.o
 .text.adler32_combine
                0x00000000        0x4 ./../build/optee-nor-stm32mp157d-ev1/bl2/adler32.o
 .text.adler32_combine64
                0x00000000        0x4 ./../build/optee-nor-stm32mp157d-ev1/bl2/adler32.o
 .debug_info    0x00000000      0x314 ./../build/optee-nor-stm32mp157d-ev1/bl2/adler32.o
 .debug_abbrev  0x00000000      0x153 ./../build/optee-nor-stm32mp157d-ev1/bl2/adler32.o
 .debug_loc     0x00000000      0x991 ./../build/optee-nor-stm32mp157d-ev1/bl2/adler32.o
 .debug_aranges
                0x00000000       0x40 ./../build/optee-nor-stm32mp157d-ev1/bl2/adler32.o
 .debug_ranges  0x00000000       0x30 ./../build/optee-nor-stm32mp157d-ev1/bl2/adler32.o
 .debug_line    0x00000000      0x352 ./../build/optee-nor-stm32mp157d-ev1/bl2/adler32.o
 .debug_str     0x00000000      0x228 ./../build/optee-nor-stm32mp157d-ev1/bl2/adler32.o
 .comment       0x00000000       0x13 ./../build/optee-nor-stm32mp157d-ev1/bl2/adler32.o
 .note.GNU-stack
                0x00000000        0x0 ./../build/optee-nor-stm32mp157d-ev1/bl2/adler32.o
 .debug_frame   0x00000000       0x8c ./../build/optee-nor-stm32mp157d-ev1/bl2/adler32.o
 .ARM.attributes
                0x00000000       0x33 ./../build/optee-nor-stm32mp157d-ev1/bl2/adler32.o
 .text          0x00000000        0x0 ./../build/optee-nor-stm32mp157d-ev1/bl2/crc32.o
 .data          0x00000000        0x0 ./../build/optee-nor-stm32mp157d-ev1/bl2/crc32.o
 .bss           0x00000000        0x0 ./../build/optee-nor-stm32mp157d-ev1/bl2/crc32.o
 .text.multmodp
                0x00000000       0x2c ./../build/optee-nor-stm32mp157d-ev1/bl2/crc32.o
 .text.x2nmodp.constprop.0
                0x00000000       0x2c ./../build/optee-nor-stm32mp157d-ev1/bl2/crc32.o
 .text.get_crc_table
                0x00000000        0x8 ./../build/optee-nor-stm32mp157d-ev1/bl2/crc32.o
 .text.crc32_combine64
                0x00000000       0x16 ./../build/optee-nor-stm32mp157d-ev1/bl2/crc32.o
 .text.crc32_combine
                0x00000000        0x4 ./../build/optee-nor-stm32mp157d-ev1/bl2/crc32.o
 .text.crc32_combine_gen64
                0x00000000        0x4 ./../build/optee-nor-stm32mp157d-ev1/bl2/crc32.o
 .text.crc32_combine_gen
                0x00000000        0x4 ./../build/optee-nor-stm32mp157d-ev1/bl2/crc32.o
 .text.crc32_combine_op
                0x00000000       0x10 ./../build/optee-nor-stm32mp157d-ev1/bl2/crc32.o
 .rodata.x2n_table
                0x00000000       0x80 ./../build/optee-nor-stm32mp157d-ev1/bl2/crc32.o
 .text          0x00000000        0x0 ./../build/optee-nor-stm32mp157d-ev1/bl2/inffast.o
 .data          0x00000000        0x0 ./../build/optee-nor-stm32mp157d-ev1/bl2/inffast.o
 .bss           0x00000000        0x0 ./../build/optee-nor-stm32mp157d-ev1/bl2/inffast.o
 .rodata.inflate_fast.str1.1
                0x00000000       0x50 ./../build/optee-nor-stm32mp157d-ev1/bl2/inffast.o
 .text.inflate_fast
                0x00000000      0x36c ./../build/optee-nor-stm32mp157d-ev1/bl2/inffast.o
 .debug_info    0x00000000      0x80e ./../build/optee-nor-stm32mp157d-ev1/bl2/inffast.o
 .debug_abbrev  0x00000000      0x196 ./../build/optee-nor-stm32mp157d-ev1/bl2/inffast.o
 .debug_loc     0x00000000      0x8e2 ./../build/optee-nor-stm32mp157d-ev1/bl2/inffast.o
 .debug_aranges
                0x00000000       0x20 ./../build/optee-nor-stm32mp157d-ev1/bl2/inffast.o
 .debug_ranges  0x00000000       0x10 ./../build/optee-nor-stm32mp157d-ev1/bl2/inffast.o
 .debug_line    0x00000000      0x5db ./../build/optee-nor-stm32mp157d-ev1/bl2/inffast.o
 .debug_str     0x00000000      0x4a9 ./../build/optee-nor-stm32mp157d-ev1/bl2/inffast.o
 .comment       0x00000000       0x13 ./../build/optee-nor-stm32mp157d-ev1/bl2/inffast.o
 .note.GNU-stack
                0x00000000        0x0 ./../build/optee-nor-stm32mp157d-ev1/bl2/inffast.o
 .debug_frame   0x00000000       0x40 ./../build/optee-nor-stm32mp157d-ev1/bl2/inffast.o
 .ARM.attributes
                0x00000000       0x33 ./../build/optee-nor-stm32mp157d-ev1/bl2/inffast.o
 .text          0x00000000        0x0 ./../build/optee-nor-stm32mp157d-ev1/bl2/inflate.o
 .data          0x00000000        0x0 ./../build/optee-nor-stm32mp157d-ev1/bl2/inflate.o
 .bss           0x00000000        0x0 ./../build/optee-nor-stm32mp157d-ev1/bl2/inflate.o
 .text.syncsearch
                0x00000000       0x34 ./../build/optee-nor-stm32mp157d-ev1/bl2/inflate.o
 .text.updatewindow
                0x00000000       0x9c ./../build/optee-nor-stm32mp157d-ev1/bl2/inflate.o
 .text.inflateStateCheck
                0x00000000       0x2a ./../build/optee-nor-stm32mp157d-ev1/bl2/inflate.o
 .text.inflateResetKeep
                0x00000000       0x5c ./../build/optee-nor-stm32mp157d-ev1/bl2/inflate.o
 .text.inflateReset
                0x00000000       0x22 ./../build/optee-nor-stm32mp157d-ev1/bl2/inflate.o
 .text.inflateReset2
                0x00000000       0x5c ./../build/optee-nor-stm32mp157d-ev1/bl2/inflate.o
 .text.inflateInit2_
                0x00000000       0x6c ./../build/optee-nor-stm32mp157d-ev1/bl2/inflate.o
 .text.inflateInit_
                0x00000000        0xa ./../build/optee-nor-stm32mp157d-ev1/bl2/inflate.o
 .text.inflatePrime
                0x00000000       0x42 ./../build/optee-nor-stm32mp157d-ev1/bl2/inflate.o
 .rodata.inflate.str1.1
                0x00000000      0x1cd ./../build/optee-nor-stm32mp157d-ev1/bl2/inflate.o
 .text.inflate  0x00000000      0xe28 ./../build/optee-nor-stm32mp157d-ev1/bl2/inflate.o
 .text.inflateEnd
                0x00000000       0x2e ./../build/optee-nor-stm32mp157d-ev1/bl2/inflate.o
 .text.inflateGetDictionary
                0x00000000       0x44 ./../build/optee-nor-stm32mp157d-ev1/bl2/inflate.o
 .text.inflateSetDictionary
                0x00000000       0x64 ./../build/optee-nor-stm32mp157d-ev1/bl2/inflate.o
 .text.inflateGetHeader
                0x00000000       0x1e ./../build/optee-nor-stm32mp157d-ev1/bl2/inflate.o
 .text.inflateSync
                0x00000000       0xc6 ./../build/optee-nor-stm32mp157d-ev1/bl2/inflate.o
 .text.inflateSyncPoint
                0x00000000       0x26 ./../build/optee-nor-stm32mp157d-ev1/bl2/inflate.o
 .text.inflateCopy
                0x00000000       0xba ./../build/optee-nor-stm32mp157d-ev1/bl2/inflate.o
 .text.inflateUndermine
                0x00000000       0x22 ./../build/optee-nor-stm32mp157d-ev1/bl2/inflate.o
 .text.inflateValidate
                0x00000000       0x26 ./../build/optee-nor-stm32mp157d-ev1/bl2/inflate.o
 .text.inflateMark
                0x00000000       0x44 ./../build/optee-nor-stm32mp157d-ev1/bl2/inflate.o
 .text.inflateCodesUsed
                0x00000000       0x1e ./../build/optee-nor-stm32mp157d-ev1/bl2/inflate.o
 .rodata.distfix.0
                0x00000000       0x80 ./../build/optee-nor-stm32mp157d-ev1/bl2/inflate.o
 .rodata.lenfix.1
                0x00000000      0x800 ./../build/optee-nor-stm32mp157d-ev1/bl2/inflate.o
 .rodata.order.2
                0x00000000       0x26 ./../build/optee-nor-stm32mp157d-ev1/bl2/inflate.o
 .debug_info    0x00000000     0x1789 ./../build/optee-nor-stm32mp157d-ev1/bl2/inflate.o
 .debug_abbrev  0x00000000      0x41c ./../build/optee-nor-stm32mp157d-ev1/bl2/inflate.o
 .debug_loc     0x00000000     0x2101 ./../build/optee-nor-stm32mp157d-ev1/bl2/inflate.o
 .debug_aranges
                0x00000000       0xc0 ./../build/optee-nor-stm32mp157d-ev1/bl2/inflate.o
 .debug_ranges  0x00000000       0xb0 ./../build/optee-nor-stm32mp157d-ev1/bl2/inflate.o
 .debug_line    0x00000000     0x2173 ./../build/optee-nor-stm32mp157d-ev1/bl2/inflate.o
 .debug_str     0x00000000      0x68e ./../build/optee-nor-stm32mp157d-ev1/bl2/inflate.o
 .comment       0x00000000       0x13 ./../build/optee-nor-stm32mp157d-ev1/bl2/inflate.o
 .note.GNU-stack
                0x00000000        0x0 ./../build/optee-nor-stm32mp157d-ev1/bl2/inflate.o
 .debug_frame   0x00000000      0x278 ./../build/optee-nor-stm32mp157d-ev1/bl2/inflate.o
 .ARM.attributes
                0x00000000       0x33 ./../build/optee-nor-stm32mp157d-ev1/bl2/inflate.o
 .text          0x00000000        0x0 ./../build/optee-nor-stm32mp157d-ev1/bl2/inftrees.o
 .data          0x00000000        0x0 ./../build/optee-nor-stm32mp157d-ev1/bl2/inftrees.o
 .bss           0x00000000        0x0 ./../build/optee-nor-stm32mp157d-ev1/bl2/inftrees.o
 .text.inflate_table
                0x00000000      0x304 ./../build/optee-nor-stm32mp157d-ev1/bl2/inftrees.o
 .rodata.dext.0
                0x00000000       0x40 ./../build/optee-nor-stm32mp157d-ev1/bl2/inftrees.o
 .rodata.dbase.1
                0x00000000       0x40 ./../build/optee-nor-stm32mp157d-ev1/bl2/inftrees.o
 .rodata.lext.2
                0x00000000       0x3e ./../build/optee-nor-stm32mp157d-ev1/bl2/inftrees.o
 .rodata.lbase.3
                0x00000000       0x3e ./../build/optee-nor-stm32mp157d-ev1/bl2/inftrees.o
 .rodata.inflate_copyright
                0x00000000       0x2d ./../build/optee-nor-stm32mp157d-ev1/bl2/inftrees.o
 .debug_info    0x00000000      0x3c0 ./../build/optee-nor-stm32mp157d-ev1/bl2/inftrees.o
 .debug_abbrev  0x00000000      0x126 ./../build/optee-nor-stm32mp157d-ev1/bl2/inftrees.o
 .debug_loc     0x00000000      0x779 ./../build/optee-nor-stm32mp157d-ev1/bl2/inftrees.o
 .debug_aranges
                0x00000000       0x20 ./../build/optee-nor-stm32mp157d-ev1/bl2/inftrees.o
 .debug_ranges  0x00000000       0x10 ./../build/optee-nor-stm32mp157d-ev1/bl2/inftrees.o
 .debug_line    0x00000000      0x498 ./../build/optee-nor-stm32mp157d-ev1/bl2/inftrees.o
 .debug_str     0x00000000      0x261 ./../build/optee-nor-stm32mp157d-ev1/bl2/inftrees.o
 .comment       0x00000000       0x13 ./../build/optee-nor-stm32mp157d-ev1/bl2/inftrees.o
 .note.GNU-stack
                0x00000000        0x0 ./../build/optee-nor-stm32mp157d-ev1/bl2/inftrees.o
 .debug_frame   0x00000000       0x40 ./../build/optee-nor-stm32mp157d-ev1/bl2/inftrees.o
 .ARM.attributes
                0x00000000       0x33 ./../build/optee-nor-stm32mp157d-ev1/bl2/inftrees.o
 .text          0x00000000        0x0 ./../build/optee-nor-stm32mp157d-ev1/bl2/tf_gunzip.o
 .data          0x00000000        0x0 ./../build/optee-nor-stm32mp157d-ev1/bl2/tf_gunzip.o
 .bss           0x00000000        0x0 ./../build/optee-nor-stm32mp157d-ev1/bl2/tf_gunzip.o
 .text.zfree    0x00000000        0x2 ./../build/optee-nor-stm32mp157d-ev1/bl2/tf_gunzip.o
 .text.zcalloc  0x00000000       0x34 ./../build/optee-nor-stm32mp157d-ev1/bl2/tf_gunzip.o
 .rodata.gunzip.str1.1
                0x00000000       0x52 ./../build/optee-nor-stm32mp157d-ev1/bl2/tf_gunzip.o
 .text.gunzip   0x00000000       0xb0 ./../build/optee-nor-stm32mp157d-ev1/bl2/tf_gunzip.o
 .bss.zalloc_current
                0x00000000        0x4 ./../build/optee-nor-stm32mp157d-ev1/bl2/tf_gunzip.o
 .bss.zalloc_end
                0x00000000        0x4 ./../build/optee-nor-stm32mp157d-ev1/bl2/tf_gunzip.o
 .text          0x00000000        0x0 ./../build/optee-nor-stm32mp157d-ev1/bl2/zutil.o
 .data          0x00000000        0x0 ./../build/optee-nor-stm32mp157d-ev1/bl2/zutil.o
 .bss           0x00000000        0x0 ./../build/optee-nor-stm32mp157d-ev1/bl2/zutil.o
 .rodata.zlibVersion.str1.1
                0x00000000        0x4 ./../build/optee-nor-stm32mp157d-ev1/bl2/zutil.o
 .text.zlibVersion
                0x00000000        0x8 ./../build/optee-nor-stm32mp157d-ev1/bl2/zutil.o
 .text.zlibCompileFlags
                0x00000000        0x4 ./../build/optee-nor-stm32mp157d-ev1/bl2/zutil.o
 .text.zError   0x00000000       0x10 ./../build/optee-nor-stm32mp157d-ev1/bl2/zutil.o
 .text.zmemcpy  0x00000000       0x14 ./../build/optee-nor-stm32mp157d-ev1/bl2/zutil.o
 .text.zmemcmp  0x00000000       0x24 ./../build/optee-nor-stm32mp157d-ev1/bl2/zutil.o
 .text.zmemzero
                0x00000000       0x10 ./../build/optee-nor-stm32mp157d-ev1/bl2/zutil.o
 .rodata.str1.1
                0x00000000       0x75 ./../build/optee-nor-stm32mp157d-ev1/bl2/zutil.o
 .rodata.z_errmsg
                0x00000000       0x28 ./../build/optee-nor-stm32mp157d-ev1/bl2/zutil.o
 .debug_info    0x00000000      0x242 ./../build/optee-nor-stm32mp157d-ev1/bl2/zutil.o
 .debug_abbrev  0x00000000      0x134 ./../build/optee-nor-stm32mp157d-ev1/bl2/zutil.o
 .debug_loc     0x00000000      0x1f1 ./../build/optee-nor-stm32mp157d-ev1/bl2/zutil.o
 .debug_aranges
                0x00000000       0x48 ./../build/optee-nor-stm32mp157d-ev1/bl2/zutil.o
 .debug_ranges  0x00000000       0x38 ./../build/optee-nor-stm32mp157d-ev1/bl2/zutil.o
 .debug_line    0x00000000      0x1a0 ./../build/optee-nor-stm32mp157d-ev1/bl2/zutil.o
 .debug_str     0x00000000      0x204 ./../build/optee-nor-stm32mp157d-ev1/bl2/zutil.o
 .comment       0x00000000       0x13 ./../build/optee-nor-stm32mp157d-ev1/bl2/zutil.o
 .note.GNU-stack
                0x00000000        0x0 ./../build/optee-nor-stm32mp157d-ev1/bl2/zutil.o
 .debug_frame   0x00000000       0x7c ./../build/optee-nor-stm32mp157d-ev1/bl2/zutil.o
 .ARM.attributes
                0x00000000       0x33 ./../build/optee-nor-stm32mp157d-ev1/bl2/zutil.o
 .text          0x00000000        0x0 ./../build/optee-nor-stm32mp157d-ev1/bl2/plat_common.o
 .data          0x00000000        0x0 ./../build/optee-nor-stm32mp157d-ev1/bl2/plat_common.o
 .bss           0x00000000        0x0 ./../build/optee-nor-stm32mp157d-ev1/bl2/plat_common.o
 .text.bl32_plat_enable_mmu
                0x00000000        0x4 ./../build/optee-nor-stm32mp157d-ev1/bl2/plat_common.o
 .debug_info    0x00000000      0x110 ./../build/optee-nor-stm32mp157d-ev1/bl2/plat_common.o
 .debug_abbrev  0x00000000       0xb3 ./../build/optee-nor-stm32mp157d-ev1/bl2/plat_common.o
 .debug_loc     0x00000000       0x2b ./../build/optee-nor-stm32mp157d-ev1/bl2/plat_common.o
 .debug_aranges
                0x00000000       0x20 ./../build/optee-nor-stm32mp157d-ev1/bl2/plat_common.o
 .debug_ranges  0x00000000       0x10 ./../build/optee-nor-stm32mp157d-ev1/bl2/plat_common.o
 .debug_line    0x00000000       0xbf ./../build/optee-nor-stm32mp157d-ev1/bl2/plat_common.o
 .debug_str     0x00000000      0x23d ./../build/optee-nor-stm32mp157d-ev1/bl2/plat_common.o
 .comment       0x00000000       0x13 ./../build/optee-nor-stm32mp157d-ev1/bl2/plat_common.o
 .note.GNU-stack
                0x00000000        0x0 ./../build/optee-nor-stm32mp157d-ev1/bl2/plat_common.o
 .debug_frame   0x00000000       0x20 ./../build/optee-nor-stm32mp157d-ev1/bl2/plat_common.o
 .ARM.attributes
                0x00000000       0x33 ./../build/optee-nor-stm32mp157d-ev1/bl2/plat_common.o
 .text          0x00000000        0x0 ./../build/optee-nor-stm32mp157d-ev1/bl2/plat_bl_common.o
 .data          0x00000000        0x0 ./../build/optee-nor-stm32mp157d-ev1/bl2/plat_bl_common.o
 .bss           0x00000000        0x0 ./../build/optee-nor-stm32mp157d-ev1/bl2/plat_bl_common.o
 .text.plat_get_soc_version
                0x00000000        0x6 ./../build/optee-nor-stm32mp157d-ev1/bl2/plat_bl_common.o
 .text.plat_get_soc_revision
                0x00000000        0x6 ./../build/optee-nor-stm32mp157d-ev1/bl2/plat_bl_common.o
 .text.plat_is_smccc_feature_available
                0x00000000        0x6 ./../build/optee-nor-stm32mp157d-ev1/bl2/plat_bl_common.o
 .text.bl2_el3_plat_prepare_exit
                0x00000000        0x2 ./../build/optee-nor-stm32mp157d-ev1/bl2/plat_bl_common.o
 .text.bl2_plat_handle_pre_image_load
                0x00000000        0x4 ./../build/optee-nor-stm32mp157d-ev1/bl2/plat_bl_common.o
 .text.bl2_plat_handle_post_image_load
                0x00000000        0x4 ./../build/optee-nor-stm32mp157d-ev1/bl2/plat_bl_common.o
 .text.plat_try_next_boot_source
                0x00000000        0x4 ./../build/optee-nor-stm32mp157d-ev1/bl2/plat_bl_common.o
 .text.plat_try_backup_partitions
                0x00000000        0x4 ./../build/optee-nor-stm32mp157d-ev1/bl2/plat_bl_common.o
 .rodata.plat_get_enc_key_info.str1.1
                0x00000000       0x3e ./../build/optee-nor-stm32mp157d-ev1/bl2/plat_bl_common.o
 .text.plat_get_enc_key_info
                0x00000000       0x40 ./../build/optee-nor-stm32mp157d-ev1/bl2/plat_bl_common.o
 .text.setup_page_tables
                0x00000000       0x16 ./../build/optee-nor-stm32mp157d-ev1/bl2/plat_bl_common.o
 .text          0x00000000        0x0 ./../build/optee-nor-stm32mp157d-ev1/bl2/plat_log_common.o
 .data          0x00000000        0x0 ./../build/optee-nor-stm32mp157d-ev1/bl2/plat_log_common.o
 .bss           0x00000000        0x0 ./../build/optee-nor-stm32mp157d-ev1/bl2/plat_log_common.o
 .text          0x00000000        0x0 ./../build/optee-nor-stm32mp157d-ev1/bl2/bl2_io_storage.o
 .data          0x00000000        0x0 ./../build/optee-nor-stm32mp157d-ev1/bl2/bl2_io_storage.o
 .bss           0x00000000        0x0 ./../build/optee-nor-stm32mp157d-ev1/bl2/bl2_io_storage.o
 .text.stm32mp_io_exit
                0x00000000       0x20 ./../build/optee-nor-stm32mp157d-ev1/bl2/bl2_io_storage.o
 .text          0x00000000        0x0 ./../build/optee-nor-stm32mp157d-ev1/bl2/plat_image_load.o
 .data          0x00000000        0x0 ./../build/optee-nor-stm32mp157d-ev1/bl2/plat_image_load.o
 .bss           0x00000000        0x0 ./../build/optee-nor-stm32mp157d-ev1/bl2/plat_image_load.o
 .text          0x00000000        0x0 ./../build/optee-nor-stm32mp157d-ev1/bl2/stm32mp_common.o
 .data          0x00000000        0x0 ./../build/optee-nor-stm32mp157d-ev1/bl2/stm32mp_common.o
 .bss           0x00000000        0x0 ./../build/optee-nor-stm32mp157d-ev1/bl2/stm32mp_common.o
 .text.plat_get_ns_image_entrypoint
                0x00000000        0x8 ./../build/optee-nor-stm32mp157d-ev1/bl2/stm32mp_common.o
 .rodata.stm32_lock_enc_key_otp.str1.1
                0x00000000        0xc ./../build/optee-nor-stm32mp157d-ev1/bl2/stm32mp_common.o
 .text.stm32_lock_enc_key_otp
                0x00000000       0x48 ./../build/optee-nor-stm32mp157d-ev1/bl2/stm32mp_common.o
 .rodata.stm32_get_uid_otp.str1.1
                0x00000000       0x5e ./../build/optee-nor-stm32mp157d-ev1/bl2/stm32mp_common.o
 .text.stm32_get_uid_otp
                0x00000000       0x60 ./../build/optee-nor-stm32mp157d-ev1/bl2/stm32mp_common.o
 .rodata.stm32_get_enc_key_otp_idx_len.str1.1
                0x00000000       0x19 ./../build/optee-nor-stm32mp157d-ev1/bl2/stm32mp_common.o
 .text.stm32_get_enc_key_otp_idx_len
                0x00000000       0x4c ./../build/optee-nor-stm32mp157d-ev1/bl2/stm32mp_common.o
 .text.stm32mp_uart_console_is_running
                0x00000000       0x28 ./../build/optee-nor-stm32mp157d-ev1/bl2/stm32mp_common.o
 .text.plat_is_smccc_feature_available
                0x00000000       0x10 ./../build/optee-nor-stm32mp157d-ev1/bl2/stm32mp_common.o
 .text.plat_get_soc_version
                0x00000000        0xe ./../build/optee-nor-stm32mp157d-ev1/bl2/stm32mp_common.o
 .text.plat_get_soc_revision
                0x00000000        0xc ./../build/optee-nor-stm32mp157d-ev1/bl2/stm32mp_common.o
 .text.stm32_get_boot_interface
                0x00000000       0x50 ./../build/optee-nor-stm32mp157d-ev1/bl2/stm32mp_common.o
 .bss.itf.8     0x00000000        0x4 ./../build/optee-nor-stm32mp157d-ev1/bl2/stm32mp_common.o
 .rodata.__func__.9
                0x00000000       0x1e ./../build/optee-nor-stm32mp157d-ev1/bl2/stm32mp_common.o
 .bss.idx.10    0x00000000        0x4 ./../build/optee-nor-stm32mp157d-ev1/bl2/stm32mp_common.o
 .bss.len.11    0x00000000        0x4 ./../build/optee-nor-stm32mp157d-ev1/bl2/stm32mp_common.o
 .text          0x00000000        0x0 ./../build/optee-nor-stm32mp157d-ev1/bl2/stm32mp_dt.o
 .data          0x00000000        0x0 ./../build/optee-nor-stm32mp157d-ev1/bl2/stm32mp_dt.o
 .bss           0x00000000        0x0 ./../build/optee-nor-stm32mp157d-ev1/bl2/stm32mp_dt.o
 .text.dt_match_instance_by_compatible
                0x00000000       0x70 ./../build/optee-nor-stm32mp157d-ev1/bl2/stm32mp_dt.o
 .rodata.dt_get_cpu_regulator.str1.1
                0x00000000       0x10 ./../build/optee-nor-stm32mp157d-ev1/bl2/stm32mp_dt.o
 .text.dt_get_cpu_regulator
                0x00000000       0x2c ./../build/optee-nor-stm32mp157d-ev1/bl2/stm32mp_dt.o
 .rodata.dt_get_sysram_regulator.str1.1
                0x00000000       0x12 ./../build/optee-nor-stm32mp157d-ev1/bl2/stm32mp_dt.o
 .text.dt_get_sysram_regulator
                0x00000000       0x74 ./../build/optee-nor-stm32mp157d-ev1/bl2/stm32mp_dt.o
 .rodata.fdt_get_gpio_bank_pin_count.str1.1
                0x00000000       0x1c ./../build/optee-nor-stm32mp157d-ev1/bl2/stm32mp_dt.o
 .text.fdt_get_gpio_bank_pin_count
                0x00000000       0xd4 ./../build/optee-nor-stm32mp157d-ev1/bl2/stm32mp_dt.o
 .text          0x00000000        0x0 ./../build/optee-nor-stm32mp157d-ev1/bl2/stm32mp_fconf_fuse.o
 .data          0x00000000        0x0 ./../build/optee-nor-stm32mp157d-ev1/bl2/stm32mp_fconf_fuse.o
 .bss           0x00000000        0x0 ./../build/optee-nor-stm32mp157d-ev1/bl2/stm32mp_fconf_fuse.o
 .text          0x00000000        0x0 ./../build/optee-nor-stm32mp157d-ev1/bl2/stm32mp_fconf_io.o
 .data          0x00000000        0x0 ./../build/optee-nor-stm32mp157d-ev1/bl2/stm32mp_fconf_io.o
 .bss           0x00000000        0x0 ./../build/optee-nor-stm32mp157d-ev1/bl2/stm32mp_fconf_io.o
 .text          0x00000000        0x0 ./../build/optee-nor-stm32mp157d-ev1/bl2/bl2_plat_setup.o
 .data          0x00000000        0x0 ./../build/optee-nor-stm32mp157d-ev1/bl2/bl2_plat_setup.o
 .bss           0x00000000        0x0 ./../build/optee-nor-stm32mp157d-ev1/bl2/bl2_plat_setup.o
 .text          0x00000000        0x0 ./../build/optee-nor-stm32mp157d-ev1/bl2/plat_bl2_mem_params_desc.o
 .data          0x00000000        0x0 ./../build/optee-nor-stm32mp157d-ev1/bl2/plat_bl2_mem_params_desc.o
 .bss           0x00000000        0x0 ./../build/optee-nor-stm32mp157d-ev1/bl2/plat_bl2_mem_params_desc.o
 .text          0x00000000        0x0 ./../build/optee-nor-stm32mp157d-ev1/bl2/plat_ddr.o
 .data          0x00000000        0x0 ./../build/optee-nor-stm32mp157d-ev1/bl2/plat_ddr.o
 .bss           0x00000000        0x0 ./../build/optee-nor-stm32mp157d-ev1/bl2/plat_ddr.o
 .text          0x00000000        0x0 ./../build/optee-nor-stm32mp157d-ev1/bl2/stm32mp1_boot_device.o
 .data          0x00000000        0x0 ./../build/optee-nor-stm32mp157d-ev1/bl2/stm32mp1_boot_device.o
 .bss           0x00000000        0x0 ./../build/optee-nor-stm32mp157d-ev1/bl2/stm32mp1_boot_device.o
 .text          0x00000000        0x0 ./../build/optee-nor-stm32mp157d-ev1/bl2/stm32mp1_context.o
 .data          0x00000000        0x0 ./../build/optee-nor-stm32mp157d-ev1/bl2/stm32mp1_context.o
 .bss           0x00000000        0x0 ./../build/optee-nor-stm32mp157d-ev1/bl2/stm32mp1_context.o
 .text          0x00000000        0x0 ./../build/optee-nor-stm32mp157d-ev1/bl2/stm32mp1_critic_power.o
 .data          0x00000000        0x0 ./../build/optee-nor-stm32mp157d-ev1/bl2/stm32mp1_critic_power.o
 .bss           0x00000000        0x0 ./../build/optee-nor-stm32mp157d-ev1/bl2/stm32mp1_critic_power.o
 .text          0x00000000        0x0 ./../build/optee-nor-stm32mp157d-ev1/bl2/stm32mp1_dbgmcu.o
 .data          0x00000000        0x0 ./../build/optee-nor-stm32mp157d-ev1/bl2/stm32mp1_dbgmcu.o
 .bss           0x00000000        0x0 ./../build/optee-nor-stm32mp157d-ev1/bl2/stm32mp1_dbgmcu.o
 .text          0x00000000        0x0 ./../build/optee-nor-stm32mp157d-ev1/bl2/stm32mp1_fconf_firewall.o
 .data          0x00000000        0x0 ./../build/optee-nor-stm32mp157d-ev1/bl2/stm32mp1_fconf_firewall.o
 .bss           0x00000000        0x0 ./../build/optee-nor-stm32mp157d-ev1/bl2/stm32mp1_fconf_firewall.o
 .text          0x00000000        0x0 ./../build/optee-nor-stm32mp157d-ev1/bl2/stm32mp1_private.o
 .data          0x00000000        0x0 ./../build/optee-nor-stm32mp157d-ev1/bl2/stm32mp1_private.o
 .bss           0x00000000        0x0 ./../build/optee-nor-stm32mp157d-ev1/bl2/stm32mp1_private.o
 .text.stm32_gpio_is_secure_at_reset
                0x00000000        0xa ./../build/optee-nor-stm32mp157d-ev1/bl2/stm32mp1_private.o
 .rodata.stm32_get_gpio_bank_pinctrl_node.str1.1
                0x00000000       0x2e ./../build/optee-nor-stm32mp157d-ev1/bl2/stm32mp1_private.o
 .text.stm32_get_gpio_bank_pinctrl_node
                0x00000000       0x2c ./../build/optee-nor-stm32mp157d-ev1/bl2/stm32mp1_private.o
 .text.stm32_get_header_address
                0x00000000        0x8 ./../build/optee-nor-stm32mp157d-ev1/bl2/stm32mp1_private.o
 .text.stm32mp_is_single_core
                0x00000000       0x2c ./../build/optee-nor-stm32mp157d-ev1/bl2/stm32mp1_private.o
 .text.stm32mp_is_auth_supported
                0x00000000       0x40 ./../build/optee-nor-stm32mp157d-ev1/bl2/stm32mp1_private.o
 .text          0x00000000        0x0 ./../build/optee-nor-stm32mp157d-ev1/bl2/stm32mp1_syscfg.o
 .data          0x00000000        0x0 ./../build/optee-nor-stm32mp157d-ev1/bl2/stm32mp1_syscfg.o
 .bss           0x00000000        0x0 ./../build/optee-nor-stm32mp157d-ev1/bl2/stm32mp1_syscfg.o
 .text.stm32mp_syscfg_disable_io_compensation
                0x00000000       0x44 ./../build/optee-nor-stm32mp157d-ev1/bl2/stm32mp1_syscfg.o
 .text.stm32mp_syscfg_get_chip_version
                0x00000000       0x10 ./../build/optee-nor-stm32mp157d-ev1/bl2/stm32mp1_syscfg.o
 .text.stm32mp_syscfg_get_chip_dev_id
                0x00000000       0x10 ./../build/optee-nor-stm32mp157d-ev1/bl2/stm32mp1_syscfg.o
 .text          0x00000000        0x0 ./../build/optee-nor-stm32mp157d-ev1/bl2/bl2_el3_entrypoint.o
 .data          0x00000000        0x0 ./../build/optee-nor-stm32mp157d-ev1/bl2/bl2_el3_entrypoint.o
 .bss           0x00000000        0x0 ./../build/optee-nor-stm32mp157d-ev1/bl2/bl2_el3_entrypoint.o
 .text          0x00000000        0x0 ./../build/optee-nor-stm32mp157d-ev1/bl2/bl2_el3_exceptions.o
 .data          0x00000000        0x0 ./../build/optee-nor-stm32mp157d-ev1/bl2/bl2_el3_exceptions.o
 .bss           0x00000000        0x0 ./../build/optee-nor-stm32mp157d-ev1/bl2/bl2_el3_exceptions.o
 .text          0x00000000        0x0 ./../build/optee-nor-stm32mp157d-ev1/bl2/bl2_run_next_image.o
 .data          0x00000000        0x0 ./../build/optee-nor-stm32mp157d-ev1/bl2/bl2_run_next_image.o
 .bss           0x00000000        0x0 ./../build/optee-nor-stm32mp157d-ev1/bl2/bl2_run_next_image.o
 .text          0x00000000        0x0 ./../build/optee-nor-stm32mp157d-ev1/bl2/debug.o
 .data          0x00000000        0x0 ./../build/optee-nor-stm32mp157d-ev1/bl2/debug.o
 .bss           0x00000000        0x0 ./../build/optee-nor-stm32mp157d-ev1/bl2/debug.o
 .text          0x00000000        0x0 ./../build/optee-nor-stm32mp157d-ev1/bl2/stm32_console.o
 .data          0x00000000        0x0 ./../build/optee-nor-stm32mp157d-ev1/bl2/stm32_console.o
 .bss           0x00000000        0x0 ./../build/optee-nor-stm32mp157d-ev1/bl2/stm32_console.o
 .text.asm.console_stm32_core_getc
                0x00000000        0x8 ./../build/optee-nor-stm32mp157d-ev1/bl2/stm32_console.o
 .text          0x00000000        0x0 ./../build/optee-nor-stm32mp157d-ev1/bl2/cache_helpers.o
 .data          0x00000000        0x0 ./../build/optee-nor-stm32mp157d-ev1/bl2/cache_helpers.o
 .bss           0x00000000        0x0 ./../build/optee-nor-stm32mp157d-ev1/bl2/cache_helpers.o
 .text.asm.dcsw_op_louis
                0x00000000       0x14 ./../build/optee-nor-stm32mp157d-ev1/bl2/cache_helpers.o
 .text.asm.dcsw_op_level1
                0x00000000       0x10 ./../build/optee-nor-stm32mp157d-ev1/bl2/cache_helpers.o
 .text.asm.dcsw_op_level2
                0x00000000       0x10 ./../build/optee-nor-stm32mp157d-ev1/bl2/cache_helpers.o
 .text.asm.dcsw_op_level3
                0x00000000       0x10 ./../build/optee-nor-stm32mp157d-ev1/bl2/cache_helpers.o
 .text          0x00000000        0x0 ./../build/optee-nor-stm32mp157d-ev1/bl2/misc_helpers.o
 .data          0x00000000        0x0 ./../build/optee-nor-stm32mp157d-ev1/bl2/misc_helpers.o
 .bss           0x00000000        0x0 ./../build/optee-nor-stm32mp157d-ev1/bl2/misc_helpers.o
 .text.asm.smc  0x00000000        0x8 ./../build/optee-nor-stm32mp157d-ev1/bl2/misc_helpers.o
 .text.asm.memcpy4
                0x00000000       0x4c ./../build/optee-nor-stm32mp157d-ev1/bl2/misc_helpers.o
 .rodata.str1.1
                0x00000000       0x1b ./../build/optee-nor-stm32mp157d-ev1/bl2/misc_helpers.o
 .text.asm.fixup_gdt_reloc
                0x00000000       0xec ./../build/optee-nor-stm32mp157d-ev1/bl2/misc_helpers.o
 .text          0x00000000       0x24 ./../build/optee-nor-stm32mp157d-ev1/bl2/aeabi_ldivmod.o
 .data          0x00000000        0x0 ./../build/optee-nor-stm32mp157d-ev1/bl2/aeabi_ldivmod.o
 .bss           0x00000000        0x0 ./../build/optee-nor-stm32mp157d-ev1/bl2/aeabi_ldivmod.o
 .note.GNU-stack
                0x00000000        0x0 ./../build/optee-nor-stm32mp157d-ev1/bl2/aeabi_ldivmod.o
 .debug_line    0x00000000       0x67 ./../build/optee-nor-stm32mp157d-ev1/bl2/aeabi_ldivmod.o
 .debug_info    0x00000000       0x30 ./../build/optee-nor-stm32mp157d-ev1/bl2/aeabi_ldivmod.o
 .debug_abbrev  0x00000000       0x28 ./../build/optee-nor-stm32mp157d-ev1/bl2/aeabi_ldivmod.o
 .debug_aranges
                0x00000000       0x20 ./../build/optee-nor-stm32mp157d-ev1/bl2/aeabi_ldivmod.o
 .debug_str     0x00000000       0x77 ./../build/optee-nor-stm32mp157d-ev1/bl2/aeabi_ldivmod.o
 .ARM.attributes
                0x00000000       0x27 ./../build/optee-nor-stm32mp157d-ev1/bl2/aeabi_ldivmod.o
 .text          0x00000000        0x4 ./../build/optee-nor-stm32mp157d-ev1/bl2/aeabi_memcpy.o
 .data          0x00000000        0x0 ./../build/optee-nor-stm32mp157d-ev1/bl2/aeabi_memcpy.o
 .bss           0x00000000        0x0 ./../build/optee-nor-stm32mp157d-ev1/bl2/aeabi_memcpy.o
 .note.GNU-stack
                0x00000000        0x0 ./../build/optee-nor-stm32mp157d-ev1/bl2/aeabi_memcpy.o
 .debug_line    0x00000000       0x5c ./../build/optee-nor-stm32mp157d-ev1/bl2/aeabi_memcpy.o
 .debug_info    0x00000000       0x46 ./../build/optee-nor-stm32mp157d-ev1/bl2/aeabi_memcpy.o
 .debug_abbrev  0x00000000       0x28 ./../build/optee-nor-stm32mp157d-ev1/bl2/aeabi_memcpy.o
 .debug_aranges
                0x00000000       0x20 ./../build/optee-nor-stm32mp157d-ev1/bl2/aeabi_memcpy.o
 .debug_str     0x00000000       0x95 ./../build/optee-nor-stm32mp157d-ev1/bl2/aeabi_memcpy.o
 .ARM.attributes
                0x00000000       0x27 ./../build/optee-nor-stm32mp157d-ev1/bl2/aeabi_memcpy.o
 .text          0x00000000       0x1c ./../build/optee-nor-stm32mp157d-ev1/bl2/aeabi_memset.o
 .data          0x00000000        0x0 ./../build/optee-nor-stm32mp157d-ev1/bl2/aeabi_memset.o
 .bss           0x00000000        0x0 ./../build/optee-nor-stm32mp157d-ev1/bl2/aeabi_memset.o
 .note.GNU-stack
                0x00000000        0x0 ./../build/optee-nor-stm32mp157d-ev1/bl2/aeabi_memset.o
 .debug_line    0x00000000       0x64 ./../build/optee-nor-stm32mp157d-ev1/bl2/aeabi_memset.o
 .debug_info    0x00000000       0x67 ./../build/optee-nor-stm32mp157d-ev1/bl2/aeabi_memset.o
 .debug_abbrev  0x00000000       0x28 ./../build/optee-nor-stm32mp157d-ev1/bl2/aeabi_memset.o
 .debug_aranges
                0x00000000       0x20 ./../build/optee-nor-stm32mp157d-ev1/bl2/aeabi_memset.o
 .debug_str     0x00000000       0xc4 ./../build/optee-nor-stm32mp157d-ev1/bl2/aeabi_memset.o
 .ARM.attributes
                0x00000000       0x27 ./../build/optee-nor-stm32mp157d-ev1/bl2/aeabi_memset.o
 .data          0x00000000        0x0 ./../build/optee-nor-stm32mp157d-ev1/bl2/aeabi_uldivmod.o
 .bss           0x00000000        0x0 ./../build/optee-nor-stm32mp157d-ev1/bl2/aeabi_uldivmod.o
 .text          0x00000000        0x0 ./../build/optee-nor-stm32mp157d-ev1/bl2/cortex_a7.o
 .data          0x00000000        0x0 ./../build/optee-nor-stm32mp157d-ev1/bl2/cortex_a7.o
 .bss           0x00000000        0x0 ./../build/optee-nor-stm32mp157d-ev1/bl2/cortex_a7.o
 .text.asm.cortex_a7_disable_smp
                0x00000000       0x18 ./../build/optee-nor-stm32mp157d-ev1/bl2/cortex_a7.o
 .text.asm.cortex_a7_core_pwr_dwn
                0x00000000       0x30 ./../build/optee-nor-stm32mp157d-ev1/bl2/cortex_a7.o
 .rodata.str1.1
                0x00000000       0x1d ./../build/optee-nor-stm32mp157d-ev1/bl2/cortex_a7.o
 .text.asm.cortex_a7_cluster_pwr_dwn
                0x00000000       0x3c ./../build/optee-nor-stm32mp157d-ev1/bl2/cortex_a7.o
 .text          0x00000000        0x0 ./../build/optee-nor-stm32mp157d-ev1/bl2/cpu_helpers.o
 .data          0x00000000        0x0 ./../build/optee-nor-stm32mp157d-ev1/bl2/cpu_helpers.o
 .bss           0x00000000        0x0 ./../build/optee-nor-stm32mp157d-ev1/bl2/cpu_helpers.o
 .text.asm.cpu_get_rev_var
                0x00000000       0x10 ./../build/optee-nor-stm32mp157d-ev1/bl2/cpu_helpers.o
 .text.asm.cpu_rev_var_ls
                0x00000000       0x10 ./../build/optee-nor-stm32mp157d-ev1/bl2/cpu_helpers.o
 .text.asm.cpu_rev_var_hs
                0x00000000       0x10 ./../build/optee-nor-stm32mp157d-ev1/bl2/cpu_helpers.o
 .text          0x00000000        0x0 ./../build/optee-nor-stm32mp157d-ev1/bl2/spinlock.o
 .data          0x00000000        0x0 ./../build/optee-nor-stm32mp157d-ev1/bl2/spinlock.o
 .bss           0x00000000        0x0 ./../build/optee-nor-stm32mp157d-ev1/bl2/spinlock.o
 .text          0x00000000        0x0 ./../build/optee-nor-stm32mp157d-ev1/bl2/enable_mmu.o
 .data          0x00000000        0x0 ./../build/optee-nor-stm32mp157d-ev1/bl2/enable_mmu.o
 .bss           0x00000000        0x0 ./../build/optee-nor-stm32mp157d-ev1/bl2/enable_mmu.o
 .text.asm.enable_mmu_direct_hyp
                0x00000000       0x74 ./../build/optee-nor-stm32mp157d-ev1/bl2/enable_mmu.o
 .text          0x00000000        0x0 ./../build/optee-nor-stm32mp157d-ev1/bl2/platform_helpers.o
 .data          0x00000000        0x0 ./../build/optee-nor-stm32mp157d-ev1/bl2/platform_helpers.o
 .bss           0x00000000        0x0 ./../build/optee-nor-stm32mp157d-ev1/bl2/platform_helpers.o
 .text.asm.plat_report_exception
                0x00000000        0x4 ./../build/optee-nor-stm32mp157d-ev1/bl2/platform_helpers.o
 .text.asm.plat_report_prefetch_abort
                0x00000000        0x4 ./../build/optee-nor-stm32mp157d-ev1/bl2/platform_helpers.o
 .text.asm.plat_report_data_abort
                0x00000000        0x4 ./../build/optee-nor-stm32mp157d-ev1/bl2/platform_helpers.o
 .text.asm.plat_reset_handler
                0x00000000        0x4 ./../build/optee-nor-stm32mp157d-ev1/bl2/platform_helpers.o
 .text.asm.plat_disable_acp
                0x00000000        0x4 ./../build/optee-nor-stm32mp157d-ev1/bl2/platform_helpers.o
 .text.asm.platform_mem_init
                0x00000000        0x4 ./../build/optee-nor-stm32mp157d-ev1/bl2/platform_helpers.o
 .text.asm.bl1_plat_prepare_exit
                0x00000000        0x4 ./../build/optee-nor-stm32mp157d-ev1/bl2/platform_helpers.o
 .text.asm.plat_panic_handler
                0x00000000        0x4 ./../build/optee-nor-stm32mp157d-ev1/bl2/platform_helpers.o
 .debug_line    0x00000000       0xc3 ./../build/optee-nor-stm32mp157d-ev1/bl2/platform_helpers.o
 .debug_info    0x00000000       0x7c ./../build/optee-nor-stm32mp157d-ev1/bl2/platform_helpers.o
 .debug_abbrev  0x00000000       0x24 ./../build/optee-nor-stm32mp157d-ev1/bl2/platform_helpers.o
 .debug_aranges
                0x00000000       0x58 ./../build/optee-nor-stm32mp157d-ev1/bl2/platform_helpers.o
 .debug_str     0x00000000      0x108 ./../build/optee-nor-stm32mp157d-ev1/bl2/platform_helpers.o
 .debug_ranges  0x00000000       0x50 ./../build/optee-nor-stm32mp157d-ev1/bl2/platform_helpers.o
 .debug_frame   0x00000000       0x90 ./../build/optee-nor-stm32mp157d-ev1/bl2/platform_helpers.o
 .ARM.attributes
                0x00000000       0x27 ./../build/optee-nor-stm32mp157d-ev1/bl2/platform_helpers.o
 .text          0x00000000        0x0 ./../build/optee-nor-stm32mp157d-ev1/bl2/platform_up_stack.o
 .data          0x00000000        0x0 ./../build/optee-nor-stm32mp157d-ev1/bl2/platform_up_stack.o
 .bss           0x00000000        0x0 ./../build/optee-nor-stm32mp157d-ev1/bl2/platform_up_stack.o
 .text.asm.plat_get_my_stack
                0x00000000        0xc ./../build/optee-nor-stm32mp157d-ev1/bl2/platform_up_stack.o
 .text          0x00000000        0x0 ./../build/optee-nor-stm32mp157d-ev1/bl2/stm32mp1_critic_power_wrapper.o
 .bss           0x00000000        0x0 ./../build/optee-nor-stm32mp157d-ev1/bl2/stm32mp1_critic_power_wrapper.o
 .text          0x00000000        0x0 ./../build/optee-nor-stm32mp157d-ev1/bl2/stm32mp1_helper.o
 .data          0x00000000        0x0 ./../build/optee-nor-stm32mp157d-ev1/bl2/stm32mp1_helper.o
 .bss           0x00000000        0x0 ./../build/optee-nor-stm32mp157d-ev1/bl2/stm32mp1_helper.o
 .text.asm.plat_stm32mp1_get_core_pos
                0x00000000       0x10 ./../build/optee-nor-stm32mp157d-ev1/bl2/stm32mp1_helper.o
 .text.asm.plat_my_core_pos
                0x00000000        0x8 ./../build/optee-nor-stm32mp157d-ev1/bl2/stm32mp1_helper.o
 .text          0x00000000        0x0 ./../build/optee-nor-stm32mp157d-ev1/lib/libfdt.a(fdt.o)
 .data          0x00000000        0x0 ./../build/optee-nor-stm32mp157d-ev1/lib/libfdt.a(fdt.o)
 .bss           0x00000000        0x0 ./../build/optee-nor-stm32mp157d-ev1/lib/libfdt.a(fdt.o)
 .text.fdt_find_string_
                0x00000000       0x30 ./../build/optee-nor-stm32mp157d-ev1/lib/libfdt.a(fdt.o)
 .text.fdt_move
                0x00000000       0x30 ./../build/optee-nor-stm32mp157d-ev1/lib/libfdt.a(fdt.o)
 .text          0x00000000        0x0 ./../build/optee-nor-stm32mp157d-ev1/lib/libfdt.a(fdt_addresses.o)
 .data          0x00000000        0x0 ./../build/optee-nor-stm32mp157d-ev1/lib/libfdt.a(fdt_addresses.o)
 .bss           0x00000000        0x0 ./../build/optee-nor-stm32mp157d-ev1/lib/libfdt.a(fdt_addresses.o)
 .text.fdt_appendprop_addrrange
                0x00000000       0xce ./../build/optee-nor-stm32mp157d-ev1/lib/libfdt.a(fdt_addresses.o)
 .text          0x00000000        0x0 ./../build/optee-nor-stm32mp157d-ev1/lib/libfdt.a(fdt_ro.o)
 .data          0x00000000        0x0 ./../build/optee-nor-stm32mp157d-ev1/lib/libfdt.a(fdt_ro.o)
 .bss           0x00000000        0x0 ./../build/optee-nor-stm32mp157d-ev1/lib/libfdt.a(fdt_ro.o)
 .text.fdt64_ld_
                0x00000000        0xa ./../build/optee-nor-stm32mp157d-ev1/lib/libfdt.a(fdt_ro.o)
 .text.fdt_mem_rsv
                0x00000000       0x24 ./../build/optee-nor-stm32mp157d-ev1/lib/libfdt.a(fdt_ro.o)
 .text.fdt_string
                0x00000000        0x6 ./../build/optee-nor-stm32mp157d-ev1/lib/libfdt.a(fdt_ro.o)
 .text.fdt_get_mem_rsv
                0x00000000       0x3c ./../build/optee-nor-stm32mp157d-ev1/lib/libfdt.a(fdt_ro.o)
 .text.fdt_num_mem_rsv
                0x00000000       0x26 ./../build/optee-nor-stm32mp157d-ev1/lib/libfdt.a(fdt_ro.o)
 .text.fdt_get_property_by_offset
                0x00000000       0x28 ./../build/optee-nor-stm32mp157d-ev1/lib/libfdt.a(fdt_ro.o)
 .text.fdt_get_property_namelen
                0x00000000       0x34 ./../build/optee-nor-stm32mp157d-ev1/lib/libfdt.a(fdt_ro.o)
 .text.fdt_get_property
                0x00000000       0x22 ./../build/optee-nor-stm32mp157d-ev1/lib/libfdt.a(fdt_ro.o)
 .text.fdt_getprop_by_offset
                0x00000000       0x68 ./../build/optee-nor-stm32mp157d-ev1/lib/libfdt.a(fdt_ro.o)
 .text.fdt_find_max_phandle
                0x00000000       0x3c ./../build/optee-nor-stm32mp157d-ev1/lib/libfdt.a(fdt_ro.o)
 .text.fdt_generate_phandle
                0x00000000       0x28 ./../build/optee-nor-stm32mp157d-ev1/lib/libfdt.a(fdt_ro.o)
 .text.fdt_get_alias
                0x00000000       0x1a ./../build/optee-nor-stm32mp157d-ev1/lib/libfdt.a(fdt_ro.o)
 .text.fdt_get_path
                0x00000000       0xca ./../build/optee-nor-stm32mp157d-ev1/lib/libfdt.a(fdt_ro.o)
 .text.fdt_node_offset_by_prop_value
                0x00000000       0x58 ./../build/optee-nor-stm32mp157d-ev1/lib/libfdt.a(fdt_ro.o)
 .text.fdt_stringlist_count
                0x00000000       0x38 ./../build/optee-nor-stm32mp157d-ev1/lib/libfdt.a(fdt_ro.o)
 .text.fdt_stringlist_get
                0x00000000       0x5c ./../build/optee-nor-stm32mp157d-ev1/lib/libfdt.a(fdt_ro.o)
 .text          0x00000000        0x0 ./../build/optee-nor-stm32mp157d-ev1/lib/libfdt.a(fdt_rw.o)
 .data          0x00000000        0x0 ./../build/optee-nor-stm32mp157d-ev1/lib/libfdt.a(fdt_rw.o)
 .bss           0x00000000        0x0 ./../build/optee-nor-stm32mp157d-ev1/lib/libfdt.a(fdt_rw.o)
 .text.cpu_to_fdt32
                0x00000000        0x4 ./../build/optee-nor-stm32mp157d-ev1/lib/libfdt.a(fdt_rw.o)
 .text.cpu_to_fdt64
                0x00000000        0x8 ./../build/optee-nor-stm32mp157d-ev1/lib/libfdt.a(fdt_rw.o)
 .text.fdt32_ld
                0x00000000       0x18 ./../build/optee-nor-stm32mp157d-ev1/lib/libfdt.a(fdt_rw.o)
 .text.fdt_blocks_misordered_
                0x00000000       0x52 ./../build/optee-nor-stm32mp157d-ev1/lib/libfdt.a(fdt_rw.o)
 .text.fdt_splice_
                0x00000000       0x6a ./../build/optee-nor-stm32mp157d-ev1/lib/libfdt.a(fdt_rw.o)
 .text.fdt_splice_mem_rsv_
                0x00000000       0x3c ./../build/optee-nor-stm32mp157d-ev1/lib/libfdt.a(fdt_rw.o)
 .text.fdt_rw_probe_
                0x00000000       0x46 ./../build/optee-nor-stm32mp157d-ev1/lib/libfdt.a(fdt_rw.o)
 .text.fdt_packblocks_
                0x00000000       0x82 ./../build/optee-nor-stm32mp157d-ev1/lib/libfdt.a(fdt_rw.o)
 .text.fdt_splice_struct_
                0x00000000       0x36 ./../build/optee-nor-stm32mp157d-ev1/lib/libfdt.a(fdt_rw.o)
 .text.fdt_add_property_
                0x00000000       0xfc ./../build/optee-nor-stm32mp157d-ev1/lib/libfdt.a(fdt_rw.o)
 .text.fdt_add_mem_rsv
                0x00000000       0x56 ./../build/optee-nor-stm32mp157d-ev1/lib/libfdt.a(fdt_rw.o)
 .text.fdt_del_mem_rsv
                0x00000000       0x42 ./../build/optee-nor-stm32mp157d-ev1/lib/libfdt.a(fdt_rw.o)
 .text.fdt_set_name
                0x00000000       0x5a ./../build/optee-nor-stm32mp157d-ev1/lib/libfdt.a(fdt_rw.o)
 .text.fdt_setprop_placeholder
                0x00000000       0x7a ./../build/optee-nor-stm32mp157d-ev1/lib/libfdt.a(fdt_rw.o)
 .text.fdt_setprop
                0x00000000       0x26 ./../build/optee-nor-stm32mp157d-ev1/lib/libfdt.a(fdt_rw.o)
 .text.fdt_appendprop
                0x00000000       0x8a ./../build/optee-nor-stm32mp157d-ev1/lib/libfdt.a(fdt_rw.o)
 .text.fdt_delprop
                0x00000000       0x3e ./../build/optee-nor-stm32mp157d-ev1/lib/libfdt.a(fdt_rw.o)
 .text.fdt_add_subnode_namelen
                0x00000000       0xaa ./../build/optee-nor-stm32mp157d-ev1/lib/libfdt.a(fdt_rw.o)
 .text.fdt_add_subnode
                0x00000000       0x1e ./../build/optee-nor-stm32mp157d-ev1/lib/libfdt.a(fdt_rw.o)
 .text.fdt_del_node
                0x00000000       0x38 ./../build/optee-nor-stm32mp157d-ev1/lib/libfdt.a(fdt_rw.o)
 .text.fdt_open_into
                0x00000000      0x118 ./../build/optee-nor-stm32mp157d-ev1/lib/libfdt.a(fdt_rw.o)
 .text.fdt_pack
                0x00000000       0x56 ./../build/optee-nor-stm32mp157d-ev1/lib/libfdt.a(fdt_rw.o)
 .debug_info    0x00000000     0x2c00 ./../build/optee-nor-stm32mp157d-ev1/lib/libfdt.a(fdt_rw.o)
 .debug_abbrev  0x00000000      0x4a4 ./../build/optee-nor-stm32mp157d-ev1/lib/libfdt.a(fdt_rw.o)
 .debug_loc     0x00000000     0x229c ./../build/optee-nor-stm32mp157d-ev1/lib/libfdt.a(fdt_rw.o)
 .debug_aranges
                0x00000000       0xc8 ./../build/optee-nor-stm32mp157d-ev1/lib/libfdt.a(fdt_rw.o)
 .debug_ranges  0x00000000      0x420 ./../build/optee-nor-stm32mp157d-ev1/lib/libfdt.a(fdt_rw.o)
 .debug_line    0x00000000     0x104c ./../build/optee-nor-stm32mp157d-ev1/lib/libfdt.a(fdt_rw.o)
 .debug_str     0x00000000      0x866 ./../build/optee-nor-stm32mp157d-ev1/lib/libfdt.a(fdt_rw.o)
 .comment       0x00000000       0x13 ./../build/optee-nor-stm32mp157d-ev1/lib/libfdt.a(fdt_rw.o)
 .note.GNU-stack
                0x00000000        0x0 ./../build/optee-nor-stm32mp157d-ev1/lib/libfdt.a(fdt_rw.o)
 .debug_frame   0x00000000      0x2f8 ./../build/optee-nor-stm32mp157d-ev1/lib/libfdt.a(fdt_rw.o)
 .ARM.attributes
                0x00000000       0x33 ./../build/optee-nor-stm32mp157d-ev1/lib/libfdt.a(fdt_rw.o)
 .text          0x00000000        0x0 ./../build/optee-nor-stm32mp157d-ev1/lib/libfdt.a(fdt_strerror.o)
 .data          0x00000000        0x0 ./../build/optee-nor-stm32mp157d-ev1/lib/libfdt.a(fdt_strerror.o)
 .bss           0x00000000        0x0 ./../build/optee-nor-stm32mp157d-ev1/lib/libfdt.a(fdt_strerror.o)
 .rodata.fdt_strerror.str1.1
                0x00000000       0x31 ./../build/optee-nor-stm32mp157d-ev1/lib/libfdt.a(fdt_strerror.o)
 .text.fdt_strerror
                0x00000000       0x3c ./../build/optee-nor-stm32mp157d-ev1/lib/libfdt.a(fdt_strerror.o)
 .rodata.str1.1
                0x00000000      0x150 ./../build/optee-nor-stm32mp157d-ev1/lib/libfdt.a(fdt_strerror.o)
 .rodata.fdt_errtable
                0x00000000       0x50 ./../build/optee-nor-stm32mp157d-ev1/lib/libfdt.a(fdt_strerror.o)
 .debug_info    0x00000000       0xfe ./../build/optee-nor-stm32mp157d-ev1/lib/libfdt.a(fdt_strerror.o)
 .debug_abbrev  0x00000000       0xca ./../build/optee-nor-stm32mp157d-ev1/lib/libfdt.a(fdt_strerror.o)
 .debug_loc     0x00000000       0xd7 ./../build/optee-nor-stm32mp157d-ev1/lib/libfdt.a(fdt_strerror.o)
 .debug_aranges
                0x00000000       0x20 ./../build/optee-nor-stm32mp157d-ev1/lib/libfdt.a(fdt_strerror.o)
 .debug_ranges  0x00000000       0x28 ./../build/optee-nor-stm32mp157d-ev1/lib/libfdt.a(fdt_strerror.o)
 .debug_line    0x00000000       0x89 ./../build/optee-nor-stm32mp157d-ev1/lib/libfdt.a(fdt_strerror.o)
 .debug_str     0x00000000      0x1fb ./../build/optee-nor-stm32mp157d-ev1/lib/libfdt.a(fdt_strerror.o)
 .comment       0x00000000       0x13 ./../build/optee-nor-stm32mp157d-ev1/lib/libfdt.a(fdt_strerror.o)
 .note.GNU-stack
                0x00000000        0x0 ./../build/optee-nor-stm32mp157d-ev1/lib/libfdt.a(fdt_strerror.o)
 .debug_frame   0x00000000       0x20 ./../build/optee-nor-stm32mp157d-ev1/lib/libfdt.a(fdt_strerror.o)
 .ARM.attributes
                0x00000000       0x33 ./../build/optee-nor-stm32mp157d-ev1/lib/libfdt.a(fdt_strerror.o)
 .text          0x00000000        0x0 ./../build/optee-nor-stm32mp157d-ev1/lib/libfdt.a(fdt_wip.o)
 .data          0x00000000        0x0 ./../build/optee-nor-stm32mp157d-ev1/lib/libfdt.a(fdt_wip.o)
 .bss           0x00000000        0x0 ./../build/optee-nor-stm32mp157d-ev1/lib/libfdt.a(fdt_wip.o)
 .text.fdt_setprop_inplace_namelen_partial
                0x00000000       0x30 ./../build/optee-nor-stm32mp157d-ev1/lib/libfdt.a(fdt_wip.o)
 .text.fdt_setprop_inplace
                0x00000000       0x4a ./../build/optee-nor-stm32mp157d-ev1/lib/libfdt.a(fdt_wip.o)
 .text.fdt_nop_property
                0x00000000       0x2c ./../build/optee-nor-stm32mp157d-ev1/lib/libfdt.a(fdt_wip.o)
 .text.fdt_node_end_offset_
                0x00000000       0x20 ./../build/optee-nor-stm32mp157d-ev1/lib/libfdt.a(fdt_wip.o)
 .text.fdt_nop_node
                0x00000000       0x30 ./../build/optee-nor-stm32mp157d-ev1/lib/libfdt.a(fdt_wip.o)
 .debug_info    0x00000000      0x86e ./../build/optee-nor-stm32mp157d-ev1/lib/libfdt.a(fdt_wip.o)
 .debug_abbrev  0x00000000      0x269 ./../build/optee-nor-stm32mp157d-ev1/lib/libfdt.a(fdt_wip.o)
 .debug_loc     0x00000000      0x615 ./../build/optee-nor-stm32mp157d-ev1/lib/libfdt.a(fdt_wip.o)
 .debug_aranges
                0x00000000       0x40 ./../build/optee-nor-stm32mp157d-ev1/lib/libfdt.a(fdt_wip.o)
 .debug_ranges  0x00000000       0x90 ./../build/optee-nor-stm32mp157d-ev1/lib/libfdt.a(fdt_wip.o)
 .debug_line    0x00000000      0x2d8 ./../build/optee-nor-stm32mp157d-ev1/lib/libfdt.a(fdt_wip.o)
 .debug_str     0x00000000      0x381 ./../build/optee-nor-stm32mp157d-ev1/lib/libfdt.a(fdt_wip.o)
 .comment       0x00000000       0x13 ./../build/optee-nor-stm32mp157d-ev1/lib/libfdt.a(fdt_wip.o)
 .note.GNU-stack
                0x00000000        0x0 ./../build/optee-nor-stm32mp157d-ev1/lib/libfdt.a(fdt_wip.o)
 .debug_frame   0x00000000       0xb4 ./../build/optee-nor-stm32mp157d-ev1/lib/libfdt.a(fdt_wip.o)
 .ARM.attributes
                0x00000000       0x33 ./../build/optee-nor-stm32mp157d-ev1/lib/libfdt.a(fdt_wip.o)
 .text          0x00000000        0x0 ./../build/optee-nor-stm32mp157d-ev1/lib/libc.a(assert.o)
 .data          0x00000000        0x0 ./../build/optee-nor-stm32mp157d-ev1/lib/libc.a(assert.o)
 .bss           0x00000000        0x0 ./../build/optee-nor-stm32mp157d-ev1/lib/libc.a(assert.o)
 .text          0x00000000        0x0 ./../build/optee-nor-stm32mp157d-ev1/lib/libc.a(memchr.o)
 .data          0x00000000        0x0 ./../build/optee-nor-stm32mp157d-ev1/lib/libc.a(memchr.o)
 .bss           0x00000000        0x0 ./../build/optee-nor-stm32mp157d-ev1/lib/libc.a(memchr.o)
 .text          0x00000000        0x0 ./../build/optee-nor-stm32mp157d-ev1/lib/libc.a(memcmp.o)
 .data          0x00000000        0x0 ./../build/optee-nor-stm32mp157d-ev1/lib/libc.a(memcmp.o)
 .bss           0x00000000        0x0 ./../build/optee-nor-stm32mp157d-ev1/lib/libc.a(memcmp.o)
 .text          0x00000000        0x0 ./../build/optee-nor-stm32mp157d-ev1/lib/libc.a(memcpy.o)
 .data          0x00000000        0x0 ./../build/optee-nor-stm32mp157d-ev1/lib/libc.a(memcpy.o)
 .bss           0x00000000        0x0 ./../build/optee-nor-stm32mp157d-ev1/lib/libc.a(memcpy.o)
 .text          0x00000000        0x0 ./../build/optee-nor-stm32mp157d-ev1/lib/libc.a(memmove.o)
 .data          0x00000000        0x0 ./../build/optee-nor-stm32mp157d-ev1/lib/libc.a(memmove.o)
 .bss           0x00000000        0x0 ./../build/optee-nor-stm32mp157d-ev1/lib/libc.a(memmove.o)
 .text          0x00000000        0x0 ./../build/optee-nor-stm32mp157d-ev1/lib/libc.a(memset.o)
 .data          0x00000000        0x0 ./../build/optee-nor-stm32mp157d-ev1/lib/libc.a(memset.o)
 .bss           0x00000000        0x0 ./../build/optee-nor-stm32mp157d-ev1/lib/libc.a(memset.o)
 .text          0x00000000        0x0 ./../build/optee-nor-stm32mp157d-ev1/lib/libc.a(printf.o)
 .data          0x00000000        0x0 ./../build/optee-nor-stm32mp157d-ev1/lib/libc.a(printf.o)
 .bss           0x00000000        0x0 ./../build/optee-nor-stm32mp157d-ev1/lib/libc.a(printf.o)
 .text          0x00000000        0x0 ./../build/optee-nor-stm32mp157d-ev1/lib/libc.a(snprintf.o)
 .data          0x00000000        0x0 ./../build/optee-nor-stm32mp157d-ev1/lib/libc.a(snprintf.o)
 .bss           0x00000000        0x0 ./../build/optee-nor-stm32mp157d-ev1/lib/libc.a(snprintf.o)
 .text          0x00000000        0x0 ./../build/optee-nor-stm32mp157d-ev1/lib/libc.a(strchr.o)
 .data          0x00000000        0x0 ./../build/optee-nor-stm32mp157d-ev1/lib/libc.a(strchr.o)
 .bss           0x00000000        0x0 ./../build/optee-nor-stm32mp157d-ev1/lib/libc.a(strchr.o)
 .text          0x00000000        0x0 ./../build/optee-nor-stm32mp157d-ev1/lib/libc.a(strcmp.o)
 .data          0x00000000        0x0 ./../build/optee-nor-stm32mp157d-ev1/lib/libc.a(strcmp.o)
 .bss           0x00000000        0x0 ./../build/optee-nor-stm32mp157d-ev1/lib/libc.a(strcmp.o)
 .text          0x00000000        0x0 ./../build/optee-nor-stm32mp157d-ev1/lib/libc.a(strlcpy.o)
 .data          0x00000000        0x0 ./../build/optee-nor-stm32mp157d-ev1/lib/libc.a(strlcpy.o)
 .bss           0x00000000        0x0 ./../build/optee-nor-stm32mp157d-ev1/lib/libc.a(strlcpy.o)
 .text          0x00000000        0x0 ./../build/optee-nor-stm32mp157d-ev1/lib/libc.a(strlen.o)
 .data          0x00000000        0x0 ./../build/optee-nor-stm32mp157d-ev1/lib/libc.a(strlen.o)
 .bss           0x00000000        0x0 ./../build/optee-nor-stm32mp157d-ev1/lib/libc.a(strlen.o)
 .text          0x00000000        0x0 ./../build/optee-nor-stm32mp157d-ev1/lib/libc.a(strncmp.o)
 .data          0x00000000        0x0 ./../build/optee-nor-stm32mp157d-ev1/lib/libc.a(strncmp.o)
 .bss           0x00000000        0x0 ./../build/optee-nor-stm32mp157d-ev1/lib/libc.a(strncmp.o)
 .text          0x00000000        0x0 ./../build/optee-nor-stm32mp157d-ev1/lib/libc.a(strnlen.o)
 .data          0x00000000        0x0 ./../build/optee-nor-stm32mp157d-ev1/lib/libc.a(strnlen.o)
 .bss           0x00000000        0x0 ./../build/optee-nor-stm32mp157d-ev1/lib/libc.a(strnlen.o)
 .text          0x00000000        0x0 ./../build/optee-nor-stm32mp157d-ev1/lib/libc.a(strrchr.o)
 .data          0x00000000        0x0 ./../build/optee-nor-stm32mp157d-ev1/lib/libc.a(strrchr.o)
 .bss           0x00000000        0x0 ./../build/optee-nor-stm32mp157d-ev1/lib/libc.a(strrchr.o)

Memory Configuration

Name             Origin             Length             Attributes
RAM              0x2ffe9000         0x00016000         xrw
*default*        0x00000000         0xffffffff

Linker script and memory map

                0x2ffe9000                        RAM_REGION_START = ORIGIN (RAM)
                0x00016000                        RAM_REGION_LENGTH = LENGTH (RAM)
                0x2ffe9000                        . = 0x2ffe9000
                0x00000001                        ASSERT ((. == ALIGN (0x1000)), BL2_BASE address is not aligned on a page boundary.)

.ro             0x2ffe9000    0x11000
                0x2ffe9000                        __RO_START__ = .
                0x2ffe9000                        __TEXT_RESIDENT_START__ = .
 *bl2_el3_entrypoint.o(SORT_BY_ALIGNMENT(.text*))
 .text.asm.bl2_entrypoint
                0x2ffe9000      0x160 ./../build/optee-nor-stm32mp157d-ev1/bl2/bl2_el3_entrypoint.o
                0x2ffe9000                bl2_entrypoint
 *(SORT_BY_ALIGNMENT(.text.asm.*))
 .text.asm.bl2_run_next_image
                0x2ffe9160       0x48 ./../build/optee-nor-stm32mp157d-ev1/bl2/bl2_run_next_image.o
                0x2ffe9160                bl2_run_next_image
 .text.asm.asm_assert
                0x2ffe91a8       0x7c ./../build/optee-nor-stm32mp157d-ev1/bl2/debug.o
                0x2ffe91a8                asm_assert
 .text.asm.asm_print_str
                0x2ffe9224       0x1c ./../build/optee-nor-stm32mp157d-ev1/bl2/debug.o
                0x2ffe9224                asm_print_str
 .text.asm.asm_print_hex
                0x2ffe9240       0x34 ./../build/optee-nor-stm32mp157d-ev1/bl2/debug.o
                0x2ffe9240                asm_print_hex
                0x2ffe9244                asm_print_hex_bits
 .text.asm.el3_panic
                0x2ffe9274       0x3c ./../build/optee-nor-stm32mp157d-ev1/bl2/debug.o
                0x2ffe9274                el3_panic
 .text.asm.report_exception
                0x2ffe92b0       0x14 ./../build/optee-nor-stm32mp157d-ev1/bl2/debug.o
                0x2ffe92b0                report_exception
 .text.asm.report_prefetch_abort
                0x2ffe92c4       0x10 ./../build/optee-nor-stm32mp157d-ev1/bl2/debug.o
                0x2ffe92c4                report_prefetch_abort
 .text.asm.report_data_abort
                0x2ffe92d4       0x10 ./../build/optee-nor-stm32mp157d-ev1/bl2/debug.o
                0x2ffe92d4                report_data_abort
 .text.asm.console_stm32_core_init
                0x2ffe92e4       0xac ./../build/optee-nor-stm32mp157d-ev1/bl2/stm32_console.o
                0x2ffe92e4                console_stm32_core_init
 .text.asm.console_stm32_register
                0x2ffe9390       0x50 ./../build/optee-nor-stm32mp157d-ev1/bl2/stm32_console.o
                0x2ffe9390                console_stm32_register
 .text.asm.console_stm32_core_putc
                0x2ffe93e0       0x24 ./../build/optee-nor-stm32mp157d-ev1/bl2/stm32_console.o
                0x2ffe93e0                console_stm32_core_putc
 .text.asm.console_stm32_putc
                0x2ffe9404       0x20 ./../build/optee-nor-stm32mp157d-ev1/bl2/stm32_console.o
                0x2ffe9404                console_stm32_putc
 .text.asm.console_stm32_core_flush
                0x2ffe9424       0x34 ./../build/optee-nor-stm32mp157d-ev1/bl2/stm32_console.o
                0x2ffe9424                console_stm32_core_flush
 .text.asm.console_stm32_flush
                0x2ffe9458       0x20 ./../build/optee-nor-stm32mp157d-ev1/bl2/stm32_console.o
                0x2ffe9458                console_stm32_flush
 .text.asm.flush_dcache_range
                0x2ffe9478       0x3c ./../build/optee-nor-stm32mp157d-ev1/bl2/cache_helpers.o
                0x2ffe9478                flush_dcache_range
 .text.asm.clean_dcache_range
                0x2ffe94b4       0x3c ./../build/optee-nor-stm32mp157d-ev1/bl2/cache_helpers.o
                0x2ffe94b4                clean_dcache_range
 .text.asm.inv_dcache_range
                0x2ffe94f0       0x3c ./../build/optee-nor-stm32mp157d-ev1/bl2/cache_helpers.o
                0x2ffe94f0                inv_dcache_range
 .text.asm.do_dcsw_op
                0x2ffe952c       0xc8 ./../build/optee-nor-stm32mp157d-ev1/bl2/cache_helpers.o
 .text.asm.dcsw_op_all
                0x2ffe95f4       0x14 ./../build/optee-nor-stm32mp157d-ev1/bl2/cache_helpers.o
                0x2ffe95f4                dcsw_op_all
 .text.asm.zeromem
                0x2ffe9608       0x64 ./../build/optee-nor-stm32mp157d-ev1/bl2/misc_helpers.o
                0x2ffe9608                zeromem
                0x2ffe9608                zero_normalmem
 .text.asm.disable_mmu_secure
                0x2ffe966c       0x1c ./../build/optee-nor-stm32mp157d-ev1/bl2/misc_helpers.o
                0x2ffe966c                disable_mmu_secure
 .text.asm.disable_mmu_icache_secure
                0x2ffe9688        0xc ./../build/optee-nor-stm32mp157d-ev1/bl2/misc_helpers.o
                0x2ffe9688                disable_mmu_icache_secure
 .text.asm.cortex_a7_enable_smp
                0x2ffe9694       0x14 ./../build/optee-nor-stm32mp157d-ev1/bl2/cortex_a7.o
 .text.asm.cortex_a7_reset_func
                0x2ffe96a8        0x4 ./../build/optee-nor-stm32mp157d-ev1/bl2/cortex_a7.o
 .text.asm.reset_handler
                0x2ffe96ac       0x38 ./../build/optee-nor-stm32mp157d-ev1/bl2/cpu_helpers.o
                0x2ffe96ac                reset_handler
 .text.asm.get_cpu_ops_ptr
                0x2ffe96e4       0x5c ./../build/optee-nor-stm32mp157d-ev1/bl2/cpu_helpers.o
                0x2ffe96e4                get_cpu_ops_ptr
 .text.asm.spin_lock
                0x2ffe9740       0x24 ./../build/optee-nor-stm32mp157d-ev1/bl2/spinlock.o
                0x2ffe9740                spin_lock
 .text.asm.spin_unlock
                0x2ffe9764       0x18 ./../build/optee-nor-stm32mp157d-ev1/bl2/spinlock.o
                0x2ffe9764                spin_unlock
 .text.asm.enable_mmu_direct_svc_mon
                0x2ffe977c       0x80 ./../build/optee-nor-stm32mp157d-ev1/bl2/enable_mmu.o
                0x2ffe977c                enable_mmu_direct_svc_mon
 .text.asm.plat_set_my_stack
                0x2ffe97fc       0x10 ./../build/optee-nor-stm32mp157d-ev1/bl2/platform_up_stack.o
                0x2ffe97fc                plat_set_my_stack
 .text.asm.stm32_pwr_down_wfi_wrapper
                0x2ffe980c       0x88 ./../build/optee-nor-stm32mp157d-ev1/bl2/stm32mp1_critic_power_wrapper.o
                0x2ffe980c                stm32_pwr_down_wfi_wrapper
 .text.asm.platform_mem_init
                0x2ffe9894        0x4 ./../build/optee-nor-stm32mp157d-ev1/bl2/stm32mp1_helper.o
                0x2ffe9894                platform_mem_init
 .text.asm.plat_report_exception
                0x2ffe9898       0x64 ./../build/optee-nor-stm32mp157d-ev1/bl2/stm32mp1_helper.o
                0x2ffe9898                plat_report_exception
 .text.asm.plat_report_prefetch_abort
                0x2ffe98fc       0x58 ./../build/optee-nor-stm32mp157d-ev1/bl2/stm32mp1_helper.o
                0x2ffe98fc                plat_report_prefetch_abort
 .text.asm.plat_report_data_abort
                0x2ffe9954       0x58 ./../build/optee-nor-stm32mp157d-ev1/bl2/stm32mp1_helper.o
                0x2ffe9954                plat_report_data_abort
 .text.asm.plat_reset_handler
                0x2ffe99ac        0x4 ./../build/optee-nor-stm32mp157d-ev1/bl2/stm32mp1_helper.o
                0x2ffe99ac                plat_reset_handler
 .text.asm.plat_get_my_entrypoint
                0x2ffe99b0        0x8 ./../build/optee-nor-stm32mp157d-ev1/bl2/stm32mp1_helper.o
                0x2ffe99b0                plat_get_my_entrypoint
 .text.asm.plat_secondary_cold_boot_setup
                0x2ffe99b8        0x4 ./../build/optee-nor-stm32mp157d-ev1/bl2/stm32mp1_helper.o
                0x2ffe99b8                plat_secondary_cold_boot_setup
 .text.asm.plat_is_my_cpu_primary
                0x2ffe99bc       0x20 ./../build/optee-nor-stm32mp157d-ev1/bl2/stm32mp1_helper.o
                0x2ffe99bc                plat_is_my_cpu_primary
 .text.asm.plat_crash_console_init
                0x2ffe99dc       0xc0 ./../build/optee-nor-stm32mp157d-ev1/bl2/stm32mp1_helper.o
                0x2ffe99dc                plat_crash_console_init
 .text.asm.plat_crash_console_flush
                0x2ffe9a9c        0xc ./../build/optee-nor-stm32mp157d-ev1/bl2/stm32mp1_helper.o
                0x2ffe9a9c                plat_crash_console_flush
 .text.asm.plat_crash_console_putc
                0x2ffe9aa8        0xc ./../build/optee-nor-stm32mp157d-ev1/bl2/stm32mp1_helper.o
                0x2ffe9aa8                plat_crash_console_putc
 .text.asm.plat_panic_handler
                0x2ffe9ab4       0x14 ./../build/optee-nor-stm32mp157d-ev1/bl2/stm32mp1_helper.o
                0x2ffe9ab4                plat_panic_handler
                0x2ffe9ac8                        __TEXT_RESIDENT_END__ = .
 *(SORT_BY_ALIGNMENT(.text*))
 .text.bl2_load_images
                0x2ffe9ac8      0x118 ./../build/optee-nor-stm32mp157d-ev1/bl2/bl2_image_load_v2.o
                0x2ffe9ac8                bl2_load_images
 .text.bl2_main
                0x2ffe9be0       0x54 ./../build/optee-nor-stm32mp157d-ev1/bl2/bl2_main.o
                0x2ffe9be0                bl2_main
 .text.load_auth_image
                0x2ffe9c34      0x10c ./../build/optee-nor-stm32mp157d-ev1/bl2/bl_common.o
                0x2ffe9c34                load_auth_image
 .text.print_entry_point_info
                0x2ffe9d40       0x20 ./../build/optee-nor-stm32mp157d-ev1/bl2/bl_common.o
                0x2ffe9d40                print_entry_point_info
 .text.flush_bl_params_desc_args
                0x2ffe9d60       0x34 ./../build/optee-nor-stm32mp157d-ev1/bl2/desc_image_load.o
                0x2ffe9d60                flush_bl_params_desc_args
 .text.flush_bl_params_desc
                0x2ffe9d94       0x1c ./../build/optee-nor-stm32mp157d-ev1/bl2/desc_image_load.o
                0x2ffe9d94                flush_bl_params_desc
 .text.get_bl_params_node_index
                0x2ffe9db0       0x44 ./../build/optee-nor-stm32mp157d-ev1/bl2/desc_image_load.o
                0x2ffe9db0                get_bl_params_node_index
 .text.get_bl_mem_params_node
                0x2ffe9df4       0x30 ./../build/optee-nor-stm32mp157d-ev1/bl2/desc_image_load.o
                0x2ffe9df4                get_bl_mem_params_node
 .text.get_bl_load_info_from_mem_params_desc
                0x2ffe9e24       0x50 ./../build/optee-nor-stm32mp157d-ev1/bl2/desc_image_load.o
                0x2ffe9e24                get_bl_load_info_from_mem_params_desc
 .text.get_next_bl_params_from_mem_params_desc
                0x2ffe9e74       0xc0 ./../build/optee-nor-stm32mp157d-ev1/bl2/desc_image_load.o
                0x2ffe9e74                get_next_bl_params_from_mem_params_desc
 .text.populate_next_bl_params_config
                0x2ffe9f34       0x68 ./../build/optee-nor-stm32mp157d-ev1/bl2/desc_image_load.o
                0x2ffe9f34                populate_next_bl_params_config
 .text.fdt_read_uint32_array
                0x2ffe9f9c       0x70 ./../build/optee-nor-stm32mp157d-ev1/bl2/fdt_wrappers.o
                0x2ffe9f9c                fdt_read_uint32_array
 .text.fdtw_read_string
                0x2ffea00c       0x88 ./../build/optee-nor-stm32mp157d-ev1/bl2/fdt_wrappers.o
                0x2ffea00c                fdtw_read_string
 .text.fdtw_read_uuid
                0x2ffea094       0x54 ./../build/optee-nor-stm32mp157d-ev1/bl2/fdt_wrappers.o
                0x2ffea094                fdtw_read_uuid
 .text.fdt_get_reg_props_by_index
                0x2ffea0e8       0xa0 ./../build/optee-nor-stm32mp157d-ev1/bl2/fdt_wrappers.o
                0x2ffea0e8                fdt_get_reg_props_by_index
 .text.fdt_get_reg_props_by_name
                0x2ffea188       0x30 ./../build/optee-nor-stm32mp157d-ev1/bl2/fdt_wrappers.o
                0x2ffea188                fdt_get_reg_props_by_name
 .text.fdt_get_stdout_node_offset
                0x2ffea1b8       0x74 ./../build/optee-nor-stm32mp157d-ev1/bl2/fdt_wrappers.o
                0x2ffea1b8                fdt_get_stdout_node_offset
 .text.tf_log   0x2ffea22c       0x5c ./../build/optee-nor-stm32mp157d-ev1/bl2/tf_log.o
                0x2ffea22c                tf_log
 .text.read_uuid
                0x2ffea288       0xc8 ./../build/optee-nor-stm32mp157d-ev1/bl2/uuid.o
                0x2ffea288                read_uuid
 .text.tzc400_set_action
                0x2ffea350       0x24 ./../build/optee-nor-stm32mp157d-ev1/bl2/tzc400.o
                0x2ffea350                tzc400_set_action
 .text.tzc400_init
                0x2ffea374       0x5c ./../build/optee-nor-stm32mp157d-ev1/bl2/tzc400.o
                0x2ffea374                tzc400_init
 .text.tzc400_configure_region0
                0x2ffea3d0       0x2c ./../build/optee-nor-stm32mp157d-ev1/bl2/tzc400.o
                0x2ffea3d0                tzc400_configure_region0
 .text.tzc400_configure_region
                0x2ffea3fc       0xc4 ./../build/optee-nor-stm32mp157d-ev1/bl2/tzc400.o
                0x2ffea3fc                tzc400_configure_region
 .text.tzc400_update_filters
                0x2ffea4c0       0x44 ./../build/optee-nor-stm32mp157d-ev1/bl2/tzc400.o
                0x2ffea4c0                tzc400_update_filters
 .text.tzc400_enable_filters
                0x2ffea504       0x68 ./../build/optee-nor-stm32mp157d-ev1/bl2/tzc400.o
                0x2ffea504                tzc400_enable_filters
 .text.tzc400_disable_filters
                0x2ffea56c       0x50 ./../build/optee-nor-stm32mp157d-ev1/bl2/tzc400.o
                0x2ffea56c                tzc400_disable_filters
 .text.clk_enable
                0x2ffea5bc       0x24 ./../build/optee-nor-stm32mp157d-ev1/bl2/clk.o
                0x2ffea5bc                clk_enable
 .text.clk_disable
                0x2ffea5e0       0x24 ./../build/optee-nor-stm32mp157d-ev1/bl2/clk.o
                0x2ffea5e0                clk_disable
 .text.clk_get_rate
                0x2ffea604       0x24 ./../build/optee-nor-stm32mp157d-ev1/bl2/clk.o
                0x2ffea604                clk_get_rate
 .text.clk_is_enabled
                0x2ffea628       0x24 ./../build/optee-nor-stm32mp157d-ev1/bl2/clk.o
                0x2ffea628                clk_is_enabled
 .text.clk_register
                0x2ffea64c       0x30 ./../build/optee-nor-stm32mp157d-ev1/bl2/clk.o
                0x2ffea64c                clk_register
 .text.console_is_registered
                0x2ffea67c       0x28 ./../build/optee-nor-stm32mp157d-ev1/bl2/multi_console.o
                0x2ffea67c                console_is_registered
 .text.console_register
                0x2ffea6a4       0x40 ./../build/optee-nor-stm32mp157d-ev1/bl2/multi_console.o
                0x2ffea6a4                console_register
 .text.console_set_scope
                0x2ffea6e4       0x1c ./../build/optee-nor-stm32mp157d-ev1/bl2/multi_console.o
                0x2ffea6e4                console_set_scope
 .text.console_putc
                0x2ffea700       0x58 ./../build/optee-nor-stm32mp157d-ev1/bl2/multi_console.o
                0x2ffea700                console_putc
 .text.console_flush
                0x2ffea758       0x28 ./../build/optee-nor-stm32mp157d-ev1/bl2/multi_console.o
                0x2ffea758                console_flush
 .text.udelay   0x2ffea780       0x70 ./../build/optee-nor-stm32mp157d-ev1/bl2/delay_timer.o
                0x2ffea780                udelay
 .text.timer_init
                0x2ffea7f0       0x28 ./../build/optee-nor-stm32mp157d-ev1/bl2/delay_timer.o
                0x2ffea7f0                timer_init
 .text.generic_delay_timer_init_args
                0x2ffea818       0x18 ./../build/optee-nor-stm32mp157d-ev1/bl2/generic_delay_timer.o
                0x2ffea818                generic_delay_timer_init_args
 .text.generic_delay_timer_init
                0x2ffea830       0x54 ./../build/optee-nor-stm32mp157d-ev1/bl2/generic_delay_timer.o
                0x2ffea830                generic_delay_timer_init
 .text.fwu_metadata_load
                0x2ffea884      0x178 ./../build/optee-nor-stm32mp157d-ev1/bl2/fwu.o
 .text.fwu_get_alternate_boot_bank
                0x2ffea9fc       0x90 ./../build/optee-nor-stm32mp157d-ev1/bl2/fwu.o
                0x2ffea9fc                fwu_get_alternate_boot_bank
 .text.fwu_get_metadata
                0x2ffeaa8c       0x24 ./../build/optee-nor-stm32mp157d-ev1/bl2/fwu.o
                0x2ffeaa8c                fwu_get_metadata
 .text.fwu_init
                0x2ffeaab0       0x48 ./../build/optee-nor-stm32mp157d-ev1/bl2/fwu.o
                0x2ffeaab0                fwu_init
 .text.fip_file_close
                0x2ffeaaf8       0x20 ./../build/optee-nor-stm32mp157d-ev1/bl2/io_fip.o
 .text.fip_dev_init
                0x2ffeab18       0x9c ./../build/optee-nor-stm32mp157d-ev1/bl2/io_fip.o
 .text.fip_file_read
                0x2ffeabb4       0xb4 ./../build/optee-nor-stm32mp157d-ev1/bl2/io_fip.o
 .text.fip_file_len
                0x2ffeac68       0x24 ./../build/optee-nor-stm32mp157d-ev1/bl2/io_fip.o
 .text.fip_file_open
                0x2ffeac8c       0xf0 ./../build/optee-nor-stm32mp157d-ev1/bl2/io_fip.o
 .text.fip_dev_close
                0x2ffead7c       0x50 ./../build/optee-nor-stm32mp157d-ev1/bl2/io_fip.o
 .text.fip_dev_open
                0x2ffeadcc       0x4c ./../build/optee-nor-stm32mp157d-ev1/bl2/io_fip.o
 .text.register_io_dev_fip
                0x2ffeae18       0x2c ./../build/optee-nor-stm32mp157d-ev1/bl2/io_fip.o
                0x2ffeae18                register_io_dev_fip
 .text.mtd_read
                0x2ffeae44       0x84 ./../build/optee-nor-stm32mp157d-ev1/bl2/io_mtd.o
 .text.mtd_add_extra_offset.constprop.0
                0x2ffeaec8       0x2c ./../build/optee-nor-stm32mp157d-ev1/bl2/io_mtd.o
 .text.mtd_open
                0x2ffeaef4       0x44 ./../build/optee-nor-stm32mp157d-ev1/bl2/io_mtd.o
 .text.mtd_seek
                0x2ffeaf38       0x84 ./../build/optee-nor-stm32mp157d-ev1/bl2/io_mtd.o
 .text.mtd_dev_close
                0x2ffeafbc       0x3c ./../build/optee-nor-stm32mp157d-ev1/bl2/io_mtd.o
 .text.mtd_dev_open
                0x2ffeaff8       0x4c ./../build/optee-nor-stm32mp157d-ev1/bl2/io_mtd.o
 .text.register_io_dev_mtd
                0x2ffeb044       0x1c ./../build/optee-nor-stm32mp157d-ev1/bl2/io_mtd.o
                0x2ffeb044                register_io_dev_mtd
 .text.free_entity.isra.0
                0x2ffeb060       0x40 ./../build/optee-nor-stm32mp157d-ev1/bl2/io_storage.o
 .text.io_register_device
                0x2ffeb0a0       0x28 ./../build/optee-nor-stm32mp157d-ev1/bl2/io_storage.o
                0x2ffeb0a0                io_register_device
 .text.io_dev_open
                0x2ffeb0c8       0x28 ./../build/optee-nor-stm32mp157d-ev1/bl2/io_storage.o
                0x2ffeb0c8                io_dev_open
 .text.io_dev_init
                0x2ffeb0f0       0x34 ./../build/optee-nor-stm32mp157d-ev1/bl2/io_storage.o
                0x2ffeb0f0                io_dev_init
 .text.io_dev_close
                0x2ffeb124       0x30 ./../build/optee-nor-stm32mp157d-ev1/bl2/io_storage.o
                0x2ffeb124                io_dev_close
 .text.io_open  0x2ffeb154       0x94 ./../build/optee-nor-stm32mp157d-ev1/bl2/io_storage.o
                0x2ffeb154                io_open
 .text.io_seek  0x2ffeb1e8       0x4c ./../build/optee-nor-stm32mp157d-ev1/bl2/io_storage.o
                0x2ffeb1e8                io_seek
 .text.io_size  0x2ffeb234       0x34 ./../build/optee-nor-stm32mp157d-ev1/bl2/io_storage.o
                0x2ffeb234                io_size
 .text.io_read  0x2ffeb268       0x48 ./../build/optee-nor-stm32mp157d-ev1/bl2/io_storage.o
                0x2ffeb268                io_read
 .text.io_close
                0x2ffeb2b0       0x30 ./../build/optee-nor-stm32mp157d-ev1/bl2/io_storage.o
                0x2ffeb2b0                io_close
 .text.spi_nor_clean_bar
                0x2ffeb2e0       0x30 ./../build/optee-nor-stm32mp157d-ev1/bl2/spi_nor.o
 .text.spi_nor_wait_ready
                0x2ffeb310       0x80 ./../build/optee-nor-stm32mp157d-ev1/bl2/spi_nor.o
 .text.spi_nor_read
                0x2ffeb390       0xb0 ./../build/optee-nor-stm32mp157d-ev1/bl2/spi_nor.o
                0x2ffeb390                spi_nor_read
 .text.spi_nor_init
                0x2ffeb440      0x274 ./../build/optee-nor-stm32mp157d-ev1/bl2/spi_nor.o
                0x2ffeb440                spi_nor_init
 .text.spi_nor_reset
                0x2ffeb6b4       0x84 ./../build/optee-nor-stm32mp157d-ev1/bl2/spi_nor.o
                0x2ffeb6b4                spi_nor_reset
 .text.spi_mem_check_buswidth_req
                0x2ffeb738       0x54 ./../build/optee-nor-stm32mp157d-ev1/bl2/spi_mem.o
 .text.spi_mem_supports_op
                0x2ffeb78c       0x14 ./../build/optee-nor-stm32mp157d-ev1/bl2/spi_mem.o
 .text.spi_mem_exec_op
                0x2ffeb7a0       0x48 ./../build/optee-nor-stm32mp157d-ev1/bl2/spi_mem.o
                0x2ffeb7a0                spi_mem_exec_op
 .text.spi_mem_dirmap_read
                0x2ffeb7e8       0x64 ./../build/optee-nor-stm32mp157d-ev1/bl2/spi_mem.o
                0x2ffeb7e8                spi_mem_dirmap_read
 .text.spi_mem_init_slave
                0x2ffeb84c      0x1f0 ./../build/optee-nor-stm32mp157d-ev1/bl2/spi_mem.o
                0x2ffeb84c                spi_mem_init_slave
 .text.is_otp_invalid_mode
                0x2ffeba3c       0x28 ./../build/optee-nor-stm32mp157d-ev1/bl2/bsec2.o
 .text.bsec_lock
                0x2ffeba64       0x18 ./../build/optee-nor-stm32mp157d-ev1/bl2/bsec2.o
 .text.bsec_unlock
                0x2ffeba7c       0x18 ./../build/optee-nor-stm32mp157d-ev1/bl2/bsec2.o
 .text.bsec_power_safmem
                0x2ffeba94       0x58 ./../build/optee-nor-stm32mp157d-ev1/bl2/bsec2.o
 .text.otp_bank_offset
                0x2ffebaec       0x18 ./../build/optee-nor-stm32mp157d-ev1/bl2/bsec2.o
 .text.bsec_check_error
                0x2ffebb04       0x34 ./../build/optee-nor-stm32mp157d-ev1/bl2/bsec2.o
 .text.bsec_probe
                0x2ffebb38       0x3c ./../build/optee-nor-stm32mp157d-ev1/bl2/bsec2.o
                0x2ffebb38                bsec_probe
 .text.bsec_read_debug_conf
                0x2ffebb74        0xc ./../build/optee-nor-stm32mp157d-ev1/bl2/bsec2.o
                0x2ffebb74                bsec_read_debug_conf
 .text.bsec_read_sr_lock
                0x2ffebb80       0x34 ./../build/optee-nor-stm32mp157d-ev1/bl2/bsec2.o
                0x2ffebb80                bsec_read_sr_lock
 .text.bsec_read_sw_lock
                0x2ffebbb4       0x34 ./../build/optee-nor-stm32mp157d-ev1/bl2/bsec2.o
                0x2ffebbb4                bsec_read_sw_lock
 .text.bsec_write_otp
                0x2ffebbe8       0x4c ./../build/optee-nor-stm32mp157d-ev1/bl2/bsec2.o
                0x2ffebbe8                bsec_write_otp
 .text.bsec_read_sp_lock
                0x2ffebc34       0x34 ./../build/optee-nor-stm32mp157d-ev1/bl2/bsec2.o
                0x2ffebc34                bsec_read_sp_lock
 .text.bsec_program_otp
                0x2ffebc68       0xf0 ./../build/optee-nor-stm32mp157d-ev1/bl2/bsec2.o
                0x2ffebc68                bsec_program_otp
 .text.bsec_shadow_read_otp
                0x2ffebd58       0xb8 ./../build/optee-nor-stm32mp157d-ev1/bl2/bsec2.o
                0x2ffebd58                bsec_shadow_read_otp
 .text.stm32mp1_check_pll_conf
                0x2ffebe10       0xfc ./../build/optee-nor-stm32mp157d-ev1/bl2/stm32mp1_clk.o
 .text.stm32mp1_pll_config_output
                0x2ffebf0c       0x34 ./../build/optee-nor-stm32mp157d-ev1/bl2/stm32mp1_clk.o
 .text.stm32mp1_clk_get_gated_id
                0x2ffebf40       0x34 ./../build/optee-nor-stm32mp157d-ev1/bl2/stm32mp1_clk.o
 .text.stm32mp1_clk_get_parent
                0x2ffebf74       0x78 ./../build/optee-nor-stm32mp157d-ev1/bl2/stm32mp1_clk.o
 .text.stm32mp_clk_is_enabled
                0x2ffebfec       0x40 ./../build/optee-nor-stm32mp157d-ev1/bl2/stm32mp1_clk.o
 .text.stm32mp_clk_disable
                0x2ffec02c       0x90 ./../build/optee-nor-stm32mp157d-ev1/bl2/stm32mp1_clk.o
 .text.stm32mp_clk_enable
                0x2ffec0bc       0x8c ./../build/optee-nor-stm32mp157d-ev1/bl2/stm32mp1_clk.o
 .text.stm32_clk_configure_mux
                0x2ffec148       0x90 ./../build/optee-nor-stm32mp157d-ev1/bl2/stm32mp1_clk.o
 .text.stm32mp1_read_pll_freq
                0x2ffec1d8       0xac ./../build/optee-nor-stm32mp157d-ev1/bl2/stm32mp1_clk.o
 .text.stm32mp_clk_get_rate
                0x2ffec284      0x204 ./../build/optee-nor-stm32mp157d-ev1/bl2/stm32mp1_clk.o
 .text.stm32mp1_osc_wait.isra.0
                0x2ffec488       0x54 ./../build/optee-nor-stm32mp157d-ev1/bl2/stm32mp1_clk.o
 .text.clk_stm32_set_div
                0x2ffec4dc       0x94 ./../build/optee-nor-stm32mp157d-ev1/bl2/stm32mp1_clk.o
                0x2ffec4dc                clk_stm32_set_div
 .text.stm32mp1_clk_rcc_regs_lock
                0x2ffec570        0xc ./../build/optee-nor-stm32mp157d-ev1/bl2/stm32mp1_clk.o
                0x2ffec570                stm32mp1_clk_rcc_regs_lock
 .text.stm32mp1_clk_rcc_regs_unlock
                0x2ffec57c        0xc ./../build/optee-nor-stm32mp157d-ev1/bl2/stm32mp1_clk.o
                0x2ffec57c                stm32mp1_clk_rcc_regs_unlock
 .text.stm32mp1_clk_init
                0x2ffec588      0x944 ./../build/optee-nor-stm32mp157d-ev1/bl2/stm32mp1_clk.o
                0x2ffec588                stm32mp1_clk_init
 .text.stm32mp1_clk_probe
                0x2ffececc      0x214 ./../build/optee-nor-stm32mp157d-ev1/bl2/stm32mp1_clk.o
                0x2ffececc                stm32mp1_clk_probe
 .text.fdt_osc_read_freq
                0x2ffed0e0       0x8c ./../build/optee-nor-stm32mp157d-ev1/bl2/stm32mp_clkfunc.o
                0x2ffed0e0                fdt_osc_read_freq
 .text.fdt_clk_read_bool
                0x2ffed16c       0x68 ./../build/optee-nor-stm32mp157d-ev1/bl2/stm32mp_clkfunc.o
                0x2ffed16c                fdt_clk_read_bool
 .text.fdt_clk_read_uint32_default
                0x2ffed1d4       0x64 ./../build/optee-nor-stm32mp157d-ev1/bl2/stm32mp_clkfunc.o
                0x2ffed1d4                fdt_clk_read_uint32_default
 .text.fdt_get_clock_id
                0x2ffed238       0x34 ./../build/optee-nor-stm32mp157d-ev1/bl2/stm32mp_clkfunc.o
                0x2ffed238                fdt_get_clock_id
 .text.stm32mp_stgen_config
                0x2ffed26c       0x4c ./../build/optee-nor-stm32mp157d-ev1/bl2/stm32mp_clkfunc.o
                0x2ffed26c                stm32mp_stgen_config
 .text.stm32mp_stgen_restore_rate
                0x2ffed2b8       0x10 ./../build/optee-nor-stm32mp157d-ev1/bl2/stm32mp_clkfunc.o
                0x2ffed2b8                stm32mp_stgen_restore_rate
 .text.stm32mp1_ddr_init
                0x2ffed2c8      0x4b4 ./../build/optee-nor-stm32mp157d-ev1/bl2/stm32mp1_ddr.o
                0x2ffed2c8                stm32mp1_ddr_init
 .text.ddr_sw_self_refresh_exit
                0x2ffed77c      0x1e4 ./../build/optee-nor-stm32mp157d-ev1/bl2/stm32mp1_ddr_helpers.o
                0x2ffed77c                ddr_sw_self_refresh_exit
 .text.ddr_read_sr_mode
                0x2ffed960       0x18 ./../build/optee-nor-stm32mp157d-ev1/bl2/stm32mp1_ddr_helpers.o
                0x2ffed960                ddr_read_sr_mode
 .text.ddr_set_sr_mode
                0x2ffed978      0x1f0 ./../build/optee-nor-stm32mp157d-ev1/bl2/stm32mp1_ddr_helpers.o
                0x2ffed978                ddr_set_sr_mode
 .text.stm32mp1_ddr_setup
                0x2ffedb68      0x154 ./../build/optee-nor-stm32mp157d-ev1/bl2/stm32mp1_ram.o
 .text.stm32mp1_ddr_clk_enable
                0x2ffedcbc       0x48 ./../build/optee-nor-stm32mp157d-ev1/bl2/stm32mp1_ram.o
                0x2ffedcbc                stm32mp1_ddr_clk_enable
 .text.stm32mp1_ddr_is_restored
                0x2ffedd04        0xc ./../build/optee-nor-stm32mp157d-ev1/bl2/stm32mp1_ram.o
                0x2ffedd04                stm32mp1_ddr_is_restored
 .text.stm32mp1_ddr_probe
                0x2ffedd10       0x3c ./../build/optee-nor-stm32mp157d-ev1/bl2/stm32mp1_ram.o
                0x2ffedd10                stm32mp1_ddr_probe
 .text.stm32mp_ddr_set_reg
                0x2ffedd4c       0x48 ./../build/optee-nor-stm32mp157d-ev1/bl2/stm32mp_ddr.o
                0x2ffedd4c                stm32mp_ddr_set_reg
 .text.stm32mp_ddr_sw_selfref_entry
                0x2ffedd94       0x58 ./../build/optee-nor-stm32mp157d-ev1/bl2/stm32mp_ddr.o
                0x2ffedd94                stm32mp_ddr_sw_selfref_entry
 .text.stm32mp_ddr_set_qd3_update_conditions
                0x2ffeddec       0x4c ./../build/optee-nor-stm32mp157d-ev1/bl2/stm32mp_ddr.o
                0x2ffeddec                stm32mp_ddr_set_qd3_update_conditions
 .text.stm32mp_ddr_unset_qd3_update_conditions
                0x2ffede38       0x38 ./../build/optee-nor-stm32mp157d-ev1/bl2/stm32mp_ddr.o
                0x2ffede38                stm32mp_ddr_unset_qd3_update_conditions
 .text.stm32mp_ddr_dt_get_info
                0x2ffede70       0x50 ./../build/optee-nor-stm32mp157d-ev1/bl2/stm32mp_ram.o
                0x2ffede70                stm32mp_ddr_dt_get_info
 .text.stm32mp_ddr_dt_get_param
                0x2ffedec0       0x54 ./../build/optee-nor-stm32mp157d-ev1/bl2/stm32mp_ram.o
                0x2ffedec0                stm32mp_ddr_dt_get_param
 .text.set_gpio.isra.0
                0x2ffedf14       0xf0 ./../build/optee-nor-stm32mp157d-ev1/bl2/stm32_gpio.o
 .text.dt_set_pinctrl_config
                0x2ffee004      0x240 ./../build/optee-nor-stm32mp157d-ev1/bl2/stm32_gpio.o
                0x2ffee004                dt_set_pinctrl_config
 .text.i2c_transfer_config.isra.0
                0x2ffee244       0x2c ./../build/optee-nor-stm32mp157d-ev1/bl2/stm32_i2c.o
 .text.i2c_read.isra.0
                0x2ffee270      0x1f0 ./../build/optee-nor-stm32mp157d-ev1/bl2/stm32_i2c.o
 .text.i2c_write
                0x2ffee460      0x218 ./../build/optee-nor-stm32mp157d-ev1/bl2/stm32_i2c.o
 .text.stm32_i2c_get_setup_from_fdt
                0x2ffee678       0x64 ./../build/optee-nor-stm32mp157d-ev1/bl2/stm32_i2c.o
                0x2ffee678                stm32_i2c_get_setup_from_fdt
 .text.stm32_i2c_init
                0x2ffee6dc      0x434 ./../build/optee-nor-stm32mp157d-ev1/bl2/stm32_i2c.o
                0x2ffee6dc                stm32_i2c_init
 .text.stm32_i2c_is_device_ready
                0x2ffeeb10      0x130 ./../build/optee-nor-stm32mp157d-ev1/bl2/stm32_i2c.o
                0x2ffeeb10                stm32_i2c_is_device_ready
 .text.fdt_get_clk_by_name
                0x2ffeec40       0x4c ./../build/optee-nor-stm32mp157d-ev1/bl2/stm32_iwdg.o
 .text.stm32_iwdg_refresh
                0x2ffeec8c       0x40 ./../build/optee-nor-stm32mp157d-ev1/bl2/stm32_iwdg.o
                0x2ffeec8c                stm32_iwdg_refresh
 .text.stm32_iwdg_init
                0x2ffeeccc      0x184 ./../build/optee-nor-stm32mp157d-ev1/bl2/stm32_iwdg.o
                0x2ffeeccc                stm32_iwdg_init
 .text.nvmem_driver_register
                0x2ffeee50       0x24 ./../build/optee-nor-stm32mp157d-ev1/bl2/nvmem.o
                0x2ffeee50                nvmem_driver_register
 .text.nvmem_get_cell_by_index
                0x2ffeee74       0x90 ./../build/optee-nor-stm32mp157d-ev1/bl2/nvmem.o
                0x2ffeee74                nvmem_get_cell_by_index
 .text.nvmem_get_cell_by_name
                0x2ffeef04       0x2c ./../build/optee-nor-stm32mp157d-ev1/bl2/nvmem.o
                0x2ffeef04                nvmem_get_cell_by_name
 .text.stm32_tamp_nvram_write_bkp
                0x2ffeef30       0x68 ./../build/optee-nor-stm32mp157d-ev1/bl2/stm32mp_tamp_nvram_core.o
 .text.stm32_tamp_nvram_read_bkp.constprop.0.isra.0
                0x2ffeef98       0x68 ./../build/optee-nor-stm32mp157d-ev1/bl2/stm32mp_tamp_nvram_core.o
 .text.stm32_tamp_nvram_read_cell
                0x2ffef000       0xa4 ./../build/optee-nor-stm32mp157d-ev1/bl2/stm32mp_tamp_nvram_core.o
 .text.stm32_tamp_nvram_write_cell
                0x2ffef0a4       0xc4 ./../build/optee-nor-stm32mp157d-ev1/bl2/stm32mp_tamp_nvram_core.o
 .text.stm32_tamp_nvram_update_rights
                0x2ffef168       0xc4 ./../build/optee-nor-stm32mp157d-ev1/bl2/stm32mp_tamp_nvram_core.o
                0x2ffef168                stm32_tamp_nvram_update_rights
 .text.stm32_tamp_nvram_init
                0x2ffef22c       0xc4 ./../build/optee-nor-stm32mp157d-ev1/bl2/stm32mp_tamp_nvram_core.o
                0x2ffef22c                stm32_tamp_nvram_init
 .text.stm32_tamp_nvram_get_cdata
                0x2ffef2f0        0x8 ./../build/optee-nor-stm32mp157d-ev1/bl2/stm32mp_tamp_nvram_mp1.o
                0x2ffef2f0                stm32_tamp_nvram_get_cdata
 .text.stm32_tamp_nvram_get_access_rights
                0x2ffef2f8        0x8 ./../build/optee-nor-stm32mp157d-ev1/bl2/stm32mp_tamp_nvram_mp1.o
                0x2ffef2f8                stm32_tamp_nvram_get_access_rights
 .text.dt_get_pmic_node
                0x2ffef300       0x24 ./../build/optee-nor-stm32mp157d-ev1/bl2/stm32mp_pmic.o
 .text.handle_pmic_property
                0x2ffef324       0x30 ./../build/optee-nor-stm32mp157d-ev1/bl2/stm32mp_pmic.o
 .text.dt_pmic_status
                0x2ffef354       0x34 ./../build/optee-nor-stm32mp157d-ev1/bl2/stm32mp_pmic.o
                0x2ffef354                dt_pmic_status
 .text.initialize_pmic_i2c
                0x2ffef388      0x10c ./../build/optee-nor-stm32mp157d-ev1/bl2/stm32mp_pmic.o
                0x2ffef388                initialize_pmic_i2c
 .text.initialize_pmic
                0x2ffef494      0x114 ./../build/optee-nor-stm32mp157d-ev1/bl2/stm32mp_pmic.o
                0x2ffef494                initialize_pmic
 .text.print_pmic_info_and_debug
                0x2ffef5a8       0x30 ./../build/optee-nor-stm32mp157d-ev1/bl2/stm32mp_pmic.o
                0x2ffef5a8                print_pmic_info_and_debug
 .text.get_regulator_data
                0x2ffef5d8       0x44 ./../build/optee-nor-stm32mp157d-ev1/bl2/stpmic1.o
 .text.stpmic1_regulator_levels_mv
                0x2ffef61c       0x40 ./../build/optee-nor-stm32mp157d-ev1/bl2/stpmic1.o
                0x2ffef61c                stpmic1_regulator_levels_mv
 .text.stpmic1_register_read
                0x2ffef65c       0x28 ./../build/optee-nor-stm32mp157d-ev1/bl2/stpmic1.o
                0x2ffef65c                stpmic1_register_read
 .text.stpmic1_regulator_voltage_get
                0x2ffef684       0x90 ./../build/optee-nor-stm32mp157d-ev1/bl2/stpmic1.o
                0x2ffef684                stpmic1_regulator_voltage_get
 .text.stpmic1_register_write
                0x2ffef714       0x60 ./../build/optee-nor-stm32mp157d-ev1/bl2/stpmic1.o
                0x2ffef714                stpmic1_register_write
 .text.stpmic1_regulator_voltage_set
                0x2ffef774       0x98 ./../build/optee-nor-stm32mp157d-ev1/bl2/stpmic1.o
                0x2ffef774                stpmic1_regulator_voltage_set
 .text.stpmic1_regulator_sink_mode_set
                0x2ffef80c       0x30 ./../build/optee-nor-stm32mp157d-ev1/bl2/stpmic1.o
                0x2ffef80c                stpmic1_regulator_sink_mode_set
 .text.stpmic1_regulator_bypass_mode_set
                0x2ffef83c       0x30 ./../build/optee-nor-stm32mp157d-ev1/bl2/stpmic1.o
                0x2ffef83c                stpmic1_regulator_bypass_mode_set
 .text.stpmic1_active_discharge_mode_set
                0x2ffef86c       0x3c ./../build/optee-nor-stm32mp157d-ev1/bl2/stpmic1.o
                0x2ffef86c                stpmic1_active_discharge_mode_set
 .text.stpmic1_bind_i2c
                0x2ffef8a8       0x14 ./../build/optee-nor-stm32mp157d-ev1/bl2/stpmic1.o
                0x2ffef8a8                stpmic1_bind_i2c
 .text.regulator_get_by_supply_name
                0x2ffef8bc       0x74 ./../build/optee-nor-stm32mp157d-ev1/bl2/regulator_core.o
                0x2ffef8bc                regulator_get_by_supply_name
 .text.regulator_enable
                0x2ffef930       0x30 ./../build/optee-nor-stm32mp157d-ev1/bl2/regulator_core.o
                0x2ffef930                regulator_enable
 .text.regulator_get_voltage
                0x2ffef960       0x4c ./../build/optee-nor-stm32mp157d-ev1/bl2/regulator_core.o
                0x2ffef960                regulator_get_voltage
 .text.regulator_set_voltage
                0x2ffef9ac       0x6c ./../build/optee-nor-stm32mp157d-ev1/bl2/regulator_core.o
                0x2ffef9ac                regulator_set_voltage
 .text.regulator_list_voltages
                0x2ffefa18       0xe0 ./../build/optee-nor-stm32mp157d-ev1/bl2/regulator_core.o
                0x2ffefa18                regulator_list_voltages
 .text.regulator_get_range
                0x2ffefaf8       0x20 ./../build/optee-nor-stm32mp157d-ev1/bl2/regulator_core.o
                0x2ffefaf8                regulator_get_range
 .text.regulator_register
                0x2ffefb18      0x180 ./../build/optee-nor-stm32mp157d-ev1/bl2/regulator_core.o
                0x2ffefb18                regulator_register
 .text.fixed_regulator_register
                0x2ffefc98       0xc8 ./../build/optee-nor-stm32mp157d-ev1/bl2/regulator_fixed.o
                0x2ffefc98                fixed_regulator_register
 .text.stm32mp_reset_assert
                0x2ffefd60       0x60 ./../build/optee-nor-stm32mp157d-ev1/bl2/stm32mp1_reset.o
                0x2ffefd60                stm32mp_reset_assert
 .text.stm32mp_reset_deassert
                0x2ffefdc0       0x60 ./../build/optee-nor-stm32mp157d-ev1/bl2/stm32mp1_reset.o
                0x2ffefdc0                stm32mp_reset_deassert
 .text.stm32_qspi_claim_bus
                0x2ffefe20       0x28 ./../build/optee-nor-stm32mp157d-ev1/bl2/stm32_qspi.o
 .text.stm32_qspi_release_bus
                0x2ffefe48       0x14 ./../build/optee-nor-stm32mp157d-ev1/bl2/stm32_qspi.o
 .text.stm32_qspi_wait_for_not_busy
                0x2ffefe5c       0x58 ./../build/optee-nor-stm32mp157d-ev1/bl2/stm32_qspi.o
 .text.stm32_qspi_set_mode
                0x2ffefeb4       0x3c ./../build/optee-nor-stm32mp157d-ev1/bl2/stm32_qspi.o
 .text.stm32_qspi_set_speed
                0x2ffefef0       0x6c ./../build/optee-nor-stm32mp157d-ev1/bl2/stm32_qspi.o
 .text.stm32_qspi_exec_op
                0x2ffeff5c      0x220 ./../build/optee-nor-stm32mp157d-ev1/bl2/stm32_qspi.o
 .text.stm32_qspi_init
                0x2fff017c       0xd4 ./../build/optee-nor-stm32mp157d-ev1/bl2/stm32_qspi.o
                0x2fff017c                stm32_qspi_init
 .text.fconf_populate
                0x2fff0250       0x88 ./../build/optee-nor-stm32mp157d-ev1/bl2/fconf.o
                0x2fff0250                fconf_populate
 .text.set_config_info
                0x2fff02d8       0x40 ./../build/optee-nor-stm32mp157d-ev1/bl2/fconf_dyn_cfg_getter.o
                0x2fff02d8                set_config_info
 .text.fconf_populate_dtb_registry
                0x2fff0318      0x10c ./../build/optee-nor-stm32mp157d-ev1/bl2/fconf_dyn_cfg_getter.o
                0x2fff0318                fconf_populate_dtb_registry
 .text.dyn_cfg_dtb_info_get_index
                0x2fff0424       0x20 ./../build/optee-nor-stm32mp157d-ev1/bl2/fconf_dyn_cfg_getter.o
                0x2fff0424                dyn_cfg_dtb_info_get_index
 .text.dyn_cfg_dtb_info_getter
                0x2fff0444       0x28 ./../build/optee-nor-stm32mp157d-ev1/bl2/fconf_dyn_cfg_getter.o
                0x2fff0444                dyn_cfg_dtb_info_getter
 .text.parse_optee_image
                0x2fff046c       0x60 ./../build/optee-nor-stm32mp157d-ev1/bl2/optee_utils.o
 .text.optee_header_is_valid
                0x2fff04cc       0x24 ./../build/optee-nor-stm32mp157d-ev1/bl2/optee_utils.o
                0x2fff04cc                optee_header_is_valid
 .text.parse_optee_header
                0x2fff04f0      0x114 ./../build/optee-nor-stm32mp157d-ev1/bl2/optee_utils.o
                0x2fff04f0                parse_optee_header
 .text.xlat_arch_regime_get_xn_desc
                0x2fff0604       0x28 ./../build/optee-nor-stm32mp157d-ev1/bl2/xlat_tables_arch.o
                0x2fff0604                xlat_arch_regime_get_xn_desc
 .text.xlat_arch_tlbi_va
                0x2fff062c       0x2c ./../build/optee-nor-stm32mp157d-ev1/bl2/xlat_tables_arch.o
                0x2fff062c                xlat_arch_tlbi_va
 .text.xlat_arch_current_el
                0x2fff0658       0x3c ./../build/optee-nor-stm32mp157d-ev1/bl2/xlat_tables_arch.o
                0x2fff0658                xlat_arch_current_el
 .text.is_mmu_enabled_ctx
                0x2fff0694       0x40 ./../build/optee-nor-stm32mp157d-ev1/bl2/xlat_tables_arch.o
                0x2fff0694                is_mmu_enabled_ctx
 .text.setup_mmu_cfg
                0x2fff06d4       0xac ./../build/optee-nor-stm32mp157d-ev1/bl2/xlat_tables_arch.o
                0x2fff06d4                setup_mmu_cfg
 .text.mmap_add_region
                0x2fff0780       0x28 ./../build/optee-nor-stm32mp157d-ev1/bl2/xlat_tables_context.o
                0x2fff0780                mmap_add_region
 .text.mmap_add
                0x2fff07a8        0xc ./../build/optee-nor-stm32mp157d-ev1/bl2/xlat_tables_context.o
                0x2fff07a8                mmap_add
 .text.mmap_add_dynamic_region
                0x2fff07b4       0x28 ./../build/optee-nor-stm32mp157d-ev1/bl2/xlat_tables_context.o
                0x2fff07b4                mmap_add_dynamic_region
 .text.mmap_remove_dynamic_region
                0x2fff07dc       0x10 ./../build/optee-nor-stm32mp157d-ev1/bl2/xlat_tables_context.o
                0x2fff07dc                mmap_remove_dynamic_region
 .text.init_xlat_tables
                0x2fff07ec       0x3c ./../build/optee-nor-stm32mp157d-ev1/bl2/xlat_tables_context.o
                0x2fff07ec                init_xlat_tables
 .text.enable_mmu_svc_mon
                0x2fff0828       0x34 ./../build/optee-nor-stm32mp157d-ev1/bl2/xlat_tables_context.o
                0x2fff0828                enable_mmu_svc_mon
 .text.xlat_table_get_index
                0x2fff085c       0x28 ./../build/optee-nor-stm32mp157d-ev1/bl2/xlat_tables_core.o
 .text.xlat_tables_unmap_region
                0x2fff0884      0x138 ./../build/optee-nor-stm32mp157d-ev1/bl2/xlat_tables_core.o
 .text.xlat_desc
                0x2fff09bc       0xc4 ./../build/optee-nor-stm32mp157d-ev1/bl2/xlat_tables_core.o
                0x2fff09bc                xlat_desc
 .text.xlat_tables_map_region
                0x2fff0a80      0x1ac ./../build/optee-nor-stm32mp157d-ev1/bl2/xlat_tables_core.o
 .text.mmap_add_region_ctx
                0x2fff0c2c       0xf0 ./../build/optee-nor-stm32mp157d-ev1/bl2/xlat_tables_core.o
                0x2fff0c2c                mmap_add_region_ctx
 .text.mmap_add_dynamic_region_ctx
                0x2fff0d1c      0x154 ./../build/optee-nor-stm32mp157d-ev1/bl2/xlat_tables_core.o
                0x2fff0d1c                mmap_add_dynamic_region_ctx
 .text.mmap_remove_dynamic_region_ctx
                0x2fff0e70      0x108 ./../build/optee-nor-stm32mp157d-ev1/bl2/xlat_tables_core.o
                0x2fff0e70                mmap_remove_dynamic_region_ctx
 .text.init_xlat_tables_ctx
                0x2fff0f78      0x140 ./../build/optee-nor-stm32mp157d-ev1/bl2/xlat_tables_core.o
                0x2fff0f78                init_xlat_tables_ctx
 .text.crc32_z  0x2fff10b8       0xc8 ./../build/optee-nor-stm32mp157d-ev1/bl2/crc32.o
                0x2fff10b8                crc32_z
 .text.plat_log_get_prefix
                0x2fff1180       0x24 ./../build/optee-nor-stm32mp157d-ev1/bl2/plat_log_common.o
                0x2fff1180                plat_log_get_prefix
 .text.open_fip
                0x2fff11a4       0x10 ./../build/optee-nor-stm32mp157d-ev1/bl2/bl2_io_storage.o
                0x2fff11a4                open_fip
 .text.open_storage
                0x2fff11b4       0x10 ./../build/optee-nor-stm32mp157d-ev1/bl2/bl2_io_storage.o
                0x2fff11b4                open_storage
 .text.stm32mp_io_setup
                0x2fff11c4      0x12c ./../build/optee-nor-stm32mp157d-ev1/bl2/bl2_io_storage.o
                0x2fff11c4                stm32mp_io_setup
 .text.bl2_plat_handle_pre_image_load
                0x2fff12f0       0x28 ./../build/optee-nor-stm32mp157d-ev1/bl2/bl2_io_storage.o
                0x2fff12f0                bl2_plat_handle_pre_image_load
 .text.plat_get_image_source
                0x2fff1318       0x44 ./../build/optee-nor-stm32mp157d-ev1/bl2/bl2_io_storage.o
                0x2fff1318                plat_get_image_source
 .text.plat_fwu_get_boot_idx
                0x2fff135c       0xac ./../build/optee-nor-stm32mp157d-ev1/bl2/bl2_io_storage.o
                0x2fff135c                plat_fwu_get_boot_idx
 .text.plat_fwu_set_images_source
                0x2fff1408       0xd0 ./../build/optee-nor-stm32mp157d-ev1/bl2/bl2_io_storage.o
                0x2fff1408                plat_fwu_set_images_source
 .text.plat_fwu_set_metadata_image_source
                0x2fff14d8       0x5c ./../build/optee-nor-stm32mp157d-ev1/bl2/bl2_io_storage.o
                0x2fff14d8                plat_fwu_set_metadata_image_source
 .text.stm32_get_bootinfo_cell
                0x2fff1534       0x3c ./../build/optee-nor-stm32mp157d-ev1/bl2/stm32mp_common.o
 .text.stm32mp_save_boot_ctx_address
                0x2fff1570       0x40 ./../build/optee-nor-stm32mp157d-ev1/bl2/stm32mp_common.o
                0x2fff1570                stm32mp_save_boot_ctx_address
 .text.stm32mp_get_boot_ctx_address
                0x2fff15b0        0xc ./../build/optee-nor-stm32mp157d-ev1/bl2/stm32mp_common.o
                0x2fff15b0                stm32mp_get_boot_ctx_address
 .text.stm32mp_get_boot_itf_selected
                0x2fff15bc        0xc ./../build/optee-nor-stm32mp157d-ev1/bl2/stm32mp_common.o
                0x2fff15bc                stm32mp_get_boot_itf_selected
 .text.stm32mp_get_boot_action
                0x2fff15c8        0xc ./../build/optee-nor-stm32mp157d-ev1/bl2/stm32mp_common.o
                0x2fff15c8                stm32mp_get_boot_action
 .text.stm32mp_ddrctrl_base
                0x2fff15d4        0x8 ./../build/optee-nor-stm32mp157d-ev1/bl2/stm32mp_common.o
                0x2fff15d4                stm32mp_ddrctrl_base
 .text.stm32mp_ddrphyc_base
                0x2fff15dc        0x8 ./../build/optee-nor-stm32mp157d-ev1/bl2/stm32mp_common.o
                0x2fff15dc                stm32mp_ddrphyc_base
 .text.stm32mp_pwr_base
                0x2fff15e4        0x8 ./../build/optee-nor-stm32mp157d-ev1/bl2/stm32mp_common.o
                0x2fff15e4                stm32mp_pwr_base
 .text.stm32mp_pwr_regs_lock
                0x2fff15ec       0x18 ./../build/optee-nor-stm32mp157d-ev1/bl2/stm32mp_common.o
                0x2fff15ec                stm32mp_pwr_regs_lock
 .text.stm32mp_pwr_regs_unlock
                0x2fff1604       0x18 ./../build/optee-nor-stm32mp157d-ev1/bl2/stm32mp_common.o
                0x2fff1604                stm32mp_pwr_regs_unlock
 .text.stm32_get_otp_index
                0x2fff161c       0x20 ./../build/optee-nor-stm32mp157d-ev1/bl2/stm32mp_common.o
                0x2fff161c                stm32_get_otp_index
 .text.stm32_get_otp_value_from_idx
                0x2fff163c       0x30 ./../build/optee-nor-stm32mp157d-ev1/bl2/stm32mp_common.o
                0x2fff163c                stm32_get_otp_value_from_idx
 .text.stm32_get_otp_value
                0x2fff166c       0x44 ./../build/optee-nor-stm32mp157d-ev1/bl2/stm32mp_common.o
                0x2fff166c                stm32_get_otp_value
 .text.stm32mp_uart_console_setup
                0x2fff16b0       0x94 ./../build/optee-nor-stm32mp157d-ev1/bl2/stm32mp_common.o
                0x2fff16b0                stm32mp_uart_console_setup
 .text.stm32_display_board_info
                0x2fff1744       0x2c ./../build/optee-nor-stm32mp157d-ev1/bl2/stm32mp_common.o
                0x2fff1744                stm32_display_board_info
 .text.stm32_get_magic_number_cell
                0x2fff1770       0x34 ./../build/optee-nor-stm32mp157d-ev1/bl2/stm32mp_common.o
                0x2fff1770                stm32_get_magic_number_cell
 .text.stm32_get_core1_branch_address_cell
                0x2fff17a4       0x34 ./../build/optee-nor-stm32mp157d-ev1/bl2/stm32mp_common.o
                0x2fff17a4                stm32_get_core1_branch_address_cell
 .text.stm32_get_fwu_info_cell
                0x2fff17d8       0x34 ./../build/optee-nor-stm32mp157d-ev1/bl2/stm32mp_common.o
                0x2fff17d8                stm32_get_fwu_info_cell
 .text.stm32_get_boot_mode_cell
                0x2fff180c       0x34 ./../build/optee-nor-stm32mp157d-ev1/bl2/stm32mp_common.o
                0x2fff180c                stm32_get_boot_mode_cell
 .text.stm32_save_boot_info
                0x2fff1840       0xcc ./../build/optee-nor-stm32mp157d-ev1/bl2/stm32mp_common.o
                0x2fff1840                stm32_save_boot_info
 .text.stm32_get_and_dec_fwu_trial_boot_cnt
                0x2fff190c       0x60 ./../build/optee-nor-stm32mp157d-ev1/bl2/stm32mp_common.o
                0x2fff190c                stm32_get_and_dec_fwu_trial_boot_cnt
 .text.fdt_get_node_parent_address_cells
                0x2fff196c       0x24 ./../build/optee-nor-stm32mp157d-ev1/bl2/stm32mp_dt.o
 .text.dt_open_and_check
                0x2fff1990       0x14 ./../build/optee-nor-stm32mp157d-ev1/bl2/stm32mp_dt.o
                0x2fff1990                dt_open_and_check
 .text.fdt_get_address
                0x2fff19a4       0x14 ./../build/optee-nor-stm32mp157d-ev1/bl2/stm32mp_dt.o
                0x2fff19a4                fdt_get_address
 .text.fdt_check_node
                0x2fff19b8       0x20 ./../build/optee-nor-stm32mp157d-ev1/bl2/stm32mp_dt.o
                0x2fff19b8                fdt_check_node
 .text.fdt_get_status
                0x2fff19d8       0x74 ./../build/optee-nor-stm32mp157d-ev1/bl2/stm32mp_dt.o
                0x2fff19d8                fdt_get_status
 .text.dt_set_stdout_pinctrl
                0x2fff1a4c       0x20 ./../build/optee-nor-stm32mp157d-ev1/bl2/stm32mp_dt.o
                0x2fff1a4c                dt_set_stdout_pinctrl
 .text.dt_fill_device_info
                0x2fff1a6c       0x88 ./../build/optee-nor-stm32mp157d-ev1/bl2/stm32mp_dt.o
                0x2fff1a6c                dt_fill_device_info
 .text.dt_get_node
                0x2fff1af4       0x28 ./../build/optee-nor-stm32mp157d-ev1/bl2/stm32mp_dt.o
                0x2fff1af4                dt_get_node
 .text.dt_get_stdout_uart_info
                0x2fff1b1c       0x28 ./../build/optee-nor-stm32mp157d-ev1/bl2/stm32mp_dt.o
                0x2fff1b1c                dt_get_stdout_uart_info
 .text.dt_get_ddr_size
                0x2fff1b44       0x58 ./../build/optee-nor-stm32mp157d-ev1/bl2/stm32mp_dt.o
                0x2fff1b44                dt_get_ddr_size
 .text.dt_get_vdd_regulator
                0x2fff1b9c       0x30 ./../build/optee-nor-stm32mp157d-ev1/bl2/stm32mp_dt.o
                0x2fff1b9c                dt_get_vdd_regulator
 .text.dt_get_board_model
                0x2fff1bcc       0x30 ./../build/optee-nor-stm32mp157d-ev1/bl2/stm32mp_dt.o
                0x2fff1bcc                dt_get_board_model
 .text.dt_find_otp_name
                0x2fff1bfc       0xa8 ./../build/optee-nor-stm32mp157d-ev1/bl2/stm32mp_dt.o
                0x2fff1bfc                dt_find_otp_name
 .text.dt_get_otp_by_phandle
                0x2fff1ca4       0x88 ./../build/optee-nor-stm32mp157d-ev1/bl2/stm32mp_dt.o
                0x2fff1ca4                dt_get_otp_by_phandle
 .text.fconf_populate_stm32mp_fuse_provisioning
                0x2fff1d2c      0x128 ./../build/optee-nor-stm32mp157d-ev1/bl2/stm32mp_fconf_fuse.o
 .text.fconf_populate_stm32mp_io_policies
                0x2fff1e54       0xd8 ./../build/optee-nor-stm32mp157d-ev1/bl2/stm32mp_fconf_io.o
                0x2fff1e54                fconf_populate_stm32mp_io_policies
 .text.bl2_platform_setup
                0x2fff1f2c       0x74 ./../build/optee-nor-stm32mp157d-ev1/bl2/bl2_plat_setup.o
                0x2fff1f2c                bl2_platform_setup
 .text.bl2_el3_plat_arch_setup
                0x2fff1fa0      0x3e0 ./../build/optee-nor-stm32mp157d-ev1/bl2/bl2_plat_setup.o
                0x2fff1fa0                bl2_el3_plat_arch_setup
 .text.bl2_plat_handle_post_image_load
                0x2fff2380      0x1f8 ./../build/optee-nor-stm32mp157d-ev1/bl2/bl2_plat_setup.o
                0x2fff2380                bl2_plat_handle_post_image_load
 .text.stm32mp_board_ddr_power_init
                0x2fff2578      0x124 ./../build/optee-nor-stm32mp157d-ev1/bl2/plat_ddr.o
                0x2fff2578                stm32mp_board_ddr_power_init
 .text.stm32_pm_get_optee_ep
                0x2fff269c       0x58 ./../build/optee-nor-stm32mp157d-ev1/bl2/stm32mp1_context.o
                0x2fff269c                stm32_pm_get_optee_ep
 .text.stm32_context_save_bl2_param
                0x2fff26f4       0x54 ./../build/optee-nor-stm32mp157d-ev1/bl2/stm32mp1_context.o
                0x2fff26f4                stm32_context_save_bl2_param
 .text.stm32_pm_context_is_valid
                0x2fff2748       0x80 ./../build/optee-nor-stm32mp157d-ev1/bl2/stm32mp1_context.o
                0x2fff2748                stm32_pm_context_is_valid
 .text.stm32_restore_ddr_training_area
                0x2fff27c8       0x3c ./../build/optee-nor-stm32mp157d-ev1/bl2/stm32mp1_context.o
                0x2fff27c8                stm32_restore_ddr_training_area
 .text.stm32_pwr_down_wfi_load
                0x2fff2804       0x80 ./../build/optee-nor-stm32mp157d-ev1/bl2/stm32mp1_critic_power.o
                0x2fff2804                stm32_pwr_down_wfi_load
 .text.stm32mp1_dbgmcu_init
                0x2fff2884       0x30 ./../build/optee-nor-stm32mp157d-ev1/bl2/stm32mp1_dbgmcu.o
 .text.stm32mp1_dbgmcu_get_chip_version
                0x2fff28b4       0x2c ./../build/optee-nor-stm32mp157d-ev1/bl2/stm32mp1_dbgmcu.o
                0x2fff28b4                stm32mp1_dbgmcu_get_chip_version
 .text.stm32mp1_dbgmcu_get_chip_dev_id
                0x2fff28e0       0x30 ./../build/optee-nor-stm32mp157d-ev1/bl2/stm32mp1_dbgmcu.o
                0x2fff28e0                stm32mp1_dbgmcu_get_chip_dev_id
 .text.fconf_populate_stm32mp1_firewall
                0x2fff2910       0xcc ./../build/optee-nor-stm32mp157d-ev1/bl2/stm32mp1_fconf_firewall.o
 .text.stm32mp1_arch_security_setup
                0x2fff29dc       0x34 ./../build/optee-nor-stm32mp157d-ev1/bl2/stm32mp1_fconf_firewall.o
                0x2fff29dc                stm32mp1_arch_security_setup
 .text.stm32mp1_security_setup
                0x2fff2a10       0x5c ./../build/optee-nor-stm32mp157d-ev1/bl2/stm32mp1_fconf_firewall.o
                0x2fff2a10                stm32mp1_security_setup
 .text.configure_mmu
                0x2fff2a6c       0x1c ./../build/optee-nor-stm32mp157d-ev1/bl2/stm32mp1_private.o
                0x2fff2a6c                configure_mmu
 .text.stm32_get_gpio_bank_base
                0x2fff2a88       0x28 ./../build/optee-nor-stm32mp157d-ev1/bl2/stm32mp1_private.o
                0x2fff2a88                stm32_get_gpio_bank_base
 .text.stm32_get_gpio_bank_offset
                0x2fff2ab0       0x20 ./../build/optee-nor-stm32mp157d-ev1/bl2/stm32mp1_private.o
                0x2fff2ab0                stm32_get_gpio_bank_offset
 .text.stm32_get_gpio_bank_clock
                0x2fff2ad0       0x20 ./../build/optee-nor-stm32mp157d-ev1/bl2/stm32mp1_private.o
                0x2fff2ad0                stm32_get_gpio_bank_clock
 .text.stm32mp_get_chip_version
                0x2fff2af0       0x24 ./../build/optee-nor-stm32mp157d-ev1/bl2/stm32mp1_private.o
                0x2fff2af0                stm32mp_get_chip_version
 .text.stm32mp_get_chip_dev_id
                0x2fff2b14       0x24 ./../build/optee-nor-stm32mp157d-ev1/bl2/stm32mp1_private.o
                0x2fff2b14                stm32mp_get_chip_dev_id
 .text.stm32mp_get_part_number
                0x2fff2b38       0x34 ./../build/optee-nor-stm32mp157d-ev1/bl2/stm32mp1_private.o
                0x2fff2b38                stm32mp_get_part_number
 .text.stm32mp_get_soc_name
                0x2fff2b6c      0x148 ./../build/optee-nor-stm32mp157d-ev1/bl2/stm32mp1_private.o
                0x2fff2b6c                stm32mp_get_soc_name
 .text.stm32mp_print_cpuinfo
                0x2fff2cb4       0x1c ./../build/optee-nor-stm32mp157d-ev1/bl2/stm32mp1_private.o
                0x2fff2cb4                stm32mp_print_cpuinfo
 .text.stm32mp_print_boardinfo
                0x2fff2cd0       0x24 ./../build/optee-nor-stm32mp157d-ev1/bl2/stm32mp1_private.o
                0x2fff2cd0                stm32mp_print_boardinfo
 .text.stm32mp_check_closed_device
                0x2fff2cf4       0x2c ./../build/optee-nor-stm32mp157d-ev1/bl2/stm32mp1_private.o
                0x2fff2cf4                stm32mp_check_closed_device
 .text.stm32_iwdg_get_instance
                0x2fff2d20       0x28 ./../build/optee-nor-stm32mp157d-ev1/bl2/stm32mp1_private.o
                0x2fff2d20                stm32_iwdg_get_instance
 .text.stm32_iwdg_get_otp_config
                0x2fff2d48       0x30 ./../build/optee-nor-stm32mp157d-ev1/bl2/stm32mp1_private.o
                0x2fff2d48                stm32_iwdg_get_otp_config
 .text.stm32mp_skip_boot_device_after_standby
                0x2fff2d78       0x2c ./../build/optee-nor-stm32mp157d-ev1/bl2/stm32mp1_private.o
                0x2fff2d78                stm32mp_skip_boot_device_after_standby
 .text.stm32mp_bkpram_get_access
                0x2fff2da4       0x20 ./../build/optee-nor-stm32mp157d-ev1/bl2/stm32mp1_private.o
                0x2fff2da4                stm32mp_bkpram_get_access
 .text.stm32mp_syscfg_enable_io_compensation_start
                0x2fff2dc4       0x18 ./../build/optee-nor-stm32mp157d-ev1/bl2/stm32mp1_syscfg.o
                0x2fff2dc4                stm32mp_syscfg_enable_io_compensation_start
 .text.stm32mp_syscfg_init
                0x2fff2ddc       0x8c ./../build/optee-nor-stm32mp157d-ev1/bl2/stm32mp1_syscfg.o
                0x2fff2ddc                stm32mp_syscfg_init
 .text.stm32mp_syscfg_enable_io_compensation_finish
                0x2fff2e68       0x50 ./../build/optee-nor-stm32mp157d-ev1/bl2/stm32mp1_syscfg.o
                0x2fff2e68                stm32mp_syscfg_enable_io_compensation_finish
 .text          0x2fff2eb8       0x24 ./../build/optee-nor-stm32mp157d-ev1/bl2/aeabi_uldivmod.o
                0x2fff2eb8                __aeabi_uldivmod
 .text.fdt_ro_probe_
                0x2fff2edc       0x74 ./../build/optee-nor-stm32mp157d-ev1/lib/libfdt.a(fdt.o)
                0x2fff2edc                fdt_ro_probe_
 .text.fdt_check_header
                0x2fff2f50       0xd0 ./../build/optee-nor-stm32mp157d-ev1/lib/libfdt.a(fdt.o)
                0x2fff2f50                fdt_check_header
 .text.fdt_address_cells
                0x2fff3020       0x1c ./../build/optee-nor-stm32mp157d-ev1/lib/libfdt.a(fdt_addresses.o)
                0x2fff3020                fdt_address_cells
 .text.fdt_size_cells
                0x2fff303c       0x14 ./../build/optee-nor-stm32mp157d-ev1/lib/libfdt.a(fdt_addresses.o)
                0x2fff303c                fdt_size_cells
 .text.fdt_get_string
                0x2fff3050       0xb0 ./../build/optee-nor-stm32mp157d-ev1/lib/libfdt.a(fdt_ro.o)
                0x2fff3050                fdt_get_string
 .text.fdt_get_phandle
                0x2fff3100       0x44 ./../build/optee-nor-stm32mp157d-ev1/lib/libfdt.a(fdt_ro.o)
                0x2fff3100                fdt_get_phandle
 .text.fdt_get_alias_namelen
                0x2fff3144       0x2c ./../build/optee-nor-stm32mp157d-ev1/lib/libfdt.a(fdt_ro.o)
                0x2fff3144                fdt_get_alias_namelen
 .text.fdt_node_check_compatible
                0x2fff3170       0x28 ./../build/optee-nor-stm32mp157d-ev1/lib/libfdt.a(fdt_ro.o)
                0x2fff3170                fdt_node_check_compatible
 .text.__assert
                0x2fff3198       0x18 ./../build/optee-nor-stm32mp157d-ev1/lib/libc.a(assert.o)
                0x2fff3198                __assert
 .text.vprintf  0x2fff31b0      0x1c4 ./../build/optee-nor-stm32mp157d-ev1/lib/libc.a(printf.o)
                0x2fff31b0                vprintf
 .text.vsnprintf
                0x2fff3374      0x2d0 ./../build/optee-nor-stm32mp157d-ev1/lib/libc.a(snprintf.o)
                0x2fff3374                vsnprintf
 .text.bl2_arch_setup
                0x2fff3644        0x2 ./../build/optee-nor-stm32mp157d-ev1/bl2/bl2_arch_setup.o
                0x2fff3644                bl2_arch_setup
 .text.bl2_el3_setup
                0x2fff3646        0xe ./../build/optee-nor-stm32mp157d-ev1/bl2/bl2_main.o
                0x2fff3646                bl2_el3_setup
 .text.fdt32_to_cpu
                0x2fff3654        0x4 ./../build/optee-nor-stm32mp157d-ev1/bl2/fdt_wrappers.o
 .text.fdt_read_prop_cells
                0x2fff3658       0x1e ./../build/optee-nor-stm32mp157d-ev1/bl2/fdt_wrappers.o
 .text.fdt_read_uint32
                0x2fff3676       0x10 ./../build/optee-nor-stm32mp157d-ev1/bl2/fdt_wrappers.o
                0x2fff3676                fdt_read_uint32
 .text.fdt_read_uint32_default
                0x2fff3686       0x18 ./../build/optee-nor-stm32mp157d-ev1/bl2/fdt_wrappers.o
                0x2fff3686                fdt_read_uint32_default
 .text.fdt_read_uint64
                0x2fff369e       0x28 ./../build/optee-nor-stm32mp157d-ev1/bl2/fdt_wrappers.o
                0x2fff369e                fdt_read_uint64
 .text.hex_val  0x2fff36c6       0x2e ./../build/optee-nor-stm32mp157d-ev1/bl2/uuid.o
 .text.read_hex.part.0
                0x2fff36f4       0x3a ./../build/optee-nor-stm32mp157d-ev1/bl2/uuid.o
 .text.putchar  0x2fff372e       0x14 ./../build/optee-nor-stm32mp157d-ev1/bl2/multi_console.o
                0x2fff372e                putchar
 .text.mdelay   0x2fff3742        0xa ./../build/optee-nor-stm32mp157d-ev1/bl2/delay_timer.o
                0x2fff3742                mdelay
 .text.get_timer_value
                0x2fff374c        0x8 ./../build/optee-nor-stm32mp157d-ev1/bl2/generic_delay_timer.o
 .text.device_type_fip
                0x2fff3754        0x4 ./../build/optee-nor-stm32mp157d-ev1/bl2/io_fip.o
 .text.device_type_mtd
                0x2fff3758        0x4 ./../build/optee-nor-stm32mp157d-ev1/bl2/io_mtd.o
                0x2fff3758                device_type_mtd
 .text.mtd_close
                0x2fff375c        0x8 ./../build/optee-nor-stm32mp157d-ev1/bl2/io_mtd.o
 .text.is_valid_dev
                0x2fff3764       0x18 ./../build/optee-nor-stm32mp157d-ev1/bl2/io_storage.o
 .text.is_valid_entity
                0x2fff377c       0x10 ./../build/optee-nor-stm32mp157d-ev1/bl2/io_storage.o
 .text.spi_nor_reg
                0x2fff378c       0x36 ./../build/optee-nor-stm32mp157d-ev1/bl2/spi_nor.o
 .text.spi_nor_write_en
                0x2fff37c2        0xc ./../build/optee-nor-stm32mp157d-ev1/bl2/spi_nor.o
 .text.spi_nor_read_sr
                0x2fff37ce        0xc ./../build/optee-nor-stm32mp157d-ev1/bl2/spi_nor.o
 .text.fdt32_to_cpu
                0x2fff37da        0x4 ./../build/optee-nor-stm32mp157d-ev1/bl2/spi_mem.o
 .text.spi_mem_check_buswidth
                0x2fff37de       0x46 ./../build/optee-nor-stm32mp157d-ev1/bl2/spi_mem.o
 .text.spi_mem_default_supports_op
                0x2fff3824       0x1e ./../build/optee-nor-stm32mp157d-ev1/bl2/spi_mem.o
                0x2fff3824                spi_mem_default_supports_op
 .text.bsec_read_otp
                0x2fff3842       0x2c ./../build/optee-nor-stm32mp157d-ev1/bl2/bsec2.o
                0x2fff3842                bsec_read_otp
 .text.clock_is_always_on
                0x2fff386e       0x20 ./../build/optee-nor-stm32mp157d-ev1/bl2/stm32mp1_clk.o
 .text.stm32mp1_clk_lock
                0x2fff388e       0x16 ./../build/optee-nor-stm32mp157d-ev1/bl2/stm32mp1_clk.o
 .text.stm32mp1_clk_unlock
                0x2fff38a4       0x16 ./../build/optee-nor-stm32mp157d-ev1/bl2/stm32mp1_clk.o
 .text.stm32_clk_parse_fdt_by_name
                0x2fff38ba       0x36 ./../build/optee-nor-stm32mp157d-ev1/bl2/stm32mp1_clk.o
 .text.stm32mp1_pll_configure_src
                0x2fff38f0       0x18 ./../build/optee-nor-stm32mp157d-ev1/bl2/stm32mp1_clk.o
 .text.stm32mp1_mode_register_write.isra.0
                0x2fff3908       0x22 ./../build/optee-nor-stm32mp157d-ev1/bl2/stm32mp1_ddr.o
 .text.stm32mp1_ddrphy_idone_wait
                0x2fff392a       0x4a ./../build/optee-nor-stm32mp157d-ev1/bl2/stm32mp1_ddr.o
 .text.stm32mp1_wait_operating_mode
                0x2fff3974       0x4e ./../build/optee-nor-stm32mp157d-ev1/bl2/stm32mp1_ddr.o
 .text.ddr_enable_clock
                0x2fff39c2       0x2a ./../build/optee-nor-stm32mp157d-ev1/bl2/stm32mp1_ddr_helpers.o
                0x2fff39c2                ddr_enable_clock
 .text.ddr_get_io_calibration_val
                0x2fff39ec       0x10 ./../build/optee-nor-stm32mp157d-ev1/bl2/stm32mp1_ddr_helpers.o
                0x2fff39ec                ddr_get_io_calibration_val
 .text.ddr_standby_sr_entry
                0x2fff39fc      0x17e ./../build/optee-nor-stm32mp157d-ev1/bl2/stm32mp1_ddr_helpers.o
                0x2fff39fc                ddr_standby_sr_entry
 .text.stm32mp_ddr_start_sw_done
                0x2fff3b7a        0xe ./../build/optee-nor-stm32mp157d-ev1/bl2/stm32mp_ddr.o
                0x2fff3b7a                stm32mp_ddr_start_sw_done
 .text.stm32mp_ddr_wait_sw_done_ack
                0x2fff3b88       0x3a ./../build/optee-nor-stm32mp157d-ev1/bl2/stm32mp_ddr.o
                0x2fff3b88                stm32mp_ddr_wait_sw_done_ack
 .text.stm32mp_ddr_enable_axi_port
                0x2fff3bc2       0x1a ./../build/optee-nor-stm32mp157d-ev1/bl2/stm32mp_ddr.o
                0x2fff3bc2                stm32mp_ddr_enable_axi_port
 .text.stm32mp_ddr_disable_axi_port
                0x2fff3bdc       0x46 ./../build/optee-nor-stm32mp157d-ev1/bl2/stm32mp_ddr.o
                0x2fff3bdc                stm32mp_ddr_disable_axi_port
 .text.stm32mp_ddr_enable_host_interface
                0x2fff3c22        0xe ./../build/optee-nor-stm32mp157d-ev1/bl2/stm32mp_ddr.o
                0x2fff3c22                stm32mp_ddr_enable_host_interface
 .text.stm32mp_ddr_disable_host_interface
                0x2fff3c30       0x4a ./../build/optee-nor-stm32mp157d-ev1/bl2/stm32mp_ddr.o
                0x2fff3c30                stm32mp_ddr_disable_host_interface
 .text.stm32mp_ddr_sw_selfref_exit
                0x2fff3c7a        0xa ./../build/optee-nor-stm32mp157d-ev1/bl2/stm32mp_ddr.o
                0x2fff3c7a                stm32mp_ddr_sw_selfref_exit
 .text.stm32mp_ddr_wait_refresh_update_done_ack
                0x2fff3c84       0x4c ./../build/optee-nor-stm32mp157d-ev1/bl2/stm32mp_ddr.o
                0x2fff3c84                stm32mp_ddr_wait_refresh_update_done_ack
 .text.stm32mp_ddr_test_rw_access
                0x2fff3cd0       0x1a ./../build/optee-nor-stm32mp157d-ev1/bl2/stm32mp_ddr_test.o
                0x2fff3cd0                stm32mp_ddr_test_rw_access
 .text.stm32mp_ddr_test_data_bus
                0x2fff3cea       0x1e ./../build/optee-nor-stm32mp157d-ev1/bl2/stm32mp_ddr_test.o
                0x2fff3cea                stm32mp_ddr_test_data_bus
 .text.stm32mp_ddr_test_addr_bus
                0x2fff3d08       0x86 ./../build/optee-nor-stm32mp157d-ev1/bl2/stm32mp_ddr_test.o
                0x2fff3d08                stm32mp_ddr_test_addr_bus
 .text.stm32mp_ddr_check_size
                0x2fff3d8e       0x2e ./../build/optee-nor-stm32mp157d-ev1/bl2/stm32mp_ddr_test.o
                0x2fff3d8e                stm32mp_ddr_check_size
 .text.fdt32_to_cpu
                0x2fff3dbc        0x4 ./../build/optee-nor-stm32mp157d-ev1/bl2/stm32_gpio.o
 .text.i2c_wait_flag
                0x2fff3dc0       0x44 ./../build/optee-nor-stm32mp157d-ev1/bl2/stm32_i2c.o
 .text.i2c_ack_failed
                0x2fff3e04       0x8c ./../build/optee-nor-stm32mp157d-ev1/bl2/stm32_i2c.o
 .text.i2c_wait_txis
                0x2fff3e90       0x42 ./../build/optee-nor-stm32mp157d-ev1/bl2/stm32_i2c.o
 .text.i2c_wait_stop
                0x2fff3ed2       0x42 ./../build/optee-nor-stm32mp157d-ev1/bl2/stm32_i2c.o
 .text.stm32_i2c_mem_write
                0x2fff3f14       0x1c ./../build/optee-nor-stm32mp157d-ev1/bl2/stm32_i2c.o
                0x2fff3f14                stm32_i2c_mem_write
 .text.stm32_i2c_mem_read
                0x2fff3f30       0x12 ./../build/optee-nor-stm32mp157d-ev1/bl2/stm32_i2c.o
                0x2fff3f30                stm32_i2c_mem_read
 .text.nvmem_cell_read
                0x2fff3f42       0x18 ./../build/optee-nor-stm32mp157d-ev1/bl2/nvmem.o
                0x2fff3f42                nvmem_cell_read
 .text.nvmem_cell_write
                0x2fff3f5a       0x10 ./../build/optee-nor-stm32mp157d-ev1/bl2/nvmem.o
                0x2fff3f5a                nvmem_cell_write
 .text.fdt32_to_cpu
                0x2fff3f6a        0x4 ./../build/optee-nor-stm32mp157d-ev1/bl2/stm32mp_tamp_nvram_core.o
 .text.stm32_tamp_nvram_reg_get_zone
                0x2fff3f6e       0x2a ./../build/optee-nor-stm32mp157d-ev1/bl2/stm32mp_tamp_nvram_core.o
                0x2fff3f6e                stm32_tamp_nvram_reg_get_zone
 .text.stm32_tamp_nvram_reg_field_read
                0x2fff3f98       0x30 ./../build/optee-nor-stm32mp157d-ev1/bl2/stm32mp_tamp_nvram_core.o
                0x2fff3f98                stm32_tamp_nvram_reg_field_read
 .text.pmic_set_flag
                0x2fff3fc8       0x44 ./../build/optee-nor-stm32mp157d-ev1/bl2/stm32mp_pmic.o
 .text.pmic_list_voltages
                0x2fff400c        0x6 ./../build/optee-nor-stm32mp157d-ev1/bl2/stm32mp_pmic.o
 .text.pmic_get_voltage
                0x2fff4012        0x6 ./../build/optee-nor-stm32mp157d-ev1/bl2/stm32mp_pmic.o
 .text.pmic_set_voltage
                0x2fff4018        0x6 ./../build/optee-nor-stm32mp157d-ev1/bl2/stm32mp_pmic.o
 .text.pmic_get_state
                0x2fff401e        0xa ./../build/optee-nor-stm32mp157d-ev1/bl2/stm32mp_pmic.o
 .text.pmic_set_state
                0x2fff4028        0xc ./../build/optee-nor-stm32mp157d-ev1/bl2/stm32mp_pmic.o
 .text.pmic_voltages_init
                0x2fff4034        0x4 ./../build/optee-nor-stm32mp157d-ev1/bl2/stm32mp_pmic.o
                0x2fff4034                pmic_voltages_init
 .text.pmic_switch_off
                0x2fff4038       0x16 ./../build/optee-nor-stm32mp157d-ev1/bl2/stm32mp_pmic.o
                0x2fff4038                pmic_switch_off
 .text.stpmic1_is_regulator_enabled
                0x2fff404e       0x2e ./../build/optee-nor-stm32mp157d-ev1/bl2/stpmic1.o
                0x2fff404e                stpmic1_is_regulator_enabled
 .text.stpmic1_register_update
                0x2fff407c       0x2e ./../build/optee-nor-stm32mp157d-ev1/bl2/stpmic1.o
                0x2fff407c                stpmic1_register_update
 .text.stpmic1_powerctrl_on
                0x2fff40aa        0xa ./../build/optee-nor-stm32mp157d-ev1/bl2/stpmic1.o
                0x2fff40aa                stpmic1_powerctrl_on
 .text.stpmic1_switch_off
                0x2fff40b4        0xa ./../build/optee-nor-stm32mp157d-ev1/bl2/stpmic1.o
                0x2fff40b4                stpmic1_switch_off
 .text.stpmic1_regulator_enable
                0x2fff40be       0x14 ./../build/optee-nor-stm32mp157d-ev1/bl2/stpmic1.o
                0x2fff40be                stpmic1_regulator_enable
 .text.stpmic1_regulator_disable
                0x2fff40d2       0x14 ./../build/optee-nor-stm32mp157d-ev1/bl2/stpmic1.o
                0x2fff40d2                stpmic1_regulator_disable
 .text.stpmic1_regulator_pull_down_set
                0x2fff40e6       0x24 ./../build/optee-nor-stm32mp157d-ev1/bl2/stpmic1.o
                0x2fff40e6                stpmic1_regulator_pull_down_set
 .text.stpmic1_regulator_mask_reset_set
                0x2fff410a       0x24 ./../build/optee-nor-stm32mp157d-ev1/bl2/stpmic1.o
                0x2fff410a                stpmic1_regulator_mask_reset_set
 .text.stpmic1_regulator_icc_set
                0x2fff412e       0x24 ./../build/optee-nor-stm32mp157d-ev1/bl2/stpmic1.o
                0x2fff412e                stpmic1_regulator_icc_set
 .text.stpmic1_get_version
                0x2fff4152       0x1e ./../build/optee-nor-stm32mp157d-ev1/bl2/stpmic1.o
                0x2fff4152                stpmic1_get_version
 .text.fdt32_to_cpu
                0x2fff4170        0x4 ./../build/optee-nor-stm32mp157d-ev1/bl2/regulator_core.o
 .text.unlock_driver.isra.0
                0x2fff4174        0xa ./../build/optee-nor-stm32mp157d-ev1/bl2/regulator_core.o
 .text.lock_driver.isra.0
                0x2fff417e        0xa ./../build/optee-nor-stm32mp157d-ev1/bl2/regulator_core.o
 .text.regulator_set_min_voltage
                0x2fff4188        0x6 ./../build/optee-nor-stm32mp157d-ev1/bl2/regulator_core.o
                0x2fff4188                regulator_set_min_voltage
 .text.fixed_set_state
                0x2fff418e        0x4 ./../build/optee-nor-stm32mp157d-ev1/bl2/regulator_fixed.o
 .text.fixed_get_state
                0x2fff4192        0x4 ./../build/optee-nor-stm32mp157d-ev1/bl2/regulator_fixed.o
 .text.stm32mp_system_reset
                0x2fff4196       0x14 ./../build/optee-nor-stm32mp157d-ev1/bl2/stm32mp1_reset.o
                0x2fff4196                stm32mp_system_reset
 .text.stm32_qspi_read_fifo
                0x2fff41aa        0x6 ./../build/optee-nor-stm32mp157d-ev1/bl2/stm32_qspi.o
 .text.stm32_qspi_write_fifo
                0x2fff41b0        0x6 ./../build/optee-nor-stm32mp157d-ev1/bl2/stm32_qspi.o
 .text.__ctzdi2
                0x2fff41b6       0x22 ./../build/optee-nor-stm32mp157d-ev1/bl2/ctzdi2.o
                0x2fff41b6                __ctzdi2
 .text.__udivmoddi4
                0x2fff41d8      0x180 ./../build/optee-nor-stm32mp157d-ev1/bl2/udivmoddi4.o
                0x2fff41d8                __udivmoddi4
 .text.xlat_arch_get_pas
                0x2fff4358       0x10 ./../build/optee-nor-stm32mp157d-ev1/bl2/xlat_tables_arch.o
                0x2fff4358                xlat_arch_get_pas
 .text.xlat_arch_get_max_supported_pa
                0x2fff4368        0x8 ./../build/optee-nor-stm32mp157d-ev1/bl2/xlat_tables_arch.o
                0x2fff4368                xlat_arch_get_max_supported_pa
 .text.xlat_get_min_virt_addr_space_size
                0x2fff4370        0x6 ./../build/optee-nor-stm32mp157d-ev1/bl2/xlat_tables_arch.o
                0x2fff4370                xlat_get_min_virt_addr_space_size
 .text.is_dcache_enabled
                0x2fff4376       0x1c ./../build/optee-nor-stm32mp157d-ev1/bl2/xlat_tables_arch.o
                0x2fff4376                is_dcache_enabled
 .text.xlat_arch_tlbi_va_sync
                0x2fff4392       0x10 ./../build/optee-nor-stm32mp157d-ev1/bl2/xlat_tables_arch.o
                0x2fff4392                xlat_arch_tlbi_va_sync
 .text.mmap_add_region_check
                0x2fff43a2      0x12e ./../build/optee-nor-stm32mp157d-ev1/bl2/xlat_tables_core.o
 .text.xlat_clean_dcache_range
                0x2fff44d0       0x1a ./../build/optee-nor-stm32mp157d-ev1/bl2/xlat_tables_core.o
 .text.mmap_add_ctx
                0x2fff44ea       0x18 ./../build/optee-nor-stm32mp157d-ev1/bl2/xlat_tables_core.o
                0x2fff44ea                mmap_add_ctx
 .text.xlat_mmap_print
                0x2fff4502        0x2 ./../build/optee-nor-stm32mp157d-ev1/bl2/xlat_tables_utils.o
                0x2fff4502                xlat_mmap_print
 .text.xlat_tables_print
                0x2fff4504        0x2 ./../build/optee-nor-stm32mp157d-ev1/bl2/xlat_tables_utils.o
                0x2fff4504                xlat_tables_print
 .text.crc32    0x2fff4506        0x4 ./../build/optee-nor-stm32mp157d-ev1/bl2/crc32.o
                0x2fff4506                crc32
 .text.tf_crc32
                0x2fff450a        0x4 ./../build/optee-nor-stm32mp157d-ev1/bl2/tf_gunzip.o
                0x2fff450a                tf_crc32
 .text.plat_error_handler
                0x2fff450e        0x4 ./../build/optee-nor-stm32mp157d-ev1/bl2/plat_bl_common.o
                0x2fff450e                plat_error_handler
 .text.bl2_plat_preload_setup
                0x2fff4512        0x2 ./../build/optee-nor-stm32mp157d-ev1/bl2/plat_bl_common.o
                0x2fff4512                bl2_plat_preload_setup
 .text.plat_try_backup_partitions
                0x2fff4514        0x4 ./../build/optee-nor-stm32mp157d-ev1/bl2/bl2_io_storage.o
                0x2fff4514                plat_try_backup_partitions
 .text.plat_fwu_is_enabled
                0x2fff4518        0xe ./../build/optee-nor-stm32mp157d-ev1/bl2/bl2_io_storage.o
                0x2fff4518                plat_fwu_is_enabled
 .text.plat_flush_next_bl_params
                0x2fff4526        0x4 ./../build/optee-nor-stm32mp157d-ev1/bl2/plat_image_load.o
                0x2fff4526                plat_flush_next_bl_params
 .text.plat_get_bl_image_load_info
                0x2fff452a        0x4 ./../build/optee-nor-stm32mp157d-ev1/bl2/plat_image_load.o
                0x2fff452a                plat_get_bl_image_load_info
 .text.plat_get_next_bl_params
                0x2fff452e       0x10 ./../build/optee-nor-stm32mp157d-ev1/bl2/plat_image_load.o
                0x2fff452e                plat_get_next_bl_params
 .text.stm32_nvmem_cell_clrset
                0x2fff453e       0x32 ./../build/optee-nor-stm32mp157d-ev1/bl2/stm32mp_common.o
 .text.plat_get_syscnt_freq2
                0x2fff4570        0x6 ./../build/optee-nor-stm32mp157d-ev1/bl2/stm32mp_common.o
                0x2fff4570                plat_get_syscnt_freq2
 .text.stm32mp_rcc_base
                0x2fff4576        0x6 ./../build/optee-nor-stm32mp157d-ev1/bl2/stm32mp_common.o
                0x2fff4576                stm32mp_rcc_base
 .text.stm32mp_lock_available
                0x2fff457c       0x10 ./../build/optee-nor-stm32mp157d-ev1/bl2/stm32mp_common.o
                0x2fff457c                stm32mp_lock_available
 .text.stm32mp_map_ddr_non_cacheable
                0x2fff458c       0x1e ./../build/optee-nor-stm32mp157d-ev1/bl2/stm32mp_common.o
                0x2fff458c                stm32mp_map_ddr_non_cacheable
 .text.stm32mp_unmap_ddr
                0x2fff45aa        0xc ./../build/optee-nor-stm32mp157d-ev1/bl2/stm32mp_common.o
                0x2fff45aa                stm32mp_unmap_ddr
 .text.stm32_fwu_set_boot_idx
                0x2fff45b6       0x28 ./../build/optee-nor-stm32mp157d-ev1/bl2/stm32mp_common.o
                0x2fff45b6                stm32_fwu_set_boot_idx
 .text.stm32_set_max_fwu_trial_boot_cnt
                0x2fff45de       0x22 ./../build/optee-nor-stm32mp157d-ev1/bl2/stm32mp_common.o
                0x2fff45de                stm32_set_max_fwu_trial_boot_cnt
 .text.stm32_clear_fwu_trial_boot_cnt
                0x2fff4600       0x22 ./../build/optee-nor-stm32mp157d-ev1/bl2/stm32mp_common.o
                0x2fff4600                stm32_clear_fwu_trial_boot_cnt
 .text.fdt32_to_cpu
                0x2fff4622        0x4 ./../build/optee-nor-stm32mp157d-ev1/bl2/stm32mp_dt.o
 .text.dt_get_pwr_vdd_voltage
                0x2fff4626       0x22 ./../build/optee-nor-stm32mp157d-ev1/bl2/stm32mp_dt.o
                0x2fff4626                dt_get_pwr_vdd_voltage
 .text.bl2_el3_early_platform_setup
                0x2fff4648        0x4 ./../build/optee-nor-stm32mp157d-ev1/bl2/bl2_plat_setup.o
                0x2fff4648                bl2_el3_early_platform_setup
 .text.bl2_el3_plat_prepare_exit
                0x2fff464c        0x4 ./../build/optee-nor-stm32mp157d-ev1/bl2/bl2_plat_setup.o
                0x2fff464c                bl2_el3_plat_prepare_exit
 .text.plat_get_nor_data
                0x2fff4650       0x34 ./../build/optee-nor-stm32mp157d-ev1/bl2/stm32mp1_boot_device.o
                0x2fff4650                plat_get_nor_data
 .text.stm32_clean_context
                0x2fff4684       0x24 ./../build/optee-nor-stm32mp157d-ev1/bl2/stm32mp1_context.o
                0x2fff4684                stm32_clean_context
 .text.stm32_get_zdata_from_context
                0x2fff46a8       0x1c ./../build/optee-nor-stm32mp157d-ev1/bl2/stm32mp1_context.o
                0x2fff46a8                stm32_get_zdata_from_context
 .text.stm32_pwr_cstop_critic_exit
                0x2fff46c4       0x1a ./../build/optee-nor-stm32mp157d-ev1/bl2/stm32mp1_critic_power.o
                0x2fff46c4                stm32_pwr_cstop_critic_exit
 .text.fdt32_to_cpu
                0x2fff46de        0x4 ./../build/optee-nor-stm32mp157d-ev1/bl2/stm32mp1_fconf_firewall.o
 .text.stm32mp1_addr_inside_backupsram
                0x2fff46e2       0x10 ./../build/optee-nor-stm32mp157d-ev1/bl2/stm32mp1_private.o
                0x2fff46e2                stm32mp1_addr_inside_backupsram
 .text.stm32mp_is_wakeup_from_standby
                0x2fff46f2       0x46 ./../build/optee-nor-stm32mp157d-ev1/bl2/stm32mp1_private.o
                0x2fff46f2                stm32mp_is_wakeup_from_standby
 .text.fdt32_ld
                0x2fff4738       0x18 ./../build/optee-nor-stm32mp157d-ev1/lib/libfdt.a(fdt.o)
 .text.fdt_header_size_
                0x2fff4750       0x1a ./../build/optee-nor-stm32mp157d-ev1/lib/libfdt.a(fdt.o)
                0x2fff4750                fdt_header_size_
 .text.fdt_header_size
                0x2fff476a       0x10 ./../build/optee-nor-stm32mp157d-ev1/lib/libfdt.a(fdt.o)
                0x2fff476a                fdt_header_size
 .text.fdt_offset_ptr
                0x2fff477a       0x54 ./../build/optee-nor-stm32mp157d-ev1/lib/libfdt.a(fdt.o)
                0x2fff477a                fdt_offset_ptr
 .text.fdt_next_tag
                0x2fff47ce       0xbc ./../build/optee-nor-stm32mp157d-ev1/lib/libfdt.a(fdt.o)
                0x2fff47ce                fdt_next_tag
 .text.fdt_check_node_offset_
                0x2fff488a       0x24 ./../build/optee-nor-stm32mp157d-ev1/lib/libfdt.a(fdt.o)
                0x2fff488a                fdt_check_node_offset_
 .text.fdt_check_prop_offset_
                0x2fff48ae       0x24 ./../build/optee-nor-stm32mp157d-ev1/lib/libfdt.a(fdt.o)
                0x2fff48ae                fdt_check_prop_offset_
 .text.fdt_next_node
                0x2fff48d2       0x6e ./../build/optee-nor-stm32mp157d-ev1/lib/libfdt.a(fdt.o)
                0x2fff48d2                fdt_next_node
 .text.fdt_first_subnode
                0x2fff4940       0x26 ./../build/optee-nor-stm32mp157d-ev1/lib/libfdt.a(fdt.o)
                0x2fff4940                fdt_first_subnode
 .text.fdt_next_subnode
                0x2fff4966       0x2a ./../build/optee-nor-stm32mp157d-ev1/lib/libfdt.a(fdt.o)
                0x2fff4966                fdt_next_subnode
 .text.fdt_cells
                0x2fff4990       0x2a ./../build/optee-nor-stm32mp157d-ev1/lib/libfdt.a(fdt_addresses.o)
 .text.fdt32_ld
                0x2fff49ba       0x18 ./../build/optee-nor-stm32mp157d-ev1/lib/libfdt.a(fdt_ro.o)
 .text.nextprop_
                0x2fff49d2       0x32 ./../build/optee-nor-stm32mp157d-ev1/lib/libfdt.a(fdt_ro.o)
 .text.fdt32_ld_.isra.0
                0x2fff4a04        0x4 ./../build/optee-nor-stm32mp157d-ev1/lib/libfdt.a(fdt_ro.o)
 .text.fdt_get_property_by_offset_
                0x2fff4a08       0x34 ./../build/optee-nor-stm32mp157d-ev1/lib/libfdt.a(fdt_ro.o)
 .text.fdt_get_name
                0x2fff4a3c       0x62 ./../build/optee-nor-stm32mp157d-ev1/lib/libfdt.a(fdt_ro.o)
                0x2fff4a3c                fdt_get_name
 .text.fdt_subnode_offset_namelen
                0x2fff4a9e       0x7a ./../build/optee-nor-stm32mp157d-ev1/lib/libfdt.a(fdt_ro.o)
                0x2fff4a9e                fdt_subnode_offset_namelen
 .text.fdt_subnode_offset
                0x2fff4b18       0x1e ./../build/optee-nor-stm32mp157d-ev1/lib/libfdt.a(fdt_ro.o)
                0x2fff4b18                fdt_subnode_offset
 .text.fdt_first_property_offset
                0x2fff4b36       0x18 ./../build/optee-nor-stm32mp157d-ev1/lib/libfdt.a(fdt_ro.o)
                0x2fff4b36                fdt_first_property_offset
 .text.fdt_next_property_offset
                0x2fff4b4e       0x18 ./../build/optee-nor-stm32mp157d-ev1/lib/libfdt.a(fdt_ro.o)
                0x2fff4b4e                fdt_next_property_offset
 .text.fdt_get_property_namelen_
                0x2fff4b66       0x7c ./../build/optee-nor-stm32mp157d-ev1/lib/libfdt.a(fdt_ro.o)
 .text.fdt_getprop_namelen
                0x2fff4be2       0x40 ./../build/optee-nor-stm32mp157d-ev1/lib/libfdt.a(fdt_ro.o)
                0x2fff4be2                fdt_getprop_namelen
 .text.fdt_getprop
                0x2fff4c22       0x22 ./../build/optee-nor-stm32mp157d-ev1/lib/libfdt.a(fdt_ro.o)
                0x2fff4c22                fdt_getprop
 .text.fdt_path_offset_namelen
                0x2fff4c44       0x94 ./../build/optee-nor-stm32mp157d-ev1/lib/libfdt.a(fdt_ro.o)
                0x2fff4c44                fdt_path_offset_namelen
 .text.fdt_path_offset
                0x2fff4cd8       0x1a ./../build/optee-nor-stm32mp157d-ev1/lib/libfdt.a(fdt_ro.o)
                0x2fff4cd8                fdt_path_offset
 .text.fdt_supernode_atdepth_offset
                0x2fff4cf2       0x6c ./../build/optee-nor-stm32mp157d-ev1/lib/libfdt.a(fdt_ro.o)
                0x2fff4cf2                fdt_supernode_atdepth_offset
 .text.fdt_node_depth
                0x2fff4d5e       0x20 ./../build/optee-nor-stm32mp157d-ev1/lib/libfdt.a(fdt_ro.o)
                0x2fff4d5e                fdt_node_depth
 .text.fdt_parent_offset
                0x2fff4d7e       0x20 ./../build/optee-nor-stm32mp157d-ev1/lib/libfdt.a(fdt_ro.o)
                0x2fff4d7e                fdt_parent_offset
 .text.fdt_node_offset_by_phandle
                0x2fff4d9e       0x42 ./../build/optee-nor-stm32mp157d-ev1/lib/libfdt.a(fdt_ro.o)
                0x2fff4d9e                fdt_node_offset_by_phandle
 .text.fdt_stringlist_contains
                0x2fff4de0       0x46 ./../build/optee-nor-stm32mp157d-ev1/lib/libfdt.a(fdt_ro.o)
                0x2fff4de0                fdt_stringlist_contains
 .text.fdt_stringlist_search
                0x2fff4e26       0x66 ./../build/optee-nor-stm32mp157d-ev1/lib/libfdt.a(fdt_ro.o)
                0x2fff4e26                fdt_stringlist_search
 .text.fdt_node_offset_by_compatible
                0x2fff4e8c       0x36 ./../build/optee-nor-stm32mp157d-ev1/lib/libfdt.a(fdt_ro.o)
                0x2fff4e8c                fdt_node_offset_by_compatible
 .text.memchr   0x2fff4ec2       0x1c ./../build/optee-nor-stm32mp157d-ev1/lib/libc.a(memchr.o)
                0x2fff4ec2                memchr
 .text.memcmp   0x2fff4ede       0x1c ./../build/optee-nor-stm32mp157d-ev1/lib/libc.a(memcmp.o)
                0x2fff4ede                memcmp
 .text.memcpy   0x2fff4efa       0x16 ./../build/optee-nor-stm32mp157d-ev1/lib/libc.a(memcpy.o)
                0x2fff4efa                memcpy
 .text.memmove  0x2fff4f10       0x2c ./../build/optee-nor-stm32mp157d-ev1/lib/libc.a(memmove.o)
                0x2fff4f10                memmove
 .text.memset   0x2fff4f3c       0x42 ./../build/optee-nor-stm32mp157d-ev1/lib/libc.a(memset.o)
                0x2fff4f3c                memset
 .text.unsigned_num_print.part.0
                0x2fff4f7e       0x92 ./../build/optee-nor-stm32mp157d-ev1/lib/libc.a(printf.o)
 .text.printf   0x2fff5010       0x1a ./../build/optee-nor-stm32mp157d-ev1/lib/libc.a(printf.o)
                0x2fff5010                printf
 .text.unsigned_num_print
                0x2fff502a       0xca ./../build/optee-nor-stm32mp157d-ev1/lib/libc.a(snprintf.o)
 .text.snprintf
                0x2fff50f4       0x1a ./../build/optee-nor-stm32mp157d-ev1/lib/libc.a(snprintf.o)
                0x2fff50f4                snprintf
 .text.strchr   0x2fff510e       0x16 ./../build/optee-nor-stm32mp157d-ev1/lib/libc.a(strchr.o)
                0x2fff510e                strchr
 .text.strcmp   0x2fff5124       0x18 ./../build/optee-nor-stm32mp157d-ev1/lib/libc.a(strcmp.o)
                0x2fff5124                strcmp
 .text.strlcpy  0x2fff513c       0x28 ./../build/optee-nor-stm32mp157d-ev1/lib/libc.a(strlcpy.o)
                0x2fff513c                strlcpy
 .text.strlen   0x2fff5164       0x10 ./../build/optee-nor-stm32mp157d-ev1/lib/libc.a(strlen.o)
                0x2fff5164                strlen
 .text.strncmp  0x2fff5174       0x28 ./../build/optee-nor-stm32mp157d-ev1/lib/libc.a(strncmp.o)
                0x2fff5174                strncmp
 .text.strnlen  0x2fff519c       0x14 ./../build/optee-nor-stm32mp157d-ev1/lib/libc.a(strnlen.o)
                0x2fff519c                strnlen
 .text.strrchr  0x2fff51b0       0x1a ./../build/optee-nor-stm32mp157d-ev1/lib/libc.a(strrchr.o)
                0x2fff51b0                strrchr
 *(SORT_BY_ALIGNMENT(.rodata*))
 *fill*         0x2fff51ca        0x6 
 .rodata.stm32mp1_mmap
                0x2fff51d0       0x48 ./../build/optee-nor-stm32mp157d-ev1/bl2/stm32mp1_private.o
 .rodata.fip_dev_funcs
                0x2fff5218       0x24 ./../build/optee-nor-stm32mp157d-ev1/bl2/io_fip.o
 .rodata.fip_dev_connector
                0x2fff523c        0x4 ./../build/optee-nor-stm32mp157d-ev1/bl2/io_fip.o
 .rodata.mtd_dev_funcs
                0x2fff5240       0x24 ./../build/optee-nor-stm32mp157d-ev1/bl2/io_mtd.o
 .rodata.mtd_dev_connector
                0x2fff5264        0x4 ./../build/optee-nor-stm32mp157d-ev1/bl2/io_mtd.o
 .rodata.stm32mp_clk_ops
                0x2fff5268       0x14 ./../build/optee-nor-stm32mp157d-ev1/bl2/stm32mp1_clk.o
 .rodata.stm32mp1_clk_pll
                0x2fff527c       0x80 ./../build/optee-nor-stm32mp157d-ev1/bl2/stm32mp1_clk.o
 .rodata.stm32mp1_clk_sel
                0x2fff52fc      0x108 ./../build/optee-nor-stm32mp157d-ev1/bl2/stm32mp1_clk.o
 .rodata        0x2fff5404       0x40 ./../build/optee-nor-stm32mp157d-ev1/bl2/stm32mp1_clk.o
 .rodata.ddr_registers
                0x2fff5444       0x60 ./../build/optee-nor-stm32mp157d-ev1/bl2/stm32mp1_ddr.o
 .rodata        0x2fff54a4       0x48 ./../build/optee-nor-stm32mp157d-ev1/bl2/stm32mp1_ram.o
 .rodata.i2c_specs
                0x2fff54ec       0x60 ./../build/optee-nor-stm32mp157d-ev1/bl2/stm32_i2c.o
 .rodata.stm32_tamp_nvram_nvmem_ops
                0x2fff554c        0x8 ./../build/optee-nor-stm32mp157d-ev1/bl2/stm32mp_tamp_nvram_core.o
 .rodata.stm32mp1_tamp_nvram
                0x2fff5554        0x8 ./../build/optee-nor-stm32mp157d-ev1/bl2/stm32mp_tamp_nvram_mp1.o
 .rodata.mp1_zone_cfg_fields
                0x2fff555c       0x18 ./../build/optee-nor-stm32mp157d-ev1/bl2/stm32mp_tamp_nvram_mp1.o
 .rodata.pmic_regs
                0x2fff5574      0x118 ./../build/optee-nor-stm32mp157d-ev1/bl2/stm32mp_pmic.o
 .rodata.pmic_ops
                0x2fff568c       0x20 ./../build/optee-nor-stm32mp157d-ev1/bl2/stm32mp_pmic.o
 .rodata.regulators_table
                0x2fff56ac      0x118 ./../build/optee-nor-stm32mp157d-ev1/bl2/stpmic1.o
 .rodata.stm32_qspi_bus_ops
                0x2fff57c4       0x1c ./../build/optee-nor-stm32mp157d-ev1/bl2/stm32_qspi.o
 .rodata.crc_table
                0x2fff57e0      0x400 ./../build/optee-nor-stm32mp157d-ev1/bl2/crc32.o
 .rodata.plat_prefix_str
                0x2fff5be0       0x14 ./../build/optee-nor-stm32mp157d-ev1/bl2/plat_log_common.o
 .rodata        0x2fff5bf4       0x20 ./../build/optee-nor-stm32mp157d-ev1/bl2/bl2_io_storage.o
 .rodata.load_info
                0x2fff5c14       0x38 ./../build/optee-nor-stm32mp157d-ev1/bl2/stm32mp_fconf_io.o
 .rodata        0x2fff5c4c       0x10 ./../build/optee-nor-stm32mp157d-ev1/bl2/bl2_plat_setup.o
 .rodata.CSWTCH.28
                0x2fff5c5c       0x10 ./../build/optee-nor-stm32mp157d-ev1/bl2/stm32mp1_private.o
 .rodata.CSWTCH.27
                0x2fff5c6c       0x10 ./../build/optee-nor-stm32mp157d-ev1/bl2/stm32mp1_private.o
 .rodata.stm32mp1_clk_gate
                0x2fff5c7c      0x1d8 ./../build/optee-nor-stm32mp157d-ev1/bl2/stm32mp1_clk.o
 .rodata.parent_mp15
                0x2fff5e54      0x108 ./../build/optee-nor-stm32mp157d-ev1/bl2/stm32mp1_clk.o
 .rodata.dividers_mp15
                0x2fff5f5c       0x96 ./../build/optee-nor-stm32mp157d-ev1/bl2/stm32mp1_clk.o
 .rodata.ddrphy_timing
                0x2fff5ff2       0x28 ./../build/optee-nor-stm32mp157d-ev1/bl2/stm32mp1_ddr.o
 .rodata.ddrphy_reg
                0x2fff601a       0x2c ./../build/optee-nor-stm32mp157d-ev1/bl2/stm32mp1_ddr.o
 .rodata.ddr_perf
                0x2fff6046       0x44 ./../build/optee-nor-stm32mp157d-ev1/bl2/stm32mp1_ddr.o
 .rodata.ddr_map
                0x2fff608a       0x24 ./../build/optee-nor-stm32mp157d-ev1/bl2/stm32mp1_ddr.o
 .rodata.ddr_timing
                0x2fff60ae       0x30 ./../build/optee-nor-stm32mp157d-ev1/bl2/stm32mp1_ddr.o
 .rodata.ddr_reg
                0x2fff60de       0x64 ./../build/optee-nor-stm32mp157d-ev1/bl2/stm32mp1_ddr.o
 .rodata.fixed_5v_voltage_table
                0x2fff6142        0x2 ./../build/optee-nor-stm32mp157d-ev1/bl2/stpmic1.o
 .rodata.vref_ddr_voltage_table
                0x2fff6144        0x2 ./../build/optee-nor-stm32mp157d-ev1/bl2/stpmic1.o
 .rodata.ldo4_voltage_table
                0x2fff6146        0x2 ./../build/optee-nor-stm32mp157d-ev1/bl2/stpmic1.o
 .rodata.ldo6_voltage_table
                0x2fff6148       0x32 ./../build/optee-nor-stm32mp157d-ev1/bl2/stpmic1.o
 .rodata.ldo5_voltage_table
                0x2fff617a       0x3e ./../build/optee-nor-stm32mp157d-ev1/bl2/stpmic1.o
 .rodata.ldo3_special_mode_table
                0x2fff61b8        0x2 ./../build/optee-nor-stm32mp157d-ev1/bl2/stpmic1.o
 .rodata.ldo3_voltage_table
                0x2fff61ba       0x3e ./../build/optee-nor-stm32mp157d-ev1/bl2/stpmic1.o
 .rodata.ldo2_voltage_table
                0x2fff61f8       0x32 ./../build/optee-nor-stm32mp157d-ev1/bl2/stpmic1.o
 .rodata.ldo1_voltage_table
                0x2fff622a       0x32 ./../build/optee-nor-stm32mp157d-ev1/bl2/stpmic1.o
 .rodata.buck4_voltage_table
                0x2fff625c       0x7a ./../build/optee-nor-stm32mp157d-ev1/bl2/stpmic1.o
 .rodata.buck3_voltage_table
                0x2fff62d6       0x70 ./../build/optee-nor-stm32mp157d-ev1/bl2/stpmic1.o
 .rodata.buck2_voltage_table
                0x2fff6346       0x4a ./../build/optee-nor-stm32mp157d-ev1/bl2/stpmic1.o
 .rodata.buck1_voltage_table
                0x2fff6390       0x80 ./../build/optee-nor-stm32mp157d-ev1/bl2/stpmic1.o
 .rodata.version_string
                0x2fff6410       0x35 ./../build/optee-nor-stm32mp157d-ev1/bl2/build_message.o
                0x2fff6410                version_string
 .rodata.build_message
                0x2fff6445       0x1e ./../build/optee-nor-stm32mp157d-ev1/bl2/build_message.o
                0x2fff6445                build_message
 .rodata.bl2_load_images.str1.1
                0x2fff6463     0x2aaf ./../build/optee-nor-stm32mp157d-ev1/bl2/bl2_image_load_v2.o
                                0x11a (size before relaxing)
 .rodata.bl2_main.str1.1
                0x2fff8f12       0x1e ./../build/optee-nor-stm32mp157d-ev1/bl2/bl2_main.o
 .rodata.load_auth_image.str1.1
                0x2fff8f12      0x12d ./../build/optee-nor-stm32mp157d-ev1/bl2/bl_common.o
 .rodata.print_entry_point_info.str1.1
                0x2fff8f12       0x2c ./../build/optee-nor-stm32mp157d-ev1/bl2/bl_common.o
 .rodata.flush_bl_params_desc_args.str1.1
                0x2fff8f12       0x19 ./../build/optee-nor-stm32mp157d-ev1/bl2/desc_image_load.o
 .rodata.CSWTCH.28
                0x2fff8f12        0x3 ./../build/optee-nor-stm32mp157d-ev1/bl2/desc_image_load.o
 .rodata.fdt_read_uint32_array.str1.1
                0x2fff8f15       0x31 ./../build/optee-nor-stm32mp157d-ev1/bl2/fdt_wrappers.o
 .rodata.fdtw_read_bytes.str1.1
                0x2fff8f15       0x23 ./../build/optee-nor-stm32mp157d-ev1/bl2/fdt_wrappers.o
 .rodata.fdtw_read_string.str1.1
                0x2fff8f15       0x32 ./../build/optee-nor-stm32mp157d-ev1/bl2/fdt_wrappers.o
 .rodata.fdt_get_reg_props_by_index.str1.1
                0x2fff8f15       0x2a ./../build/optee-nor-stm32mp157d-ev1/bl2/fdt_wrappers.o
 .rodata.fdt_get_reg_props_by_name.str1.1
                0x2fff8f15        0xa ./../build/optee-nor-stm32mp157d-ev1/bl2/fdt_wrappers.o
 .rodata.fdt_get_stdout_node_offset.str1.1
                0x2fff8f15       0x23 ./../build/optee-nor-stm32mp157d-ev1/bl2/fdt_wrappers.o
 .rodata.tf_log.str1.1
                0x2fff8f15       0x10 ./../build/optee-nor-stm32mp157d-ev1/bl2/tf_log.o
 .rodata.read_uuid.str1.1
                0x2fff8f15       0x30 ./../build/optee-nor-stm32mp157d-ev1/bl2/uuid.o
 .rodata.tzc400_set_action.str1.1
                0x2fff8f15       0x19 ./../build/optee-nor-stm32mp157d-ev1/bl2/tzc400.o
 .rodata.tzc400_init.str1.1
                0x2fff8f15       0x24 ./../build/optee-nor-stm32mp157d-ev1/bl2/tzc400.o
 .rodata.tzc400_enable_filters.str1.1
                0x2fff8f15       0x32 ./../build/optee-nor-stm32mp157d-ev1/bl2/tzc400.o
 .rodata.clk_enable.str1.1
                0x2fff8f15       0x12 ./../build/optee-nor-stm32mp157d-ev1/bl2/clk.o
 .rodata.console_unregister.str1.1
                0x2fff8f15       0x20 ./../build/optee-nor-stm32mp157d-ev1/bl2/multi_console.o
 .rodata.udelay.str1.1
                0x2fff8f15       0x22 ./../build/optee-nor-stm32mp157d-ev1/bl2/delay_timer.o
 .rodata.generic_delay_timer_init.str1.1
                0x2fff8f15       0x2a ./../build/optee-nor-stm32mp157d-ev1/bl2/generic_delay_timer.o
 .rodata.fwu_metadata_load.str1.1
                0x2fff8f15      0x261 ./../build/optee-nor-stm32mp157d-ev1/bl2/fwu.o
 .rodata.fwu_get_active_bank_state.str1.1
                0x2fff8f15       0x12 ./../build/optee-nor-stm32mp157d-ev1/bl2/fwu.o
 .rodata.fwu_init.str1.1
                0x2fff8f15       0x60 ./../build/optee-nor-stm32mp157d-ev1/bl2/fwu.o
 .rodata.fip_dev_init.str1.1
                0x2fff8f15       0x97 ./../build/optee-nor-stm32mp157d-ev1/bl2/io_fip.o
 .rodata.fip_file_read.str1.1
                0x2fff8f15       0x58 ./../build/optee-nor-stm32mp157d-ev1/bl2/io_fip.o
 .rodata.fip_file_open.str1.1
                0x2fff8f15       0x97 ./../build/optee-nor-stm32mp157d-ev1/bl2/io_fip.o
 .rodata.uuid_null.0
                0x2fff8f15       0x10 ./../build/optee-nor-stm32mp157d-ev1/bl2/io_fip.o
 .rodata.mtd_read.str1.1
                0x2fff8f25       0x14 ./../build/optee-nor-stm32mp157d-ev1/bl2/io_mtd.o
 .rodata.mtd_add_extra_offset.constprop.0.str1.1
                0x2fff8f25       0x14 ./../build/optee-nor-stm32mp157d-ev1/bl2/io_mtd.o
 .rodata.__func__.0
                0x2fff8f25       0x15 ./../build/optee-nor-stm32mp157d-ev1/bl2/io_mtd.o
 .rodata.free_entity.isra.0.str1.1
                0x2fff8f3a       0x18 ./../build/optee-nor-stm32mp157d-ev1/bl2/io_storage.o
 .rodata.spi_nor_init.str1.1
                0x2fff8f3a      0x157 ./../build/optee-nor-stm32mp157d-ev1/bl2/spi_nor.o
 .rodata.__func__.0
                0x2fff8f3a        0xd ./../build/optee-nor-stm32mp157d-ev1/bl2/spi_nor.o
 .rodata.spi_mem_exec_op.str1.1
                0x2fff8f47       0x2d ./../build/optee-nor-stm32mp157d-ev1/bl2/spi_mem.o
 .rodata.spi_mem_init_slave.str1.1
                0x2fff8f47      0x104 ./../build/optee-nor-stm32mp157d-ev1/bl2/spi_mem.o
 .rodata.is_otp_invalid_mode.str1.1
                0x2fff8f47       0x1a ./../build/optee-nor-stm32mp157d-ev1/bl2/bsec2.o
 .rodata.otp_bank_offset.str1.1
                0x2fff8f47       0x18 ./../build/optee-nor-stm32mp157d-ev1/bl2/bsec2.o
 .rodata.bsec_write_otp.str1.1
                0x2fff8f47       0x2a ./../build/optee-nor-stm32mp157d-ev1/bl2/bsec2.o
 .rodata.bsec_program_otp.str1.1
                0x2fff8f47       0xa8 ./../build/optee-nor-stm32mp157d-ev1/bl2/bsec2.o
 .rodata.bsec_shadow_read_otp.str1.1
                0x2fff8f47       0x60 ./../build/optee-nor-stm32mp157d-ev1/bl2/bsec2.o
 .rodata.stm32mp1_clk_get_gated_id.str1.1
                0x2fff8f47       0x1b ./../build/optee-nor-stm32mp157d-ev1/bl2/stm32mp1_clk.o
 .rodata.stm32mp_clk_disable.str1.1
                0x2fff8f47       0x3d ./../build/optee-nor-stm32mp157d-ev1/bl2/stm32mp1_clk.o
 .rodata.stm32mp_clk_enable.str1.1
                0x2fff8f47       0x44 ./../build/optee-nor-stm32mp157d-ev1/bl2/stm32mp1_clk.o
 .rodata.stm32mp1_osc_wait.isra.0.str1.1
                0x2fff8f47       0x2c ./../build/optee-nor-stm32mp157d-ev1/bl2/stm32mp1_clk.o
 .rodata.stm32mp1_clk_init.str1.1
                0x2fff8f47       0x45 ./../build/optee-nor-stm32mp157d-ev1/bl2/stm32mp1_clk.o
 .rodata.stm32mp1_clk_probe.str1.1
                0x2fff8f47       0x62 ./../build/optee-nor-stm32mp157d-ev1/bl2/stm32mp1_clk.o
 .rodata.__func__.0
                0x2fff8f47       0x1a ./../build/optee-nor-stm32mp157d-ev1/bl2/stm32mp1_clk.o
 .rodata.stm32mp1_axi_div
                0x2fff8f61        0x8 ./../build/optee-nor-stm32mp157d-ev1/bl2/stm32mp1_clk.o
 .rodata.stm32mp1_mpu_apbx_div
                0x2fff8f69        0x8 ./../build/optee-nor-stm32mp157d-ev1/bl2/stm32mp1_clk.o
 .rodata.stm32mp1_mcu_div
                0x2fff8f71       0x10 ./../build/optee-nor-stm32mp157d-ev1/bl2/stm32mp1_clk.o
 .rodata.pllncfgr2
                0x2fff8f81        0x3 ./../build/optee-nor-stm32mp157d-ev1/bl2/stm32mp1_clk.o
 .rodata.stm32mp1_pll
                0x2fff8f84        0x4 ./../build/optee-nor-stm32mp157d-ev1/bl2/stm32mp1_clk.o
 .rodata.rtc_parents
                0x2fff8f88        0x4 ./../build/optee-nor-stm32mp157d-ev1/bl2/stm32mp1_clk.o
 .rodata.per_parents
                0x2fff8f8c        0x3 ./../build/optee-nor-stm32mp157d-ev1/bl2/stm32mp1_clk.o
 .rodata.mpu_parents
                0x2fff8f8f        0x4 ./../build/optee-nor-stm32mp157d-ev1/bl2/stm32mp1_clk.o
 .rodata.usbo_parents
                0x2fff8f93        0x2 ./../build/optee-nor-stm32mp157d-ev1/bl2/stm32mp1_clk.o
 .rodata.usbphy_parents
                0x2fff8f95        0x3 ./../build/optee-nor-stm32mp157d-ev1/bl2/stm32mp1_clk.o
 .rodata.mcuss_parents
                0x2fff8f98        0x4 ./../build/optee-nor-stm32mp157d-ev1/bl2/stm32mp1_clk.o
 .rodata.axiss_parents
                0x2fff8f9c        0x3 ./../build/optee-nor-stm32mp157d-ev1/bl2/stm32mp1_clk.o
 .rodata.fmc_parents
                0x2fff8f9f        0x4 ./../build/optee-nor-stm32mp157d-ev1/bl2/stm32mp1_clk.o
 .rodata.qspi_parents
                0x2fff8fa3        0x4 ./../build/optee-nor-stm32mp157d-ev1/bl2/stm32mp1_clk.o
 .rodata.sdmmc3_parents
                0x2fff8fa7        0x4 ./../build/optee-nor-stm32mp157d-ev1/bl2/stm32mp1_clk.o
 .rodata.sdmmc12_parents
                0x2fff8fab        0x4 ./../build/optee-nor-stm32mp157d-ev1/bl2/stm32mp1_clk.o
 .rodata.uart234578_parents
                0x2fff8faf        0x5 ./../build/optee-nor-stm32mp157d-ev1/bl2/stm32mp1_clk.o
 .rodata.uart6_parents
                0x2fff8fb4        0x5 ./../build/optee-nor-stm32mp157d-ev1/bl2/stm32mp1_clk.o
 .rodata.rng1_parents
                0x2fff8fb9        0x4 ./../build/optee-nor-stm32mp157d-ev1/bl2/stm32mp1_clk.o
 .rodata.usart1_parents
                0x2fff8fbd        0x6 ./../build/optee-nor-stm32mp157d-ev1/bl2/stm32mp1_clk.o
 .rodata.spi6_parents
                0x2fff8fc3        0x6 ./../build/optee-nor-stm32mp157d-ev1/bl2/stm32mp1_clk.o
 .rodata.i2c46_parents
                0x2fff8fc9        0x4 ./../build/optee-nor-stm32mp157d-ev1/bl2/stm32mp1_clk.o
 .rodata.stgen_parents
                0x2fff8fcd        0x2 ./../build/optee-nor-stm32mp157d-ev1/bl2/stm32mp1_clk.o
 .rodata.i2c35_parents
                0x2fff8fcf        0x4 ./../build/optee-nor-stm32mp157d-ev1/bl2/stm32mp1_clk.o
 .rodata.i2c12_parents
                0x2fff8fd3        0x4 ./../build/optee-nor-stm32mp157d-ev1/bl2/stm32mp1_clk.o
 .rodata.parent_id_clock_id
                0x2fff8fd7       0x23 ./../build/optee-nor-stm32mp157d-ev1/bl2/stm32mp1_clk.o
 .rodata.str1.1
                0x2fff8ffa       0x31 ./../build/optee-nor-stm32mp157d-ev1/bl2/stm32mp1_clk.o
 .rodata.fdt_osc_read_freq.str1.1
                0x2fff8ffa       0x18 ./../build/optee-nor-stm32mp157d-ev1/bl2/stm32mp_clkfunc.o
 .rodata.fdt_get_clock_id.str1.1
                0x2fff8ffa        0x7 ./../build/optee-nor-stm32mp157d-ev1/bl2/stm32mp_clkfunc.o
 .rodata.stm32mp1_ddr_init.str1.1
                0x2fff8ffa       0x31 ./../build/optee-nor-stm32mp157d-ev1/bl2/stm32mp1_ddr.o
 .rodata.str1.1
                0x2fff8ffa       0x17 ./../build/optee-nor-stm32mp157d-ev1/bl2/stm32mp1_ddr.o
 .rodata.ddr_set_sr_mode.str1.1
                0x2fff8ffa       0x1c ./../build/optee-nor-stm32mp157d-ev1/bl2/stm32mp1_ddr_helpers.o
 .rodata.CSWTCH.37
                0x2fff8ffa        0xa ./../build/optee-nor-stm32mp157d-ev1/bl2/stm32mp1_ddr_helpers.o
 .rodata.stm32mp1_ddr_setup.str1.1
                0x2fff9004      0x10f ./../build/optee-nor-stm32mp157d-ev1/bl2/stm32mp1_ram.o
 .rodata.stm32mp1_ddr_clk_enable.str1.1
                0x2fff9004       0x2f ./../build/optee-nor-stm32mp157d-ev1/bl2/stm32mp1_ram.o
 .rodata.__func__.0
                0x2fff9004       0x13 ./../build/optee-nor-stm32mp157d-ev1/bl2/stm32mp1_ram.o
 .rodata.str1.1
                0x2fff9017       0x49 ./../build/optee-nor-stm32mp157d-ev1/bl2/stm32mp1_ram.o
 .rodata.stm32mp_ddr_set_reg.str1.1
                0x2fff9017       0x1b ./../build/optee-nor-stm32mp157d-ev1/bl2/stm32mp_ddr.o
 .rodata.stm32mp_ddr_dt_get_info.str1.1
                0x2fff9017       0x23 ./../build/optee-nor-stm32mp157d-ev1/bl2/stm32mp_ram.o
 .rodata.stm32mp_ddr_dt_get_param.str1.1
                0x2fff9017       0x1f ./../build/optee-nor-stm32mp157d-ev1/bl2/stm32mp_ram.o
 .rodata.__func__.0
                0x2fff9017       0x19 ./../build/optee-nor-stm32mp157d-ev1/bl2/stm32mp_ram.o
 .rodata.set_gpio.isra.0.str1.1
                0x2fff9030       0x1d ./../build/optee-nor-stm32mp157d-ev1/bl2/stm32_gpio.o
 .rodata.dt_set_pinctrl_config.str1.1
                0x2fff9030       0x90 ./../build/optee-nor-stm32mp157d-ev1/bl2/stm32_gpio.o
 .rodata.stm32_i2c_get_setup_from_fdt.str1.1
                0x2fff9030       0x5d ./../build/optee-nor-stm32mp157d-ev1/bl2/stm32_i2c.o
 .rodata.stm32_i2c_init.str1.1
                0x2fff9030      0x146 ./../build/optee-nor-stm32mp157d-ev1/bl2/stm32_i2c.o
 .rodata.fdt_get_clk_by_name.str1.1
                0x2fff9030       0x13 ./../build/optee-nor-stm32mp157d-ev1/bl2/stm32_iwdg.o
 .rodata.stm32_iwdg_init.str1.1
                0x2fff9030       0x71 ./../build/optee-nor-stm32mp157d-ev1/bl2/stm32_iwdg.o
 .rodata.nvmem_driver_register.str1.1
                0x2fff9030       0x4a ./../build/optee-nor-stm32mp157d-ev1/bl2/nvmem.o
 .rodata.nvmem_get_cell_by_index.str1.1
                0x2fff9030       0x3f ./../build/optee-nor-stm32mp157d-ev1/bl2/nvmem.o
 .rodata.nvmem_get_cell_by_name.str1.1
                0x2fff9030       0x11 ./../build/optee-nor-stm32mp157d-ev1/bl2/nvmem.o
 .rodata.__func__.0
                0x2fff9030       0x12 ./../build/optee-nor-stm32mp157d-ev1/bl2/nvmem.o
 .rodata.stm32_tamp_nvram_write_bkp.str1.1
                0x2fff9042       0x27 ./../build/optee-nor-stm32mp157d-ev1/bl2/stm32mp_tamp_nvram_core.o
 .rodata.stm32_tamp_nvram_read_cell.str1.1
                0x2fff9042       0x19 ./../build/optee-nor-stm32mp157d-ev1/bl2/stm32mp_tamp_nvram_core.o
 .rodata.stm32_tamp_nvram_update_rights.str1.1
                0x2fff9042       0x86 ./../build/optee-nor-stm32mp157d-ev1/bl2/stm32mp_tamp_nvram_core.o
 .rodata.stm32_tamp_nvram_init.str1.1
                0x2fff9042       0x1c ./../build/optee-nor-stm32mp157d-ev1/bl2/stm32mp_tamp_nvram_core.o
 .rodata.dt_get_pmic_node.str1.1
                0x2fff9042        0xb ./../build/optee-nor-stm32mp157d-ev1/bl2/stm32mp_pmic.o
 .rodata.handle_pmic_property.str1.1
                0x2fff9042       0x10 ./../build/optee-nor-stm32mp157d-ev1/bl2/stm32mp_pmic.o
 .rodata.initialize_pmic_i2c.str1.1
                0x2fff9042       0x59 ./../build/optee-nor-stm32mp157d-ev1/bl2/stm32mp_pmic.o
 .rodata.initialize_pmic.str1.1
                0x2fff9042       0x83 ./../build/optee-nor-stm32mp157d-ev1/bl2/stm32mp_pmic.o
 .rodata.print_pmic_info_and_debug.str1.1
                0x2fff9042       0x31 ./../build/optee-nor-stm32mp157d-ev1/bl2/stm32mp_pmic.o
 .rodata.__func__.0
                0x2fff9042        0xe ./../build/optee-nor-stm32mp157d-ev1/bl2/stm32mp_pmic.o
 .rodata.str1.1
                0x2fff9050       0x55 ./../build/optee-nor-stm32mp157d-ev1/bl2/stm32mp_pmic.o
 .rodata.stpmic1_regulator_levels_mv.str1.1
                0x2fff9050        0x5 ./../build/optee-nor-stm32mp157d-ev1/bl2/stpmic1.o
 .rodata.stpmic1_regulator_voltage_get.str1.1
                0x2fff9050        0xe ./../build/optee-nor-stm32mp157d-ev1/bl2/stpmic1.o
 .rodata.stpmic1_active_discharge_mode_set.str1.1
                0x2fff9050       0x10 ./../build/optee-nor-stm32mp157d-ev1/bl2/stpmic1.o
 .rodata.str1.1
                0x2fff9050       0x3b ./../build/optee-nor-stm32mp157d-ev1/bl2/stpmic1.o
 .rodata.regulator_get_by_name.str1.1
                0x2fff9050       0x39 ./../build/optee-nor-stm32mp157d-ev1/bl2/regulator_core.o
 .rodata.regulator_get_by_supply_name.str1.1
                0x2fff9050       0x25 ./../build/optee-nor-stm32mp157d-ev1/bl2/regulator_core.o
 .rodata.regulator_get_voltage.str1.1
                0x2fff9050       0x26 ./../build/optee-nor-stm32mp157d-ev1/bl2/regulator_core.o
 .rodata.regulator_set_voltage.str1.1
                0x2fff9050       0x23 ./../build/optee-nor-stm32mp157d-ev1/bl2/regulator_core.o
 .rodata.regulator_list_voltages.str1.1
                0x2fff9050       0x98 ./../build/optee-nor-stm32mp157d-ev1/bl2/regulator_core.o
 .rodata.regulator_register.str1.1
                0x2fff9050      0x101 ./../build/optee-nor-stm32mp157d-ev1/bl2/regulator_core.o
 .rodata.__func__.0
                0x2fff9050       0x19 ./../build/optee-nor-stm32mp157d-ev1/bl2/regulator_core.o
 .rodata.fixed_regulator_register.str1.1
                0x2fff9069       0x58 ./../build/optee-nor-stm32mp157d-ev1/bl2/regulator_fixed.o
 .rodata.__func__.0
                0x2fff9069       0x19 ./../build/optee-nor-stm32mp157d-ev1/bl2/regulator_fixed.o
 .rodata.stm32_qspi_wait_for_not_busy.str1.1
                0x2fff9082       0x13 ./../build/optee-nor-stm32mp157d-ev1/bl2/stm32_qspi.o
 .rodata.stm32_qspi_exec_op.str1.1
                0x2fff9082       0x4e ./../build/optee-nor-stm32mp157d-ev1/bl2/stm32_qspi.o
 .rodata.stm32_qspi_init.str1.1
                0x2fff9082       0x34 ./../build/optee-nor-stm32mp157d-ev1/bl2/stm32_qspi.o
 .rodata.__func__.0
                0x2fff9082       0x1d ./../build/optee-nor-stm32mp157d-ev1/bl2/stm32_qspi.o
 .rodata.__func__.1
                0x2fff909f       0x14 ./../build/optee-nor-stm32mp157d-ev1/bl2/stm32_qspi.o
 .rodata.__func__.2
                0x2fff90b3       0x10 ./../build/optee-nor-stm32mp157d-ev1/bl2/stm32_qspi.o
 .rodata.__func__.3
                0x2fff90c3       0x13 ./../build/optee-nor-stm32mp157d-ev1/bl2/stm32_qspi.o
 .rodata.fconf_load_config.str1.1
                0x2fff90d6       0x52 ./../build/optee-nor-stm32mp157d-ev1/bl2/fconf.o
 .rodata.fconf_populate.str1.1
                0x2fff90d6       0xa0 ./../build/optee-nor-stm32mp157d-ev1/bl2/fconf.o
 .rodata.set_config_info.str1.1
                0x2fff90d6       0x3e ./../build/optee-nor-stm32mp157d-ev1/bl2/fconf_dyn_cfg_getter.o
 .rodata.fconf_populate_dtb_registry.str1.1
                0x2fff90d6       0xd1 ./../build/optee-nor-stm32mp157d-ev1/bl2/fconf_dyn_cfg_getter.o
 .rodata.dyn_cfg_dtb_info_getter.str1.1
                0x2fff90d6       0x1e ./../build/optee-nor-stm32mp157d-ev1/bl2/fconf_dyn_cfg_getter.o
 .rodata.str1.1
                0x2fff90d6       0x12 ./../build/optee-nor-stm32mp157d-ev1/bl2/fconf_dyn_cfg_getter.o
 .rodata.parse_optee_image.str1.1
                0x2fff90d6       0x4d ./../build/optee-nor-stm32mp157d-ev1/bl2/optee_utils.o
 .rodata.parse_optee_header.str1.1
                0x2fff90d6      0x125 ./../build/optee-nor-stm32mp157d-ev1/bl2/optee_utils.o
 .rodata.xlat_arch_regime_get_xn_desc.str1.1
                0x2fff90d6       0x2e ./../build/optee-nor-stm32mp157d-ev1/bl2/xlat_tables_arch.o
 .rodata.mmap_add_alloc_va.str1.1
                0x2fff90d6       0x29 ./../build/optee-nor-stm32mp157d-ev1/bl2/xlat_tables_context.o
 .rodata.xlat_table_get_index.str1.1
                0x2fff90d6       0x26 ./../build/optee-nor-stm32mp157d-ev1/bl2/xlat_tables_core.o
 .rodata.mmap_add_region_ctx.str1.1
                0x2fff90d6       0x2b ./../build/optee-nor-stm32mp157d-ev1/bl2/xlat_tables_core.o
 .rodata.init_xlat_tables_ctx.str1.1
                0x2fff90d6       0x4f ./../build/optee-nor-stm32mp157d-ev1/bl2/xlat_tables_core.o
 .rodata.str1.1
                0x2fff90d6       0x32 ./../build/optee-nor-stm32mp157d-ev1/bl2/plat_log_common.o
 .rodata.stm32mp_io_setup.str1.1
                0x2fff90d6       0xf3 ./../build/optee-nor-stm32mp157d-ev1/bl2/bl2_io_storage.o
 .rodata.bl2_plat_handle_pre_image_load.str1.1
                0x2fff90d6       0x10 ./../build/optee-nor-stm32mp157d-ev1/bl2/bl2_io_storage.o
 .rodata.plat_fwu_get_boot_idx.str1.1
                0x2fff90d6       0xba ./../build/optee-nor-stm32mp157d-ev1/bl2/bl2_io_storage.o
 .rodata.plat_fwu_set_images_source.str1.1
                0x2fff90d6       0x5e ./../build/optee-nor-stm32mp157d-ev1/bl2/bl2_io_storage.o
 .rodata.__func__.1
                0x2fff90d6       0x16 ./../build/optee-nor-stm32mp157d-ev1/bl2/bl2_io_storage.o
 .rodata.stm32_get_bootinfo_cell.str1.1
                0x2fff90ec       0x14 ./../build/optee-nor-stm32mp157d-ev1/bl2/stm32mp_common.o
 .rodata.stm32_get_otp_index.str1.1
                0x2fff90ec       0x20 ./../build/optee-nor-stm32mp157d-ev1/bl2/stm32mp_common.o
 .rodata.stm32_get_otp_value_from_idx.str1.1
                0x2fff90ec       0x1a ./../build/optee-nor-stm32mp157d-ev1/bl2/stm32mp_common.o
 .rodata.stm32_get_otp_value.str1.1
                0x2fff90ec       0x16 ./../build/optee-nor-stm32mp157d-ev1/bl2/stm32mp_common.o
 .rodata.stm32_display_board_info.str1.1
                0x2fff90ec       0x25 ./../build/optee-nor-stm32mp157d-ev1/bl2/stm32mp_common.o
 .rodata.stm32_get_magic_number_cell.str1.1
                0x2fff90ec        0xd ./../build/optee-nor-stm32mp157d-ev1/bl2/stm32mp_common.o
 .rodata.stm32_get_core1_branch_address_cell.str1.1
                0x2fff90ec       0x15 ./../build/optee-nor-stm32mp157d-ev1/bl2/stm32mp_common.o
 .rodata.stm32_get_fwu_info_cell.str1.1
                0x2fff90ec        0x9 ./../build/optee-nor-stm32mp157d-ev1/bl2/stm32mp_common.o
 .rodata.stm32_get_boot_mode_cell.str1.1
                0x2fff90ec        0xa ./../build/optee-nor-stm32mp157d-ev1/bl2/stm32mp_common.o
 .rodata.fdt_get_status.str1.1
                0x2fff90ec       0x1a ./../build/optee-nor-stm32mp157d-ev1/bl2/stm32mp_dt.o
 .rodata.dt_fill_device_info.str1.1
                0x2fff90ec       0x2e ./../build/optee-nor-stm32mp157d-ev1/bl2/stm32mp_dt.o
 .rodata.dt_get_ddr_size.str1.1
                0x2fff90ec       0x3d ./../build/optee-nor-stm32mp157d-ev1/bl2/stm32mp_dt.o
 .rodata.dt_get_vdd_regulator.str1.1
                0x2fff90ec       0x18 ./../build/optee-nor-stm32mp157d-ev1/bl2/stm32mp_dt.o
 .rodata.dt_get_board_model.str1.1
                0x2fff90ec        0x8 ./../build/optee-nor-stm32mp157d-ev1/bl2/stm32mp_dt.o
 .rodata.dt_find_otp_name.str1.1
                0x2fff90ec       0x76 ./../build/optee-nor-stm32mp157d-ev1/bl2/stm32mp_dt.o
 .rodata.__func__.0
                0x2fff90ec       0x10 ./../build/optee-nor-stm32mp157d-ev1/bl2/stm32mp_dt.o
 .rodata.fconf_populate_stm32mp_fuse_provisioning.str1.1
                0x2fff90fc       0x8b ./../build/optee-nor-stm32mp157d-ev1/bl2/stm32mp_fconf_fuse.o
 .rodata.str1.1
                0x2fff90fc       0x13 ./../build/optee-nor-stm32mp157d-ev1/bl2/stm32mp_fconf_fuse.o
 .rodata.fconf_populate_stm32mp_io_policies.str1.1
                0x2fff90fc       0x99 ./../build/optee-nor-stm32mp157d-ev1/bl2/stm32mp_fconf_io.o
 .rodata.str1.1
                0x2fff90fc       0x6f ./../build/optee-nor-stm32mp157d-ev1/bl2/stm32mp_fconf_io.o
 .rodata.bl2_platform_setup.str1.1
                0x2fff90fc       0x35 ./../build/optee-nor-stm32mp157d-ev1/bl2/bl2_plat_setup.o
 .rodata.bl2_el3_plat_arch_setup.str1.1
                0x2fff90fc      0x3c5 ./../build/optee-nor-stm32mp157d-ev1/bl2/bl2_plat_setup.o
 .rodata.bl2_plat_handle_post_image_load.str1.1
                0x2fff90fc       0x26 ./../build/optee-nor-stm32mp157d-ev1/bl2/bl2_plat_setup.o
 .rodata.debug_msg
                0x2fff90fc      0x1d5 ./../build/optee-nor-stm32mp157d-ev1/bl2/bl2_plat_setup.o
 .rodata.stm32mp_board_ddr_power_init.str1.1
                0x2fff92d1       0x4d ./../build/optee-nor-stm32mp157d-ev1/bl2/plat_ddr.o
 .rodata.__func__.0
                0x2fff92d1       0x14 ./../build/optee-nor-stm32mp157d-ev1/bl2/plat_ddr.o
 .rodata.stm32_pm_get_optee_ep.str1.1
                0x2fff92e5       0x18 ./../build/optee-nor-stm32mp157d-ev1/bl2/stm32mp1_context.o
 .rodata.stm32_pm_context_is_valid.str1.1
                0x2fff92e5       0x33 ./../build/optee-nor-stm32mp157d-ev1/bl2/stm32mp1_context.o
 .rodata.stm32_pwr_down_wfi_load.str1.1
                0x2fff92e5       0x3a ./../build/optee-nor-stm32mp157d-ev1/bl2/stm32mp1_critic_power.o
 .rodata.stm32mp1_dbgmcu_init.str1.1
                0x2fff92e5       0x36 ./../build/optee-nor-stm32mp157d-ev1/bl2/stm32mp1_dbgmcu.o
 .rodata.stm32mp1_dbgmcu_get_chip_version.str1.1
                0x2fff92e5       0x23 ./../build/optee-nor-stm32mp157d-ev1/bl2/stm32mp1_dbgmcu.o
 .rodata.fconf_populate_stm32mp1_firewall.str1.1
                0x2fff92e5       0x68 ./../build/optee-nor-stm32mp157d-ev1/bl2/stm32mp1_fconf_firewall.o
 .rodata.stm32mp1_security_setup.str1.1
                0x2fff92e5       0x2b ./../build/optee-nor-stm32mp157d-ev1/bl2/stm32mp1_fconf_firewall.o
 .rodata.str1.1
                0x2fff92e5       0x1c ./../build/optee-nor-stm32mp157d-ev1/bl2/stm32mp1_fconf_firewall.o
 .rodata.stm32_get_gpio_bank_base.str1.1
                0x2fff92e5       0x24 ./../build/optee-nor-stm32mp157d-ev1/bl2/stm32mp1_private.o
 .rodata.stm32mp_get_chip_version.str1.1
                0x2fff92e5       0x29 ./../build/optee-nor-stm32mp157d-ev1/bl2/stm32mp1_private.o
 .rodata.stm32mp_get_chip_dev_id.str1.1
                0x2fff92e5       0x26 ./../build/optee-nor-stm32mp157d-ev1/bl2/stm32mp1_private.o
 .rodata.stm32mp_get_part_number.str1.1
                0x2fff92e5       0x10 ./../build/optee-nor-stm32mp157d-ev1/bl2/stm32mp1_private.o
 .rodata.stm32mp_get_soc_name.str1.1
                0x2fff92e5       0x65 ./../build/optee-nor-stm32mp157d-ev1/bl2/stm32mp1_private.o
 .rodata.stm32mp_print_cpuinfo.str1.1
                0x2fff92e5        0xa ./../build/optee-nor-stm32mp157d-ev1/bl2/stm32mp1_private.o
 .rodata.stm32mp_print_boardinfo.str1.1
                0x2fff92e5        0x9 ./../build/optee-nor-stm32mp157d-ev1/bl2/stm32mp1_private.o
 .rodata.stm32mp_check_closed_device.str1.1
                0x2fff92e5        0x9 ./../build/optee-nor-stm32mp157d-ev1/bl2/stm32mp1_private.o
 .rodata.stm32_iwdg_get_otp_config.str1.1
                0x2fff92e5        0x8 ./../build/optee-nor-stm32mp157d-ev1/bl2/stm32mp1_private.o
 .rodata.str1.1
                0x2fff92e5       0x12 ./../build/optee-nor-stm32mp157d-ev1/bl2/stm32mp1_private.o
 .rodata.stm32mp_syscfg_init.str1.1
                0x2fff92e5       0x97 ./../build/optee-nor-stm32mp157d-ev1/bl2/stm32mp1_syscfg.o
 .rodata.stm32mp_syscfg_enable_io_compensation_finish.str1.1
                0x2fff92e5       0x21 ./../build/optee-nor-stm32mp157d-ev1/bl2/stm32mp1_syscfg.o
 .rodata.str1.1
                0x2fff92e5       0x29 ./../build/optee-nor-stm32mp157d-ev1/bl2/bl2_el3_entrypoint.o
 .rodata.assert_str
                0x2fff930e       0x15 ./../build/optee-nor-stm32mp157d-ev1/bl2/debug.o
 .rodata.panic_str
                0x2fff9323       0x14 ./../build/optee-nor-stm32mp157d-ev1/bl2/debug.o
 .rodata.str1.1
                0x2fff9337       0x28 ./../build/optee-nor-stm32mp157d-ev1/bl2/stm32_console.o
 .rodata.errata_entries
                0x2fff935f        0x0 ./../build/optee-nor-stm32mp157d-ev1/bl2/cortex_a7.o
 .rodata.str1.1
                0x2fff935f       0x1f ./../build/optee-nor-stm32mp157d-ev1/bl2/cpu_helpers.o
 .rodata.str1.1
                0x2fff937e       0x28 ./../build/optee-nor-stm32mp157d-ev1/bl2/enable_mmu.o
 .rodata.rev_err_str
                0x2fff93a6       0x92 ./../build/optee-nor-stm32mp157d-ev1/bl2/stm32mp1_helper.o
 .rodata.fdt_address_cells.str1.1
                0x2fff9438        0xf ./../build/optee-nor-stm32mp157d-ev1/lib/libfdt.a(fdt_addresses.o)
 .rodata.fdt_size_cells.str1.1
                0x2fff9438        0xc ./../build/optee-nor-stm32mp157d-ev1/lib/libfdt.a(fdt_addresses.o)
 .rodata.fdt_get_phandle.str1.1
                0x2fff9438       0x16 ./../build/optee-nor-stm32mp157d-ev1/lib/libfdt.a(fdt_ro.o)
 .rodata.fdt_get_alias_namelen.str1.1
                0x2fff9438        0x9 ./../build/optee-nor-stm32mp157d-ev1/lib/libfdt.a(fdt_ro.o)
 .rodata.fdt_node_check_compatible.str1.1
                0x2fff9438        0xb ./../build/optee-nor-stm32mp157d-ev1/lib/libfdt.a(fdt_ro.o)
 .rodata.__assert.str1.1
                0x2fff9438        0xf ./../build/optee-nor-stm32mp157d-ev1/lib/libc.a(assert.o)
 .rodata.vprintf.str1.1
                0x2fff9438       0x15 ./../build/optee-nor-stm32mp157d-ev1/lib/libc.a(printf.o)
 .rodata.vsnprintf.str1.1
                0x2fff9438        0x3 ./../build/optee-nor-stm32mp157d-ev1/lib/libc.a(snprintf.o)
                0x2fff94c4                        . = ALIGN (0x4)
                0x2fff9438                        __RT_SVC_DESCS_START__ = .
 *(SORT_BY_ALIGNMENT(.rt_svc_descs))
                0x2fff9438                        __RT_SVC_DESCS_END__ = .
                0x2fff94c4                        . = ALIGN (0x4)
                0x2fff9438                        __FCONF_POPULATOR_START__ = .
 *(SORT_BY_ALIGNMENT(.fconf_populator))
 .fconf_populator
                0x2fff9438        0xc ./../build/optee-nor-stm32mp157d-ev1/bl2/fconf_dyn_cfg_getter.o
 .fconf_populator
                0x2fff9444        0xc ./../build/optee-nor-stm32mp157d-ev1/bl2/stm32mp_fconf_fuse.o
 .fconf_populator
                0x2fff9450        0xc ./../build/optee-nor-stm32mp157d-ev1/bl2/stm32mp_fconf_io.o
 .fconf_populator
                0x2fff945c        0xc ./../build/optee-nor-stm32mp157d-ev1/bl2/stm32mp1_fconf_firewall.o
                0x2fff9468                        __FCONF_POPULATOR_END__ = .
                0x2fff94c4                        . = ALIGN (0x4)
                0x2fff9468                        __PMF_SVC_DESCS_START__ = .
 *(SORT_BY_ALIGNMENT(.pmf_svc_descs))
                0x2fff9468                        __PMF_SVC_DESCS_END__ = .
                0x2fff94c4                        . = ALIGN (0x4)
                0x2fff9468                        __PARSER_LIB_DESCS_START__ = .
 *(SORT_BY_ALIGNMENT(.img_parser_lib_descs))
                0x2fff9468                        __PARSER_LIB_DESCS_END__ = .
                0x2fff94c4                        . = ALIGN (0x4)
                0x2fff9468                        __CPU_OPS_START__ = .
 *(SORT_BY_ALIGNMENT(.cpu_ops))
 .cpu_ops       0x2fff9468       0x10 ./../build/optee-nor-stm32mp157d-ev1/bl2/cortex_a7.o
                0x2fff9478                        __CPU_OPS_END__ = .
                0x2fff94c4                        . = ALIGN (0x4)
                0x2fff9478                        __GOT_START__ = .
 *(SORT_BY_ALIGNMENT(.got))
                0x2fff9478                        __GOT_END__ = .
 *(SORT_BY_ALIGNMENT(.vectors))
 *fill*         0x2fff9478        0x8 
 .vectors       0x2fff9480       0x20 ./../build/optee-nor-stm32mp157d-ev1/bl2/bl2_el3_exceptions.o
                0x2fff9480                bl2_vector_table
 .vectors.__stub
                0x2fff94a0       0x38 linker stubs
                0x2fff94d8                        __RO_END_UNALIGNED__ = .
                0x2fffa000                        . = ALIGN (0x1000)
 *fill*         0x2fff94d8      0xb28 
                0x2fffa000                        __RO_END__ = .
                0x00000001                        ASSERT ((__CPU_OPS_END__ > __CPU_OPS_START__), cpu_ops not defined for this platform.)
                0x2fffa000                        __RW_START__ = .

.glue_7         0x2fffa000        0x0
 .glue_7        0x2fffa000        0x0 linker stubs

.glue_7t        0x2fffa000        0x0
 .glue_7t       0x2fffa000        0x0 linker stubs

.vfp11_veneer   0x2fffa000        0x0
 .vfp11_veneer  0x2fffa000        0x0 linker stubs

.v4_bx          0x2fffa000        0x0
 .v4_bx         0x2fffa000        0x0 linker stubs

.iplt           0x2fffa000        0x0
 .iplt          0x2fffa000        0x0 ./../build/optee-nor-stm32mp157d-ev1/bl2/bl2_image_load_v2.o

.data           0x2fffa000      0x5cd
                0x2fffa000                        __DATA_START__ = .
 *(SORT_BY_ALIGNMENT(.data*))
 .data.tf_xlat_ctx
                0x2fffa000       0x48 ./../build/optee-nor-stm32mp157d-ev1/bl2/xlat_tables_context.o
 .data.spi_nor_dev_spec
                0x2fffa048       0x28 ./../build/optee-nor-stm32mp157d-ev1/bl2/bl2_io_storage.o
 .data.max_log_level
                0x2fffa070        0x4 ./../build/optee-nor-stm32mp157d-ev1/bl2/tf_log.o
 .data.stm32mp15_clock_data
                0x2fffa074       0x18 ./../build/optee-nor-stm32mp157d-ev1/bl2/stm32mp1_clk.o
 .data.stm32mp15_clock_pdata
                0x2fffa08c       0x1c ./../build/optee-nor-stm32mp157d-ev1/bl2/stm32mp1_clk.o
                0x2fffa08c                stm32mp15_clock_pdata
 .data.stm32mp_osc_node_label
                0x2fffa0a8       0x18 ./../build/optee-nor-stm32mp157d-ev1/bl2/stm32mp1_clk.o
                0x2fffa0a8                stm32mp_osc_node_label
 .data.mp1_bkpreg_access
                0x2fffa0c0        0xc ./../build/optee-nor-stm32mp157d-ev1/bl2/stm32mp_tamp_nvram_mp1.o
 .data.i2c_node.1
                0x2fffa0cc        0x4 ./../build/optee-nor-stm32mp157d-ev1/bl2/stm32mp_pmic.o
 .data.node.2   0x2fffa0d0        0x4 ./../build/optee-nor-stm32mp157d-ev1/bl2/stm32mp_pmic.o
 .data.status.3
                0x2fffa0d4        0x4 ./../build/optee-nor-stm32mp157d-ev1/bl2/stm32mp_pmic.o
 .data.fixed_ops
                0x2fffa0d8       0x20 ./../build/optee-nor-stm32mp157d-ev1/bl2/regulator_fixed.o
 .data.dtb_info_pool
                0x2fffa0f8       0x10 ./../build/optee-nor-stm32mp157d-ev1/bl2/fconf_dyn_cfg_getter.o
 .data.boot_idx.2
                0x2fffa108        0x4 ./../build/optee-nor-stm32mp157d-ev1/bl2/bl2_io_storage.o
 .data.fconf_stm32mp_uuids_pool
                0x2fffa10c       0x10 ./../build/optee-nor-stm32mp157d-ev1/bl2/stm32mp_fconf_io.o
 .data.policies
                0x2fffa11c      0x214 ./../build/optee-nor-stm32mp157d-ev1/bl2/stm32mp_fconf_io.o
                0x2fffa11c                policies
 .data.bl_mem_params_desc_num
                0x2fffa330        0x4 ./../build/optee-nor-stm32mp157d-ev1/bl2/plat_bl2_mem_params_desc.o
                0x2fffa330                bl_mem_params_desc_num
 .data.bl_mem_params_desc_ptr
                0x2fffa334        0x4 ./../build/optee-nor-stm32mp157d-ev1/bl2/plat_bl2_mem_params_desc.o
                0x2fffa334                bl_mem_params_desc_ptr
 .data.bl2_mem_params_descs
                0x2fffa338      0x284 ./../build/optee-nor-stm32mp157d-ev1/bl2/plat_bl2_mem_params_desc.o
 .data.skip.0   0x2fffa5bc        0x4 ./../build/optee-nor-stm32mp157d-ev1/bl2/stm32mp1_private.o
 .data          0x2fffa5c0        0xc ./../build/optee-nor-stm32mp157d-ev1/bl2/stm32mp1_critic_power_wrapper.o
 .data.console_state
                0x2fffa5cc        0x1 ./../build/optee-nor-stm32mp157d-ev1/bl2/multi_console.o
                0x2fffa5cd                        __DATA_END__ = .
                0x2fffa000                        __DATA_RAM_START__ = __DATA_START__
                0x2fffa5cd                        __DATA_RAM_END__ = __DATA_END__

.igot.plt       0x2fffa5d0        0x0
 .igot.plt      0x2fffa5d0        0x0 ./../build/optee-nor-stm32mp157d-ev1/bl2/bl2_image_load_v2.o

.rel.dyn        0x2fffa5d0        0x0
                0x2fffa5d0                        __RELA_START__ = .
 *(SORT_BY_ALIGNMENT(.rel*))
 .rel.iplt      0x2fffa5d0        0x0 ./../build/optee-nor-stm32mp157d-ev1/bl2/bl2_image_load_v2.o
                0x2fffa5d0                        __RELA_END__ = .

.stacks         0x2fffa600      0xc00
                0x2fffa600                        __STACKS_START__ = .
 *(SORT_BY_ALIGNMENT(.tzfw_normal_stacks))
 .tzfw_normal_stacks
                0x2fffa600      0xc00 ./../build/optee-nor-stm32mp157d-ev1/bl2/platform_up_stack.o
                0x2fffb200                        __STACKS_END__ = .

.bss            0x2fffb200      0x9e0
                0x2fffb200                        __BSS_START__ = .
 *(SORT_BY_ALIGNMENT(.bss*))
 .bss.current_fip_file
                0x2fffb200       0x30 ./../build/optee-nor-stm32mp157d-ev1/bl2/io_fip.o
 .bss.state_pool
                0x2fffb230       0x20 ./../build/optee-nor-stm32mp157d-ev1/bl2/io_mtd.o
 .bss.nor_dev   0x2fffb250       0x40 ./../build/optee-nor-stm32mp157d-ev1/bl2/spi_nor.o
 .bss.ddr_priv_data
                0x2fffb290       0x20 ./../build/optee-nor-stm32mp157d-ev1/bl2/stm32mp1_ram.o
 .bss.tf_mmap   0x2fffb2b0       0xc0 ./../build/optee-nor-stm32mp157d-ev1/bl2/xlat_tables_context.o
 .bss.mmu_cfg_params
                0x2fffb370       0x18 ./../build/optee-nor-stm32mp157d-ev1/bl2/xlat_tables_context.o
                0x2fffb370                mmu_cfg_params
 .bss.next_bl_params
                0x2fffb388        0xc ./../build/optee-nor-stm32mp157d-ev1/bl2/desc_image_load.o
 .bss.bl_load_info
                0x2fffb394        0xc ./../build/optee-nor-stm32mp157d-ev1/bl2/desc_image_load.o
 .bss.tzc400    0x2fffb3a0        0x8 ./../build/optee-nor-stm32mp157d-ev1/bl2/tzc400.o
 .bss.ops       0x2fffb3a8        0x4 ./../build/optee-nor-stm32mp157d-ev1/bl2/clk.o
 .bss.console_list
                0x2fffb3ac        0x4 ./../build/optee-nor-stm32mp157d-ev1/bl2/multi_console.o
                0x2fffb3ac                console_list
 .bss.timer_ops
                0x2fffb3b0        0x4 ./../build/optee-nor-stm32mp157d-ev1/bl2/delay_timer.o
 .bss.ops       0x2fffb3b4        0xc ./../build/optee-nor-stm32mp157d-ev1/bl2/generic_delay_timer.o
 .bss.fip_dev_count
                0x2fffb3c0        0x4 ./../build/optee-nor-stm32mp157d-ev1/bl2/io_fip.o
 .bss.dev_info_pool
                0x2fffb3c4        0x8 ./../build/optee-nor-stm32mp157d-ev1/bl2/io_fip.o
 .bss.state_pool
                0x2fffb3cc        0x8 ./../build/optee-nor-stm32mp157d-ev1/bl2/io_fip.o
 .bss.backend_image_spec
                0x2fffb3d4        0x4 ./../build/optee-nor-stm32mp157d-ev1/bl2/io_fip.o
 .bss.backend_dev_handle
                0x2fffb3d8        0x4 ./../build/optee-nor-stm32mp157d-ev1/bl2/io_fip.o
 .bss.dev_info_pool
                0x2fffb3dc        0x8 ./../build/optee-nor-stm32mp157d-ev1/bl2/io_mtd.o
 .bss.dev_count
                0x2fffb3e4        0x4 ./../build/optee-nor-stm32mp157d-ev1/bl2/io_storage.o
 .bss.entity_count
                0x2fffb3e8        0x4 ./../build/optee-nor-stm32mp157d-ev1/bl2/io_storage.o
 .bss.entity_map
                0x2fffb3ec       0x10 ./../build/optee-nor-stm32mp157d-ev1/bl2/io_storage.o
 .bss.entity_pool
                0x2fffb3fc       0x20 ./../build/optee-nor-stm32mp157d-ev1/bl2/io_storage.o
 .bss.spi_slave
                0x2fffb41c       0x10 ./../build/optee-nor-stm32mp157d-ev1/bl2/spi_mem.o
 .bss.bsec_spinlock
                0x2fffb42c        0x4 ./../build/optee-nor-stm32mp157d-ev1/bl2/bsec2.o
 .bss.mp15_clkdiv
                0x2fffb430       0x64 ./../build/optee-nor-stm32mp157d-ev1/bl2/stm32mp1_clk.o
                0x2fffb430                mp15_clkdiv
 .bss.mp15_clksrc
                0x2fffb494       0xb0 ./../build/optee-nor-stm32mp157d-ev1/bl2/stm32mp1_clk.o
                0x2fffb494                mp15_clksrc
 .bss.mp15_pll  0x2fffb544       0xd0 ./../build/optee-nor-stm32mp157d-ev1/bl2/stm32mp1_clk.o
                0x2fffb544                mp15_pll
 .bss.refcount_lock
                0x2fffb614        0x4 ./../build/optee-nor-stm32mp157d-ev1/bl2/stm32mp1_clk.o
 .bss.gate_refcounts
                0x2fffb618       0xec ./../build/optee-nor-stm32mp157d-ev1/bl2/stm32mp1_clk.o
 .bss.reg_lock  0x2fffb704        0x4 ./../build/optee-nor-stm32mp157d-ev1/bl2/stm32mp1_clk.o
 .bss.stm32mp1_osc
                0x2fffb708       0x18 ./../build/optee-nor-stm32mp157d-ev1/bl2/stm32mp1_clk.o
 .bss.stm32_clock_data
                0x2fffb720        0x4 ./../build/optee-nor-stm32mp157d-ev1/bl2/stm32mp1_clk.o
 .bss.stm32_iwdg
                0x2fffb724       0x20 ./../build/optee-nor-stm32mp157d-ev1/bl2/stm32_iwdg.o
 .bss.nvmem_dev_array
                0x2fffb744        0xc ./../build/optee-nor-stm32mp157d-ev1/bl2/nvmem.o
 .bss.static_bkpreg_zones_end.0
                0x2fffb750        0xc ./../build/optee-nor-stm32mp157d-ev1/bl2/stm32mp_tamp_nvram_core.o
 .bss.nvram_drv_data
                0x2fffb75c       0x2c ./../build/optee-nor-stm32mp157d-ev1/bl2/stm32mp_tamp_nvram_core.o
 .bss.pmic_i2c_addr
                0x2fffb788        0x4 ./../build/optee-nor-stm32mp157d-ev1/bl2/stm32mp_pmic.o
 .bss.i2c_handle
                0x2fffb78c       0x24 ./../build/optee-nor-stm32mp157d-ev1/bl2/stm32mp_pmic.o
 .bss.pmic_i2c_handle
                0x2fffb7b0        0x4 ./../build/optee-nor-stm32mp157d-ev1/bl2/stpmic1.o
 .bss.rdev_array
                0x2fffb7b4      0x17c ./../build/optee-nor-stm32mp157d-ev1/bl2/regulator_core.o
 .bss.data      0x2fffb930       0x68 ./../build/optee-nor-stm32mp157d-ev1/bl2/regulator_fixed.o
 .bss.stm32_qspi
                0x2fffb998       0x14 ./../build/optee-nor-stm32mp157d-ev1/bl2/stm32_qspi.o
 .bss.dtb_infos
                0x2fffb9ac       0x60 ./../build/optee-nor-stm32mp157d-ev1/bl2/fconf_dyn_cfg_getter.o
 .bss.tf_mapped_regions
                0x2fffba0c        0x8 ./../build/optee-nor-stm32mp157d-ev1/bl2/xlat_tables_context.o
 .bss.image_block_spec
                0x2fffba14        0x8 ./../build/optee-nor-stm32mp157d-ev1/bl2/bl2_io_storage.o
                0x2fffba14                image_block_spec
 .bss.spi_dev_con
                0x2fffba1c        0x4 ./../build/optee-nor-stm32mp157d-ev1/bl2/bl2_io_storage.o
 .bss.fip_dev_con
                0x2fffba20        0x4 ./../build/optee-nor-stm32mp157d-ev1/bl2/bl2_io_storage.o
 .bss.storage_dev_handle
                0x2fffba24        0x4 ./../build/optee-nor-stm32mp157d-ev1/bl2/bl2_io_storage.o
                0x2fffba24                storage_dev_handle
 .bss.fip_dev_handle
                0x2fffba28        0x4 ./../build/optee-nor-stm32mp157d-ev1/bl2/bl2_io_storage.o
                0x2fffba28                fip_dev_handle
 .bss.s_boot_mode.0
                0x2fffba2c        0xc ./../build/optee-nor-stm32mp157d-ev1/bl2/stm32mp_common.o
 .bss.s_fwu_info.2
                0x2fffba38        0xc ./../build/optee-nor-stm32mp157d-ev1/bl2/stm32mp_common.o
 .bss.s_core1_branch_address.4
                0x2fffba44        0xc ./../build/optee-nor-stm32mp157d-ev1/bl2/stm32mp_common.o
 .bss.s_magic_number.6
                0x2fffba50        0xc ./../build/optee-nor-stm32mp157d-ev1/bl2/stm32mp_common.o
 .bss.boot_action_saved
                0x2fffba5c        0x4 ./../build/optee-nor-stm32mp157d-ev1/bl2/stm32mp_common.o
 .bss.boot_ctx_address
                0x2fffba60        0x4 ./../build/optee-nor-stm32mp157d-ev1/bl2/stm32mp_common.o
 .bss.lock      0x2fffba64        0x4 ./../build/optee-nor-stm32mp157d-ev1/bl2/stm32mp_common.o
 .bss.console_clk
                0x2fffba68        0x4 ./../build/optee-nor-stm32mp157d-ev1/bl2/stm32mp_common.o
 .bss.console   0x2fffba6c       0x14 ./../build/optee-nor-stm32mp157d-ev1/bl2/stm32mp_common.o
 .bss.size.1    0x2fffba80        0x4 ./../build/optee-nor-stm32mp157d-ev1/bl2/stm32mp_dt.o
 .bss.fdt       0x2fffba84        0x4 ./../build/optee-nor-stm32mp157d-ev1/bl2/stm32mp_dt.o
 .bss.metadata_block_spec
                0x2fffba88        0x8 ./../build/optee-nor-stm32mp157d-ev1/bl2/stm32mp_fconf_io.o
 .bss.nb_regions
                0x2fffba90        0x4 ./../build/optee-nor-stm32mp157d-ev1/bl2/stm32mp1_fconf_firewall.o
 .bss.part_number.1
                0x2fffba94        0x4 ./../build/optee-nor-stm32mp157d-ev1/bl2/stm32mp1_private.o
 .bss.pmic_i2c_addr
                0x2fffba98        0x2 ./../build/optee-nor-stm32mp157d-ev1/bl2/stpmic1.o
 .bss.boot_itf_selected
                0x2fffba9a        0x2 ./../build/optee-nor-stm32mp157d-ev1/bl2/stm32mp_common.o
 .bss.is_metadata_initialized
                0x2fffba9c        0x1 ./../build/optee-nor-stm32mp157d-ev1/bl2/fwu.o
 .bss.metadata  0x2fffba9d       0x78 ./../build/optee-nor-stm32mp157d-ev1/bl2/fwu.o
 .bss.ddr_self_refresh
                0x2fffbb15        0x1 ./../build/optee-nor-stm32mp157d-ev1/bl2/stm32mp1_ram.o
 .bss.host_interface_reenable_request
                0x2fffbb16        0x1 ./../build/optee-nor-stm32mp157d-ev1/bl2/stm32mp_ddr.o
 .bss.axi_port_reenable_request
                0x2fffbb17        0x1 ./../build/optee-nor-stm32mp157d-ev1/bl2/stm32mp_ddr.o
 .bss.ldo3_special_mode
                0x2fffbb18        0x1 ./../build/optee-nor-stm32mp157d-ev1/bl2/stpmic1.o
 .bss.initialized.1
                0x2fffbb19        0x1 ./../build/optee-nor-stm32mp157d-ev1/bl2/stm32mp_common.o
 .bss.initialized.3
                0x2fffbb1a        0x1 ./../build/optee-nor-stm32mp157d-ev1/bl2/stm32mp_common.o
 .bss.initialized.5
                0x2fffbb1b        0x1 ./../build/optee-nor-stm32mp157d-ev1/bl2/stm32mp_common.o
 .bss.initialized.7
                0x2fffbb1c        0x1 ./../build/optee-nor-stm32mp157d-ev1/bl2/stm32mp_common.o
 .bss.fconf_stm32mp_uuids
                0x2fffbb1d       0x70 ./../build/optee-nor-stm32mp157d-ev1/bl2/stm32mp_fconf_io.o
 *(SORT_BY_ALIGNMENT(COMMON))
                0x2fffbbc0                        . = ALIGN (0x40)
 *fill*         0x2fffbb8d       0x33 
                0x2fffbbc0                        __BAKERY_LOCK_START__ = .
                0x2fffbbc0                        __PERCPU_BAKERY_LOCK_START__ = .
 *(SORT_BY_ALIGNMENT(.bakery_lock))
                0x2fffbbc0                        . = ALIGN (0x40)
                0x2fffbbc0                        __PERCPU_BAKERY_LOCK_END__ = .
                0x00000000                        __PERCPU_BAKERY_LOCK_SIZE__ = ABSOLUTE ((__PERCPU_BAKERY_LOCK_END__ - __PERCPU_BAKERY_LOCK_START__))
                0x2fffbbc0                        . = (. + (__PERCPU_BAKERY_LOCK_SIZE__ * 0x1))
                0x2fffbbc0                        __BAKERY_LOCK_END__ = .
                0x2fffbbc0                        . = ALIGN (0x40)
                0x2fffbbc0                        __PMF_TIMESTAMP_START__ = .
 *(SORT_BY_ALIGNMENT(.pmf_timestamp_array))
                0x2fffbbc0                        . = ALIGN (0x40)
                0x2fffbbc0                        __PMF_PERCPU_TIMESTAMP_END__ = .
                0x00000000                        __PERCPU_TIMESTAMP_SIZE__ = ABSOLUTE ((. - __PMF_TIMESTAMP_START__))
                0x2fffbbc0                        . = (. + (__PERCPU_TIMESTAMP_SIZE__ * 0x1))
                0x2fffbbc0                        __PMF_TIMESTAMP_END__ = .
                0x2fffbbc0                        . = ALIGN (0x10)
                0x2fffbbc0                        __BASE_XLAT_TABLE_START__ = .
 *(SORT_BY_ALIGNMENT(.base_xlat_table))
 .base_xlat_table
                0x2fffbbc0       0x20 ./../build/optee-nor-stm32mp157d-ev1/bl2/xlat_tables_context.o
                0x2fffbbe0                        __BASE_XLAT_TABLE_END__ = .
                0x2fffbbe0                        __BSS_END__ = .

.xlat_table     0x2fffc000     0x2000
                0x2fffc000                        __XLAT_TABLE_START__ = .
 *(SORT_BY_ALIGNMENT(.xlat_table))
 .xlat_table    0x2fffc000     0x2000 ./../build/optee-nor-stm32mp157d-ev1/bl2/xlat_tables_context.o
                0x2fffe000                        __XLAT_TABLE_END__ = .
                0x2fffe000                        __RW_END__ = .
                0x2fffe000                        __BL2_END__ = .

/DISCARD/
 *(SORT_BY_ALIGNMENT(.dynsym) SORT_BY_ALIGNMENT(.dynstr) SORT_BY_ALIGNMENT(.hash) SORT_BY_ALIGNMENT(.gnu.hash))
                0x000009e0                        __BSS_SIZE__ = SIZEOF (.bss)
                0x2fffe000                        RAM_REGION_END = .
                0x00000001                        ASSERT ((. <= 0x2ffff000), BL2 image has exceeded its limit.)
LOAD ./../build/optee-nor-stm32mp157d-ev1/bl2/build_message.o
LOAD ./../build/optee-nor-stm32mp157d-ev1/bl2/bl2_arch_setup.o
LOAD ./../build/optee-nor-stm32mp157d-ev1/bl2/bl2_image_load_v2.o
LOAD ./../build/optee-nor-stm32mp157d-ev1/bl2/bl2_main.o
LOAD ./../build/optee-nor-stm32mp157d-ev1/bl2/bl_common.o
LOAD ./../build/optee-nor-stm32mp157d-ev1/bl2/desc_image_load.o
LOAD ./../build/optee-nor-stm32mp157d-ev1/bl2/fdt_wrappers.o
LOAD ./../build/optee-nor-stm32mp157d-ev1/bl2/tf_log.o
LOAD ./../build/optee-nor-stm32mp157d-ev1/bl2/uuid.o
LOAD ./../build/optee-nor-stm32mp157d-ev1/bl2/tzc400.o
LOAD ./../build/optee-nor-stm32mp157d-ev1/bl2/clk.o
LOAD ./../build/optee-nor-stm32mp157d-ev1/bl2/multi_console.o
LOAD ./../build/optee-nor-stm32mp157d-ev1/bl2/delay_timer.o
LOAD ./../build/optee-nor-stm32mp157d-ev1/bl2/generic_delay_timer.o
LOAD ./../build/optee-nor-stm32mp157d-ev1/bl2/fwu.o
LOAD ./../build/optee-nor-stm32mp157d-ev1/bl2/io_block.o
LOAD ./../build/optee-nor-stm32mp157d-ev1/bl2/io_fip.o
LOAD ./../build/optee-nor-stm32mp157d-ev1/bl2/io_mtd.o
LOAD ./../build/optee-nor-stm32mp157d-ev1/bl2/io_storage.o
LOAD ./../build/optee-nor-stm32mp157d-ev1/bl2/spi_nor.o
LOAD ./../build/optee-nor-stm32mp157d-ev1/bl2/spi_mem.o
LOAD ./../build/optee-nor-stm32mp157d-ev1/bl2/bsec2.o
LOAD ./../build/optee-nor-stm32mp157d-ev1/bl2/stm32mp1_clk.o
LOAD ./../build/optee-nor-stm32mp157d-ev1/bl2/stm32mp_clkfunc.o
LOAD ./../build/optee-nor-stm32mp157d-ev1/bl2/stm32_hash.o
LOAD ./../build/optee-nor-stm32mp157d-ev1/bl2/stm32mp1_ddr.o
LOAD ./../build/optee-nor-stm32mp157d-ev1/bl2/stm32mp1_ddr_helpers.o
LOAD ./../build/optee-nor-stm32mp157d-ev1/bl2/stm32mp1_ram.o
LOAD ./../build/optee-nor-stm32mp157d-ev1/bl2/stm32mp_ddr.o
LOAD ./../build/optee-nor-stm32mp157d-ev1/bl2/stm32mp_ddr_test.o
LOAD ./../build/optee-nor-stm32mp157d-ev1/bl2/stm32mp_ram.o
LOAD ./../build/optee-nor-stm32mp157d-ev1/bl2/stm32_gpio.o
LOAD ./../build/optee-nor-stm32mp157d-ev1/bl2/stm32_i2c.o
LOAD ./../build/optee-nor-stm32mp157d-ev1/bl2/stm32_iwdg.o
LOAD ./../build/optee-nor-stm32mp157d-ev1/bl2/nvmem.o
LOAD ./../build/optee-nor-stm32mp157d-ev1/bl2/stm32mp_tamp_nvram_core.o
LOAD ./../build/optee-nor-stm32mp157d-ev1/bl2/stm32mp_tamp_nvram_mp1.o
LOAD ./../build/optee-nor-stm32mp157d-ev1/bl2/stm32mp_pmic.o
LOAD ./../build/optee-nor-stm32mp157d-ev1/bl2/stpmic1.o
LOAD ./../build/optee-nor-stm32mp157d-ev1/bl2/regulator_core.o
LOAD ./../build/optee-nor-stm32mp157d-ev1/bl2/regulator_fixed.o
LOAD ./../build/optee-nor-stm32mp157d-ev1/bl2/regulator_gpio.o
LOAD ./../build/optee-nor-stm32mp157d-ev1/bl2/stm32mp1_reset.o
LOAD ./../build/optee-nor-stm32mp157d-ev1/bl2/stm32_qspi.o
LOAD ./../build/optee-nor-stm32mp157d-ev1/bl2/ctzdi2.o
LOAD ./../build/optee-nor-stm32mp157d-ev1/bl2/divdi3.o
LOAD ./../build/optee-nor-stm32mp157d-ev1/bl2/divmoddi4.o
LOAD ./../build/optee-nor-stm32mp157d-ev1/bl2/lshrdi3.o
LOAD ./../build/optee-nor-stm32mp157d-ev1/bl2/popcountdi2.o
LOAD ./../build/optee-nor-stm32mp157d-ev1/bl2/popcountsi2.o
LOAD ./../build/optee-nor-stm32mp157d-ev1/bl2/udivmoddi4.o
LOAD ./../build/optee-nor-stm32mp157d-ev1/bl2/pmuv3.o
LOAD ./../build/optee-nor-stm32mp157d-ev1/bl2/fconf.o
LOAD ./../build/optee-nor-stm32mp157d-ev1/bl2/fconf_dyn_cfg_getter.o
LOAD ./../build/optee-nor-stm32mp157d-ev1/bl2/optee_utils.o
LOAD ./../build/optee-nor-stm32mp157d-ev1/bl2/xlat_tables_arch.o
LOAD ./../build/optee-nor-stm32mp157d-ev1/bl2/xlat_tables_context.o
LOAD ./../build/optee-nor-stm32mp157d-ev1/bl2/xlat_tables_core.o
LOAD ./../build/optee-nor-stm32mp157d-ev1/bl2/xlat_tables_utils.o
LOAD ./../build/optee-nor-stm32mp157d-ev1/bl2/adler32.o
LOAD ./../build/optee-nor-stm32mp157d-ev1/bl2/crc32.o
LOAD ./../build/optee-nor-stm32mp157d-ev1/bl2/inffast.o
LOAD ./../build/optee-nor-stm32mp157d-ev1/bl2/inflate.o
LOAD ./../build/optee-nor-stm32mp157d-ev1/bl2/inftrees.o
LOAD ./../build/optee-nor-stm32mp157d-ev1/bl2/tf_gunzip.o
LOAD ./../build/optee-nor-stm32mp157d-ev1/bl2/zutil.o
LOAD ./../build/optee-nor-stm32mp157d-ev1/bl2/plat_common.o
LOAD ./../build/optee-nor-stm32mp157d-ev1/bl2/plat_bl_common.o
LOAD ./../build/optee-nor-stm32mp157d-ev1/bl2/plat_log_common.o
LOAD ./../build/optee-nor-stm32mp157d-ev1/bl2/bl2_io_storage.o
LOAD ./../build/optee-nor-stm32mp157d-ev1/bl2/plat_image_load.o
LOAD ./../build/optee-nor-stm32mp157d-ev1/bl2/stm32mp_common.o
LOAD ./../build/optee-nor-stm32mp157d-ev1/bl2/stm32mp_dt.o
LOAD ./../build/optee-nor-stm32mp157d-ev1/bl2/stm32mp_fconf_fuse.o
LOAD ./../build/optee-nor-stm32mp157d-ev1/bl2/stm32mp_fconf_io.o
LOAD ./../build/optee-nor-stm32mp157d-ev1/bl2/bl2_plat_setup.o
LOAD ./../build/optee-nor-stm32mp157d-ev1/bl2/plat_bl2_mem_params_desc.o
LOAD ./../build/optee-nor-stm32mp157d-ev1/bl2/plat_ddr.o
LOAD ./../build/optee-nor-stm32mp157d-ev1/bl2/stm32mp1_boot_device.o
LOAD ./../build/optee-nor-stm32mp157d-ev1/bl2/stm32mp1_context.o
LOAD ./../build/optee-nor-stm32mp157d-ev1/bl2/stm32mp1_critic_power.o
LOAD ./../build/optee-nor-stm32mp157d-ev1/bl2/stm32mp1_dbgmcu.o
LOAD ./../build/optee-nor-stm32mp157d-ev1/bl2/stm32mp1_fconf_firewall.o
LOAD ./../build/optee-nor-stm32mp157d-ev1/bl2/stm32mp1_private.o
LOAD ./../build/optee-nor-stm32mp157d-ev1/bl2/stm32mp1_syscfg.o
LOAD ./../build/optee-nor-stm32mp157d-ev1/bl2/bl2_el3_entrypoint.o
LOAD ./../build/optee-nor-stm32mp157d-ev1/bl2/bl2_el3_exceptions.o
LOAD ./../build/optee-nor-stm32mp157d-ev1/bl2/bl2_run_next_image.o
LOAD ./../build/optee-nor-stm32mp157d-ev1/bl2/debug.o
LOAD ./../build/optee-nor-stm32mp157d-ev1/bl2/stm32_console.o
LOAD ./../build/optee-nor-stm32mp157d-ev1/bl2/cache_helpers.o
LOAD ./../build/optee-nor-stm32mp157d-ev1/bl2/misc_helpers.o
LOAD ./../build/optee-nor-stm32mp157d-ev1/bl2/aeabi_ldivmod.o
LOAD ./../build/optee-nor-stm32mp157d-ev1/bl2/aeabi_memcpy.o
LOAD ./../build/optee-nor-stm32mp157d-ev1/bl2/aeabi_memset.o
LOAD ./../build/optee-nor-stm32mp157d-ev1/bl2/aeabi_uldivmod.o
LOAD ./../build/optee-nor-stm32mp157d-ev1/bl2/cortex_a7.o
LOAD ./../build/optee-nor-stm32mp157d-ev1/bl2/cpu_helpers.o
LOAD ./../build/optee-nor-stm32mp157d-ev1/bl2/spinlock.o
LOAD ./../build/optee-nor-stm32mp157d-ev1/bl2/enable_mmu.o
LOAD ./../build/optee-nor-stm32mp157d-ev1/bl2/platform_helpers.o
LOAD ./../build/optee-nor-stm32mp157d-ev1/bl2/platform_up_stack.o
LOAD ./../build/optee-nor-stm32mp157d-ev1/bl2/stm32mp1_critic_power_wrapper.o
LOAD ./../build/optee-nor-stm32mp157d-ev1/bl2/stm32mp1_helper.o
LOAD ./../build/optee-nor-stm32mp157d-ev1/lib/libfdt.a
LOAD ./../build/optee-nor-stm32mp157d-ev1/lib/libc.a
OUTPUT(../build/optee-nor-stm32mp157d-ev1/bl2/bl2.elf elf32-littlearm)
LOAD linker stubs

.debug_info     0x00000000    0x445a8
 .debug_info    0x00000000       0xa6 ./../build/optee-nor-stm32mp157d-ev1/bl2/build_message.o
 .debug_info    0x000000a6       0xc6 ./../build/optee-nor-stm32mp157d-ev1/bl2/bl2_arch_setup.o
 .debug_info    0x0000016c      0x582 ./../build/optee-nor-stm32mp157d-ev1/bl2/bl2_image_load_v2.o
 .debug_info    0x000006ee      0x46a ./../build/optee-nor-stm32mp157d-ev1/bl2/bl2_main.o
 .debug_info    0x00000b58      0x70a ./../build/optee-nor-stm32mp157d-ev1/bl2/bl_common.o
 .debug_info    0x00001262      0x964 ./../build/optee-nor-stm32mp157d-ev1/bl2/desc_image_load.o
 .debug_info    0x00001bc6     0x1b58 ./../build/optee-nor-stm32mp157d-ev1/bl2/fdt_wrappers.o
 .debug_info    0x0000371e      0x2c5 ./../build/optee-nor-stm32mp157d-ev1/bl2/tf_log.o
 .debug_info    0x000039e3      0x653 ./../build/optee-nor-stm32mp157d-ev1/bl2/uuid.o
 .debug_info    0x00004036     0x14c0 ./../build/optee-nor-stm32mp157d-ev1/bl2/tzc400.o
 .debug_info    0x000054f6      0x2f5 ./../build/optee-nor-stm32mp157d-ev1/bl2/clk.o
 .debug_info    0x000057eb      0x513 ./../build/optee-nor-stm32mp157d-ev1/bl2/multi_console.o
 .debug_info    0x00005cfe      0x2d3 ./../build/optee-nor-stm32mp157d-ev1/bl2/delay_timer.o
 .debug_info    0x00005fd1      0x33d ./../build/optee-nor-stm32mp157d-ev1/bl2/generic_delay_timer.o
 .debug_info    0x0000630e      0x79e ./../build/optee-nor-stm32mp157d-ev1/bl2/fwu.o
 .debug_info    0x00006aac     0x12a8 ./../build/optee-nor-stm32mp157d-ev1/bl2/io_fip.o
 .debug_info    0x00007d54      0xdcc ./../build/optee-nor-stm32mp157d-ev1/bl2/io_mtd.o
 .debug_info    0x00008b20     0x1029 ./../build/optee-nor-stm32mp157d-ev1/bl2/io_storage.o
 .debug_info    0x00009b49      0xfaf ./../build/optee-nor-stm32mp157d-ev1/bl2/spi_nor.o
 .debug_info    0x0000aaf8      0xb07 ./../build/optee-nor-stm32mp157d-ev1/bl2/spi_mem.o
 .debug_info    0x0000b5ff     0x1655 ./../build/optee-nor-stm32mp157d-ev1/bl2/bsec2.o
 .debug_info    0x0000cc54     0x6232 ./../build/optee-nor-stm32mp157d-ev1/bl2/stm32mp1_clk.o
 .debug_info    0x00012e86      0xeb4 ./../build/optee-nor-stm32mp157d-ev1/bl2/stm32mp_clkfunc.o
 .debug_info    0x00013d3a     0x409e ./../build/optee-nor-stm32mp157d-ev1/bl2/stm32mp1_ddr.o
 .debug_info    0x00017dd8     0x429d ./../build/optee-nor-stm32mp157d-ev1/bl2/stm32mp1_ddr_helpers.o
 .debug_info    0x0001c075     0x1be7 ./../build/optee-nor-stm32mp157d-ev1/bl2/stm32mp1_ram.o
 .debug_info    0x0001dc5c     0x2518 ./../build/optee-nor-stm32mp157d-ev1/bl2/stm32mp_ddr.o
 .debug_info    0x00020174      0x808 ./../build/optee-nor-stm32mp157d-ev1/bl2/stm32mp_ddr_test.o
 .debug_info    0x0002097c      0x3f7 ./../build/optee-nor-stm32mp157d-ev1/bl2/stm32mp_ram.o
 .debug_info    0x00020d73     0x1674 ./../build/optee-nor-stm32mp157d-ev1/bl2/stm32_gpio.o
 .debug_info    0x000223e7     0x31e5 ./../build/optee-nor-stm32mp157d-ev1/bl2/stm32_i2c.o
 .debug_info    0x000255cc      0xa0c ./../build/optee-nor-stm32mp157d-ev1/bl2/stm32_iwdg.o
 .debug_info    0x00025fd8      0x7c0 ./../build/optee-nor-stm32mp157d-ev1/bl2/nvmem.o
 .debug_info    0x00026798     0x13f0 ./../build/optee-nor-stm32mp157d-ev1/bl2/stm32mp_tamp_nvram_core.o
 .debug_info    0x00027b88      0x31b ./../build/optee-nor-stm32mp157d-ev1/bl2/stm32mp_tamp_nvram_mp1.o
 .debug_info    0x00027ea3     0x13f1 ./../build/optee-nor-stm32mp157d-ev1/bl2/stm32mp_pmic.o
 .debug_info    0x00029294     0x1072 ./../build/optee-nor-stm32mp157d-ev1/bl2/stpmic1.o
 .debug_info    0x0002a306     0x12e9 ./../build/optee-nor-stm32mp157d-ev1/bl2/regulator_core.o
 .debug_info    0x0002b5ef      0x5fc ./../build/optee-nor-stm32mp157d-ev1/bl2/regulator_fixed.o
 .debug_info    0x0002bbeb      0x751 ./../build/optee-nor-stm32mp157d-ev1/bl2/stm32mp1_reset.o
 .debug_info    0x0002c33c     0x1b30 ./../build/optee-nor-stm32mp157d-ev1/bl2/stm32_qspi.o
 .debug_info    0x0002de6c      0x171 ./../build/optee-nor-stm32mp157d-ev1/bl2/ctzdi2.o
 .debug_info    0x0002dfdd      0x20b ./../build/optee-nor-stm32mp157d-ev1/bl2/udivmoddi4.o
 .debug_info    0x0002e1e8      0x4fb ./../build/optee-nor-stm32mp157d-ev1/bl2/fconf.o
 .debug_info    0x0002e6e3      0x8af ./../build/optee-nor-stm32mp157d-ev1/bl2/fconf_dyn_cfg_getter.o
 .debug_info    0x0002ef92      0x649 ./../build/optee-nor-stm32mp157d-ev1/bl2/optee_utils.o
 .debug_info    0x0002f5db      0x948 ./../build/optee-nor-stm32mp157d-ev1/bl2/xlat_tables_arch.o
 .debug_info    0x0002ff23      0xa92 ./../build/optee-nor-stm32mp157d-ev1/bl2/xlat_tables_context.o
 .debug_info    0x000309b5     0x1872 ./../build/optee-nor-stm32mp157d-ev1/bl2/xlat_tables_core.o
 .debug_info    0x00032227      0x9d9 ./../build/optee-nor-stm32mp157d-ev1/bl2/xlat_tables_utils.o
 .debug_info    0x00032c00      0x504 ./../build/optee-nor-stm32mp157d-ev1/bl2/crc32.o
 .debug_info    0x00033104      0x5e2 ./../build/optee-nor-stm32mp157d-ev1/bl2/tf_gunzip.o
 .debug_info    0x000336e6      0x4bc ./../build/optee-nor-stm32mp157d-ev1/bl2/plat_bl_common.o
 .debug_info    0x00033ba2      0x163 ./../build/optee-nor-stm32mp157d-ev1/bl2/plat_log_common.o
 .debug_info    0x00033d05     0x16bf ./../build/optee-nor-stm32mp157d-ev1/bl2/bl2_io_storage.o
 .debug_info    0x000353c4      0x3f5 ./../build/optee-nor-stm32mp157d-ev1/bl2/plat_image_load.o
 .debug_info    0x000357b9     0x1f18 ./../build/optee-nor-stm32mp157d-ev1/bl2/stm32mp_common.o
 .debug_info    0x000376d1     0x13ae ./../build/optee-nor-stm32mp157d-ev1/bl2/stm32mp_dt.o
 .debug_info    0x00038a7f      0x66e ./../build/optee-nor-stm32mp157d-ev1/bl2/stm32mp_fconf_fuse.o
 .debug_info    0x000390ed      0x7a6 ./../build/optee-nor-stm32mp157d-ev1/bl2/stm32mp_fconf_io.o
 .debug_info    0x00039893     0x1ce7 ./../build/optee-nor-stm32mp157d-ev1/bl2/bl2_plat_setup.o
 .debug_info    0x0003b57a      0x3be ./../build/optee-nor-stm32mp157d-ev1/bl2/plat_bl2_mem_params_desc.o
 .debug_info    0x0003b938      0x6cb ./../build/optee-nor-stm32mp157d-ev1/bl2/plat_ddr.o
 .debug_info    0x0003c003      0x31d ./../build/optee-nor-stm32mp157d-ev1/bl2/stm32mp1_boot_device.o
 .debug_info    0x0003c320      0x6b0 ./../build/optee-nor-stm32mp157d-ev1/bl2/stm32mp1_context.o
 .debug_info    0x0003c9d0      0x39a ./../build/optee-nor-stm32mp157d-ev1/bl2/stm32mp1_critic_power.o
 .debug_info    0x0003cd6a      0x31f ./../build/optee-nor-stm32mp157d-ev1/bl2/stm32mp1_dbgmcu.o
 .debug_info    0x0003d089      0x67c ./../build/optee-nor-stm32mp157d-ev1/bl2/stm32mp1_fconf_firewall.o
 .debug_info    0x0003d705      0xcec ./../build/optee-nor-stm32mp157d-ev1/bl2/stm32mp1_private.o
 .debug_info    0x0003e3f1      0xb0b ./../build/optee-nor-stm32mp157d-ev1/bl2/stm32mp1_syscfg.o
 .debug_info    0x0003eefc       0x32 ./../build/optee-nor-stm32mp157d-ev1/bl2/bl2_el3_entrypoint.o
 .debug_info    0x0003ef2e       0x23 ./../build/optee-nor-stm32mp157d-ev1/bl2/bl2_el3_exceptions.o
 .debug_info    0x0003ef51       0x30 ./../build/optee-nor-stm32mp157d-ev1/bl2/bl2_run_next_image.o
 .debug_info    0x0003ef81       0x71 ./../build/optee-nor-stm32mp157d-ev1/bl2/debug.o
 .debug_info    0x0003eff2       0x72 ./../build/optee-nor-stm32mp157d-ev1/bl2/stm32_console.o
 .debug_info    0x0003f064       0x9a ./../build/optee-nor-stm32mp157d-ev1/bl2/cache_helpers.o
 .debug_info    0x0003f0fe       0x72 ./../build/optee-nor-stm32mp157d-ev1/bl2/misc_helpers.o
 .debug_info    0x0003f170       0x30 ./../build/optee-nor-stm32mp157d-ev1/bl2/aeabi_uldivmod.o
 .debug_info    0x0003f1a0       0x5b ./../build/optee-nor-stm32mp157d-ev1/bl2/cortex_a7.o
 .debug_info    0x0003f1fb       0x5b ./../build/optee-nor-stm32mp157d-ev1/bl2/cpu_helpers.o
 .debug_info    0x0003f256       0x3a ./../build/optee-nor-stm32mp157d-ev1/bl2/spinlock.o
 .debug_info    0x0003f290       0x3a ./../build/optee-nor-stm32mp157d-ev1/bl2/enable_mmu.o
 .debug_info    0x0003f2ca       0x3a ./../build/optee-nor-stm32mp157d-ev1/bl2/platform_up_stack.o
 .debug_info    0x0003f304       0x31 ./../build/optee-nor-stm32mp157d-ev1/bl2/stm32mp1_critic_power_wrapper.o
 .debug_info    0x0003f335       0xdb ./../build/optee-nor-stm32mp157d-ev1/bl2/stm32mp1_helper.o
 .debug_info    0x0003f410      0xdb0 ./../build/optee-nor-stm32mp157d-ev1/lib/libfdt.a(fdt.o)
 .debug_info    0x000401c0      0x5ba ./../build/optee-nor-stm32mp157d-ev1/lib/libfdt.a(fdt_addresses.o)
 .debug_info    0x0004077a     0x274c ./../build/optee-nor-stm32mp157d-ev1/lib/libfdt.a(fdt_ro.o)
 .debug_info    0x00042ec6      0x158 ./../build/optee-nor-stm32mp157d-ev1/lib/libc.a(assert.o)
 .debug_info    0x0004301e       0xd0 ./../build/optee-nor-stm32mp157d-ev1/lib/libc.a(memchr.o)
 .debug_info    0x000430ee      0x106 ./../build/optee-nor-stm32mp157d-ev1/lib/libc.a(memcmp.o)
 .debug_info    0x000431f4       0xdd ./../build/optee-nor-stm32mp157d-ev1/lib/libc.a(memcpy.o)
 .debug_info    0x000432d1      0x152 ./../build/optee-nor-stm32mp157d-ev1/lib/libc.a(memmove.o)
 .debug_info    0x00043423      0x137 ./../build/optee-nor-stm32mp157d-ev1/lib/libc.a(memset.o)
 .debug_info    0x0004355a      0x6aa ./../build/optee-nor-stm32mp157d-ev1/lib/libc.a(printf.o)
 .debug_info    0x00043c04      0x4ad ./../build/optee-nor-stm32mp157d-ev1/lib/libc.a(snprintf.o)
 .debug_info    0x000440b1       0xac ./../build/optee-nor-stm32mp157d-ev1/lib/libc.a(strchr.o)
 .debug_info    0x0004415d       0x8e ./../build/optee-nor-stm32mp157d-ev1/lib/libc.a(strcmp.o)
 .debug_info    0x000441eb      0x10f ./../build/optee-nor-stm32mp157d-ev1/lib/libc.a(strlcpy.o)
 .debug_info    0x000442fa       0x9a ./../build/optee-nor-stm32mp157d-ev1/lib/libc.a(strlen.o)
 .debug_info    0x00044394       0xb3 ./../build/optee-nor-stm32mp157d-ev1/lib/libc.a(strncmp.o)
 .debug_info    0x00044447       0xa1 ./../build/optee-nor-stm32mp157d-ev1/lib/libc.a(strnlen.o)
 .debug_info    0x000444e8       0xc0 ./../build/optee-nor-stm32mp157d-ev1/lib/libc.a(strrchr.o)

.debug_abbrev   0x00000000     0xd6d1
 .debug_abbrev  0x00000000       0x47 ./../build/optee-nor-stm32mp157d-ev1/bl2/build_message.o
 .debug_abbrev  0x00000047       0x69 ./../build/optee-nor-stm32mp157d-ev1/bl2/bl2_arch_setup.o
 .debug_abbrev  0x000000b0      0x184 ./../build/optee-nor-stm32mp157d-ev1/bl2/bl2_image_load_v2.o
 .debug_abbrev  0x00000234      0x1ca ./../build/optee-nor-stm32mp157d-ev1/bl2/bl2_main.o
 .debug_abbrev  0x000003fe      0x269 ./../build/optee-nor-stm32mp157d-ev1/bl2/bl_common.o
 .debug_abbrev  0x00000667      0x2be ./../build/optee-nor-stm32mp157d-ev1/bl2/desc_image_load.o
 .debug_abbrev  0x00000925      0x3d6 ./../build/optee-nor-stm32mp157d-ev1/bl2/fdt_wrappers.o
 .debug_abbrev  0x00000cfb      0x191 ./../build/optee-nor-stm32mp157d-ev1/bl2/tf_log.o
 .debug_abbrev  0x00000e8c      0x237 ./../build/optee-nor-stm32mp157d-ev1/bl2/uuid.o
 .debug_abbrev  0x000010c3      0x2d4 ./../build/optee-nor-stm32mp157d-ev1/bl2/tzc400.o
 .debug_abbrev  0x00001397      0x148 ./../build/optee-nor-stm32mp157d-ev1/bl2/clk.o
 .debug_abbrev  0x000014df      0x27a ./../build/optee-nor-stm32mp157d-ev1/bl2/multi_console.o
 .debug_abbrev  0x00001759      0x177 ./../build/optee-nor-stm32mp157d-ev1/bl2/delay_timer.o
 .debug_abbrev  0x000018d0      0x267 ./../build/optee-nor-stm32mp157d-ev1/bl2/generic_delay_timer.o
 .debug_abbrev  0x00001b37      0x2db ./../build/optee-nor-stm32mp157d-ev1/bl2/fwu.o
 .debug_abbrev  0x00001e12      0x3b7 ./../build/optee-nor-stm32mp157d-ev1/bl2/io_fip.o
 .debug_abbrev  0x000021c9      0x33a ./../build/optee-nor-stm32mp157d-ev1/bl2/io_mtd.o
 .debug_abbrev  0x00002503      0x34a ./../build/optee-nor-stm32mp157d-ev1/bl2/io_storage.o
 .debug_abbrev  0x0000284d      0x3fa ./../build/optee-nor-stm32mp157d-ev1/bl2/spi_nor.o
 .debug_abbrev  0x00002c47      0x3b3 ./../build/optee-nor-stm32mp157d-ev1/bl2/spi_mem.o
 .debug_abbrev  0x00002ffa      0x42f ./../build/optee-nor-stm32mp157d-ev1/bl2/bsec2.o
 .debug_abbrev  0x00003429      0x637 ./../build/optee-nor-stm32mp157d-ev1/bl2/stm32mp1_clk.o
 .debug_abbrev  0x00003a60      0x317 ./../build/optee-nor-stm32mp157d-ev1/bl2/stm32mp_clkfunc.o
 .debug_abbrev  0x00003d77      0x425 ./../build/optee-nor-stm32mp157d-ev1/bl2/stm32mp1_ddr.o
 .debug_abbrev  0x0000419c      0x381 ./../build/optee-nor-stm32mp157d-ev1/bl2/stm32mp1_ddr_helpers.o
 .debug_abbrev  0x0000451d      0x317 ./../build/optee-nor-stm32mp157d-ev1/bl2/stm32mp1_ram.o
 .debug_abbrev  0x00004834      0x3a2 ./../build/optee-nor-stm32mp157d-ev1/bl2/stm32mp_ddr.o
 .debug_abbrev  0x00004bd6      0x168 ./../build/optee-nor-stm32mp157d-ev1/bl2/stm32mp_ddr_test.o
 .debug_abbrev  0x00004d3e      0x19d ./../build/optee-nor-stm32mp157d-ev1/bl2/stm32mp_ram.o
 .debug_abbrev  0x00004edb      0x402 ./../build/optee-nor-stm32mp157d-ev1/bl2/stm32_gpio.o
 .debug_abbrev  0x000052dd      0x41b ./../build/optee-nor-stm32mp157d-ev1/bl2/stm32_i2c.o
 .debug_abbrev  0x000056f8      0x324 ./../build/optee-nor-stm32mp157d-ev1/bl2/stm32_iwdg.o
 .debug_abbrev  0x00005a1c      0x260 ./../build/optee-nor-stm32mp157d-ev1/bl2/nvmem.o
 .debug_abbrev  0x00005c7c      0x462 ./../build/optee-nor-stm32mp157d-ev1/bl2/stm32mp_tamp_nvram_core.o
 .debug_abbrev  0x000060de      0x10e ./../build/optee-nor-stm32mp157d-ev1/bl2/stm32mp_tamp_nvram_mp1.o
 .debug_abbrev  0x000061ec      0x4bb ./../build/optee-nor-stm32mp157d-ev1/bl2/stm32mp_pmic.o
 .debug_abbrev  0x000066a7      0x2aa ./../build/optee-nor-stm32mp157d-ev1/bl2/stpmic1.o
 .debug_abbrev  0x00006951      0x496 ./../build/optee-nor-stm32mp157d-ev1/bl2/regulator_core.o
 .debug_abbrev  0x00006de7      0x23f ./../build/optee-nor-stm32mp157d-ev1/bl2/regulator_fixed.o
 .debug_abbrev  0x00007026      0x1d1 ./../build/optee-nor-stm32mp157d-ev1/bl2/stm32mp1_reset.o
 .debug_abbrev  0x000071f7      0x4f6 ./../build/optee-nor-stm32mp157d-ev1/bl2/stm32_qspi.o
 .debug_abbrev  0x000076ed       0xe2 ./../build/optee-nor-stm32mp157d-ev1/bl2/ctzdi2.o
 .debug_abbrev  0x000077cf      0x119 ./../build/optee-nor-stm32mp157d-ev1/bl2/udivmoddi4.o
 .debug_abbrev  0x000078e8      0x22b ./../build/optee-nor-stm32mp157d-ev1/bl2/fconf.o
 .debug_abbrev  0x00007b13      0x278 ./../build/optee-nor-stm32mp157d-ev1/bl2/fconf_dyn_cfg_getter.o
 .debug_abbrev  0x00007d8b      0x1d5 ./../build/optee-nor-stm32mp157d-ev1/bl2/optee_utils.o
 .debug_abbrev  0x00007f60      0x301 ./../build/optee-nor-stm32mp157d-ev1/bl2/xlat_tables_arch.o
 .debug_abbrev  0x00008261      0x2a5 ./../build/optee-nor-stm32mp157d-ev1/bl2/xlat_tables_context.o
 .debug_abbrev  0x00008506      0x4c1 ./../build/optee-nor-stm32mp157d-ev1/bl2/xlat_tables_core.o
 .debug_abbrev  0x000089c7      0x2db ./../build/optee-nor-stm32mp157d-ev1/bl2/xlat_tables_utils.o
 .debug_abbrev  0x00008ca2      0x1cb ./../build/optee-nor-stm32mp157d-ev1/bl2/crc32.o
 .debug_abbrev  0x00008e6d      0x214 ./../build/optee-nor-stm32mp157d-ev1/bl2/tf_gunzip.o
 .debug_abbrev  0x00009081      0x2b3 ./../build/optee-nor-stm32mp157d-ev1/bl2/plat_bl_common.o
 .debug_abbrev  0x00009334       0xdd ./../build/optee-nor-stm32mp157d-ev1/bl2/plat_log_common.o
 .debug_abbrev  0x00009411      0x441 ./../build/optee-nor-stm32mp157d-ev1/bl2/bl2_io_storage.o
 .debug_abbrev  0x00009852      0x14b ./../build/optee-nor-stm32mp157d-ev1/bl2/plat_image_load.o
 .debug_abbrev  0x0000999d      0x556 ./../build/optee-nor-stm32mp157d-ev1/bl2/stm32mp_common.o
 .debug_abbrev  0x00009ef3      0x338 ./../build/optee-nor-stm32mp157d-ev1/bl2/stm32mp_dt.o
 .debug_abbrev  0x0000a22b      0x24c ./../build/optee-nor-stm32mp157d-ev1/bl2/stm32mp_fconf_fuse.o
 .debug_abbrev  0x0000a477      0x2b2 ./../build/optee-nor-stm32mp157d-ev1/bl2/stm32mp_fconf_io.o
 .debug_abbrev  0x0000a729      0x4c3 ./../build/optee-nor-stm32mp157d-ev1/bl2/bl2_plat_setup.o
 .debug_abbrev  0x0000abec       0xea ./../build/optee-nor-stm32mp157d-ev1/bl2/plat_bl2_mem_params_desc.o
 .debug_abbrev  0x0000acd6      0x235 ./../build/optee-nor-stm32mp157d-ev1/bl2/plat_ddr.o
 .debug_abbrev  0x0000af0b      0x124 ./../build/optee-nor-stm32mp157d-ev1/bl2/stm32mp1_boot_device.o
 .debug_abbrev  0x0000b02f      0x270 ./../build/optee-nor-stm32mp157d-ev1/bl2/stm32mp1_context.o
 .debug_abbrev  0x0000b29f      0x1f9 ./../build/optee-nor-stm32mp157d-ev1/bl2/stm32mp1_critic_power.o
 .debug_abbrev  0x0000b498      0x1ca ./../build/optee-nor-stm32mp157d-ev1/bl2/stm32mp1_dbgmcu.o
 .debug_abbrev  0x0000b662      0x253 ./../build/optee-nor-stm32mp157d-ev1/bl2/stm32mp1_fconf_firewall.o
 .debug_abbrev  0x0000b8b5      0x3d5 ./../build/optee-nor-stm32mp157d-ev1/bl2/stm32mp1_private.o
 .debug_abbrev  0x0000bc8a      0x2c0 ./../build/optee-nor-stm32mp157d-ev1/bl2/stm32mp1_syscfg.o
 .debug_abbrev  0x0000bf4a       0x28 ./../build/optee-nor-stm32mp157d-ev1/bl2/bl2_el3_entrypoint.o
 .debug_abbrev  0x0000bf72       0x14 ./../build/optee-nor-stm32mp157d-ev1/bl2/bl2_el3_exceptions.o
 .debug_abbrev  0x0000bf86       0x28 ./../build/optee-nor-stm32mp157d-ev1/bl2/bl2_run_next_image.o
 .debug_abbrev  0x0000bfae       0x26 ./../build/optee-nor-stm32mp157d-ev1/bl2/debug.o
 .debug_abbrev  0x0000bfd4       0x26 ./../build/optee-nor-stm32mp157d-ev1/bl2/stm32_console.o
 .debug_abbrev  0x0000bffa       0x26 ./../build/optee-nor-stm32mp157d-ev1/bl2/cache_helpers.o
 .debug_abbrev  0x0000c020       0x26 ./../build/optee-nor-stm32mp157d-ev1/bl2/misc_helpers.o
 .debug_abbrev  0x0000c046       0x28 ./../build/optee-nor-stm32mp157d-ev1/bl2/aeabi_uldivmod.o
 .debug_abbrev  0x0000c06e       0x24 ./../build/optee-nor-stm32mp157d-ev1/bl2/cortex_a7.o
 .debug_abbrev  0x0000c092       0x26 ./../build/optee-nor-stm32mp157d-ev1/bl2/cpu_helpers.o
 .debug_abbrev  0x0000c0b8       0x26 ./../build/optee-nor-stm32mp157d-ev1/bl2/spinlock.o
 .debug_abbrev  0x0000c0de       0x26 ./../build/optee-nor-stm32mp157d-ev1/bl2/enable_mmu.o
 .debug_abbrev  0x0000c104       0x24 ./../build/optee-nor-stm32mp157d-ev1/bl2/platform_up_stack.o
 .debug_abbrev  0x0000c128       0x28 ./../build/optee-nor-stm32mp157d-ev1/bl2/stm32mp1_critic_power_wrapper.o
 .debug_abbrev  0x0000c150       0x26 ./../build/optee-nor-stm32mp157d-ev1/bl2/stm32mp1_helper.o
 .debug_abbrev  0x0000c176      0x2e7 ./../build/optee-nor-stm32mp157d-ev1/lib/libfdt.a(fdt.o)
 .debug_abbrev  0x0000c45d      0x1d8 ./../build/optee-nor-stm32mp157d-ev1/lib/libfdt.a(fdt_addresses.o)
 .debug_abbrev  0x0000c635      0x399 ./../build/optee-nor-stm32mp157d-ev1/lib/libfdt.a(fdt_ro.o)
 .debug_abbrev  0x0000c9ce       0xf9 ./../build/optee-nor-stm32mp157d-ev1/lib/libc.a(assert.o)
 .debug_abbrev  0x0000cac7       0x9b ./../build/optee-nor-stm32mp157d-ev1/lib/libc.a(memchr.o)
 .debug_abbrev  0x0000cb62       0x94 ./../build/optee-nor-stm32mp157d-ev1/lib/libc.a(memcmp.o)
 .debug_abbrev  0x0000cbf6       0xa1 ./../build/optee-nor-stm32mp157d-ev1/lib/libc.a(memcpy.o)
 .debug_abbrev  0x0000cc97       0xd1 ./../build/optee-nor-stm32mp157d-ev1/lib/libc.a(memmove.o)
 .debug_abbrev  0x0000cd68       0xc8 ./../build/optee-nor-stm32mp157d-ev1/lib/libc.a(memset.o)
 .debug_abbrev  0x0000ce30      0x273 ./../build/optee-nor-stm32mp157d-ev1/lib/libc.a(printf.o)
 .debug_abbrev  0x0000d0a3      0x277 ./../build/optee-nor-stm32mp157d-ev1/lib/libc.a(snprintf.o)
 .debug_abbrev  0x0000d31a       0x80 ./../build/optee-nor-stm32mp157d-ev1/lib/libc.a(strchr.o)
 .debug_abbrev  0x0000d39a       0x6c ./../build/optee-nor-stm32mp157d-ev1/lib/libc.a(strcmp.o)
 .debug_abbrev  0x0000d406       0xa3 ./../build/optee-nor-stm32mp157d-ev1/lib/libc.a(strlcpy.o)
 .debug_abbrev  0x0000d4a9       0x84 ./../build/optee-nor-stm32mp157d-ev1/lib/libc.a(strlen.o)
 .debug_abbrev  0x0000d52d       0x7b ./../build/optee-nor-stm32mp157d-ev1/lib/libc.a(strncmp.o)
 .debug_abbrev  0x0000d5a8       0x95 ./../build/optee-nor-stm32mp157d-ev1/lib/libc.a(strnlen.o)
 .debug_abbrev  0x0000d63d       0x94 ./../build/optee-nor-stm32mp157d-ev1/lib/libc.a(strrchr.o)

.debug_aranges  0x00000000     0x1ea8
 .debug_aranges
                0x00000000       0x18 ./../build/optee-nor-stm32mp157d-ev1/bl2/build_message.o
 .debug_aranges
                0x00000018       0x20 ./../build/optee-nor-stm32mp157d-ev1/bl2/bl2_arch_setup.o
 .debug_aranges
                0x00000038       0x20 ./../build/optee-nor-stm32mp157d-ev1/bl2/bl2_image_load_v2.o
 .debug_aranges
                0x00000058       0x28 ./../build/optee-nor-stm32mp157d-ev1/bl2/bl2_main.o
 .debug_aranges
                0x00000080       0x38 ./../build/optee-nor-stm32mp157d-ev1/bl2/bl_common.o
 .debug_aranges
                0x000000b8       0x58 ./../build/optee-nor-stm32mp157d-ev1/bl2/desc_image_load.o
 .debug_aranges
                0x00000110       0xa8 ./../build/optee-nor-stm32mp157d-ev1/bl2/fdt_wrappers.o
 .debug_aranges
                0x000001b8       0x30 ./../build/optee-nor-stm32mp157d-ev1/bl2/tf_log.o
 .debug_aranges
                0x000001e8       0x48 ./../build/optee-nor-stm32mp157d-ev1/bl2/uuid.o
 .debug_aranges
                0x00000230       0x58 ./../build/optee-nor-stm32mp157d-ev1/bl2/tzc400.o
 .debug_aranges
                0x00000288       0x48 ./../build/optee-nor-stm32mp157d-ev1/bl2/clk.o
 .debug_aranges
                0x000002d0       0x58 ./../build/optee-nor-stm32mp157d-ev1/bl2/multi_console.o
 .debug_aranges
                0x00000328       0x30 ./../build/optee-nor-stm32mp157d-ev1/bl2/delay_timer.o
 .debug_aranges
                0x00000358       0x30 ./../build/optee-nor-stm32mp157d-ev1/bl2/generic_delay_timer.o
 .debug_aranges
                0x00000388       0x40 ./../build/optee-nor-stm32mp157d-ev1/bl2/fwu.o
 .debug_aranges
                0x000003c8       0x68 ./../build/optee-nor-stm32mp157d-ev1/bl2/io_fip.o
 .debug_aranges
                0x00000430       0x60 ./../build/optee-nor-stm32mp157d-ev1/bl2/io_mtd.o
 .debug_aranges
                0x00000490       0x80 ./../build/optee-nor-stm32mp157d-ev1/bl2/io_storage.o
 .debug_aranges
                0x00000510       0x60 ./../build/optee-nor-stm32mp157d-ev1/bl2/spi_nor.o
 .debug_aranges
                0x00000570       0x60 ./../build/optee-nor-stm32mp157d-ev1/bl2/spi_mem.o
 .debug_aranges
                0x000005d0       0xc0 ./../build/optee-nor-stm32mp157d-ev1/bl2/bsec2.o
 .debug_aranges
                0x00000690       0xe0 ./../build/optee-nor-stm32mp157d-ev1/bl2/stm32mp1_clk.o
 .debug_aranges
                0x00000770       0x70 ./../build/optee-nor-stm32mp157d-ev1/bl2/stm32mp_clkfunc.o
 .debug_aranges
                0x000007e0       0x38 ./../build/optee-nor-stm32mp157d-ev1/bl2/stm32mp1_ddr.o
 .debug_aranges
                0x00000818       0x48 ./../build/optee-nor-stm32mp157d-ev1/bl2/stm32mp1_ddr_helpers.o
 .debug_aranges
                0x00000860       0x38 ./../build/optee-nor-stm32mp157d-ev1/bl2/stm32mp1_ram.o
 .debug_aranges
                0x00000898       0x78 ./../build/optee-nor-stm32mp157d-ev1/bl2/stm32mp_ddr.o
 .debug_aranges
                0x00000910       0x38 ./../build/optee-nor-stm32mp157d-ev1/bl2/stm32mp_ddr_test.o
 .debug_aranges
                0x00000948       0x28 ./../build/optee-nor-stm32mp157d-ev1/bl2/stm32mp_ram.o
 .debug_aranges
                0x00000970       0x58 ./../build/optee-nor-stm32mp157d-ev1/bl2/stm32_gpio.o
 .debug_aranges
                0x000009c8       0x88 ./../build/optee-nor-stm32mp157d-ev1/bl2/stm32_i2c.o
 .debug_aranges
                0x00000a50       0x30 ./../build/optee-nor-stm32mp157d-ev1/bl2/stm32_iwdg.o
 .debug_aranges
                0x00000a80       0x40 ./../build/optee-nor-stm32mp157d-ev1/bl2/nvmem.o
 .debug_aranges
                0x00000ac0       0x68 ./../build/optee-nor-stm32mp157d-ev1/bl2/stm32mp_tamp_nvram_core.o
 .debug_aranges
                0x00000b28       0x28 ./../build/optee-nor-stm32mp157d-ev1/bl2/stm32mp_tamp_nvram_mp1.o
 .debug_aranges
                0x00000b50       0x88 ./../build/optee-nor-stm32mp157d-ev1/bl2/stm32mp_pmic.o
 .debug_aranges
                0x00000bd8       0xc0 ./../build/optee-nor-stm32mp157d-ev1/bl2/stpmic1.o
 .debug_aranges
                0x00000c98       0x90 ./../build/optee-nor-stm32mp157d-ev1/bl2/regulator_core.o
 .debug_aranges
                0x00000d28       0x30 ./../build/optee-nor-stm32mp157d-ev1/bl2/regulator_fixed.o
 .debug_aranges
                0x00000d58       0x30 ./../build/optee-nor-stm32mp157d-ev1/bl2/stm32mp1_reset.o
 .debug_aranges
                0x00000d88       0x60 ./../build/optee-nor-stm32mp157d-ev1/bl2/stm32_qspi.o
 .debug_aranges
                0x00000de8       0x20 ./../build/optee-nor-stm32mp157d-ev1/bl2/ctzdi2.o
 .debug_aranges
                0x00000e08       0x20 ./../build/optee-nor-stm32mp157d-ev1/bl2/udivmoddi4.o
 .debug_aranges
                0x00000e28       0x28 ./../build/optee-nor-stm32mp157d-ev1/bl2/fconf.o
 .debug_aranges
                0x00000e50       0x38 ./../build/optee-nor-stm32mp157d-ev1/bl2/fconf_dyn_cfg_getter.o
 .debug_aranges
                0x00000e88       0x30 ./../build/optee-nor-stm32mp157d-ev1/bl2/optee_utils.o
 .debug_aranges
                0x00000eb8       0x78 ./../build/optee-nor-stm32mp157d-ev1/bl2/xlat_tables_arch.o
 .debug_aranges
                0x00000f30       0x78 ./../build/optee-nor-stm32mp157d-ev1/bl2/xlat_tables_context.o
 .debug_aranges
                0x00000fa8       0x90 ./../build/optee-nor-stm32mp157d-ev1/bl2/xlat_tables_core.o
 .debug_aranges
                0x00001038       0x48 ./../build/optee-nor-stm32mp157d-ev1/bl2/xlat_tables_utils.o
 .debug_aranges
                0x00001080       0x68 ./../build/optee-nor-stm32mp157d-ev1/bl2/crc32.o
 .debug_aranges
                0x000010e8       0x38 ./../build/optee-nor-stm32mp157d-ev1/bl2/tf_gunzip.o
 .debug_aranges
                0x00001120       0x78 ./../build/optee-nor-stm32mp157d-ev1/bl2/plat_bl_common.o
 .debug_aranges
                0x00001198       0x20 ./../build/optee-nor-stm32mp157d-ev1/bl2/plat_log_common.o
 .debug_aranges
                0x000011b8       0x70 ./../build/optee-nor-stm32mp157d-ev1/bl2/bl2_io_storage.o
 .debug_aranges
                0x00001228       0x30 ./../build/optee-nor-stm32mp157d-ev1/bl2/plat_image_load.o
 .debug_aranges
                0x00001258      0x150 ./../build/optee-nor-stm32mp157d-ev1/bl2/stm32mp_common.o
 .debug_aranges
                0x000013a8       0xb8 ./../build/optee-nor-stm32mp157d-ev1/bl2/stm32mp_dt.o
 .debug_aranges
                0x00001460       0x20 ./../build/optee-nor-stm32mp157d-ev1/bl2/stm32mp_fconf_fuse.o
 .debug_aranges
                0x00001480       0x20 ./../build/optee-nor-stm32mp157d-ev1/bl2/stm32mp_fconf_io.o
 .debug_aranges
                0x000014a0       0x40 ./../build/optee-nor-stm32mp157d-ev1/bl2/bl2_plat_setup.o
 .debug_aranges
                0x000014e0       0x18 ./../build/optee-nor-stm32mp157d-ev1/bl2/plat_bl2_mem_params_desc.o
 .debug_aranges
                0x000014f8       0x20 ./../build/optee-nor-stm32mp157d-ev1/bl2/plat_ddr.o
 .debug_aranges
                0x00001518       0x20 ./../build/optee-nor-stm32mp157d-ev1/bl2/stm32mp1_boot_device.o
 .debug_aranges
                0x00001538       0x48 ./../build/optee-nor-stm32mp157d-ev1/bl2/stm32mp1_context.o
 .debug_aranges
                0x00001580       0x28 ./../build/optee-nor-stm32mp157d-ev1/bl2/stm32mp1_critic_power.o
 .debug_aranges
                0x000015a8       0x30 ./../build/optee-nor-stm32mp157d-ev1/bl2/stm32mp1_dbgmcu.o
 .debug_aranges
                0x000015d8       0x38 ./../build/optee-nor-stm32mp157d-ev1/bl2/stm32mp1_fconf_firewall.o
 .debug_aranges
                0x00001610       0xc8 ./../build/optee-nor-stm32mp157d-ev1/bl2/stm32mp1_private.o
 .debug_aranges
                0x000016d8       0x48 ./../build/optee-nor-stm32mp157d-ev1/bl2/stm32mp1_syscfg.o
 .debug_aranges
                0x00001720       0x20 ./../build/optee-nor-stm32mp157d-ev1/bl2/bl2_el3_entrypoint.o
 .debug_aranges
                0x00001740       0x20 ./../build/optee-nor-stm32mp157d-ev1/bl2/bl2_el3_exceptions.o
 .debug_aranges
                0x00001760       0x20 ./../build/optee-nor-stm32mp157d-ev1/bl2/bl2_run_next_image.o
 .debug_aranges
                0x00001780       0x50 ./../build/optee-nor-stm32mp157d-ev1/bl2/debug.o
 .debug_aranges
                0x000017d0       0x50 ./../build/optee-nor-stm32mp157d-ev1/bl2/stm32_console.o
 .debug_aranges
                0x00001820       0x60 ./../build/optee-nor-stm32mp157d-ev1/bl2/cache_helpers.o
 .debug_aranges
                0x00001880       0x48 ./../build/optee-nor-stm32mp157d-ev1/bl2/misc_helpers.o
 .debug_aranges
                0x000018c8       0x20 ./../build/optee-nor-stm32mp157d-ev1/bl2/aeabi_uldivmod.o
 .debug_aranges
                0x000018e8       0x40 ./../build/optee-nor-stm32mp157d-ev1/bl2/cortex_a7.o
 .debug_aranges
                0x00001928       0x40 ./../build/optee-nor-stm32mp157d-ev1/bl2/cpu_helpers.o
 .debug_aranges
                0x00001968       0x28 ./../build/optee-nor-stm32mp157d-ev1/bl2/spinlock.o
 .debug_aranges
                0x00001990       0x28 ./../build/optee-nor-stm32mp157d-ev1/bl2/enable_mmu.o
 .debug_aranges
                0x000019b8       0x28 ./../build/optee-nor-stm32mp157d-ev1/bl2/platform_up_stack.o
 .debug_aranges
                0x000019e0       0x20 ./../build/optee-nor-stm32mp157d-ev1/bl2/stm32mp1_critic_power_wrapper.o
 .debug_aranges
                0x00001a00       0x88 ./../build/optee-nor-stm32mp157d-ev1/bl2/stm32mp1_helper.o
 .debug_aranges
                0x00001a88       0x88 ./../build/optee-nor-stm32mp157d-ev1/lib/libfdt.a(fdt.o)
 .debug_aranges
                0x00001b10       0x38 ./../build/optee-nor-stm32mp157d-ev1/lib/libfdt.a(fdt_addresses.o)
 .debug_aranges
                0x00001b48      0x160 ./../build/optee-nor-stm32mp157d-ev1/lib/libfdt.a(fdt_ro.o)
 .debug_aranges
                0x00001ca8       0x20 ./../build/optee-nor-stm32mp157d-ev1/lib/libc.a(assert.o)
 .debug_aranges
                0x00001cc8       0x20 ./../build/optee-nor-stm32mp157d-ev1/lib/libc.a(memchr.o)
 .debug_aranges
                0x00001ce8       0x20 ./../build/optee-nor-stm32mp157d-ev1/lib/libc.a(memcmp.o)
 .debug_aranges
                0x00001d08       0x20 ./../build/optee-nor-stm32mp157d-ev1/lib/libc.a(memcpy.o)
 .debug_aranges
                0x00001d28       0x20 ./../build/optee-nor-stm32mp157d-ev1/lib/libc.a(memmove.o)
 .debug_aranges
                0x00001d48       0x20 ./../build/optee-nor-stm32mp157d-ev1/lib/libc.a(memset.o)
 .debug_aranges
                0x00001d68       0x30 ./../build/optee-nor-stm32mp157d-ev1/lib/libc.a(printf.o)
 .debug_aranges
                0x00001d98       0x30 ./../build/optee-nor-stm32mp157d-ev1/lib/libc.a(snprintf.o)
 .debug_aranges
                0x00001dc8       0x20 ./../build/optee-nor-stm32mp157d-ev1/lib/libc.a(strchr.o)
 .debug_aranges
                0x00001de8       0x20 ./../build/optee-nor-stm32mp157d-ev1/lib/libc.a(strcmp.o)
 .debug_aranges
                0x00001e08       0x20 ./../build/optee-nor-stm32mp157d-ev1/lib/libc.a(strlcpy.o)
 .debug_aranges
                0x00001e28       0x20 ./../build/optee-nor-stm32mp157d-ev1/lib/libc.a(strlen.o)
 .debug_aranges
                0x00001e48       0x20 ./../build/optee-nor-stm32mp157d-ev1/lib/libc.a(strncmp.o)
 .debug_aranges
                0x00001e68       0x20 ./../build/optee-nor-stm32mp157d-ev1/lib/libc.a(strnlen.o)
 .debug_aranges
                0x00001e88       0x20 ./../build/optee-nor-stm32mp157d-ev1/lib/libc.a(strrchr.o)

.debug_line     0x00000000    0x201d7
 .debug_line    0x00000000       0x28 ./../build/optee-nor-stm32mp157d-ev1/bl2/build_message.o
 .debug_line    0x00000028       0x8a ./../build/optee-nor-stm32mp157d-ev1/bl2/bl2_arch_setup.o
 .debug_line    0x000000b2      0x24a ./../build/optee-nor-stm32mp157d-ev1/bl2/bl2_image_load_v2.o
 .debug_line    0x000002fc      0x1ce ./../build/optee-nor-stm32mp157d-ev1/bl2/bl2_main.o
 .debug_line    0x000004ca      0x347 ./../build/optee-nor-stm32mp157d-ev1/bl2/bl_common.o
 .debug_line    0x00000811      0x617 ./../build/optee-nor-stm32mp157d-ev1/bl2/desc_image_load.o
 .debug_line    0x00000e28      0xad2 ./../build/optee-nor-stm32mp157d-ev1/bl2/fdt_wrappers.o
 .debug_line    0x000018fa      0x201 ./../build/optee-nor-stm32mp157d-ev1/bl2/tf_log.o
 .debug_line    0x00001afb      0x30d ./../build/optee-nor-stm32mp157d-ev1/bl2/uuid.o
 .debug_line    0x00001e08      0x88d ./../build/optee-nor-stm32mp157d-ev1/bl2/tzc400.o
 .debug_line    0x00002695      0x1b3 ./../build/optee-nor-stm32mp157d-ev1/bl2/clk.o
 .debug_line    0x00002848      0x316 ./../build/optee-nor-stm32mp157d-ev1/bl2/multi_console.o
 .debug_line    0x00002b5e      0x1e7 ./../build/optee-nor-stm32mp157d-ev1/bl2/delay_timer.o
 .debug_line    0x00002d45      0x24d ./../build/optee-nor-stm32mp157d-ev1/bl2/generic_delay_timer.o
 .debug_line    0x00002f92      0x4b8 ./../build/optee-nor-stm32mp157d-ev1/bl2/fwu.o
 .debug_line    0x0000344a      0x731 ./../build/optee-nor-stm32mp157d-ev1/bl2/io_fip.o
 .debug_line    0x00003b7b      0x4f9 ./../build/optee-nor-stm32mp157d-ev1/bl2/io_mtd.o
 .debug_line    0x00004074      0x5f0 ./../build/optee-nor-stm32mp157d-ev1/bl2/io_storage.o
 .debug_line    0x00004664      0x896 ./../build/optee-nor-stm32mp157d-ev1/bl2/spi_nor.o
 .debug_line    0x00004efa      0x69f ./../build/optee-nor-stm32mp157d-ev1/bl2/spi_mem.o
 .debug_line    0x00005599      0xe01 ./../build/optee-nor-stm32mp157d-ev1/bl2/bsec2.o
 .debug_line    0x0000639a     0x2d0e ./../build/optee-nor-stm32mp157d-ev1/bl2/stm32mp1_clk.o
 .debug_line    0x000090a8      0x732 ./../build/optee-nor-stm32mp157d-ev1/bl2/stm32mp_clkfunc.o
 .debug_line    0x000097da     0x145e ./../build/optee-nor-stm32mp157d-ev1/bl2/stm32mp1_ddr.o
 .debug_line    0x0000ac38     0x17c7 ./../build/optee-nor-stm32mp157d-ev1/bl2/stm32mp1_ddr_helpers.o
 .debug_line    0x0000c3ff      0x57d ./../build/optee-nor-stm32mp157d-ev1/bl2/stm32mp1_ram.o
 .debug_line    0x0000c97c      0xb99 ./../build/optee-nor-stm32mp157d-ev1/bl2/stm32mp_ddr.o
 .debug_line    0x0000d515      0x4ca ./../build/optee-nor-stm32mp157d-ev1/bl2/stm32mp_ddr_test.o
 .debug_line    0x0000d9df      0x21a ./../build/optee-nor-stm32mp157d-ev1/bl2/stm32mp_ram.o
 .debug_line    0x0000dbf9      0x9e9 ./../build/optee-nor-stm32mp157d-ev1/bl2/stm32_gpio.o
 .debug_line    0x0000e5e2     0x1add ./../build/optee-nor-stm32mp157d-ev1/bl2/stm32_i2c.o
 .debug_line    0x000100bf      0x518 ./../build/optee-nor-stm32mp157d-ev1/bl2/stm32_iwdg.o
 .debug_line    0x000105d7      0x2fa ./../build/optee-nor-stm32mp157d-ev1/bl2/nvmem.o
 .debug_line    0x000108d1      0x962 ./../build/optee-nor-stm32mp157d-ev1/bl2/stm32mp_tamp_nvram_core.o
 .debug_line    0x00011233      0x119 ./../build/optee-nor-stm32mp157d-ev1/bl2/stm32mp_tamp_nvram_mp1.o
 .debug_line    0x0001134c      0x773 ./../build/optee-nor-stm32mp157d-ev1/bl2/stm32mp_pmic.o
 .debug_line    0x00011abf      0x6e4 ./../build/optee-nor-stm32mp157d-ev1/bl2/stpmic1.o
 .debug_line    0x000121a3      0x998 ./../build/optee-nor-stm32mp157d-ev1/bl2/regulator_core.o
 .debug_line    0x00012b3b      0x286 ./../build/optee-nor-stm32mp157d-ev1/bl2/regulator_fixed.o
 .debug_line    0x00012dc1      0x415 ./../build/optee-nor-stm32mp157d-ev1/bl2/stm32mp1_reset.o
 .debug_line    0x000131d6      0xda1 ./../build/optee-nor-stm32mp157d-ev1/bl2/stm32_qspi.o
 .debug_line    0x00013f77       0xc6 ./../build/optee-nor-stm32mp157d-ev1/bl2/ctzdi2.o
 .debug_line    0x0001403d      0x385 ./../build/optee-nor-stm32mp157d-ev1/bl2/udivmoddi4.o
 .debug_line    0x000143c2      0x2a7 ./../build/optee-nor-stm32mp157d-ev1/bl2/fconf.o
 .debug_line    0x00014669      0x3f8 ./../build/optee-nor-stm32mp157d-ev1/bl2/fconf_dyn_cfg_getter.o
 .debug_line    0x00014a61      0x343 ./../build/optee-nor-stm32mp157d-ev1/bl2/optee_utils.o
 .debug_line    0x00014da4      0x54b ./../build/optee-nor-stm32mp157d-ev1/bl2/xlat_tables_arch.o
 .debug_line    0x000152ef      0x39c ./../build/optee-nor-stm32mp157d-ev1/bl2/xlat_tables_context.o
 .debug_line    0x0001568b     0x106b ./../build/optee-nor-stm32mp157d-ev1/bl2/xlat_tables_core.o
 .debug_line    0x000166f6      0x5f2 ./../build/optee-nor-stm32mp157d-ev1/bl2/xlat_tables_utils.o
 .debug_line    0x00016ce8      0x2e8 ./../build/optee-nor-stm32mp157d-ev1/bl2/crc32.o
 .debug_line    0x00016fd0      0x24c ./../build/optee-nor-stm32mp157d-ev1/bl2/tf_gunzip.o
 .debug_line    0x0001721c      0x2a9 ./../build/optee-nor-stm32mp157d-ev1/bl2/plat_bl_common.o
 .debug_line    0x000174c5       0xce ./../build/optee-nor-stm32mp157d-ev1/bl2/plat_log_common.o
 .debug_line    0x00017593      0x7f3 ./../build/optee-nor-stm32mp157d-ev1/bl2/bl2_io_storage.o
 .debug_line    0x00017d86      0x130 ./../build/optee-nor-stm32mp157d-ev1/bl2/plat_image_load.o
 .debug_line    0x00017eb6      0xd82 ./../build/optee-nor-stm32mp157d-ev1/bl2/stm32mp_common.o
 .debug_line    0x00018c38      0x978 ./../build/optee-nor-stm32mp157d-ev1/bl2/stm32mp_dt.o
 .debug_line    0x000195b0      0x34a ./../build/optee-nor-stm32mp157d-ev1/bl2/stm32mp_fconf_fuse.o
 .debug_line    0x000198fa      0x34d ./../build/optee-nor-stm32mp157d-ev1/bl2/stm32mp_fconf_io.o
 .debug_line    0x00019c47      0xd07 ./../build/optee-nor-stm32mp157d-ev1/bl2/bl2_plat_setup.o
 .debug_line    0x0001a94e      0x111 ./../build/optee-nor-stm32mp157d-ev1/bl2/plat_bl2_mem_params_desc.o
 .debug_line    0x0001aa5f      0x2e2 ./../build/optee-nor-stm32mp157d-ev1/bl2/plat_ddr.o
 .debug_line    0x0001ad41      0x158 ./../build/optee-nor-stm32mp157d-ev1/bl2/stm32mp1_boot_device.o
 .debug_line    0x0001ae99      0x3c5 ./../build/optee-nor-stm32mp157d-ev1/bl2/stm32mp1_context.o
 .debug_line    0x0001b25e      0x29d ./../build/optee-nor-stm32mp157d-ev1/bl2/stm32mp1_critic_power.o
 .debug_line    0x0001b4fb      0x1fc ./../build/optee-nor-stm32mp157d-ev1/bl2/stm32mp1_dbgmcu.o
 .debug_line    0x0001b6f7      0x34d ./../build/optee-nor-stm32mp157d-ev1/bl2/stm32mp1_fconf_firewall.o
 .debug_line    0x0001ba44      0x818 ./../build/optee-nor-stm32mp157d-ev1/bl2/stm32mp1_private.o
 .debug_line    0x0001c25c      0x5bb ./../build/optee-nor-stm32mp157d-ev1/bl2/stm32mp1_syscfg.o
 .debug_line    0x0001c817       0x64 ./../build/optee-nor-stm32mp157d-ev1/bl2/bl2_el3_entrypoint.o
 .debug_line    0x0001c87b       0x58 ./../build/optee-nor-stm32mp157d-ev1/bl2/bl2_el3_exceptions.o
 .debug_line    0x0001c8d3       0x60 ./../build/optee-nor-stm32mp157d-ev1/bl2/bl2_run_next_image.o
 .debug_line    0x0001c933       0xed ./../build/optee-nor-stm32mp157d-ev1/bl2/debug.o
 .debug_line    0x0001ca20      0x10c ./../build/optee-nor-stm32mp157d-ev1/bl2/stm32_console.o
 .debug_line    0x0001cb2c       0xfb ./../build/optee-nor-stm32mp157d-ev1/bl2/cache_helpers.o
 .debug_line    0x0001cc27      0x10b ./../build/optee-nor-stm32mp157d-ev1/bl2/misc_helpers.o
 .debug_line    0x0001cd32       0x68 ./../build/optee-nor-stm32mp157d-ev1/bl2/aeabi_uldivmod.o
 .debug_line    0x0001cd9a       0xa5 ./../build/optee-nor-stm32mp157d-ev1/bl2/cortex_a7.o
 .debug_line    0x0001ce3f       0xbd ./../build/optee-nor-stm32mp157d-ev1/bl2/cpu_helpers.o
 .debug_line    0x0001cefc       0x71 ./../build/optee-nor-stm32mp157d-ev1/bl2/spinlock.o
 .debug_line    0x0001cf6d       0xa5 ./../build/optee-nor-stm32mp157d-ev1/bl2/enable_mmu.o
 .debug_line    0x0001d012       0x6c ./../build/optee-nor-stm32mp157d-ev1/bl2/platform_up_stack.o
 .debug_line    0x0001d07e       0x84 ./../build/optee-nor-stm32mp157d-ev1/bl2/stm32mp1_critic_power_wrapper.o
 .debug_line    0x0001d102      0x1b3 ./../build/optee-nor-stm32mp157d-ev1/bl2/stm32mp1_helper.o
 .debug_line    0x0001d2b5      0x7d2 ./../build/optee-nor-stm32mp157d-ev1/lib/libfdt.a(fdt.o)
 .debug_line    0x0001da87      0x2c6 ./../build/optee-nor-stm32mp157d-ev1/lib/libfdt.a(fdt_addresses.o)
 .debug_line    0x0001dd4d     0x1280 ./../build/optee-nor-stm32mp157d-ev1/lib/libfdt.a(fdt_ro.o)
 .debug_line    0x0001efcd       0xe1 ./../build/optee-nor-stm32mp157d-ev1/lib/libc.a(assert.o)
 .debug_line    0x0001f0ae       0x89 ./../build/optee-nor-stm32mp157d-ev1/lib/libc.a(memchr.o)
 .debug_line    0x0001f137       0xa3 ./../build/optee-nor-stm32mp157d-ev1/lib/libc.a(memcmp.o)
 .debug_line    0x0001f1da       0x8c ./../build/optee-nor-stm32mp157d-ev1/lib/libc.a(memcpy.o)
 .debug_line    0x0001f266       0xe4 ./../build/optee-nor-stm32mp157d-ev1/lib/libc.a(memmove.o)
 .debug_line    0x0001f34a      0x109 ./../build/optee-nor-stm32mp157d-ev1/lib/libc.a(memset.o)
 .debug_line    0x0001f453      0x448 ./../build/optee-nor-stm32mp157d-ev1/lib/libc.a(printf.o)
 .debug_line    0x0001f89b      0x572 ./../build/optee-nor-stm32mp157d-ev1/lib/libc.a(snprintf.o)
 .debug_line    0x0001fe0d       0x6c ./../build/optee-nor-stm32mp157d-ev1/lib/libc.a(strchr.o)
 .debug_line    0x0001fe79       0x66 ./../build/optee-nor-stm32mp157d-ev1/lib/libc.a(strcmp.o)
 .debug_line    0x0001fedf       0xc3 ./../build/optee-nor-stm32mp157d-ev1/lib/libc.a(strlcpy.o)
 .debug_line    0x0001ffa2       0x7b ./../build/optee-nor-stm32mp157d-ev1/lib/libc.a(strlen.o)
 .debug_line    0x0002001d       0xa9 ./../build/optee-nor-stm32mp157d-ev1/lib/libc.a(strncmp.o)
 .debug_line    0x000200c6       0x9e ./../build/optee-nor-stm32mp157d-ev1/lib/libc.a(strnlen.o)
 .debug_line    0x00020164       0x73 ./../build/optee-nor-stm32mp157d-ev1/lib/libc.a(strrchr.o)

.debug_str      0x00000000     0x93f5
 .debug_str     0x00000000     0x93f5 ./../build/optee-nor-stm32mp157d-ev1/bl2/build_message.o
                                0x168 (size before relaxing)
 .debug_str     0x000093f5      0x210 ./../build/optee-nor-stm32mp157d-ev1/bl2/bl2_arch_setup.o
 .debug_str     0x000093f5      0x4cf ./../build/optee-nor-stm32mp157d-ev1/bl2/bl2_image_load_v2.o
 .debug_str     0x000093f5      0x40f ./../build/optee-nor-stm32mp157d-ev1/bl2/bl2_main.o
 .debug_str     0x000093f5      0x44d ./../build/optee-nor-stm32mp157d-ev1/bl2/bl_common.o
 .debug_str     0x000093f5      0x6b1 ./../build/optee-nor-stm32mp157d-ev1/bl2/desc_image_load.o
 .debug_str     0x000093f5      0x747 ./../build/optee-nor-stm32mp157d-ev1/bl2/fdt_wrappers.o
 .debug_str     0x000093f5      0x2d4 ./../build/optee-nor-stm32mp157d-ev1/bl2/tf_log.o
 .debug_str     0x000093f5      0x29b ./../build/optee-nor-stm32mp157d-ev1/bl2/uuid.o
 .debug_str     0x000093f5      0x635 ./../build/optee-nor-stm32mp157d-ev1/bl2/tzc400.o
 .debug_str     0x000093f5      0x260 ./../build/optee-nor-stm32mp157d-ev1/bl2/clk.o
 .debug_str     0x000093f5      0x32c ./../build/optee-nor-stm32mp157d-ev1/bl2/multi_console.o
 .debug_str     0x000093f5      0x2fa ./../build/optee-nor-stm32mp157d-ev1/bl2/delay_timer.o
 .debug_str     0x000093f5      0x34e ./../build/optee-nor-stm32mp157d-ev1/bl2/generic_delay_timer.o
 .debug_str     0x000093f5      0x579 ./../build/optee-nor-stm32mp157d-ev1/bl2/fwu.o
 .debug_str     0x000093f5      0x84f ./../build/optee-nor-stm32mp157d-ev1/bl2/io_fip.o
 .debug_str     0x000093f5      0x622 ./../build/optee-nor-stm32mp157d-ev1/bl2/io_mtd.o
 .debug_str     0x000093f5      0x5bb ./../build/optee-nor-stm32mp157d-ev1/bl2/io_storage.o
 .debug_str     0x000093f5      0x530 ./../build/optee-nor-stm32mp157d-ev1/bl2/spi_nor.o
 .debug_str     0x000093f5      0x42d ./../build/optee-nor-stm32mp157d-ev1/bl2/spi_mem.o
 .debug_str     0x000093f5      0x502 ./../build/optee-nor-stm32mp157d-ev1/bl2/bsec2.o
 .debug_str     0x000093f5     0x1513 ./../build/optee-nor-stm32mp157d-ev1/bl2/stm32mp1_clk.o
 .debug_str     0x000093f5      0x559 ./../build/optee-nor-stm32mp157d-ev1/bl2/stm32mp_clkfunc.o
 .debug_str     0x000093f5     0x1005 ./../build/optee-nor-stm32mp157d-ev1/bl2/stm32mp1_ddr.o
 .debug_str     0x000093f5      0xb19 ./../build/optee-nor-stm32mp157d-ev1/bl2/stm32mp1_ddr_helpers.o
 .debug_str     0x000093f5      0xe79 ./../build/optee-nor-stm32mp157d-ev1/bl2/stm32mp1_ram.o
 .debug_str     0x000093f5      0xe07 ./../build/optee-nor-stm32mp157d-ev1/bl2/stm32mp_ddr.o
 .debug_str     0x000093f5      0x311 ./../build/optee-nor-stm32mp157d-ev1/bl2/stm32mp_ddr_test.o
 .debug_str     0x000093f5      0x2f0 ./../build/optee-nor-stm32mp157d-ev1/bl2/stm32mp_ram.o
 .debug_str     0x000093f5      0x576 ./../build/optee-nor-stm32mp157d-ev1/bl2/stm32_gpio.o
 .debug_str     0x000093f5      0x977 ./../build/optee-nor-stm32mp157d-ev1/bl2/stm32_i2c.o
 .debug_str     0x000093f5      0x4ca ./../build/optee-nor-stm32mp157d-ev1/bl2/stm32_iwdg.o
 .debug_str     0x000093f5      0x434 ./../build/optee-nor-stm32mp157d-ev1/bl2/nvmem.o
 .debug_str     0x000093f5      0x7e0 ./../build/optee-nor-stm32mp157d-ev1/bl2/stm32mp_tamp_nvram_core.o
 .debug_str     0x000093f5      0x41a ./../build/optee-nor-stm32mp157d-ev1/bl2/stm32mp_tamp_nvram_mp1.o
 .debug_str     0x000093f5      0xb22 ./../build/optee-nor-stm32mp157d-ev1/bl2/stm32mp_pmic.o
 .debug_str     0x000093f5      0x7f2 ./../build/optee-nor-stm32mp157d-ev1/bl2/stpmic1.o
 .debug_str     0x000093f5      0x596 ./../build/optee-nor-stm32mp157d-ev1/bl2/regulator_core.o
 .debug_str     0x000093f5      0x3f9 ./../build/optee-nor-stm32mp157d-ev1/bl2/regulator_fixed.o
 .debug_str     0x000093f5      0x373 ./../build/optee-nor-stm32mp157d-ev1/bl2/stm32mp1_reset.o
 .debug_str     0x000093f5      0x6ee ./../build/optee-nor-stm32mp157d-ev1/bl2/stm32_qspi.o
 .debug_str     0x000093f5      0x250 ./../build/optee-nor-stm32mp157d-ev1/bl2/ctzdi2.o
 .debug_str     0x000093f5      0x27b ./../build/optee-nor-stm32mp157d-ev1/bl2/udivmoddi4.o
 .debug_str     0x000093f5      0x40a ./../build/optee-nor-stm32mp157d-ev1/bl2/fconf.o
 .debug_str     0x000093f5      0x517 ./../build/optee-nor-stm32mp157d-ev1/bl2/fconf_dyn_cfg_getter.o
 .debug_str     0x000093f5      0x45e ./../build/optee-nor-stm32mp157d-ev1/bl2/optee_utils.o
 .debug_str     0x000093f5      0x524 ./../build/optee-nor-stm32mp157d-ev1/bl2/xlat_tables_arch.o
 .debug_str     0x000093f5      0x627 ./../build/optee-nor-stm32mp157d-ev1/bl2/xlat_tables_context.o
 .debug_str     0x000093f5      0x8e7 ./../build/optee-nor-stm32mp157d-ev1/bl2/xlat_tables_core.o
 .debug_str     0x000093f5      0x551 ./../build/optee-nor-stm32mp157d-ev1/bl2/xlat_tables_utils.o
 .debug_str     0x000093f5      0x260 ./../build/optee-nor-stm32mp157d-ev1/bl2/crc32.o
 .debug_str     0x000093f5      0x36a ./../build/optee-nor-stm32mp157d-ev1/bl2/tf_gunzip.o
 .debug_str     0x000093f5      0x45b ./../build/optee-nor-stm32mp157d-ev1/bl2/plat_bl_common.o
 .debug_str     0x000093f5      0x27f ./../build/optee-nor-stm32mp157d-ev1/bl2/plat_log_common.o
 .debug_str     0x000093f5      0xccc ./../build/optee-nor-stm32mp157d-ev1/bl2/bl2_io_storage.o
 .debug_str     0x000093f5      0x476 ./../build/optee-nor-stm32mp157d-ev1/bl2/plat_image_load.o
 .debug_str     0x000093f5      0xdfe ./../build/optee-nor-stm32mp157d-ev1/bl2/stm32mp_common.o
 .debug_str     0x000093f5      0x777 ./../build/optee-nor-stm32mp157d-ev1/bl2/stm32mp_dt.o
 .debug_str     0x000093f5      0x458 ./../build/optee-nor-stm32mp157d-ev1/bl2/stm32mp_fconf_fuse.o
 .debug_str     0x000093f5      0x584 ./../build/optee-nor-stm32mp157d-ev1/bl2/stm32mp_fconf_io.o
 .debug_str     0x000093f5      0xf96 ./../build/optee-nor-stm32mp157d-ev1/bl2/bl2_plat_setup.o
 .debug_str     0x000093f5      0x462 ./../build/optee-nor-stm32mp157d-ev1/bl2/plat_bl2_mem_params_desc.o
 .debug_str     0x000093f5      0x40e ./../build/optee-nor-stm32mp157d-ev1/bl2/plat_ddr.o
 .debug_str     0x000093f5      0x31b ./../build/optee-nor-stm32mp157d-ev1/bl2/stm32mp1_boot_device.o
 .debug_str     0x000093f5      0x48d ./../build/optee-nor-stm32mp157d-ev1/bl2/stm32mp1_context.o
 .debug_str     0x000093f5      0x3cd ./../build/optee-nor-stm32mp157d-ev1/bl2/stm32mp1_critic_power.o
 .debug_str     0x000093f5      0x2da ./../build/optee-nor-stm32mp157d-ev1/bl2/stm32mp1_dbgmcu.o
 .debug_str     0x000093f5      0x487 ./../build/optee-nor-stm32mp157d-ev1/bl2/stm32mp1_fconf_firewall.o
 .debug_str     0x000093f5      0x7ba ./../build/optee-nor-stm32mp157d-ev1/bl2/stm32mp1_private.o
 .debug_str     0x000093f5      0x4d1 ./../build/optee-nor-stm32mp157d-ev1/bl2/stm32mp1_syscfg.o
 .debug_str     0x000093f5       0x6a ./../build/optee-nor-stm32mp157d-ev1/bl2/bl2_el3_entrypoint.o
 .debug_str     0x000093f5       0x5b ./../build/optee-nor-stm32mp157d-ev1/bl2/bl2_el3_exceptions.o
 .debug_str     0x000093f5       0x6e ./../build/optee-nor-stm32mp157d-ev1/bl2/bl2_run_next_image.o
 .debug_str     0x000093f5       0xbb ./../build/optee-nor-stm32mp157d-ev1/bl2/debug.o
 .debug_str     0x000093f5      0x101 ./../build/optee-nor-stm32mp157d-ev1/bl2/stm32_console.o
 .debug_str     0x000093f5       0xdf ./../build/optee-nor-stm32mp157d-ev1/bl2/cache_helpers.o
 .debug_str     0x000093f5       0xb5 ./../build/optee-nor-stm32mp157d-ev1/bl2/misc_helpers.o
 .debug_str     0x000093f5       0x79 ./../build/optee-nor-stm32mp157d-ev1/bl2/aeabi_uldivmod.o
 .debug_str     0x000093f5       0xc8 ./../build/optee-nor-stm32mp157d-ev1/bl2/cortex_a7.o
 .debug_str     0x000093f5       0xa5 ./../build/optee-nor-stm32mp157d-ev1/bl2/cpu_helpers.o
 .debug_str     0x000093f5       0x77 ./../build/optee-nor-stm32mp157d-ev1/bl2/spinlock.o
 .debug_str     0x000093f5       0x92 ./../build/optee-nor-stm32mp157d-ev1/bl2/enable_mmu.o
 .debug_str     0x000093f5       0x86 ./../build/optee-nor-stm32mp157d-ev1/bl2/platform_up_stack.o
 .debug_str     0x000093f5       0x86 ./../build/optee-nor-stm32mp157d-ev1/bl2/stm32mp1_critic_power_wrapper.o
 .debug_str     0x000093f5      0x19f ./../build/optee-nor-stm32mp157d-ev1/bl2/stm32mp1_helper.o
 .debug_str     0x000093f5      0x4bd ./../build/optee-nor-stm32mp157d-ev1/lib/libfdt.a(fdt.o)
 .debug_str     0x000093f5      0x2bd ./../build/optee-nor-stm32mp157d-ev1/lib/libfdt.a(fdt_addresses.o)
 .debug_str     0x000093f5      0x8cb ./../build/optee-nor-stm32mp157d-ev1/lib/libfdt.a(fdt_ro.o)
 .debug_str     0x000093f5      0x229 ./../build/optee-nor-stm32mp157d-ev1/lib/libc.a(assert.o)
 .debug_str     0x000093f5      0x184 ./../build/optee-nor-stm32mp157d-ev1/lib/libc.a(memchr.o)
 .debug_str     0x000093f5      0x184 ./../build/optee-nor-stm32mp157d-ev1/lib/libc.a(memcmp.o)
 .debug_str     0x000093f5      0x17b ./../build/optee-nor-stm32mp157d-ev1/lib/libc.a(memcpy.o)
 .debug_str     0x000093f5      0x184 ./../build/optee-nor-stm32mp157d-ev1/lib/libc.a(memmove.o)
 .debug_str     0x000093f5      0x1f9 ./../build/optee-nor-stm32mp157d-ev1/lib/libc.a(memset.o)
 .debug_str     0x000093f5      0x273 ./../build/optee-nor-stm32mp157d-ev1/lib/libc.a(printf.o)
 .debug_str     0x000093f5      0x2a3 ./../build/optee-nor-stm32mp157d-ev1/lib/libc.a(snprintf.o)
 .debug_str     0x000093f5      0x174 ./../build/optee-nor-stm32mp157d-ev1/lib/libc.a(strchr.o)
 .debug_str     0x000093f5      0x15d ./../build/optee-nor-stm32mp157d-ev1/lib/libc.a(strcmp.o)
 .debug_str     0x000093f5      0x1e5 ./../build/optee-nor-stm32mp157d-ev1/lib/libc.a(strlcpy.o)
 .debug_str     0x000093f5      0x182 ./../build/optee-nor-stm32mp157d-ev1/lib/libc.a(strlen.o)
 .debug_str     0x000093f5      0x17d ./../build/optee-nor-stm32mp157d-ev1/lib/libc.a(strncmp.o)
 .debug_str     0x000093f5      0x16d ./../build/optee-nor-stm32mp157d-ev1/lib/libc.a(strnlen.o)
 .debug_str     0x000093f5      0x17b ./../build/optee-nor-stm32mp157d-ev1/lib/libc.a(strrchr.o)

.comment        0x00000000       0x12
 .comment       0x00000000       0x12 ./../build/optee-nor-stm32mp157d-ev1/bl2/build_message.o
                                 0x13 (size before relaxing)
 .comment       0x00000012       0x13 ./../build/optee-nor-stm32mp157d-ev1/bl2/bl2_arch_setup.o
 .comment       0x00000012       0x13 ./../build/optee-nor-stm32mp157d-ev1/bl2/bl2_image_load_v2.o
 .comment       0x00000012       0x13 ./../build/optee-nor-stm32mp157d-ev1/bl2/bl2_main.o
 .comment       0x00000012       0x13 ./../build/optee-nor-stm32mp157d-ev1/bl2/bl_common.o
 .comment       0x00000012       0x13 ./../build/optee-nor-stm32mp157d-ev1/bl2/desc_image_load.o
 .comment       0x00000012       0x13 ./../build/optee-nor-stm32mp157d-ev1/bl2/fdt_wrappers.o
 .comment       0x00000012       0x13 ./../build/optee-nor-stm32mp157d-ev1/bl2/tf_log.o
 .comment       0x00000012       0x13 ./../build/optee-nor-stm32mp157d-ev1/bl2/uuid.o
 .comment       0x00000012       0x13 ./../build/optee-nor-stm32mp157d-ev1/bl2/tzc400.o
 .comment       0x00000012       0x13 ./../build/optee-nor-stm32mp157d-ev1/bl2/clk.o
 .comment       0x00000012       0x13 ./../build/optee-nor-stm32mp157d-ev1/bl2/multi_console.o
 .comment       0x00000012       0x13 ./../build/optee-nor-stm32mp157d-ev1/bl2/delay_timer.o
 .comment       0x00000012       0x13 ./../build/optee-nor-stm32mp157d-ev1/bl2/generic_delay_timer.o
 .comment       0x00000012       0x13 ./../build/optee-nor-stm32mp157d-ev1/bl2/fwu.o
 .comment       0x00000012       0x13 ./../build/optee-nor-stm32mp157d-ev1/bl2/io_fip.o
 .comment       0x00000012       0x13 ./../build/optee-nor-stm32mp157d-ev1/bl2/io_mtd.o
 .comment       0x00000012       0x13 ./../build/optee-nor-stm32mp157d-ev1/bl2/io_storage.o
 .comment       0x00000012       0x13 ./../build/optee-nor-stm32mp157d-ev1/bl2/spi_nor.o
 .comment       0x00000012       0x13 ./../build/optee-nor-stm32mp157d-ev1/bl2/spi_mem.o
 .comment       0x00000012       0x13 ./../build/optee-nor-stm32mp157d-ev1/bl2/bsec2.o
 .comment       0x00000012       0x13 ./../build/optee-nor-stm32mp157d-ev1/bl2/stm32mp1_clk.o
 .comment       0x00000012       0x13 ./../build/optee-nor-stm32mp157d-ev1/bl2/stm32mp_clkfunc.o
 .comment       0x00000012       0x13 ./../build/optee-nor-stm32mp157d-ev1/bl2/stm32mp1_ddr.o
 .comment       0x00000012       0x13 ./../build/optee-nor-stm32mp157d-ev1/bl2/stm32mp1_ddr_helpers.o
 .comment       0x00000012       0x13 ./../build/optee-nor-stm32mp157d-ev1/bl2/stm32mp1_ram.o
 .comment       0x00000012       0x13 ./../build/optee-nor-stm32mp157d-ev1/bl2/stm32mp_ddr.o
 .comment       0x00000012       0x13 ./../build/optee-nor-stm32mp157d-ev1/bl2/stm32mp_ddr_test.o
 .comment       0x00000012       0x13 ./../build/optee-nor-stm32mp157d-ev1/bl2/stm32mp_ram.o
 .comment       0x00000012       0x13 ./../build/optee-nor-stm32mp157d-ev1/bl2/stm32_gpio.o
 .comment       0x00000012       0x13 ./../build/optee-nor-stm32mp157d-ev1/bl2/stm32_i2c.o
 .comment       0x00000012       0x13 ./../build/optee-nor-stm32mp157d-ev1/bl2/stm32_iwdg.o
 .comment       0x00000012       0x13 ./../build/optee-nor-stm32mp157d-ev1/bl2/nvmem.o
 .comment       0x00000012       0x13 ./../build/optee-nor-stm32mp157d-ev1/bl2/stm32mp_tamp_nvram_core.o
 .comment       0x00000012       0x13 ./../build/optee-nor-stm32mp157d-ev1/bl2/stm32mp_tamp_nvram_mp1.o
 .comment       0x00000012       0x13 ./../build/optee-nor-stm32mp157d-ev1/bl2/stm32mp_pmic.o
 .comment       0x00000012       0x13 ./../build/optee-nor-stm32mp157d-ev1/bl2/stpmic1.o
 .comment       0x00000012       0x13 ./../build/optee-nor-stm32mp157d-ev1/bl2/regulator_core.o
 .comment       0x00000012       0x13 ./../build/optee-nor-stm32mp157d-ev1/bl2/regulator_fixed.o
 .comment       0x00000012       0x13 ./../build/optee-nor-stm32mp157d-ev1/bl2/stm32mp1_reset.o
 .comment       0x00000012       0x13 ./../build/optee-nor-stm32mp157d-ev1/bl2/stm32_qspi.o
 .comment       0x00000012       0x13 ./../build/optee-nor-stm32mp157d-ev1/bl2/ctzdi2.o
 .comment       0x00000012       0x13 ./../build/optee-nor-stm32mp157d-ev1/bl2/udivmoddi4.o
 .comment       0x00000012       0x13 ./../build/optee-nor-stm32mp157d-ev1/bl2/fconf.o
 .comment       0x00000012       0x13 ./../build/optee-nor-stm32mp157d-ev1/bl2/fconf_dyn_cfg_getter.o
 .comment       0x00000012       0x13 ./../build/optee-nor-stm32mp157d-ev1/bl2/optee_utils.o
 .comment       0x00000012       0x13 ./../build/optee-nor-stm32mp157d-ev1/bl2/xlat_tables_arch.o
 .comment       0x00000012       0x13 ./../build/optee-nor-stm32mp157d-ev1/bl2/xlat_tables_context.o
 .comment       0x00000012       0x13 ./../build/optee-nor-stm32mp157d-ev1/bl2/xlat_tables_core.o
 .comment       0x00000012       0x13 ./../build/optee-nor-stm32mp157d-ev1/bl2/xlat_tables_utils.o
 .comment       0x00000012       0x13 ./../build/optee-nor-stm32mp157d-ev1/bl2/crc32.o
 .comment       0x00000012       0x13 ./../build/optee-nor-stm32mp157d-ev1/bl2/tf_gunzip.o
 .comment       0x00000012       0x13 ./../build/optee-nor-stm32mp157d-ev1/bl2/plat_bl_common.o
 .comment       0x00000012       0x13 ./../build/optee-nor-stm32mp157d-ev1/bl2/plat_log_common.o
 .comment       0x00000012       0x13 ./../build/optee-nor-stm32mp157d-ev1/bl2/bl2_io_storage.o
 .comment       0x00000012       0x13 ./../build/optee-nor-stm32mp157d-ev1/bl2/plat_image_load.o
 .comment       0x00000012       0x13 ./../build/optee-nor-stm32mp157d-ev1/bl2/stm32mp_common.o
 .comment       0x00000012       0x13 ./../build/optee-nor-stm32mp157d-ev1/bl2/stm32mp_dt.o
 .comment       0x00000012       0x13 ./../build/optee-nor-stm32mp157d-ev1/bl2/stm32mp_fconf_fuse.o
 .comment       0x00000012       0x13 ./../build/optee-nor-stm32mp157d-ev1/bl2/stm32mp_fconf_io.o
 .comment       0x00000012       0x13 ./../build/optee-nor-stm32mp157d-ev1/bl2/bl2_plat_setup.o
 .comment       0x00000012       0x13 ./../build/optee-nor-stm32mp157d-ev1/bl2/plat_bl2_mem_params_desc.o
 .comment       0x00000012       0x13 ./../build/optee-nor-stm32mp157d-ev1/bl2/plat_ddr.o
 .comment       0x00000012       0x13 ./../build/optee-nor-stm32mp157d-ev1/bl2/stm32mp1_boot_device.o
 .comment       0x00000012       0x13 ./../build/optee-nor-stm32mp157d-ev1/bl2/stm32mp1_context.o
 .comment       0x00000012       0x13 ./../build/optee-nor-stm32mp157d-ev1/bl2/stm32mp1_critic_power.o
 .comment       0x00000012       0x13 ./../build/optee-nor-stm32mp157d-ev1/bl2/stm32mp1_dbgmcu.o
 .comment       0x00000012       0x13 ./../build/optee-nor-stm32mp157d-ev1/bl2/stm32mp1_fconf_firewall.o
 .comment       0x00000012       0x13 ./../build/optee-nor-stm32mp157d-ev1/bl2/stm32mp1_private.o
 .comment       0x00000012       0x13 ./../build/optee-nor-stm32mp157d-ev1/bl2/stm32mp1_syscfg.o
 .comment       0x00000012       0x13 ./../build/optee-nor-stm32mp157d-ev1/lib/libfdt.a(fdt.o)
 .comment       0x00000012       0x13 ./../build/optee-nor-stm32mp157d-ev1/lib/libfdt.a(fdt_addresses.o)
 .comment       0x00000012       0x13 ./../build/optee-nor-stm32mp157d-ev1/lib/libfdt.a(fdt_ro.o)
 .comment       0x00000012       0x13 ./../build/optee-nor-stm32mp157d-ev1/lib/libc.a(assert.o)
 .comment       0x00000012       0x13 ./../build/optee-nor-stm32mp157d-ev1/lib/libc.a(memchr.o)
 .comment       0x00000012       0x13 ./../build/optee-nor-stm32mp157d-ev1/lib/libc.a(memcmp.o)
 .comment       0x00000012       0x13 ./../build/optee-nor-stm32mp157d-ev1/lib/libc.a(memcpy.o)
 .comment       0x00000012       0x13 ./../build/optee-nor-stm32mp157d-ev1/lib/libc.a(memmove.o)
 .comment       0x00000012       0x13 ./../build/optee-nor-stm32mp157d-ev1/lib/libc.a(memset.o)
 .comment       0x00000012       0x13 ./../build/optee-nor-stm32mp157d-ev1/lib/libc.a(printf.o)
 .comment       0x00000012       0x13 ./../build/optee-nor-stm32mp157d-ev1/lib/libc.a(snprintf.o)
 .comment       0x00000012       0x13 ./../build/optee-nor-stm32mp157d-ev1/lib/libc.a(strchr.o)
 .comment       0x00000012       0x13 ./../build/optee-nor-stm32mp157d-ev1/lib/libc.a(strcmp.o)
 .comment       0x00000012       0x13 ./../build/optee-nor-stm32mp157d-ev1/lib/libc.a(strlcpy.o)
 .comment       0x00000012       0x13 ./../build/optee-nor-stm32mp157d-ev1/lib/libc.a(strlen.o)
 .comment       0x00000012       0x13 ./../build/optee-nor-stm32mp157d-ev1/lib/libc.a(strncmp.o)
 .comment       0x00000012       0x13 ./../build/optee-nor-stm32mp157d-ev1/lib/libc.a(strnlen.o)
 .comment       0x00000012       0x13 ./../build/optee-nor-stm32mp157d-ev1/lib/libc.a(strrchr.o)

.note.GNU-stack
                0x00000000        0x0
 .note.GNU-stack
                0x00000000        0x0 ./../build/optee-nor-stm32mp157d-ev1/bl2/build_message.o
 .note.GNU-stack
                0x00000000        0x0 ./../build/optee-nor-stm32mp157d-ev1/bl2/bl2_arch_setup.o
 .note.GNU-stack
                0x00000000        0x0 ./../build/optee-nor-stm32mp157d-ev1/bl2/bl2_image_load_v2.o
 .note.GNU-stack
                0x00000000        0x0 ./../build/optee-nor-stm32mp157d-ev1/bl2/bl2_main.o
 .note.GNU-stack
                0x00000000        0x0 ./../build/optee-nor-stm32mp157d-ev1/bl2/bl_common.o
 .note.GNU-stack
                0x00000000        0x0 ./../build/optee-nor-stm32mp157d-ev1/bl2/desc_image_load.o
 .note.GNU-stack
                0x00000000        0x0 ./../build/optee-nor-stm32mp157d-ev1/bl2/fdt_wrappers.o
 .note.GNU-stack
                0x00000000        0x0 ./../build/optee-nor-stm32mp157d-ev1/bl2/tf_log.o
 .note.GNU-stack
                0x00000000        0x0 ./../build/optee-nor-stm32mp157d-ev1/bl2/uuid.o
 .note.GNU-stack
                0x00000000        0x0 ./../build/optee-nor-stm32mp157d-ev1/bl2/tzc400.o
 .note.GNU-stack
                0x00000000        0x0 ./../build/optee-nor-stm32mp157d-ev1/bl2/clk.o
 .note.GNU-stack
                0x00000000        0x0 ./../build/optee-nor-stm32mp157d-ev1/bl2/multi_console.o
 .note.GNU-stack
                0x00000000        0x0 ./../build/optee-nor-stm32mp157d-ev1/bl2/delay_timer.o
 .note.GNU-stack
                0x00000000        0x0 ./../build/optee-nor-stm32mp157d-ev1/bl2/generic_delay_timer.o
 .note.GNU-stack
                0x00000000        0x0 ./../build/optee-nor-stm32mp157d-ev1/bl2/fwu.o
 .note.GNU-stack
                0x00000000        0x0 ./../build/optee-nor-stm32mp157d-ev1/bl2/io_fip.o
 .note.GNU-stack
                0x00000000        0x0 ./../build/optee-nor-stm32mp157d-ev1/bl2/io_mtd.o
 .note.GNU-stack
                0x00000000        0x0 ./../build/optee-nor-stm32mp157d-ev1/bl2/io_storage.o
 .note.GNU-stack
                0x00000000        0x0 ./../build/optee-nor-stm32mp157d-ev1/bl2/spi_nor.o
 .note.GNU-stack
                0x00000000        0x0 ./../build/optee-nor-stm32mp157d-ev1/bl2/spi_mem.o
 .note.GNU-stack
                0x00000000        0x0 ./../build/optee-nor-stm32mp157d-ev1/bl2/bsec2.o
 .note.GNU-stack
                0x00000000        0x0 ./../build/optee-nor-stm32mp157d-ev1/bl2/stm32mp1_clk.o
 .note.GNU-stack
                0x00000000        0x0 ./../build/optee-nor-stm32mp157d-ev1/bl2/stm32mp_clkfunc.o
 .note.GNU-stack
                0x00000000        0x0 ./../build/optee-nor-stm32mp157d-ev1/bl2/stm32mp1_ddr.o
 .note.GNU-stack
                0x00000000        0x0 ./../build/optee-nor-stm32mp157d-ev1/bl2/stm32mp1_ddr_helpers.o
 .note.GNU-stack
                0x00000000        0x0 ./../build/optee-nor-stm32mp157d-ev1/bl2/stm32mp1_ram.o
 .note.GNU-stack
                0x00000000        0x0 ./../build/optee-nor-stm32mp157d-ev1/bl2/stm32mp_ddr.o
 .note.GNU-stack
                0x00000000        0x0 ./../build/optee-nor-stm32mp157d-ev1/bl2/stm32mp_ddr_test.o
 .note.GNU-stack
                0x00000000        0x0 ./../build/optee-nor-stm32mp157d-ev1/bl2/stm32mp_ram.o
 .note.GNU-stack
                0x00000000        0x0 ./../build/optee-nor-stm32mp157d-ev1/bl2/stm32_gpio.o
 .note.GNU-stack
                0x00000000        0x0 ./../build/optee-nor-stm32mp157d-ev1/bl2/stm32_i2c.o
 .note.GNU-stack
                0x00000000        0x0 ./../build/optee-nor-stm32mp157d-ev1/bl2/stm32_iwdg.o
 .note.GNU-stack
                0x00000000        0x0 ./../build/optee-nor-stm32mp157d-ev1/bl2/nvmem.o
 .note.GNU-stack
                0x00000000        0x0 ./../build/optee-nor-stm32mp157d-ev1/bl2/stm32mp_tamp_nvram_core.o
 .note.GNU-stack
                0x00000000        0x0 ./../build/optee-nor-stm32mp157d-ev1/bl2/stm32mp_tamp_nvram_mp1.o
 .note.GNU-stack
                0x00000000        0x0 ./../build/optee-nor-stm32mp157d-ev1/bl2/stm32mp_pmic.o
 .note.GNU-stack
                0x00000000        0x0 ./../build/optee-nor-stm32mp157d-ev1/bl2/stpmic1.o
 .note.GNU-stack
                0x00000000        0x0 ./../build/optee-nor-stm32mp157d-ev1/bl2/regulator_core.o
 .note.GNU-stack
                0x00000000        0x0 ./../build/optee-nor-stm32mp157d-ev1/bl2/regulator_fixed.o
 .note.GNU-stack
                0x00000000        0x0 ./../build/optee-nor-stm32mp157d-ev1/bl2/stm32mp1_reset.o
 .note.GNU-stack
                0x00000000        0x0 ./../build/optee-nor-stm32mp157d-ev1/bl2/stm32_qspi.o
 .note.GNU-stack
                0x00000000        0x0 ./../build/optee-nor-stm32mp157d-ev1/bl2/ctzdi2.o
 .note.GNU-stack
                0x00000000        0x0 ./../build/optee-nor-stm32mp157d-ev1/bl2/udivmoddi4.o
 .note.GNU-stack
                0x00000000        0x0 ./../build/optee-nor-stm32mp157d-ev1/bl2/fconf.o
 .note.GNU-stack
                0x00000000        0x0 ./../build/optee-nor-stm32mp157d-ev1/bl2/fconf_dyn_cfg_getter.o
 .note.GNU-stack
                0x00000000        0x0 ./../build/optee-nor-stm32mp157d-ev1/bl2/optee_utils.o
 .note.GNU-stack
                0x00000000        0x0 ./../build/optee-nor-stm32mp157d-ev1/bl2/xlat_tables_arch.o
 .note.GNU-stack
                0x00000000        0x0 ./../build/optee-nor-stm32mp157d-ev1/bl2/xlat_tables_context.o
 .note.GNU-stack
                0x00000000        0x0 ./../build/optee-nor-stm32mp157d-ev1/bl2/xlat_tables_core.o
 .note.GNU-stack
                0x00000000        0x0 ./../build/optee-nor-stm32mp157d-ev1/bl2/xlat_tables_utils.o
 .note.GNU-stack
                0x00000000        0x0 ./../build/optee-nor-stm32mp157d-ev1/bl2/crc32.o
 .note.GNU-stack
                0x00000000        0x0 ./../build/optee-nor-stm32mp157d-ev1/bl2/tf_gunzip.o
 .note.GNU-stack
                0x00000000        0x0 ./../build/optee-nor-stm32mp157d-ev1/bl2/plat_bl_common.o
 .note.GNU-stack
                0x00000000        0x0 ./../build/optee-nor-stm32mp157d-ev1/bl2/plat_log_common.o
 .note.GNU-stack
                0x00000000        0x0 ./../build/optee-nor-stm32mp157d-ev1/bl2/bl2_io_storage.o
 .note.GNU-stack
                0x00000000        0x0 ./../build/optee-nor-stm32mp157d-ev1/bl2/plat_image_load.o
 .note.GNU-stack
                0x00000000        0x0 ./../build/optee-nor-stm32mp157d-ev1/bl2/stm32mp_common.o
 .note.GNU-stack
                0x00000000        0x0 ./../build/optee-nor-stm32mp157d-ev1/bl2/stm32mp_dt.o
 .note.GNU-stack
                0x00000000        0x0 ./../build/optee-nor-stm32mp157d-ev1/bl2/stm32mp_fconf_fuse.o
 .note.GNU-stack
                0x00000000        0x0 ./../build/optee-nor-stm32mp157d-ev1/bl2/stm32mp_fconf_io.o
 .note.GNU-stack
                0x00000000        0x0 ./../build/optee-nor-stm32mp157d-ev1/bl2/bl2_plat_setup.o
 .note.GNU-stack
                0x00000000        0x0 ./../build/optee-nor-stm32mp157d-ev1/bl2/plat_bl2_mem_params_desc.o
 .note.GNU-stack
                0x00000000        0x0 ./../build/optee-nor-stm32mp157d-ev1/bl2/plat_ddr.o
 .note.GNU-stack
                0x00000000        0x0 ./../build/optee-nor-stm32mp157d-ev1/bl2/stm32mp1_boot_device.o
 .note.GNU-stack
                0x00000000        0x0 ./../build/optee-nor-stm32mp157d-ev1/bl2/stm32mp1_context.o
 .note.GNU-stack
                0x00000000        0x0 ./../build/optee-nor-stm32mp157d-ev1/bl2/stm32mp1_critic_power.o
 .note.GNU-stack
                0x00000000        0x0 ./../build/optee-nor-stm32mp157d-ev1/bl2/stm32mp1_dbgmcu.o
 .note.GNU-stack
                0x00000000        0x0 ./../build/optee-nor-stm32mp157d-ev1/bl2/stm32mp1_fconf_firewall.o
 .note.GNU-stack
                0x00000000        0x0 ./../build/optee-nor-stm32mp157d-ev1/bl2/stm32mp1_private.o
 .note.GNU-stack
                0x00000000        0x0 ./../build/optee-nor-stm32mp157d-ev1/bl2/stm32mp1_syscfg.o
 .note.GNU-stack
                0x00000000        0x0 ./../build/optee-nor-stm32mp157d-ev1/bl2/aeabi_uldivmod.o
 .note.GNU-stack
                0x00000000        0x0 ./../build/optee-nor-stm32mp157d-ev1/lib/libfdt.a(fdt.o)
 .note.GNU-stack
                0x00000000        0x0 ./../build/optee-nor-stm32mp157d-ev1/lib/libfdt.a(fdt_addresses.o)
 .note.GNU-stack
                0x00000000        0x0 ./../build/optee-nor-stm32mp157d-ev1/lib/libfdt.a(fdt_ro.o)
 .note.GNU-stack
                0x00000000        0x0 ./../build/optee-nor-stm32mp157d-ev1/lib/libc.a(assert.o)
 .note.GNU-stack
                0x00000000        0x0 ./../build/optee-nor-stm32mp157d-ev1/lib/libc.a(memchr.o)
 .note.GNU-stack
                0x00000000        0x0 ./../build/optee-nor-stm32mp157d-ev1/lib/libc.a(memcmp.o)
 .note.GNU-stack
                0x00000000        0x0 ./../build/optee-nor-stm32mp157d-ev1/lib/libc.a(memcpy.o)
 .note.GNU-stack
                0x00000000        0x0 ./../build/optee-nor-stm32mp157d-ev1/lib/libc.a(memmove.o)
 .note.GNU-stack
                0x00000000        0x0 ./../build/optee-nor-stm32mp157d-ev1/lib/libc.a(memset.o)
 .note.GNU-stack
                0x00000000        0x0 ./../build/optee-nor-stm32mp157d-ev1/lib/libc.a(printf.o)
 .note.GNU-stack
                0x00000000        0x0 ./../build/optee-nor-stm32mp157d-ev1/lib/libc.a(snprintf.o)
 .note.GNU-stack
                0x00000000        0x0 ./../build/optee-nor-stm32mp157d-ev1/lib/libc.a(strchr.o)
 .note.GNU-stack
                0x00000000        0x0 ./../build/optee-nor-stm32mp157d-ev1/lib/libc.a(strcmp.o)
 .note.GNU-stack
                0x00000000        0x0 ./../build/optee-nor-stm32mp157d-ev1/lib/libc.a(strlcpy.o)
 .note.GNU-stack
                0x00000000        0x0 ./../build/optee-nor-stm32mp157d-ev1/lib/libc.a(strlen.o)
 .note.GNU-stack
                0x00000000        0x0 ./../build/optee-nor-stm32mp157d-ev1/lib/libc.a(strncmp.o)
 .note.GNU-stack
                0x00000000        0x0 ./../build/optee-nor-stm32mp157d-ev1/lib/libc.a(strnlen.o)
 .note.GNU-stack
                0x00000000        0x0 ./../build/optee-nor-stm32mp157d-ev1/lib/libc.a(strrchr.o)

.ARM.attributes
                0x00000000       0x35
 .ARM.attributes
                0x00000000       0x33 ./../build/optee-nor-stm32mp157d-ev1/bl2/build_message.o
 .ARM.attributes
                0x00000033       0x33 ./../build/optee-nor-stm32mp157d-ev1/bl2/bl2_arch_setup.o
 .ARM.attributes
                0x00000066       0x33 ./../build/optee-nor-stm32mp157d-ev1/bl2/bl2_image_load_v2.o
 .ARM.attributes
                0x00000099       0x33 ./../build/optee-nor-stm32mp157d-ev1/bl2/bl2_main.o
 .ARM.attributes
                0x000000cc       0x33 ./../build/optee-nor-stm32mp157d-ev1/bl2/bl_common.o
 .ARM.attributes
                0x000000ff       0x33 ./../build/optee-nor-stm32mp157d-ev1/bl2/desc_image_load.o
 .ARM.attributes
                0x00000132       0x33 ./../build/optee-nor-stm32mp157d-ev1/bl2/fdt_wrappers.o
 .ARM.attributes
                0x00000165       0x33 ./../build/optee-nor-stm32mp157d-ev1/bl2/tf_log.o
 .ARM.attributes
                0x00000198       0x33 ./../build/optee-nor-stm32mp157d-ev1/bl2/uuid.o
 .ARM.attributes
                0x000001cb       0x33 ./../build/optee-nor-stm32mp157d-ev1/bl2/tzc400.o
 .ARM.attributes
                0x000001fe       0x33 ./../build/optee-nor-stm32mp157d-ev1/bl2/clk.o
 .ARM.attributes
                0x00000231       0x33 ./../build/optee-nor-stm32mp157d-ev1/bl2/multi_console.o
 .ARM.attributes
                0x00000264       0x33 ./../build/optee-nor-stm32mp157d-ev1/bl2/delay_timer.o
 .ARM.attributes
                0x00000297       0x33 ./../build/optee-nor-stm32mp157d-ev1/bl2/generic_delay_timer.o
 .ARM.attributes
                0x000002ca       0x33 ./../build/optee-nor-stm32mp157d-ev1/bl2/fwu.o
 .ARM.attributes
                0x000002fd       0x33 ./../build/optee-nor-stm32mp157d-ev1/bl2/io_fip.o
 .ARM.attributes
                0x00000330       0x33 ./../build/optee-nor-stm32mp157d-ev1/bl2/io_mtd.o
 .ARM.attributes
                0x00000363       0x33 ./../build/optee-nor-stm32mp157d-ev1/bl2/io_storage.o
 .ARM.attributes
                0x00000396       0x33 ./../build/optee-nor-stm32mp157d-ev1/bl2/spi_nor.o
 .ARM.attributes
                0x000003c9       0x33 ./../build/optee-nor-stm32mp157d-ev1/bl2/spi_mem.o
 .ARM.attributes
                0x000003fc       0x33 ./../build/optee-nor-stm32mp157d-ev1/bl2/bsec2.o
 .ARM.attributes
                0x0000042f       0x33 ./../build/optee-nor-stm32mp157d-ev1/bl2/stm32mp1_clk.o
 .ARM.attributes
                0x00000462       0x33 ./../build/optee-nor-stm32mp157d-ev1/bl2/stm32mp_clkfunc.o
 .ARM.attributes
                0x00000495       0x33 ./../build/optee-nor-stm32mp157d-ev1/bl2/stm32mp1_ddr.o
 .ARM.attributes
                0x000004c8       0x33 ./../build/optee-nor-stm32mp157d-ev1/bl2/stm32mp1_ddr_helpers.o
 .ARM.attributes
                0x000004fb       0x33 ./../build/optee-nor-stm32mp157d-ev1/bl2/stm32mp1_ram.o
 .ARM.attributes
                0x0000052e       0x33 ./../build/optee-nor-stm32mp157d-ev1/bl2/stm32mp_ddr.o
 .ARM.attributes
                0x00000561       0x33 ./../build/optee-nor-stm32mp157d-ev1/bl2/stm32mp_ddr_test.o
 .ARM.attributes
                0x00000594       0x33 ./../build/optee-nor-stm32mp157d-ev1/bl2/stm32mp_ram.o
 .ARM.attributes
                0x000005c7       0x33 ./../build/optee-nor-stm32mp157d-ev1/bl2/stm32_gpio.o
 .ARM.attributes
                0x000005fa       0x33 ./../build/optee-nor-stm32mp157d-ev1/bl2/stm32_i2c.o
 .ARM.attributes
                0x0000062d       0x33 ./../build/optee-nor-stm32mp157d-ev1/bl2/stm32_iwdg.o
 .ARM.attributes
                0x00000660       0x33 ./../build/optee-nor-stm32mp157d-ev1/bl2/nvmem.o
 .ARM.attributes
                0x00000693       0x33 ./../build/optee-nor-stm32mp157d-ev1/bl2/stm32mp_tamp_nvram_core.o
 .ARM.attributes
                0x000006c6       0x33 ./../build/optee-nor-stm32mp157d-ev1/bl2/stm32mp_tamp_nvram_mp1.o
 .ARM.attributes
                0x000006f9       0x33 ./../build/optee-nor-stm32mp157d-ev1/bl2/stm32mp_pmic.o
 .ARM.attributes
                0x0000072c       0x33 ./../build/optee-nor-stm32mp157d-ev1/bl2/stpmic1.o
 .ARM.attributes
                0x0000075f       0x33 ./../build/optee-nor-stm32mp157d-ev1/bl2/regulator_core.o
 .ARM.attributes
                0x00000792       0x33 ./../build/optee-nor-stm32mp157d-ev1/bl2/regulator_fixed.o
 .ARM.attributes
                0x000007c5       0x33 ./../build/optee-nor-stm32mp157d-ev1/bl2/stm32mp1_reset.o
 .ARM.attributes
                0x000007f8       0x33 ./../build/optee-nor-stm32mp157d-ev1/bl2/stm32_qspi.o
 .ARM.attributes
                0x0000082b       0x33 ./../build/optee-nor-stm32mp157d-ev1/bl2/ctzdi2.o
 .ARM.attributes
                0x0000085e       0x33 ./../build/optee-nor-stm32mp157d-ev1/bl2/udivmoddi4.o
 .ARM.attributes
                0x00000891       0x33 ./../build/optee-nor-stm32mp157d-ev1/bl2/fconf.o
 .ARM.attributes
                0x000008c4       0x33 ./../build/optee-nor-stm32mp157d-ev1/bl2/fconf_dyn_cfg_getter.o
 .ARM.attributes
                0x000008f7       0x33 ./../build/optee-nor-stm32mp157d-ev1/bl2/optee_utils.o
 .ARM.attributes
                0x0000092a       0x33 ./../build/optee-nor-stm32mp157d-ev1/bl2/xlat_tables_arch.o
 .ARM.attributes
                0x0000095d       0x33 ./../build/optee-nor-stm32mp157d-ev1/bl2/xlat_tables_context.o
 .ARM.attributes
                0x00000990       0x33 ./../build/optee-nor-stm32mp157d-ev1/bl2/xlat_tables_core.o
 .ARM.attributes
                0x000009c3       0x33 ./../build/optee-nor-stm32mp157d-ev1/bl2/xlat_tables_utils.o
 .ARM.attributes
                0x000009f6       0x33 ./../build/optee-nor-stm32mp157d-ev1/bl2/crc32.o
 .ARM.attributes
                0x00000a29       0x33 ./../build/optee-nor-stm32mp157d-ev1/bl2/tf_gunzip.o
 .ARM.attributes
                0x00000a5c       0x33 ./../build/optee-nor-stm32mp157d-ev1/bl2/plat_bl_common.o
 .ARM.attributes
                0x00000a8f       0x33 ./../build/optee-nor-stm32mp157d-ev1/bl2/plat_log_common.o
 .ARM.attributes
                0x00000ac2       0x33 ./../build/optee-nor-stm32mp157d-ev1/bl2/bl2_io_storage.o
 .ARM.attributes
                0x00000af5       0x33 ./../build/optee-nor-stm32mp157d-ev1/bl2/plat_image_load.o
 .ARM.attributes
                0x00000b28       0x33 ./../build/optee-nor-stm32mp157d-ev1/bl2/stm32mp_common.o
 .ARM.attributes
                0x00000b5b       0x33 ./../build/optee-nor-stm32mp157d-ev1/bl2/stm32mp_dt.o
 .ARM.attributes
                0x00000b8e       0x33 ./../build/optee-nor-stm32mp157d-ev1/bl2/stm32mp_fconf_fuse.o
 .ARM.attributes
                0x00000bc1       0x33 ./../build/optee-nor-stm32mp157d-ev1/bl2/stm32mp_fconf_io.o
 .ARM.attributes
                0x00000bf4       0x33 ./../build/optee-nor-stm32mp157d-ev1/bl2/bl2_plat_setup.o
 .ARM.attributes
                0x00000c27       0x33 ./../build/optee-nor-stm32mp157d-ev1/bl2/plat_bl2_mem_params_desc.o
 .ARM.attributes
                0x00000c5a       0x33 ./../build/optee-nor-stm32mp157d-ev1/bl2/plat_ddr.o
 .ARM.attributes
                0x00000c8d       0x33 ./../build/optee-nor-stm32mp157d-ev1/bl2/stm32mp1_boot_device.o
 .ARM.attributes
                0x00000cc0       0x33 ./../build/optee-nor-stm32mp157d-ev1/bl2/stm32mp1_context.o
 .ARM.attributes
                0x00000cf3       0x33 ./../build/optee-nor-stm32mp157d-ev1/bl2/stm32mp1_critic_power.o
 .ARM.attributes
                0x00000d26       0x33 ./../build/optee-nor-stm32mp157d-ev1/bl2/stm32mp1_dbgmcu.o
 .ARM.attributes
                0x00000d59       0x33 ./../build/optee-nor-stm32mp157d-ev1/bl2/stm32mp1_fconf_firewall.o
 .ARM.attributes
                0x00000d8c       0x33 ./../build/optee-nor-stm32mp157d-ev1/bl2/stm32mp1_private.o
 .ARM.attributes
                0x00000dbf       0x33 ./../build/optee-nor-stm32mp157d-ev1/bl2/stm32mp1_syscfg.o
 .ARM.attributes
                0x00000df2       0x27 ./../build/optee-nor-stm32mp157d-ev1/bl2/bl2_el3_entrypoint.o
 .ARM.attributes
                0x00000e19       0x27 ./../build/optee-nor-stm32mp157d-ev1/bl2/bl2_el3_exceptions.o
 .ARM.attributes
                0x00000e40       0x27 ./../build/optee-nor-stm32mp157d-ev1/bl2/bl2_run_next_image.o
 .ARM.attributes
                0x00000e67       0x27 ./../build/optee-nor-stm32mp157d-ev1/bl2/debug.o
 .ARM.attributes
                0x00000e8e       0x27 ./../build/optee-nor-stm32mp157d-ev1/bl2/stm32_console.o
 .ARM.attributes
                0x00000eb5       0x27 ./../build/optee-nor-stm32mp157d-ev1/bl2/cache_helpers.o
 .ARM.attributes
                0x00000edc       0x27 ./../build/optee-nor-stm32mp157d-ev1/bl2/misc_helpers.o
 .ARM.attributes
                0x00000f03       0x27 ./../build/optee-nor-stm32mp157d-ev1/bl2/aeabi_uldivmod.o
 .ARM.attributes
                0x00000f2a       0x27 ./../build/optee-nor-stm32mp157d-ev1/bl2/cortex_a7.o
 .ARM.attributes
                0x00000f51       0x27 ./../build/optee-nor-stm32mp157d-ev1/bl2/cpu_helpers.o
 .ARM.attributes
                0x00000f78       0x27 ./../build/optee-nor-stm32mp157d-ev1/bl2/spinlock.o
 .ARM.attributes
                0x00000f9f       0x27 ./../build/optee-nor-stm32mp157d-ev1/bl2/enable_mmu.o
 .ARM.attributes
                0x00000fc6       0x27 ./../build/optee-nor-stm32mp157d-ev1/bl2/platform_up_stack.o
 .ARM.attributes
                0x00000fed       0x27 ./../build/optee-nor-stm32mp157d-ev1/bl2/stm32mp1_critic_power_wrapper.o
 .ARM.attributes
                0x00001014       0x27 ./../build/optee-nor-stm32mp157d-ev1/bl2/stm32mp1_helper.o
 .ARM.attributes
                0x0000103b       0x33 ./../build/optee-nor-stm32mp157d-ev1/lib/libfdt.a(fdt.o)
 .ARM.attributes
                0x0000106e       0x33 ./../build/optee-nor-stm32mp157d-ev1/lib/libfdt.a(fdt_addresses.o)
 .ARM.attributes
                0x000010a1       0x33 ./../build/optee-nor-stm32mp157d-ev1/lib/libfdt.a(fdt_ro.o)
 .ARM.attributes
                0x000010d4       0x33 ./../build/optee-nor-stm32mp157d-ev1/lib/libc.a(assert.o)
 .ARM.attributes
                0x00001107       0x33 ./../build/optee-nor-stm32mp157d-ev1/lib/libc.a(memchr.o)
 .ARM.attributes
                0x0000113a       0x33 ./../build/optee-nor-stm32mp157d-ev1/lib/libc.a(memcmp.o)
 .ARM.attributes
                0x0000116d       0x33 ./../build/optee-nor-stm32mp157d-ev1/lib/libc.a(memcpy.o)
 .ARM.attributes
                0x000011a0       0x33 ./../build/optee-nor-stm32mp157d-ev1/lib/libc.a(memmove.o)
 .ARM.attributes
                0x000011d3       0x33 ./../build/optee-nor-stm32mp157d-ev1/lib/libc.a(memset.o)
 .ARM.attributes
                0x00001206       0x33 ./../build/optee-nor-stm32mp157d-ev1/lib/libc.a(printf.o)
 .ARM.attributes
                0x00001239       0x33 ./../build/optee-nor-stm32mp157d-ev1/lib/libc.a(snprintf.o)
 .ARM.attributes
                0x0000126c       0x33 ./../build/optee-nor-stm32mp157d-ev1/lib/libc.a(strchr.o)
 .ARM.attributes
                0x0000129f       0x33 ./../build/optee-nor-stm32mp157d-ev1/lib/libc.a(strcmp.o)
 .ARM.attributes
                0x000012d2       0x33 ./../build/optee-nor-stm32mp157d-ev1/lib/libc.a(strlcpy.o)
 .ARM.attributes
                0x00001305       0x33 ./../build/optee-nor-stm32mp157d-ev1/lib/libc.a(strlen.o)
 .ARM.attributes
                0x00001338       0x33 ./../build/optee-nor-stm32mp157d-ev1/lib/libc.a(strncmp.o)
 .ARM.attributes
                0x0000136b       0x33 ./../build/optee-nor-stm32mp157d-ev1/lib/libc.a(strnlen.o)
 .ARM.attributes
                0x0000139e       0x33 ./../build/optee-nor-stm32mp157d-ev1/lib/libc.a(strrchr.o)

.debug_ranges   0x00000000     0x5440
 .debug_ranges  0x00000000       0x10 ./../build/optee-nor-stm32mp157d-ev1/bl2/bl2_arch_setup.o
 .debug_ranges  0x00000010       0x10 ./../build/optee-nor-stm32mp157d-ev1/bl2/bl2_image_load_v2.o
 .debug_ranges  0x00000020       0x18 ./../build/optee-nor-stm32mp157d-ev1/bl2/bl2_main.o
 .debug_ranges  0x00000038       0x50 ./../build/optee-nor-stm32mp157d-ev1/bl2/bl_common.o
 .debug_ranges  0x00000088       0x60 ./../build/optee-nor-stm32mp157d-ev1/bl2/desc_image_load.o
 .debug_ranges  0x000000e8      0x140 ./../build/optee-nor-stm32mp157d-ev1/bl2/fdt_wrappers.o
 .debug_ranges  0x00000228       0x20 ./../build/optee-nor-stm32mp157d-ev1/bl2/tf_log.o
 .debug_ranges  0x00000248      0x118 ./../build/optee-nor-stm32mp157d-ev1/bl2/uuid.o
 .debug_ranges  0x00000360      0x248 ./../build/optee-nor-stm32mp157d-ev1/bl2/tzc400.o
 .debug_ranges  0x000005a8       0x38 ./../build/optee-nor-stm32mp157d-ev1/bl2/clk.o
 .debug_ranges  0x000005e0       0x78 ./../build/optee-nor-stm32mp157d-ev1/bl2/multi_console.o
 .debug_ranges  0x00000658       0x40 ./../build/optee-nor-stm32mp157d-ev1/bl2/delay_timer.o
 .debug_ranges  0x00000698       0x38 ./../build/optee-nor-stm32mp157d-ev1/bl2/generic_delay_timer.o
 .debug_ranges  0x000006d0       0x50 ./../build/optee-nor-stm32mp157d-ev1/bl2/fwu.o
 .debug_ranges  0x00000720      0x140 ./../build/optee-nor-stm32mp157d-ev1/bl2/io_fip.o
 .debug_ranges  0x00000860       0xb8 ./../build/optee-nor-stm32mp157d-ev1/bl2/io_mtd.o
 .debug_ranges  0x00000918      0x110 ./../build/optee-nor-stm32mp157d-ev1/bl2/io_storage.o
 .debug_ranges  0x00000a28      0x120 ./../build/optee-nor-stm32mp157d-ev1/bl2/spi_nor.o
 .debug_ranges  0x00000b48       0xa8 ./../build/optee-nor-stm32mp157d-ev1/bl2/spi_mem.o
 .debug_ranges  0x00000bf0      0x398 ./../build/optee-nor-stm32mp157d-ev1/bl2/bsec2.o
 .debug_ranges  0x00000f88      0xb20 ./../build/optee-nor-stm32mp157d-ev1/bl2/stm32mp1_clk.o
 .debug_ranges  0x00001aa8      0x108 ./../build/optee-nor-stm32mp157d-ev1/bl2/stm32mp_clkfunc.o
 .debug_ranges  0x00001bb0      0x450 ./../build/optee-nor-stm32mp157d-ev1/bl2/stm32mp1_ddr.o
 .debug_ranges  0x00002000      0x1d8 ./../build/optee-nor-stm32mp157d-ev1/bl2/stm32mp1_ddr_helpers.o
 .debug_ranges  0x000021d8       0x88 ./../build/optee-nor-stm32mp157d-ev1/bl2/stm32mp1_ram.o
 .debug_ranges  0x00002260      0x1e8 ./../build/optee-nor-stm32mp157d-ev1/bl2/stm32mp_ddr.o
 .debug_ranges  0x00002448      0x120 ./../build/optee-nor-stm32mp157d-ev1/bl2/stm32mp_ddr_test.o
 .debug_ranges  0x00002568       0x18 ./../build/optee-nor-stm32mp157d-ev1/bl2/stm32mp_ram.o
 .debug_ranges  0x00002580      0x260 ./../build/optee-nor-stm32mp157d-ev1/bl2/stm32_gpio.o
 .debug_ranges  0x000027e0      0x790 ./../build/optee-nor-stm32mp157d-ev1/bl2/stm32_i2c.o
 .debug_ranges  0x00002f70      0x108 ./../build/optee-nor-stm32mp157d-ev1/bl2/stm32_iwdg.o
 .debug_ranges  0x00003078       0x50 ./../build/optee-nor-stm32mp157d-ev1/bl2/nvmem.o
 .debug_ranges  0x000030c8      0x1d8 ./../build/optee-nor-stm32mp157d-ev1/bl2/stm32mp_tamp_nvram_core.o
 .debug_ranges  0x000032a0       0x18 ./../build/optee-nor-stm32mp157d-ev1/bl2/stm32mp_tamp_nvram_mp1.o
 .debug_ranges  0x000032b8      0x128 ./../build/optee-nor-stm32mp157d-ev1/bl2/stm32mp_pmic.o
 .debug_ranges  0x000033e0       0xb0 ./../build/optee-nor-stm32mp157d-ev1/bl2/stpmic1.o
 .debug_ranges  0x00003490      0x110 ./../build/optee-nor-stm32mp157d-ev1/bl2/regulator_core.o
 .debug_ranges  0x000035a0       0x50 ./../build/optee-nor-stm32mp157d-ev1/bl2/regulator_fixed.o
 .debug_ranges  0x000035f0      0x120 ./../build/optee-nor-stm32mp157d-ev1/bl2/stm32mp1_reset.o
 .debug_ranges  0x00003710      0x4b8 ./../build/optee-nor-stm32mp157d-ev1/bl2/stm32_qspi.o
 .debug_ranges  0x00003bc8       0x10 ./../build/optee-nor-stm32mp157d-ev1/bl2/ctzdi2.o
 .debug_ranges  0x00003bd8       0x28 ./../build/optee-nor-stm32mp157d-ev1/bl2/udivmoddi4.o
 .debug_ranges  0x00003c00       0x18 ./../build/optee-nor-stm32mp157d-ev1/bl2/fconf.o
 .debug_ranges  0x00003c18       0x70 ./../build/optee-nor-stm32mp157d-ev1/bl2/fconf_dyn_cfg_getter.o
 .debug_ranges  0x00003c88       0x20 ./../build/optee-nor-stm32mp157d-ev1/bl2/optee_utils.o
 .debug_ranges  0x00003ca8       0xe0 ./../build/optee-nor-stm32mp157d-ev1/bl2/xlat_tables_arch.o
 .debug_ranges  0x00003d88       0x68 ./../build/optee-nor-stm32mp157d-ev1/bl2/xlat_tables_context.o
 .debug_ranges  0x00003df0      0x2a0 ./../build/optee-nor-stm32mp157d-ev1/bl2/xlat_tables_core.o
 .debug_ranges  0x00004090      0x100 ./../build/optee-nor-stm32mp157d-ev1/bl2/xlat_tables_utils.o
 .debug_ranges  0x00004190       0x58 ./../build/optee-nor-stm32mp157d-ev1/bl2/crc32.o
 .debug_ranges  0x000041e8       0x28 ./../build/optee-nor-stm32mp157d-ev1/bl2/tf_gunzip.o
 .debug_ranges  0x00004210       0x68 ./../build/optee-nor-stm32mp157d-ev1/bl2/plat_bl_common.o
 .debug_ranges  0x00004278       0x10 ./../build/optee-nor-stm32mp157d-ev1/bl2/plat_log_common.o
 .debug_ranges  0x00004288       0xe8 ./../build/optee-nor-stm32mp157d-ev1/bl2/bl2_io_storage.o
 .debug_ranges  0x00004370       0x20 ./../build/optee-nor-stm32mp157d-ev1/bl2/plat_image_load.o
 .debug_ranges  0x00004390      0x1a8 ./../build/optee-nor-stm32mp157d-ev1/bl2/stm32mp_common.o
 .debug_ranges  0x00004538      0x130 ./../build/optee-nor-stm32mp157d-ev1/bl2/stm32mp_dt.o
 .debug_ranges  0x00004668       0x98 ./../build/optee-nor-stm32mp157d-ev1/bl2/stm32mp_fconf_fuse.o
 .debug_ranges  0x00004700       0x58 ./../build/optee-nor-stm32mp157d-ev1/bl2/stm32mp_fconf_io.o
 .debug_ranges  0x00004758      0x118 ./../build/optee-nor-stm32mp157d-ev1/bl2/bl2_plat_setup.o
 .debug_ranges  0x00004870       0x60 ./../build/optee-nor-stm32mp157d-ev1/bl2/plat_ddr.o
 .debug_ranges  0x000048d0       0x10 ./../build/optee-nor-stm32mp157d-ev1/bl2/stm32mp1_boot_device.o
 .debug_ranges  0x000048e0       0x58 ./../build/optee-nor-stm32mp157d-ev1/bl2/stm32mp1_context.o
 .debug_ranges  0x00004938       0x30 ./../build/optee-nor-stm32mp157d-ev1/bl2/stm32mp1_critic_power.o
 .debug_ranges  0x00004968       0x50 ./../build/optee-nor-stm32mp157d-ev1/bl2/stm32mp1_dbgmcu.o
 .debug_ranges  0x000049b8       0x48 ./../build/optee-nor-stm32mp157d-ev1/bl2/stm32mp1_fconf_firewall.o
 .debug_ranges  0x00004a00       0xe8 ./../build/optee-nor-stm32mp157d-ev1/bl2/stm32mp1_private.o
 .debug_ranges  0x00004ae8      0x138 ./../build/optee-nor-stm32mp157d-ev1/bl2/stm32mp1_syscfg.o
 .debug_ranges  0x00004c20       0x48 ./../build/optee-nor-stm32mp157d-ev1/bl2/debug.o
 .debug_ranges  0x00004c68       0x48 ./../build/optee-nor-stm32mp157d-ev1/bl2/stm32_console.o
 .debug_ranges  0x00004cb0       0x58 ./../build/optee-nor-stm32mp157d-ev1/bl2/cache_helpers.o
 .debug_ranges  0x00004d08       0x40 ./../build/optee-nor-stm32mp157d-ev1/bl2/misc_helpers.o
 .debug_ranges  0x00004d48       0x38 ./../build/optee-nor-stm32mp157d-ev1/bl2/cortex_a7.o
 .debug_ranges  0x00004d80       0x38 ./../build/optee-nor-stm32mp157d-ev1/bl2/cpu_helpers.o
 .debug_ranges  0x00004db8       0x20 ./../build/optee-nor-stm32mp157d-ev1/bl2/spinlock.o
 .debug_ranges  0x00004dd8       0x20 ./../build/optee-nor-stm32mp157d-ev1/bl2/enable_mmu.o
 .debug_ranges  0x00004df8       0x20 ./../build/optee-nor-stm32mp157d-ev1/bl2/platform_up_stack.o
 .debug_ranges  0x00004e18       0x80 ./../build/optee-nor-stm32mp157d-ev1/bl2/stm32mp1_helper.o
 .debug_ranges  0x00004e98      0x108 ./../build/optee-nor-stm32mp157d-ev1/lib/libfdt.a(fdt.o)
 .debug_ranges  0x00004fa0       0x28 ./../build/optee-nor-stm32mp157d-ev1/lib/libfdt.a(fdt_addresses.o)
 .debug_ranges  0x00004fc8      0x290 ./../build/optee-nor-stm32mp157d-ev1/lib/libfdt.a(fdt_ro.o)
 .debug_ranges  0x00005258       0x10 ./../build/optee-nor-stm32mp157d-ev1/lib/libc.a(assert.o)
 .debug_ranges  0x00005268       0x10 ./../build/optee-nor-stm32mp157d-ev1/lib/libc.a(memchr.o)
 .debug_ranges  0x00005278       0x10 ./../build/optee-nor-stm32mp157d-ev1/lib/libc.a(memcmp.o)
 .debug_ranges  0x00005288       0x10 ./../build/optee-nor-stm32mp157d-ev1/lib/libc.a(memcpy.o)
 .debug_ranges  0x00005298       0x28 ./../build/optee-nor-stm32mp157d-ev1/lib/libc.a(memmove.o)
 .debug_ranges  0x000052c0       0x10 ./../build/optee-nor-stm32mp157d-ev1/lib/libc.a(memset.o)
 .debug_ranges  0x000052d0       0xc0 ./../build/optee-nor-stm32mp157d-ev1/lib/libc.a(printf.o)
 .debug_ranges  0x00005390       0x40 ./../build/optee-nor-stm32mp157d-ev1/lib/libc.a(snprintf.o)
 .debug_ranges  0x000053d0       0x10 ./../build/optee-nor-stm32mp157d-ev1/lib/libc.a(strchr.o)
 .debug_ranges  0x000053e0       0x10 ./../build/optee-nor-stm32mp157d-ev1/lib/libc.a(strcmp.o)
 .debug_ranges  0x000053f0       0x10 ./../build/optee-nor-stm32mp157d-ev1/lib/libc.a(strlcpy.o)
 .debug_ranges  0x00005400       0x10 ./../build/optee-nor-stm32mp157d-ev1/lib/libc.a(strlen.o)
 .debug_ranges  0x00005410       0x10 ./../build/optee-nor-stm32mp157d-ev1/lib/libc.a(strncmp.o)
 .debug_ranges  0x00005420       0x10 ./../build/optee-nor-stm32mp157d-ev1/lib/libc.a(strnlen.o)
 .debug_ranges  0x00005430       0x10 ./../build/optee-nor-stm32mp157d-ev1/lib/libc.a(strrchr.o)

.debug_frame    0x00000000     0x4d88
 .debug_frame   0x00000000       0x20 ./../build/optee-nor-stm32mp157d-ev1/bl2/bl2_arch_setup.o
 .debug_frame   0x00000020       0x34 ./../build/optee-nor-stm32mp157d-ev1/bl2/bl2_image_load_v2.o
 .debug_frame   0x00000054       0x48 ./../build/optee-nor-stm32mp157d-ev1/bl2/bl2_main.o
 .debug_frame   0x0000009c       0x78 ./../build/optee-nor-stm32mp157d-ev1/bl2/bl_common.o
 .debug_frame   0x00000114       0xe0 ./../build/optee-nor-stm32mp157d-ev1/bl2/desc_image_load.o
 .debug_frame   0x000001f4      0x294 ./../build/optee-nor-stm32mp157d-ev1/bl2/fdt_wrappers.o
 .debug_frame   0x00000488       0x80 ./../build/optee-nor-stm32mp157d-ev1/bl2/tf_log.o
 .debug_frame   0x00000508       0x98 ./../build/optee-nor-stm32mp157d-ev1/bl2/uuid.o
 .debug_frame   0x000005a0       0xec ./../build/optee-nor-stm32mp157d-ev1/bl2/tzc400.o
 .debug_frame   0x0000068c       0xb4 ./../build/optee-nor-stm32mp157d-ev1/bl2/clk.o
 .debug_frame   0x00000740       0xd4 ./../build/optee-nor-stm32mp157d-ev1/bl2/multi_console.o
 .debug_frame   0x00000814       0x58 ./../build/optee-nor-stm32mp157d-ev1/bl2/delay_timer.o
 .debug_frame   0x0000086c       0x4c ./../build/optee-nor-stm32mp157d-ev1/bl2/generic_delay_timer.o
 .debug_frame   0x000008b8       0x98 ./../build/optee-nor-stm32mp157d-ev1/bl2/fwu.o
 .debug_frame   0x00000950      0x12c ./../build/optee-nor-stm32mp157d-ev1/bl2/io_fip.o
 .debug_frame   0x00000a7c       0xfc ./../build/optee-nor-stm32mp157d-ev1/bl2/io_mtd.o
 .debug_frame   0x00000b78      0x1c4 ./../build/optee-nor-stm32mp157d-ev1/bl2/io_storage.o
 .debug_frame   0x00000d3c      0x124 ./../build/optee-nor-stm32mp157d-ev1/bl2/spi_nor.o
 .debug_frame   0x00000e60      0x100 ./../build/optee-nor-stm32mp157d-ev1/bl2/spi_mem.o
 .debug_frame   0x00000f60      0x250 ./../build/optee-nor-stm32mp157d-ev1/bl2/bsec2.o
 .debug_frame   0x000011b0      0x2f0 ./../build/optee-nor-stm32mp157d-ev1/bl2/stm32mp1_clk.o
 .debug_frame   0x000014a0      0x170 ./../build/optee-nor-stm32mp157d-ev1/bl2/stm32mp_clkfunc.o
 .debug_frame   0x00001610       0x98 ./../build/optee-nor-stm32mp157d-ev1/bl2/stm32mp1_ddr.o
 .debug_frame   0x000016a8       0xc0 ./../build/optee-nor-stm32mp157d-ev1/bl2/stm32mp1_ddr_helpers.o
 .debug_frame   0x00001768       0x7c ./../build/optee-nor-stm32mp157d-ev1/bl2/stm32mp1_ram.o
 .debug_frame   0x000017e4      0x130 ./../build/optee-nor-stm32mp157d-ev1/bl2/stm32mp_ddr.o
 .debug_frame   0x00001914       0x68 ./../build/optee-nor-stm32mp157d-ev1/bl2/stm32mp_ddr_test.o
 .debug_frame   0x0000197c       0x58 ./../build/optee-nor-stm32mp157d-ev1/bl2/stm32mp_ram.o
 .debug_frame   0x000019d4      0x140 ./../build/optee-nor-stm32mp157d-ev1/bl2/stm32_gpio.o
 .debug_frame   0x00001b14      0x1f8 ./../build/optee-nor-stm32mp157d-ev1/bl2/stm32_i2c.o
 .debug_frame   0x00001d0c       0x80 ./../build/optee-nor-stm32mp157d-ev1/bl2/stm32_iwdg.o
 .debug_frame   0x00001d8c       0xa4 ./../build/optee-nor-stm32mp157d-ev1/bl2/nvmem.o
 .debug_frame   0x00001e30      0x180 ./../build/optee-nor-stm32mp157d-ev1/bl2/stm32mp_tamp_nvram_core.o
 .debug_frame   0x00001fb0       0x30 ./../build/optee-nor-stm32mp157d-ev1/bl2/stm32mp_tamp_nvram_mp1.o
 .debug_frame   0x00001fe0      0x160 ./../build/optee-nor-stm32mp157d-ev1/bl2/stm32mp_pmic.o
 .debug_frame   0x00002140      0x264 ./../build/optee-nor-stm32mp157d-ev1/bl2/stpmic1.o
 .debug_frame   0x000023a4      0x194 ./../build/optee-nor-stm32mp157d-ev1/bl2/regulator_core.o
 .debug_frame   0x00002538       0x5c ./../build/optee-nor-stm32mp157d-ev1/bl2/regulator_fixed.o
 .debug_frame   0x00002594       0x70 ./../build/optee-nor-stm32mp157d-ev1/bl2/stm32mp1_reset.o
 .debug_frame   0x00002604       0xf4 ./../build/optee-nor-stm32mp157d-ev1/bl2/stm32_qspi.o
 .debug_frame   0x000026f8       0x20 ./../build/optee-nor-stm32mp157d-ev1/bl2/ctzdi2.o
 .debug_frame   0x00002718       0x30 ./../build/optee-nor-stm32mp157d-ev1/bl2/udivmoddi4.o
 .debug_frame   0x00002748       0x50 ./../build/optee-nor-stm32mp157d-ev1/bl2/fconf.o
 .debug_frame   0x00002798       0x88 ./../build/optee-nor-stm32mp157d-ev1/bl2/fconf_dyn_cfg_getter.o
 .debug_frame   0x00002820       0x68 ./../build/optee-nor-stm32mp157d-ev1/bl2/optee_utils.o
 .debug_frame   0x00002888      0x100 ./../build/optee-nor-stm32mp157d-ev1/bl2/xlat_tables_arch.o
 .debug_frame   0x00002988      0x138 ./../build/optee-nor-stm32mp157d-ev1/bl2/xlat_tables_context.o
 .debug_frame   0x00002ac0      0x258 ./../build/optee-nor-stm32mp157d-ev1/bl2/xlat_tables_core.o
 .debug_frame   0x00002d18       0xc4 ./../build/optee-nor-stm32mp157d-ev1/bl2/xlat_tables_utils.o
 .debug_frame   0x00002ddc       0xec ./../build/optee-nor-stm32mp157d-ev1/bl2/crc32.o
 .debug_frame   0x00002ec8       0x74 ./../build/optee-nor-stm32mp157d-ev1/bl2/tf_gunzip.o
 .debug_frame   0x00002f3c       0xf0 ./../build/optee-nor-stm32mp157d-ev1/bl2/plat_bl_common.o
 .debug_frame   0x0000302c       0x20 ./../build/optee-nor-stm32mp157d-ev1/bl2/plat_log_common.o
 .debug_frame   0x0000304c      0x128 ./../build/optee-nor-stm32mp157d-ev1/bl2/bl2_io_storage.o
 .debug_frame   0x00003174       0x48 ./../build/optee-nor-stm32mp157d-ev1/bl2/plat_image_load.o
 .debug_frame   0x000031bc      0x3d0 ./../build/optee-nor-stm32mp157d-ev1/bl2/stm32mp_common.o
 .debug_frame   0x0000358c      0x268 ./../build/optee-nor-stm32mp157d-ev1/bl2/stm32mp_dt.o
 .debug_frame   0x000037f4       0x40 ./../build/optee-nor-stm32mp157d-ev1/bl2/stm32mp_fconf_fuse.o
 .debug_frame   0x00003834       0x40 ./../build/optee-nor-stm32mp157d-ev1/bl2/stm32mp_fconf_io.o
 .debug_frame   0x00003874       0xac ./../build/optee-nor-stm32mp157d-ev1/bl2/bl2_plat_setup.o
 .debug_frame   0x00003920       0x34 ./../build/optee-nor-stm32mp157d-ev1/bl2/plat_ddr.o
 .debug_frame   0x00003954       0x28 ./../build/optee-nor-stm32mp157d-ev1/bl2/stm32mp1_boot_device.o
 .debug_frame   0x0000397c       0xbc ./../build/optee-nor-stm32mp157d-ev1/bl2/stm32mp1_context.o
 .debug_frame   0x00003a38       0x50 ./../build/optee-nor-stm32mp157d-ev1/bl2/stm32mp1_critic_power.o
 .debug_frame   0x00003a88       0x58 ./../build/optee-nor-stm32mp157d-ev1/bl2/stm32mp1_dbgmcu.o
 .debug_frame   0x00003ae0       0x8c ./../build/optee-nor-stm32mp157d-ev1/bl2/stm32mp1_fconf_firewall.o
 .debug_frame   0x00003b6c      0x228 ./../build/optee-nor-stm32mp157d-ev1/bl2/stm32mp1_private.o
 .debug_frame   0x00003d94       0xa8 ./../build/optee-nor-stm32mp157d-ev1/bl2/stm32mp1_syscfg.o
 .debug_frame   0x00003e3c       0x20 ./../build/optee-nor-stm32mp157d-ev1/bl2/bl2_el3_entrypoint.o
 .debug_frame   0x00003e5c       0x20 ./../build/optee-nor-stm32mp157d-ev1/bl2/bl2_run_next_image.o
 .debug_frame   0x00003e7c       0x80 ./../build/optee-nor-stm32mp157d-ev1/bl2/debug.o
 .debug_frame   0x00003efc       0x80 ./../build/optee-nor-stm32mp157d-ev1/bl2/stm32_console.o
 .debug_frame   0x00003f7c       0xa0 ./../build/optee-nor-stm32mp157d-ev1/bl2/cache_helpers.o
 .debug_frame   0x0000401c       0x70 ./../build/optee-nor-stm32mp157d-ev1/bl2/misc_helpers.o
 .debug_frame   0x0000408c       0x60 ./../build/optee-nor-stm32mp157d-ev1/bl2/cortex_a7.o
 .debug_frame   0x000040ec       0x60 ./../build/optee-nor-stm32mp157d-ev1/bl2/cpu_helpers.o
 .debug_frame   0x0000414c       0x30 ./../build/optee-nor-stm32mp157d-ev1/bl2/spinlock.o
 .debug_frame   0x0000417c       0x30 ./../build/optee-nor-stm32mp157d-ev1/bl2/enable_mmu.o
 .debug_frame   0x000041ac       0x30 ./../build/optee-nor-stm32mp157d-ev1/bl2/platform_up_stack.o
 .debug_frame   0x000041dc       0x20 ./../build/optee-nor-stm32mp157d-ev1/bl2/stm32mp1_critic_power_wrapper.o
 .debug_frame   0x000041fc       0xf0 ./../build/optee-nor-stm32mp157d-ev1/bl2/stm32mp1_helper.o
 .debug_frame   0x000042ec      0x198 ./../build/optee-nor-stm32mp157d-ev1/lib/libfdt.a(fdt.o)
 .debug_frame   0x00004484       0x8c ./../build/optee-nor-stm32mp157d-ev1/lib/libfdt.a(fdt_addresses.o)
 .debug_frame   0x00004510      0x548 ./../build/optee-nor-stm32mp157d-ev1/lib/libfdt.a(fdt_ro.o)
 .debug_frame   0x00004a58       0x28 ./../build/optee-nor-stm32mp157d-ev1/lib/libc.a(assert.o)
 .debug_frame   0x00004a80       0x28 ./../build/optee-nor-stm32mp157d-ev1/lib/libc.a(memchr.o)
 .debug_frame   0x00004aa8       0x28 ./../build/optee-nor-stm32mp157d-ev1/lib/libc.a(memcmp.o)
 .debug_frame   0x00004ad0       0x28 ./../build/optee-nor-stm32mp157d-ev1/lib/libc.a(memcpy.o)
 .debug_frame   0x00004af8       0x3c ./../build/optee-nor-stm32mp157d-ev1/lib/libc.a(memmove.o)
 .debug_frame   0x00004b34       0x2c ./../build/optee-nor-stm32mp157d-ev1/lib/libc.a(memset.o)
 .debug_frame   0x00004b60       0x9c ./../build/optee-nor-stm32mp157d-ev1/lib/libc.a(printf.o)
 .debug_frame   0x00004bfc       0x94 ./../build/optee-nor-stm32mp157d-ev1/lib/libc.a(snprintf.o)
 .debug_frame   0x00004c90       0x20 ./../build/optee-nor-stm32mp157d-ev1/lib/libc.a(strchr.o)
 .debug_frame   0x00004cb0       0x20 ./../build/optee-nor-stm32mp157d-ev1/lib/libc.a(strcmp.o)
 .debug_frame   0x00004cd0       0x28 ./../build/optee-nor-stm32mp157d-ev1/lib/libc.a(strlcpy.o)
 .debug_frame   0x00004cf8       0x20 ./../build/optee-nor-stm32mp157d-ev1/lib/libc.a(strlen.o)
 .debug_frame   0x00004d18       0x28 ./../build/optee-nor-stm32mp157d-ev1/lib/libc.a(strncmp.o)
 .debug_frame   0x00004d40       0x20 ./../build/optee-nor-stm32mp157d-ev1/lib/libc.a(strnlen.o)
 .debug_frame   0x00004d60       0x28 ./../build/optee-nor-stm32mp157d-ev1/lib/libc.a(strrchr.o)

.debug_loc      0x00000000    0x2c977
 .debug_loc     0x00000000      0x170 ./../build/optee-nor-stm32mp157d-ev1/bl2/bl2_image_load_v2.o
 .debug_loc     0x00000170       0xdb ./../build/optee-nor-stm32mp157d-ev1/bl2/bl2_main.o
 .debug_loc     0x0000024b      0x308 ./../build/optee-nor-stm32mp157d-ev1/bl2/bl_common.o
 .debug_loc     0x00000553      0x97b ./../build/optee-nor-stm32mp157d-ev1/bl2/desc_image_load.o
 .debug_loc     0x00000ece     0x1d21 ./../build/optee-nor-stm32mp157d-ev1/bl2/fdt_wrappers.o
 .debug_loc     0x00002bef      0x16e ./../build/optee-nor-stm32mp157d-ev1/bl2/tf_log.o
 .debug_loc     0x00002d5d      0x69c ./../build/optee-nor-stm32mp157d-ev1/bl2/uuid.o
 .debug_loc     0x000033f9     0x1287 ./../build/optee-nor-stm32mp157d-ev1/bl2/tzc400.o
 .debug_loc     0x00004680      0x1be ./../build/optee-nor-stm32mp157d-ev1/bl2/clk.o
 .debug_loc     0x0000483e      0x30b ./../build/optee-nor-stm32mp157d-ev1/bl2/multi_console.o
 .debug_loc     0x00004b49      0x156 ./../build/optee-nor-stm32mp157d-ev1/bl2/delay_timer.o
 .debug_loc     0x00004c9f       0xc5 ./../build/optee-nor-stm32mp157d-ev1/bl2/generic_delay_timer.o
 .debug_loc     0x00004d64      0x302 ./../build/optee-nor-stm32mp157d-ev1/bl2/fwu.o
 .debug_loc     0x00005066      0xdc9 ./../build/optee-nor-stm32mp157d-ev1/bl2/io_fip.o
 .debug_loc     0x00005e2f      0xa79 ./../build/optee-nor-stm32mp157d-ev1/bl2/io_mtd.o
 .debug_loc     0x000068a8     0x114b ./../build/optee-nor-stm32mp157d-ev1/bl2/io_storage.o
 .debug_loc     0x000079f3      0x7b2 ./../build/optee-nor-stm32mp157d-ev1/bl2/spi_nor.o
 .debug_loc     0x000081a5      0x736 ./../build/optee-nor-stm32mp157d-ev1/bl2/spi_mem.o
 .debug_loc     0x000088db     0x119d ./../build/optee-nor-stm32mp157d-ev1/bl2/bsec2.o
 .debug_loc     0x00009a78     0x569e ./../build/optee-nor-stm32mp157d-ev1/bl2/stm32mp1_clk.o
 .debug_loc     0x0000f116      0x789 ./../build/optee-nor-stm32mp157d-ev1/bl2/stm32mp_clkfunc.o
 .debug_loc     0x0000f89f     0x1e5c ./../build/optee-nor-stm32mp157d-ev1/bl2/stm32mp1_ddr.o
 .debug_loc     0x000116fb     0x2b65 ./../build/optee-nor-stm32mp157d-ev1/bl2/stm32mp1_ddr_helpers.o
 .debug_loc     0x00014260      0x31d ./../build/optee-nor-stm32mp157d-ev1/bl2/stm32mp1_ram.o
 .debug_loc     0x0001457d     0x1155 ./../build/optee-nor-stm32mp157d-ev1/bl2/stm32mp_ddr.o
 .debug_loc     0x000156d2      0x6f2 ./../build/optee-nor-stm32mp157d-ev1/bl2/stm32mp_ddr_test.o
 .debug_loc     0x00015dc4      0x18f ./../build/optee-nor-stm32mp157d-ev1/bl2/stm32mp_ram.o
 .debug_loc     0x00015f53     0x1361 ./../build/optee-nor-stm32mp157d-ev1/bl2/stm32_gpio.o
 .debug_loc     0x000172b4     0x3131 ./../build/optee-nor-stm32mp157d-ev1/bl2/stm32_i2c.o
 .debug_loc     0x0001a3e5      0x57a ./../build/optee-nor-stm32mp157d-ev1/bl2/stm32_iwdg.o
 .debug_loc     0x0001a95f      0x693 ./../build/optee-nor-stm32mp157d-ev1/bl2/nvmem.o
 .debug_loc     0x0001aff2     0x100b ./../build/optee-nor-stm32mp157d-ev1/bl2/stm32mp_tamp_nvram_core.o
 .debug_loc     0x0001bffd       0x2b ./../build/optee-nor-stm32mp157d-ev1/bl2/stm32mp_tamp_nvram_mp1.o
 .debug_loc     0x0001c028      0x813 ./../build/optee-nor-stm32mp157d-ev1/bl2/stm32mp_pmic.o
 .debug_loc     0x0001c83b      0x787 ./../build/optee-nor-stm32mp157d-ev1/bl2/stpmic1.o
 .debug_loc     0x0001cfc2      0xb32 ./../build/optee-nor-stm32mp157d-ev1/bl2/regulator_core.o
 .debug_loc     0x0001daf4      0x1ac ./../build/optee-nor-stm32mp157d-ev1/bl2/regulator_fixed.o
 .debug_loc     0x0001dca0      0x46a ./../build/optee-nor-stm32mp157d-ev1/bl2/stm32mp1_reset.o
 .debug_loc     0x0001e10a     0x107e ./../build/optee-nor-stm32mp157d-ev1/bl2/stm32_qspi.o
 .debug_loc     0x0001f188       0x47 ./../build/optee-nor-stm32mp157d-ev1/bl2/ctzdi2.o
 .debug_loc     0x0001f1cf      0x31d ./../build/optee-nor-stm32mp157d-ev1/bl2/udivmoddi4.o
 .debug_loc     0x0001f4ec      0x123 ./../build/optee-nor-stm32mp157d-ev1/bl2/fconf.o
 .debug_loc     0x0001f60f      0x421 ./../build/optee-nor-stm32mp157d-ev1/bl2/fconf_dyn_cfg_getter.o
 .debug_loc     0x0001fa30      0x31d ./../build/optee-nor-stm32mp157d-ev1/bl2/optee_utils.o
 .debug_loc     0x0001fd4d      0x579 ./../build/optee-nor-stm32mp157d-ev1/bl2/xlat_tables_arch.o
 .debug_loc     0x000202c6      0x5f2 ./../build/optee-nor-stm32mp157d-ev1/bl2/xlat_tables_context.o
 .debug_loc     0x000208b8     0x184f ./../build/optee-nor-stm32mp157d-ev1/bl2/xlat_tables_core.o
 .debug_loc     0x00022107      0x969 ./../build/optee-nor-stm32mp157d-ev1/bl2/xlat_tables_utils.o
 .debug_loc     0x00022a70      0x5b1 ./../build/optee-nor-stm32mp157d-ev1/bl2/crc32.o
 .debug_loc     0x00023021      0x332 ./../build/optee-nor-stm32mp157d-ev1/bl2/tf_gunzip.o
 .debug_loc     0x00023353      0x1e9 ./../build/optee-nor-stm32mp157d-ev1/bl2/plat_bl_common.o
 .debug_loc     0x0002353c       0xa2 ./../build/optee-nor-stm32mp157d-ev1/bl2/plat_log_common.o
 .debug_loc     0x000235de      0x897 ./../build/optee-nor-stm32mp157d-ev1/bl2/bl2_io_storage.o
 .debug_loc     0x00023e75       0x22 ./../build/optee-nor-stm32mp157d-ev1/bl2/plat_image_load.o
 .debug_loc     0x00023e97      0xcee ./../build/optee-nor-stm32mp157d-ev1/bl2/stm32mp_common.o
 .debug_loc     0x00024b85      0xb08 ./../build/optee-nor-stm32mp157d-ev1/bl2/stm32mp_dt.o
 .debug_loc     0x0002568d      0x259 ./../build/optee-nor-stm32mp157d-ev1/bl2/stm32mp_fconf_fuse.o
 .debug_loc     0x000258e6      0x163 ./../build/optee-nor-stm32mp157d-ev1/bl2/stm32mp_fconf_io.o
 .debug_loc     0x00025a49      0xad6 ./../build/optee-nor-stm32mp157d-ev1/bl2/bl2_plat_setup.o
 .debug_loc     0x0002651f      0x318 ./../build/optee-nor-stm32mp157d-ev1/bl2/plat_ddr.o
 .debug_loc     0x00026837       0x22 ./../build/optee-nor-stm32mp157d-ev1/bl2/stm32mp1_boot_device.o
 .debug_loc     0x00026859       0xe9 ./../build/optee-nor-stm32mp157d-ev1/bl2/stm32mp1_context.o
 .debug_loc     0x00026942      0x119 ./../build/optee-nor-stm32mp157d-ev1/bl2/stm32mp1_critic_power.o
 .debug_loc     0x00026a5b      0x127 ./../build/optee-nor-stm32mp157d-ev1/bl2/stm32mp1_dbgmcu.o
 .debug_loc     0x00026b82      0x2c1 ./../build/optee-nor-stm32mp157d-ev1/bl2/stm32mp1_fconf_firewall.o
 .debug_loc     0x00026e43      0x5b9 ./../build/optee-nor-stm32mp157d-ev1/bl2/stm32mp1_private.o
 .debug_loc     0x000273fc      0x5b9 ./../build/optee-nor-stm32mp157d-ev1/bl2/stm32mp1_syscfg.o
 .debug_loc     0x000279b5      0xa24 ./../build/optee-nor-stm32mp157d-ev1/lib/libfdt.a(fdt.o)
 .debug_loc     0x000283d9      0x543 ./../build/optee-nor-stm32mp157d-ev1/lib/libfdt.a(fdt_addresses.o)
 .debug_loc     0x0002891c     0x24e3 ./../build/optee-nor-stm32mp157d-ev1/lib/libfdt.a(fdt_ro.o)
 .debug_loc     0x0002adff       0x70 ./../build/optee-nor-stm32mp157d-ev1/lib/libc.a(assert.o)
 .debug_loc     0x0002ae6f      0x14c ./../build/optee-nor-stm32mp157d-ev1/lib/libc.a(memchr.o)
 .debug_loc     0x0002afbb      0x132 ./../build/optee-nor-stm32mp157d-ev1/lib/libc.a(memcmp.o)
 .debug_loc     0x0002b0ed       0xb4 ./../build/optee-nor-stm32mp157d-ev1/lib/libc.a(memcpy.o)
 .debug_loc     0x0002b1a1      0x188 ./../build/optee-nor-stm32mp157d-ev1/lib/libc.a(memmove.o)
 .debug_loc     0x0002b329      0x185 ./../build/optee-nor-stm32mp157d-ev1/lib/libc.a(memset.o)
 .debug_loc     0x0002b4ae      0x918 ./../build/optee-nor-stm32mp157d-ev1/lib/libc.a(printf.o)
 .debug_loc     0x0002bdc6      0x73f ./../build/optee-nor-stm32mp157d-ev1/lib/libc.a(snprintf.o)
 .debug_loc     0x0002c505       0x71 ./../build/optee-nor-stm32mp157d-ev1/lib/libc.a(strchr.o)
 .debug_loc     0x0002c576       0x71 ./../build/optee-nor-stm32mp157d-ev1/lib/libc.a(strcmp.o)
 .debug_loc     0x0002c5e7      0x13e ./../build/optee-nor-stm32mp157d-ev1/lib/libc.a(strlcpy.o)
 .debug_loc     0x0002c725       0x4d ./../build/optee-nor-stm32mp157d-ev1/lib/libc.a(strlen.o)
 .debug_loc     0x0002c772      0x12e ./../build/optee-nor-stm32mp157d-ev1/lib/libc.a(strncmp.o)
 .debug_loc     0x0002c8a0       0x38 ./../build/optee-nor-stm32mp157d-ev1/lib/libc.a(strnlen.o)
 .debug_loc     0x0002c8d8       0x9f ./../build/optee-nor-stm32mp157d-ev1/lib/libc.a(strrchr.o)
