
/home/dangcaominh/STM32MP1/optee-os/optee-os/../build/optee-programmer-stm32mp157d-dk1/ta/remoteproc/80a4c275-0a47-4905-8285-1486a9771a08.elf:     file format elf32-littlearm
/home/dangcaominh/STM32MP1/optee-os/optee-os/../build/optee-programmer-stm32mp157d-dk1/ta/remoteproc/80a4c275-0a47-4905-8285-1486a9771a08.elf
architecture: armv7, flags 0x00000150:
HAS_SYMS, DYNAMIC, D_PAGED
start address 0x00001008

Program Header:
    LOAD off    0x00001000 vaddr 0x00000000 paddr 0x00000000 align 2**12
         filesz 0x0000ebf8 memsz 0x0000ebf8 flags r-x
    LOAD off    0x00010000 vaddr 0x0000f000 paddr 0x0000f000 align 2**12
         filesz 0x000003e0 memsz 0x00004c48 flags rw-
 DYNAMIC off    0x00010000 vaddr 0x0000f000 paddr 0x0000f000 align 2**2
         filesz 0x00000088 memsz 0x00000088 flags rw-
   STACK off    0x00000000 vaddr 0x00000000 paddr 0x00000000 align 2**4
         filesz 0x00000000 memsz 0x00000000 flags rw-

Dynamic Section:
  HASH                 0x0000ebc8
  GNU_HASH             0x0000eacc
  STRTAB               0x0000eb90
  SYMTAB               0x0000eb20
  STRSZ                0x00000036
  SYMENT               0x00000010
  DEBUG                0x00000000
  REL                  0x0000f0f0
  RELSZ                0x000001c8
  RELENT               0x00000008
  FLAGS_1              0x08000000
  RELCOUNT             0x00000022
private flags = 0x5000400: [Version5 EABI] [hard-float ABI]

Sections:
Idx Name          Size      VMA       LMA       File off  Algn
  0 .text         0000d7b0  00000000  00000000  00001000  2**3
                  CONTENTS, ALLOC, LOAD, READONLY, CODE
  1 .rodata       0000131c  0000d7b0  0000d7b0  0000e7b0  2**2
                  CONTENTS, ALLOC, LOAD, READONLY, DATA
  2 .gnu.hash     00000030  0000eacc  0000eacc  0000facc  2**2
                  CONTENTS, ALLOC, LOAD, READONLY, DATA
  3 .ta_head      00000020  0000eb00  0000eb00  0000fb00  2**3
                  CONTENTS, ALLOC, LOAD, READONLY, DATA
  4 .dynsym       00000070  0000eb20  0000eb20  0000fb20  2**2
                  CONTENTS, ALLOC, LOAD, READONLY, DATA
  5 .dynstr       00000036  0000eb90  0000eb90  0000fb90  2**0
                  CONTENTS, ALLOC, LOAD, READONLY, DATA
  6 .hash         00000030  0000ebc8  0000ebc8  0000fbc8  2**2
                  CONTENTS, ALLOC, LOAD, READONLY, DATA
  7 .dynamic      00000088  0000f000  0000f000  00010000  2**2
                  CONTENTS, ALLOC, LOAD, DATA
  8 .got          00000068  0000f088  0000f088  00010088  2**2
                  CONTENTS, ALLOC, LOAD, DATA
  9 .rel.got      000000b8  0000f200  0000f200  00010200  2**2
                  CONTENTS, ALLOC, LOAD, READONLY, DATA
 10 .data         00000128  0000f2b8  0000f2b8  000102b8  2**2
                  CONTENTS, ALLOC, LOAD, DATA
 11 .bss          00004868  0000f3e0  0000f3e0  000103e0  2**2
                  ALLOC
 12 .debug_info   0002485c  00000000  00000000  000103e0  2**0
                  CONTENTS, READONLY, DEBUGGING, OCTETS
 13 .debug_abbrev 0000567f  00000000  00000000  00034c3c  2**0
                  CONTENTS, READONLY, DEBUGGING, OCTETS
 14 .debug_loclists 00016665  00000000  00000000  0003a2bb  2**0
                  CONTENTS, READONLY, DEBUGGING, OCTETS
 15 .debug_aranges 00000688  00000000  00000000  00050920  2**3
                  CONTENTS, READONLY, DEBUGGING, OCTETS
 16 .debug_rnglists 00000d29  00000000  00000000  00050fa8  2**0
                  CONTENTS, READONLY, DEBUGGING, OCTETS
 17 .debug_macro  00032fb0  00000000  00000000  00051cd1  2**0
                  CONTENTS, READONLY, DEBUGGING, OCTETS
 18 .debug_line   0001629a  00000000  00000000  00084c81  2**0
                  CONTENTS, READONLY, DEBUGGING, OCTETS
 19 .debug_str    0001f231  00000000  00000000  0009af1b  2**0
                  CONTENTS, READONLY, DEBUGGING, OCTETS
 20 .comment      00000012  00000000  00000000  000ba14c  2**0
                  CONTENTS, READONLY
 21 .ARM.attributes 00000033  00000000  00000000  000ba15e  2**0
                  CONTENTS, READONLY
 22 .debug_frame  00003670  00000000  00000000  000ba194  2**2
                  CONTENTS, READONLY, DEBUGGING, OCTETS
 23 .rel.dyn      00000110  0000f0f0  0000f0f0  000100f0  2**2
                  CONTENTS, ALLOC, LOAD, READONLY, DATA
 24 .debug_line_str 0000012d  00000000  00000000  000bd804  2**0
                  CONTENTS, READONLY, DEBUGGING, OCTETS
SYMBOL TABLE:
00000000 l    d  .text	00000000 .text
0000d7b0 l    d  .rodata	00000000 .rodata
0000eacc l    d  .gnu.hash	00000000 .gnu.hash
0000eb00 l    d  .ta_head	00000000 .ta_head
0000eb20 l    d  .dynsym	00000000 .dynsym
0000eb90 l    d  .dynstr	00000000 .dynstr
0000ebc8 l    d  .hash	00000000 .hash
0000f000 l    d  .dynamic	00000000 .dynamic
0000f088 l    d  .got	00000000 .got
0000f200 l    d  .rel.got	00000000 .rel.got
0000f2b8 l    d  .data	00000000 .data
0000f3e0 l    d  .bss	00000000 .bss
00000000 l    d  .debug_info	00000000 .debug_info
00000000 l    d  .debug_abbrev	00000000 .debug_abbrev
00000000 l    d  .debug_loclists	00000000 .debug_loclists
00000000 l    d  .debug_aranges	00000000 .debug_aranges
00000000 l    d  .debug_rnglists	00000000 .debug_rnglists
00000000 l    d  .debug_macro	00000000 .debug_macro
00000000 l    d  .debug_line	00000000 .debug_line
00000000 l    d  .debug_str	00000000 .debug_str
00000000 l    d  .comment	00000000 .comment
00000000 l    d  .ARM.attributes	00000000 .ARM.attributes
00000000 l    d  .debug_frame	00000000 .debug_frame
0000f0f0 l    d  .rel.dyn	00000000 .rel.dyn
00000000 l    d  .debug_line_str	00000000 .debug_line_str
00000000 l    df *ABS*	00000000 remoteproc_core.c
00000000 l     F .text	0000001c remoteproc_find_firmware
0000001c l     F .text	00000094 remoteproc_get_tlv
000000b0 l     F .text	00000200 remoteproc_load_segment
000002b0 l     F .text	00000090 remoteproc_clean_resources.isra.0
0000d7b0 l     O .rodata	00000018 __func__.2
0000d7c8 l     O .rodata	0000001b __func__.0
0000d7e4 l     O .rodata	00000010 uuid.7
0000d7f4 l     O .rodata	00000013 __func__.6
0000d807 l     O .rodata	0000001c __func__.5
0000d824 l     O .rodata	00000018 rproc_ta_sign_algo
0000d83c l     O .rodata	00000016 __func__.4
0000d852 l     O .rodata	00000014 __func__.3
0000d866 l     O .rodata	00000014 __func__.1
0000f3e0 l     O .bss	00000004 pta_session
0000f3e4 l     O .bss	00000004 session_refcount
0000f2b8 l     O .data	00000008 firmware_head
00000000 l    df *ABS*	00000000 elf_parser.c
0000e821 l     O .rodata	0000000f __func__.1
0000e830 l     O .rodata	0000001a __func__.0
00000000 l    df *ABS*	00000000 user_ta_header.c
0000d880 l     O .rodata	00000001 __compound_literal.6
0000d884 l     O .rodata	00000004 __compound_literal.5
0000d888 l     O .rodata	00000004 __compound_literal.4
0000d88c l     O .rodata	00000004 __compound_literal.3
0000d890 l     O .rodata	00000001 __compound_literal.2
0000d891 l     O .rodata	00000001 __compound_literal.1
0000d892 l     O .rodata	00000001 __compound_literal.0
00012c40 l     O .bss	00000001 stack_canary_inited.0
00000000 l    df *ABS*	00000000 ta_entry_a32.o
00000000 l    df *ABS*	00000000 stack_check.c
00000000 l    df *ABS*	00000000 memcpy.c
00000000 l    df *ABS*	00000000 trace.c
0000e84a l     O .rodata	00000005 lvl_strs.0
00000000 l    df *ABS*	00000000 snprintk.c
000013bc l     F .text	0000079c kprintf.constprop.0
0000e84f l     O .rodata	00000011 hexdigits
0000e860 l     O .rodata	00000011 HEXDIGITS
00000000 l    df *ABS*	00000000 arm32_aeabi_ldivmod_a32.o
00000000 l    df *ABS*	00000000 arm32_aeabi_ldivmod.c
00001ba0 l     F .text	0000008a ul_div_qr
00000000 l    df *ABS*	00000000 assert.c
00000000 l    df *ABS*	00000000 trace_ext.c
00000000 l    df *ABS*	00000000 tee_api.c
00001e80 l     F .text	00000052 copy_param
00001ed2 l     F .text	00000052 copy_gp11_param
00001f24 l     F .text	00000070 check_mem_access_rights_params
00001f94 l     F .text	00000028 buf_overlaps_no_share_heap
00001fbc l     F .text	0000005c check_invoke_param
00002018 l     F .text	00000064 update_out_param
0000207c l     F .text	00000064 update_out_gp11_param
0000222c l     F .text	00000110 map_tmp_param
0000d8a0 l     O .rodata	0000000b __func__.0
0000f3e8 l     O .bss	00000004 tee_api_instance_data
00000000 l    df *ABS*	00000000 tee_api_operations.c
00002948 l     F .text	00000094 __tee_alg_get_main_alg
000029dc l     F .text	00000194 tee_buffer_update
00002b70 l     F .text	000000c4 ae_update_helper
00002c34 l     F .text	0000005c __tee_alg_get_class
00002c90 l     F .text	0000002e reset_operation_state
00002cbe l     F .text	00000126 set_operation_key2
0000e871 l     O .rodata	00000012 __func__.0
00000000 l    df *ABS*	00000000 tee_api_panic.c
00005550 l     F .text	00000020 check_access
00005574 l     F .text	00000006 check_res.part.0
0000557a l     F .text	0000002e __utee_check_outbuf_annotation.localalias
000055e0 l     F .text	00000018 __utee_check_attr_in_annotation.localalias
00000000 l    df *ABS*	00000000 tee_system_pta.c
00005610 l     F .text	00000050 invoke_system_pta
0000d8b0 l     O .rodata	00000010 uuid.2
0000d8c0 l     O .rodata	0000000a __func__.1
0000d8ca l     O .rodata	00000017 __func__.0
0000f3f0 l     O .bss	00000004 sess.3
00000000 l    df *ABS*	00000000 user_ta_entry.c
00005808 l     F .text	0000006a _get_fn_array
00005872 l     F .text	0000006a _fini_iterate_phdr_cb
000058dc l     F .text	0000001c ta_header_get_session
000058f8 l     F .text	0000005a to_utee_params
00005952 l     F .text	0000003c from_utee_params
0000598e l     F .text	00000062 _init_iterate_phdr_cb
00005aec l     F .text	0000006c ta_header_remove_session
0000e883 l     O .rodata	00000016 __func__.0
0000f3f4 l     O .bss	00000004 _num_mod_init
0000f3f8 l     O .bss	00000001 init_done
0000f334 l     O .data	00000008 ta_sessions
0000f33c l     O .data	00000008 __phdr_info_head
00000000 l    df *ABS*	00000000 utee_syscalls_a32.o
00000000 l    df *ABS*	00000000 abort.c
00000000 l    df *ABS*	00000000 tee_api_arith_mpi.c
0000624c l     F .text	00000020 api_panic
0000626c l     F .text	00000020 mpi_panic
0000628c l     F .text	00000050 get_mpi
000062dc l     F .text	00000040 copy_mpi_to_bigint
0000631c l     F .text	000000e0 bigint_binary
000063fc l     F .text	00000010 mpi_is_odd
0000640c l     F .text	00000016 rng_read
00006422 l     F .text	00000496 mpi_egcd
0000f430 l     O .bss	00003800 data.18
00006c80 l     F .text	00000148 bigint_binary_mod
0000e899 l     O .rodata	00000008 __func__.15
0000e8a1 l     O .rodata	0000000e __func__.11
0000e8af l     O .rodata	00000009 __func__.2
0000e8b8 l     O .rodata	00000012 __func__.17
0000e8ca l     O .rodata	0000000f __func__.16
0000e8d9 l     O .rodata	0000001f __func__.14
0000e8f8 l     O .rodata	00000019 __func__.13
0000e911 l     O .rodata	00000012 __func__.7
0000e923 l     O .rodata	00000015 __func__.12
0000e938 l     O .rodata	0000000e __func__.10
0000e946 l     O .rodata	0000000e __func__.9
0000e954 l     O .rodata	0000000e __func__.8
0000e962 l     O .rodata	00000011 __func__.6
0000e973 l     O .rodata	00000018 __func__.5
0000e98b l     O .rodata	00000011 __func__.4
0000e99c l     O .rodata	0000001d __func__.3
0000e9b9 l     O .rodata	00000019 __func__.1
0000e9d2 l     O .rodata	00000015 __func__.0
00000000 l    df *ABS*	00000000 tee_api_objects.c
00000000 l    df *ABS*	00000000 tee_api_property.c
00008ce0 l     F .text	00000050 propset_get
00008d30 l     F .text	00000014 is_propset_pseudo_handle
00008d44 l     F .text	000000c0 propget_get_ext_prop
00008e04 l     F .text	00000158 propget_get_property
0000d8e4 l     O .rodata	00000004 __compound_literal.3
0000d8e8 l     O .rodata	00000004 __compound_literal.2
0000d8ec l     O .rodata	00000004 __compound_literal.1
0000d8f0 l     O .rodata	00000004 __compound_literal.0
00000000 l    df *ABS*	00000000 tcb.c
0000e9e7 l     O .rodata	00000010 __func__.1
0000e9f7 l     O .rodata	00000010 __func__.0
00012c30 l     O .bss	00000004 _tls_size
00012c34 l     O .bss	00000004 _tcb
00000000 l    df *ABS*	00000000 base64.c
0000ea07 l     O .rodata	00000041 base64_table
00000000 l    df *ABS*	00000000 bignum.c
00009b14 l     F .text	00000020 mbedtls_ct_bool
00009b34 l     F .text	00000028 mbedtls_ct_mpi_sign_if
00009b5c l     F .text	00000036 mpi_get_digit
00009df0 l     F .text	00000036 mbedtls_mpi_resize_clear
0000a3b8 l     F .text	0000005e add_sub_mpi
0000ac04 l     F .text	00000220 mbedtls_mpi_exp_mod_optionally_safe
0000b028 l     F .text	0000008c mpi_check_small_factors
0000b2c8 l     F .text	000001c8 mpi_miller_rabin
0000d8f4 l     O .rodata	000000a7 small_prime_gaps
0000d99c l     O .rodata	00000024 gcd_pairs
00000000 l    df *ABS*	00000000 bignum_core.c
0000be00 l     F .text	00000020 mbedtls_ct_bool
0000be20 l     F .text	0000003c mbedtls_ct_uint_lt
0000c516 l     F .text	000001b6 mbedtls_mpi_core_exp_mod_optionally_safe
00000000 l    df *ABS*	00000000 constant_time.c
0000c8f8 l     F .text	00000020 mbedtls_ct_bool
0000c918 l     F .text	0000003c mbedtls_ct_uint_lt
00000000 l    df *ABS*	00000000 platform_util.c
0000f380 l     O .data	00000004 memset_func
00000000 l    df *ABS*	00000000 bget_malloc.c
0000caf8 l     F .text	0000000a _assert_trap
0000cb02 l     F .text	00000022 bget_buf_size.part.0
0000ea48 l     O .rodata	0000000e __func__.2
0000ea56 l     O .rodata	00000005 __func__.8
0000ea5b l     O .rodata	00000006 __func__.7
0000ea61 l     O .rodata	00000005 __func__.5
0000ea66 l     O .rodata	00000006 __func__.6
0000ea6c l     O .rodata	00000006 __func__.4
0000ea72 l     O .rodata	00000007 __func__.3
0000ea79 l     O .rodata	00000014 __func__.1
0000ea8d l     O .rodata	00000013 __func__.0
0000f384 l     O .data	0000005c malloc_ctx
00000000 l    df *ABS*	00000000 snprintf.c
00000000 l    df *ABS*	00000000 mempool.c
0000eaa0 l     O .rodata	00000013 __func__.2
0000eab3 l     O .rodata	0000000b __func__.1
0000eabe l     O .rodata	0000000e __func__.0
00000000 l    df *ABS*	00000000 memset.c
00000000 l    df *ABS*	00000000 strcmp.c
00000000 l    df *ABS*	00000000 memchr.c
00000000 l    df *ABS*	00000000 strlen.c
00000000 l    df *ABS*	00000000 memmove.c
00000000 l    df *ABS*	00000000 strlcpy.c
00000000 l    df *ABS*	00000000 consttime_memcmp.c
00000000 l    df *ABS*	00000000 
0000f000 l     O *ABS*	00000000 _DYNAMIC
0000f088 l     O *ABS*	00000000 _GLOBAL_OFFSET_TABLE_
0000d780 l     F .text	00000010 ___utee_cache_operation_from_thumb
0000d790 l     F .text	00000010 ___utee_panic_from_thumb
0000d7a0 l     F .text	00000010 ___utee_log_from_thumb
00001e28 g     F .text	00000058 putchar
000069c4 g     F .text	00000004 __GP11_TEE_BigIntConvertFromOctetString
000081ac g     F .text	000000b8 TEE_PopulateTransientObject
0000c22a g     F .text	0000003a mbedtls_mpi_core_add_if
00004320 g     F .text	00000004 __GP11_TEE_AEInit
0000797e g     F .text	00000004 TEE_BigIntConvertToFMM
00007418 g     F .text	00000008 TEE_BigIntSquareMod
00006dc8 g     F .text	00000148 TEE_BigIntShiftRight
0000d34e g     F .text	0000007e raw_malloc_add_pool
0000574c g     F .text	000000bc tee_invoke_supp_plugin
0000c700 g     F .text	0000005e mbedtls_mpi_core_fill_random
00009ca4 g     F .text	00000098 mbedtls_mpi_grow
00001c98 g     F .text	000000a8 __l_divmod
00003984 g     F .text	00000030 TEE_DigestUpdate
0000957e g     F .text	000000c6 __GP11_TEE_GetPropertyName
000028a8 g     F .text	00000088 TEE_Realloc
0000c120 g     F .text	00000070 mbedtls_mpi_core_shift_r
0000388e g     F .text	00000016 TEE_SetOperationKey2
0000418c g     F .text	0000006c __GP11_TEE_MACComputeFinal
000055fa g     F .text	00000016 __utee_check_inout_annotation
0000d19c g     F .text	00000008 raw_free
0000c96e g     F .text	0000004e mbedtls_ct_memcmp_partial
00001d92 g     F .text	00000072 printf
00007078 g     F .text	00000010 TEE_BigIntAbs
00003de4 g     F .text	0000006c __GP11_TEE_CipherUpdate
0000831c g     F .text	00000022 TEE_InitRefAttribute
00005dac g     F .text	00000014 _utee_log
000024e8 g     F .text	000000fc TEE_InvokeTACommand
00008382 g     F .text	00000022 __GP11_TEE_InitValueAttribute
0000557a g     F .text	0000002e __utee_check_outbuf_annotation
0000c0bc g     F .text	00000064 mbedtls_mpi_core_write_be
00009c40 g     F .text	00000024 mbedtls_mpi_init_mempool
00006048 g     F .text	00000014 _utee_cryp_random_number_generate
0000a0e4 g     F .text	0000000c mbedtls_mpi_write_binary
000044cc g     F .text	00000160 TEE_AEEncryptFinal
00000e18 g     F .text	0000017c e32_parser_find_rsc_table
00000d8c g     F .text	0000008c e32_parser_load_elf_image
00001360 g     F .text	0000000e vsnprintk
0000a484 g     F .text	00000064 mbedtls_mpi_sub_int
00004b78 g     F .text	000000f4 __GP11_TEE_AsymmetricDecrypt
0000d6d6 g     F .text	00000034 memmove
0000d52c g     F .text	00000054 snprintf
00006c24 g     F .text	0000005c TEE_BigIntCmpS32
000026f4 g     F .text	00000004 __GP11_TEE_MemMove
0000f330 g     O .data	00000004 __stack_chk_guard
00008360 g     F .text	00000022 TEE_InitValueAttribute
00009e26 g     F .text	000000b2 mbedtls_mpi_shrink
00002704 g     F .text	00000004 __GP11_TEE_MemFill
00007088 g     F .text	00000020 TEE_BigIntAdd
00005fa8 g     F .text	00000014 _utee_cryp_obj_restrict_usage
0000833e g     F .text	00000022 __GP11_TEE_InitRefAttribute
0000d898 g     O .rodata	00000004 ta_heap_size
00008138 g     F .text	00000074 TEE_ResetTransientObject
000060d0 g     F .text	00000018 _utee_asymm_operate
00009980 g     F .text	0000000e _base64_enc_len
0000a65e g     F .text	00000156 mbedtls_mpi_read_string
00008558 g     F .text	0000008c __GP11_TEE_GenerateKey
00003c44 g     F .text	00000074 TEE_CipherInit
0000c2a2 g     F .text	00000176 mbedtls_mpi_core_mla
00000ce4 g     F .text	000000a8 e32_parse_ehdr
000070c8 g     F .text	000000a8 TEE_BigIntNeg
0000616c g     F .text	00000014 _utee_storage_free_enum
00000000 g       .text	00000000 __text_start
000096a4 g     F .text	000000a0 TEE_GetNextProperty
000088a8 g     F .text	0000002c TEE_StartPersistentObjectEnumerator
0000a12a g     F .text	00000012 mbedtls_mpi_shift_r
0000d51c g     F .text	00000010 malloc_buffer_overlaps_heap
00005f10 g     F .text	00000014 _utee_hash_init
000073e0 g     F .text	0000001c TEE_BigIntSubMod
0000b888 g     F .text	00000244 mbedtls_mpi_gen_prime
000093ac g     F .text	00000064 TEE_GetPropertyAsBinaryBlock
00009fd8 g     F .text	00000020 mbedtls_mpi_get_bit
0000c75e g     F .text	0000009e mbedtls_mpi_core_random
0000d894 g     O .rodata	00000004 __ta_no_share_heap_size
0000a0ac g     F .text	0000002c mbedtls_mpi_read_binary
000042b0 g     F .text	00000070 TEE_AEInit
000012ac g     F .text	0000004c trace_printf
0000b0c2 g     F .text	00000024 mbedtls_mpi_montmul
00006220 g     F .text	00000014 _utee_cache_operation
00001034 g     F .text	000000d8 memcpy
0000c812 g     F .text	00000020 mbedtls_mpi_core_exp_mod
00007982 g     F .text	0000009a TEE_BigIntConvertFromFMM
00005570 g     F .text	00000004 TEE_Panic
0000ca28 g     F .text	0000003c mbedtls_ct_memcpy_if
00001b88 g     F .text	00000018 __aeabi_uldivmod
000038c6 g     F .text	000000be TEE_CopyOperation
00001e04 g     F .text	00000024 puts
00007a1c g     F .text	000000f4 TEE_BigIntComputeFMM
0000d4ec g     F .text	00000010 malloc_get_stats
000027a0 g     F .text	00000016 TEE_GetREETime
0000d4d4 g     F .text	00000018 raw_malloc_get_stats
00008818 g     F .text	00000068 TEE_AllocatePersistentObjectEnumerator
0000f2c4 g     O .data	0000006c ta_props
00004868 g     F .text	00000110 TEE_AsymmetricEncrypt
00002868 g     F .text	00000004 __GP11_TEE_Malloc
00002418 g     F .text	000000d0 __GP11_TEE_OpenTASession
000055aa g     F .text	0000001c __utee_check_instring_annotation
0000d29a g     F .text	00000012 malloc
00000f94 g     F .text	00000070 __ta_entry_c
00009570 g     F .text	00000004 TEE_FreePropertyEnumerator
00003cb8 g     F .text	00000004 __GP11_TEE_CipherInit
000084cc g     F .text	0000008c TEE_GenerateKey
0000d580 g     F .text	0000000e vsnprintf
0000f2c0 g     O .data	00000004 trace_level
00008688 g     F .text	00000004 __GP11_TEE_OpenPersistentObject
00006bb8 g     F .text	0000006c TEE_BigIntCmp
0000d87c g     O .rodata	00000004 ta_num_props
0000cfb0 g     F .text	00000080 bgetr
00006100 g     F .text	00000018 _utee_storage_obj_open
000026fc g     F .text	00000004 __GP11_TEE_MemCompare
0000d674 g     F .text	00000010 mempool_free
00003cbc g     F .text	00000128 TEE_CipherUpdate
00005f24 g     F .text	00000014 _utee_hash_update
000069c8 g     F .text	0000008c TEE_BigIntConvertToOctetString
00003618 g     F .text	00000108 TEE_GetOperationInfoMultiple
0000a06c g     F .text	00000008 mbedtls_mpi_bitlen
00006f14 g     F .text	00000060 TEE_BigIntGetBit
0000d89c g     O .rodata	00000003 trace_ext_prefix
000061a8 g     F .text	00000014 _utee_storage_next_enum
0000d18a g     F .text	00000012 raw_malloc
0000cd40 g     F .text	0000005c bgetz
000026e4 g     F .text	0000000c TEE_GetInstanceData
0000271e g     F .text	0000001e TEE_Wait
0000a4e8 g     F .text	00000114 mbedtls_mpi_mul_mpi
00006f10 g     F .text	00000004 __GP11_TEE_BigIntShiftRight
0000293a g     F .text	00000006 TEE_CacheFlush
0000113c g     F .text	00000170 trace_vprintf
00000344 g     F .text	00000002 TA_DestroyEntryPoint
00009c34 g     F .text	0000000c mbedtls_mpi_init
00006130 g     F .text	00000014 _utee_storage_obj_del
0000a046 g     F .text	00000026 mbedtls_mpi_lsb
00003fbc g     F .text	00000070 __GP11_TEE_CipherDoFinal
00001d40 g     F .text	00000028 _assert_log
00004420 g     F .text	000000ac __GP11_TEE_AEUpdate
00005ee8 g     F .text	00000014 _utee_cryp_state_copy
00007976 g     F .text	00000004 TEE_BigIntFMMContextSizeInU32
000056cc g     F .text	00000080 tee_unmap
000041f8 g     F .text	000000b4 TEE_MACCompareFinal
000087da g     F .text	0000003a TEE_RenamePersistentObject
000039b8 g     F .text	000000f4 TEE_DigestDoFinal
00008264 g     F .text	000000b8 __GP11_TEE_PopulateTransientObject
000068b8 g     F .text	00000044 _TEE_MathAPI_Init
00009744 g     F .text	0000017c __utee_tcb_init
0000a416 g     F .text	00000004 mbedtls_mpi_add_mpi
00006234 g     F .text	00000018 abort
0000b490 g     F .text	0000003e mbedtls_mpi_random
0000100c g     F .text	00000028 __stack_chk_fail
000055ca g     F .text	00000016 __utee_check_out_annotation
00012c41 g     O .bss	00001000 ta_heap
00007420 g     F .text	000000f4 TEE_BigIntInvMod
000039b4 g     F .text	00000004 __GP11_TEE_DigestUpdate
000059f0 g     F .text	000000ec __utee_call_elf_init_fn
00007bf4 g     F .text	00000090 __GP11_TEE_GetObjectInfo
00000398 g     F .text	00000018 TA_CloseSessionEntryPoint
00005e18 g     F .text	00000014 _utee_close_ta_session
00007d0c g     F .text	00000088 __GP11_TEE_GetObjectInfo1
00007962 g     F .text	00000004 __GP11_TEE_BigIntInitFMMContext
00004a68 g     F .text	00000110 TEE_AsymmetricDecrypt
000085e4 g     F .text	000000a4 TEE_OpenPersistentObject
0000c876 g     F .text	00000018 mbedtls_mpi_core_check_zero_ct
0000a41a g     F .text	00000006 mbedtls_mpi_sub_mpi
0000d734 g     F .text	00000048 consttime_memcmp
00005d98 g     F .text	00000014 _utee_return
00005dc0 g     F .text	00000014 __utee_panic
0000c954 g     F .text	0000001a mbedtls_ct_memcmp
000098c0 g     F .text	00000018 __tls_get_addr
000003b0 g     F .text	00000934 TA_InvokeCommandEntryPoint
00005adc g     F .text	00000010 __utee_call_elf_fini_fn
0000d328 g     F .text	00000010 free_wipe
0000d614 g     F .text	0000003c mempool_alloc
00005d84 g     F .text	00000014 _utee_panic
0000d33c g     F .text	00000012 raw_malloc_init_ctx
0000d650 g     F .text	00000024 mempool_calloc
0000620c g     F .text	00000014 _utee_cryp_obj_generate_key
0000845c g     F .text	00000070 TEE_CopyObjectAttributes
000061e4 g     F .text	00000014 _utee_storage_obj_trunc
0000f344 g     O .data	0000003c tee_props
00005e6c g     F .text	00000014 _utee_unmask_cancellation
00009540 g     F .text	00000008 TEE_ResetPropertyEnumerator
0000d2ac g     F .text	00000020 calloc
000027b6 g     F .text	000000b2 TEE_Malloc
000021e4 g     F .text	00000048 TEE_CheckMemoryAccessRights
00009410 g     F .text	00000098 TEE_GetPropertyAsUUID
00001c2a g     F .text	0000006e __ul_divmod
00005dd4 g     F .text	00000018 _utee_get_property
00003aac g     F .text	0000006c __GP11_TEE_DigestDoFinal
00006fcc g     F .text	00000080 TEE_BigIntSetBit
00009fa0 g     F .text	00000038 mbedtls_mpi_lset
000038a4 g     F .text	00000022 __GP11_TEE_SetOperationKey2
00008a84 g     F .text	0000008c TEE_ReadObjectData
00007e24 g     F .text	000000c0 TEE_GetObjectBufferAttribute
00000346 g     F .text	00000052 TA_OpenSessionEntryPoint
0000c854 g     F .text	00000022 mbedtls_mpi_core_sub_int
00002de4 g     F .text	00000024 TEE_FreeOperation
000098d8 g     F .text	000000a8 dl_iterate_phdr
00013c48 g       .bss	00000000 __ftrace_buf_end
0000f42c g     O .bss	00000004 ta_param_types
0000ab3a g     F .text	00000066 mbedtls_mpi_div_int
00007b10 g     F .text	0000002a __utee_from_attr
0000c058 g     F .text	00000064 mbedtls_mpi_core_write_le
0000b7ec g     F .text	0000009c mbedtls_mpi_is_prime_ext
000078e8 g     F .text	00000070 TEE_BigIntIsProbablePrime
0000a5fc g     F .text	00000062 mbedtls_mpi_mul_int
0000879e g     F .text	00000026 TEE_CloseAndDeletePersistentObject1
0000b13c g     F .text	00000012 mbedtls_mpi_exp_mod
00009d3c g     F .text	00000052 mbedtls_mpi_safe_cond_assign
00008f5c g     F .text	0000018c TEE_GetPropertyAsString
00009b92 g     F .text	000000a2 mbedtls_mpi_lt_mpi_ct
000046b8 g     F .text	00000138 TEE_AEDecryptFinal
000068fc g     F .text	00000038 TEE_BigIntInit
00006a54 g     F .text	0000004c __GP11_TEE_BigIntConvertToOctetString
0000704c g     F .text	0000002c TEE_BigIntAssign
000055c6 g     F .text	00000002 __utee_check_outstring_annotation
000026f0 g     F .text	00000004 TEE_MemMove
0000cacc g     F .text	00000018 mbedtls_platform_zeroize
00006938 g     F .text	0000008c TEE_BigIntConvertFromOctetString
000060b8 g     F .text	00000018 _utee_authenc_dec_final
0000a13c g     F .text	0000005e mbedtls_mpi_cmp_abs
000061bc g     F .text	00000014 _utee_storage_obj_read
0000402c g     F .text	00000056 TEE_MACInit
00004c6c g     F .text	000000ec TEE_AsymmetricSignDigest
0000d6aa g     F .text	0000001c memchr
00002144 g     F .text	00000050 TEE_UnmaskCancellation
00007b64 g     F .text	00000090 TEE_GetObjectInfo
0000bacc g     F .text	00000334 mbedtls_mpi_self_test
000061f8 g     F .text	00000014 _utee_storage_obj_seek
000055a8 g     F .text	00000002 __utee_check_gp11_outbuf_annotation
000043b6 g     F .text	0000006a TEE_AEUpdate
000080c4 g     F .text	00000074 TEE_FreeTransientObject
0000bf74 g     F .text	00000050 mbedtls_mpi_core_cond_swap
00005e58 g     F .text	00000014 _utee_check_access_rights
0000c00e g     F .text	0000004a mbedtls_mpi_core_read_be
000025e4 g     F .text	000000f0 __GP11_TEE_InvokeTACommand
0000a224 g     F .text	00000064 mbedtls_mpi_cmp_int
00009a50 g     F .text	000000c4 _base64_dec
00006180 g     F .text	00000014 _utee_storage_reset_enum
000035d4 g     F .text	00000014 __GP11_TEE_FreeOperation
00005202 g     F .text	0000004a rand
000055e0 g     F .text	00000018 __utee_check_attr_in_annotation
00006088 g     F .text	00000018 _utee_authenc_update_payload
000035e8 g     F .text	00000030 TEE_GetOperationInfo
00007374 g     F .text	00000050 TEE_BigIntMod
0000ae24 g     F .text	0000006c mbedtls_mpi_mod_int
00004d58 g     F .text	000000ec __GP11_TEE_AsymmetricSignDigest
0000a080 g     F .text	0000002c mbedtls_mpi_read_binary_le
00007252 g     F .text	00000122 TEE_BigIntDiv
00005fd0 g     F .text	00000014 _utee_cryp_obj_alloc
00013c48 g       .bss	00000000 __ftrace_buf_start
0000d70a g     F .text	0000002a strlcpy
00009ed8 g     F .text	0000006a mbedtls_mpi_copy
0000be5c g     F .text	00000006 mbedtls_mpi_core_clz
0000524c g     F .text	00000304 TEE_IsAlgorithmSupported
0000d128 g     F .text	00000014 malloc_reset_stats
000094a8 g     F .text	00000098 TEE_GetPropertyAsIdentity
00001b58 g     F .text	00000016 __vsprintf
00009278 g     F .text	00000098 TEE_GetPropertyAsU64
00005ebc g     F .text	00000014 _utee_set_ta_time
00005e2c g     F .text	00000018 _utee_invoke_ta_command
00007d94 g     F .text	00000020 TEE_RestrictObjectUsage1
0000d2cc g     F .text	0000001c realloc
00009f42 g     F .text	0000005e mbedtls_mpi_swap
0000d590 g     F .text	00000084 mempool_alloc_pool
00007170 g     F .text	000000dc TEE_BigIntMul
00003780 g     F .text	00000020 TEE_ResetOperation
0000d338 g     F .text	00000004 raw_malloc_get_ctx_size
0000a0f0 g     F .text	0000003a mbedtls_mpi_shift_l
0000a19a g     F .text	0000008a mbedtls_mpi_cmp_mpi
00002700 g     F .text	00000004 TEE_MemFill
0000c832 g     F .text	00000022 mbedtls_mpi_core_exp_mod_unsafe
0000d4fc g     F .text	00000010 malloc_add_pool
00004086 g     F .text	0000004e TEE_MACUpdate
00001128 g     F .text	00000014 trace_get_level
0000a288 g     F .text	00000090 mbedtls_mpi_add_abs
00007db4 g     F .text	00000070 TEE_RestrictObjectUsage
0000796a g     F .text	00000008 TEE_BigIntFMMSizeInU32
0000914c g     F .text	00000094 TEE_GetPropertyAsBool
0000d1f4 g     F .text	000000a6 raw_realloc
00007958 g     F .text	00000004 TEE_BigIntInitFMM
00008024 g     F .text	00000014 TEE_CloseObject
00005f50 g     F .text	00000014 _utee_cipher_init
00005b58 g     F .text	0000022c __utee_entry
000091e0 g     F .text	00000098 TEE_GetPropertyAsU32
0000d7b0 g       .text	00000000 __text_end
00007514 g     F .text	000000b0 TEE_BigIntRelativePrime
0000aba0 g     F .text	00000064 mbedtls_mpi_mod_mpi
0000bee8 g     F .text	00000050 mbedtls_mpi_core_lt_ct
00005f94 g     F .text	00000014 _utee_cryp_obj_get_info
0000c264 g     F .text	0000003e mbedtls_mpi_core_sub
0000d030 g     F .text	00000098 bpool
00009548 g     F .text	00000028 TEE_AllocatePropertyEnumerator
00005ed0 g     F .text	00000018 _utee_cryp_state_alloc
000020f4 g     F .text	00000050 TEE_GetCancellationFlag
00008760 g     F .text	0000003e __GP11_TEE_CreatePersistentObject
0000b162 g     F .text	00000136 mbedtls_mpi_gcd
00002778 g     F .text	00000028 TEE_SetTAPersistentTime
0000cae4 g     F .text	00000014 mbedtls_zeroize_and_free
0000a0d8 g     F .text	0000000c mbedtls_mpi_write_binary_le
0000d684 g     F .text	00000010 memset
0000d13c g     F .text	0000004e raw_memalign
0000273c g     F .text	0000003c TEE_GetTAPersistentTime
00003870 g     F .text	0000001e __GP11_TEE_SetOperationKey
0000462c g     F .text	0000008c __GP11_TEE_AEEncryptFinal
000012f8 g     F .text	00000002 dhex_dump
0000be86 g     F .text	00000026 mbedtls_mpi_core_bigendian_to_host
0000868c g     F .text	000000d4 TEE_CreatePersistentObject
00002194 g     F .text	00000050 TEE_MaskCancellation
00004324 g     F .text	0000004c TEE_AEUpdateAAD
00008bb8 g     F .text	00000038 TEE_TruncateObjectData
00005fbc g     F .text	00000014 _utee_cryp_obj_get_attr
00007c84 g     F .text	00000088 TEE_GetObjectInfo1
00005f7c g     F .text	00000018 _utee_cipher_final
0000110c g     F .text	0000001c trace_set_level
0000c88e g     F .text	00000016 mbedtls_mpi_core_to_mont_rep
00007f48 g     F .text	000000dc TEE_GetObjectValueAttribute
000037a0 g     F .text	000000d0 TEE_SetOperationKey
00007ee4 g     F .text	00000064 __GP11_TEE_GetObjectBufferAttribute
0000ca64 g     F .text	00000054 mbedtls_ct_memcpy_offset
00005efc g     F .text	00000014 _utee_cryp_state_free
0000d694 g     F .text	00000016 strcmp
00005e00 g     F .text	00000018 _utee_open_ta_session
00006b24 g     F .text	00000094 TEE_BigIntConvertToS32
000070a8 g     F .text	00000020 TEE_BigIntSub
00008ccc g     F .text	00000012 __GP11_TEE_SeekObjectData
00001004 g     F .text	00000004 tahead_get_trace_level
00006194 g     F .text	00000014 _utee_storage_start_enum
0000c9bc g     F .text	0000006c mbedtls_ct_memmove_left
00008bf4 g     F .text	000000d8 TEE_SeekObjectData
00005660 g     F .text	0000006c tee_map_zi
00008bf0 g     F .text	00000004 __GP11_TEE_TruncateObjectData
0000b0e6 g     F .text	00000056 mbedtls_mpi_montred
0000d2e8 g     F .text	00000020 memalign
00003e50 g     F .text	0000016c TEE_CipherDoFinal
00006934 g     F .text	00000004 __GP11_TEE_BigIntInit
0000c190 g     F .text	0000006c mbedtls_mpi_core_shift_l
00006aa0 g     F .text	00000084 TEE_BigIntConvertFromS32
0000a420 g     F .text	00000064 mbedtls_mpi_add_int
000060a0 g     F .text	00000018 _utee_authenc_enc_final
0000d50c g     F .text	00000010 malloc_buffer_is_within_alloced
00005fe4 g     F .text	00000014 _utee_cryp_obj_close
000051fe g     F .text	00000004 __GP11_TEE_GenerateRandom
00007960 g     F .text	00000002 TEE_BigIntInitFMMContext
00005e80 g     F .text	00000014 _utee_mask_cancellation
0000f408 g     O .bss	00000004 __ta_no_share_malloc_ctx
00006144 g     F .text	00000014 _utee_storage_obj_rename
000089ac g     F .text	000000d8 __GP11_TEE_GetNextPersistentObject
00008b74 g     F .text	00000040 TEE_WriteObjectData
00008894 g     F .text	00000014 TEE_ResetPersistentObjectEnumerator
000026d4 g     F .text	00000004 __GP11_TEE_CheckMemoryAccessRights
0000724c g     F .text	00000006 TEE_BigIntSquare
000061d0 g     F .text	00000014 _utee_storage_obj_write
0000be62 g     F .text	00000024 mbedtls_mpi_core_bitlen
00000340 g     F .text	00000004 TA_CreateEntryPoint
00001008 g     F .text	00000004 __ta_entry
00012c41 g     O .bss	00000000 __ta_no_share_heap
00006074 g     F .text	00000014 _utee_authenc_update_aad
0000b0b4 g     F .text	0000000e mbedtls_mpi_montg_init
0000136e g     F .text	0000004e snprintk
00006f74 g     F .text	00000058 TEE_BigIntGetBitCount
00006020 g     F .text	00000014 _utee_cryp_obj_copy
00004370 g     F .text	00000046 __GP11_TEE_AEUpdateAAD
000073fc g     F .text	0000001c TEE_BigIntMulMod
0000b4ce g     F .text	0000031e mbedtls_mpi_inv_mod
000055f8 g     F .text	00000002 __utee_check_gp11_attr_in_annotation
00004ffc g     F .text	000000f8 TEE_DeriveKey
0000f40c g     O .bss	00000020 ta_params
0000a7b4 g     F .text	00000386 mbedtls_mpi_div_mpi
000055c8 g     F .text	00000002 __utee_check_gp11_outstring_annotation
0000a074 g     F .text	0000000c mbedtls_mpi_size
0000cb24 g     F .text	0000021c bget
00008b10 g     F .text	00000064 __GP11_TEE_ReadObjectData
000080ac g     F .text	00000018 TEE_AllocateTransientObject
000040d4 g     F .text	00000004 __GP11_TEE_MACUpdate
0000797a g     F .text	00000004 __GP11_TEE_BigIntFMMContextSizeInU32
00009574 g     F .text	0000000a TEE_StartPropertyEnumerator
00005e94 g     F .text	00000014 _utee_wait
00009ff8 g     F .text	0000004e mbedtls_mpi_set_bit
0000beac g     F .text	0000003c mbedtls_mpi_core_uint_le_mpi
0000286c g     F .text	0000003c TEE_Free
00002940 g     F .text	00000006 TEE_CacheInvalidate
00001d68 g     F .text	00000010 _assert_break
0000c7fc g     F .text	00000016 mbedtls_mpi_core_exp_mod_working_limbs
000073c4 g     F .text	0000001c TEE_BigIntAddMod
0000795c g     F .text	00000004 __GP11_TEE_BigIntInitFMM
00005ea8 g     F .text	00000014 _utee_get_time
0000c1fc g     F .text	0000002e mbedtls_mpi_core_add
00009644 g     F .text	00000060 TEE_GetPropertyName
00002930 g     F .text	00000004 __GP11_TEE_Realloc
00002e08 g     F .text	000007cc TEE_AllocateOperation
0000600c g     F .text	00000014 _utee_cryp_obj_populate
0000bfc4 g     F .text	0000004a mbedtls_mpi_core_read_le
00003720 g     F .text	00000060 __GP11_TEE_GetOperationInfoMultiple
00012c3c g     O .bss	00000004 mbedtls_ct_zero
00007b3a g     F .text	0000002a __utee_from_gp11_attr
000051ec g     F .text	00000012 TEE_GenerateRandom
00003b18 g     F .text	0000012c TEE_DigestExtract
000026f8 g     F .text	00000004 TEE_MemCompare
00005f64 g     F .text	00000018 _utee_cipher_update
000012fc g     F .text	00000064 __vsnprintf
0000f3fc g     O .bss	0000000c __elf_phdr_info
0000b14e g     F .text	00000014 mbedtls_mpi_exp_mod_unsafe
00008880 g     F .text	00000014 TEE_FreePersistentObjectEnumerator
0000233c g     F .text	000000dc TEE_OpenTASession
0000cab8 g     F .text	00000014 mbedtls_ct_zeroize_if
000050f4 g     F .text	000000f8 __GP11_TEE_DeriveKey
0000c8a4 g     F .text	00000054 mbedtls_mpi_core_from_mont_rep
000047f0 g     F .text	00000078 __GP11_TEE_AEDecryptFinal
00001d78 g     F .text	00000014 trace_ext_puts
000090e8 g     F .text	00000064 __GP11_TEE_GetPropertyAsString
0000d41e g     F .text	000000b6 raw_malloc_buffer_is_within_alloced
00001d8c g     F .text	00000006 trace_ext_get_thread_id
0000d3cc g     F .text	00000052 raw_malloc_buffer_overlaps_heap
000087c4 g     F .text	00000016 TEE_CloseAndDeletePersistentObject
00006034 g     F .text	00000014 _utee_cryp_derive_key
00009c64 g     F .text	00000040 mbedtls_mpi_free
00004082 g     F .text	00000004 __GP11_TEE_MACInit
00004f20 g     F .text	000000dc __GP11_TEE_AsymmetricVerifyDigest
00005ff8 g     F .text	00000014 _utee_cryp_obj_reset
00002934 g     F .text	00000006 TEE_CacheClean
00005dec g     F .text	00000014 _utee_get_property_name_to_index
0000c47c g     F .text	0000009a mbedtls_mpi_core_montmul
0000d1a4 g     F .text	00000050 raw_calloc
0000998e g     F .text	000000c2 _base64_enc
00009d8e g     F .text	00000062 mbedtls_mpi_safe_cond_swap
0000605c g     F .text	00000018 _utee_authenc_init
000083a4 g     F .text	000000b8 TEE_CopyObjectAttributes1
00008814 g     F .text	00000004 __GP11_TEE_RenamePersistentObject
0000d6c6 g     F .text	00000010 strlen
00007718 g     F .text	000001d0 TEE_BigIntComputeExtendedGcd
00006158 g     F .text	00000014 _utee_storage_alloc_enum
000075c4 g     F .text	00000154 TEE_BigIntExpMod
00002708 g     F .text	00000016 TEE_GetSystemTime
000060e8 g     F .text	00000018 _utee_asymm_verify
0000eb00 g     O .ta_head	00000020 ta_head
0000cd9c g     F .text	00000214 brel
00009310 g     F .text	0000009c __GP11_TEE_GetPropertyAsBinaryBlock
0000a318 g     F .text	000000a0 mbedtls_mpi_sub_abs
0000b298 g     F .text	00000030 mbedtls_mpi_fill_random
00008038 g     F .text	00000074 __GP11_TEE_AllocateTransientObject
000026d8 g     F .text	0000000c TEE_SetInstanceData
00004978 g     F .text	000000f0 __GP11_TEE_AsymmetricEncrypt
00005e44 g     F .text	00000014 _utee_get_cancellation_flag
0000bf38 g     F .text	0000003c mbedtls_mpi_core_cond_assign
00001b70 g     F .text	00000018 __aeabi_ldivmod
0000ae90 g     F .text	00000198 mbedtls_mpi_write_string
0000d308 g     F .text	00000012 aligned_alloc
0000c45a g     F .text	00000022 mbedtls_mpi_core_montmul_init
000088d4 g     F .text	000000d8 TEE_GetNextPersistentObject
00007966 g     F .text	00000004 TEE_BigIntInitFMMContext1
000042ac g     F .text	00000004 __GP11_TEE_MACCompareFinal
00008bb4 g     F .text	00000004 __GP11_TEE_WriteObjectData
0000c6cc g     F .text	00000034 mbedtls_mpi_core_get_mont_r2_unsafe
000020e0 g     F .text	00000014 TEE_CloseTASession
00004e44 g     F .text	000000dc TEE_AsymmetricVerifyDigest
00006118 g     F .text	00000018 _utee_storage_obj_create
00007972 g     F .text	00000004 __GP11_TEE_BigIntFMMSizeInU32
0000c418 g     F .text	00000042 mbedtls_mpi_core_mul
0000d31a g     F .text	0000000e free
0000d0c8 g     F .text	00000060 bstats
000040d8 g     F .text	000000b4 TEE_MACComputeFinal
00012c38 g     O .bss	00000004 mbedtls_mpi_mempool
00005f38 g     F .text	00000018 _utee_hash_final



Disassembly of section .text:

00000000 <remoteproc_find_firmware>:
remoteproc_find_firmware():
/home/dangcaominh/STM32MP1/optee-os/optee-os/ta/remoteproc/src/remoteproc_core.c:337
       0:	4a05      	ldr	r2, [pc, #20]	@ (18 <remoteproc_find_firmware+0x18>)
/home/dangcaominh/STM32MP1/optee-os/optee-os/ta/remoteproc/src/remoteproc_core.c:334
       2:	4603      	mov	r3, r0
/home/dangcaominh/STM32MP1/optee-os/optee-os/ta/remoteproc/src/remoteproc_core.c:337
       4:	447a      	add	r2, pc
       6:	6810      	ldr	r0, [r2, #0]
/home/dangcaominh/STM32MP1/optee-os/optee-os/ta/remoteproc/src/remoteproc_core.c:337 (discriminator 1)
       8:	b900      	cbnz	r0, c <remoteproc_find_firmware+0xc>
/home/dangcaominh/STM32MP1/optee-os/optee-os/ta/remoteproc/src/remoteproc_core.c:342
       a:	4770      	bx	lr
/home/dangcaominh/STM32MP1/optee-os/optee-os/ta/remoteproc/src/remoteproc_core.c:338
       c:	6802      	ldr	r2, [r0, #0]
       e:	429a      	cmp	r2, r3
      10:	d0fb      	beq.n	a <remoteproc_find_firmware+0xa>
/home/dangcaominh/STM32MP1/optee-os/optee-os/ta/remoteproc/src/remoteproc_core.c:337 (discriminator 2)
      12:	6c00      	ldr	r0, [r0, #64]	@ 0x40
      14:	e7f8      	b.n	8 <remoteproc_find_firmware+0x8>
      16:	bf00      	nop
      18:	0000f2b0 	.word	0x0000f2b0

0000001c <remoteproc_get_tlv>:
remoteproc_get_tlv():
/home/dangcaominh/STM32MP1/optee-os/optee-os/ta/remoteproc/src/remoteproc_core.c:300
      1c:	e92d 43f7 	stmdb	sp!, {r0, r1, r2, r4, r5, r6, r7, r8, r9, lr}
      20:	4617      	mov	r7, r2
      22:	4a20      	ldr	r2, [pc, #128]	@ (a4 <remoteproc_get_tlv+0x88>)
      24:	461d      	mov	r5, r3
      26:	4b20      	ldr	r3, [pc, #128]	@ (a8 <remoteproc_get_tlv+0x8c>)
      28:	4604      	mov	r4, r0
      2a:	447a      	add	r2, pc
      2c:	f8dd 8028 	ldr.w	r8, [sp, #40]	@ 0x28
      30:	58d3      	ldr	r3, [r2, r3]
/home/dangcaominh/STM32MP1/optee-os/optee-os/ta/remoteproc/src/remoteproc_core.c:302
      32:	1846      	adds	r6, r0, r1
/home/dangcaominh/STM32MP1/optee-os/optee-os/ta/remoteproc/src/remoteproc_core.c:300
      34:	681b      	ldr	r3, [r3, #0]
      36:	9301      	str	r3, [sp, #4]
      38:	f04f 0300 	mov.w	r3, #0
/home/dangcaominh/STM32MP1/optee-os/optee-os/ta/remoteproc/src/remoteproc_core.c:307
      3c:	2300      	movs	r3, #0
      3e:	602b      	str	r3, [r5, #0]
/home/dangcaominh/STM32MP1/optee-os/optee-os/ta/remoteproc/src/remoteproc_core.c:308
      40:	f8c8 3000 	str.w	r3, [r8]
/home/dangcaominh/STM32MP1/optee-os/optee-os/ta/remoteproc/src/remoteproc_core.c:312
      44:	466b      	mov	r3, sp
/home/dangcaominh/STM32MP1/optee-os/optee-os/ta/remoteproc/src/remoteproc_core.c:311
      46:	42b4      	cmp	r4, r6
      48:	d213      	bcs.n	72 <remoteproc_get_tlv+0x56>
/home/dangcaominh/STM32MP1/optee-os/optee-os/ta/remoteproc/src/remoteproc_core.c:312
      4a:	4618      	mov	r0, r3
      4c:	2204      	movs	r2, #4
      4e:	4621      	mov	r1, r4
      50:	f000 fff0 	bl	1034 <memcpy>
/home/dangcaominh/STM32MP1/optee-os/optee-os/ta/remoteproc/src/remoteproc_core.c:313
      54:	f8dd 9000 	ldr.w	r9, [sp]
/home/dangcaominh/STM32MP1/optee-os/optee-os/ta/remoteproc/src/remoteproc_core.c:314
      58:	2204      	movs	r2, #4
      5a:	18a1      	adds	r1, r4, r2
      5c:	f000 ffea 	bl	1034 <memcpy>
/home/dangcaominh/STM32MP1/optee-os/optee-os/ta/remoteproc/src/remoteproc_core.c:316
      60:	454f      	cmp	r7, r9
/home/dangcaominh/STM32MP1/optee-os/optee-os/ta/remoteproc/src/remoteproc_core.c:314
      62:	4603      	mov	r3, r0
/home/dangcaominh/STM32MP1/optee-os/optee-os/ta/remoteproc/src/remoteproc_core.c:315
      64:	9800      	ldr	r0, [sp, #0]
/home/dangcaominh/STM32MP1/optee-os/optee-os/ta/remoteproc/src/remoteproc_core.c:316
      66:	d111      	bne.n	8c <remoteproc_get_tlv+0x70>
/home/dangcaominh/STM32MP1/optee-os/optee-os/ta/remoteproc/src/remoteproc_core.c:320
      68:	3408      	adds	r4, #8
      6a:	602c      	str	r4, [r5, #0]
/home/dangcaominh/STM32MP1/optee-os/optee-os/ta/remoteproc/src/remoteproc_core.c:321
      6c:	f8c8 0000 	str.w	r0, [r8]
/home/dangcaominh/STM32MP1/optee-os/optee-os/ta/remoteproc/src/remoteproc_core.c:322
      70:	b988      	cbnz	r0, 96 <remoteproc_get_tlv+0x7a>
/home/dangcaominh/STM32MP1/optee-os/optee-os/ta/remoteproc/src/remoteproc_core.c:325
      72:	480b      	ldr	r0, [pc, #44]	@ (a0 <remoteproc_get_tlv+0x84>)
/home/dangcaominh/STM32MP1/optee-os/optee-os/ta/remoteproc/src/remoteproc_core.c:300
      74:	4a0d      	ldr	r2, [pc, #52]	@ (ac <remoteproc_get_tlv+0x90>)
/home/dangcaominh/STM32MP1/optee-os/optee-os/ta/remoteproc/src/remoteproc_core.c:331
      76:	4b0c      	ldr	r3, [pc, #48]	@ (a8 <remoteproc_get_tlv+0x8c>)
/home/dangcaominh/STM32MP1/optee-os/optee-os/ta/remoteproc/src/remoteproc_core.c:300
      78:	447a      	add	r2, pc
/home/dangcaominh/STM32MP1/optee-os/optee-os/ta/remoteproc/src/remoteproc_core.c:331
      7a:	58d3      	ldr	r3, [r2, r3]
      7c:	681a      	ldr	r2, [r3, #0]
      7e:	9b01      	ldr	r3, [sp, #4]
      80:	405a      	eors	r2, r3
      82:	f04f 0300 	mov.w	r3, #0
      86:	d008      	beq.n	9a <remoteproc_get_tlv+0x7e>
      88:	f000 ffc0 	bl	100c <__stack_chk_fail>
/home/dangcaominh/STM32MP1/optee-os/optee-os/ta/remoteproc/src/remoteproc_core.c:327
      8c:	300f      	adds	r0, #15
      8e:	f020 0007 	bic.w	r0, r0, #7
      92:	4404      	add	r4, r0
      94:	e7d7      	b.n	46 <remoteproc_get_tlv+0x2a>
/home/dangcaominh/STM32MP1/optee-os/optee-os/ta/remoteproc/src/remoteproc_core.c:323
      96:	2000      	movs	r0, #0
      98:	e7ec      	b.n	74 <remoteproc_get_tlv+0x58>
/home/dangcaominh/STM32MP1/optee-os/optee-os/ta/remoteproc/src/remoteproc_core.c:331
      9a:	b003      	add	sp, #12
      9c:	e8bd 83f0 	ldmia.w	sp!, {r4, r5, r6, r7, r8, r9, pc}
      a0:	ffff000b 	.word	0xffff000b
      a4:	0000f05a 	.word	0x0000f05a
      a8:	0000000c 	.word	0x0000000c
      ac:	0000f00c 	.word	0x0000f00c

000000b0 <remoteproc_load_segment>:
remoteproc_load_segment():
/home/dangcaominh/STM32MP1/optee-os/optee-os/ta/remoteproc/src/remoteproc_core.c:1010
      b0:	e92d 4ff0 	stmdb	sp!, {r4, r5, r6, r7, r8, r9, sl, fp, lr}
      b4:	4690      	mov	r8, r2
      b6:	4a75      	ldr	r2, [pc, #468]	@ (28c <remoteproc_load_segment+0x1dc>)
      b8:	461f      	mov	r7, r3
      ba:	4b75      	ldr	r3, [pc, #468]	@ (290 <remoteproc_load_segment+0x1e0>)
      bc:	b0a3      	sub	sp, #140	@ 0x8c
      be:	447a      	add	r2, pc
/home/dangcaominh/STM32MP1/optee-os/optee-os/ta/remoteproc/src/remoteproc_core.c:1016
      c0:	f10d 0b2c 	add.w	fp, sp, #44	@ 0x2c
/home/dangcaominh/STM32MP1/optee-os/optee-os/ta/remoteproc/src/remoteproc_core.c:1010
      c4:	9c2c      	ldr	r4, [sp, #176]	@ 0xb0
      c6:	4606      	mov	r6, r0
      c8:	58d3      	ldr	r3, [r2, r3]
      ca:	460d      	mov	r5, r1
/home/dangcaominh/STM32MP1/optee-os/optee-os/ta/remoteproc/src/remoteproc_core.c:1016
      cc:	4658      	mov	r0, fp
      ce:	2100      	movs	r1, #0
/home/dangcaominh/STM32MP1/optee-os/optee-os/ta/remoteproc/src/remoteproc_core.c:1010
      d0:	681b      	ldr	r3, [r3, #0]
      d2:	9321      	str	r3, [sp, #132]	@ 0x84
      d4:	f04f 0300 	mov.w	r3, #0
/home/dangcaominh/STM32MP1/optee-os/optee-os/ta/remoteproc/src/remoteproc_core.c:1017
      d8:	f10d 0a0c 	add.w	sl, sp, #12
/home/dangcaominh/STM32MP1/optee-os/optee-os/ta/remoteproc/src/remoteproc_core.c:1016
      dc:	2258      	movs	r2, #88	@ 0x58
      de:	f00d fad1 	bl	d684 <memset>
/home/dangcaominh/STM32MP1/optee-os/optee-os/ta/remoteproc/src/remoteproc_core.c:1017
      e2:	2220      	movs	r2, #32
      e4:	2100      	movs	r1, #0
      e6:	4650      	mov	r0, sl
      e8:	f00d facc 	bl	d684 <memset>
/home/dangcaominh/STM32MP1/optee-os/optee-os/ta/remoteproc/src/remoteproc_core.c:1028
      ec:	4b63      	ldr	r3, [pc, #396]	@ (27c <remoteproc_load_segment+0x1cc>)
      ee:	6ca2      	ldr	r2, [r4, #72]	@ 0x48
get_enc_seg_info():
/home/dangcaominh/STM32MP1/optee-os/optee-os/ta/remoteproc/src/remoteproc_core.c:923
      f0:	6a20      	ldr	r0, [r4, #32]
remoteproc_load_segment():
/home/dangcaominh/STM32MP1/optee-os/optee-os/ta/remoteproc/src/remoteproc_core.c:1028
      f2:	429a      	cmp	r2, r3
      f4:	d170      	bne.n	1d8 <remoteproc_load_segment+0x128>
get_enc_seg_info():
/home/dangcaominh/STM32MP1/optee-os/optee-os/ta/remoteproc/src/remoteproc_core.c:925
      f6:	f8d4 9018 	ldr.w	r9, [r4, #24]
/home/dangcaominh/STM32MP1/optee-os/optee-os/ta/remoteproc/src/remoteproc_core.c:927
      fa:	2200      	movs	r2, #0
/home/dangcaominh/STM32MP1/optee-os/optee-os/ta/remoteproc/src/remoteproc_core.c:927 (discriminator 1)
      fc:	4282      	cmp	r2, r0
      fe:	d10d      	bne.n	11c <remoteproc_load_segment+0x6c>
remoteproc_load_segment():
/home/dangcaominh/STM32MP1/optee-os/optee-os/ta/remoteproc/src/remoteproc_core.c:1034
     100:	4c5f      	ldr	r4, [pc, #380]	@ (280 <remoteproc_load_segment+0x1d0>)
/home/dangcaominh/STM32MP1/optee-os/optee-os/ta/remoteproc/src/remoteproc_core.c:1010
     102:	4a64      	ldr	r2, [pc, #400]	@ (294 <remoteproc_load_segment+0x1e4>)
/home/dangcaominh/STM32MP1/optee-os/optee-os/ta/remoteproc/src/remoteproc_core.c:1071
     104:	4b62      	ldr	r3, [pc, #392]	@ (290 <remoteproc_load_segment+0x1e0>)
/home/dangcaominh/STM32MP1/optee-os/optee-os/ta/remoteproc/src/remoteproc_core.c:1010
     106:	447a      	add	r2, pc
/home/dangcaominh/STM32MP1/optee-os/optee-os/ta/remoteproc/src/remoteproc_core.c:1071
     108:	58d3      	ldr	r3, [r2, r3]
     10a:	681a      	ldr	r2, [r3, #0]
     10c:	9b21      	ldr	r3, [sp, #132]	@ 0x84
     10e:	405a      	eors	r2, r3
     110:	f04f 0300 	mov.w	r3, #0
     114:	f000 80ae 	beq.w	274 <remoteproc_load_segment+0x1c4>
     118:	f000 ff78 	bl	100c <__stack_chk_fail>
get_enc_seg_info():
/home/dangcaominh/STM32MP1/optee-os/optee-os/ta/remoteproc/src/remoteproc_core.c:928
     11c:	f8d9 100c 	ldr.w	r1, [r9, #12]
     120:	4588      	cmp	r8, r1
     122:	d003      	beq.n	12c <remoteproc_load_segment+0x7c>
/home/dangcaominh/STM32MP1/optee-os/optee-os/ta/remoteproc/src/remoteproc_core.c:927 (discriminator 2)
     124:	f109 0950 	add.w	r9, r9, #80	@ 0x50
     128:	3201      	adds	r2, #1
     12a:	e7e7      	b.n	fc <remoteproc_load_segment+0x4c>
/home/dangcaominh/STM32MP1/optee-os/optee-os/ta/remoteproc/src/remoteproc_core.c:935
     12c:	f8d9 2000 	ldr.w	r2, [r9]
     130:	2a01      	cmp	r2, #1
     132:	f040 809b 	bne.w	26c <remoteproc_load_segment+0x1bc>
/home/dangcaominh/STM32MP1/optee-os/optee-os/ta/remoteproc/src/remoteproc_core.c:938
     136:	f8d9 2010 	ldr.w	r2, [r9, #16]
     13a:	4295      	cmp	r5, r2
     13c:	f040 8096 	bne.w	26c <remoteproc_load_segment+0x1bc>
/home/dangcaominh/STM32MP1/optee-os/optee-os/ta/remoteproc/src/remoteproc_core.c:938 (discriminator 1)
     140:	f8d9 2014 	ldr.w	r2, [r9, #20]
     144:	4297      	cmp	r7, r2
     146:	f040 8091 	bne.w	26c <remoteproc_load_segment+0x1bc>
/home/dangcaominh/STM32MP1/optee-os/optee-os/ta/remoteproc/src/remoteproc_core.c:941
     14a:	6922      	ldr	r2, [r4, #16]
     14c:	4296      	cmp	r6, r2
     14e:	f0c0 808d 	bcc.w	26c <remoteproc_load_segment+0x1bc>
/home/dangcaominh/STM32MP1/optee-os/optee-os/ta/remoteproc/src/remoteproc_core.c:942
     152:	6961      	ldr	r1, [r4, #20]
     154:	440a      	add	r2, r1
/home/dangcaominh/STM32MP1/optee-os/optee-os/ta/remoteproc/src/remoteproc_core.c:941 (discriminator 1)
     156:	4296      	cmp	r6, r2
     158:	f200 8088 	bhi.w	26c <remoteproc_load_segment+0x1bc>
/home/dangcaominh/STM32MP1/optee-os/optee-os/ta/remoteproc/src/remoteproc_core.c:943
     15c:	1971      	adds	r1, r6, r5
/home/dangcaominh/STM32MP1/optee-os/optee-os/ta/remoteproc/src/remoteproc_core.c:942
     15e:	428a      	cmp	r2, r1
     160:	f0c0 8084 	bcc.w	26c <remoteproc_load_segment+0x1bc>
/home/dangcaominh/STM32MP1/optee-os/optee-os/ta/remoteproc/src/remoteproc_core.c:946
     164:	6be2      	ldr	r2, [r4, #60]	@ 0x3c
     166:	f109 0120 	add.w	r1, r9, #32
     16a:	a80c      	add	r0, sp, #48	@ 0x30
     16c:	f000 ff62 	bl	1034 <memcpy>
/home/dangcaominh/STM32MP1/optee-os/optee-os/ta/remoteproc/src/remoteproc_core.c:947
     170:	4a44      	ldr	r2, [pc, #272]	@ (284 <remoteproc_load_segment+0x1d4>)
/home/dangcaominh/STM32MP1/optee-os/optee-os/ta/remoteproc/src/remoteproc_core.c:949
     172:	f109 0140 	add.w	r1, r9, #64	@ 0x40
/home/dangcaominh/STM32MP1/optee-os/optee-os/ta/remoteproc/src/remoteproc_core.c:948
     176:	4b41      	ldr	r3, [pc, #260]	@ (27c <remoteproc_load_segment+0x1cc>)
/home/dangcaominh/STM32MP1/optee-os/optee-os/ta/remoteproc/src/remoteproc_core.c:949
     178:	a81d      	add	r0, sp, #116	@ 0x74
/home/dangcaominh/STM32MP1/optee-os/optee-os/ta/remoteproc/src/remoteproc_core.c:947
     17a:	920b      	str	r2, [sp, #44]	@ 0x2c
/home/dangcaominh/STM32MP1/optee-os/optee-os/ta/remoteproc/src/remoteproc_core.c:949
     17c:	2210      	movs	r2, #16
/home/dangcaominh/STM32MP1/optee-os/optee-os/ta/remoteproc/src/remoteproc_core.c:948
     17e:	931c      	str	r3, [sp, #112]	@ 0x70
/home/dangcaominh/STM32MP1/optee-os/optee-os/ta/remoteproc/src/remoteproc_core.c:949
     180:	f000 ff58 	bl	1034 <memcpy>
remoteproc_load_segment():
/home/dangcaominh/STM32MP1/optee-os/optee-os/ta/remoteproc/src/remoteproc_core.c:1036
     184:	6823      	ldr	r3, [r4, #0]
/home/dangcaominh/STM32MP1/optee-os/optee-os/ta/remoteproc/src/remoteproc_core.c:1037
     186:	9605      	str	r6, [sp, #20]
/home/dangcaominh/STM32MP1/optee-os/optee-os/ta/remoteproc/src/remoteproc_core.c:1036
     188:	9303      	str	r3, [sp, #12]
/home/dangcaominh/STM32MP1/optee-os/optee-os/ta/remoteproc/src/remoteproc_core.c:1041
     18a:	2358      	movs	r3, #88	@ 0x58
/home/dangcaominh/STM32MP1/optee-os/optee-os/ta/remoteproc/src/remoteproc_core.c:1038
     18c:	9506      	str	r5, [sp, #24]
/home/dangcaominh/STM32MP1/optee-os/optee-os/ta/remoteproc/src/remoteproc_core.c:1039
     18e:	f8cd 801c 	str.w	r8, [sp, #28]
/home/dangcaominh/STM32MP1/optee-os/optee-os/ta/remoteproc/src/remoteproc_core.c:1040
     192:	f8cd b024 	str.w	fp, [sp, #36]	@ 0x24
/home/dangcaominh/STM32MP1/optee-os/optee-os/ta/remoteproc/src/remoteproc_core.c:1041
     196:	930a      	str	r3, [sp, #40]	@ 0x28
/home/dangcaominh/STM32MP1/optee-os/optee-os/ta/remoteproc/src/remoteproc_core.c:1043
     198:	2d00      	cmp	r5, #0
     19a:	d042      	beq.n	222 <remoteproc_load_segment+0x172>
/home/dangcaominh/STM32MP1/optee-os/optee-os/ta/remoteproc/src/remoteproc_core.c:1044
     19c:	483e      	ldr	r0, [pc, #248]	@ (298 <remoteproc_load_segment+0x1e8>)
     19e:	2300      	movs	r3, #0
     1a0:	9301      	str	r3, [sp, #4]
     1a2:	2203      	movs	r2, #3
     1a4:	4478      	add	r0, pc
     1a6:	f245 1351 	movw	r3, #20817	@ 0x5151
     1aa:	f8cd a000 	str.w	sl, [sp]
     1ae:	f04f 31ff 	mov.w	r1, #4294967295	@ 0xffffffff
     1b2:	6800      	ldr	r0, [r0, #0]
     1b4:	f002 f998 	bl	24e8 <TEE_InvokeTACommand>
/home/dangcaominh/STM32MP1/optee-os/optee-os/ta/remoteproc/src/remoteproc_core.c:1047
     1b8:	4604      	mov	r4, r0
     1ba:	2800      	cmp	r0, #0
     1bc:	d031      	beq.n	222 <remoteproc_load_segment+0x172>
/home/dangcaominh/STM32MP1/optee-os/optee-os/ta/remoteproc/src/remoteproc_core.c:1048
     1be:	4b37      	ldr	r3, [pc, #220]	@ (29c <remoteproc_load_segment+0x1ec>)
     1c0:	f44f 6183 	mov.w	r1, #1048	@ 0x418
     1c4:	9001      	str	r0, [sp, #4]
     1c6:	447b      	add	r3, pc
     1c8:	4835      	ldr	r0, [pc, #212]	@ (2a0 <remoteproc_load_segment+0x1f0>)
     1ca:	9300      	str	r3, [sp, #0]
     1cc:	2301      	movs	r3, #1
     1ce:	4478      	add	r0, pc
     1d0:	461a      	mov	r2, r3
/home/dangcaominh/STM32MP1/optee-os/optee-os/ta/remoteproc/src/remoteproc_core.c:1067
     1d2:	f001 f86b 	bl	12ac <trace_printf>
     1d6:	e794      	b.n	102 <remoteproc_load_segment+0x52>
get_hash_seg_info():
/home/dangcaominh/STM32MP1/optee-os/optee-os/ta/remoteproc/src/remoteproc_core.c:886
     1d8:	69e1      	ldr	r1, [r4, #28]
/home/dangcaominh/STM32MP1/optee-os/optee-os/ta/remoteproc/src/remoteproc_core.c:888
     1da:	2300      	movs	r3, #0
/home/dangcaominh/STM32MP1/optee-os/optee-os/ta/remoteproc/src/remoteproc_core.c:888 (discriminator 1)
     1dc:	4283      	cmp	r3, r0
     1de:	d08f      	beq.n	100 <remoteproc_load_segment+0x50>
/home/dangcaominh/STM32MP1/optee-os/optee-os/ta/remoteproc/src/remoteproc_core.c:889
     1e0:	68ca      	ldr	r2, [r1, #12]
     1e2:	4590      	cmp	r8, r2
     1e4:	d002      	beq.n	1ec <remoteproc_load_segment+0x13c>
/home/dangcaominh/STM32MP1/optee-os/optee-os/ta/remoteproc/src/remoteproc_core.c:888 (discriminator 2)
     1e6:	3140      	adds	r1, #64	@ 0x40
     1e8:	3301      	adds	r3, #1
     1ea:	e7f7      	b.n	1dc <remoteproc_load_segment+0x12c>
/home/dangcaominh/STM32MP1/optee-os/optee-os/ta/remoteproc/src/remoteproc_core.c:896
     1ec:	680b      	ldr	r3, [r1, #0]
     1ee:	2b01      	cmp	r3, #1
     1f0:	d13c      	bne.n	26c <remoteproc_load_segment+0x1bc>
/home/dangcaominh/STM32MP1/optee-os/optee-os/ta/remoteproc/src/remoteproc_core.c:899
     1f2:	690b      	ldr	r3, [r1, #16]
     1f4:	429d      	cmp	r5, r3
     1f6:	d139      	bne.n	26c <remoteproc_load_segment+0x1bc>
/home/dangcaominh/STM32MP1/optee-os/optee-os/ta/remoteproc/src/remoteproc_core.c:899 (discriminator 1)
     1f8:	694b      	ldr	r3, [r1, #20]
     1fa:	429f      	cmp	r7, r3
     1fc:	d136      	bne.n	26c <remoteproc_load_segment+0x1bc>
/home/dangcaominh/STM32MP1/optee-os/optee-os/ta/remoteproc/src/remoteproc_core.c:902
     1fe:	6923      	ldr	r3, [r4, #16]
     200:	429e      	cmp	r6, r3
     202:	d333      	bcc.n	26c <remoteproc_load_segment+0x1bc>
/home/dangcaominh/STM32MP1/optee-os/optee-os/ta/remoteproc/src/remoteproc_core.c:903
     204:	6962      	ldr	r2, [r4, #20]
     206:	4413      	add	r3, r2
/home/dangcaominh/STM32MP1/optee-os/optee-os/ta/remoteproc/src/remoteproc_core.c:902 (discriminator 1)
     208:	429e      	cmp	r6, r3
     20a:	d82f      	bhi.n	26c <remoteproc_load_segment+0x1bc>
/home/dangcaominh/STM32MP1/optee-os/optee-os/ta/remoteproc/src/remoteproc_core.c:904
     20c:	1972      	adds	r2, r6, r5
/home/dangcaominh/STM32MP1/optee-os/optee-os/ta/remoteproc/src/remoteproc_core.c:903
     20e:	4293      	cmp	r3, r2
     210:	d32c      	bcc.n	26c <remoteproc_load_segment+0x1bc>
/home/dangcaominh/STM32MP1/optee-os/optee-os/ta/remoteproc/src/remoteproc_core.c:907
     212:	2220      	movs	r2, #32
     214:	a80c      	add	r0, sp, #48	@ 0x30
     216:	4411      	add	r1, r2
     218:	f000 ff0c 	bl	1034 <memcpy>
/home/dangcaominh/STM32MP1/optee-os/optee-os/ta/remoteproc/src/remoteproc_core.c:908
     21c:	4b19      	ldr	r3, [pc, #100]	@ (284 <remoteproc_load_segment+0x1d4>)
     21e:	930b      	str	r3, [sp, #44]	@ 0x2c
remoteproc_load_segment():
/home/dangcaominh/STM32MP1/optee-os/optee-os/ta/remoteproc/src/remoteproc_core.c:1033
     220:	e7b0      	b.n	184 <remoteproc_load_segment+0xd4>
/home/dangcaominh/STM32MP1/optee-os/optee-os/ta/remoteproc/src/remoteproc_core.c:1054
     222:	42bd      	cmp	r5, r7
     224:	d224      	bcs.n	270 <remoteproc_load_segment+0x1c0>
/home/dangcaominh/STM32MP1/optee-os/optee-os/ta/remoteproc/src/remoteproc_core.c:1063
     226:	481f      	ldr	r0, [pc, #124]	@ (2a4 <remoteproc_load_segment+0x1f4>)
     228:	2204      	movs	r2, #4
/home/dangcaominh/STM32MP1/optee-os/optee-os/ta/remoteproc/src/remoteproc_core.c:1059
     22a:	eb05 0308 	add.w	r3, r5, r8
/home/dangcaominh/STM32MP1/optee-os/optee-os/ta/remoteproc/src/remoteproc_core.c:1063
     22e:	f04f 31ff 	mov.w	r1, #4294967295	@ 0xffffffff
     232:	4478      	add	r0, pc
/home/dangcaominh/STM32MP1/optee-os/optee-os/ta/remoteproc/src/remoteproc_core.c:1059
     234:	9305      	str	r3, [sp, #20]
/home/dangcaominh/STM32MP1/optee-os/optee-os/ta/remoteproc/src/remoteproc_core.c:1061
     236:	2300      	movs	r3, #0
/home/dangcaominh/STM32MP1/optee-os/optee-os/ta/remoteproc/src/remoteproc_core.c:1063
     238:	9301      	str	r3, [sp, #4]
/home/dangcaominh/STM32MP1/optee-os/optee-os/ta/remoteproc/src/remoteproc_core.c:1061
     23a:	9309      	str	r3, [sp, #36]	@ 0x24
/home/dangcaominh/STM32MP1/optee-os/optee-os/ta/remoteproc/src/remoteproc_core.c:1063
     23c:	f241 1311 	movw	r3, #4369	@ 0x1111
     240:	f8cd a000 	str.w	sl, [sp]
/home/dangcaominh/STM32MP1/optee-os/optee-os/ta/remoteproc/src/remoteproc_core.c:1060
     244:	1b7f      	subs	r7, r7, r5
/home/dangcaominh/STM32MP1/optee-os/optee-os/ta/remoteproc/src/remoteproc_core.c:1063
     246:	6800      	ldr	r0, [r0, #0]
/home/dangcaominh/STM32MP1/optee-os/optee-os/ta/remoteproc/src/remoteproc_core.c:1060
     248:	9707      	str	r7, [sp, #28]
/home/dangcaominh/STM32MP1/optee-os/optee-os/ta/remoteproc/src/remoteproc_core.c:1063
     24a:	f002 f94d 	bl	24e8 <TEE_InvokeTACommand>
/home/dangcaominh/STM32MP1/optee-os/optee-os/ta/remoteproc/src/remoteproc_core.c:1066
     24e:	4604      	mov	r4, r0
     250:	2800      	cmp	r0, #0
     252:	f43f af56 	beq.w	102 <remoteproc_load_segment+0x52>
/home/dangcaominh/STM32MP1/optee-os/optee-os/ta/remoteproc/src/remoteproc_core.c:1067
     256:	4b14      	ldr	r3, [pc, #80]	@ (2a8 <remoteproc_load_segment+0x1f8>)
     258:	f240 412b 	movw	r1, #1067	@ 0x42b
     25c:	9001      	str	r0, [sp, #4]
     25e:	447b      	add	r3, pc
     260:	4812      	ldr	r0, [pc, #72]	@ (2ac <remoteproc_load_segment+0x1fc>)
     262:	9300      	str	r3, [sp, #0]
     264:	2301      	movs	r3, #1
     266:	4478      	add	r0, pc
     268:	461a      	mov	r2, r3
     26a:	e7b2      	b.n	1d2 <remoteproc_load_segment+0x122>
/home/dangcaominh/STM32MP1/optee-os/optee-os/ta/remoteproc/src/remoteproc_core.c:1034
     26c:	4c06      	ldr	r4, [pc, #24]	@ (288 <remoteproc_load_segment+0x1d8>)
     26e:	e748      	b.n	102 <remoteproc_load_segment+0x52>
/home/dangcaominh/STM32MP1/optee-os/optee-os/ta/remoteproc/src/remoteproc_core.c:1063
     270:	2400      	movs	r4, #0
     272:	e746      	b.n	102 <remoteproc_load_segment+0x52>
/home/dangcaominh/STM32MP1/optee-os/optee-os/ta/remoteproc/src/remoteproc_core.c:1071
     274:	4620      	mov	r0, r4
     276:	b023      	add	sp, #140	@ 0x8c
     278:	e8bd 8ff0 	ldmia.w	sp!, {r4, r5, r6, r7, r8, r9, sl, fp, pc}
     27c:	10000110 	.word	0x10000110
     280:	ffff000b 	.word	0xffff000b
     284:	50000004 	.word	0x50000004
     288:	ffff0006 	.word	0xffff0006
     28c:	0000efc6 	.word	0x0000efc6
     290:	0000000c 	.word	0x0000000c
     294:	0000ef7e 	.word	0x0000ef7e
     298:	0000f238 	.word	0x0000f238
     29c:	0000d7f6 	.word	0x0000d7f6
     2a0:	0000d5de 	.word	0x0000d5de
     2a4:	0000f1aa 	.word	0x0000f1aa
     2a8:	0000d781 	.word	0x0000d781
     2ac:	0000d546 	.word	0x0000d546

000002b0 <remoteproc_clean_resources.isra.0>:
remoteproc_clean_resources():
/home/dangcaominh/STM32MP1/optee-os/optee-os/ta/remoteproc/src/remoteproc_core.c:957
     2b0:	4a1c      	ldr	r2, [pc, #112]	@ (324 <remoteproc_clean_resources.isra.0+0x74>)
/home/dangcaominh/STM32MP1/optee-os/optee-os/ta/remoteproc/src/remoteproc_core.c:964
     2b2:	2100      	movs	r1, #0
/home/dangcaominh/STM32MP1/optee-os/optee-os/ta/remoteproc/src/remoteproc_core.c:957
     2b4:	4b1c      	ldr	r3, [pc, #112]	@ (328 <remoteproc_clean_resources.isra.0+0x78>)
     2b6:	447a      	add	r2, pc
     2b8:	b510      	push	{r4, lr}
     2ba:	b08c      	sub	sp, #48	@ 0x30
     2bc:	58d3      	ldr	r3, [r2, r3]
     2be:	4604      	mov	r4, r0
/home/dangcaominh/STM32MP1/optee-os/optee-os/ta/remoteproc/src/remoteproc_core.c:964
     2c0:	221c      	movs	r2, #28
     2c2:	a804      	add	r0, sp, #16
/home/dangcaominh/STM32MP1/optee-os/optee-os/ta/remoteproc/src/remoteproc_core.c:957
     2c4:	681b      	ldr	r3, [r3, #0]
     2c6:	930b      	str	r3, [sp, #44]	@ 0x2c
     2c8:	f04f 0300 	mov.w	r3, #0
/home/dangcaominh/STM32MP1/optee-os/optee-os/ta/remoteproc/src/remoteproc_core.c:964
     2cc:	f00d f9da 	bl	d684 <memset>
/home/dangcaominh/STM32MP1/optee-os/optee-os/ta/remoteproc/src/remoteproc_core.c:969
     2d0:	4816      	ldr	r0, [pc, #88]	@ (32c <remoteproc_clean_resources.isra.0+0x7c>)
     2d2:	2300      	movs	r3, #0
     2d4:	9301      	str	r3, [sp, #4]
     2d6:	ab03      	add	r3, sp, #12
     2d8:	4478      	add	r0, pc
     2da:	220a      	movs	r2, #10
     2dc:	9300      	str	r3, [sp, #0]
     2de:	f04f 31ff 	mov.w	r1, #4294967295	@ 0xffffffff
     2e2:	6800      	ldr	r0, [r0, #0]
     2e4:	2301      	movs	r3, #1
/home/dangcaominh/STM32MP1/optee-os/optee-os/ta/remoteproc/src/remoteproc_core.c:967
     2e6:	9403      	str	r4, [sp, #12]
/home/dangcaominh/STM32MP1/optee-os/optee-os/ta/remoteproc/src/remoteproc_core.c:969
     2e8:	f002 f8fe 	bl	24e8 <TEE_InvokeTACommand>
/home/dangcaominh/STM32MP1/optee-os/optee-os/ta/remoteproc/src/remoteproc_core.c:974
     2ec:	b160      	cbz	r0, 308 <remoteproc_clean_resources.isra.0+0x58>
_assert_trap():
/home/dangcaominh/STM32MP1/optee-os/optee-os/../build/optee-programmer-stm32mp157d-dk1/export-ta_arm32/include/assert.h:19
     2ee:	4b10      	ldr	r3, [pc, #64]	@ (330 <remoteproc_clean_resources.isra.0+0x80>)
     2f0:	f240 32ce 	movw	r2, #974	@ 0x3ce
     2f4:	490f      	ldr	r1, [pc, #60]	@ (334 <remoteproc_clean_resources.isra.0+0x84>)
     2f6:	4810      	ldr	r0, [pc, #64]	@ (338 <remoteproc_clean_resources.isra.0+0x88>)
     2f8:	447b      	add	r3, pc
     2fa:	4479      	add	r1, pc
     2fc:	3318      	adds	r3, #24
     2fe:	4478      	add	r0, pc
     300:	f001 fd1e 	bl	1d40 <_assert_log>
/home/dangcaominh/STM32MP1/optee-os/optee-os/../build/optee-programmer-stm32mp157d-dk1/export-ta_arm32/include/assert.h:20
     304:	f001 fd30 	bl	1d68 <_assert_break>
remoteproc_clean_resources():
/home/dangcaominh/STM32MP1/optee-os/optee-os/ta/remoteproc/src/remoteproc_core.c:957
     308:	4a0c      	ldr	r2, [pc, #48]	@ (33c <remoteproc_clean_resources.isra.0+0x8c>)
/home/dangcaominh/STM32MP1/optee-os/optee-os/ta/remoteproc/src/remoteproc_core.c:975
     30a:	4b07      	ldr	r3, [pc, #28]	@ (328 <remoteproc_clean_resources.isra.0+0x78>)
/home/dangcaominh/STM32MP1/optee-os/optee-os/ta/remoteproc/src/remoteproc_core.c:957
     30c:	447a      	add	r2, pc
/home/dangcaominh/STM32MP1/optee-os/optee-os/ta/remoteproc/src/remoteproc_core.c:975
     30e:	58d3      	ldr	r3, [r2, r3]
     310:	681a      	ldr	r2, [r3, #0]
     312:	9b0b      	ldr	r3, [sp, #44]	@ 0x2c
     314:	405a      	eors	r2, r3
     316:	f04f 0300 	mov.w	r3, #0
     31a:	d001      	beq.n	320 <remoteproc_clean_resources.isra.0+0x70>
     31c:	f000 fe76 	bl	100c <__stack_chk_fail>
     320:	b00c      	add	sp, #48	@ 0x30
     322:	bd10      	pop	{r4, pc}
     324:	0000edce 	.word	0x0000edce
     328:	0000000c 	.word	0x0000000c
     32c:	0000f104 	.word	0x0000f104
     330:	0000d4b4 	.word	0x0000d4b4
     334:	0000d707 	.word	0x0000d707
     338:	0000d727 	.word	0x0000d727
     33c:	0000ed78 	.word	0x0000ed78

00000340 <TA_CreateEntryPoint>:
TA_CreateEntryPoint():
/home/dangcaominh/STM32MP1/optee-os/optee-os/ta/remoteproc/src/remoteproc_core.c:1394
     340:	2000      	movs	r0, #0
     342:	4770      	bx	lr

00000344 <TA_DestroyEntryPoint>:
TA_DestroyEntryPoint():
/home/dangcaominh/STM32MP1/optee-os/optee-os/ta/remoteproc/src/remoteproc_core.c:1398
     344:	4770      	bx	lr

00000346 <TA_OpenSessionEntryPoint>:
TA_OpenSessionEntryPoint():
/home/dangcaominh/STM32MP1/optee-os/optee-os/ta/remoteproc/src/remoteproc_core.c:1417
     346:	2801      	cmp	r0, #1
/home/dangcaominh/STM32MP1/optee-os/optee-os/ta/remoteproc/src/remoteproc_core.c:1409
     348:	460b      	mov	r3, r1
     34a:	b507      	push	{r0, r1, r2, lr}
     34c:	4602      	mov	r2, r0
/home/dangcaominh/STM32MP1/optee-os/optee-os/ta/remoteproc/src/remoteproc_core.c:1417
     34e:	d118      	bne.n	382 <TA_OpenSessionEntryPoint+0x3c>
/home/dangcaominh/STM32MP1/optee-os/optee-os/ta/remoteproc/src/remoteproc_core.c:1420
     350:	490e      	ldr	r1, [pc, #56]	@ (38c <TA_OpenSessionEntryPoint+0x46>)
     352:	4479      	add	r1, pc
     354:	6848      	ldr	r0, [r1, #4]
     356:	b140      	cbz	r0, 36a <TA_OpenSessionEntryPoint+0x24>
/home/dangcaominh/STM32MP1/optee-os/optee-os/ta/remoteproc/src/remoteproc_core.c:1427
     358:	4a0d      	ldr	r2, [pc, #52]	@ (390 <TA_OpenSessionEntryPoint+0x4a>)
/home/dangcaominh/STM32MP1/optee-os/optee-os/ta/remoteproc/src/remoteproc_core.c:1429
     35a:	2000      	movs	r0, #0
/home/dangcaominh/STM32MP1/optee-os/optee-os/ta/remoteproc/src/remoteproc_core.c:1427
     35c:	447a      	add	r2, pc
     35e:	6853      	ldr	r3, [r2, #4]
     360:	3301      	adds	r3, #1
     362:	6053      	str	r3, [r2, #4]
/home/dangcaominh/STM32MP1/optee-os/optee-os/ta/remoteproc/src/remoteproc_core.c:1430
     364:	b003      	add	sp, #12
     366:	f85d fb04 	ldr.w	pc, [sp], #4
/home/dangcaominh/STM32MP1/optee-os/optee-os/ta/remoteproc/src/remoteproc_core.c:1421
     36a:	9001      	str	r0, [sp, #4]
     36c:	4809      	ldr	r0, [pc, #36]	@ (394 <TA_OpenSessionEntryPoint+0x4e>)
     36e:	9100      	str	r1, [sp, #0]
     370:	f04f 31ff 	mov.w	r1, #4294967295	@ 0xffffffff
     374:	4478      	add	r0, pc
     376:	3034      	adds	r0, #52	@ 0x34
     378:	f001 ffe0 	bl	233c <TEE_OpenTASession>
/home/dangcaominh/STM32MP1/optee-os/optee-os/ta/remoteproc/src/remoteproc_core.c:1423
     37c:	2800      	cmp	r0, #0
     37e:	d0eb      	beq.n	358 <TA_OpenSessionEntryPoint+0x12>
     380:	e7f0      	b.n	364 <TA_OpenSessionEntryPoint+0x1e>
/home/dangcaominh/STM32MP1/optee-os/optee-os/ta/remoteproc/src/remoteproc_core.c:1418
     382:	4801      	ldr	r0, [pc, #4]	@ (388 <TA_OpenSessionEntryPoint+0x42>)
     384:	e7ee      	b.n	364 <TA_OpenSessionEntryPoint+0x1e>
     386:	bf00      	nop
     388:	ffff0006 	.word	0xffff0006
     38c:	0000f08a 	.word	0x0000f08a
     390:	0000f080 	.word	0x0000f080
     394:	0000d438 	.word	0x0000d438

00000398 <TA_CloseSessionEntryPoint>:
TA_CloseSessionEntryPoint():
/home/dangcaominh/STM32MP1/optee-os/optee-os/ta/remoteproc/src/remoteproc_core.c:1434
     398:	4a04      	ldr	r2, [pc, #16]	@ (3ac <TA_CloseSessionEntryPoint+0x14>)
     39a:	447a      	add	r2, pc
     39c:	6853      	ldr	r3, [r2, #4]
     39e:	3b01      	subs	r3, #1
     3a0:	6053      	str	r3, [r2, #4]
/home/dangcaominh/STM32MP1/optee-os/optee-os/ta/remoteproc/src/remoteproc_core.c:1436
     3a2:	b913      	cbnz	r3, 3aa <TA_CloseSessionEntryPoint+0x12>
/home/dangcaominh/STM32MP1/optee-os/optee-os/ta/remoteproc/src/remoteproc_core.c:1437
     3a4:	6810      	ldr	r0, [r2, #0]
     3a6:	f001 be9b 	b.w	20e0 <TEE_CloseTASession>
/home/dangcaominh/STM32MP1/optee-os/optee-os/ta/remoteproc/src/remoteproc_core.c:1438
     3aa:	4770      	bx	lr
     3ac:	0000f042 	.word	0x0000f042

000003b0 <TA_InvokeCommandEntryPoint>:
TA_InvokeCommandEntryPoint():
/home/dangcaominh/STM32MP1/optee-os/optee-os/ta/remoteproc/src/remoteproc_core.c:1443
     3b0:	e92d 4ff0 	stmdb	sp!, {r4, r5, r6, r7, r8, r9, sl, fp, lr}
     3b4:	4614      	mov	r4, r2
     3b6:	4aa4      	ldr	r2, [pc, #656]	@ (648 <TA_InvokeCommandEntryPoint+0x298>)
     3b8:	461e      	mov	r6, r3
     3ba:	4ba4      	ldr	r3, [pc, #656]	@ (64c <TA_InvokeCommandEntryPoint+0x29c>)
     3bc:	b099      	sub	sp, #100	@ 0x64
     3be:	447a      	add	r2, pc
/home/dangcaominh/STM32MP1/optee-os/optee-os/ta/remoteproc/src/remoteproc_core.c:1444
     3c0:	3901      	subs	r1, #1
/home/dangcaominh/STM32MP1/optee-os/optee-os/ta/remoteproc/src/remoteproc_core.c:1443
     3c2:	58d3      	ldr	r3, [r2, r3]
     3c4:	681b      	ldr	r3, [r3, #0]
     3c6:	9317      	str	r3, [sp, #92]	@ 0x5c
     3c8:	f04f 0300 	mov.w	r3, #0
/home/dangcaominh/STM32MP1/optee-os/optee-os/ta/remoteproc/src/remoteproc_core.c:1444
     3cc:	2904      	cmp	r1, #4
     3ce:	d806      	bhi.n	3de <TA_InvokeCommandEntryPoint+0x2e>
     3d0:	e8df f011 	tbh	[pc, r1, lsl #1]
     3d4:	03df0013 	.word	0x03df0013
     3d8:	04580405 	.word	0x04580405
     3dc:	046e      	.short	0x046e
/home/dangcaominh/STM32MP1/optee-os/optee-os/ta/remoteproc/src/remoteproc_core.c:1456
     3de:	4c96      	ldr	r4, [pc, #600]	@ (638 <TA_InvokeCommandEntryPoint+0x288>)
/home/dangcaominh/STM32MP1/optee-os/optee-os/ta/remoteproc/src/remoteproc_core.c:1443
     3e0:	4a9b      	ldr	r2, [pc, #620]	@ (650 <TA_InvokeCommandEntryPoint+0x2a0>)
/home/dangcaominh/STM32MP1/optee-os/optee-os/ta/remoteproc/src/remoteproc_core.c:1458
     3e2:	4b9a      	ldr	r3, [pc, #616]	@ (64c <TA_InvokeCommandEntryPoint+0x29c>)
/home/dangcaominh/STM32MP1/optee-os/optee-os/ta/remoteproc/src/remoteproc_core.c:1443
     3e4:	447a      	add	r2, pc
/home/dangcaominh/STM32MP1/optee-os/optee-os/ta/remoteproc/src/remoteproc_core.c:1458
     3e6:	58d3      	ldr	r3, [r2, r3]
     3e8:	681a      	ldr	r2, [r3, #0]
     3ea:	9b17      	ldr	r3, [sp, #92]	@ 0x5c
     3ec:	405a      	eors	r2, r3
     3ee:	f04f 0300 	mov.w	r3, #0
     3f2:	f000 846b 	beq.w	ccc <TA_InvokeCommandEntryPoint+0x91c>
     3f6:	f000 fe09 	bl	100c <__stack_chk_fail>
remoteproc_load_fw():
/home/dangcaominh/STM32MP1/optee-os/optee-os/ta/remoteproc/src/remoteproc_core.c:1219
     3fa:	6837      	ldr	r7, [r6, #0]
/home/dangcaominh/STM32MP1/optee-os/optee-os/ta/remoteproc/src/remoteproc_core.c:1223
     3fc:	2c51      	cmp	r4, #81	@ 0x51
     3fe:	d1ee      	bne.n	3de <TA_InvokeCommandEntryPoint+0x2e>
/home/dangcaominh/STM32MP1/optee-os/optee-os/ta/remoteproc/src/remoteproc_core.c:1226
     400:	4638      	mov	r0, r7
     402:	f7ff fdfd 	bl	0 <remoteproc_find_firmware>
/home/dangcaominh/STM32MP1/optee-os/optee-os/ta/remoteproc/src/remoteproc_core.c:1227
     406:	4605      	mov	r5, r0
     408:	b990      	cbnz	r0, 430 <TA_InvokeCommandEntryPoint+0x80>
remoteproc_add_firmware():
/home/dangcaominh/STM32MP1/optee-os/optee-os/ta/remoteproc/src/remoteproc_core.c:348
     40a:	4601      	mov	r1, r0
     40c:	204c      	movs	r0, #76	@ 0x4c
     40e:	f002 f9d2 	bl	27b6 <TEE_Malloc>
/home/dangcaominh/STM32MP1/optee-os/optee-os/ta/remoteproc/src/remoteproc_core.c:349
     412:	4605      	mov	r5, r0
     414:	2800      	cmp	r0, #0
     416:	f000 844e 	beq.w	cb6 <TA_InvokeCommandEntryPoint+0x906>
/home/dangcaominh/STM32MP1/optee-os/optee-os/ta/remoteproc/src/remoteproc_core.c:352
     41a:	6007      	str	r7, [r0, #0]
/home/dangcaominh/STM32MP1/optee-os/optee-os/ta/remoteproc/src/remoteproc_core.c:354
     41c:	2300      	movs	r3, #0
     41e:	6403      	str	r3, [r0, #64]	@ 0x40
     420:	4b8c      	ldr	r3, [pc, #560]	@ (654 <TA_InvokeCommandEntryPoint+0x2a4>)
     422:	447b      	add	r3, pc
     424:	685a      	ldr	r2, [r3, #4]
     426:	6442      	str	r2, [r0, #68]	@ 0x44
     428:	6010      	str	r0, [r2, #0]
     42a:	f100 0240 	add.w	r2, r0, #64	@ 0x40
     42e:	605a      	str	r2, [r3, #4]
remoteproc_load_fw():
/home/dangcaominh/STM32MP1/optee-os/optee-os/ta/remoteproc/src/remoteproc_core.c:1232
     430:	6aec      	ldr	r4, [r5, #44]	@ 0x2c
     432:	2c00      	cmp	r4, #0
     434:	f040 83e4 	bne.w	c00 <TA_InvokeCommandEntryPoint+0x850>
/home/dangcaominh/STM32MP1/optee-os/optee-os/ta/remoteproc/src/remoteproc_core.c:1235
     438:	68b3      	ldr	r3, [r6, #8]
     43a:	2b00      	cmp	r3, #0
     43c:	d0cf      	beq.n	3de <TA_InvokeCommandEntryPoint+0x2e>
/home/dangcaominh/STM32MP1/optee-os/optee-os/ta/remoteproc/src/remoteproc_core.c:1235 (discriminator 1)
     43e:	68f3      	ldr	r3, [r6, #12]
     440:	2b00      	cmp	r3, #0
     442:	d0cc      	beq.n	3de <TA_InvokeCommandEntryPoint+0x2e>
remoteproc_get_mems():
/home/dangcaominh/STM32MP1/optee-os/optee-os/ta/remoteproc/src/remoteproc_core.c:987
     444:	f8df 8210 	ldr.w	r8, [pc, #528]	@ 658 <TA_InvokeCommandEntryPoint+0x2a8>
/home/dangcaominh/STM32MP1/optee-os/optee-os/ta/remoteproc/src/remoteproc_core.c:983
     448:	ab10      	add	r3, sp, #64	@ 0x40
     44a:	682f      	ldr	r7, [r5, #0]
     44c:	4621      	mov	r1, r4
/home/dangcaominh/STM32MP1/optee-os/optee-os/ta/remoteproc/src/remoteproc_core.c:987
     44e:	44f8      	add	r8, pc
/home/dangcaominh/STM32MP1/optee-os/optee-os/ta/remoteproc/src/remoteproc_core.c:983
     450:	221c      	movs	r2, #28
     452:	9304      	str	r3, [sp, #16]
     454:	4618      	mov	r0, r3
     456:	f00d f915 	bl	d684 <memset>
/home/dangcaominh/STM32MP1/optee-os/optee-os/ta/remoteproc/src/remoteproc_core.c:987
     45a:	9401      	str	r4, [sp, #4]
     45c:	ab0f      	add	r3, sp, #60	@ 0x3c
     45e:	9300      	str	r3, [sp, #0]
     460:	220b      	movs	r2, #11
     462:	9303      	str	r3, [sp, #12]
     464:	f04f 31ff 	mov.w	r1, #4294967295	@ 0xffffffff
     468:	f8d8 0000 	ldr.w	r0, [r8]
     46c:	2301      	movs	r3, #1
/home/dangcaominh/STM32MP1/optee-os/optee-os/ta/remoteproc/src/remoteproc_core.c:985
     46e:	970f      	str	r7, [sp, #60]	@ 0x3c
/home/dangcaominh/STM32MP1/optee-os/optee-os/ta/remoteproc/src/remoteproc_core.c:987
     470:	f002 f83a 	bl	24e8 <TEE_InvokeTACommand>
remoteproc_load_fw():
/home/dangcaominh/STM32MP1/optee-os/optee-os/ta/remoteproc/src/remoteproc_core.c:1242
     474:	4604      	mov	r4, r0
     476:	b1a0      	cbz	r0, 4a2 <TA_InvokeCommandEntryPoint+0xf2>
/home/dangcaominh/STM32MP1/optee-os/optee-os/ta/remoteproc/src/remoteproc_core.c:1243
     478:	4b78      	ldr	r3, [pc, #480]	@ (65c <TA_InvokeCommandEntryPoint+0x2ac>)
     47a:	f240 41db 	movw	r1, #1243	@ 0x4db
     47e:	4878      	ldr	r0, [pc, #480]	@ (660 <TA_InvokeCommandEntryPoint+0x2b0>)
     480:	447b      	add	r3, pc
     482:	4478      	add	r0, pc
     484:	9300      	str	r3, [sp, #0]
     486:	2301      	movs	r3, #1
     488:	461a      	mov	r2, r3
     48a:	3044      	adds	r0, #68	@ 0x44
     48c:	f000 ff0e 	bl	12ac <trace_printf>
/home/dangcaominh/STM32MP1/optee-os/optee-os/ta/remoteproc/src/remoteproc_core.c:1274
     490:	6868      	ldr	r0, [r5, #4]
/home/dangcaominh/STM32MP1/optee-os/optee-os/ta/remoteproc/src/remoteproc_core.c:1269
     492:	2600      	movs	r6, #0
     494:	612e      	str	r6, [r5, #16]
/home/dangcaominh/STM32MP1/optee-os/optee-os/ta/remoteproc/src/remoteproc_core.c:1270
     496:	616e      	str	r6, [r5, #20]
/home/dangcaominh/STM32MP1/optee-os/optee-os/ta/remoteproc/src/remoteproc_core.c:1271
     498:	622e      	str	r6, [r5, #32]
/home/dangcaominh/STM32MP1/optee-os/optee-os/ta/remoteproc/src/remoteproc_core.c:1274
     49a:	f002 f9e7 	bl	286c <TEE_Free>
/home/dangcaominh/STM32MP1/optee-os/optee-os/ta/remoteproc/src/remoteproc_core.c:1275
     49e:	606e      	str	r6, [r5, #4]
/home/dangcaominh/STM32MP1/optee-os/optee-os/ta/remoteproc/src/remoteproc_core.c:1277
     4a0:	e79e      	b.n	3e0 <TA_InvokeCommandEntryPoint+0x30>
/home/dangcaominh/STM32MP1/optee-os/optee-os/ta/remoteproc/src/remoteproc_core.c:1247
     4a2:	68b3      	ldr	r3, [r6, #8]
get_rproc_pta_capabilities():
/home/dangcaominh/STM32MP1/optee-os/optee-os/ta/remoteproc/src/remoteproc_core.c:552
     4a4:	4601      	mov	r1, r0
     4a6:	9804      	ldr	r0, [sp, #16]
     4a8:	221c      	movs	r2, #28
remoteproc_load_fw():
/home/dangcaominh/STM32MP1/optee-os/optee-os/ta/remoteproc/src/remoteproc_core.c:1247
     4aa:	9302      	str	r3, [sp, #8]
     4ac:	68f7      	ldr	r7, [r6, #12]
get_rproc_pta_capabilities():
/home/dangcaominh/STM32MP1/optee-os/optee-os/ta/remoteproc/src/remoteproc_core.c:552
     4ae:	f00d f8e9 	bl	d684 <memset>
/home/dangcaominh/STM32MP1/optee-os/optee-os/ta/remoteproc/src/remoteproc_core.c:555
     4b2:	682b      	ldr	r3, [r5, #0]
/home/dangcaominh/STM32MP1/optee-os/optee-os/ta/remoteproc/src/remoteproc_core.c:557
     4b4:	2201      	movs	r2, #1
     4b6:	9401      	str	r4, [sp, #4]
     4b8:	f04f 31ff 	mov.w	r1, #4294967295	@ 0xffffffff
/home/dangcaominh/STM32MP1/optee-os/optee-os/ta/remoteproc/src/remoteproc_core.c:555
     4bc:	930f      	str	r3, [sp, #60]	@ 0x3c
/home/dangcaominh/STM32MP1/optee-os/optee-os/ta/remoteproc/src/remoteproc_core.c:557
     4be:	9b03      	ldr	r3, [sp, #12]
     4c0:	9300      	str	r3, [sp, #0]
     4c2:	f240 2321 	movw	r3, #545	@ 0x221
     4c6:	f8d8 0000 	ldr.w	r0, [r8]
     4ca:	f002 f80d 	bl	24e8 <TEE_InvokeTACommand>
/home/dangcaominh/STM32MP1/optee-os/optee-os/ta/remoteproc/src/remoteproc_core.c:560
     4ce:	4604      	mov	r4, r0
     4d0:	2800      	cmp	r0, #0
     4d2:	d13a      	bne.n	54a <TA_InvokeCommandEntryPoint+0x19a>
/home/dangcaominh/STM32MP1/optee-os/optee-os/ta/remoteproc/src/remoteproc_core.c:564
     4d4:	9a13      	ldr	r2, [sp, #76]	@ 0x4c
/home/dangcaominh/STM32MP1/optee-os/optee-os/ta/remoteproc/src/remoteproc_core.c:563
     4d6:	9b11      	ldr	r3, [sp, #68]	@ 0x44
remoteproc_verify_firmware():
/home/dangcaominh/STM32MP1/optee-os/optee-os/ta/remoteproc/src/remoteproc_core.c:654
     4d8:	07d4      	lsls	r4, r2, #31
get_rproc_pta_capabilities():
/home/dangcaominh/STM32MP1/optee-os/optee-os/ta/remoteproc/src/remoteproc_core.c:563
     4da:	632b      	str	r3, [r5, #48]	@ 0x30
/home/dangcaominh/STM32MP1/optee-os/optee-os/ta/remoteproc/src/remoteproc_core.c:564
     4dc:	636a      	str	r2, [r5, #52]	@ 0x34
remoteproc_verify_firmware():
/home/dangcaominh/STM32MP1/optee-os/optee-os/ta/remoteproc/src/remoteproc_core.c:654
     4de:	f140 81e1 	bpl.w	8a4 <TA_InvokeCommandEntryPoint+0x4f4>
/home/dangcaominh/STM32MP1/optee-os/optee-os/ta/remoteproc/src/remoteproc_core.c:662
     4e2:	0798      	lsls	r0, r3, #30
     4e4:	f000 81de 	beq.w	8a4 <TA_InvokeCommandEntryPoint+0x4f4>
remoteproc_save_fw_header_and_tlvs():
/home/dangcaominh/STM32MP1/optee-os/optee-os/ta/remoteproc/src/remoteproc_core.c:440
     4e8:	9b02      	ldr	r3, [sp, #8]
     4ea:	0799      	lsls	r1, r3, #30
     4ec:	d10b      	bne.n	506 <TA_InvokeCommandEntryPoint+0x156>
/home/dangcaominh/STM32MP1/optee-os/optee-os/ta/remoteproc/src/remoteproc_core.c:443
     4ee:	689a      	ldr	r2, [r3, #8]
     4f0:	1dd4      	adds	r4, r2, #7
     4f2:	f024 0407 	bic.w	r4, r4, #7
     4f6:	3414      	adds	r4, #20
     4f8:	d205      	bcs.n	506 <TA_InvokeCommandEntryPoint+0x156>
/home/dangcaominh/STM32MP1/optee-os/optee-os/ta/remoteproc/src/remoteproc_core.c:444
     4fa:	68d9      	ldr	r1, [r3, #12]
     4fc:	1dcb      	adds	r3, r1, #7
     4fe:	f023 0307 	bic.w	r3, r3, #7
     502:	18e4      	adds	r4, r4, r3
     504:	d301      	bcc.n	50a <TA_InvokeCommandEntryPoint+0x15a>
remoteproc_verify_firmware():
/home/dangcaominh/STM32MP1/optee-os/optee-os/ta/remoteproc/src/remoteproc_core.c:670
     506:	4c4c      	ldr	r4, [pc, #304]	@ (638 <TA_InvokeCommandEntryPoint+0x288>)
     508:	e01f      	b.n	54a <TA_InvokeCommandEntryPoint+0x19a>
remoteproc_save_fw_header_and_tlvs():
/home/dangcaominh/STM32MP1/optee-os/optee-os/ta/remoteproc/src/remoteproc_core.c:447
     50a:	42a7      	cmp	r7, r4
     50c:	d9fb      	bls.n	506 <TA_InvokeCommandEntryPoint+0x156>
/home/dangcaominh/STM32MP1/optee-os/optee-os/ta/remoteproc/src/remoteproc_core.c:447 (discriminator 1)
     50e:	2900      	cmp	r1, #0
     510:	d0f9      	beq.n	506 <TA_InvokeCommandEntryPoint+0x156>
/home/dangcaominh/STM32MP1/optee-os/optee-os/ta/remoteproc/src/remoteproc_core.c:447 (discriminator 2)
     512:	2a00      	cmp	r2, #0
     514:	d0f7      	beq.n	506 <TA_InvokeCommandEntryPoint+0x156>
/home/dangcaominh/STM32MP1/optee-os/optee-os/ta/remoteproc/src/remoteproc_core.c:453
     516:	2100      	movs	r1, #0
     518:	4620      	mov	r0, r4
     51a:	f002 f94c 	bl	27b6 <TEE_Malloc>
/home/dangcaominh/STM32MP1/optee-os/optee-os/ta/remoteproc/src/remoteproc_core.c:453 (discriminator 1)
     51e:	6068      	str	r0, [r5, #4]
/home/dangcaominh/STM32MP1/optee-os/optee-os/ta/remoteproc/src/remoteproc_core.c:454
     520:	2800      	cmp	r0, #0
     522:	f000 81c1 	beq.w	8a8 <TA_InvokeCommandEntryPoint+0x4f8>
/home/dangcaominh/STM32MP1/optee-os/optee-os/ta/remoteproc/src/remoteproc_core.c:457
     526:	9902      	ldr	r1, [sp, #8]
     528:	4622      	mov	r2, r4
     52a:	f000 fd83 	bl	1034 <memcpy>
remoteproc_verify_firmware():
/home/dangcaominh/STM32MP1/optee-os/optee-os/ta/remoteproc/src/remoteproc_core.c:672
     52e:	686e      	ldr	r6, [r5, #4]
remoteproc_verify_header():
/home/dangcaominh/STM32MP1/optee-os/optee-os/ta/remoteproc/src/remoteproc_core.c:526
     530:	4b42      	ldr	r3, [pc, #264]	@ (63c <TA_InvokeCommandEntryPoint+0x28c>)
     532:	6832      	ldr	r2, [r6, #0]
     534:	429a      	cmp	r2, r3
     536:	d102      	bne.n	53e <TA_InvokeCommandEntryPoint+0x18e>
/home/dangcaominh/STM32MP1/optee-os/optee-os/ta/remoteproc/src/remoteproc_core.c:529
     538:	6873      	ldr	r3, [r6, #4]
     53a:	2b01      	cmp	r3, #1
     53c:	d034      	beq.n	5a8 <TA_InvokeCommandEntryPoint+0x1f8>
remoteproc_verify_firmware():
/home/dangcaominh/STM32MP1/optee-os/optee-os/ta/remoteproc/src/remoteproc_core.c:672
     53e:	4c3e      	ldr	r4, [pc, #248]	@ (638 <TA_InvokeCommandEntryPoint+0x288>)
/home/dangcaominh/STM32MP1/optee-os/optee-os/ta/remoteproc/src/remoteproc_core.c:704
     540:	6868      	ldr	r0, [r5, #4]
     542:	f002 f993 	bl	286c <TEE_Free>
/home/dangcaominh/STM32MP1/optee-os/optee-os/ta/remoteproc/src/remoteproc_core.c:705
     546:	2300      	movs	r3, #0
     548:	606b      	str	r3, [r5, #4]
remoteproc_load_fw():
/home/dangcaominh/STM32MP1/optee-os/optee-os/ta/remoteproc/src/remoteproc_core.c:1250
     54a:	4b46      	ldr	r3, [pc, #280]	@ (664 <TA_InvokeCommandEntryPoint+0x2b4>)
     54c:	f240 41e2 	movw	r1, #1250	@ 0x4e2
     550:	4845      	ldr	r0, [pc, #276]	@ (668 <TA_InvokeCommandEntryPoint+0x2b8>)
     552:	447b      	add	r3, pc
     554:	4478      	add	r0, pc
     556:	9300      	str	r3, [sp, #0]
     558:	2301      	movs	r3, #1
     55a:	9401      	str	r4, [sp, #4]
     55c:	461a      	mov	r2, r3
     55e:	3044      	adds	r0, #68	@ 0x44
remoteproc_load_elf():
/home/dangcaominh/STM32MP1/optee-os/optee-os/ta/remoteproc/src/remoteproc_core.c:1089
     560:	f000 fea4 	bl	12ac <trace_printf>
remoteproc_load_fw():
/home/dangcaominh/STM32MP1/optee-os/optee-os/ta/remoteproc/src/remoteproc_core.c:1261
     564:	682e      	ldr	r6, [r5, #0]
remoteproc_release_mems():
/home/dangcaominh/STM32MP1/optee-os/optee-os/ta/remoteproc/src/remoteproc_core.c:998
     566:	221c      	movs	r2, #28
     568:	2100      	movs	r1, #0
     56a:	a810      	add	r0, sp, #64	@ 0x40
/home/dangcaominh/STM32MP1/optee-os/optee-os/ta/remoteproc/src/remoteproc_core.c:1002
     56c:	2700      	movs	r7, #0
/home/dangcaominh/STM32MP1/optee-os/optee-os/ta/remoteproc/src/remoteproc_core.c:998
     56e:	f00d f889 	bl	d684 <memset>
/home/dangcaominh/STM32MP1/optee-os/optee-os/ta/remoteproc/src/remoteproc_core.c:1002
     572:	483e      	ldr	r0, [pc, #248]	@ (66c <TA_InvokeCommandEntryPoint+0x2bc>)
     574:	ab0f      	add	r3, sp, #60	@ 0x3c
     576:	9300      	str	r3, [sp, #0]
     578:	220c      	movs	r2, #12
     57a:	4478      	add	r0, pc
     57c:	2301      	movs	r3, #1
     57e:	9701      	str	r7, [sp, #4]
     580:	f04f 31ff 	mov.w	r1, #4294967295	@ 0xffffffff
     584:	6800      	ldr	r0, [r0, #0]
/home/dangcaominh/STM32MP1/optee-os/optee-os/ta/remoteproc/src/remoteproc_core.c:1000
     586:	960f      	str	r6, [sp, #60]	@ 0x3c
/home/dangcaominh/STM32MP1/optee-os/optee-os/ta/remoteproc/src/remoteproc_core.c:1002
     588:	f001 ffae 	bl	24e8 <TEE_InvokeTACommand>
remoteproc_load_fw():
/home/dangcaominh/STM32MP1/optee-os/optee-os/ta/remoteproc/src/remoteproc_core.c:1262
     58c:	4606      	mov	r6, r0
     58e:	2800      	cmp	r0, #0
     590:	f43f af7e 	beq.w	490 <TA_InvokeCommandEntryPoint+0xe0>
/home/dangcaominh/STM32MP1/optee-os/optee-os/ta/remoteproc/src/remoteproc_core.c:1262 (discriminator 1)
     594:	6aeb      	ldr	r3, [r5, #44]	@ 0x2c
     596:	2b01      	cmp	r3, #1
     598:	f47f af7a 	bne.w	490 <TA_InvokeCommandEntryPoint+0xe0>
/home/dangcaominh/STM32MP1/optee-os/optee-os/ta/remoteproc/src/remoteproc_core.c:1263
     59c:	6828      	ldr	r0, [r5, #0]
/home/dangcaominh/STM32MP1/optee-os/optee-os/ta/remoteproc/src/remoteproc_core.c:1265
     59e:	4634      	mov	r4, r6
/home/dangcaominh/STM32MP1/optee-os/optee-os/ta/remoteproc/src/remoteproc_core.c:1263
     5a0:	f7ff fe86 	bl	2b0 <remoteproc_clean_resources.isra.0>
/home/dangcaominh/STM32MP1/optee-os/optee-os/ta/remoteproc/src/remoteproc_core.c:1264
     5a4:	62ef      	str	r7, [r5, #44]	@ 0x2c
/home/dangcaominh/STM32MP1/optee-os/optee-os/ta/remoteproc/src/remoteproc_core.c:1265
     5a6:	e773      	b.n	490 <TA_InvokeCommandEntryPoint+0xe0>
remoteproc_verify_header():
/home/dangcaominh/STM32MP1/optee-os/optee-os/ta/remoteproc/src/remoteproc_core.c:537
     5a8:	68f3      	ldr	r3, [r6, #12]
     5aa:	3307      	adds	r3, #7
     5ac:	f023 0307 	bic.w	r3, r3, #7
     5b0:	3314      	adds	r3, #20
     5b2:	d2c4      	bcs.n	53e <TA_InvokeCommandEntryPoint+0x18e>
/home/dangcaominh/STM32MP1/optee-os/optee-os/ta/remoteproc/src/remoteproc_core.c:538
     5b4:	6932      	ldr	r2, [r6, #16]
     5b6:	3207      	adds	r2, #7
     5b8:	f022 0207 	bic.w	r2, r2, #7
     5bc:	189b      	adds	r3, r3, r2
     5be:	d2be      	bcs.n	53e <TA_InvokeCommandEntryPoint+0x18e>
/home/dangcaominh/STM32MP1/optee-os/optee-os/ta/remoteproc/src/remoteproc_core.c:539
     5c0:	68b1      	ldr	r1, [r6, #8]
     5c2:	2400      	movs	r4, #0
     5c4:	1dca      	adds	r2, r1, #7
     5c6:	f022 0207 	bic.w	r2, r2, #7
     5ca:	189b      	adds	r3, r3, r2
     5cc:	d2b7      	bcs.n	53e <TA_InvokeCommandEntryPoint+0x18e>
     5ce:	429f      	cmp	r7, r3
     5d0:	d1b5      	bne.n	53e <TA_InvokeCommandEntryPoint+0x18e>
remoteproc_verify_firmware():
/home/dangcaominh/STM32MP1/optee-os/optee-os/ta/remoteproc/src/remoteproc_core.c:677
     5d2:	60e9      	str	r1, [r5, #12]
remoteproc_verify_signature():
/home/dangcaominh/STM32MP1/optee-os/optee-os/ta/remoteproc/src/remoteproc_core.c:474
     5d4:	ab0b      	add	r3, sp, #44	@ 0x2c
/home/dangcaominh/STM32MP1/optee-os/optee-os/ta/remoteproc/src/remoteproc_core.c:464
     5d6:	9409      	str	r4, [sp, #36]	@ 0x24
remoteproc_verify_firmware():
/home/dangcaominh/STM32MP1/optee-os/optee-os/ta/remoteproc/src/remoteproc_core.c:678
     5d8:	f106 0014 	add.w	r0, r6, #20
     5dc:	60a8      	str	r0, [r5, #8]
remoteproc_verify_signature():
/home/dangcaominh/STM32MP1/optee-os/optee-os/ta/remoteproc/src/remoteproc_core.c:474
     5de:	2201      	movs	r2, #1
     5e0:	9300      	str	r3, [sp, #0]
     5e2:	ab0a      	add	r3, sp, #40	@ 0x28
/home/dangcaominh/STM32MP1/optee-os/optee-os/ta/remoteproc/src/remoteproc_core.c:471
     5e4:	940c      	str	r4, [sp, #48]	@ 0x30
/home/dangcaominh/STM32MP1/optee-os/optee-os/ta/remoteproc/src/remoteproc_core.c:474
     5e6:	f7ff fd19 	bl	1c <remoteproc_get_tlv>
/home/dangcaominh/STM32MP1/optee-os/optee-os/ta/remoteproc/src/remoteproc_core.c:477
     5ea:	2800      	cmp	r0, #0
     5ec:	d1a7      	bne.n	53e <TA_InvokeCommandEntryPoint+0x18e>
/home/dangcaominh/STM32MP1/optee-os/optee-os/ta/remoteproc/src/remoteproc_core.c:477 (discriminator 1)
     5ee:	f8dd a02c 	ldr.w	sl, [sp, #44]	@ 0x2c
     5f2:	f1ba 0f01 	cmp.w	sl, #1
     5f6:	d1a2      	bne.n	53e <TA_InvokeCommandEntryPoint+0x18e>
/home/dangcaominh/STM32MP1/optee-os/optee-os/ta/remoteproc/src/remoteproc_core.c:480
     5f8:	9b0a      	ldr	r3, [sp, #40]	@ 0x28
     5fa:	781b      	ldrb	r3, [r3, #0]
remoteproc_get_algo():
/home/dangcaominh/STM32MP1/optee-os/optee-os/ta/remoteproc/src/remoteproc_core.c:364
     5fc:	2b01      	cmp	r3, #1
     5fe:	d010      	beq.n	622 <TA_InvokeCommandEntryPoint+0x272>
     600:	2b02      	cmp	r3, #2
     602:	d00f      	beq.n	624 <TA_InvokeCommandEntryPoint+0x274>
remoteproc_verify_signature():
/home/dangcaominh/STM32MP1/optee-os/optee-os/ta/remoteproc/src/remoteproc_core.c:482
     604:	481a      	ldr	r0, [pc, #104]	@ (670 <TA_InvokeCommandEntryPoint+0x2c0>)
     606:	4652      	mov	r2, sl
     608:	9301      	str	r3, [sp, #4]
     60a:	f44f 71f1 	mov.w	r1, #482	@ 0x1e2
     60e:	4b19      	ldr	r3, [pc, #100]	@ (674 <TA_InvokeCommandEntryPoint+0x2c4>)
     610:	4478      	add	r0, pc
     612:	447b      	add	r3, pc
     614:	3057      	adds	r0, #87	@ 0x57
     616:	9300      	str	r3, [sp, #0]
     618:	4653      	mov	r3, sl
     61a:	f000 fe47 	bl	12ac <trace_printf>
remoteproc_verify_firmware():
/home/dangcaominh/STM32MP1/optee-os/optee-os/ta/remoteproc/src/remoteproc_core.c:685
     61e:	4c08      	ldr	r4, [pc, #32]	@ (640 <TA_InvokeCommandEntryPoint+0x290>)
     620:	e78e      	b.n	540 <TA_InvokeCommandEntryPoint+0x190>
remoteproc_get_algo():
/home/dangcaominh/STM32MP1/optee-os/optee-os/ta/remoteproc/src/remoteproc_core.c:363
     622:	4682      	mov	sl, r0
remoteproc_verify_signature():
/home/dangcaominh/STM32MP1/optee-os/optee-os/ta/remoteproc/src/remoteproc_core.c:487
     624:	2720      	movs	r7, #32
/home/dangcaominh/STM32MP1/optee-os/optee-os/ta/remoteproc/src/remoteproc_core.c:488
     626:	2100      	movs	r1, #0
/home/dangcaominh/STM32MP1/optee-os/optee-os/ta/remoteproc/src/remoteproc_core.c:487
     628:	970c      	str	r7, [sp, #48]	@ 0x30
/home/dangcaominh/STM32MP1/optee-os/optee-os/ta/remoteproc/src/remoteproc_core.c:488
     62a:	4638      	mov	r0, r7
     62c:	f002 f8c3 	bl	27b6 <TEE_Malloc>
/home/dangcaominh/STM32MP1/optee-os/optee-os/ta/remoteproc/src/remoteproc_core.c:489
     630:	4681      	mov	r9, r0
     632:	bb08      	cbnz	r0, 678 <TA_InvokeCommandEntryPoint+0x2c8>
remoteproc_verify_firmware():
/home/dangcaominh/STM32MP1/optee-os/optee-os/ta/remoteproc/src/remoteproc_core.c:680
     634:	4c03      	ldr	r4, [pc, #12]	@ (644 <TA_InvokeCommandEntryPoint+0x294>)
     636:	e783      	b.n	540 <TA_InvokeCommandEntryPoint+0x190>
     638:	ffff0006 	.word	0xffff0006
     63c:	3543a468 	.word	0x3543a468
     640:	ffff000a 	.word	0xffff000a
     644:	ffff000c 	.word	0xffff000c
     648:	0000ecc6 	.word	0x0000ecc6
     64c:	0000000c 	.word	0x0000000c
     650:	0000eca0 	.word	0x0000eca0
     654:	0000ee92 	.word	0x0000ee92
     658:	0000ef8e 	.word	0x0000ef8e
     65c:	0000d5aa 	.word	0x0000d5aa
     660:	0000d32a 	.word	0x0000d32a
     664:	0000d53f 	.word	0x0000d53f
     668:	0000d258 	.word	0x0000d258
     66c:	0000ee62 	.word	0x0000ee62
     670:	0000d19c 	.word	0x0000d19c
     674:	0000d43b 	.word	0x0000d43b
remoteproc_verify_signature():
/home/dangcaominh/STM32MP1/optee-os/optee-os/ta/remoteproc/src/remoteproc_core.c:492
     678:	49b2      	ldr	r1, [pc, #712]	@ (944 <TA_InvokeCommandEntryPoint+0x594>)
     67a:	2300      	movs	r3, #0
     67c:	2205      	movs	r2, #5
     67e:	a809      	add	r0, sp, #36	@ 0x24
     680:	f002 fbc2 	bl	2e08 <TEE_AllocateOperation>
/home/dangcaominh/STM32MP1/optee-os/optee-os/ta/remoteproc/src/remoteproc_core.c:493
     684:	4604      	mov	r4, r0
     686:	2800      	cmp	r0, #0
     688:	f040 8083 	bne.w	792 <TA_InvokeCommandEntryPoint+0x3e2>
/home/dangcaominh/STM32MP1/optee-os/optee-os/ta/remoteproc/src/remoteproc_core.c:496
     68c:	9809      	ldr	r0, [sp, #36]	@ 0x24
     68e:	2214      	movs	r2, #20
     690:	4631      	mov	r1, r6
     692:	f003 f977 	bl	3984 <TEE_DigestUpdate>
/home/dangcaominh/STM32MP1/optee-os/optee-os/ta/remoteproc/src/remoteproc_core.c:497
     696:	68b2      	ldr	r2, [r6, #8]
     698:	ab0c      	add	r3, sp, #48	@ 0x30
     69a:	9300      	str	r3, [sp, #0]
     69c:	464b      	mov	r3, r9
     69e:	68a9      	ldr	r1, [r5, #8]
     6a0:	3207      	adds	r2, #7
     6a2:	f022 0207 	bic.w	r2, r2, #7
     6a6:	9809      	ldr	r0, [sp, #36]	@ 0x24
     6a8:	f003 f986 	bl	39b8 <TEE_DigestDoFinal>
/home/dangcaominh/STM32MP1/optee-os/optee-os/ta/remoteproc/src/remoteproc_core.c:500
     6ac:	4604      	mov	r4, r0
     6ae:	2800      	cmp	r0, #0
     6b0:	d16c      	bne.n	78c <TA_InvokeCommandEntryPoint+0x3dc>
/home/dangcaominh/STM32MP1/optee-os/optee-os/ta/remoteproc/src/remoteproc_core.c:510
     6b2:	9b0c      	ldr	r3, [sp, #48]	@ 0x30
remoteproc_pta_verify():
/home/dangcaominh/STM32MP1/optee-os/optee-os/ta/remoteproc/src/remoteproc_core.c:393
     6b4:	463a      	mov	r2, r7
/home/dangcaominh/STM32MP1/optee-os/optee-os/ta/remoteproc/src/remoteproc_core.c:387
     6b6:	f8d5 b004 	ldr.w	fp, [r5, #4]
/home/dangcaominh/STM32MP1/optee-os/optee-os/ta/remoteproc/src/remoteproc_core.c:393
     6ba:	4601      	mov	r1, r0
     6bc:	9803      	ldr	r0, [sp, #12]
remoteproc_verify_signature():
/home/dangcaominh/STM32MP1/optee-os/optee-os/ta/remoteproc/src/remoteproc_core.c:510
     6be:	9306      	str	r3, [sp, #24]
remoteproc_pta_verify():
/home/dangcaominh/STM32MP1/optee-os/optee-os/ta/remoteproc/src/remoteproc_core.c:393
     6c0:	f00c ffe0 	bl	d684 <memset>
/home/dangcaominh/STM32MP1/optee-os/optee-os/ta/remoteproc/src/remoteproc_core.c:398
     6c4:	ab0d      	add	r3, sp, #52	@ 0x34
     6c6:	2211      	movs	r2, #17
     6c8:	9300      	str	r3, [sp, #0]
     6ca:	ab0e      	add	r3, sp, #56	@ 0x38
     6cc:	f8db 1008 	ldr.w	r1, [fp, #8]
     6d0:	68a8      	ldr	r0, [r5, #8]
     6d2:	f7ff fca3 	bl	1c <remoteproc_get_tlv>
/home/dangcaominh/STM32MP1/optee-os/optee-os/ta/remoteproc/src/remoteproc_core.c:401
     6d6:	4607      	mov	r7, r0
     6d8:	b110      	cbz	r0, 6e0 <TA_InvokeCommandEntryPoint+0x330>
/home/dangcaominh/STM32MP1/optee-os/optee-os/ta/remoteproc/src/remoteproc_core.c:401 (discriminator 1)
     6da:	4b9b      	ldr	r3, [pc, #620]	@ (948 <TA_InvokeCommandEntryPoint+0x598>)
     6dc:	4298      	cmp	r0, r3
     6de:	d154      	bne.n	78a <TA_InvokeCommandEntryPoint+0x3da>
/home/dangcaominh/STM32MP1/optee-os/optee-os/ta/remoteproc/src/remoteproc_core.c:404
     6e0:	9f0d      	ldr	r7, [sp, #52]	@ 0x34
     6e2:	2100      	movs	r1, #0
     6e4:	f107 0308 	add.w	r3, r7, #8
     6e8:	9305      	str	r3, [sp, #20]
     6ea:	4618      	mov	r0, r3
     6ec:	f002 f863 	bl	27b6 <TEE_Malloc>
/home/dangcaominh/STM32MP1/optee-os/optee-os/ta/remoteproc/src/remoteproc_core.c:405
     6f0:	4680      	mov	r8, r0
     6f2:	2800      	cmp	r0, #0
     6f4:	f000 80a5 	beq.w	842 <TA_InvokeCommandEntryPoint+0x492>
/home/dangcaominh/STM32MP1/optee-os/optee-os/ta/remoteproc/src/remoteproc_core.c:408
     6f8:	4b98      	ldr	r3, [pc, #608]	@ (95c <TA_InvokeCommandEntryPoint+0x5ac>)
     6fa:	210c      	movs	r1, #12
/home/dangcaominh/STM32MP1/optee-os/optee-os/ta/remoteproc/src/remoteproc_core.c:410
     6fc:	463a      	mov	r2, r7
/home/dangcaominh/STM32MP1/optee-os/optee-os/ta/remoteproc/src/remoteproc_core.c:408
     6fe:	447b      	add	r3, pc
     700:	fb01 330a 	mla	r3, r1, sl, r3
/home/dangcaominh/STM32MP1/optee-os/optee-os/ta/remoteproc/src/remoteproc_core.c:410
     704:	990e      	ldr	r1, [sp, #56]	@ 0x38
/home/dangcaominh/STM32MP1/optee-os/optee-os/ta/remoteproc/src/remoteproc_core.c:408
     706:	6f9b      	ldr	r3, [r3, #120]	@ 0x78
/home/dangcaominh/STM32MP1/optee-os/optee-os/ta/remoteproc/src/remoteproc_core.c:409
     708:	e9c0 3700 	strd	r3, r7, [r0]
/home/dangcaominh/STM32MP1/optee-os/optee-os/ta/remoteproc/src/remoteproc_core.c:410
     70c:	3008      	adds	r0, #8
     70e:	f000 fc91 	bl	1034 <memcpy>
/home/dangcaominh/STM32MP1/optee-os/optee-os/ta/remoteproc/src/remoteproc_core.c:412
     712:	f8db 3008 	ldr.w	r3, [fp, #8]
rproc_pta_keyinfo_size():
/home/dangcaominh/STM32MP1/optee-os/optee-os/../build/optee-programmer-stm32mp157d-dk1/export-ta_arm32/include/remoteproc_pta.h:75 (discriminator 1)
     716:	f117 0208 	adds.w	r2, r7, #8
remoteproc_pta_verify():
/home/dangcaominh/STM32MP1/optee-os/optee-os/ta/remoteproc/src/remoteproc_core.c:412
     71a:	6869      	ldr	r1, [r5, #4]
/home/dangcaominh/STM32MP1/optee-os/optee-os/ta/remoteproc/src/remoteproc_core.c:422
     71c:	f04f 0208 	mov.w	r2, #8
     720:	488f      	ldr	r0, [pc, #572]	@ (960 <TA_InvokeCommandEntryPoint+0x5b0>)
/home/dangcaominh/STM32MP1/optee-os/optee-os/ta/remoteproc/src/remoteproc_core.c:412
     722:	f103 0307 	add.w	r3, r3, #7
     726:	f023 0307 	bic.w	r3, r3, #7
/home/dangcaominh/STM32MP1/optee-os/optee-os/ta/remoteproc/src/remoteproc_core.c:422
     72a:	4478      	add	r0, pc
/home/dangcaominh/STM32MP1/optee-os/optee-os/ta/remoteproc/src/remoteproc_core.c:412
     72c:	f103 0314 	add.w	r3, r3, #20
     730:	4419      	add	r1, r3
/home/dangcaominh/STM32MP1/optee-os/optee-os/ta/remoteproc/src/remoteproc_core.c:414
     732:	682b      	ldr	r3, [r5, #0]
rproc_pta_keyinfo_size():
/home/dangcaominh/STM32MP1/optee-os/optee-os/../build/optee-programmer-stm32mp157d-dk1/export-ta_arm32/include/remoteproc_pta.h:75 (discriminator 1)
     734:	bf38      	it	cc
     736:	9c05      	ldrcc	r4, [sp, #20]
remoteproc_pta_verify():
/home/dangcaominh/STM32MP1/optee-os/optee-os/ta/remoteproc/src/remoteproc_core.c:414
     738:	930f      	str	r3, [sp, #60]	@ 0x3c
/home/dangcaominh/STM32MP1/optee-os/optee-os/ta/remoteproc/src/remoteproc_core.c:418
     73a:	9b06      	ldr	r3, [sp, #24]
/home/dangcaominh/STM32MP1/optee-os/optee-os/ta/remoteproc/src/remoteproc_core.c:419
     73c:	9115      	str	r1, [sp, #84]	@ 0x54
/home/dangcaominh/STM32MP1/optee-os/optee-os/ta/remoteproc/src/remoteproc_core.c:422
     73e:	f04f 31ff 	mov.w	r1, #4294967295	@ 0xffffffff
/home/dangcaominh/STM32MP1/optee-os/optee-os/ta/remoteproc/src/remoteproc_core.c:418
     742:	9314      	str	r3, [sp, #80]	@ 0x50
/home/dangcaominh/STM32MP1/optee-os/optee-os/ta/remoteproc/src/remoteproc_core.c:420
     744:	f8db 300c 	ldr.w	r3, [fp, #12]
/home/dangcaominh/STM32MP1/optee-os/optee-os/ta/remoteproc/src/remoteproc_core.c:415
     748:	f8cd 8044 	str.w	r8, [sp, #68]	@ 0x44
/home/dangcaominh/STM32MP1/optee-os/optee-os/ta/remoteproc/src/remoteproc_core.c:420
     74c:	9316      	str	r3, [sp, #88]	@ 0x58
/home/dangcaominh/STM32MP1/optee-os/optee-os/ta/remoteproc/src/remoteproc_core.c:422
     74e:	2300      	movs	r3, #0
     750:	9301      	str	r3, [sp, #4]
     752:	9b03      	ldr	r3, [sp, #12]
/home/dangcaominh/STM32MP1/optee-os/optee-os/ta/remoteproc/src/remoteproc_core.c:416 (discriminator 1)
     754:	9412      	str	r4, [sp, #72]	@ 0x48
/home/dangcaominh/STM32MP1/optee-os/optee-os/ta/remoteproc/src/remoteproc_core.c:422
     756:	9300      	str	r3, [sp, #0]
     758:	f245 5351 	movw	r3, #21841	@ 0x5551
     75c:	6800      	ldr	r0, [r0, #0]
/home/dangcaominh/STM32MP1/optee-os/optee-os/ta/remoteproc/src/remoteproc_core.c:417
     75e:	f8cd 904c 	str.w	r9, [sp, #76]	@ 0x4c
/home/dangcaominh/STM32MP1/optee-os/optee-os/ta/remoteproc/src/remoteproc_core.c:422
     762:	f001 fec1 	bl	24e8 <TEE_InvokeTACommand>
/home/dangcaominh/STM32MP1/optee-os/optee-os/ta/remoteproc/src/remoteproc_core.c:425
     766:	4607      	mov	r7, r0
     768:	b160      	cbz	r0, 784 <TA_InvokeCommandEntryPoint+0x3d4>
/home/dangcaominh/STM32MP1/optee-os/optee-os/ta/remoteproc/src/remoteproc_core.c:426
     76a:	4b7e      	ldr	r3, [pc, #504]	@ (964 <TA_InvokeCommandEntryPoint+0x5b4>)
     76c:	f44f 71d5 	mov.w	r1, #426	@ 0x1aa
     770:	9001      	str	r0, [sp, #4]
     772:	487d      	ldr	r0, [pc, #500]	@ (968 <TA_InvokeCommandEntryPoint+0x5b8>)
     774:	447b      	add	r3, pc
     776:	4478      	add	r0, pc
     778:	9300      	str	r3, [sp, #0]
     77a:	2301      	movs	r3, #1
     77c:	461a      	mov	r2, r3
     77e:	308c      	adds	r0, #140	@ 0x8c
     780:	f000 fd94 	bl	12ac <trace_printf>
/home/dangcaominh/STM32MP1/optee-os/optee-os/ta/remoteproc/src/remoteproc_core.c:428
     784:	4640      	mov	r0, r8
     786:	f002 f871 	bl	286c <TEE_Free>
remoteproc_verify_signature():
/home/dangcaominh/STM32MP1/optee-os/optee-os/ta/remoteproc/src/remoteproc_core.c:510
     78a:	463c      	mov	r4, r7
/home/dangcaominh/STM32MP1/optee-os/optee-os/ta/remoteproc/src/remoteproc_core.c:513
     78c:	9809      	ldr	r0, [sp, #36]	@ 0x24
     78e:	f002 fb29 	bl	2de4 <TEE_FreeOperation>
/home/dangcaominh/STM32MP1/optee-os/optee-os/ta/remoteproc/src/remoteproc_core.c:515
     792:	4648      	mov	r0, r9
     794:	f002 f86a 	bl	286c <TEE_Free>
remoteproc_verify_firmware():
/home/dangcaominh/STM32MP1/optee-os/optee-os/ta/remoteproc/src/remoteproc_core.c:681
     798:	2c00      	cmp	r4, #0
     79a:	f47f aed1 	bne.w	540 <TA_InvokeCommandEntryPoint+0x190>
get_tlv_hash_type():
/home/dangcaominh/STM32MP1/optee-os/optee-os/ta/remoteproc/src/remoteproc_core.c:620
     79e:	68af      	ldr	r7, [r5, #8]
     7a0:	f10d 0b34 	add.w	fp, sp, #52	@ 0x34
     7a4:	f8d5 800c 	ldr.w	r8, [r5, #12]
     7a8:	f10d 0938 	add.w	r9, sp, #56	@ 0x38
     7ac:	f8cd 9000 	str.w	r9, [sp]
     7b0:	465b      	mov	r3, fp
     7b2:	2202      	movs	r2, #2
     7b4:	4641      	mov	r1, r8
     7b6:	4638      	mov	r0, r7
     7b8:	f7ff fc30 	bl	1c <remoteproc_get_tlv>
/home/dangcaominh/STM32MP1/optee-os/optee-os/ta/remoteproc/src/remoteproc_core.c:622
     7bc:	4604      	mov	r4, r0
     7be:	2800      	cmp	r0, #0
     7c0:	f47f aebe 	bne.w	540 <TA_InvokeCommandEntryPoint+0x190>
/home/dangcaominh/STM32MP1/optee-os/optee-os/ta/remoteproc/src/remoteproc_core.c:625
     7c4:	9b0e      	ldr	r3, [sp, #56]	@ 0x38
     7c6:	2b01      	cmp	r3, #1
     7c8:	f47f aeb9 	bne.w	53e <TA_InvokeCommandEntryPoint+0x18e>
/home/dangcaominh/STM32MP1/optee-os/optee-os/ta/remoteproc/src/remoteproc_core.c:628
     7cc:	9b0d      	ldr	r3, [sp, #52]	@ 0x34
/home/dangcaominh/STM32MP1/optee-os/optee-os/ta/remoteproc/src/remoteproc_core.c:631
     7ce:	781b      	ldrb	r3, [r3, #0]
     7d0:	2b01      	cmp	r3, #1
     7d2:	f47f af24 	bne.w	61e <TA_InvokeCommandEntryPoint+0x26e>
/home/dangcaominh/STM32MP1/optee-os/optee-os/ta/remoteproc/src/remoteproc_core.c:632
     7d6:	4b5b      	ldr	r3, [pc, #364]	@ (944 <TA_InvokeCommandEntryPoint+0x594>)
remoteproc_set_platform_tlv():
/home/dangcaominh/STM32MP1/optee-os/optee-os/ta/remoteproc/src/remoteproc_core.c:575
     7d8:	4601      	mov	r1, r0
/home/dangcaominh/STM32MP1/optee-os/optee-os/ta/remoteproc/src/remoteproc_core.c:598
     7da:	f8df a190 	ldr.w	sl, [pc, #400]	@ 96c <TA_InvokeCommandEntryPoint+0x5bc>
/home/dangcaominh/STM32MP1/optee-os/optee-os/ta/remoteproc/src/remoteproc_core.c:575
     7de:	221c      	movs	r2, #28
get_tlv_hash_type():
/home/dangcaominh/STM32MP1/optee-os/optee-os/ta/remoteproc/src/remoteproc_core.c:632
     7e0:	63ab      	str	r3, [r5, #56]	@ 0x38
/home/dangcaominh/STM32MP1/optee-os/optee-os/ta/remoteproc/src/remoteproc_core.c:633
     7e2:	2320      	movs	r3, #32
     7e4:	63eb      	str	r3, [r5, #60]	@ 0x3c
remoteproc_set_platform_tlv():
/home/dangcaominh/STM32MP1/optee-os/optee-os/ta/remoteproc/src/remoteproc_core.c:575
     7e6:	9804      	ldr	r0, [sp, #16]
/home/dangcaominh/STM32MP1/optee-os/optee-os/ta/remoteproc/src/remoteproc_core.c:598
     7e8:	44fa      	add	sl, pc
/home/dangcaominh/STM32MP1/optee-os/optee-os/ta/remoteproc/src/remoteproc_core.c:575
     7ea:	f00c ff4b 	bl	d684 <memset>
/home/dangcaominh/STM32MP1/optee-os/optee-os/ta/remoteproc/src/remoteproc_core.c:577
     7ee:	eb07 0308 	add.w	r3, r7, r8
     7f2:	9304      	str	r3, [sp, #16]
/home/dangcaominh/STM32MP1/optee-os/optee-os/ta/remoteproc/src/remoteproc_core.c:583
     7f4:	682b      	ldr	r3, [r5, #0]
/home/dangcaominh/STM32MP1/optee-os/optee-os/ta/remoteproc/src/remoteproc_core.c:598
     7f6:	9405      	str	r4, [sp, #20]
/home/dangcaominh/STM32MP1/optee-os/optee-os/ta/remoteproc/src/remoteproc_core.c:583
     7f8:	930f      	str	r3, [sp, #60]	@ 0x3c
/home/dangcaominh/STM32MP1/optee-os/optee-os/ta/remoteproc/src/remoteproc_core.c:586
     7fa:	9b04      	ldr	r3, [sp, #16]
     7fc:	42bb      	cmp	r3, r7
     7fe:	d822      	bhi.n	846 <TA_InvokeCommandEntryPoint+0x496>
remoteproc_verify_firmware():
/home/dangcaominh/STM32MP1/optee-os/optee-os/ta/remoteproc/src/remoteproc_core.c:696
     800:	68b3      	ldr	r3, [r6, #8]
/home/dangcaominh/STM32MP1/optee-os/optee-os/ta/remoteproc/src/remoteproc_core.c:695
     802:	6931      	ldr	r1, [r6, #16]
/home/dangcaominh/STM32MP1/optee-os/optee-os/ta/remoteproc/src/remoteproc_core.c:696
     804:	1dd8      	adds	r0, r3, #7
     806:	68f3      	ldr	r3, [r6, #12]
     808:	f020 0007 	bic.w	r0, r0, #7
/home/dangcaominh/STM32MP1/optee-os/optee-os/ta/remoteproc/src/remoteproc_core.c:695
     80c:	6169      	str	r1, [r5, #20]
/home/dangcaominh/STM32MP1/optee-os/optee-os/ta/remoteproc/src/remoteproc_core.c:696
     80e:	3307      	adds	r3, #7
     810:	f023 0307 	bic.w	r3, r3, #7
     814:	4418      	add	r0, r3
     816:	9b02      	ldr	r3, [sp, #8]
     818:	3014      	adds	r0, #20
     81a:	4403      	add	r3, r0
     81c:	612b      	str	r3, [r5, #16]
     81e:	4618      	mov	r0, r3
remoteproc_load_elf():
/home/dangcaominh/STM32MP1/optee-os/optee-os/ta/remoteproc/src/remoteproc_core.c:1087
     820:	f000 fa60 	bl	ce4 <e32_parse_ehdr>
/home/dangcaominh/STM32MP1/optee-os/optee-os/ta/remoteproc/src/remoteproc_core.c:1088
     824:	4604      	mov	r4, r0
     826:	2800      	cmp	r0, #0
     828:	d040      	beq.n	8ac <TA_InvokeCommandEntryPoint+0x4fc>
/home/dangcaominh/STM32MP1/optee-os/optee-os/ta/remoteproc/src/remoteproc_core.c:1089
     82a:	4b51      	ldr	r3, [pc, #324]	@ (970 <TA_InvokeCommandEntryPoint+0x5c0>)
     82c:	f240 4141 	movw	r1, #1089	@ 0x441
     830:	4850      	ldr	r0, [pc, #320]	@ (974 <TA_InvokeCommandEntryPoint+0x5c4>)
     832:	447b      	add	r3, pc
     834:	4478      	add	r0, pc
     836:	9300      	str	r3, [sp, #0]
     838:	2301      	movs	r3, #1
     83a:	9401      	str	r4, [sp, #4]
     83c:	461a      	mov	r2, r3
     83e:	30a2      	adds	r0, #162	@ 0xa2
     840:	e68e      	b.n	560 <TA_InvokeCommandEntryPoint+0x1b0>
remoteproc_pta_verify():
/home/dangcaominh/STM32MP1/optee-os/optee-os/ta/remoteproc/src/remoteproc_core.c:406
     842:	4f42      	ldr	r7, [pc, #264]	@ (94c <TA_InvokeCommandEntryPoint+0x59c>)
     844:	e7a1      	b.n	78a <TA_InvokeCommandEntryPoint+0x3da>
remoteproc_set_platform_tlv():
/home/dangcaominh/STM32MP1/optee-os/optee-os/ta/remoteproc/src/remoteproc_core.c:587
     846:	2204      	movs	r2, #4
     848:	4639      	mov	r1, r7
     84a:	4648      	mov	r0, r9
     84c:	f000 fbf2 	bl	1034 <memcpy>
/home/dangcaominh/STM32MP1/optee-os/optee-os/ta/remoteproc/src/remoteproc_core.c:588
     850:	9c0e      	ldr	r4, [sp, #56]	@ 0x38
/home/dangcaominh/STM32MP1/optee-os/optee-os/ta/remoteproc/src/remoteproc_core.c:589
     852:	2204      	movs	r2, #4
     854:	18b9      	adds	r1, r7, r2
     856:	4648      	mov	r0, r9
     858:	f000 fbec 	bl	1034 <memcpy>
/home/dangcaominh/STM32MP1/optee-os/optee-os/ta/remoteproc/src/remoteproc_core.c:592
     85c:	f8bd 8038 	ldrh.w	r8, [sp, #56]	@ 0x38
     860:	f5a4 3380 	sub.w	r3, r4, #65536	@ 0x10000
     864:	f5b3 3f80 	cmp.w	r3, #65536	@ 0x10000
     868:	d305      	bcc.n	876 <TA_InvokeCommandEntryPoint+0x4c6>
/home/dangcaominh/STM32MP1/optee-os/optee-os/ta/remoteproc/src/remoteproc_core.c:605
     86a:	f108 080f 	add.w	r8, r8, #15
     86e:	f028 0807 	bic.w	r8, r8, #7
     872:	4447      	add	r7, r8
     874:	e7c1      	b.n	7fa <TA_InvokeCommandEntryPoint+0x44a>
/home/dangcaominh/STM32MP1/optee-os/optee-os/ta/remoteproc/src/remoteproc_core.c:594
     876:	9411      	str	r4, [sp, #68]	@ 0x44
/home/dangcaominh/STM32MP1/optee-os/optee-os/ta/remoteproc/src/remoteproc_core.c:596
     878:	f107 0308 	add.w	r3, r7, #8
     87c:	9313      	str	r3, [sp, #76]	@ 0x4c
/home/dangcaominh/STM32MP1/optee-os/optee-os/ta/remoteproc/src/remoteproc_core.c:598
     87e:	2209      	movs	r2, #9
     880:	9b05      	ldr	r3, [sp, #20]
     882:	f04f 31ff 	mov.w	r1, #4294967295	@ 0xffffffff
/home/dangcaominh/STM32MP1/optee-os/optee-os/ta/remoteproc/src/remoteproc_core.c:595
     886:	f8cd 8050 	str.w	r8, [sp, #80]	@ 0x50
/home/dangcaominh/STM32MP1/optee-os/optee-os/ta/remoteproc/src/remoteproc_core.c:598
     88a:	9301      	str	r3, [sp, #4]
     88c:	9b03      	ldr	r3, [sp, #12]
     88e:	9300      	str	r3, [sp, #0]
     890:	f240 5311 	movw	r3, #1297	@ 0x511
     894:	f8da 0000 	ldr.w	r0, [sl]
     898:	f001 fe26 	bl	24e8 <TEE_InvokeTACommand>
/home/dangcaominh/STM32MP1/optee-os/optee-os/ta/remoteproc/src/remoteproc_core.c:602
     89c:	4604      	mov	r4, r0
     89e:	2800      	cmp	r0, #0
     8a0:	d0e3      	beq.n	86a <TA_InvokeCommandEntryPoint+0x4ba>
     8a2:	e64d      	b.n	540 <TA_InvokeCommandEntryPoint+0x190>
remoteproc_verify_firmware():
/home/dangcaominh/STM32MP1/optee-os/optee-os/ta/remoteproc/src/remoteproc_core.c:659
     8a4:	4c2a      	ldr	r4, [pc, #168]	@ (950 <TA_InvokeCommandEntryPoint+0x5a0>)
     8a6:	e650      	b.n	54a <TA_InvokeCommandEntryPoint+0x19a>
/home/dangcaominh/STM32MP1/optee-os/optee-os/ta/remoteproc/src/remoteproc_core.c:670
     8a8:	4c28      	ldr	r4, [pc, #160]	@ (94c <TA_InvokeCommandEntryPoint+0x59c>)
     8aa:	e64e      	b.n	54a <TA_InvokeCommandEntryPoint+0x19a>
remoteproc_load_elf():
/home/dangcaominh/STM32MP1/optee-os/optee-os/ta/remoteproc/src/remoteproc_core.c:1094
     8ac:	f8d5 8008 	ldr.w	r8, [r5, #8]
     8b0:	ae0a      	add	r6, sp, #40	@ 0x28
     8b2:	f8d5 a00c 	ldr.w	sl, [r5, #12]
     8b6:	af0b      	add	r7, sp, #44	@ 0x2c
     8b8:	9700      	str	r7, [sp, #0]
     8ba:	4633      	mov	r3, r6
     8bc:	2206      	movs	r2, #6
     8be:	4651      	mov	r1, sl
     8c0:	4640      	mov	r0, r8
     8c2:	f7ff fbab 	bl	1c <remoteproc_get_tlv>
/home/dangcaominh/STM32MP1/optee-os/optee-os/ta/remoteproc/src/remoteproc_core.c:1097
     8c6:	4604      	mov	r4, r0
     8c8:	b320      	cbz	r0, 914 <TA_InvokeCommandEntryPoint+0x564>
/home/dangcaominh/STM32MP1/optee-os/optee-os/ta/remoteproc/src/remoteproc_core.c:1097 (discriminator 1)
     8ca:	4b1f      	ldr	r3, [pc, #124]	@ (948 <TA_InvokeCommandEntryPoint+0x598>)
     8cc:	4298      	cmp	r0, r3
     8ce:	f47f ae49 	bne.w	564 <TA_InvokeCommandEntryPoint+0x1b4>
/home/dangcaominh/STM32MP1/optee-os/optee-os/ta/remoteproc/src/remoteproc_core.c:1101
     8d2:	2300      	movs	r3, #0
get_hash_table():
/home/dangcaominh/STM32MP1/optee-os/optee-os/ta/remoteproc/src/remoteproc_core.c:781
     8d4:	2210      	movs	r2, #16
remoteproc_load_elf():
/home/dangcaominh/STM32MP1/optee-os/optee-os/ta/remoteproc/src/remoteproc_core.c:1101
     8d6:	64ab      	str	r3, [r5, #72]	@ 0x48
get_hash_table():
/home/dangcaominh/STM32MP1/optee-os/optee-os/ta/remoteproc/src/remoteproc_core.c:781
     8d8:	4651      	mov	r1, sl
     8da:	f8cd 9000 	str.w	r9, [sp]
     8de:	465b      	mov	r3, fp
     8e0:	4640      	mov	r0, r8
     8e2:	f7ff fb9b 	bl	1c <remoteproc_get_tlv>
/home/dangcaominh/STM32MP1/optee-os/optee-os/ta/remoteproc/src/remoteproc_core.c:783
     8e6:	4604      	mov	r4, r0
     8e8:	2800      	cmp	r0, #0
     8ea:	f47f ae3b 	bne.w	564 <TA_InvokeCommandEntryPoint+0x1b4>
/home/dangcaominh/STM32MP1/optee-os/optee-os/ta/remoteproc/src/remoteproc_core.c:786
     8ee:	9c0e      	ldr	r4, [sp, #56]	@ 0x38
     8f0:	f014 013f 	ands.w	r1, r4, #63	@ 0x3f
     8f4:	d111      	bne.n	91a <TA_InvokeCommandEntryPoint+0x56a>
/home/dangcaominh/STM32MP1/optee-os/optee-os/ta/remoteproc/src/remoteproc_core.c:790
     8f6:	4620      	mov	r0, r4
     8f8:	f001 ff5d 	bl	27b6 <TEE_Malloc>
/home/dangcaominh/STM32MP1/optee-os/optee-os/ta/remoteproc/src/remoteproc_core.c:791
     8fc:	4680      	mov	r8, r0
     8fe:	2800      	cmp	r0, #0
     900:	d073      	beq.n	9ea <TA_InvokeCommandEntryPoint+0x63a>
/home/dangcaominh/STM32MP1/optee-os/optee-os/ta/remoteproc/src/remoteproc_core.c:794
     902:	990d      	ldr	r1, [sp, #52]	@ 0x34
     904:	4622      	mov	r2, r4
/home/dangcaominh/STM32MP1/optee-os/optee-os/ta/remoteproc/src/remoteproc_core.c:797
     906:	09a4      	lsrs	r4, r4, #6
/home/dangcaominh/STM32MP1/optee-os/optee-os/ta/remoteproc/src/remoteproc_core.c:794
     908:	f000 fb94 	bl	1034 <memcpy>
/home/dangcaominh/STM32MP1/optee-os/optee-os/ta/remoteproc/src/remoteproc_core.c:796
     90c:	f8c5 801c 	str.w	r8, [r5, #28]
/home/dangcaominh/STM32MP1/optee-os/optee-os/ta/remoteproc/src/remoteproc_core.c:797
     910:	622c      	str	r4, [r5, #32]
remoteproc_load_elf():
/home/dangcaominh/STM32MP1/optee-os/optee-os/ta/remoteproc/src/remoteproc_core.c:1117
     912:	e058      	b.n	9c6 <TA_InvokeCommandEntryPoint+0x616>
/home/dangcaominh/STM32MP1/optee-os/optee-os/ta/remoteproc/src/remoteproc_core.c:1103
     914:	9b0b      	ldr	r3, [sp, #44]	@ 0x2c
     916:	2b01      	cmp	r3, #1
     918:	d001      	beq.n	91e <TA_InvokeCommandEntryPoint+0x56e>
/home/dangcaominh/STM32MP1/optee-os/optee-os/ta/remoteproc/src/remoteproc_core.c:1118
     91a:	4c0e      	ldr	r4, [pc, #56]	@ (954 <TA_InvokeCommandEntryPoint+0x5a4>)
     91c:	e622      	b.n	564 <TA_InvokeCommandEntryPoint+0x1b4>
/home/dangcaominh/STM32MP1/optee-os/optee-os/ta/remoteproc/src/remoteproc_core.c:1105
     91e:	9a0a      	ldr	r2, [sp, #40]	@ 0x28
     920:	7812      	ldrb	r2, [r2, #0]
remoteproc_get_enc_algo():
/home/dangcaominh/STM32MP1/optee-os/optee-os/ta/remoteproc/src/remoteproc_core.c:376
     922:	2a01      	cmp	r2, #1
     924:	d02c      	beq.n	980 <TA_InvokeCommandEntryPoint+0x5d0>
remoteproc_load_elf():
/home/dangcaominh/STM32MP1/optee-os/optee-os/ta/remoteproc/src/remoteproc_core.c:1107
     926:	9201      	str	r2, [sp, #4]
     928:	f240 4153 	movw	r1, #1107	@ 0x453
     92c:	4a12      	ldr	r2, [pc, #72]	@ (978 <TA_InvokeCommandEntryPoint+0x5c8>)
     92e:	4813      	ldr	r0, [pc, #76]	@ (97c <TA_InvokeCommandEntryPoint+0x5cc>)
     930:	447a      	add	r2, pc
     932:	4478      	add	r0, pc
     934:	9200      	str	r2, [sp, #0]
     936:	30a2      	adds	r0, #162	@ 0xa2
remoteproc_load_fw():
/home/dangcaominh/STM32MP1/optee-os/optee-os/ta/remoteproc/src/remoteproc_core.c:1254
     938:	4c07      	ldr	r4, [pc, #28]	@ (958 <TA_InvokeCommandEntryPoint+0x5a8>)
remoteproc_load_elf():
/home/dangcaominh/STM32MP1/optee-os/optee-os/ta/remoteproc/src/remoteproc_core.c:1107
     93a:	461a      	mov	r2, r3
     93c:	f000 fcb6 	bl	12ac <trace_printf>
remoteproc_load_fw():
/home/dangcaominh/STM32MP1/optee-os/optee-os/ta/remoteproc/src/remoteproc_core.c:1255
     940:	e610      	b.n	564 <TA_InvokeCommandEntryPoint+0x1b4>
     942:	bf00      	nop
     944:	50000004 	.word	0x50000004
     948:	ffff000b 	.word	0xffff000b
     94c:	ffff000c 	.word	0xffff000c
     950:	ffff0009 	.word	0xffff0009
     954:	ffff0006 	.word	0xffff0006
     958:	ffff000a 	.word	0xffff000a
     95c:	0000d0ae 	.word	0x0000d0ae
     960:	0000ecb2 	.word	0x0000ecb2
     964:	0000d2f7 	.word	0x0000d2f7
     968:	0000d036 	.word	0x0000d036
     96c:	0000ebf4 	.word	0x0000ebf4
     970:	0000d28b 	.word	0x0000d28b
     974:	0000cf78 	.word	0x0000cf78
     978:	0000d1b1 	.word	0x0000d1b1
     97c:	0000ce7a 	.word	0x0000ce7a
remoteproc_load_elf():
/home/dangcaominh/STM32MP1/optee-os/optee-os/ta/remoteproc/src/remoteproc_core.c:1110
     980:	4ba4      	ldr	r3, [pc, #656]	@ (c14 <TA_InvokeCommandEntryPoint+0x864>)
get_enc_table():
/home/dangcaominh/STM32MP1/optee-os/optee-os/ta/remoteproc/src/remoteproc_core.c:810
     982:	2212      	movs	r2, #18
     984:	4651      	mov	r1, sl
     986:	4640      	mov	r0, r8
remoteproc_load_elf():
/home/dangcaominh/STM32MP1/optee-os/optee-os/ta/remoteproc/src/remoteproc_core.c:1110
     988:	64ab      	str	r3, [r5, #72]	@ 0x48
get_enc_table():
/home/dangcaominh/STM32MP1/optee-os/optee-os/ta/remoteproc/src/remoteproc_core.c:810
     98a:	465b      	mov	r3, fp
     98c:	f8cd 9000 	str.w	r9, [sp]
     990:	f7ff fb44 	bl	1c <remoteproc_get_tlv>
/home/dangcaominh/STM32MP1/optee-os/optee-os/ta/remoteproc/src/remoteproc_core.c:812
     994:	4604      	mov	r4, r0
     996:	2800      	cmp	r0, #0
     998:	f47f ade4 	bne.w	564 <TA_InvokeCommandEntryPoint+0x1b4>
/home/dangcaominh/STM32MP1/optee-os/optee-os/ta/remoteproc/src/remoteproc_core.c:815
     99c:	f8dd 9038 	ldr.w	r9, [sp, #56]	@ 0x38
     9a0:	2150      	movs	r1, #80	@ 0x50
     9a2:	fbb9 f8f1 	udiv	r8, r9, r1
     9a6:	fb01 9118 	mls	r1, r1, r8, r9
     9aa:	2900      	cmp	r1, #0
     9ac:	d1b5      	bne.n	91a <TA_InvokeCommandEntryPoint+0x56a>
/home/dangcaominh/STM32MP1/optee-os/optee-os/ta/remoteproc/src/remoteproc_core.c:819
     9ae:	4648      	mov	r0, r9
     9b0:	f001 ff01 	bl	27b6 <TEE_Malloc>
/home/dangcaominh/STM32MP1/optee-os/optee-os/ta/remoteproc/src/remoteproc_core.c:820
     9b4:	4604      	mov	r4, r0
     9b6:	b1c0      	cbz	r0, 9ea <TA_InvokeCommandEntryPoint+0x63a>
/home/dangcaominh/STM32MP1/optee-os/optee-os/ta/remoteproc/src/remoteproc_core.c:823
     9b8:	990d      	ldr	r1, [sp, #52]	@ 0x34
     9ba:	464a      	mov	r2, r9
     9bc:	f000 fb3a 	bl	1034 <memcpy>
/home/dangcaominh/STM32MP1/optee-os/optee-os/ta/remoteproc/src/remoteproc_core.c:825
     9c0:	61ac      	str	r4, [r5, #24]
/home/dangcaominh/STM32MP1/optee-os/optee-os/ta/remoteproc/src/remoteproc_core.c:826
     9c2:	f8c5 8020 	str.w	r8, [r5, #32]
remoteproc_load_elf():
/home/dangcaominh/STM32MP1/optee-os/optee-os/ta/remoteproc/src/remoteproc_core.c:1121
     9c6:	9700      	str	r7, [sp, #0]
     9c8:	4633      	mov	r3, r6
     9ca:	68e9      	ldr	r1, [r5, #12]
     9cc:	2203      	movs	r2, #3
     9ce:	68a8      	ldr	r0, [r5, #8]
     9d0:	f7ff fb24 	bl	1c <remoteproc_get_tlv>
/home/dangcaominh/STM32MP1/optee-os/optee-os/ta/remoteproc/src/remoteproc_core.c:1123
     9d4:	4606      	mov	r6, r0
     9d6:	b918      	cbnz	r0, 9e0 <TA_InvokeCommandEntryPoint+0x630>
/home/dangcaominh/STM32MP1/optee-os/optee-os/ta/remoteproc/src/remoteproc_core.c:1126
     9d8:	9b0b      	ldr	r3, [sp, #44]	@ 0x2c
     9da:	2b01      	cmp	r3, #1
     9dc:	d007      	beq.n	9ee <TA_InvokeCommandEntryPoint+0x63e>
/home/dangcaominh/STM32MP1/optee-os/optee-os/ta/remoteproc/src/remoteproc_core.c:1184
     9de:	4e8e      	ldr	r6, [pc, #568]	@ (c18 <TA_InvokeCommandEntryPoint+0x868>)
/home/dangcaominh/STM32MP1/optee-os/optee-os/ta/remoteproc/src/remoteproc_core.c:1202
     9e0:	6828      	ldr	r0, [r5, #0]
     9e2:	4634      	mov	r4, r6
     9e4:	f7ff fc64 	bl	2b0 <remoteproc_clean_resources.isra.0>
     9e8:	e0c2      	b.n	b70 <TA_InvokeCommandEntryPoint+0x7c0>
/home/dangcaominh/STM32MP1/optee-os/optee-os/ta/remoteproc/src/remoteproc_core.c:1118
     9ea:	4c8c      	ldr	r4, [pc, #560]	@ (c1c <TA_InvokeCommandEntryPoint+0x86c>)
     9ec:	e5ba      	b.n	564 <TA_InvokeCommandEntryPoint+0x1b4>
/home/dangcaominh/STM32MP1/optee-os/optee-os/ta/remoteproc/src/remoteproc_core.c:1131
     9ee:	9b0a      	ldr	r3, [sp, #40]	@ 0x28
     9f0:	f893 8000 	ldrb.w	r8, [r3]
/home/dangcaominh/STM32MP1/optee-os/optee-os/ta/remoteproc/src/remoteproc_core.c:1132
     9f4:	f1b8 0f00 	cmp.w	r8, #0
     9f8:	f000 80c9 	beq.w	b8e <TA_InvokeCommandEntryPoint+0x7de>
get_tlv_images_size():
/home/dangcaominh/STM32MP1/optee-os/optee-os/ta/remoteproc/src/remoteproc_core.c:868
     9fc:	ea4f 0388 	mov.w	r3, r8, lsl #2
remoteproc_load_elf():
/home/dangcaominh/STM32MP1/optee-os/optee-os/ta/remoteproc/src/remoteproc_core.c:1082
     a00:	4607      	mov	r7, r0
get_tlv_images_size():
/home/dangcaominh/STM32MP1/optee-os/optee-os/ta/remoteproc/src/remoteproc_core.c:868
     a02:	9302      	str	r3, [sp, #8]
remoteproc_load_elf():
/home/dangcaominh/STM32MP1/optee-os/optee-os/ta/remoteproc/src/remoteproc_core.c:1164
     a04:	4b8a      	ldr	r3, [pc, #552]	@ (c30 <TA_InvokeCommandEntryPoint+0x880>)
/home/dangcaominh/STM32MP1/optee-os/optee-os/ta/remoteproc/src/remoteproc_core.c:1141
     a06:	6268      	str	r0, [r5, #36]	@ 0x24
/home/dangcaominh/STM32MP1/optee-os/optee-os/ta/remoteproc/src/remoteproc_core.c:1164
     a08:	447b      	add	r3, pc
     a0a:	9304      	str	r3, [sp, #16]
remoteproc_da_to_pa():
/home/dangcaominh/STM32MP1/optee-os/optee-os/ta/remoteproc/src/remoteproc_core.c:731
     a0c:	4b89      	ldr	r3, [pc, #548]	@ (c34 <TA_InvokeCommandEntryPoint+0x884>)
remoteproc_load_elf():
/home/dangcaominh/STM32MP1/optee-os/optee-os/ta/remoteproc/src/remoteproc_core.c:1142
     a0e:	62a8      	str	r0, [r5, #40]	@ 0x28
remoteproc_da_to_pa():
/home/dangcaominh/STM32MP1/optee-os/optee-os/ta/remoteproc/src/remoteproc_core.c:731
     a10:	447b      	add	r3, pc
     a12:	9305      	str	r3, [sp, #20]
get_tlv_images_type():
/home/dangcaominh/STM32MP1/optee-os/optee-os/ta/remoteproc/src/remoteproc_core.c:840
     a14:	68ac      	ldr	r4, [r5, #8]
     a16:	f10d 0a38 	add.w	sl, sp, #56	@ 0x38
     a1a:	f8d5 900c 	ldr.w	r9, [r5, #12]
     a1e:	ab0d      	add	r3, sp, #52	@ 0x34
     a20:	f8cd a000 	str.w	sl, [sp]
     a24:	2204      	movs	r2, #4
     a26:	4649      	mov	r1, r9
     a28:	4620      	mov	r0, r4
     a2a:	f7ff faf7 	bl	1c <remoteproc_get_tlv>
/home/dangcaominh/STM32MP1/optee-os/optee-os/ta/remoteproc/src/remoteproc_core.c:842
     a2e:	2800      	cmp	r0, #0
     a30:	f040 8144 	bne.w	cbc <TA_InvokeCommandEntryPoint+0x90c>
/home/dangcaominh/STM32MP1/optee-os/optee-os/ta/remoteproc/src/remoteproc_core.c:845
     a34:	9b0e      	ldr	r3, [sp, #56]	@ 0x38
     a36:	4598      	cmp	r8, r3
     a38:	d12f      	bne.n	a9a <TA_InvokeCommandEntryPoint+0x6ea>
/home/dangcaominh/STM32MP1/optee-os/optee-os/ta/remoteproc/src/remoteproc_core.c:848
     a3a:	9b0d      	ldr	r3, [sp, #52]	@ 0x34
     a3c:	5d9a      	ldrb	r2, [r3, r6]
remoteproc_load_elf():
/home/dangcaominh/STM32MP1/optee-os/optee-os/ta/remoteproc/src/remoteproc_core.c:1148
     a3e:	1e53      	subs	r3, r2, #1
     a40:	2b01      	cmp	r3, #1
     a42:	d8cc      	bhi.n	9de <TA_InvokeCommandEntryPoint+0x62e>
/home/dangcaominh/STM32MP1/optee-os/optee-os/ta/remoteproc/src/remoteproc_core.c:1154 (discriminator 1)
     a44:	6cab      	ldr	r3, [r5, #72]	@ 0x48
/home/dangcaominh/STM32MP1/optee-os/optee-os/ta/remoteproc/src/remoteproc_core.c:1154
     a46:	2a01      	cmp	r2, #1
     a48:	d124      	bne.n	a94 <TA_InvokeCommandEntryPoint+0x6e4>
/home/dangcaominh/STM32MP1/optee-os/optee-os/ta/remoteproc/src/remoteproc_core.c:1154 (discriminator 1)
     a4a:	2b00      	cmp	r3, #0
     a4c:	d1c7      	bne.n	9de <TA_InvokeCommandEntryPoint+0x62e>
get_tlv_images_size():
/home/dangcaominh/STM32MP1/optee-os/optee-os/ta/remoteproc/src/remoteproc_core.c:863
     a4e:	f8cd a000 	str.w	sl, [sp]
     a52:	ab0c      	add	r3, sp, #48	@ 0x30
     a54:	2205      	movs	r2, #5
     a56:	4649      	mov	r1, r9
     a58:	4620      	mov	r0, r4
     a5a:	f7ff fadf 	bl	1c <remoteproc_get_tlv>
/home/dangcaominh/STM32MP1/optee-os/optee-os/ta/remoteproc/src/remoteproc_core.c:865
     a5e:	2800      	cmp	r0, #0
     a60:	f040 812c 	bne.w	cbc <TA_InvokeCommandEntryPoint+0x90c>
/home/dangcaominh/STM32MP1/optee-os/optee-os/ta/remoteproc/src/remoteproc_core.c:868
     a64:	9b0e      	ldr	r3, [sp, #56]	@ 0x38
     a66:	9a02      	ldr	r2, [sp, #8]
     a68:	429a      	cmp	r2, r3
     a6a:	d116      	bne.n	a9a <TA_InvokeCommandEntryPoint+0x6ea>
/home/dangcaominh/STM32MP1/optee-os/optee-os/ta/remoteproc/src/remoteproc_core.c:871
     a6c:	990c      	ldr	r1, [sp, #48]	@ 0x30
     a6e:	2204      	movs	r2, #4
     a70:	4658      	mov	r0, fp
     a72:	eb01 0186 	add.w	r1, r1, r6, lsl #2
     a76:	f000 fadd 	bl	1034 <memcpy>
/home/dangcaominh/STM32MP1/optee-os/optee-os/ta/remoteproc/src/remoteproc_core.c:872
     a7a:	f8dd 9034 	ldr.w	r9, [sp, #52]	@ 0x34
remoteproc_load_elf():
/home/dangcaominh/STM32MP1/optee-os/optee-os/ta/remoteproc/src/remoteproc_core.c:1164
     a7e:	462b      	mov	r3, r5
     a80:	6928      	ldr	r0, [r5, #16]
     a82:	9a04      	ldr	r2, [sp, #16]
     a84:	4649      	mov	r1, r9
     a86:	4438      	add	r0, r7
     a88:	f000 f980 	bl	d8c <e32_parser_load_elf_image>
/home/dangcaominh/STM32MP1/optee-os/optee-os/ta/remoteproc/src/remoteproc_core.c:1166
     a8c:	4604      	mov	r4, r0
     a8e:	b130      	cbz	r0, a9e <TA_InvokeCommandEntryPoint+0x6ee>
/home/dangcaominh/STM32MP1/optee-os/optee-os/ta/remoteproc/src/remoteproc_core.c:1164
     a90:	4601      	mov	r1, r0
     a92:	e119      	b.n	cc8 <TA_InvokeCommandEntryPoint+0x918>
/home/dangcaominh/STM32MP1/optee-os/optee-os/ta/remoteproc/src/remoteproc_core.c:1155
     a94:	2b00      	cmp	r3, #0
     a96:	d1da      	bne.n	a4e <TA_InvokeCommandEntryPoint+0x69e>
     a98:	e7a1      	b.n	9de <TA_InvokeCommandEntryPoint+0x62e>
/home/dangcaominh/STM32MP1/optee-os/optee-os/ta/remoteproc/src/remoteproc_core.c:1160
     a9a:	4e61      	ldr	r6, [pc, #388]	@ (c20 <TA_InvokeCommandEntryPoint+0x870>)
     a9c:	e7a0      	b.n	9e0 <TA_InvokeCommandEntryPoint+0x630>
/home/dangcaominh/STM32MP1/optee-os/optee-os/ta/remoteproc/src/remoteproc_core.c:1171
     a9e:	6928      	ldr	r0, [r5, #16]
remoteproc_parse_rsc_table():
/home/dangcaominh/STM32MP1/optee-os/optee-os/ta/remoteproc/src/remoteproc_core.c:756
     aa0:	4649      	mov	r1, r9
/home/dangcaominh/STM32MP1/optee-os/optee-os/ta/remoteproc/src/remoteproc_core.c:752
     aa2:	940d      	str	r4, [sp, #52]	@ 0x34
/home/dangcaominh/STM32MP1/optee-os/optee-os/ta/remoteproc/src/remoteproc_core.c:756
     aa4:	465a      	mov	r2, fp
/home/dangcaominh/STM32MP1/optee-os/optee-os/ta/remoteproc/src/remoteproc_core.c:754
     aa6:	940e      	str	r4, [sp, #56]	@ 0x38
/home/dangcaominh/STM32MP1/optee-os/optee-os/ta/remoteproc/src/remoteproc_core.c:756
     aa8:	6cab      	ldr	r3, [r5, #72]	@ 0x48
     aaa:	4438      	add	r0, r7
     aac:	fab3 f383 	clz	r3, r3
     ab0:	095b      	lsrs	r3, r3, #5
     ab2:	9300      	str	r3, [sp, #0]
     ab4:	4653      	mov	r3, sl
     ab6:	f000 f9af 	bl	e18 <e32_parser_find_rsc_table>
/home/dangcaominh/STM32MP1/optee-os/optee-os/ta/remoteproc/src/remoteproc_core.c:758
     aba:	4601      	mov	r1, r0
     abc:	2800      	cmp	r0, #0
     abe:	f040 80ff 	bne.w	cc0 <TA_InvokeCommandEntryPoint+0x910>
/home/dangcaominh/STM32MP1/optee-os/optee-os/ta/remoteproc/src/remoteproc_core.c:764
     ac2:	9b0e      	ldr	r3, [sp, #56]	@ 0x38
remoteproc_da_to_pa():
/home/dangcaominh/STM32MP1/optee-os/optee-os/ta/remoteproc/src/remoteproc_core.c:717
     ac4:	221c      	movs	r2, #28
     ac6:	9006      	str	r0, [sp, #24]
     ac8:	a810      	add	r0, sp, #64	@ 0x40
remoteproc_parse_rsc_table():
/home/dangcaominh/STM32MP1/optee-os/optee-os/ta/remoteproc/src/remoteproc_core.c:764
     aca:	9303      	str	r3, [sp, #12]
     acc:	682b      	ldr	r3, [r5, #0]
     ace:	f8dd a034 	ldr.w	sl, [sp, #52]	@ 0x34
     ad2:	9307      	str	r3, [sp, #28]
remoteproc_da_to_pa():
/home/dangcaominh/STM32MP1/optee-os/optee-os/ta/remoteproc/src/remoteproc_core.c:717
     ad4:	f00c fdd6 	bl	d684 <memset>
/home/dangcaominh/STM32MP1/optee-os/optee-os/ta/remoteproc/src/remoteproc_core.c:727
     ad8:	9b07      	ldr	r3, [sp, #28]
/home/dangcaominh/STM32MP1/optee-os/optee-os/ta/remoteproc/src/remoteproc_core.c:731
     ada:	2207      	movs	r2, #7
     adc:	9906      	ldr	r1, [sp, #24]
/home/dangcaominh/STM32MP1/optee-os/optee-os/ta/remoteproc/src/remoteproc_core.c:727
     ade:	930f      	str	r3, [sp, #60]	@ 0x3c
/home/dangcaominh/STM32MP1/optee-os/optee-os/ta/remoteproc/src/remoteproc_core.c:729
     ae0:	9b03      	ldr	r3, [sp, #12]
/home/dangcaominh/STM32MP1/optee-os/optee-os/ta/remoteproc/src/remoteproc_core.c:731
     ae2:	9805      	ldr	r0, [sp, #20]
/home/dangcaominh/STM32MP1/optee-os/optee-os/ta/remoteproc/src/remoteproc_core.c:729
     ae4:	9313      	str	r3, [sp, #76]	@ 0x4c
/home/dangcaominh/STM32MP1/optee-os/optee-os/ta/remoteproc/src/remoteproc_core.c:731
     ae6:	ab0f      	add	r3, sp, #60	@ 0x3c
     ae8:	9101      	str	r1, [sp, #4]
     aea:	f04f 31ff 	mov.w	r1, #4294967295	@ 0xffffffff
     aee:	9300      	str	r3, [sp, #0]
     af0:	f242 1311 	movw	r3, #8465	@ 0x2111
     af4:	6800      	ldr	r0, [r0, #0]
/home/dangcaominh/STM32MP1/optee-os/optee-os/ta/remoteproc/src/remoteproc_core.c:728
     af6:	f8cd a044 	str.w	sl, [sp, #68]	@ 0x44
/home/dangcaominh/STM32MP1/optee-os/optee-os/ta/remoteproc/src/remoteproc_core.c:731
     afa:	f001 fcf5 	bl	24e8 <TEE_InvokeTACommand>
/home/dangcaominh/STM32MP1/optee-os/optee-os/ta/remoteproc/src/remoteproc_core.c:734
     afe:	b178      	cbz	r0, b20 <TA_InvokeCommandEntryPoint+0x770>
/home/dangcaominh/STM32MP1/optee-os/optee-os/ta/remoteproc/src/remoteproc_core.c:735
     b00:	4b4d      	ldr	r3, [pc, #308]	@ (c38 <TA_InvokeCommandEntryPoint+0x888>)
     b02:	f240 21df 	movw	r1, #735	@ 0x2df
     b06:	484d      	ldr	r0, [pc, #308]	@ (c3c <TA_InvokeCommandEntryPoint+0x88c>)
     b08:	447b      	add	r3, pc
     b0a:	9300      	str	r3, [sp, #0]
     b0c:	2301      	movs	r3, #1
     b0e:	4478      	add	r0, pc
     b10:	461a      	mov	r2, r3
     b12:	f8cd a004 	str.w	sl, [sp, #4]
     b16:	30b6      	adds	r0, #182	@ 0xb6
remoteproc_parse_rsc_table():
/home/dangcaominh/STM32MP1/optee-os/optee-os/ta/remoteproc/src/remoteproc_core.c:766
     b18:	4e42      	ldr	r6, [pc, #264]	@ (c24 <TA_InvokeCommandEntryPoint+0x874>)
remoteproc_da_to_pa():
/home/dangcaominh/STM32MP1/optee-os/optee-os/ta/remoteproc/src/remoteproc_core.c:735
     b1a:	f000 fbc7 	bl	12ac <trace_printf>
remoteproc_load_elf():
/home/dangcaominh/STM32MP1/optee-os/optee-os/ta/remoteproc/src/remoteproc_core.c:1201
     b1e:	e75f      	b.n	9e0 <TA_InvokeCommandEntryPoint+0x630>
reg_pair_to_64():
/home/dangcaominh/STM32MP1/optee-os/optee-os/../build/optee-programmer-stm32mp157d-dk1/export-ta_arm32/include/util.h:170
     b20:	9b15      	ldr	r3, [sp, #84]	@ 0x54
remoteproc_da_to_pa():
/home/dangcaominh/STM32MP1/optee-os/optee-os/ta/remoteproc/src/remoteproc_core.c:742
     b22:	b963      	cbnz	r3, b3e <TA_InvokeCommandEntryPoint+0x78e>
_assert_trap():
/home/dangcaominh/STM32MP1/optee-os/optee-os/../build/optee-programmer-stm32mp157d-dk1/export-ta_arm32/include/assert.h:19
     b24:	4b46      	ldr	r3, [pc, #280]	@ (c40 <TA_InvokeCommandEntryPoint+0x890>)
     b26:	f240 22e6 	movw	r2, #742	@ 0x2e6
     b2a:	4946      	ldr	r1, [pc, #280]	@ (c44 <TA_InvokeCommandEntryPoint+0x894>)
     b2c:	4846      	ldr	r0, [pc, #280]	@ (c48 <TA_InvokeCommandEntryPoint+0x898>)
     b2e:	447b      	add	r3, pc
     b30:	4479      	add	r1, pc
     b32:	33b6      	adds	r3, #182	@ 0xb6
     b34:	4478      	add	r0, pc
     b36:	f001 f903 	bl	1d40 <_assert_log>
/home/dangcaominh/STM32MP1/optee-os/optee-os/../build/optee-programmer-stm32mp157d-dk1/export-ta_arm32/include/assert.h:20
     b3a:	f001 f915 	bl	1d68 <_assert_break>
remoteproc_load_elf():
/home/dangcaominh/STM32MP1/optee-os/optee-os/ta/remoteproc/src/remoteproc_core.c:1182
     b3e:	6a69      	ldr	r1, [r5, #36]	@ 0x24
remoteproc_parse_rsc_table():
/home/dangcaominh/STM32MP1/optee-os/optee-os/ta/remoteproc/src/remoteproc_core.c:768
     b40:	9a0e      	ldr	r2, [sp, #56]	@ 0x38
remoteproc_load_elf():
/home/dangcaominh/STM32MP1/optee-os/optee-os/ta/remoteproc/src/remoteproc_core.c:1182
     b42:	b909      	cbnz	r1, b48 <TA_InvokeCommandEntryPoint+0x798>
/home/dangcaominh/STM32MP1/optee-os/optee-os/ta/remoteproc/src/remoteproc_core.c:1182 (discriminator 1)
     b44:	6aa9      	ldr	r1, [r5, #40]	@ 0x28
     b46:	b161      	cbz	r1, b62 <TA_InvokeCommandEntryPoint+0x7b2>
/home/dangcaominh/STM32MP1/optee-os/optee-os/ta/remoteproc/src/remoteproc_core.c:1183
     b48:	4b40      	ldr	r3, [pc, #256]	@ (c4c <TA_InvokeCommandEntryPoint+0x89c>)
     b4a:	f240 419f 	movw	r1, #1183	@ 0x49f
     b4e:	4840      	ldr	r0, [pc, #256]	@ (c50 <TA_InvokeCommandEntryPoint+0x8a0>)
     b50:	447b      	add	r3, pc
     b52:	9300      	str	r3, [sp, #0]
     b54:	2301      	movs	r3, #1
     b56:	4478      	add	r0, pc
     b58:	461a      	mov	r2, r3
     b5a:	30a2      	adds	r0, #162	@ 0xa2
     b5c:	f000 fba6 	bl	12ac <trace_printf>
/home/dangcaominh/STM32MP1/optee-os/optee-os/ta/remoteproc/src/remoteproc_core.c:1201
     b60:	e73d      	b.n	9de <TA_InvokeCommandEntryPoint+0x62e>
/home/dangcaominh/STM32MP1/optee-os/optee-os/ta/remoteproc/src/remoteproc_core.c:1187
     b62:	626b      	str	r3, [r5, #36]	@ 0x24
/home/dangcaominh/STM32MP1/optee-os/optee-os/ta/remoteproc/src/remoteproc_core.c:1188
     b64:	62aa      	str	r2, [r5, #40]	@ 0x28
/home/dangcaominh/STM32MP1/optee-os/optee-os/ta/remoteproc/src/remoteproc_core.c:1196
     b66:	444f      	add	r7, r9
/home/dangcaominh/STM32MP1/optee-os/optee-os/ta/remoteproc/src/remoteproc_core.c:1144 (discriminator 2)
     b68:	3601      	adds	r6, #1
/home/dangcaominh/STM32MP1/optee-os/optee-os/ta/remoteproc/src/remoteproc_core.c:1144 (discriminator 1)
     b6a:	45b0      	cmp	r8, r6
     b6c:	f63f af52 	bhi.w	a14 <TA_InvokeCommandEntryPoint+0x664>
/home/dangcaominh/STM32MP1/optee-os/optee-os/ta/remoteproc/src/remoteproc_core.c:1203
     b70:	69e8      	ldr	r0, [r5, #28]
/home/dangcaominh/STM32MP1/optee-os/optee-os/ta/remoteproc/src/remoteproc_core.c:1204
     b72:	2600      	movs	r6, #0
/home/dangcaominh/STM32MP1/optee-os/optee-os/ta/remoteproc/src/remoteproc_core.c:1203
     b74:	f001 fe7a 	bl	286c <TEE_Free>
/home/dangcaominh/STM32MP1/optee-os/optee-os/ta/remoteproc/src/remoteproc_core.c:1205
     b78:	69a8      	ldr	r0, [r5, #24]
/home/dangcaominh/STM32MP1/optee-os/optee-os/ta/remoteproc/src/remoteproc_core.c:1204
     b7a:	61ee      	str	r6, [r5, #28]
/home/dangcaominh/STM32MP1/optee-os/optee-os/ta/remoteproc/src/remoteproc_core.c:1205
     b7c:	f001 fe76 	bl	286c <TEE_Free>
/home/dangcaominh/STM32MP1/optee-os/optee-os/ta/remoteproc/src/remoteproc_core.c:1206
     b80:	61ae      	str	r6, [r5, #24]
remoteproc_load_fw():
/home/dangcaominh/STM32MP1/optee-os/optee-os/ta/remoteproc/src/remoteproc_core.c:1255
     b82:	2c00      	cmp	r4, #0
     b84:	f47f acee 	bne.w	564 <TA_InvokeCommandEntryPoint+0x1b4>
/home/dangcaominh/STM32MP1/optee-os/optee-os/ta/remoteproc/src/remoteproc_core.c:1258
     b88:	2301      	movs	r3, #1
     b8a:	62eb      	str	r3, [r5, #44]	@ 0x2c
     b8c:	e4ea      	b.n	564 <TA_InvokeCommandEntryPoint+0x1b4>
remoteproc_load_elf():
/home/dangcaominh/STM32MP1/optee-os/optee-os/ta/remoteproc/src/remoteproc_core.c:1133
     b8e:	4e26      	ldr	r6, [pc, #152]	@ (c28 <TA_InvokeCommandEntryPoint+0x878>)
     b90:	e726      	b.n	9e0 <TA_InvokeCommandEntryPoint+0x630>
remoteproc_start_fw():
/home/dangcaominh/STM32MP1/optee-os/optee-os/ta/remoteproc/src/remoteproc_core.c:1288
     b92:	6830      	ldr	r0, [r6, #0]
/home/dangcaominh/STM32MP1/optee-os/optee-os/ta/remoteproc/src/remoteproc_core.c:1291
     b94:	2c01      	cmp	r4, #1
     b96:	f47f ac22 	bne.w	3de <TA_InvokeCommandEntryPoint+0x2e>
/home/dangcaominh/STM32MP1/optee-os/optee-os/ta/remoteproc/src/remoteproc_core.c:1294
     b9a:	f7ff fa31 	bl	0 <remoteproc_find_firmware>
/home/dangcaominh/STM32MP1/optee-os/optee-os/ta/remoteproc/src/remoteproc_core.c:1295
     b9e:	4605      	mov	r5, r0
     ba0:	2800      	cmp	r0, #0
     ba2:	f43f ac1c 	beq.w	3de <TA_InvokeCommandEntryPoint+0x2e>
/home/dangcaominh/STM32MP1/optee-os/optee-os/ta/remoteproc/src/remoteproc_core.c:1298
     ba6:	6ac3      	ldr	r3, [r0, #44]	@ 0x2c
     ba8:	2b01      	cmp	r3, #1
     baa:	d003      	beq.n	bb4 <TA_InvokeCommandEntryPoint+0x804>
     bac:	2b02      	cmp	r3, #2
     bae:	d127      	bne.n	c00 <TA_InvokeCommandEntryPoint+0x850>
/home/dangcaominh/STM32MP1/optee-os/optee-os/ta/remoteproc/src/remoteproc_core.c:1303
     bb0:	2400      	movs	r4, #0
     bb2:	e415      	b.n	3e0 <TA_InvokeCommandEntryPoint+0x30>
/home/dangcaominh/STM32MP1/optee-os/optee-os/ta/remoteproc/src/remoteproc_core.c:1306
     bb4:	4827      	ldr	r0, [pc, #156]	@ (c54 <TA_InvokeCommandEntryPoint+0x8a4>)
     bb6:	2300      	movs	r3, #0
     bb8:	9301      	str	r3, [sp, #4]
     bba:	2205      	movs	r2, #5
     bbc:	4478      	add	r0, pc
     bbe:	4623      	mov	r3, r4
     bc0:	9600      	str	r6, [sp, #0]
     bc2:	f04f 31ff 	mov.w	r1, #4294967295	@ 0xffffffff
     bc6:	6800      	ldr	r0, [r0, #0]
     bc8:	f001 fc8e 	bl	24e8 <TEE_InvokeTACommand>
/home/dangcaominh/STM32MP1/optee-os/optee-os/ta/remoteproc/src/remoteproc_core.c:1309
     bcc:	4604      	mov	r4, r0
     bce:	b910      	cbnz	r0, bd6 <TA_InvokeCommandEntryPoint+0x826>
/home/dangcaominh/STM32MP1/optee-os/optee-os/ta/remoteproc/src/remoteproc_core.c:1310
     bd0:	2302      	movs	r3, #2
     bd2:	62eb      	str	r3, [r5, #44]	@ 0x2c
     bd4:	e7ec      	b.n	bb0 <TA_InvokeCommandEntryPoint+0x800>
/home/dangcaominh/STM32MP1/optee-os/optee-os/ta/remoteproc/src/remoteproc_core.c:1312
     bd6:	6828      	ldr	r0, [r5, #0]
     bd8:	f7ff fb6a 	bl	2b0 <remoteproc_clean_resources.isra.0>
     bdc:	e400      	b.n	3e0 <TA_InvokeCommandEntryPoint+0x30>
remoteproc_stop_fw():
/home/dangcaominh/STM32MP1/optee-os/optee-os/ta/remoteproc/src/remoteproc_core.c:1329
     bde:	6830      	ldr	r0, [r6, #0]
/home/dangcaominh/STM32MP1/optee-os/optee-os/ta/remoteproc/src/remoteproc_core.c:1332
     be0:	2c01      	cmp	r4, #1
     be2:	f47f abfc 	bne.w	3de <TA_InvokeCommandEntryPoint+0x2e>
/home/dangcaominh/STM32MP1/optee-os/optee-os/ta/remoteproc/src/remoteproc_core.c:1335
     be6:	f7ff fa0b 	bl	0 <remoteproc_find_firmware>
/home/dangcaominh/STM32MP1/optee-os/optee-os/ta/remoteproc/src/remoteproc_core.c:1336
     bea:	4605      	mov	r5, r0
     bec:	2800      	cmp	r0, #0
     bee:	f43f abf6 	beq.w	3de <TA_InvokeCommandEntryPoint+0x2e>
/home/dangcaominh/STM32MP1/optee-os/optee-os/ta/remoteproc/src/remoteproc_core.c:1339
     bf2:	6ac3      	ldr	r3, [r0, #44]	@ 0x2c
     bf4:	2b01      	cmp	r3, #1
     bf6:	d006      	beq.n	c06 <TA_InvokeCommandEntryPoint+0x856>
     bf8:	2b02      	cmp	r3, #2
     bfa:	d02d      	beq.n	c58 <TA_InvokeCommandEntryPoint+0x8a8>
     bfc:	2b00      	cmp	r3, #0
     bfe:	d0d7      	beq.n	bb0 <TA_InvokeCommandEntryPoint+0x800>
remoteproc_start_fw():
/home/dangcaominh/STM32MP1/optee-os/optee-os/ta/remoteproc/src/remoteproc_core.c:1300
     c00:	4c0a      	ldr	r4, [pc, #40]	@ (c2c <TA_InvokeCommandEntryPoint+0x87c>)
     c02:	f7ff bbed 	b.w	3e0 <TA_InvokeCommandEntryPoint+0x30>
remoteproc_stop_fw():
/home/dangcaominh/STM32MP1/optee-os/optee-os/ta/remoteproc/src/remoteproc_core.c:1341
     c06:	6800      	ldr	r0, [r0, #0]
     c08:	f7ff fb52 	bl	2b0 <remoteproc_clean_resources.isra.0>
/home/dangcaominh/STM32MP1/optee-os/optee-os/ta/remoteproc/src/remoteproc_core.c:1342
     c0c:	2300      	movs	r3, #0
     c0e:	62eb      	str	r3, [r5, #44]	@ 0x2c
/home/dangcaominh/STM32MP1/optee-os/optee-os/ta/remoteproc/src/remoteproc_core.c:1344
     c10:	e7f6      	b.n	c00 <TA_InvokeCommandEntryPoint+0x850>
     c12:	bf00      	nop
     c14:	10000110 	.word	0x10000110
     c18:	ffff0005 	.word	0xffff0005
     c1c:	ffff000c 	.word	0xffff000c
     c20:	ffff0006 	.word	0xffff0006
     c24:	ffff0001 	.word	0xffff0001
     c28:	ffff000b 	.word	0xffff000b
     c2c:	ffff0007 	.word	0xffff0007
     c30:	fffff6a5 	.word	0xfffff6a5
     c34:	0000e9cc 	.word	0x0000e9cc
     c38:	0000cff8 	.word	0x0000cff8
     c3c:	0000cc9e 	.word	0x0000cc9e
     c40:	0000cc7e 	.word	0x0000cc7e
     c44:	0000ced1 	.word	0x0000ced1
     c48:	0000cff3 	.word	0x0000cff3
     c4c:	0000cfda 	.word	0x0000cfda
     c50:	0000cc56 	.word	0x0000cc56
     c54:	0000e820 	.word	0x0000e820
/home/dangcaominh/STM32MP1/optee-os/optee-os/ta/remoteproc/src/remoteproc_core.c:1349
     c58:	4821      	ldr	r0, [pc, #132]	@ (ce0 <TA_InvokeCommandEntryPoint+0x930>)
     c5a:	2300      	movs	r3, #0
     c5c:	9301      	str	r3, [sp, #4]
     c5e:	2206      	movs	r2, #6
     c60:	4478      	add	r0, pc
     c62:	4623      	mov	r3, r4
     c64:	9600      	str	r6, [sp, #0]
     c66:	f04f 31ff 	mov.w	r1, #4294967295	@ 0xffffffff
     c6a:	6800      	ldr	r0, [r0, #0]
     c6c:	f001 fc3c 	bl	24e8 <TEE_InvokeTACommand>
/home/dangcaominh/STM32MP1/optee-os/optee-os/ta/remoteproc/src/remoteproc_core.c:1352
     c70:	4604      	mov	r4, r0
     c72:	2800      	cmp	r0, #0
     c74:	f47f abb4 	bne.w	3e0 <TA_InvokeCommandEntryPoint+0x30>
/home/dangcaominh/STM32MP1/optee-os/optee-os/ta/remoteproc/src/remoteproc_core.c:1353
     c78:	6828      	ldr	r0, [r5, #0]
     c7a:	f7ff fb19 	bl	2b0 <remoteproc_clean_resources.isra.0>
/home/dangcaominh/STM32MP1/optee-os/optee-os/ta/remoteproc/src/remoteproc_core.c:1354
     c7e:	62ec      	str	r4, [r5, #44]	@ 0x2c
     c80:	f7ff bbae 	b.w	3e0 <TA_InvokeCommandEntryPoint+0x30>
remoteproc_get_rsc_table():
/home/dangcaominh/STM32MP1/optee-os/optee-os/ta/remoteproc/src/remoteproc_core.c:1373
     c84:	f240 2321 	movw	r3, #545	@ 0x221
     c88:	429c      	cmp	r4, r3
     c8a:	f47f aba8 	bne.w	3de <TA_InvokeCommandEntryPoint+0x2e>
/home/dangcaominh/STM32MP1/optee-os/optee-os/ta/remoteproc/src/remoteproc_core.c:1376
     c8e:	6830      	ldr	r0, [r6, #0]
     c90:	f7ff f9b6 	bl	0 <remoteproc_find_firmware>
/home/dangcaominh/STM32MP1/optee-os/optee-os/ta/remoteproc/src/remoteproc_core.c:1377
     c94:	2800      	cmp	r0, #0
     c96:	f43f aba2 	beq.w	3de <TA_InvokeCommandEntryPoint+0x2e>
/home/dangcaominh/STM32MP1/optee-os/optee-os/ta/remoteproc/src/remoteproc_core.c:1380
     c9a:	6ac3      	ldr	r3, [r0, #44]	@ 0x2c
     c9c:	2b00      	cmp	r3, #0
     c9e:	d0af      	beq.n	c00 <TA_InvokeCommandEntryPoint+0x850>
/home/dangcaominh/STM32MP1/optee-os/optee-os/ta/remoteproc/src/remoteproc_core.c:1383
     ca0:	6a42      	ldr	r2, [r0, #36]	@ 0x24
reg_pair_from_64():
/home/dangcaominh/STM32MP1/optee-os/optee-os/../build/optee-programmer-stm32mp157d-dk1/export-ta_arm32/include/util.h:186 (discriminator 1)
     ca2:	2300      	movs	r3, #0
     ca4:	60f3      	str	r3, [r6, #12]
/home/dangcaominh/STM32MP1/optee-os/optee-os/../build/optee-programmer-stm32mp157d-dk1/export-ta_arm32/include/util.h:187 (discriminator 1)
     ca6:	60b2      	str	r2, [r6, #8]
remoteproc_get_rsc_table():
/home/dangcaominh/STM32MP1/optee-os/optee-os/ta/remoteproc/src/remoteproc_core.c:1385
     ca8:	6a82      	ldr	r2, [r0, #40]	@ 0x28
reg_pair_from_64():
/home/dangcaominh/STM32MP1/optee-os/optee-os/../build/optee-programmer-stm32mp157d-dk1/export-ta_arm32/include/util.h:186 (discriminator 1)
     caa:	6173      	str	r3, [r6, #20]
/home/dangcaominh/STM32MP1/optee-os/optee-os/../build/optee-programmer-stm32mp157d-dk1/export-ta_arm32/include/util.h:187 (discriminator 1)
     cac:	6132      	str	r2, [r6, #16]
remoteproc_get_rsc_table():
/home/dangcaominh/STM32MP1/optee-os/optee-os/ta/remoteproc/src/remoteproc_core.c:1388
     cae:	e77f      	b.n	bb0 <TA_InvokeCommandEntryPoint+0x800>
TA_InvokeCommandEntryPoint():
/home/dangcaominh/STM32MP1/optee-os/optee-os/ta/remoteproc/src/remoteproc_core.c:1444
     cb0:	4c08      	ldr	r4, [pc, #32]	@ (cd4 <TA_InvokeCommandEntryPoint+0x924>)
     cb2:	f7ff bb95 	b.w	3e0 <TA_InvokeCommandEntryPoint+0x30>
remoteproc_load_fw():
/home/dangcaominh/STM32MP1/optee-os/optee-os/ta/remoteproc/src/remoteproc_core.c:1230
     cb6:	4c08      	ldr	r4, [pc, #32]	@ (cd8 <TA_InvokeCommandEntryPoint+0x928>)
     cb8:	f7ff bb92 	b.w	3e0 <TA_InvokeCommandEntryPoint+0x30>
remoteproc_load_elf():
/home/dangcaominh/STM32MP1/optee-os/optee-os/ta/remoteproc/src/remoteproc_core.c:1133
     cbc:	4606      	mov	r6, r0
     cbe:	e68f      	b.n	9e0 <TA_InvokeCommandEntryPoint+0x630>
/home/dangcaominh/STM32MP1/optee-os/optee-os/ta/remoteproc/src/remoteproc_core.c:1173 (discriminator 1)
     cc0:	4b06      	ldr	r3, [pc, #24]	@ (cdc <TA_InvokeCommandEntryPoint+0x92c>)
     cc2:	4298      	cmp	r0, r3
     cc4:	f43f af4f 	beq.w	b66 <TA_InvokeCommandEntryPoint+0x7b6>
/home/dangcaominh/STM32MP1/optee-os/optee-os/ta/remoteproc/src/remoteproc_core.c:1133
     cc8:	460e      	mov	r6, r1
     cca:	e689      	b.n	9e0 <TA_InvokeCommandEntryPoint+0x630>
TA_InvokeCommandEntryPoint():
/home/dangcaominh/STM32MP1/optee-os/optee-os/ta/remoteproc/src/remoteproc_core.c:1458
     ccc:	4620      	mov	r0, r4
     cce:	b019      	add	sp, #100	@ 0x64
     cd0:	e8bd 8ff0 	ldmia.w	sp!, {r4, r5, r6, r7, r8, r9, sl, fp, pc}
     cd4:	ffff0009 	.word	0xffff0009
     cd8:	ffff000c 	.word	0xffff000c
     cdc:	ffff000b 	.word	0xffff000b
     ce0:	0000e77c 	.word	0x0000e77c

00000ce4 <e32_parse_ehdr>:
e32_parse_ehdr():
/home/dangcaominh/STM32MP1/optee-os/optee-os/ta/remoteproc/src/elf_parser.c:24
     ce4:	4603      	mov	r3, r0
/home/dangcaominh/STM32MP1/optee-os/optee-os/ta/remoteproc/src/elf_parser.c:21
     ce6:	b507      	push	{r0, r1, r2, lr}
/home/dangcaominh/STM32MP1/optee-os/optee-os/ta/remoteproc/src/elf_parser.c:24
     ce8:	b110      	cbz	r0, cf0 <e32_parse_ehdr+0xc>
/home/dangcaominh/STM32MP1/optee-os/optee-os/ta/remoteproc/src/elf_parser.c:24 (discriminator 1)
     cea:	f010 0003 	ands.w	r0, r0, #3
     cee:	d00d      	beq.n	d0c <e32_parse_ehdr+0x28>
/home/dangcaominh/STM32MP1/optee-os/optee-os/ta/remoteproc/src/elf_parser.c:25
     cf0:	4b20      	ldr	r3, [pc, #128]	@ (d74 <e32_parse_ehdr+0x90>)
     cf2:	2119      	movs	r1, #25
     cf4:	4820      	ldr	r0, [pc, #128]	@ (d78 <e32_parse_ehdr+0x94>)
     cf6:	447b      	add	r3, pc
     cf8:	9300      	str	r3, [sp, #0]
     cfa:	2301      	movs	r3, #1
     cfc:	4478      	add	r0, pc
     cfe:	461a      	mov	r2, r3
     d00:	f000 fad4 	bl	12ac <trace_printf>
/home/dangcaominh/STM32MP1/optee-os/optee-os/ta/remoteproc/src/elf_parser.c:26
     d04:	4818      	ldr	r0, [pc, #96]	@ (d68 <e32_parse_ehdr+0x84>)
/home/dangcaominh/STM32MP1/optee-os/optee-os/ta/remoteproc/src/elf_parser.c:48
     d06:	b003      	add	sp, #12
     d08:	f85d fb04 	ldr.w	pc, [sp], #4
/home/dangcaominh/STM32MP1/optee-os/optee-os/ta/remoteproc/src/elf_parser.c:29
     d0c:	2933      	cmp	r1, #51	@ 0x33
     d0e:	d91d      	bls.n	d4c <e32_parse_ehdr+0x68>
/home/dangcaominh/STM32MP1/optee-os/optee-os/ta/remoteproc/src/elf_parser.c:30
     d10:	6a1a      	ldr	r2, [r3, #32]
     d12:	3228      	adds	r2, #40	@ 0x28
/home/dangcaominh/STM32MP1/optee-os/optee-os/ta/remoteproc/src/elf_parser.c:29 (discriminator 1)
     d14:	428a      	cmp	r2, r1
     d16:	d819      	bhi.n	d4c <e32_parse_ehdr+0x68>
/home/dangcaominh/STM32MP1/optee-os/optee-os/ta/remoteproc/src/elf_parser.c:33
     d18:	6819      	ldr	r1, [r3, #0]
     d1a:	4a14      	ldr	r2, [pc, #80]	@ (d6c <e32_parse_ehdr+0x88>)
     d1c:	4291      	cmp	r1, r2
     d1e:	d10b      	bne.n	d38 <e32_parse_ehdr+0x54>
/home/dangcaominh/STM32MP1/optee-os/optee-os/ta/remoteproc/src/elf_parser.c:34
     d20:	685a      	ldr	r2, [r3, #4]
     d22:	f002 12ff 	and.w	r2, r2, #16711935	@ 0xff00ff
     d26:	f1b2 1f01 	cmp.w	r2, #65537	@ 0x10001
     d2a:	d105      	bne.n	d38 <e32_parse_ehdr+0x54>
/home/dangcaominh/STM32MP1/optee-os/optee-os/ta/remoteproc/src/elf_parser.c:35
     d2c:	8d5a      	ldrh	r2, [r3, #42]	@ 0x2a
     d2e:	2a20      	cmp	r2, #32
     d30:	d102      	bne.n	d38 <e32_parse_ehdr+0x54>
/home/dangcaominh/STM32MP1/optee-os/optee-os/ta/remoteproc/src/elf_parser.c:36
     d32:	8dda      	ldrh	r2, [r3, #46]	@ 0x2e
     d34:	2a28      	cmp	r2, #40	@ 0x28
     d36:	d00b      	beq.n	d50 <e32_parse_ehdr+0x6c>
/home/dangcaominh/STM32MP1/optee-os/optee-os/ta/remoteproc/src/elf_parser.c:38
     d38:	4b10      	ldr	r3, [pc, #64]	@ (d7c <e32_parse_ehdr+0x98>)
     d3a:	2126      	movs	r1, #38	@ 0x26
     d3c:	4810      	ldr	r0, [pc, #64]	@ (d80 <e32_parse_ehdr+0x9c>)
     d3e:	447b      	add	r3, pc
     d40:	9300      	str	r3, [sp, #0]
     d42:	2301      	movs	r3, #1
     d44:	4478      	add	r0, pc
     d46:	461a      	mov	r2, r3
     d48:	f000 fab0 	bl	12ac <trace_printf>
/home/dangcaominh/STM32MP1/optee-os/optee-os/ta/remoteproc/src/elf_parser.c:31
     d4c:	4808      	ldr	r0, [pc, #32]	@ (d70 <e32_parse_ehdr+0x8c>)
     d4e:	e7da      	b.n	d06 <e32_parse_ehdr+0x22>
/home/dangcaominh/STM32MP1/optee-os/optee-os/ta/remoteproc/src/elf_parser.c:42
     d50:	8d9b      	ldrh	r3, [r3, #44]	@ 0x2c
     d52:	2b00      	cmp	r3, #0
     d54:	d1d7      	bne.n	d06 <e32_parse_ehdr+0x22>
/home/dangcaominh/STM32MP1/optee-os/optee-os/ta/remoteproc/src/elf_parser.c:43
     d56:	4b0b      	ldr	r3, [pc, #44]	@ (d84 <e32_parse_ehdr+0xa0>)
     d58:	212b      	movs	r1, #43	@ 0x2b
     d5a:	480b      	ldr	r0, [pc, #44]	@ (d88 <e32_parse_ehdr+0xa4>)
     d5c:	447b      	add	r3, pc
     d5e:	9300      	str	r3, [sp, #0]
     d60:	2301      	movs	r3, #1
     d62:	4478      	add	r0, pc
     d64:	461a      	mov	r2, r3
     d66:	e7ef      	b.n	d48 <e32_parse_ehdr+0x64>
     d68:	ffff0006 	.word	0xffff0006
     d6c:	464c457f 	.word	0x464c457f
     d70:	ffff0005 	.word	0xffff0005
     d74:	0000ce57 	.word	0x0000ce57
     d78:	0000db21 	.word	0x0000db21
     d7c:	0000ce28 	.word	0x0000ce28
     d80:	0000dad9 	.word	0x0000dad9
     d84:	0000ce19 	.word	0x0000ce19
     d88:	0000dabb 	.word	0x0000dabb

00000d8c <e32_parser_load_elf_image>:
e32_parser_load_elf_image():
/home/dangcaominh/STM32MP1/optee-os/optee-os/ta/remoteproc/src/elf_parser.c:57
     d8c:	e92d 43f7 	stmdb	sp!, {r0, r1, r2, r4, r5, r6, r7, r8, r9, lr}
     d90:	4605      	mov	r5, r0
     d92:	461f      	mov	r7, r3
/home/dangcaominh/STM32MP1/optee-os/optee-os/ta/remoteproc/src/elf_parser.c:63
     d94:	4616      	mov	r6, r2
     d96:	2a00      	cmp	r2, #0
     d98:	d038      	beq.n	e0c <e32_parser_load_elf_image+0x80>
/home/dangcaominh/STM32MP1/optee-os/optee-os/ta/remoteproc/src/elf_parser.c:63 (discriminator 1)
     d9a:	2900      	cmp	r1, #0
     d9c:	dd36      	ble.n	e0c <e32_parser_load_elf_image+0x80>
/home/dangcaominh/STM32MP1/optee-os/optee-os/ta/remoteproc/src/elf_parser.c:59
     d9e:	69c4      	ldr	r4, [r0, #28]
     da0:	4404      	add	r4, r0
/home/dangcaominh/STM32MP1/optee-os/optee-os/ta/remoteproc/src/elf_parser.c:66
     da2:	f014 0903 	ands.w	r9, r4, #3
     da6:	d003      	beq.n	db0 <e32_parser_load_elf_image+0x24>
/home/dangcaominh/STM32MP1/optee-os/optee-os/ta/remoteproc/src/elf_parser.c:68
     da8:	4819      	ldr	r0, [pc, #100]	@ (e10 <e32_parser_load_elf_image+0x84>)
/home/dangcaominh/STM32MP1/optee-os/optee-os/ta/remoteproc/src/elf_parser.c:94
     daa:	b003      	add	sp, #12
     dac:	e8bd 83f0 	ldmia.w	sp!, {r4, r5, r6, r7, r8, r9, pc}
va_in_fwm_image_range():
/home/dangcaominh/STM32MP1/optee-os/optee-os/ta/remoteproc/src/elf_parser.c:17
     db0:	42a0      	cmp	r0, r4
     db2:	d8f9      	bhi.n	da8 <e32_parser_load_elf_image+0x1c>
/home/dangcaominh/STM32MP1/optee-os/optee-os/ta/remoteproc/src/elf_parser.c:17 (discriminator 1)
     db4:	eb00 0801 	add.w	r8, r0, r1
     db8:	4544      	cmp	r4, r8
     dba:	d2f5      	bcs.n	da8 <e32_parser_load_elf_image+0x1c>
     dbc:	341f      	adds	r4, #31
e32_parser_load_elf_image():
/home/dangcaominh/STM32MP1/optee-os/optee-os/ta/remoteproc/src/elf_parser.c:70 (discriminator 1)
     dbe:	8dab      	ldrh	r3, [r5, #44]	@ 0x2c
     dc0:	454b      	cmp	r3, r9
     dc2:	d801      	bhi.n	dc8 <e32_parser_load_elf_image+0x3c>
/home/dangcaominh/STM32MP1/optee-os/optee-os/ta/remoteproc/src/elf_parser.c:93
     dc4:	2000      	movs	r0, #0
     dc6:	e7f0      	b.n	daa <e32_parser_load_elf_image+0x1e>
/home/dangcaominh/STM32MP1/optee-os/optee-os/ta/remoteproc/src/elf_parser.c:74
     dc8:	f854 3c1f 	ldr.w	r3, [r4, #-31]
/home/dangcaominh/STM32MP1/optee-os/optee-os/ta/remoteproc/src/elf_parser.c:71
     dcc:	f854 2c13 	ldr.w	r2, [r4, #-19]
/home/dangcaominh/STM32MP1/optee-os/optee-os/ta/remoteproc/src/elf_parser.c:74
     dd0:	2b01      	cmp	r3, #1
     dd2:	d003      	beq.n	ddc <e32_parser_load_elf_image+0x50>
/home/dangcaominh/STM32MP1/optee-os/optee-os/ta/remoteproc/src/elf_parser.c:70 (discriminator 2)
     dd4:	f109 0901 	add.w	r9, r9, #1
     dd8:	3420      	adds	r4, #32
     dda:	e7f0      	b.n	dbe <e32_parser_load_elf_image+0x32>
va_in_fwm_image_range():
/home/dangcaominh/STM32MP1/optee-os/optee-os/ta/remoteproc/src/elf_parser.c:17
     ddc:	42a5      	cmp	r5, r4
     dde:	d8e3      	bhi.n	da8 <e32_parser_load_elf_image+0x1c>
/home/dangcaominh/STM32MP1/optee-os/optee-os/ta/remoteproc/src/elf_parser.c:17 (discriminator 1)
     de0:	45a0      	cmp	r8, r4
     de2:	d9e1      	bls.n	da8 <e32_parser_load_elf_image+0x1c>
e32_parser_load_elf_image():
/home/dangcaominh/STM32MP1/optee-os/optee-os/ta/remoteproc/src/elf_parser.c:81
     de4:	f854 0c1b 	ldr.w	r0, [r4, #-27]
va_in_fwm_image_range():
/home/dangcaominh/STM32MP1/optee-os/optee-os/ta/remoteproc/src/elf_parser.c:17
     de8:	1828      	adds	r0, r5, r0
     dea:	d2dd      	bcs.n	da8 <e32_parser_load_elf_image+0x1c>
/home/dangcaominh/STM32MP1/optee-os/optee-os/ta/remoteproc/src/elf_parser.c:17 (discriminator 1)
     dec:	4540      	cmp	r0, r8
     dee:	d2db      	bcs.n	da8 <e32_parser_load_elf_image+0x1c>
e32_parser_load_elf_image():
/home/dangcaominh/STM32MP1/optee-os/optee-os/ta/remoteproc/src/elf_parser.c:84
     df0:	f854 1c0f 	ldr.w	r1, [r4, #-15]
     df4:	1843      	adds	r3, r0, r1
va_in_fwm_image_range():
/home/dangcaominh/STM32MP1/optee-os/optee-os/ta/remoteproc/src/elf_parser.c:17
     df6:	42ab      	cmp	r3, r5
     df8:	d3d6      	bcc.n	da8 <e32_parser_load_elf_image+0x1c>
/home/dangcaominh/STM32MP1/optee-os/optee-os/ta/remoteproc/src/elf_parser.c:17 (discriminator 1)
     dfa:	4543      	cmp	r3, r8
     dfc:	d2d4      	bcs.n	da8 <e32_parser_load_elf_image+0x1c>
e32_parser_load_elf_image():
/home/dangcaominh/STM32MP1/optee-os/optee-os/ta/remoteproc/src/elf_parser.c:87
     dfe:	9700      	str	r7, [sp, #0]
     e00:	f854 3c0b 	ldr.w	r3, [r4, #-11]
     e04:	47b0      	blx	r6
/home/dangcaominh/STM32MP1/optee-os/optee-os/ta/remoteproc/src/elf_parser.c:89
     e06:	2800      	cmp	r0, #0
     e08:	d0e4      	beq.n	dd4 <e32_parser_load_elf_image+0x48>
     e0a:	e7ce      	b.n	daa <e32_parser_load_elf_image+0x1e>
/home/dangcaominh/STM32MP1/optee-os/optee-os/ta/remoteproc/src/elf_parser.c:64
     e0c:	4801      	ldr	r0, [pc, #4]	@ (e14 <e32_parser_load_elf_image+0x88>)
     e0e:	e7cc      	b.n	daa <e32_parser_load_elf_image+0x1e>
     e10:	ffff0005 	.word	0xffff0005
     e14:	ffff0006 	.word	0xffff0006

00000e18 <e32_parser_find_rsc_table>:
e32_parser_find_rsc_table():
/home/dangcaominh/STM32MP1/optee-os/optee-os/ta/remoteproc/src/elf_parser.c:99
     e18:	e92d 4ff0 	stmdb	sp!, {r4, r5, r6, r7, r8, r9, sl, fp, lr}
/home/dangcaominh/STM32MP1/optee-os/optee-os/ta/remoteproc/src/elf_parser.c:107
     e1c:	1e0f      	subs	r7, r1, #0
/home/dangcaominh/STM32MP1/optee-os/optee-os/ta/remoteproc/src/elf_parser.c:99
     e1e:	b087      	sub	sp, #28
     e20:	4692      	mov	sl, r2
     e22:	4605      	mov	r5, r0
     e24:	469b      	mov	fp, r3
     e26:	f89d 2040 	ldrb.w	r2, [sp, #64]	@ 0x40
/home/dangcaominh/STM32MP1/optee-os/optee-os/ta/remoteproc/src/elf_parser.c:107
     e2a:	f340 8090 	ble.w	f4e <e32_parser_find_rsc_table+0x136>
/home/dangcaominh/STM32MP1/optee-os/optee-os/ta/remoteproc/src/elf_parser.c:107 (discriminator 1)
     e2e:	6a04      	ldr	r4, [r0, #32]
     e30:	2c00      	cmp	r4, #0
     e32:	f2c0 808c 	blt.w	f4e <e32_parser_find_rsc_table+0x136>
/home/dangcaominh/STM32MP1/optee-os/optee-os/ta/remoteproc/src/elf_parser.c:110
     e36:	4404      	add	r4, r0
/home/dangcaominh/STM32MP1/optee-os/optee-os/ta/remoteproc/src/elf_parser.c:111
     e38:	f014 0803 	ands.w	r8, r4, #3
     e3c:	d15e      	bne.n	efc <e32_parser_find_rsc_table+0xe4>
va_in_fwm_image_range():
/home/dangcaominh/STM32MP1/optee-os/optee-os/ta/remoteproc/src/elf_parser.c:17
     e3e:	42a0      	cmp	r0, r4
     e40:	d85c      	bhi.n	efc <e32_parser_find_rsc_table+0xe4>
/home/dangcaominh/STM32MP1/optee-os/optee-os/ta/remoteproc/src/elf_parser.c:17 (discriminator 1)
     e42:	eb00 0907 	add.w	r9, r0, r7
     e46:	454c      	cmp	r4, r9
     e48:	d258      	bcs.n	efc <e32_parser_find_rsc_table+0xe4>
e32_parser_find_rsc_table():
/home/dangcaominh/STM32MP1/optee-os/optee-os/ta/remoteproc/src/elf_parser.c:115
     e4a:	8e43      	ldrh	r3, [r0, #50]	@ 0x32
     e4c:	2128      	movs	r1, #40	@ 0x28
     e4e:	fb01 4303 	mla	r3, r1, r3, r4
     e52:	691e      	ldr	r6, [r3, #16]
va_in_fwm_image_range():
/home/dangcaominh/STM32MP1/optee-os/optee-os/ta/remoteproc/src/elf_parser.c:17
     e54:	1986      	adds	r6, r0, r6
     e56:	d251      	bcs.n	efc <e32_parser_find_rsc_table+0xe4>
/home/dangcaominh/STM32MP1/optee-os/optee-os/ta/remoteproc/src/elf_parser.c:17 (discriminator 1)
     e58:	454e      	cmp	r6, r9
     e5a:	d24f      	bcs.n	efc <e32_parser_find_rsc_table+0xe4>
e32_parser_find_rsc_table():
/home/dangcaominh/STM32MP1/optee-os/optee-os/ta/remoteproc/src/elf_parser.c:127
     e5c:	4942      	ldr	r1, [pc, #264]	@ (f68 <e32_parser_find_rsc_table+0x150>)
/home/dangcaominh/STM32MP1/optee-os/optee-os/ta/remoteproc/src/elf_parser.c:119 (discriminator 1)
     e5e:	8e03      	ldrh	r3, [r0, #48]	@ 0x30
/home/dangcaominh/STM32MP1/optee-os/optee-os/ta/remoteproc/src/elf_parser.c:127
     e60:	4479      	add	r1, pc
/home/dangcaominh/STM32MP1/optee-os/optee-os/ta/remoteproc/src/elf_parser.c:119 (discriminator 1)
     e62:	4543      	cmp	r3, r8
     e64:	d801      	bhi.n	e6a <e32_parser_find_rsc_table+0x52>
/home/dangcaominh/STM32MP1/optee-os/optee-os/ta/remoteproc/src/elf_parser.c:131
     e66:	483c      	ldr	r0, [pc, #240]	@ (f58 <e32_parser_find_rsc_table+0x140>)
     e68:	e06e      	b.n	f48 <e32_parser_find_rsc_table+0x130>
va_in_fwm_image_range():
/home/dangcaominh/STM32MP1/optee-os/optee-os/ta/remoteproc/src/elf_parser.c:17
     e6a:	42ac      	cmp	r4, r5
     e6c:	9205      	str	r2, [sp, #20]
     e6e:	9304      	str	r3, [sp, #16]
     e70:	d344      	bcc.n	efc <e32_parser_find_rsc_table+0xe4>
/home/dangcaominh/STM32MP1/optee-os/optee-os/ta/remoteproc/src/elf_parser.c:17 (discriminator 1)
     e72:	454c      	cmp	r4, r9
     e74:	d242      	bcs.n	efc <e32_parser_find_rsc_table+0xe4>
e32_parser_find_rsc_table():
/home/dangcaominh/STM32MP1/optee-os/optee-os/ta/remoteproc/src/elf_parser.c:127
     e76:	6820      	ldr	r0, [r4, #0]
     e78:	9103      	str	r1, [sp, #12]
     e7a:	4430      	add	r0, r6
     e7c:	f00c fc0a 	bl	d694 <strcmp>
/home/dangcaominh/STM32MP1/optee-os/optee-os/ta/remoteproc/src/elf_parser.c:127 (discriminator 1)
     e80:	9903      	ldr	r1, [sp, #12]
     e82:	9b04      	ldr	r3, [sp, #16]
     e84:	9a05      	ldr	r2, [sp, #20]
     e86:	b118      	cbz	r0, e90 <e32_parser_find_rsc_table+0x78>
/home/dangcaominh/STM32MP1/optee-os/optee-os/ta/remoteproc/src/elf_parser.c:119 (discriminator 2)
     e88:	f108 0801 	add.w	r8, r8, #1
     e8c:	3428      	adds	r4, #40	@ 0x28
     e8e:	e7e8      	b.n	e62 <e32_parser_find_rsc_table+0x4a>
/home/dangcaominh/STM32MP1/optee-os/optee-os/ta/remoteproc/src/elf_parser.c:120
     e90:	6963      	ldr	r3, [r4, #20]
/home/dangcaominh/STM32MP1/optee-os/optee-os/ta/remoteproc/src/elf_parser.c:130
     e92:	2b00      	cmp	r3, #0
     e94:	d0e7      	beq.n	e66 <e32_parser_find_rsc_table+0x4e>
/home/dangcaominh/STM32MP1/optee-os/optee-os/ta/remoteproc/src/elf_parser.c:121
     e96:	6926      	ldr	r6, [r4, #16]
/home/dangcaominh/STM32MP1/optee-os/optee-os/ta/remoteproc/src/elf_parser.c:133
     e98:	1998      	adds	r0, r3, r6
     e9a:	bf2c      	ite	cs
     e9c:	2101      	movcs	r1, #1
     e9e:	2100      	movcc	r1, #0
     ea0:	42b8      	cmp	r0, r7
     ea2:	d800      	bhi.n	ea6 <e32_parser_find_rsc_table+0x8e>
/home/dangcaominh/STM32MP1/optee-os/optee-os/ta/remoteproc/src/elf_parser.c:133 (discriminator 1)
     ea4:	b159      	cbz	r1, ebe <e32_parser_find_rsc_table+0xa6>
/home/dangcaominh/STM32MP1/optee-os/optee-os/ta/remoteproc/src/elf_parser.c:134
     ea6:	4b31      	ldr	r3, [pc, #196]	@ (f6c <e32_parser_find_rsc_table+0x154>)
     ea8:	2186      	movs	r1, #134	@ 0x86
     eaa:	4831      	ldr	r0, [pc, #196]	@ (f70 <e32_parser_find_rsc_table+0x158>)
     eac:	447b      	add	r3, pc
     eae:	9300      	str	r3, [sp, #0]
     eb0:	2301      	movs	r3, #1
     eb2:	4478      	add	r0, pc
     eb4:	461a      	mov	r2, r3
/home/dangcaominh/STM32MP1/optee-os/optee-os/ta/remoteproc/src/elf_parser.c:155
     eb6:	300f      	adds	r0, #15
     eb8:	f000 f9f8 	bl	12ac <trace_printf>
/home/dangcaominh/STM32MP1/optee-os/optee-os/ta/remoteproc/src/elf_parser.c:156
     ebc:	e01e      	b.n	efc <e32_parser_find_rsc_table+0xe4>
/home/dangcaominh/STM32MP1/optee-os/optee-os/ta/remoteproc/src/elf_parser.c:138
     ebe:	2b0f      	cmp	r3, #15
     ec0:	d808      	bhi.n	ed4 <e32_parser_find_rsc_table+0xbc>
/home/dangcaominh/STM32MP1/optee-os/optee-os/ta/remoteproc/src/elf_parser.c:139
     ec2:	4b2c      	ldr	r3, [pc, #176]	@ (f74 <e32_parser_find_rsc_table+0x15c>)
     ec4:	218b      	movs	r1, #139	@ 0x8b
     ec6:	482c      	ldr	r0, [pc, #176]	@ (f78 <e32_parser_find_rsc_table+0x160>)
     ec8:	447b      	add	r3, pc
     eca:	9300      	str	r3, [sp, #0]
     ecc:	2301      	movs	r3, #1
     ece:	4478      	add	r0, pc
     ed0:	461a      	mov	r2, r3
     ed2:	e7f0      	b.n	eb6 <e32_parser_find_rsc_table+0x9e>
/home/dangcaominh/STM32MP1/optee-os/optee-os/ta/remoteproc/src/elf_parser.c:143
     ed4:	19a9      	adds	r1, r5, r6
/home/dangcaominh/STM32MP1/optee-os/optee-os/ta/remoteproc/src/elf_parser.c:144
     ed6:	f011 0003 	ands.w	r0, r1, #3
     eda:	d13a      	bne.n	f52 <e32_parser_find_rsc_table+0x13a>
/home/dangcaominh/STM32MP1/optee-os/optee-os/ta/remoteproc/src/elf_parser.c:147
     edc:	b372      	cbz	r2, f3c <e32_parser_find_rsc_table+0x124>
/home/dangcaominh/STM32MP1/optee-os/optee-os/ta/remoteproc/src/elf_parser.c:148
     ede:	59aa      	ldr	r2, [r5, r6]
     ee0:	2a01      	cmp	r2, #1
     ee2:	d00d      	beq.n	f00 <e32_parser_find_rsc_table+0xe8>
/home/dangcaominh/STM32MP1/optee-os/optee-os/ta/remoteproc/src/elf_parser.c:149
     ee4:	4b25      	ldr	r3, [pc, #148]	@ (f7c <e32_parser_find_rsc_table+0x164>)
     ee6:	2195      	movs	r1, #149	@ 0x95
     ee8:	4825      	ldr	r0, [pc, #148]	@ (f80 <e32_parser_find_rsc_table+0x168>)
     eea:	447b      	add	r3, pc
     eec:	4478      	add	r0, pc
     eee:	9300      	str	r3, [sp, #0]
     ef0:	2301      	movs	r3, #1
     ef2:	9201      	str	r2, [sp, #4]
     ef4:	300f      	adds	r0, #15
     ef6:	461a      	mov	r2, r3
     ef8:	f000 f9d8 	bl	12ac <trace_printf>
/home/dangcaominh/STM32MP1/optee-os/optee-os/ta/remoteproc/src/elf_parser.c:113
     efc:	4817      	ldr	r0, [pc, #92]	@ (f5c <e32_parser_find_rsc_table+0x144>)
     efe:	e023      	b.n	f48 <e32_parser_find_rsc_table+0x130>
/home/dangcaominh/STM32MP1/optee-os/optee-os/ta/remoteproc/src/elf_parser.c:154
     f00:	688a      	ldr	r2, [r1, #8]
     f02:	b90a      	cbnz	r2, f08 <e32_parser_find_rsc_table+0xf0>
/home/dangcaominh/STM32MP1/optee-os/optee-os/ta/remoteproc/src/elf_parser.c:154 (discriminator 1)
     f04:	68ca      	ldr	r2, [r1, #12]
     f06:	b142      	cbz	r2, f1a <e32_parser_find_rsc_table+0x102>
/home/dangcaominh/STM32MP1/optee-os/optee-os/ta/remoteproc/src/elf_parser.c:155
     f08:	4b1e      	ldr	r3, [pc, #120]	@ (f84 <e32_parser_find_rsc_table+0x16c>)
     f0a:	219b      	movs	r1, #155	@ 0x9b
     f0c:	481e      	ldr	r0, [pc, #120]	@ (f88 <e32_parser_find_rsc_table+0x170>)
     f0e:	447b      	add	r3, pc
     f10:	9300      	str	r3, [sp, #0]
     f12:	2301      	movs	r3, #1
     f14:	4478      	add	r0, pc
     f16:	461a      	mov	r2, r3
     f18:	e7cd      	b.n	eb6 <e32_parser_find_rsc_table+0x9e>
/home/dangcaominh/STM32MP1/optee-os/optee-os/ta/remoteproc/src/elf_parser.c:159
     f1a:	6849      	ldr	r1, [r1, #4]
     f1c:	008a      	lsls	r2, r1, #2
     f1e:	0f89      	lsrs	r1, r1, #30
     f20:	d103      	bne.n	f2a <e32_parser_find_rsc_table+0x112>
/home/dangcaominh/STM32MP1/optee-os/optee-os/ta/remoteproc/src/elf_parser.c:161
     f22:	3210      	adds	r2, #16
     f24:	d201      	bcs.n	f2a <e32_parser_find_rsc_table+0x112>
/home/dangcaominh/STM32MP1/optee-os/optee-os/ta/remoteproc/src/elf_parser.c:162
     f26:	429a      	cmp	r2, r3
     f28:	d908      	bls.n	f3c <e32_parser_find_rsc_table+0x124>
/home/dangcaominh/STM32MP1/optee-os/optee-os/ta/remoteproc/src/elf_parser.c:164
     f2a:	4b18      	ldr	r3, [pc, #96]	@ (f8c <e32_parser_find_rsc_table+0x174>)
     f2c:	21a4      	movs	r1, #164	@ 0xa4
     f2e:	4818      	ldr	r0, [pc, #96]	@ (f90 <e32_parser_find_rsc_table+0x178>)
     f30:	447b      	add	r3, pc
     f32:	9300      	str	r3, [sp, #0]
     f34:	2301      	movs	r3, #1
     f36:	4478      	add	r0, pc
     f38:	461a      	mov	r2, r3
     f3a:	e7bc      	b.n	eb6 <e32_parser_find_rsc_table+0x9e>
/home/dangcaominh/STM32MP1/optee-os/optee-os/ta/remoteproc/src/elf_parser.c:172
     f3c:	68e3      	ldr	r3, [r4, #12]
     f3e:	f8ca 3000 	str.w	r3, [sl]
/home/dangcaominh/STM32MP1/optee-os/optee-os/ta/remoteproc/src/elf_parser.c:173
     f42:	6963      	ldr	r3, [r4, #20]
     f44:	f8cb 3000 	str.w	r3, [fp]
/home/dangcaominh/STM32MP1/optee-os/optee-os/ta/remoteproc/src/elf_parser.c:179
     f48:	b007      	add	sp, #28
     f4a:	e8bd 8ff0 	ldmia.w	sp!, {r4, r5, r6, r7, r8, r9, sl, fp, pc}
/home/dangcaominh/STM32MP1/optee-os/optee-os/ta/remoteproc/src/elf_parser.c:108
     f4e:	4804      	ldr	r0, [pc, #16]	@ (f60 <e32_parser_find_rsc_table+0x148>)
     f50:	e7fa      	b.n	f48 <e32_parser_find_rsc_table+0x130>
/home/dangcaominh/STM32MP1/optee-os/optee-os/ta/remoteproc/src/elf_parser.c:145
     f52:	4804      	ldr	r0, [pc, #16]	@ (f64 <e32_parser_find_rsc_table+0x14c>)
     f54:	e7f8      	b.n	f48 <e32_parser_find_rsc_table+0x130>
     f56:	bf00      	nop
     f58:	ffff000b 	.word	0xffff000b
     f5c:	ffff0005 	.word	0xffff0005
     f60:	ffff0006 	.word	0xffff0006
     f64:	f0100001 	.word	0xf0100001
     f68:	0000cd2f 	.word	0x0000cd2f
     f6c:	0000ccf3 	.word	0x0000ccf3
     f70:	0000d96b 	.word	0x0000d96b
     f74:	0000ccf0 	.word	0x0000ccf0
     f78:	0000d94f 	.word	0x0000d94f
     f7c:	0000ccf0 	.word	0x0000ccf0
     f80:	0000d931 	.word	0x0000d931
     f84:	0000ccec 	.word	0x0000ccec
     f88:	0000d909 	.word	0x0000d909
     f8c:	0000cce2 	.word	0x0000cce2
     f90:	0000d8e7 	.word	0x0000d8e7

00000f94 <__ta_entry_c>:
__ta_entry_c():
/home/dangcaominh/STM32MP1/optee-os/optee-os/../build/optee-programmer-stm32mp157d-dk1/export-ta_arm32/src/user_ta_header.c:55
     f94:	f8df 805c 	ldr.w	r8, [pc, #92]	@ ff4 <__ta_entry_c+0x60>
/home/dangcaominh/STM32MP1/optee-os/optee-os/../build/optee-programmer-stm32mp157d-dk1/export-ta_arm32/src/user_ta_header.c:51
     f98:	4616      	mov	r6, r2
     f9a:	4a17      	ldr	r2, [pc, #92]	@ (ff8 <__ta_entry_c+0x64>)
     f9c:	4604      	mov	r4, r0
     f9e:	b583      	push	{r0, r1, r7, lr}
     fa0:	461f      	mov	r7, r3
     fa2:	447a      	add	r2, pc
     fa4:	460d      	mov	r5, r1
     fa6:	4b15      	ldr	r3, [pc, #84]	@ (ffc <__ta_entry_c+0x68>)
/home/dangcaominh/STM32MP1/optee-os/optee-os/../build/optee-programmer-stm32mp157d-dk1/export-ta_arm32/src/user_ta_header.c:55
     fa8:	44f8      	add	r8, pc
/home/dangcaominh/STM32MP1/optee-os/optee-os/../build/optee-programmer-stm32mp157d-dk1/export-ta_arm32/src/user_ta_header.c:51
     faa:	58d3      	ldr	r3, [r2, r3]
     fac:	f8df 9050 	ldr.w	r9, [pc, #80]	@ 1000 <__ta_entry_c+0x6c>
     fb0:	681b      	ldr	r3, [r3, #0]
     fb2:	9301      	str	r3, [sp, #4]
     fb4:	f04f 0300 	mov.w	r3, #0
/home/dangcaominh/STM32MP1/optee-os/optee-os/../build/optee-programmer-stm32mp157d-dk1/export-ta_arm32/src/user_ta_header.c:55
     fb8:	f898 3000 	ldrb.w	r3, [r8]
/home/dangcaominh/STM32MP1/optee-os/optee-os/../build/optee-programmer-stm32mp157d-dk1/export-ta_arm32/src/user_ta_header.c:51
     fbc:	44f9      	add	r9, pc
/home/dangcaominh/STM32MP1/optee-os/optee-os/../build/optee-programmer-stm32mp157d-dk1/export-ta_arm32/src/user_ta_header.c:55
     fbe:	b98b      	cbnz	r3, fe4 <__ta_entry_c+0x50>
/home/dangcaominh/STM32MP1/optee-os/optee-os/../build/optee-programmer-stm32mp157d-dk1/export-ta_arm32/src/user_ta_header.c:56
     fc0:	9300      	str	r3, [sp, #0]
/home/dangcaominh/STM32MP1/optee-os/optee-os/../build/optee-programmer-stm32mp157d-dk1/export-ta_arm32/src/user_ta_header.c:58
     fc2:	2104      	movs	r1, #4
     fc4:	4668      	mov	r0, sp
     fc6:	f005 e840 	blx	6048 <_utee_cryp_random_number_generate>
/home/dangcaominh/STM32MP1/optee-os/optee-os/../build/optee-programmer-stm32mp157d-dk1/export-ta_arm32/src/user_ta_header.c:60
     fca:	b108      	cbz	r0, fd0 <__ta_entry_c+0x3c>
/home/dangcaominh/STM32MP1/optee-os/optee-os/../build/optee-programmer-stm32mp157d-dk1/export-ta_arm32/src/user_ta_header.c:81
     fcc:	f004 eee4 	blx	5d98 <_utee_return>
/home/dangcaominh/STM32MP1/optee-os/optee-os/../build/optee-programmer-stm32mp157d-dk1/export-ta_arm32/src/user_ta_header.c:66
     fd0:	4b0a      	ldr	r3, [pc, #40]	@ (ffc <__ta_entry_c+0x68>)
     fd2:	f859 2003 	ldr.w	r2, [r9, r3]
/home/dangcaominh/STM32MP1/optee-os/optee-os/../build/optee-programmer-stm32mp157d-dk1/export-ta_arm32/src/user_ta_header.c:64
     fd6:	9b00      	ldr	r3, [sp, #0]
     fd8:	f023 03ff 	bic.w	r3, r3, #255	@ 0xff
/home/dangcaominh/STM32MP1/optee-os/optee-os/../build/optee-programmer-stm32mp157d-dk1/export-ta_arm32/src/user_ta_header.c:66
     fdc:	6013      	str	r3, [r2, #0]
/home/dangcaominh/STM32MP1/optee-os/optee-os/../build/optee-programmer-stm32mp157d-dk1/export-ta_arm32/src/user_ta_header.c:67
     fde:	2301      	movs	r3, #1
     fe0:	f888 3000 	strb.w	r3, [r8]
/home/dangcaominh/STM32MP1/optee-os/optee-os/../build/optee-programmer-stm32mp157d-dk1/export-ta_arm32/src/user_ta_header.c:70
     fe4:	463b      	mov	r3, r7
     fe6:	4632      	mov	r2, r6
     fe8:	4629      	mov	r1, r5
     fea:	4620      	mov	r0, r4
     fec:	f004 fdb4 	bl	5b58 <__utee_entry>
     ff0:	e7ec      	b.n	fcc <__ta_entry_c+0x38>
     ff2:	bf00      	nop
     ff4:	00011c94 	.word	0x00011c94
     ff8:	0000e0e2 	.word	0x0000e0e2
     ffc:	0000000c 	.word	0x0000000c
    1000:	0000e0c8 	.word	0x0000e0c8

00001004 <tahead_get_trace_level>:
tahead_get_trace_level():
/home/dangcaominh/STM32MP1/optee-os/optee-os/../build/optee-programmer-stm32mp157d-dk1/export-ta_arm32/src/user_ta_header.c:193
    1004:	2001      	movs	r0, #1
    1006:	4770      	bx	lr

00001008 <__ta_entry>:
__ta_entry():
/home/dangcaominh/STM32MP1/optee-os/optee-os/../build/optee-programmer-stm32mp157d-dk1/export-ta_arm32/src/ta_entry_a32.S:22
    1008:	faffffe1 	blx	f94 <__ta_entry_c>

0000100c <__stack_chk_fail>:
__stack_chk_fail():
/home/dangcaominh/STM32MP1/optee-os/optee-os/lib/libutils/isoc/stack_check.c:25
    100c:	4b08      	ldr	r3, [pc, #32]	@ (1030 <__stack_chk_fail+0x24>)
/home/dangcaominh/STM32MP1/optee-os/optee-os/lib/libutils/isoc/stack_check.c:24
    100e:	b507      	push	{r0, r1, r2, lr}
/home/dangcaominh/STM32MP1/optee-os/optee-os/lib/libutils/isoc/stack_check.c:25
    1010:	2100      	movs	r1, #0
    1012:	447b      	add	r3, pc
    1014:	4608      	mov	r0, r1
    1016:	9300      	str	r3, [sp, #0]
    1018:	2301      	movs	r3, #1
/home/dangcaominh/STM32MP1/optee-os/optee-os/lib/libutils/isoc/stack_check.c:27 (discriminator 1)
    101a:	4c04      	ldr	r4, [pc, #16]	@ (102c <__stack_chk_fail+0x20>)
/home/dangcaominh/STM32MP1/optee-os/optee-os/lib/libutils/isoc/stack_check.c:25
    101c:	461a      	mov	r2, r3
    101e:	f000 f945 	bl	12ac <trace_printf>
/home/dangcaominh/STM32MP1/optee-os/optee-os/lib/libutils/isoc/stack_check.c:27 (discriminator 1)
    1022:	4620      	mov	r0, r4
    1024:	f004 eeae 	blx	5d84 <_utee_panic>
/home/dangcaominh/STM32MP1/optee-os/optee-os/lib/libutils/isoc/stack_check.c:26
    1028:	e7fb      	b.n	1022 <__stack_chk_fail+0x16>
    102a:	bf00      	nop
    102c:	ffff300f 	.word	0xffff300f
    1030:	0000cd00 	.word	0x0000cd00

00001034 <memcpy>:
memcpy():
/home/dangcaominh/STM32MP1/optee-os/optee-os/lib/libutils/isoc/newlib/memcpy.c:106
    1034:	2a0f      	cmp	r2, #15
    1036:	d912      	bls.n	105e <memcpy+0x2a>
/home/dangcaominh/STM32MP1/optee-os/optee-os/lib/libutils/isoc/newlib/memcpy.c:106 (discriminator 1)
    1038:	ea40 0301 	orr.w	r3, r0, r1
    103c:	079b      	lsls	r3, r3, #30
/home/dangcaominh/STM32MP1/optee-os/optee-os/lib/libutils/isoc/newlib/memcpy.c:130
    103e:	bf1c      	itt	ne
    1040:	f102 3cff 	addne.w	ip, r2, #4294967295	@ 0xffffffff
/home/dangcaominh/STM32MP1/optee-os/optee-os/lib/libutils/isoc/newlib/memcpy.c:99
    1044:	4603      	movne	r3, r0
/home/dangcaominh/STM32MP1/optee-os/optee-os/lib/libutils/isoc/newlib/memcpy.c:106 (discriminator 1)
    1046:	d010      	beq.n	106a <memcpy+0x36>
    1048:	f10c 0c01 	add.w	ip, ip, #1
    104c:	3b01      	subs	r3, #1
    104e:	448c      	add	ip, r1
/home/dangcaominh/STM32MP1/optee-os/optee-os/lib/libutils/isoc/newlib/memcpy.c:131
    1050:	f811 2b01 	ldrb.w	r2, [r1], #1
/home/dangcaominh/STM32MP1/optee-os/optee-os/lib/libutils/isoc/newlib/memcpy.c:130
    1054:	4561      	cmp	r1, ip
/home/dangcaominh/STM32MP1/optee-os/optee-os/lib/libutils/isoc/newlib/memcpy.c:131
    1056:	f803 2f01 	strb.w	r2, [r3, #1]!
/home/dangcaominh/STM32MP1/optee-os/optee-os/lib/libutils/isoc/newlib/memcpy.c:130
    105a:	d1f9      	bne.n	1050 <memcpy+0x1c>
    105c:	4770      	bx	lr
/home/dangcaominh/STM32MP1/optee-os/optee-os/lib/libutils/isoc/newlib/memcpy.c:99
    105e:	4603      	mov	r3, r0
/home/dangcaominh/STM32MP1/optee-os/optee-os/lib/libutils/isoc/newlib/memcpy.c:130
    1060:	f102 3cff 	add.w	ip, r2, #4294967295	@ 0xffffffff
    1064:	2a00      	cmp	r2, #0
    1066:	d1ef      	bne.n	1048 <memcpy+0x14>
/home/dangcaominh/STM32MP1/optee-os/optee-os/lib/libutils/isoc/newlib/memcpy.c:135
    1068:	4770      	bx	lr
    106a:	f1a2 0310 	sub.w	r3, r2, #16
    106e:	f101 0c20 	add.w	ip, r1, #32
/home/dangcaominh/STM32MP1/optee-os/optee-os/lib/libutils/isoc/newlib/memcpy.c:87
    1072:	b570      	push	{r4, r5, r6, lr}
    1074:	f101 0410 	add.w	r4, r1, #16
    1078:	f023 060f 	bic.w	r6, r3, #15
    107c:	f100 0510 	add.w	r5, r0, #16
    1080:	44b4      	add	ip, r6
    1082:	ea4f 1e13 	mov.w	lr, r3, lsr #4
/home/dangcaominh/STM32MP1/optee-os/optee-os/lib/libutils/isoc/newlib/memcpy.c:112
    1086:	f854 3c10 	ldr.w	r3, [r4, #-16]
/home/dangcaominh/STM32MP1/optee-os/optee-os/lib/libutils/isoc/newlib/memcpy.c:111
    108a:	3410      	adds	r4, #16
    108c:	4564      	cmp	r4, ip
    108e:	f105 0510 	add.w	r5, r5, #16
/home/dangcaominh/STM32MP1/optee-os/optee-os/lib/libutils/isoc/newlib/memcpy.c:112
    1092:	f845 3c20 	str.w	r3, [r5, #-32]
/home/dangcaominh/STM32MP1/optee-os/optee-os/lib/libutils/isoc/newlib/memcpy.c:113
    1096:	f854 3c1c 	ldr.w	r3, [r4, #-28]
    109a:	f845 3c1c 	str.w	r3, [r5, #-28]
/home/dangcaominh/STM32MP1/optee-os/optee-os/lib/libutils/isoc/newlib/memcpy.c:114
    109e:	f854 3c18 	ldr.w	r3, [r4, #-24]
    10a2:	f845 3c18 	str.w	r3, [r5, #-24]
/home/dangcaominh/STM32MP1/optee-os/optee-os/lib/libutils/isoc/newlib/memcpy.c:115
    10a6:	f854 3c14 	ldr.w	r3, [r4, #-20]
    10aa:	f845 3c14 	str.w	r3, [r5, #-20]
/home/dangcaominh/STM32MP1/optee-os/optee-os/lib/libutils/isoc/newlib/memcpy.c:111
    10ae:	d1ea      	bne.n	1086 <memcpy+0x52>
    10b0:	f10e 0301 	add.w	r3, lr, #1
/home/dangcaominh/STM32MP1/optee-os/optee-os/lib/libutils/isoc/newlib/memcpy.c:120
    10b4:	f012 0f0c 	tst.w	r2, #12
    10b8:	f002 050f 	and.w	r5, r2, #15
    10bc:	ea4f 1303 	mov.w	r3, r3, lsl #4
    10c0:	bf08      	it	eq
    10c2:	462a      	moveq	r2, r5
    10c4:	4419      	add	r1, r3
    10c6:	4403      	add	r3, r0
    10c8:	d012      	beq.n	10f0 <memcpy+0xbc>
    10ca:	3d04      	subs	r5, #4
    10cc:	1f1c      	subs	r4, r3, #4
    10ce:	f025 0e03 	bic.w	lr, r5, #3
    10d2:	468c      	mov	ip, r1
    10d4:	08ad      	lsrs	r5, r5, #2
    10d6:	449e      	add	lr, r3
/home/dangcaominh/STM32MP1/optee-os/optee-os/lib/libutils/isoc/newlib/memcpy.c:121
    10d8:	f85c 6b04 	ldr.w	r6, [ip], #4
    10dc:	f844 6f04 	str.w	r6, [r4, #4]!
/home/dangcaominh/STM32MP1/optee-os/optee-os/lib/libutils/isoc/newlib/memcpy.c:120
    10e0:	4574      	cmp	r4, lr
    10e2:	d1f9      	bne.n	10d8 <memcpy+0xa4>
    10e4:	1c6c      	adds	r4, r5, #1
    10e6:	f002 0203 	and.w	r2, r2, #3
    10ea:	00a4      	lsls	r4, r4, #2
/home/dangcaominh/STM32MP1/optee-os/optee-os/lib/libutils/isoc/newlib/memcpy.c:126
    10ec:	4423      	add	r3, r4
/home/dangcaominh/STM32MP1/optee-os/optee-os/lib/libutils/isoc/newlib/memcpy.c:127
    10ee:	4421      	add	r1, r4
/home/dangcaominh/STM32MP1/optee-os/optee-os/lib/libutils/isoc/newlib/memcpy.c:130
    10f0:	f102 3cff 	add.w	ip, r2, #4294967295	@ 0xffffffff
    10f4:	3b01      	subs	r3, #1
    10f6:	f10c 0c01 	add.w	ip, ip, #1
    10fa:	448c      	add	ip, r1
    10fc:	b12a      	cbz	r2, 110a <memcpy+0xd6>
/home/dangcaominh/STM32MP1/optee-os/optee-os/lib/libutils/isoc/newlib/memcpy.c:131
    10fe:	f811 2b01 	ldrb.w	r2, [r1], #1
/home/dangcaominh/STM32MP1/optee-os/optee-os/lib/libutils/isoc/newlib/memcpy.c:130
    1102:	4561      	cmp	r1, ip
/home/dangcaominh/STM32MP1/optee-os/optee-os/lib/libutils/isoc/newlib/memcpy.c:131
    1104:	f803 2f01 	strb.w	r2, [r3, #1]!
/home/dangcaominh/STM32MP1/optee-os/optee-os/lib/libutils/isoc/newlib/memcpy.c:130
    1108:	d1f9      	bne.n	10fe <memcpy+0xca>
/home/dangcaominh/STM32MP1/optee-os/optee-os/lib/libutils/isoc/newlib/memcpy.c:135
    110a:	bd70      	pop	{r4, r5, r6, pc}

0000110c <trace_set_level>:
trace_set_level():
/home/dangcaominh/STM32MP1/optee-os/optee-os/lib/libutils/ext/trace.c:24
    110c:	4b04      	ldr	r3, [pc, #16]	@ (1120 <trace_set_level+0x14>)
/home/dangcaominh/STM32MP1/optee-os/optee-os/lib/libutils/ext/trace.c:28
    110e:	2805      	cmp	r0, #5
    1110:	4a04      	ldr	r2, [pc, #16]	@ (1124 <trace_set_level+0x18>)
    1112:	bf28      	it	cs
    1114:	2004      	movcs	r0, #4
/home/dangcaominh/STM32MP1/optee-os/optee-os/lib/libutils/ext/trace.c:24
    1116:	447b      	add	r3, pc
    1118:	589b      	ldr	r3, [r3, r2]
    111a:	6018      	str	r0, [r3, #0]
/home/dangcaominh/STM32MP1/optee-os/optee-os/lib/libutils/ext/trace.c:29
    111c:	4770      	bx	lr
    111e:	bf00      	nop
    1120:	0000df6e 	.word	0x0000df6e
    1124:	0000001c 	.word	0x0000001c

00001128 <trace_get_level>:
trace_get_level():
/home/dangcaominh/STM32MP1/optee-os/optee-os/lib/libutils/ext/trace.c:32
    1128:	4b02      	ldr	r3, [pc, #8]	@ (1134 <trace_get_level+0xc>)
/home/dangcaominh/STM32MP1/optee-os/optee-os/lib/libutils/ext/trace.c:33
    112a:	4a03      	ldr	r2, [pc, #12]	@ (1138 <trace_get_level+0x10>)
/home/dangcaominh/STM32MP1/optee-os/optee-os/lib/libutils/ext/trace.c:32
    112c:	447b      	add	r3, pc
/home/dangcaominh/STM32MP1/optee-os/optee-os/lib/libutils/ext/trace.c:33
    112e:	589b      	ldr	r3, [r3, r2]
/home/dangcaominh/STM32MP1/optee-os/optee-os/lib/libutils/ext/trace.c:34
    1130:	6818      	ldr	r0, [r3, #0]
    1132:	4770      	bx	lr
    1134:	0000df58 	.word	0x0000df58
    1138:	0000001c 	.word	0x0000001c

0000113c <trace_vprintf>:
trace_vprintf():
/home/dangcaominh/STM32MP1/optee-os/optee-os/lib/libutils/ext/trace.c:113
    113c:	e92d 4ff0 	stmdb	sp!, {r4, r5, r6, r7, r8, r9, sl, fp, lr}
    1140:	4688      	mov	r8, r1
    1142:	494d      	ldr	r1, [pc, #308]	@ (1278 <trace_vprintf+0x13c>)
    1144:	4614      	mov	r4, r2
    1146:	4a4d      	ldr	r2, [pc, #308]	@ (127c <trace_vprintf+0x140>)
    1148:	b0c7      	sub	sp, #284	@ 0x11c
    114a:	4479      	add	r1, pc
    114c:	4607      	mov	r7, r0
    114e:	4e4c      	ldr	r6, [pc, #304]	@ (1280 <trace_vprintf+0x144>)
/home/dangcaominh/STM32MP1/optee-os/optee-os/lib/libutils/ext/trace.c:118
    1150:	469b      	mov	fp, r3
/home/dangcaominh/STM32MP1/optee-os/optee-os/lib/libutils/ext/trace.c:113
    1152:	588a      	ldr	r2, [r1, r2]
    1154:	447e      	add	r6, pc
    1156:	f8dd 9140 	ldr.w	r9, [sp, #320]	@ 0x140
    115a:	6812      	ldr	r2, [r2, #0]
    115c:	9245      	str	r2, [sp, #276]	@ 0x114
    115e:	f04f 0200 	mov.w	r2, #0
/home/dangcaominh/STM32MP1/optee-os/optee-os/lib/libutils/ext/trace.c:118
    1162:	2b00      	cmp	r3, #0
    1164:	d072      	beq.n	124c <trace_vprintf+0x110>
/home/dangcaominh/STM32MP1/optee-os/optee-os/lib/libutils/ext/trace.c:118 (discriminator 1)
    1166:	4b47      	ldr	r3, [pc, #284]	@ (1284 <trace_vprintf+0x148>)
    1168:	58f3      	ldr	r3, [r6, r3]
    116a:	681b      	ldr	r3, [r3, #0]
    116c:	42a3      	cmp	r3, r4
    116e:	db61      	blt.n	1234 <trace_vprintf+0xf8>
trace_level_to_string():
/home/dangcaominh/STM32MP1/optee-os/optee-os/lib/libutils/ext/trace.c:54
    1170:	4a45      	ldr	r2, [pc, #276]	@ (1288 <trace_vprintf+0x14c>)
/home/dangcaominh/STM32MP1/optee-os/optee-os/lib/libutils/ext/trace.c:46
    1172:	2c05      	cmp	r4, #5
    1174:	bf34      	ite	cc
    1176:	4623      	movcc	r3, r4
    1178:	2300      	movcs	r3, #0
/home/dangcaominh/STM32MP1/optee-os/optee-os/lib/libutils/ext/trace.c:54
    117a:	447a      	add	r2, pc
    117c:	5cd3      	ldrb	r3, [r2, r3]
trace_vprintf():
/home/dangcaominh/STM32MP1/optee-os/optee-os/lib/libutils/ext/trace.c:122
    117e:	4a43      	ldr	r2, [pc, #268]	@ (128c <trace_vprintf+0x150>)
    1180:	ad05      	add	r5, sp, #20
    1182:	f44f 7180 	mov.w	r1, #256	@ 0x100
    1186:	4628      	mov	r0, r5
    1188:	447a      	add	r2, pc
    118a:	f000 f8f0 	bl	136e <snprintk>
/home/dangcaominh/STM32MP1/optee-os/optee-os/lib/libutils/ext/trace.c:124
    118e:	f1b0 0a00 	subs.w	sl, r0, #0
    1192:	db4f      	blt.n	1234 <trace_vprintf+0xf8>
/home/dangcaominh/STM32MP1/optee-os/optee-os/lib/libutils/ext/trace.c:129
    1194:	4b3e      	ldr	r3, [pc, #248]	@ (1290 <trace_vprintf+0x154>)
    1196:	f5ca 7180 	rsb	r1, sl, #256	@ 0x100
    119a:	4a3e      	ldr	r2, [pc, #248]	@ (1294 <trace_vprintf+0x158>)
    119c:	58f3      	ldr	r3, [r6, r3]
    119e:	447a      	add	r2, pc
    11a0:	eb05 000a 	add.w	r0, r5, sl
    11a4:	9303      	str	r3, [sp, #12]
    11a6:	f000 f8e2 	bl	136e <snprintk>
/home/dangcaominh/STM32MP1/optee-os/optee-os/lib/libutils/ext/trace.c:131
    11aa:	2800      	cmp	r0, #0
    11ac:	db42      	blt.n	1234 <trace_vprintf+0xf8>
/home/dangcaominh/STM32MP1/optee-os/optee-os/lib/libutils/ext/trace.c:133
    11ae:	eb00 060a 	add.w	r6, r0, sl
/home/dangcaominh/STM32MP1/optee-os/optee-os/lib/libutils/ext/trace.c:135
    11b2:	f1bb 0f00 	cmp.w	fp, #0
    11b6:	d052      	beq.n	125e <trace_vprintf+0x122>
/home/dangcaominh/STM32MP1/optee-os/optee-os/lib/libutils/ext/trace.c:135 (discriminator 1)
    11b8:	231a      	movs	r3, #26
    11ba:	40e3      	lsrs	r3, r4
    11bc:	07db      	lsls	r3, r3, #31
    11be:	d54e      	bpl.n	125e <trace_vprintf+0x122>
/home/dangcaominh/STM32MP1/optee-os/optee-os/lib/libutils/ext/trace.c:143
    11c0:	19ac      	adds	r4, r5, r6
print_thread_id():
/home/dangcaominh/STM32MP1/optee-os/optee-os/lib/libutils/ext/trace.c:66
    11c2:	f000 fde3 	bl	1d8c <trace_ext_get_thread_id>
/home/dangcaominh/STM32MP1/optee-os/optee-os/lib/libutils/ext/trace.c:68
    11c6:	2800      	cmp	r0, #0
trace_vprintf():
/home/dangcaominh/STM32MP1/optee-os/optee-os/lib/libutils/ext/trace.c:143
    11c8:	f5c6 7a80 	rsb	sl, r6, #256	@ 0x100
print_thread_id():
/home/dangcaominh/STM32MP1/optee-os/optee-os/lib/libutils/ext/trace.c:68
    11cc:	db40      	blt.n	1250 <trace_vprintf+0x114>
/home/dangcaominh/STM32MP1/optee-os/optee-os/lib/libutils/ext/trace.c:69
    11ce:	4a32      	ldr	r2, [pc, #200]	@ (1298 <trace_vprintf+0x15c>)
    11d0:	2301      	movs	r3, #1
    11d2:	9000      	str	r0, [sp, #0]
    11d4:	447a      	add	r2, pc
/home/dangcaominh/STM32MP1/optee-os/optee-os/lib/libutils/ext/trace.c:71
    11d6:	4651      	mov	r1, sl
    11d8:	4620      	mov	r0, r4
    11da:	f000 f8c8 	bl	136e <snprintk>
trace_vprintf():
/home/dangcaominh/STM32MP1/optee-os/optee-os/lib/libutils/ext/trace.c:144
    11de:	2800      	cmp	r0, #0
    11e0:	db28      	blt.n	1234 <trace_vprintf+0xf8>
/home/dangcaominh/STM32MP1/optee-os/optee-os/lib/libutils/ext/trace.c:146
    11e2:	1984      	adds	r4, r0, r6
/home/dangcaominh/STM32MP1/optee-os/optee-os/lib/libutils/ext/trace.c:148
    11e4:	b167      	cbz	r7, 1200 <trace_vprintf+0xc4>
/home/dangcaominh/STM32MP1/optee-os/optee-os/lib/libutils/ext/trace.c:149
    11e6:	4a2d      	ldr	r2, [pc, #180]	@ (129c <trace_vprintf+0x160>)
    11e8:	463b      	mov	r3, r7
    11ea:	1928      	adds	r0, r5, r4
    11ec:	f5c4 7180 	rsb	r1, r4, #256	@ 0x100
    11f0:	447a      	add	r2, pc
    11f2:	f8cd 8000 	str.w	r8, [sp]
    11f6:	f000 f8ba 	bl	136e <snprintk>
/home/dangcaominh/STM32MP1/optee-os/optee-os/lib/libutils/ext/trace.c:151
    11fa:	2800      	cmp	r0, #0
    11fc:	db1a      	blt.n	1234 <trace_vprintf+0xf8>
/home/dangcaominh/STM32MP1/optee-os/optee-os/lib/libutils/ext/trace.c:153
    11fe:	4404      	add	r4, r0
/home/dangcaominh/STM32MP1/optee-os/optee-os/lib/libutils/ext/trace.c:163
    1200:	1928      	adds	r0, r5, r4
    1202:	f5c4 7180 	rsb	r1, r4, #256	@ 0x100
    1206:	9b51      	ldr	r3, [sp, #324]	@ 0x144
    1208:	464a      	mov	r2, r9
    120a:	f000 f8a9 	bl	1360 <vsnprintk>
/home/dangcaominh/STM32MP1/optee-os/optee-os/lib/libutils/ext/trace.c:164
    120e:	2800      	cmp	r0, #0
/home/dangcaominh/STM32MP1/optee-os/optee-os/lib/libutils/ext/trace.c:170
    1210:	f04f 030a 	mov.w	r3, #10
/home/dangcaominh/STM32MP1/optee-os/optee-os/lib/libutils/ext/trace.c:165
    1214:	bfc8      	it	gt
    1216:	1824      	addgt	r4, r4, r0
/home/dangcaominh/STM32MP1/optee-os/optee-os/lib/libutils/ext/trace.c:167
    1218:	2cfe      	cmp	r4, #254	@ 0xfe
    121a:	bf28      	it	cs
    121c:	24fe      	movcs	r4, #254	@ 0xfe
/home/dangcaominh/STM32MP1/optee-os/optee-os/lib/libutils/ext/trace.c:170
    121e:	552b      	strb	r3, [r5, r4]
/home/dangcaominh/STM32MP1/optee-os/optee-os/lib/libutils/ext/trace.c:171
    1220:	b114      	cbz	r4, 1228 <trace_vprintf+0xec>
/home/dangcaominh/STM32MP1/optee-os/optee-os/lib/libutils/ext/trace.c:171 (discriminator 1)
    1222:	5d2b      	ldrb	r3, [r5, r4]
    1224:	2b0a      	cmp	r3, #10
    1226:	d022      	beq.n	126e <trace_vprintf+0x132>
/home/dangcaominh/STM32MP1/optee-os/optee-os/lib/libutils/ext/trace.c:174
    1228:	442c      	add	r4, r5
    122a:	2300      	movs	r3, #0
/home/dangcaominh/STM32MP1/optee-os/optee-os/lib/libutils/ext/trace.c:176
    122c:	4628      	mov	r0, r5
/home/dangcaominh/STM32MP1/optee-os/optee-os/lib/libutils/ext/trace.c:174
    122e:	70a3      	strb	r3, [r4, #2]
/home/dangcaominh/STM32MP1/optee-os/optee-os/lib/libutils/ext/trace.c:176
    1230:	f000 fda2 	bl	1d78 <trace_ext_puts>
/home/dangcaominh/STM32MP1/optee-os/optee-os/lib/libutils/ext/trace.c:113
    1234:	4a1a      	ldr	r2, [pc, #104]	@ (12a0 <trace_vprintf+0x164>)
/home/dangcaominh/STM32MP1/optee-os/optee-os/lib/libutils/ext/trace.c:177
    1236:	4b11      	ldr	r3, [pc, #68]	@ (127c <trace_vprintf+0x140>)
/home/dangcaominh/STM32MP1/optee-os/optee-os/lib/libutils/ext/trace.c:113
    1238:	447a      	add	r2, pc
/home/dangcaominh/STM32MP1/optee-os/optee-os/lib/libutils/ext/trace.c:177
    123a:	58d3      	ldr	r3, [r2, r3]
    123c:	681a      	ldr	r2, [r3, #0]
    123e:	9b45      	ldr	r3, [sp, #276]	@ 0x114
    1240:	405a      	eors	r2, r3
    1242:	f04f 0300 	mov.w	r3, #0
    1246:	d014      	beq.n	1272 <trace_vprintf+0x136>
    1248:	f7ff fee0 	bl	100c <__stack_chk_fail>
trace_level_to_string():
/home/dangcaominh/STM32MP1/optee-os/optee-os/lib/libutils/ext/trace.c:49
    124c:	234d      	movs	r3, #77	@ 0x4d
    124e:	e796      	b.n	117e <trace_vprintf+0x42>
print_thread_id():
/home/dangcaominh/STM32MP1/optee-os/optee-os/lib/libutils/ext/trace.c:71
    1250:	4b14      	ldr	r3, [pc, #80]	@ (12a4 <trace_vprintf+0x168>)
    1252:	4a15      	ldr	r2, [pc, #84]	@ (12a8 <trace_vprintf+0x16c>)
    1254:	447b      	add	r3, pc
    1256:	9300      	str	r3, [sp, #0]
    1258:	2301      	movs	r3, #1
    125a:	447a      	add	r2, pc
    125c:	e7bb      	b.n	11d6 <trace_vprintf+0x9a>
trace_vprintf():
/home/dangcaominh/STM32MP1/optee-os/optee-os/lib/libutils/ext/trace.c:157
    125e:	2efe      	cmp	r6, #254	@ 0xfe
    1260:	d8e8      	bhi.n	1234 <trace_vprintf+0xf8>
/home/dangcaominh/STM32MP1/optee-os/optee-os/lib/libutils/ext/trace.c:159
    1262:	2320      	movs	r3, #32
    1264:	1c74      	adds	r4, r6, #1
    1266:	55ab      	strb	r3, [r5, r6]
/home/dangcaominh/STM32MP1/optee-os/optee-os/lib/libutils/ext/trace.c:160
    1268:	2300      	movs	r3, #0
    126a:	552b      	strb	r3, [r5, r4]
    126c:	e7c8      	b.n	1200 <trace_vprintf+0xc4>
/home/dangcaominh/STM32MP1/optee-os/optee-os/lib/libutils/ext/trace.c:172
    126e:	3c01      	subs	r4, #1
    1270:	e7d6      	b.n	1220 <trace_vprintf+0xe4>
/home/dangcaominh/STM32MP1/optee-os/optee-os/lib/libutils/ext/trace.c:177
    1272:	b047      	add	sp, #284	@ 0x11c
    1274:	e8bd 8ff0 	ldmia.w	sp!, {r4, r5, r6, r7, r8, r9, sl, fp, pc}
    1278:	0000df3a 	.word	0x0000df3a
    127c:	0000000c 	.word	0x0000000c
    1280:	0000df30 	.word	0x0000df30
    1284:	0000001c 	.word	0x0000001c
    1288:	0000d6cc 	.word	0x0000d6cc
    128c:	0000cba2 	.word	0x0000cba2
    1290:	00000024 	.word	0x00000024
    1294:	0000cb90 	.word	0x0000cb90
    1298:	0000cb5e 	.word	0x0000cb5e
    129c:	0000cb4d 	.word	0x0000cb4d
    12a0:	0000de4c 	.word	0x0000de4c
    12a4:	0000d286 	.word	0x0000d286
    12a8:	0000cade 	.word	0x0000cade

000012ac <trace_printf>:
trace_printf():
/home/dangcaominh/STM32MP1/optee-os/optee-os/lib/libutils/ext/trace.c:104
    12ac:	b5f0      	push	{r4, r5, r6, r7, lr}
    12ae:	b085      	sub	sp, #20
    12b0:	4f0e      	ldr	r7, [pc, #56]	@ (12ec <trace_printf+0x40>)
    12b2:	ac0a      	add	r4, sp, #40	@ 0x28
    12b4:	4e0e      	ldr	r6, [pc, #56]	@ (12f0 <trace_printf+0x44>)
    12b6:	447f      	add	r7, pc
    12b8:	f854 5b04 	ldr.w	r5, [r4], #4
    12bc:	59be      	ldr	r6, [r7, r6]
    12be:	6836      	ldr	r6, [r6, #0]
    12c0:	9603      	str	r6, [sp, #12]
    12c2:	f04f 0600 	mov.w	r6, #0
/home/dangcaominh/STM32MP1/optee-os/optee-os/lib/libutils/ext/trace.c:108
    12c6:	9401      	str	r4, [sp, #4]
    12c8:	9500      	str	r5, [sp, #0]
/home/dangcaominh/STM32MP1/optee-os/optee-os/lib/libutils/ext/trace.c:107
    12ca:	9402      	str	r4, [sp, #8]
/home/dangcaominh/STM32MP1/optee-os/optee-os/lib/libutils/ext/trace.c:108
    12cc:	f7ff ff36 	bl	113c <trace_vprintf>
/home/dangcaominh/STM32MP1/optee-os/optee-os/lib/libutils/ext/trace.c:104
    12d0:	4a08      	ldr	r2, [pc, #32]	@ (12f4 <trace_printf+0x48>)
/home/dangcaominh/STM32MP1/optee-os/optee-os/lib/libutils/ext/trace.c:110
    12d2:	4b07      	ldr	r3, [pc, #28]	@ (12f0 <trace_printf+0x44>)
/home/dangcaominh/STM32MP1/optee-os/optee-os/lib/libutils/ext/trace.c:104
    12d4:	447a      	add	r2, pc
/home/dangcaominh/STM32MP1/optee-os/optee-os/lib/libutils/ext/trace.c:110
    12d6:	58d3      	ldr	r3, [r2, r3]
    12d8:	681a      	ldr	r2, [r3, #0]
    12da:	9b03      	ldr	r3, [sp, #12]
    12dc:	405a      	eors	r2, r3
    12de:	f04f 0300 	mov.w	r3, #0
    12e2:	d001      	beq.n	12e8 <trace_printf+0x3c>
    12e4:	f7ff fe92 	bl	100c <__stack_chk_fail>
    12e8:	b005      	add	sp, #20
    12ea:	bdf0      	pop	{r4, r5, r6, r7, pc}
    12ec:	0000ddce 	.word	0x0000ddce
    12f0:	0000000c 	.word	0x0000000c
    12f4:	0000ddb0 	.word	0x0000ddb0

000012f8 <dhex_dump>:
dhex_dump():
/home/dangcaominh/STM32MP1/optee-os/optee-os/lib/libutils/ext/trace.c:287
    12f8:	4770      	bx	lr
    12fa:	bf00      	nop

000012fc <__vsnprintf>:
__vsnprintf():
/home/dangcaominh/STM32MP1/optee-os/optee-os/lib/libutils/ext/snprintk.c:138
    12fc:	b57f      	push	{r0, r1, r2, r3, r4, r5, r6, lr}
    12fe:	460d      	mov	r5, r1
    1300:	4914      	ldr	r1, [pc, #80]	@ (1354 <__vsnprintf+0x58>)
    1302:	4604      	mov	r4, r0
/home/dangcaominh/STM32MP1/optee-os/optee-os/lib/libutils/ext/snprintk.c:142
    1304:	1966      	adds	r6, r4, r5
/home/dangcaominh/STM32MP1/optee-os/optee-os/lib/libutils/ext/snprintk.c:138
    1306:	4610      	mov	r0, r2
    1308:	4479      	add	r1, pc
    130a:	4a13      	ldr	r2, [pc, #76]	@ (1358 <__vsnprintf+0x5c>)
    130c:	588a      	ldr	r2, [r1, r2]
/home/dangcaominh/STM32MP1/optee-os/optee-os/lib/libutils/ext/snprintk.c:143
    130e:	a902      	add	r1, sp, #8
/home/dangcaominh/STM32MP1/optee-os/optee-os/lib/libutils/ext/snprintk.c:138
    1310:	6812      	ldr	r2, [r2, #0]
    1312:	9203      	str	r2, [sp, #12]
    1314:	f04f 0200 	mov.w	r2, #0
/home/dangcaominh/STM32MP1/optee-os/optee-os/lib/libutils/ext/snprintk.c:143
    1318:	f89d 2020 	ldrb.w	r2, [sp, #32]
/home/dangcaominh/STM32MP1/optee-os/optee-os/lib/libutils/ext/snprintk.c:142
    131c:	9602      	str	r6, [sp, #8]
/home/dangcaominh/STM32MP1/optee-os/optee-os/lib/libutils/ext/snprintk.c:143
    131e:	9200      	str	r2, [sp, #0]
    1320:	4622      	mov	r2, r4
    1322:	f000 f84b 	bl	13bc <kprintf.constprop.0>
/home/dangcaominh/STM32MP1/optee-os/optee-os/lib/libutils/ext/snprintk.c:144
    1326:	b13c      	cbz	r4, 1338 <__vsnprintf+0x3c>
/home/dangcaominh/STM32MP1/optee-os/optee-os/lib/libutils/ext/snprintk.c:144 (discriminator 1)
    1328:	b135      	cbz	r5, 1338 <__vsnprintf+0x3c>
/home/dangcaominh/STM32MP1/optee-os/optee-os/lib/libutils/ext/snprintk.c:146
    132a:	42a8      	cmp	r0, r5
    132c:	f04f 0300 	mov.w	r3, #0
/home/dangcaominh/STM32MP1/optee-os/optee-os/lib/libutils/ext/snprintk.c:147
    1330:	bf2c      	ite	cs
    1332:	f806 3c01 	strbcs.w	r3, [r6, #-1]
/home/dangcaominh/STM32MP1/optee-os/optee-os/lib/libutils/ext/snprintk.c:149
    1336:	5423      	strbcc	r3, [r4, r0]
/home/dangcaominh/STM32MP1/optee-os/optee-os/lib/libutils/ext/snprintk.c:138
    1338:	4a08      	ldr	r2, [pc, #32]	@ (135c <__vsnprintf+0x60>)
/home/dangcaominh/STM32MP1/optee-os/optee-os/lib/libutils/ext/snprintk.c:152
    133a:	4b07      	ldr	r3, [pc, #28]	@ (1358 <__vsnprintf+0x5c>)
/home/dangcaominh/STM32MP1/optee-os/optee-os/lib/libutils/ext/snprintk.c:138
    133c:	447a      	add	r2, pc
/home/dangcaominh/STM32MP1/optee-os/optee-os/lib/libutils/ext/snprintk.c:152
    133e:	58d3      	ldr	r3, [r2, r3]
    1340:	681a      	ldr	r2, [r3, #0]
    1342:	9b03      	ldr	r3, [sp, #12]
    1344:	405a      	eors	r2, r3
    1346:	f04f 0300 	mov.w	r3, #0
    134a:	d001      	beq.n	1350 <__vsnprintf+0x54>
    134c:	f7ff fe5e 	bl	100c <__stack_chk_fail>
    1350:	b004      	add	sp, #16
    1352:	bd70      	pop	{r4, r5, r6, pc}
    1354:	0000dd7c 	.word	0x0000dd7c
    1358:	0000000c 	.word	0x0000000c
    135c:	0000dd48 	.word	0x0000dd48

00001360 <vsnprintk>:
vsnprintk():
/home/dangcaominh/STM32MP1/optee-os/optee-os/lib/libutils/ext/snprintk.c:130
    1360:	b513      	push	{r0, r1, r4, lr}
/home/dangcaominh/STM32MP1/optee-os/optee-os/lib/libutils/ext/snprintk.c:131
    1362:	2401      	movs	r4, #1
    1364:	9400      	str	r4, [sp, #0]
    1366:	f7ff ffc9 	bl	12fc <__vsnprintf>
/home/dangcaominh/STM32MP1/optee-os/optee-os/lib/libutils/ext/snprintk.c:132
    136a:	b002      	add	sp, #8
    136c:	bd10      	pop	{r4, pc}

0000136e <snprintk>:
snprintk():
/home/dangcaominh/STM32MP1/optee-os/optee-os/lib/libutils/ext/snprintk.c:113
    136e:	b40c      	push	{r2, r3}
    1370:	b537      	push	{r0, r1, r2, r4, r5, lr}
    1372:	ab06      	add	r3, sp, #24
    1374:	4d0e      	ldr	r5, [pc, #56]	@ (13b0 <snprintk+0x42>)
    1376:	4c0f      	ldr	r4, [pc, #60]	@ (13b4 <snprintk+0x46>)
    1378:	447d      	add	r5, pc
    137a:	f853 2b04 	ldr.w	r2, [r3], #4
    137e:	592c      	ldr	r4, [r5, r4]
    1380:	6824      	ldr	r4, [r4, #0]
    1382:	9401      	str	r4, [sp, #4]
    1384:	f04f 0400 	mov.w	r4, #0
/home/dangcaominh/STM32MP1/optee-os/optee-os/lib/libutils/ext/snprintk.c:117
    1388:	9300      	str	r3, [sp, #0]
/home/dangcaominh/STM32MP1/optee-os/optee-os/lib/libutils/ext/snprintk.c:118
    138a:	f7ff ffe9 	bl	1360 <vsnprintk>
/home/dangcaominh/STM32MP1/optee-os/optee-os/lib/libutils/ext/snprintk.c:113
    138e:	4a0a      	ldr	r2, [pc, #40]	@ (13b8 <snprintk+0x4a>)
/home/dangcaominh/STM32MP1/optee-os/optee-os/lib/libutils/ext/snprintk.c:122
    1390:	4b08      	ldr	r3, [pc, #32]	@ (13b4 <snprintk+0x46>)
/home/dangcaominh/STM32MP1/optee-os/optee-os/lib/libutils/ext/snprintk.c:113
    1392:	447a      	add	r2, pc
/home/dangcaominh/STM32MP1/optee-os/optee-os/lib/libutils/ext/snprintk.c:122
    1394:	58d3      	ldr	r3, [r2, r3]
    1396:	681a      	ldr	r2, [r3, #0]
    1398:	9b01      	ldr	r3, [sp, #4]
    139a:	405a      	eors	r2, r3
    139c:	f04f 0300 	mov.w	r3, #0
    13a0:	d001      	beq.n	13a6 <snprintk+0x38>
    13a2:	f7ff fe33 	bl	100c <__stack_chk_fail>
    13a6:	b003      	add	sp, #12
    13a8:	e8bd 4030 	ldmia.w	sp!, {r4, r5, lr}
    13ac:	b002      	add	sp, #8
    13ae:	4770      	bx	lr
    13b0:	0000dd0c 	.word	0x0000dd0c
    13b4:	0000000c 	.word	0x0000000c
    13b8:	0000dcf2 	.word	0x0000dcf2

000013bc <kprintf.constprop.0>:
kprintf():
/home/dangcaominh/STM32MP1/optee-os/optee-os/lib/libutils/ext/snprintk.c:242
    13bc:	e92d 4ff0 	stmdb	sp!, {r4, r5, r6, r7, r8, r9, sl, fp, lr}
    13c0:	b09f      	sub	sp, #124	@ 0x7c
    13c2:	4680      	mov	r8, r0
    13c4:	4616      	mov	r6, r2
    13c6:	f8df 0770 	ldr.w	r0, [pc, #1904]	@ 1b38 <kprintf.constprop.0+0x77c>
    13ca:	461d      	mov	r5, r3
    13cc:	f89d 20a0 	ldrb.w	r2, [sp, #160]	@ 0xa0
    13d0:	4478      	add	r0, pc
    13d2:	9211      	str	r2, [sp, #68]	@ 0x44
    13d4:	f8df 2764 	ldr.w	r2, [pc, #1892]	@ 1b3c <kprintf.constprop.0+0x780>
    13d8:	5882      	ldr	r2, [r0, r2]
    13da:	6812      	ldr	r2, [r2, #0]
    13dc:	921d      	str	r2, [sp, #116]	@ 0x74
    13de:	f04f 0200 	mov.w	r2, #0
/home/dangcaominh/STM32MP1/optee-os/optee-os/lib/libutils/ext/snprintk.c:264 (discriminator 1)
    13e2:	910c      	str	r1, [sp, #48]	@ 0x30
    13e4:	b1d9      	cbz	r1, 141e <kprintf.constprop.0+0x62>
/home/dangcaominh/STM32MP1/optee-os/optee-os/lib/libutils/ext/snprintk.c:265
    13e6:	680b      	ldr	r3, [r1, #0]
/home/dangcaominh/STM32MP1/optee-os/optee-os/lib/libutils/ext/snprintk.c:267
    13e8:	930e      	str	r3, [sp, #56]	@ 0x38
/home/dangcaominh/STM32MP1/optee-os/optee-os/lib/libutils/ext/snprintk.c:275
    13ea:	2300      	movs	r3, #0
    13ec:	930f      	str	r3, [sp, #60]	@ 0x3c
/home/dangcaominh/STM32MP1/optee-os/optee-os/lib/libutils/ext/snprintk.c:273
    13ee:	930b      	str	r3, [sp, #44]	@ 0x2c
/home/dangcaominh/STM32MP1/optee-os/optee-os/lib/libutils/ext/snprintk.c:281 (discriminator 1)
    13f0:	f898 3000 	ldrb.w	r3, [r8]
    13f4:	2b25      	cmp	r3, #37	@ 0x25
    13f6:	d022      	beq.n	143e <kprintf.constprop.0+0x82>
/home/dangcaominh/STM32MP1/optee-os/optee-os/lib/libutils/ext/snprintk.c:281 (discriminator 2)
    13f8:	b99b      	cbnz	r3, 1422 <kprintf.constprop.0+0x66>
/home/dangcaominh/STM32MP1/optee-os/optee-os/lib/libutils/ext/snprintk.c:619 (discriminator 1)
    13fa:	9b0c      	ldr	r3, [sp, #48]	@ 0x30
    13fc:	b103      	cbz	r3, 1400 <kprintf.constprop.0+0x44>
/home/dangcaominh/STM32MP1/optee-os/optee-os/lib/libutils/ext/snprintk.c:620
    13fe:	601e      	str	r6, [r3, #0]
/home/dangcaominh/STM32MP1/optee-os/optee-os/lib/libutils/ext/snprintk.c:242
    1400:	f8df 273c 	ldr.w	r2, [pc, #1852]	@ 1b40 <kprintf.constprop.0+0x784>
/home/dangcaominh/STM32MP1/optee-os/optee-os/lib/libutils/ext/snprintk.c:622
    1404:	f8df 3734 	ldr.w	r3, [pc, #1844]	@ 1b3c <kprintf.constprop.0+0x780>
/home/dangcaominh/STM32MP1/optee-os/optee-os/lib/libutils/ext/snprintk.c:242
    1408:	447a      	add	r2, pc
/home/dangcaominh/STM32MP1/optee-os/optee-os/lib/libutils/ext/snprintk.c:622
    140a:	58d3      	ldr	r3, [r2, r3]
    140c:	681a      	ldr	r2, [r3, #0]
    140e:	9b1d      	ldr	r3, [sp, #116]	@ 0x74
    1410:	405a      	eors	r2, r3
    1412:	f04f 0300 	mov.w	r3, #0
    1416:	f000 838a 	beq.w	1b2e <kprintf.constprop.0+0x772>
    141a:	f7ff fdf7 	bl	100c <__stack_chk_fail>
/home/dangcaominh/STM32MP1/optee-os/optee-os/lib/libutils/ext/snprintk.c:267
    141e:	9b0c      	ldr	r3, [sp, #48]	@ 0x30
    1420:	e7e2      	b.n	13e8 <kprintf.constprop.0+0x2c>
/home/dangcaominh/STM32MP1/optee-os/optee-os/lib/libutils/ext/snprintk.c:282
    1422:	9a0b      	ldr	r2, [sp, #44]	@ 0x2c
    1424:	3201      	adds	r2, #1
    1426:	920b      	str	r2, [sp, #44]	@ 0x2c
/home/dangcaominh/STM32MP1/optee-os/optee-os/lib/libutils/ext/snprintk.c:283 (discriminator 1)
    1428:	b136      	cbz	r6, 1438 <kprintf.constprop.0+0x7c>
/home/dangcaominh/STM32MP1/optee-os/optee-os/lib/libutils/ext/snprintk.c:283 (discriminator 3)
    142a:	9a0c      	ldr	r2, [sp, #48]	@ 0x30
    142c:	b112      	cbz	r2, 1434 <kprintf.constprop.0+0x78>
/home/dangcaominh/STM32MP1/optee-os/optee-os/lib/libutils/ext/snprintk.c:283 (discriminator 5)
    142e:	9a0e      	ldr	r2, [sp, #56]	@ 0x38
    1430:	4296      	cmp	r6, r2
    1432:	d201      	bcs.n	1438 <kprintf.constprop.0+0x7c>
/home/dangcaominh/STM32MP1/optee-os/optee-os/lib/libutils/ext/snprintk.c:283 (discriminator 6)
    1434:	f806 3b01 	strb.w	r3, [r6], #1
/home/dangcaominh/STM32MP1/optee-os/optee-os/lib/libutils/ext/snprintk.c:281
    1438:	f108 0801 	add.w	r8, r8, #1
    143c:	e7d8      	b.n	13f0 <kprintf.constprop.0+0x34>
/home/dangcaominh/STM32MP1/optee-os/optee-os/lib/libutils/ext/snprintk.c:294
    143e:	f04f 0900 	mov.w	r9, #0
/home/dangcaominh/STM32MP1/optee-os/optee-os/lib/libutils/ext/snprintk.c:288
    1442:	f108 0801 	add.w	r8, r8, #1
/home/dangcaominh/STM32MP1/optee-os/optee-os/lib/libutils/ext/snprintk.c:292
    1446:	f8cd 9034 	str.w	r9, [sp, #52]	@ 0x34
/home/dangcaominh/STM32MP1/optee-os/optee-os/lib/libutils/ext/snprintk.c:288
    144a:	462b      	mov	r3, r5
/home/dangcaominh/STM32MP1/optee-os/optee-os/lib/libutils/ext/snprintk.c:293
    144c:	f04f 37ff 	mov.w	r7, #4294967295	@ 0xffffffff
/home/dangcaominh/STM32MP1/optee-os/optee-os/lib/libutils/ext/snprintk.c:290
    1450:	464c      	mov	r4, r9
/home/dangcaominh/STM32MP1/optee-os/optee-os/lib/libutils/ext/snprintk.c:296
    1452:	f818 bb01 	ldrb.w	fp, [r8], #1
/home/dangcaominh/STM32MP1/optee-os/optee-os/lib/libutils/ext/snprintk.c:297
    1456:	f1bb 0f39 	cmp.w	fp, #57	@ 0x39
    145a:	f300 80cf 	bgt.w	15fc <kprintf.constprop.0+0x240>
    145e:	f1bb 0f1f 	cmp.w	fp, #31
    1462:	f300 808d 	bgt.w	1580 <kprintf.constprop.0+0x1c4>
/home/dangcaominh/STM32MP1/optee-os/optee-os/lib/libutils/ext/snprintk.c:547
    1466:	f1bb 0f00 	cmp.w	fp, #0
    146a:	f040 80cc 	bne.w	1606 <kprintf.constprop.0+0x24a>
    146e:	e7c4      	b.n	13fa <kprintf.constprop.0+0x3e>
/home/dangcaominh/STM32MP1/optee-os/optee-os/lib/libutils/ext/snprintk.c:297
    1470:	f04f 092b 	mov.w	r9, #43	@ 0x2b
    1474:	e7ed      	b.n	1452 <kprintf.constprop.0+0x96>
    1476:	2a36      	cmp	r2, #54	@ 0x36
    1478:	d8f5      	bhi.n	1466 <kprintf.constprop.0+0xaa>
    147a:	a102      	add	r1, pc, #8	@ (adr r1, 1484 <kprintf.constprop.0+0xc8>)
    147c:	f851 2022 	ldr.w	r2, [r1, r2, lsl #2]
    1480:	4411      	add	r1, r2
    1482:	4708      	bx	r1
    1484:	0000024f 	.word	0x0000024f
    1488:	ffffffe3 	.word	0xffffffe3
    148c:	ffffffe3 	.word	0xffffffe3
    1490:	ffffffe3 	.word	0xffffffe3
    1494:	ffffffe3 	.word	0xffffffe3
    1498:	ffffffe3 	.word	0xffffffe3
    149c:	ffffffe3 	.word	0xffffffe3
    14a0:	ffffffe3 	.word	0xffffffe3
    14a4:	ffffffe3 	.word	0xffffffe3
    14a8:	ffffffe3 	.word	0xffffffe3
    14ac:	ffffffe3 	.word	0xffffffe3
    14b0:	000003cb 	.word	0x000003cb
    14b4:	ffffffe3 	.word	0xffffffe3
    14b8:	ffffffe3 	.word	0xffffffe3
    14bc:	ffffffe3 	.word	0xffffffe3
    14c0:	ffffffe3 	.word	0xffffffe3
    14c4:	ffffffe3 	.word	0xffffffe3
    14c8:	000004fb 	.word	0x000004fb
    14cc:	ffffffe3 	.word	0xffffffe3
    14d0:	ffffffe3 	.word	0xffffffe3
    14d4:	0000056f 	.word	0x0000056f
    14d8:	ffffffe3 	.word	0xffffffe3
    14dc:	ffffffe3 	.word	0xffffffe3
    14e0:	ffffffe3 	.word	0xffffffe3
    14e4:	ffffffe3 	.word	0xffffffe3
    14e8:	ffffffe3 	.word	0xffffffe3
    14ec:	ffffffe3 	.word	0xffffffe3
    14f0:	ffffffe3 	.word	0xffffffe3
    14f4:	ffffffe3 	.word	0xffffffe3
    14f8:	ffffffe3 	.word	0xffffffe3
    14fc:	ffffffe3 	.word	0xffffffe3
    1500:	00000239 	.word	0x00000239
    1504:	00000253 	.word	0x00000253
    1508:	ffffffe3 	.word	0xffffffe3
    150c:	ffffffe3 	.word	0xffffffe3
    1510:	ffffffe3 	.word	0xffffffe3
    1514:	00000209 	.word	0x00000209
    1518:	00000253 	.word	0x00000253
    151c:	0000020f 	.word	0x0000020f
    1520:	ffffffe3 	.word	0xffffffe3
    1524:	00000215 	.word	0x00000215
    1528:	ffffffe3 	.word	0xffffffe3
    152c:	00000393 	.word	0x00000393
    1530:	000003cf 	.word	0x000003cf
    1534:	0000042b 	.word	0x0000042b
    1538:	00000221 	.word	0x00000221
    153c:	ffffffe3 	.word	0xffffffe3
    1540:	000004c1 	.word	0x000004c1
    1544:	0000022d 	.word	0x0000022d
    1548:	000004ff 	.word	0x000004ff
    154c:	ffffffe3 	.word	0xffffffe3
    1550:	ffffffe3 	.word	0xffffffe3
    1554:	000000dd 	.word	0x000000dd
    1558:	ffffffe3 	.word	0xffffffe3
    155c:	00000233 	.word	0x00000233
/home/dangcaominh/STM32MP1/optee-os/optee-os/lib/libutils/ext/snprintk.c:480
    1560:	f8df 25e0 	ldr.w	r2, [pc, #1504]	@ 1b44 <kprintf.constprop.0+0x788>
    1564:	447a      	add	r2, pc
/home/dangcaominh/STM32MP1/optee-os/optee-os/lib/libutils/ext/snprintk.c:297
    1566:	920f      	str	r2, [sp, #60]	@ 0x3c
/home/dangcaominh/STM32MP1/optee-os/optee-os/lib/libutils/ext/snprintk.c:481
    1568:	f014 0280 	ands.w	r2, r4, #128	@ 0x80
    156c:	f000 8245 	beq.w	19fa <kprintf.constprop.0+0x63e>
/home/dangcaominh/STM32MP1/optee-os/optee-os/lib/libutils/ext/snprintk.c:481 (discriminator 10)
    1570:	3307      	adds	r3, #7
    1572:	f023 0307 	bic.w	r3, r3, #7
    1576:	461d      	mov	r5, r3
    1578:	6859      	ldr	r1, [r3, #4]
    157a:	f855 0b08 	ldr.w	r0, [r5], #8
    157e:	e243      	b.n	1a08 <kprintf.constprop.0+0x64c>
/home/dangcaominh/STM32MP1/optee-os/optee-os/lib/libutils/ext/snprintk.c:297
    1580:	f1ab 0220 	sub.w	r2, fp, #32
    1584:	2a19      	cmp	r2, #25
    1586:	f63f af6e 	bhi.w	1466 <kprintf.constprop.0+0xaa>
    158a:	a102      	add	r1, pc, #8	@ (adr r1, 1594 <kprintf.constprop.0+0x1d8>)
    158c:	f851 2022 	ldr.w	r2, [r1, r2, lsl #2]
    1590:	4411      	add	r1, r2
    1592:	4708      	bx	r1
    1594:	0000007b 	.word	0x0000007b
    1598:	fffffed3 	.word	0xfffffed3
    159c:	fffffed3 	.word	0xfffffed3
    15a0:	00000087 	.word	0x00000087
    15a4:	fffffed3 	.word	0xfffffed3
    15a8:	fffffed3 	.word	0xfffffed3
    15ac:	fffffed3 	.word	0xfffffed3
    15b0:	fffffed3 	.word	0xfffffed3
    15b4:	fffffed3 	.word	0xfffffed3
    15b8:	fffffed3 	.word	0xfffffed3
    15bc:	0000008d 	.word	0x0000008d
    15c0:	fffffedd 	.word	0xfffffedd
    15c4:	fffffed3 	.word	0xfffffed3
    15c8:	0000009d 	.word	0x0000009d
    15cc:	000000a3 	.word	0x000000a3
    15d0:	fffffed3 	.word	0xfffffed3
    15d4:	000000d3 	.word	0x000000d3
    15d8:	000000d9 	.word	0x000000d9
    15dc:	000000d9 	.word	0x000000d9
    15e0:	000000d9 	.word	0x000000d9
    15e4:	000000d9 	.word	0x000000d9
    15e8:	000000d9 	.word	0x000000d9
    15ec:	000000d9 	.word	0x000000d9
    15f0:	000000d9 	.word	0x000000d9
    15f4:	000000d9 	.word	0x000000d9
    15f8:	000000d9 	.word	0x000000d9
    15fc:	f1ab 0244 	sub.w	r2, fp, #68	@ 0x44
    1600:	2a36      	cmp	r2, #54	@ 0x36
    1602:	f67f af38 	bls.w	1476 <kprintf.constprop.0+0xba>
/home/dangcaominh/STM32MP1/optee-os/optee-os/lib/libutils/ext/snprintk.c:551
    1606:	f88d b04c 	strb.w	fp, [sp, #76]	@ 0x4c
/home/dangcaominh/STM32MP1/optee-os/optee-os/lib/libutils/ext/snprintk.c:554
    160a:	461d      	mov	r5, r3
    160c:	e05b      	b.n	16c6 <kprintf.constprop.0+0x30a>
/home/dangcaominh/STM32MP1/optee-os/optee-os/lib/libutils/ext/snprintk.c:305
    160e:	f1b9 0f00 	cmp.w	r9, #0
    1612:	bf08      	it	eq
    1614:	f04f 0920 	moveq.w	r9, #32
    1618:	e71b      	b.n	1452 <kprintf.constprop.0+0x96>
/home/dangcaominh/STM32MP1/optee-os/optee-os/lib/libutils/ext/snprintk.c:308
    161a:	f044 0401 	orr.w	r4, r4, #1
/home/dangcaominh/STM32MP1/optee-os/optee-os/lib/libutils/ext/snprintk.c:309
    161e:	e718      	b.n	1452 <kprintf.constprop.0+0x96>
/home/dangcaominh/STM32MP1/optee-os/optee-os/lib/libutils/ext/snprintk.c:317
    1620:	f853 2b04 	ldr.w	r2, [r3], #4
    1624:	920d      	str	r2, [sp, #52]	@ 0x34
/home/dangcaominh/STM32MP1/optee-os/optee-os/lib/libutils/ext/snprintk.c:317 (discriminator 1)
    1626:	2a00      	cmp	r2, #0
    1628:	f6bf af13 	bge.w	1452 <kprintf.constprop.0+0x96>
/home/dangcaominh/STM32MP1/optee-os/optee-os/lib/libutils/ext/snprintk.c:319
    162c:	4252      	negs	r2, r2
    162e:	920d      	str	r2, [sp, #52]	@ 0x34
/home/dangcaominh/STM32MP1/optee-os/optee-os/lib/libutils/ext/snprintk.c:322
    1630:	f044 0404 	orr.w	r4, r4, #4
/home/dangcaominh/STM32MP1/optee-os/optee-os/lib/libutils/ext/snprintk.c:323
    1634:	e70d      	b.n	1452 <kprintf.constprop.0+0x96>
/home/dangcaominh/STM32MP1/optee-os/optee-os/lib/libutils/ext/snprintk.c:328
    1636:	f818 bb01 	ldrb.w	fp, [r8], #1
    163a:	f1bb 0f2a 	cmp.w	fp, #42	@ 0x2a
    163e:	d10f      	bne.n	1660 <kprintf.constprop.0+0x2a4>
/home/dangcaominh/STM32MP1/optee-os/optee-os/lib/libutils/ext/snprintk.c:330
    1640:	f853 7b04 	ldr.w	r7, [r3], #4
    1644:	ea47 77e7 	orr.w	r7, r7, r7, asr #31
/home/dangcaominh/STM32MP1/optee-os/optee-os/lib/libutils/ext/snprintk.c:331
    1648:	e703      	b.n	1452 <kprintf.constprop.0+0x96>
/home/dangcaominh/STM32MP1/optee-os/optee-os/lib/libutils/ext/snprintk.c:335
    164a:	fb01 2707 	mla	r7, r1, r7, r2
/home/dangcaominh/STM32MP1/optee-os/optee-os/lib/libutils/ext/snprintk.c:336
    164e:	f818 bb01 	ldrb.w	fp, [r8], #1
/home/dangcaominh/STM32MP1/optee-os/optee-os/lib/libutils/ext/snprintk.c:334
    1652:	f1ab 0230 	sub.w	r2, fp, #48	@ 0x30
    1656:	2a09      	cmp	r2, #9
    1658:	d9f7      	bls.n	164a <kprintf.constprop.0+0x28e>
/home/dangcaominh/STM32MP1/optee-os/optee-os/lib/libutils/ext/snprintk.c:338
    165a:	ea47 77e7 	orr.w	r7, r7, r7, asr #31
/home/dangcaominh/STM32MP1/optee-os/optee-os/lib/libutils/ext/snprintk.c:339
    165e:	e6fa      	b.n	1456 <kprintf.constprop.0+0x9a>
/home/dangcaominh/STM32MP1/optee-os/optee-os/lib/libutils/ext/snprintk.c:333
    1660:	2700      	movs	r7, #0
/home/dangcaominh/STM32MP1/optee-os/optee-os/lib/libutils/ext/snprintk.c:335
    1662:	210a      	movs	r1, #10
    1664:	e7f5      	b.n	1652 <kprintf.constprop.0+0x296>
/home/dangcaominh/STM32MP1/optee-os/optee-os/lib/libutils/ext/snprintk.c:346
    1666:	f444 6480 	orr.w	r4, r4, #1024	@ 0x400
/home/dangcaominh/STM32MP1/optee-os/optee-os/lib/libutils/ext/snprintk.c:347
    166a:	e6f2      	b.n	1452 <kprintf.constprop.0+0x96>
/home/dangcaominh/STM32MP1/optee-os/optee-os/lib/libutils/ext/snprintk.c:352
    166c:	210a      	movs	r1, #10
/home/dangcaominh/STM32MP1/optee-os/optee-os/lib/libutils/ext/snprintk.c:297
    166e:	2200      	movs	r2, #0
    1670:	920d      	str	r2, [sp, #52]	@ 0x34
/home/dangcaominh/STM32MP1/optee-os/optee-os/lib/libutils/ext/snprintk.c:352
    1672:	980d      	ldr	r0, [sp, #52]	@ 0x34
    1674:	f1ab 0230 	sub.w	r2, fp, #48	@ 0x30
/home/dangcaominh/STM32MP1/optee-os/optee-os/lib/libutils/ext/snprintk.c:353
    1678:	f818 bb01 	ldrb.w	fp, [r8], #1
/home/dangcaominh/STM32MP1/optee-os/optee-os/lib/libutils/ext/snprintk.c:352
    167c:	fb01 2200 	mla	r2, r1, r0, r2
    1680:	920d      	str	r2, [sp, #52]	@ 0x34
/home/dangcaominh/STM32MP1/optee-os/optee-os/lib/libutils/ext/snprintk.c:354 (discriminator 1)
    1682:	f1ab 0230 	sub.w	r2, fp, #48	@ 0x30
    1686:	2a09      	cmp	r2, #9
    1688:	d9f3      	bls.n	1672 <kprintf.constprop.0+0x2b6>
    168a:	e6e4      	b.n	1456 <kprintf.constprop.0+0x9a>
/home/dangcaominh/STM32MP1/optee-os/optee-os/lib/libutils/ext/snprintk.c:358
    168c:	f044 0440 	orr.w	r4, r4, #64	@ 0x40
/home/dangcaominh/STM32MP1/optee-os/optee-os/lib/libutils/ext/snprintk.c:359
    1690:	e6df      	b.n	1452 <kprintf.constprop.0+0x96>
/home/dangcaominh/STM32MP1/optee-os/optee-os/lib/libutils/ext/snprintk.c:361
    1692:	f044 0480 	orr.w	r4, r4, #128	@ 0x80
/home/dangcaominh/STM32MP1/optee-os/optee-os/lib/libutils/ext/snprintk.c:362
    1696:	e6dc      	b.n	1452 <kprintf.constprop.0+0x96>
/home/dangcaominh/STM32MP1/optee-os/optee-os/lib/libutils/ext/snprintk.c:364
    1698:	f898 2000 	ldrb.w	r2, [r8]
    169c:	2a6c      	cmp	r2, #108	@ 0x6c
    169e:	d104      	bne.n	16aa <kprintf.constprop.0+0x2ee>
/home/dangcaominh/STM32MP1/optee-os/optee-os/lib/libutils/ext/snprintk.c:328
    16a0:	f108 0801 	add.w	r8, r8, #1
/home/dangcaominh/STM32MP1/optee-os/optee-os/lib/libutils/ext/snprintk.c:372
    16a4:	f044 0420 	orr.w	r4, r4, #32
/home/dangcaominh/STM32MP1/optee-os/optee-os/lib/libutils/ext/snprintk.c:373
    16a8:	e6d3      	b.n	1452 <kprintf.constprop.0+0x96>
/home/dangcaominh/STM32MP1/optee-os/optee-os/lib/libutils/ext/snprintk.c:368
    16aa:	f044 0410 	orr.w	r4, r4, #16
    16ae:	e6d0      	b.n	1452 <kprintf.constprop.0+0x96>
/home/dangcaominh/STM32MP1/optee-os/optee-os/lib/libutils/ext/snprintk.c:375
    16b0:	f444 7480 	orr.w	r4, r4, #256	@ 0x100
/home/dangcaominh/STM32MP1/optee-os/optee-os/lib/libutils/ext/snprintk.c:376
    16b4:	e6cd      	b.n	1452 <kprintf.constprop.0+0x96>
/home/dangcaominh/STM32MP1/optee-os/optee-os/lib/libutils/ext/snprintk.c:378
    16b6:	f444 7400 	orr.w	r4, r4, #512	@ 0x200
/home/dangcaominh/STM32MP1/optee-os/optee-os/lib/libutils/ext/snprintk.c:379
    16ba:	e6ca      	b.n	1452 <kprintf.constprop.0+0x96>
/home/dangcaominh/STM32MP1/optee-os/optee-os/lib/libutils/ext/snprintk.c:381
    16bc:	461d      	mov	r5, r3
/home/dangcaominh/STM32MP1/optee-os/optee-os/lib/libutils/ext/snprintk.c:381 (discriminator 1)
    16be:	f855 3b04 	ldr.w	r3, [r5], #4
    16c2:	f88d 304c 	strb.w	r3, [sp, #76]	@ 0x4c
/home/dangcaominh/STM32MP1/optee-os/optee-os/lib/libutils/ext/snprintk.c:291
    16c6:	2000      	movs	r0, #0
/home/dangcaominh/STM32MP1/optee-os/optee-os/lib/libutils/ext/snprintk.c:552
    16c8:	2701      	movs	r7, #1
/home/dangcaominh/STM32MP1/optee-os/optee-os/lib/libutils/ext/snprintk.c:553
    16ca:	4681      	mov	r9, r0
/home/dangcaominh/STM32MP1/optee-os/optee-os/lib/libutils/ext/snprintk.c:550
    16cc:	f10d 0a4c 	add.w	sl, sp, #76	@ 0x4c
/home/dangcaominh/STM32MP1/optee-os/optee-os/lib/libutils/ext/snprintk.c:554
    16d0:	e03b      	b.n	174a <kprintf.constprop.0+0x38e>
/home/dangcaominh/STM32MP1/optee-os/optee-os/lib/libutils/ext/snprintk.c:386
    16d2:	f044 0410 	orr.w	r4, r4, #16
/home/dangcaominh/STM32MP1/optee-os/optee-os/lib/libutils/ext/snprintk.c:390
    16d6:	0622      	lsls	r2, r4, #24
    16d8:	f140 8084 	bpl.w	17e4 <kprintf.constprop.0+0x428>
/home/dangcaominh/STM32MP1/optee-os/optee-os/lib/libutils/ext/snprintk.c:390 (discriminator 10)
    16dc:	3307      	adds	r3, #7
    16de:	f023 0307 	bic.w	r3, r3, #7
    16e2:	461d      	mov	r5, r3
/home/dangcaominh/STM32MP1/optee-os/optee-os/lib/libutils/ext/snprintk.c:390 (discriminator 1)
    16e4:	6859      	ldr	r1, [r3, #4]
    16e6:	f855 0b08 	ldr.w	r0, [r5], #8
/home/dangcaominh/STM32MP1/optee-os/optee-os/lib/libutils/ext/snprintk.c:391
    16ea:	2900      	cmp	r1, #0
    16ec:	f280 8155 	bge.w	199a <kprintf.constprop.0+0x5de>
/home/dangcaominh/STM32MP1/optee-os/optee-os/lib/libutils/ext/snprintk.c:392
    16f0:	4240      	negs	r0, r0
/home/dangcaominh/STM32MP1/optee-os/optee-os/lib/libutils/ext/snprintk.c:395
    16f2:	f04f 0301 	mov.w	r3, #1
/home/dangcaominh/STM32MP1/optee-os/optee-os/lib/libutils/ext/snprintk.c:392
    16f6:	eb61 0141 	sbc.w	r1, r1, r1, lsl #1
/home/dangcaominh/STM32MP1/optee-os/optee-os/lib/libutils/ext/snprintk.c:393
    16fa:	f04f 092d 	mov.w	r9, #45	@ 0x2d
/home/dangcaominh/STM32MP1/optee-os/optee-os/lib/libutils/ext/snprintk.c:494
    16fe:	2f00      	cmp	r7, #0
    1700:	f280 81a4 	bge.w	1a4c <kprintf.constprop.0+0x690>
/home/dangcaominh/STM32MP1/optee-os/optee-os/lib/libutils/ext/snprintk.c:509
    1704:	2b01      	cmp	r3, #1
    1706:	f000 814a 	beq.w	199e <kprintf.constprop.0+0x5e2>
    170a:	2b02      	cmp	r3, #2
    170c:	f000 810a 	beq.w	1924 <kprintf.constprop.0+0x568>
/home/dangcaominh/STM32MP1/optee-os/optee-os/lib/libutils/ext/snprintk.c:494
    1710:	f10d 0a71 	add.w	sl, sp, #113	@ 0x71
/home/dangcaominh/STM32MP1/optee-os/optee-os/lib/libutils/ext/snprintk.c:512
    1714:	f000 0307 	and.w	r3, r0, #7
    1718:	4652      	mov	r2, sl
/home/dangcaominh/STM32MP1/optee-os/optee-os/lib/libutils/ext/snprintk.c:513
    171a:	08c0      	lsrs	r0, r0, #3
/home/dangcaominh/STM32MP1/optee-os/optee-os/lib/libutils/ext/snprintk.c:512
    171c:	3330      	adds	r3, #48	@ 0x30
/home/dangcaominh/STM32MP1/optee-os/optee-os/lib/libutils/ext/snprintk.c:513
    171e:	ea40 7041 	orr.w	r0, r0, r1, lsl #29
    1722:	08c9      	lsrs	r1, r1, #3
/home/dangcaominh/STM32MP1/optee-os/optee-os/lib/libutils/ext/snprintk.c:514 (discriminator 1)
    1724:	ea50 0c01 	orrs.w	ip, r0, r1
/home/dangcaominh/STM32MP1/optee-os/optee-os/lib/libutils/ext/snprintk.c:512
    1728:	f80a 3d01 	strb.w	r3, [sl, #-1]!
/home/dangcaominh/STM32MP1/optee-os/optee-os/lib/libutils/ext/snprintk.c:514 (discriminator 1)
    172c:	d1f2      	bne.n	1714 <kprintf.constprop.0+0x358>
/home/dangcaominh/STM32MP1/optee-os/optee-os/lib/libutils/ext/snprintk.c:516
    172e:	07e1      	lsls	r1, r4, #31
    1730:	d506      	bpl.n	1740 <kprintf.constprop.0+0x384>
/home/dangcaominh/STM32MP1/optee-os/optee-os/lib/libutils/ext/snprintk.c:516 (discriminator 1)
    1732:	2b30      	cmp	r3, #48	@ 0x30
    1734:	d004      	beq.n	1740 <kprintf.constprop.0+0x384>
/home/dangcaominh/STM32MP1/optee-os/optee-os/lib/libutils/ext/snprintk.c:517
    1736:	2330      	movs	r3, #48	@ 0x30
    1738:	f80a 3c01 	strb.w	r3, [sl, #-1]
    173c:	f1a2 0a02 	sub.w	sl, r2, #2
/home/dangcaominh/STM32MP1/optee-os/optee-os/lib/libutils/ext/snprintk.c:494
    1740:	4638      	mov	r0, r7
/home/dangcaominh/STM32MP1/optee-os/optee-os/lib/libutils/ext/snprintk.c:543
    1742:	f10d 0771 	add.w	r7, sp, #113	@ 0x71
    1746:	eba7 070a 	sub.w	r7, r7, sl
/home/dangcaominh/STM32MP1/optee-os/optee-os/lib/libutils/ext/snprintk.c:571
    174a:	42b8      	cmp	r0, r7
    174c:	4603      	mov	r3, r0
    174e:	bfb8      	it	lt
    1750:	463b      	movlt	r3, r7
/home/dangcaominh/STM32MP1/optee-os/optee-os/lib/libutils/ext/snprintk.c:572
    1752:	f1b9 0f00 	cmp.w	r9, #0
    1756:	f000 819d 	beq.w	1a94 <kprintf.constprop.0+0x6d8>
/home/dangcaominh/STM32MP1/optee-os/optee-os/lib/libutils/ext/snprintk.c:573
    175a:	3301      	adds	r3, #1
/home/dangcaominh/STM32MP1/optee-os/optee-os/lib/libutils/ext/snprintk.c:578
    175c:	9a0b      	ldr	r2, [sp, #44]	@ 0x2c
    175e:	990d      	ldr	r1, [sp, #52]	@ 0x34
    1760:	428b      	cmp	r3, r1
    1762:	bfac      	ite	ge
    1764:	18d2      	addge	r2, r2, r3
    1766:	1852      	addlt	r2, r2, r1
/home/dangcaominh/STM32MP1/optee-os/optee-os/lib/libutils/ext/snprintk.c:581
    1768:	f240 4104 	movw	r1, #1028	@ 0x404
    176c:	ea14 0e01 	ands.w	lr, r4, r1
/home/dangcaominh/STM32MP1/optee-os/optee-os/lib/libutils/ext/snprintk.c:578
    1770:	920b      	str	r2, [sp, #44]	@ 0x2c
/home/dangcaominh/STM32MP1/optee-os/optee-os/lib/libutils/ext/snprintk.c:581
    1772:	d104      	bne.n	177e <kprintf.constprop.0+0x3c2>
/home/dangcaominh/STM32MP1/optee-os/optee-os/lib/libutils/ext/snprintk.c:582
    1774:	9a0d      	ldr	r2, [sp, #52]	@ 0x34
    1776:	1ad2      	subs	r2, r2, r3
/home/dangcaominh/STM32MP1/optee-os/optee-os/lib/libutils/ext/snprintk.c:583
    1778:	2a00      	cmp	r2, #0
    177a:	f300 818f 	bgt.w	1a9c <kprintf.constprop.0+0x6e0>
/home/dangcaominh/STM32MP1/optee-os/optee-os/lib/libutils/ext/snprintk.c:588
    177e:	f1b9 0f00 	cmp.w	r9, #0
    1782:	f000 8197 	beq.w	1ab4 <kprintf.constprop.0+0x6f8>
/home/dangcaominh/STM32MP1/optee-os/optee-os/lib/libutils/ext/snprintk.c:589 (discriminator 1)
    1786:	b136      	cbz	r6, 1796 <kprintf.constprop.0+0x3da>
/home/dangcaominh/STM32MP1/optee-os/optee-os/lib/libutils/ext/snprintk.c:589 (discriminator 3)
    1788:	9a0c      	ldr	r2, [sp, #48]	@ 0x30
    178a:	b112      	cbz	r2, 1792 <kprintf.constprop.0+0x3d6>
/home/dangcaominh/STM32MP1/optee-os/optee-os/lib/libutils/ext/snprintk.c:589 (discriminator 5)
    178c:	9a0e      	ldr	r2, [sp, #56]	@ 0x38
    178e:	42b2      	cmp	r2, r6
    1790:	d901      	bls.n	1796 <kprintf.constprop.0+0x3da>
/home/dangcaominh/STM32MP1/optee-os/optee-os/lib/libutils/ext/snprintk.c:589 (discriminator 6)
    1792:	f806 9b01 	strb.w	r9, [r6], #1
/home/dangcaominh/STM32MP1/optee-os/optee-os/lib/libutils/ext/snprintk.c:596
    1796:	f5be 6f80 	cmp.w	lr, #1024	@ 0x400
    179a:	d106      	bne.n	17aa <kprintf.constprop.0+0x3ee>
/home/dangcaominh/STM32MP1/optee-os/optee-os/lib/libutils/ext/snprintk.c:597
    179c:	9a0d      	ldr	r2, [sp, #52]	@ 0x34
/home/dangcaominh/STM32MP1/optee-os/optee-os/lib/libutils/ext/snprintk.c:599 (discriminator 6)
    179e:	f04f 0c30 	mov.w	ip, #48	@ 0x30
/home/dangcaominh/STM32MP1/optee-os/optee-os/lib/libutils/ext/snprintk.c:597
    17a2:	1ad2      	subs	r2, r2, r3
/home/dangcaominh/STM32MP1/optee-os/optee-os/lib/libutils/ext/snprintk.c:598
    17a4:	2a00      	cmp	r2, #0
    17a6:	f300 81a1 	bgt.w	1aec <kprintf.constprop.0+0x730>
/home/dangcaominh/STM32MP1/optee-os/optee-os/lib/libutils/ext/snprintk.c:603
    17aa:	1bc0      	subs	r0, r0, r7
/home/dangcaominh/STM32MP1/optee-os/optee-os/lib/libutils/ext/snprintk.c:605 (discriminator 6)
    17ac:	2230      	movs	r2, #48	@ 0x30
/home/dangcaominh/STM32MP1/optee-os/optee-os/lib/libutils/ext/snprintk.c:604
    17ae:	2800      	cmp	r0, #0
    17b0:	f300 81a6 	bgt.w	1b00 <kprintf.constprop.0+0x744>
    17b4:	4457      	add	r7, sl
/home/dangcaominh/STM32MP1/optee-os/optee-os/lib/libutils/ext/snprintk.c:608 (discriminator 1)
    17b6:	45ba      	cmp	sl, r7
    17b8:	f040 81ac 	bne.w	1b14 <kprintf.constprop.0+0x758>
/home/dangcaominh/STM32MP1/optee-os/optee-os/lib/libutils/ext/snprintk.c:611
    17bc:	0762      	lsls	r2, r4, #29
    17be:	f57f ae17 	bpl.w	13f0 <kprintf.constprop.0+0x34>
/home/dangcaominh/STM32MP1/optee-os/optee-os/lib/libutils/ext/snprintk.c:612
    17c2:	9a0d      	ldr	r2, [sp, #52]	@ 0x34
    17c4:	1ad3      	subs	r3, r2, r3
/home/dangcaominh/STM32MP1/optee-os/optee-os/lib/libutils/ext/snprintk.c:613
    17c6:	2b00      	cmp	r3, #0
    17c8:	f77f ae12 	ble.w	13f0 <kprintf.constprop.0+0x34>
/home/dangcaominh/STM32MP1/optee-os/optee-os/lib/libutils/ext/snprintk.c:614 (discriminator 1)
    17cc:	b146      	cbz	r6, 17e0 <kprintf.constprop.0+0x424>
/home/dangcaominh/STM32MP1/optee-os/optee-os/lib/libutils/ext/snprintk.c:614 (discriminator 3)
    17ce:	9a0c      	ldr	r2, [sp, #48]	@ 0x30
    17d0:	b112      	cbz	r2, 17d8 <kprintf.constprop.0+0x41c>
/home/dangcaominh/STM32MP1/optee-os/optee-os/lib/libutils/ext/snprintk.c:614 (discriminator 5)
    17d2:	9a0e      	ldr	r2, [sp, #56]	@ 0x38
    17d4:	42b2      	cmp	r2, r6
    17d6:	d903      	bls.n	17e0 <kprintf.constprop.0+0x424>
/home/dangcaominh/STM32MP1/optee-os/optee-os/lib/libutils/ext/snprintk.c:614 (discriminator 6)
    17d8:	f04f 0220 	mov.w	r2, #32
    17dc:	f806 2b01 	strb.w	r2, [r6], #1
    17e0:	3b01      	subs	r3, #1
    17e2:	e7f0      	b.n	17c6 <kprintf.constprop.0+0x40a>
/home/dangcaominh/STM32MP1/optee-os/optee-os/lib/libutils/ext/snprintk.c:390 (discriminator 2)
    17e4:	05e5      	lsls	r5, r4, #23
    17e6:	d504      	bpl.n	17f2 <kprintf.constprop.0+0x436>
/home/dangcaominh/STM32MP1/optee-os/optee-os/lib/libutils/ext/snprintk.c:390 (discriminator 7)
    17e8:	461d      	mov	r5, r3
/home/dangcaominh/STM32MP1/optee-os/optee-os/lib/libutils/ext/snprintk.c:390 (discriminator 1)
    17ea:	f855 0b04 	ldr.w	r0, [r5], #4
    17ee:	17c1      	asrs	r1, r0, #31
    17f0:	e77b      	b.n	16ea <kprintf.constprop.0+0x32e>
/home/dangcaominh/STM32MP1/optee-os/optee-os/lib/libutils/ext/snprintk.c:390 (discriminator 5)
    17f2:	05a0      	lsls	r0, r4, #22
    17f4:	d4f8      	bmi.n	17e8 <kprintf.constprop.0+0x42c>
/home/dangcaominh/STM32MP1/optee-os/optee-os/lib/libutils/ext/snprintk.c:390 (discriminator 8)
    17f6:	06a1      	lsls	r1, r4, #26
    17f8:	f53f af70 	bmi.w	16dc <kprintf.constprop.0+0x320>
/home/dangcaominh/STM32MP1/optee-os/optee-os/lib/libutils/ext/snprintk.c:390 (discriminator 11)
    17fc:	06e2      	lsls	r2, r4, #27
/home/dangcaominh/STM32MP1/optee-os/optee-os/lib/libutils/ext/snprintk.c:317
    17fe:	461d      	mov	r5, r3
    1800:	f855 1b04 	ldr.w	r1, [r5], #4
/home/dangcaominh/STM32MP1/optee-os/optee-os/lib/libutils/ext/snprintk.c:390 (discriminator 11)
    1804:	d501      	bpl.n	180a <kprintf.constprop.0+0x44e>
/home/dangcaominh/STM32MP1/optee-os/optee-os/lib/libutils/ext/snprintk.c:390 (discriminator 1)
    1806:	4608      	mov	r0, r1
    1808:	e7f1      	b.n	17ee <kprintf.constprop.0+0x432>
/home/dangcaominh/STM32MP1/optee-os/optee-os/lib/libutils/ext/snprintk.c:390 (discriminator 14)
    180a:	0663      	lsls	r3, r4, #25
    180c:	d5fb      	bpl.n	1806 <kprintf.constprop.0+0x44a>
/home/dangcaominh/STM32MP1/optee-os/optee-os/lib/libutils/ext/snprintk.c:390 (discriminator 1)
    180e:	b208      	sxth	r0, r1
    1810:	f341 31c0 	sbfx	r1, r1, #15, #1
    1814:	e769      	b.n	16ea <kprintf.constprop.0+0x32e>
/home/dangcaominh/STM32MP1/optee-os/optee-os/lib/libutils/ext/snprintk.c:398
    1816:	0620      	lsls	r0, r4, #24
    1818:	d506      	bpl.n	1828 <kprintf.constprop.0+0x46c>
/home/dangcaominh/STM32MP1/optee-os/optee-os/lib/libutils/ext/snprintk.c:405 (discriminator 1)
    181a:	990b      	ldr	r1, [sp, #44]	@ 0x2c
    181c:	681a      	ldr	r2, [r3, #0]
    181e:	980b      	ldr	r0, [sp, #44]	@ 0x2c
    1820:	17c9      	asrs	r1, r1, #31
    1822:	e9c2 0100 	strd	r0, r1, [r2]
    1826:	e004      	b.n	1832 <kprintf.constprop.0+0x476>
/home/dangcaominh/STM32MP1/optee-os/optee-os/lib/libutils/ext/snprintk.c:400
    1828:	05e1      	lsls	r1, r4, #23
    182a:	d504      	bpl.n	1836 <kprintf.constprop.0+0x47a>
/home/dangcaominh/STM32MP1/optee-os/optee-os/lib/libutils/ext/snprintk.c:401 (discriminator 1)
    182c:	681a      	ldr	r2, [r3, #0]
    182e:	990b      	ldr	r1, [sp, #44]	@ 0x2c
    1830:	6011      	str	r1, [r2, #0]
/home/dangcaominh/STM32MP1/optee-os/optee-os/lib/libutils/ext/snprintk.c:317
    1832:	1d1d      	adds	r5, r3, #4
    1834:	e5dc      	b.n	13f0 <kprintf.constprop.0+0x34>
/home/dangcaominh/STM32MP1/optee-os/optee-os/lib/libutils/ext/snprintk.c:402
    1836:	05a2      	lsls	r2, r4, #22
    1838:	d4f8      	bmi.n	182c <kprintf.constprop.0+0x470>
/home/dangcaominh/STM32MP1/optee-os/optee-os/lib/libutils/ext/snprintk.c:404
    183a:	06a7      	lsls	r7, r4, #26
    183c:	d4ed      	bmi.n	181a <kprintf.constprop.0+0x45e>
/home/dangcaominh/STM32MP1/optee-os/optee-os/lib/libutils/ext/snprintk.c:406
    183e:	06e5      	lsls	r5, r4, #27
    1840:	d4f4      	bmi.n	182c <kprintf.constprop.0+0x470>
/home/dangcaominh/STM32MP1/optee-os/optee-os/lib/libutils/ext/snprintk.c:408
    1842:	0664      	lsls	r4, r4, #25
    1844:	d5f2      	bpl.n	182c <kprintf.constprop.0+0x470>
/home/dangcaominh/STM32MP1/optee-os/optee-os/lib/libutils/ext/snprintk.c:409 (discriminator 1)
    1846:	681a      	ldr	r2, [r3, #0]
    1848:	990b      	ldr	r1, [sp, #44]	@ 0x2c
    184a:	8011      	strh	r1, [r2, #0]
    184c:	e7f1      	b.n	1832 <kprintf.constprop.0+0x476>
/home/dangcaominh/STM32MP1/optee-os/optee-os/lib/libutils/ext/snprintk.c:414
    184e:	f044 0410 	orr.w	r4, r4, #16
/home/dangcaominh/STM32MP1/optee-os/optee-os/lib/libutils/ext/snprintk.c:417
    1852:	f014 0280 	ands.w	r2, r4, #128	@ 0x80
    1856:	d007      	beq.n	1868 <kprintf.constprop.0+0x4ac>
/home/dangcaominh/STM32MP1/optee-os/optee-os/lib/libutils/ext/snprintk.c:417 (discriminator 10)
    1858:	3307      	adds	r3, #7
    185a:	f023 0307 	bic.w	r3, r3, #7
    185e:	461d      	mov	r5, r3
    1860:	6859      	ldr	r1, [r3, #4]
    1862:	f855 0b08 	ldr.w	r0, [r5], #8
    1866:	e006      	b.n	1876 <kprintf.constprop.0+0x4ba>
/home/dangcaominh/STM32MP1/optee-os/optee-os/lib/libutils/ext/snprintk.c:417 (discriminator 2)
    1868:	f414 7180 	ands.w	r1, r4, #256	@ 0x100
    186c:	d00a      	beq.n	1884 <kprintf.constprop.0+0x4c8>
/home/dangcaominh/STM32MP1/optee-os/optee-os/lib/libutils/ext/snprintk.c:417 (discriminator 4)
    186e:	461d      	mov	r5, r3
/home/dangcaominh/STM32MP1/optee-os/optee-os/lib/libutils/ext/snprintk.c:417 (discriminator 1)
    1870:	4611      	mov	r1, r2
    1872:	f855 0b04 	ldr.w	r0, [r5], #4
/home/dangcaominh/STM32MP1/optee-os/optee-os/lib/libutils/ext/snprintk.c:494
    1876:	2f00      	cmp	r7, #0
    1878:	f04f 0900 	mov.w	r9, #0
    187c:	f6ff af48 	blt.w	1710 <kprintf.constprop.0+0x354>
    1880:	464b      	mov	r3, r9
    1882:	e0e3      	b.n	1a4c <kprintf.constprop.0+0x690>
/home/dangcaominh/STM32MP1/optee-os/optee-os/lib/libutils/ext/snprintk.c:417 (discriminator 5)
    1884:	05a0      	lsls	r0, r4, #22
    1886:	d503      	bpl.n	1890 <kprintf.constprop.0+0x4d4>
/home/dangcaominh/STM32MP1/optee-os/optee-os/lib/libutils/ext/snprintk.c:417 (discriminator 7)
    1888:	461d      	mov	r5, r3
/home/dangcaominh/STM32MP1/optee-os/optee-os/lib/libutils/ext/snprintk.c:417 (discriminator 1)
    188a:	f855 0b04 	ldr.w	r0, [r5], #4
    188e:	e7f2      	b.n	1876 <kprintf.constprop.0+0x4ba>
/home/dangcaominh/STM32MP1/optee-os/optee-os/lib/libutils/ext/snprintk.c:417 (discriminator 8)
    1890:	f014 0120 	ands.w	r1, r4, #32
    1894:	d1e0      	bne.n	1858 <kprintf.constprop.0+0x49c>
/home/dangcaominh/STM32MP1/optee-os/optee-os/lib/libutils/ext/snprintk.c:317
    1896:	461d      	mov	r5, r3
/home/dangcaominh/STM32MP1/optee-os/optee-os/lib/libutils/ext/snprintk.c:417 (discriminator 11)
    1898:	f014 0310 	ands.w	r3, r4, #16
/home/dangcaominh/STM32MP1/optee-os/optee-os/lib/libutils/ext/snprintk.c:317
    189c:	f855 0b04 	ldr.w	r0, [r5], #4
/home/dangcaominh/STM32MP1/optee-os/optee-os/lib/libutils/ext/snprintk.c:417 (discriminator 11)
    18a0:	d1e9      	bne.n	1876 <kprintf.constprop.0+0x4ba>
/home/dangcaominh/STM32MP1/optee-os/optee-os/lib/libutils/ext/snprintk.c:417 (discriminator 14)
    18a2:	f014 0140 	ands.w	r1, r4, #64	@ 0x40
    18a6:	d0e6      	beq.n	1876 <kprintf.constprop.0+0x4ba>
/home/dangcaominh/STM32MP1/optee-os/optee-os/lib/libutils/ext/snprintk.c:417 (discriminator 1)
    18a8:	b280      	uxth	r0, r0
    18aa:	4619      	mov	r1, r3
    18ac:	e7e3      	b.n	1876 <kprintf.constprop.0+0x4ba>
/home/dangcaominh/STM32MP1/optee-os/optee-os/lib/libutils/ext/snprintk.c:317
    18ae:	461d      	mov	r5, r3
/home/dangcaominh/STM32MP1/optee-os/optee-os/lib/libutils/ext/snprintk.c:421
    18b0:	9b11      	ldr	r3, [sp, #68]	@ 0x44
    18b2:	f855 0b04 	ldr.w	r0, [r5], #4
    18b6:	b343      	cbz	r3, 190a <kprintf.constprop.0+0x54e>
/home/dangcaominh/STM32MP1/optee-os/optee-os/lib/libutils/ext/snprintk.c:421 (discriminator 1)
    18b8:	f898 3000 	ldrb.w	r3, [r8]
    18bc:	2b55      	cmp	r3, #85	@ 0x55
    18be:	d124      	bne.n	190a <kprintf.constprop.0+0x54e>
/home/dangcaominh/STM32MP1/optee-os/optee-os/lib/libutils/ext/snprintk.c:421 (discriminator 2)
    18c0:	f898 3001 	ldrb.w	r3, [r8, #1]
    18c4:	2b6c      	cmp	r3, #108	@ 0x6c
    18c6:	d120      	bne.n	190a <kprintf.constprop.0+0x54e>
uuid2str():
/home/dangcaominh/STM32MP1/optee-os/optee-os/lib/libutils/ext/snprintk.c:229
    18c8:	7bc3      	ldrb	r3, [r0, #15]
    18ca:	f10d 0a4c 	add.w	sl, sp, #76	@ 0x4c
    18ce:	4a9e      	ldr	r2, [pc, #632]	@ (1b48 <kprintf.constprop.0+0x78c>)
    18d0:	2125      	movs	r1, #37	@ 0x25
    18d2:	9309      	str	r3, [sp, #36]	@ 0x24
kprintf():
/home/dangcaominh/STM32MP1/optee-os/optee-os/lib/libutils/ext/snprintk.c:426
    18d4:	f108 0802 	add.w	r8, r8, #2
uuid2str():
/home/dangcaominh/STM32MP1/optee-os/optee-os/lib/libutils/ext/snprintk.c:229
    18d8:	7b83      	ldrb	r3, [r0, #14]
    18da:	447a      	add	r2, pc
    18dc:	9308      	str	r3, [sp, #32]
    18de:	7b43      	ldrb	r3, [r0, #13]
    18e0:	9307      	str	r3, [sp, #28]
    18e2:	7b03      	ldrb	r3, [r0, #12]
    18e4:	9306      	str	r3, [sp, #24]
    18e6:	7ac3      	ldrb	r3, [r0, #11]
    18e8:	9305      	str	r3, [sp, #20]
    18ea:	7a83      	ldrb	r3, [r0, #10]
    18ec:	9304      	str	r3, [sp, #16]
    18ee:	7a43      	ldrb	r3, [r0, #9]
    18f0:	9303      	str	r3, [sp, #12]
    18f2:	7a03      	ldrb	r3, [r0, #8]
    18f4:	9302      	str	r3, [sp, #8]
    18f6:	88c3      	ldrh	r3, [r0, #6]
    18f8:	9301      	str	r3, [sp, #4]
    18fa:	8883      	ldrh	r3, [r0, #4]
    18fc:	9300      	str	r3, [sp, #0]
    18fe:	6803      	ldr	r3, [r0, #0]
    1900:	4650      	mov	r0, sl
    1902:	f7ff fd34 	bl	136e <snprintk>
kprintf():
/home/dangcaominh/STM32MP1/optee-os/optee-os/lib/libutils/ext/snprintk.c:466
    1906:	4607      	mov	r7, r0
    1908:	e032      	b.n	1970 <kprintf.constprop.0+0x5b4>
/home/dangcaominh/STM32MP1/optee-os/optee-os/lib/libutils/ext/snprintk.c:443
    190a:	4b90      	ldr	r3, [pc, #576]	@ (1b4c <kprintf.constprop.0+0x790>)
/home/dangcaominh/STM32MP1/optee-os/optee-os/lib/libutils/ext/snprintk.c:441 (discriminator 1)
    190c:	2100      	movs	r1, #0
/home/dangcaominh/STM32MP1/optee-os/optee-os/lib/libutils/ext/snprintk.c:444
    190e:	f044 0402 	orr.w	r4, r4, #2
/home/dangcaominh/STM32MP1/optee-os/optee-os/lib/libutils/ext/snprintk.c:445
    1912:	f04f 0b78 	mov.w	fp, #120	@ 0x78
/home/dangcaominh/STM32MP1/optee-os/optee-os/lib/libutils/ext/snprintk.c:443
    1916:	447b      	add	r3, pc
    1918:	930f      	str	r3, [sp, #60]	@ 0x3c
/home/dangcaominh/STM32MP1/optee-os/optee-os/lib/libutils/ext/snprintk.c:494
    191a:	2f00      	cmp	r7, #0
    191c:	f04f 0900 	mov.w	r9, #0
    1920:	f280 80a0 	bge.w	1a64 <kprintf.constprop.0+0x6a8>
    1924:	f10d 0a71 	add.w	sl, sp, #113	@ 0x71
/home/dangcaominh/STM32MP1/optee-os/optee-os/lib/libutils/ext/snprintk.c:531
    1928:	9a0f      	ldr	r2, [sp, #60]	@ 0x3c
    192a:	f000 030f 	and.w	r3, r0, #15
/home/dangcaominh/STM32MP1/optee-os/optee-os/lib/libutils/ext/snprintk.c:532
    192e:	0900      	lsrs	r0, r0, #4
/home/dangcaominh/STM32MP1/optee-os/optee-os/lib/libutils/ext/snprintk.c:531
    1930:	5cd3      	ldrb	r3, [r2, r3]
/home/dangcaominh/STM32MP1/optee-os/optee-os/lib/libutils/ext/snprintk.c:532
    1932:	ea40 7001 	orr.w	r0, r0, r1, lsl #28
    1936:	0909      	lsrs	r1, r1, #4
/home/dangcaominh/STM32MP1/optee-os/optee-os/lib/libutils/ext/snprintk.c:531
    1938:	f80a 3d01 	strb.w	r3, [sl, #-1]!
/home/dangcaominh/STM32MP1/optee-os/optee-os/lib/libutils/ext/snprintk.c:533 (discriminator 1)
    193c:	ea50 0301 	orrs.w	r3, r0, r1
    1940:	d1f2      	bne.n	1928 <kprintf.constprop.0+0x56c>
    1942:	e6fd      	b.n	1740 <kprintf.constprop.0+0x384>
/home/dangcaominh/STM32MP1/optee-os/optee-os/lib/libutils/ext/snprintk.c:448
    1944:	461d      	mov	r5, r3
    1946:	f855 ab04 	ldr.w	sl, [r5], #4
/home/dangcaominh/STM32MP1/optee-os/optee-os/lib/libutils/ext/snprintk.c:448 (discriminator 1)
    194a:	f1ba 0f00 	cmp.w	sl, #0
    194e:	d102      	bne.n	1956 <kprintf.constprop.0+0x59a>
/home/dangcaominh/STM32MP1/optee-os/optee-os/lib/libutils/ext/snprintk.c:450
    1950:	f8df a1fc 	ldr.w	sl, [pc, #508]	@ 1b50 <kprintf.constprop.0+0x794>
    1954:	44fa      	add	sl, pc
/home/dangcaominh/STM32MP1/optee-os/optee-os/lib/libutils/ext/snprintk.c:451
    1956:	2f00      	cmp	r7, #0
    1958:	db0d      	blt.n	1976 <kprintf.constprop.0+0x5ba>
/home/dangcaominh/STM32MP1/optee-os/optee-os/lib/libutils/ext/snprintk.c:457
    195a:	463a      	mov	r2, r7
    195c:	2100      	movs	r1, #0
    195e:	4650      	mov	r0, sl
    1960:	f00b fea3 	bl	d6aa <memchr>
/home/dangcaominh/STM32MP1/optee-os/optee-os/lib/libutils/ext/snprintk.c:459
    1964:	b128      	cbz	r0, 1972 <kprintf.constprop.0+0x5b6>
/home/dangcaominh/STM32MP1/optee-os/optee-os/lib/libutils/ext/snprintk.c:460
    1966:	eba0 000a 	sub.w	r0, r0, sl
/home/dangcaominh/STM32MP1/optee-os/optee-os/lib/libutils/ext/snprintk.c:461
    196a:	4287      	cmp	r7, r0
    196c:	bfa8      	it	ge
    196e:	4607      	movge	r7, r0
/home/dangcaominh/STM32MP1/optee-os/optee-os/lib/libutils/ext/snprintk.c:291
    1970:	2000      	movs	r0, #0
/home/dangcaominh/STM32MP1/optee-os/optee-os/lib/libutils/ext/snprintk.c:467
    1972:	4681      	mov	r9, r0
    1974:	e6e9      	b.n	174a <kprintf.constprop.0+0x38e>
/home/dangcaominh/STM32MP1/optee-os/optee-os/lib/libutils/ext/snprintk.c:466
    1976:	4650      	mov	r0, sl
    1978:	f00b fea5 	bl	d6c6 <strlen>
    197c:	e7c3      	b.n	1906 <kprintf.constprop.0+0x54a>
/home/dangcaominh/STM32MP1/optee-os/optee-os/lib/libutils/ext/snprintk.c:470
    197e:	f044 0410 	orr.w	r4, r4, #16
/home/dangcaominh/STM32MP1/optee-os/optee-os/lib/libutils/ext/snprintk.c:473
    1982:	f014 0280 	ands.w	r2, r4, #128	@ 0x80
    1986:	d00e      	beq.n	19a6 <kprintf.constprop.0+0x5ea>
/home/dangcaominh/STM32MP1/optee-os/optee-os/lib/libutils/ext/snprintk.c:473 (discriminator 1)
    1988:	3307      	adds	r3, #7
    198a:	f023 0307 	bic.w	r3, r3, #7
    198e:	461d      	mov	r5, r3
    1990:	6859      	ldr	r1, [r3, #4]
    1992:	f855 0b08 	ldr.w	r0, [r5], #8
/home/dangcaominh/STM32MP1/optee-os/optee-os/lib/libutils/ext/snprintk.c:488
    1996:	f04f 0900 	mov.w	r9, #0
/home/dangcaominh/STM32MP1/optee-os/optee-os/lib/libutils/ext/snprintk.c:494
    199a:	2f00      	cmp	r7, #0
    199c:	da55      	bge.n	1a4a <kprintf.constprop.0+0x68e>
    199e:	f10d 0371 	add.w	r3, sp, #113	@ 0x71
    19a2:	9310      	str	r3, [sp, #64]	@ 0x40
    19a4:	e06a      	b.n	1a7c <kprintf.constprop.0+0x6c0>
/home/dangcaominh/STM32MP1/optee-os/optee-os/lib/libutils/ext/snprintk.c:473 (discriminator 2)
    19a6:	f414 7180 	ands.w	r1, r4, #256	@ 0x100
    19aa:	d004      	beq.n	19b6 <kprintf.constprop.0+0x5fa>
/home/dangcaominh/STM32MP1/optee-os/optee-os/lib/libutils/ext/snprintk.c:473 (discriminator 4)
    19ac:	461d      	mov	r5, r3
/home/dangcaominh/STM32MP1/optee-os/optee-os/lib/libutils/ext/snprintk.c:473 (discriminator 1)
    19ae:	4611      	mov	r1, r2
    19b0:	f855 0b04 	ldr.w	r0, [r5], #4
    19b4:	e7ef      	b.n	1996 <kprintf.constprop.0+0x5da>
/home/dangcaominh/STM32MP1/optee-os/optee-os/lib/libutils/ext/snprintk.c:473 (discriminator 5)
    19b6:	f414 7900 	ands.w	r9, r4, #512	@ 0x200
    19ba:	d003      	beq.n	19c4 <kprintf.constprop.0+0x608>
/home/dangcaominh/STM32MP1/optee-os/optee-os/lib/libutils/ext/snprintk.c:473 (discriminator 7)
    19bc:	461d      	mov	r5, r3
/home/dangcaominh/STM32MP1/optee-os/optee-os/lib/libutils/ext/snprintk.c:473 (discriminator 1)
    19be:	f855 0b04 	ldr.w	r0, [r5], #4
    19c2:	e7e8      	b.n	1996 <kprintf.constprop.0+0x5da>
/home/dangcaominh/STM32MP1/optee-os/optee-os/lib/libutils/ext/snprintk.c:473 (discriminator 8)
    19c4:	f014 0120 	ands.w	r1, r4, #32
    19c8:	d007      	beq.n	19da <kprintf.constprop.0+0x61e>
/home/dangcaominh/STM32MP1/optee-os/optee-os/lib/libutils/ext/snprintk.c:473 (discriminator 10)
    19ca:	3307      	adds	r3, #7
    19cc:	f023 0307 	bic.w	r3, r3, #7
    19d0:	461d      	mov	r5, r3
    19d2:	6859      	ldr	r1, [r3, #4]
    19d4:	f855 0b08 	ldr.w	r0, [r5], #8
    19d8:	e7df      	b.n	199a <kprintf.constprop.0+0x5de>
/home/dangcaominh/STM32MP1/optee-os/optee-os/lib/libutils/ext/snprintk.c:317
    19da:	461d      	mov	r5, r3
/home/dangcaominh/STM32MP1/optee-os/optee-os/lib/libutils/ext/snprintk.c:473 (discriminator 11)
    19dc:	f014 0310 	ands.w	r3, r4, #16
/home/dangcaominh/STM32MP1/optee-os/optee-os/lib/libutils/ext/snprintk.c:317
    19e0:	f855 0b04 	ldr.w	r0, [r5], #4
/home/dangcaominh/STM32MP1/optee-os/optee-os/lib/libutils/ext/snprintk.c:473 (discriminator 11)
    19e4:	d1d7      	bne.n	1996 <kprintf.constprop.0+0x5da>
/home/dangcaominh/STM32MP1/optee-os/optee-os/lib/libutils/ext/snprintk.c:473 (discriminator 14)
    19e6:	f014 0140 	ands.w	r1, r4, #64	@ 0x40
    19ea:	d0d4      	beq.n	1996 <kprintf.constprop.0+0x5da>
/home/dangcaominh/STM32MP1/optee-os/optee-os/lib/libutils/ext/snprintk.c:473 (discriminator 1)
    19ec:	b280      	uxth	r0, r0
    19ee:	4619      	mov	r1, r3
    19f0:	e7d1      	b.n	1996 <kprintf.constprop.0+0x5da>
/home/dangcaominh/STM32MP1/optee-os/optee-os/lib/libutils/ext/snprintk.c:297
    19f2:	4a58      	ldr	r2, [pc, #352]	@ (1b54 <kprintf.constprop.0+0x798>)
    19f4:	447a      	add	r2, pc
    19f6:	3211      	adds	r2, #17
    19f8:	e5b5      	b.n	1566 <kprintf.constprop.0+0x1aa>
/home/dangcaominh/STM32MP1/optee-os/optee-os/lib/libutils/ext/snprintk.c:481 (discriminator 2)
    19fa:	f414 7180 	ands.w	r1, r4, #256	@ 0x100
    19fe:	d00e      	beq.n	1a1e <kprintf.constprop.0+0x662>
/home/dangcaominh/STM32MP1/optee-os/optee-os/lib/libutils/ext/snprintk.c:481 (discriminator 4)
    1a00:	461d      	mov	r5, r3
/home/dangcaominh/STM32MP1/optee-os/optee-os/lib/libutils/ext/snprintk.c:481 (discriminator 1)
    1a02:	4611      	mov	r1, r2
    1a04:	f855 0b04 	ldr.w	r0, [r5], #4
/home/dangcaominh/STM32MP1/optee-os/optee-os/lib/libutils/ext/snprintk.c:484
    1a08:	07e3      	lsls	r3, r4, #31
    1a0a:	d586      	bpl.n	191a <kprintf.constprop.0+0x55e>
/home/dangcaominh/STM32MP1/optee-os/optee-os/lib/libutils/ext/snprintk.c:484 (discriminator 1)
    1a0c:	ea50 0301 	orrs.w	r3, r0, r1
    1a10:	d083      	beq.n	191a <kprintf.constprop.0+0x55e>
/home/dangcaominh/STM32MP1/optee-os/optee-os/lib/libutils/ext/snprintk.c:485
    1a12:	f044 0402 	orr.w	r4, r4, #2
/home/dangcaominh/STM32MP1/optee-os/optee-os/lib/libutils/ext/snprintk.c:482
    1a16:	2302      	movs	r3, #2
/home/dangcaominh/STM32MP1/optee-os/optee-os/lib/libutils/ext/snprintk.c:488
    1a18:	f04f 0900 	mov.w	r9, #0
    1a1c:	e66f      	b.n	16fe <kprintf.constprop.0+0x342>
/home/dangcaominh/STM32MP1/optee-os/optee-os/lib/libutils/ext/snprintk.c:481 (discriminator 5)
    1a1e:	05a2      	lsls	r2, r4, #22
    1a20:	d503      	bpl.n	1a2a <kprintf.constprop.0+0x66e>
/home/dangcaominh/STM32MP1/optee-os/optee-os/lib/libutils/ext/snprintk.c:481 (discriminator 7)
    1a22:	461d      	mov	r5, r3
/home/dangcaominh/STM32MP1/optee-os/optee-os/lib/libutils/ext/snprintk.c:481 (discriminator 1)
    1a24:	f855 0b04 	ldr.w	r0, [r5], #4
    1a28:	e7ee      	b.n	1a08 <kprintf.constprop.0+0x64c>
/home/dangcaominh/STM32MP1/optee-os/optee-os/lib/libutils/ext/snprintk.c:481 (discriminator 8)
    1a2a:	f014 0120 	ands.w	r1, r4, #32
    1a2e:	f47f ad9f 	bne.w	1570 <kprintf.constprop.0+0x1b4>
/home/dangcaominh/STM32MP1/optee-os/optee-os/lib/libutils/ext/snprintk.c:317
    1a32:	461d      	mov	r5, r3
/home/dangcaominh/STM32MP1/optee-os/optee-os/lib/libutils/ext/snprintk.c:481 (discriminator 11)
    1a34:	f014 0310 	ands.w	r3, r4, #16
/home/dangcaominh/STM32MP1/optee-os/optee-os/lib/libutils/ext/snprintk.c:317
    1a38:	f855 0b04 	ldr.w	r0, [r5], #4
/home/dangcaominh/STM32MP1/optee-os/optee-os/lib/libutils/ext/snprintk.c:481 (discriminator 11)
    1a3c:	d1e4      	bne.n	1a08 <kprintf.constprop.0+0x64c>
/home/dangcaominh/STM32MP1/optee-os/optee-os/lib/libutils/ext/snprintk.c:481 (discriminator 14)
    1a3e:	f014 0140 	ands.w	r1, r4, #64	@ 0x40
/home/dangcaominh/STM32MP1/optee-os/optee-os/lib/libutils/ext/snprintk.c:481 (discriminator 1)
    1a42:	bf1c      	itt	ne
    1a44:	b280      	uxthne	r0, r0
    1a46:	4619      	movne	r1, r3
    1a48:	e7de      	b.n	1a08 <kprintf.constprop.0+0x64c>
/home/dangcaominh/STM32MP1/optee-os/optee-os/lib/libutils/ext/snprintk.c:494
    1a4a:	2301      	movs	r3, #1
/home/dangcaominh/STM32MP1/optee-os/optee-os/lib/libutils/ext/snprintk.c:503
    1a4c:	ea50 0201 	orrs.w	r2, r0, r1
/home/dangcaominh/STM32MP1/optee-os/optee-os/lib/libutils/ext/snprintk.c:495
    1a50:	f424 6480 	bic.w	r4, r4, #1024	@ 0x400
/home/dangcaominh/STM32MP1/optee-os/optee-os/lib/libutils/ext/snprintk.c:503
    1a54:	f47f ae56 	bne.w	1704 <kprintf.constprop.0+0x348>
/home/dangcaominh/STM32MP1/optee-os/optee-os/lib/libutils/ext/snprintk.c:503 (discriminator 1)
    1a58:	2f00      	cmp	r7, #0
    1a5a:	f47f ae53 	bne.w	1704 <kprintf.constprop.0+0x348>
/home/dangcaominh/STM32MP1/optee-os/optee-os/lib/libutils/ext/snprintk.c:502
    1a5e:	f10d 0a71 	add.w	sl, sp, #113	@ 0x71
    1a62:	e66d      	b.n	1740 <kprintf.constprop.0+0x384>
/home/dangcaominh/STM32MP1/optee-os/optee-os/lib/libutils/ext/snprintk.c:494
    1a64:	2302      	movs	r3, #2
    1a66:	e7f1      	b.n	1a4c <kprintf.constprop.0+0x690>
/home/dangcaominh/STM32MP1/optee-os/optee-os/lib/libutils/ext/snprintk.c:523
    1a68:	220a      	movs	r2, #10
    1a6a:	2300      	movs	r3, #0
    1a6c:	f000 e88c 	blx	1b88 <__aeabi_uldivmod>
    1a70:	9b10      	ldr	r3, [sp, #64]	@ 0x40
    1a72:	3230      	adds	r2, #48	@ 0x30
    1a74:	f8cd a040 	str.w	sl, [sp, #64]	@ 0x40
    1a78:	f803 2c01 	strb.w	r2, [r3, #-1]
    1a7c:	9b10      	ldr	r3, [sp, #64]	@ 0x40
/home/dangcaominh/STM32MP1/optee-os/optee-os/lib/libutils/ext/snprintk.c:522
    1a7e:	280a      	cmp	r0, #10
/home/dangcaominh/STM32MP1/optee-os/optee-os/lib/libutils/ext/snprintk.c:523
    1a80:	f103 3aff 	add.w	sl, r3, #4294967295	@ 0xffffffff
/home/dangcaominh/STM32MP1/optee-os/optee-os/lib/libutils/ext/snprintk.c:522
    1a84:	f171 0300 	sbcs.w	r3, r1, #0
    1a88:	d2ee      	bcs.n	1a68 <kprintf.constprop.0+0x6ac>
/home/dangcaominh/STM32MP1/optee-os/optee-os/lib/libutils/ext/snprintk.c:526
    1a8a:	9b10      	ldr	r3, [sp, #64]	@ 0x40
    1a8c:	3030      	adds	r0, #48	@ 0x30
    1a8e:	f803 0c01 	strb.w	r0, [r3, #-1]
/home/dangcaominh/STM32MP1/optee-os/optee-os/lib/libutils/ext/snprintk.c:527
    1a92:	e655      	b.n	1740 <kprintf.constprop.0+0x384>
/home/dangcaominh/STM32MP1/optee-os/optee-os/lib/libutils/ext/snprintk.c:574
    1a94:	07a2      	lsls	r2, r4, #30
/home/dangcaominh/STM32MP1/optee-os/optee-os/lib/libutils/ext/snprintk.c:575
    1a96:	bf48      	it	mi
    1a98:	3302      	addmi	r3, #2
    1a9a:	e65f      	b.n	175c <kprintf.constprop.0+0x3a0>
/home/dangcaominh/STM32MP1/optee-os/optee-os/lib/libutils/ext/snprintk.c:584 (discriminator 1)
    1a9c:	b146      	cbz	r6, 1ab0 <kprintf.constprop.0+0x6f4>
/home/dangcaominh/STM32MP1/optee-os/optee-os/lib/libutils/ext/snprintk.c:584 (discriminator 3)
    1a9e:	990c      	ldr	r1, [sp, #48]	@ 0x30
    1aa0:	b111      	cbz	r1, 1aa8 <kprintf.constprop.0+0x6ec>
/home/dangcaominh/STM32MP1/optee-os/optee-os/lib/libutils/ext/snprintk.c:584 (discriminator 5)
    1aa2:	990e      	ldr	r1, [sp, #56]	@ 0x38
    1aa4:	42b1      	cmp	r1, r6
    1aa6:	d903      	bls.n	1ab0 <kprintf.constprop.0+0x6f4>
/home/dangcaominh/STM32MP1/optee-os/optee-os/lib/libutils/ext/snprintk.c:584 (discriminator 6)
    1aa8:	f04f 0120 	mov.w	r1, #32
    1aac:	f806 1b01 	strb.w	r1, [r6], #1
    1ab0:	3a01      	subs	r2, #1
    1ab2:	e661      	b.n	1778 <kprintf.constprop.0+0x3bc>
/home/dangcaominh/STM32MP1/optee-os/optee-os/lib/libutils/ext/snprintk.c:590
    1ab4:	07a1      	lsls	r1, r4, #30
    1ab6:	f57f ae6e 	bpl.w	1796 <kprintf.constprop.0+0x3da>
/home/dangcaominh/STM32MP1/optee-os/optee-os/lib/libutils/ext/snprintk.c:591 (discriminator 1)
    1aba:	2e00      	cmp	r6, #0
    1abc:	f43f ae6b 	beq.w	1796 <kprintf.constprop.0+0x3da>
/home/dangcaominh/STM32MP1/optee-os/optee-os/lib/libutils/ext/snprintk.c:591 (discriminator 3)
    1ac0:	9a0c      	ldr	r2, [sp, #48]	@ 0x30
    1ac2:	b16a      	cbz	r2, 1ae0 <kprintf.constprop.0+0x724>
/home/dangcaominh/STM32MP1/optee-os/optee-os/lib/libutils/ext/snprintk.c:591 (discriminator 5)
    1ac4:	9a0e      	ldr	r2, [sp, #56]	@ 0x38
    1ac6:	42b2      	cmp	r2, r6
    1ac8:	f67f ae65 	bls.w	1796 <kprintf.constprop.0+0x3da>
/home/dangcaominh/STM32MP1/optee-os/optee-os/lib/libutils/ext/snprintk.c:592 (discriminator 5)
    1acc:	990e      	ldr	r1, [sp, #56]	@ 0x38
/home/dangcaominh/STM32MP1/optee-os/optee-os/lib/libutils/ext/snprintk.c:591 (discriminator 6)
    1ace:	4632      	mov	r2, r6
    1ad0:	f04f 0c30 	mov.w	ip, #48	@ 0x30
    1ad4:	f802 cb01 	strb.w	ip, [r2], #1
/home/dangcaominh/STM32MP1/optee-os/optee-os/lib/libutils/ext/snprintk.c:592 (discriminator 5)
    1ad8:	4291      	cmp	r1, r2
    1ada:	d803      	bhi.n	1ae4 <kprintf.constprop.0+0x728>
    1adc:	4616      	mov	r6, r2
    1ade:	e65a      	b.n	1796 <kprintf.constprop.0+0x3da>
/home/dangcaominh/STM32MP1/optee-os/optee-os/lib/libutils/ext/snprintk.c:591 (discriminator 6)
    1ae0:	2230      	movs	r2, #48	@ 0x30
    1ae2:	7032      	strb	r2, [r6, #0]
/home/dangcaominh/STM32MP1/optee-os/optee-os/lib/libutils/ext/snprintk.c:592 (discriminator 6)
    1ae4:	f886 b001 	strb.w	fp, [r6, #1]
    1ae8:	3602      	adds	r6, #2
    1aea:	e654      	b.n	1796 <kprintf.constprop.0+0x3da>
/home/dangcaominh/STM32MP1/optee-os/optee-os/lib/libutils/ext/snprintk.c:599 (discriminator 1)
    1aec:	b136      	cbz	r6, 1afc <kprintf.constprop.0+0x740>
/home/dangcaominh/STM32MP1/optee-os/optee-os/lib/libutils/ext/snprintk.c:599 (discriminator 3)
    1aee:	990c      	ldr	r1, [sp, #48]	@ 0x30
    1af0:	b111      	cbz	r1, 1af8 <kprintf.constprop.0+0x73c>
/home/dangcaominh/STM32MP1/optee-os/optee-os/lib/libutils/ext/snprintk.c:599 (discriminator 5)
    1af2:	990e      	ldr	r1, [sp, #56]	@ 0x38
    1af4:	42b1      	cmp	r1, r6
    1af6:	d901      	bls.n	1afc <kprintf.constprop.0+0x740>
/home/dangcaominh/STM32MP1/optee-os/optee-os/lib/libutils/ext/snprintk.c:599 (discriminator 6)
    1af8:	f806 cb01 	strb.w	ip, [r6], #1
    1afc:	3a01      	subs	r2, #1
    1afe:	e651      	b.n	17a4 <kprintf.constprop.0+0x3e8>
/home/dangcaominh/STM32MP1/optee-os/optee-os/lib/libutils/ext/snprintk.c:605 (discriminator 1)
    1b00:	b136      	cbz	r6, 1b10 <kprintf.constprop.0+0x754>
/home/dangcaominh/STM32MP1/optee-os/optee-os/lib/libutils/ext/snprintk.c:605 (discriminator 3)
    1b02:	990c      	ldr	r1, [sp, #48]	@ 0x30
    1b04:	b111      	cbz	r1, 1b0c <kprintf.constprop.0+0x750>
/home/dangcaominh/STM32MP1/optee-os/optee-os/lib/libutils/ext/snprintk.c:605 (discriminator 5)
    1b06:	990e      	ldr	r1, [sp, #56]	@ 0x38
    1b08:	42b1      	cmp	r1, r6
    1b0a:	d901      	bls.n	1b10 <kprintf.constprop.0+0x754>
/home/dangcaominh/STM32MP1/optee-os/optee-os/lib/libutils/ext/snprintk.c:605 (discriminator 6)
