Archive member included to satisfy reference by file (symbol)

./../build/opteemin-sdcard-stm32mp135f-dk/lib/libfdt.a(fdt.o)
                              ./../build/opteemin-sdcard-stm32mp135f-dk/bl2/fconf.o (fdt_check_header)
./../build/opteemin-sdcard-stm32mp135f-dk/lib/libfdt.a(fdt_addresses.o)
                              ./../build/opteemin-sdcard-stm32mp135f-dk/bl2/fdt_wrappers.o (fdt_address_cells)
./../build/opteemin-sdcard-stm32mp135f-dk/lib/libfdt.a(fdt_ro.o)
                              ./../build/opteemin-sdcard-stm32mp135f-dk/bl2/fdt_wrappers.o (fdt_get_name)
./../build/opteemin-sdcard-stm32mp135f-dk/lib/libfdt.a(fdt_rw.o)
                              ./../build/opteemin-sdcard-stm32mp135f-dk/lib/libfdt.a(fdt_addresses.o) (fdt_appendprop)
./../build/opteemin-sdcard-stm32mp135f-dk/lib/libfdt.a(fdt_strerror.o)
                              ./../build/opteemin-sdcard-stm32mp135f-dk/bl2/fdt_wrappers.o (fdt_strerror)
./../build/opteemin-sdcard-stm32mp135f-dk/lib/libfdt.a(fdt_wip.o)
                              ./../build/opteemin-sdcard-stm32mp135f-dk/bl2/fdt_wrappers.o (fdt_setprop_inplace_namelen_partial)
./../build/opteemin-sdcard-stm32mp135f-dk/lib/libc.a(assert.o)
                              ./../build/opteemin-sdcard-stm32mp135f-dk/bl2/bl2_image_load_v2.o (__assert)
./../build/opteemin-sdcard-stm32mp135f-dk/lib/libc.a(memchr.o)
                              ./../build/opteemin-sdcard-stm32mp135f-dk/lib/libfdt.a(fdt_ro.o) (memchr)
./../build/opteemin-sdcard-stm32mp135f-dk/lib/libc.a(memcmp.o)
                              ./../build/opteemin-sdcard-stm32mp135f-dk/bl2/uuid.o (memcmp)
./../build/opteemin-sdcard-stm32mp135f-dk/lib/libc.a(memcpy.o)
                              ./../build/opteemin-sdcard-stm32mp135f-dk/bl2/fdt_wrappers.o (memcpy)
./../build/opteemin-sdcard-stm32mp135f-dk/lib/libc.a(memmove.o)
                              ./../build/opteemin-sdcard-stm32mp135f-dk/bl2/xlat_tables_core.o (memmove)
./../build/opteemin-sdcard-stm32mp135f-dk/lib/libc.a(memset.o)
                              ./../build/opteemin-sdcard-stm32mp135f-dk/bl2/uuid.o (memset)
./../build/opteemin-sdcard-stm32mp135f-dk/lib/libc.a(printf.o)
                              ./../build/opteemin-sdcard-stm32mp135f-dk/bl2/tf_log.o (vprintf)
./../build/opteemin-sdcard-stm32mp135f-dk/lib/libc.a(snprintf.o)
                              ./../build/opteemin-sdcard-stm32mp135f-dk/bl2/clk-stm32mp13.o (snprintf)
./../build/opteemin-sdcard-stm32mp135f-dk/lib/libc.a(strchr.o)
                              ./../build/opteemin-sdcard-stm32mp135f-dk/bl2/fdt_wrappers.o (strchr)
./../build/opteemin-sdcard-stm32mp135f-dk/lib/libc.a(strcmp.o)
                              ./../build/opteemin-sdcard-stm32mp135f-dk/bl2/partition.o (strcmp)
./../build/opteemin-sdcard-stm32mp135f-dk/lib/libc.a(strlcpy.o)
                              ./../build/opteemin-sdcard-stm32mp135f-dk/bl2/fdt_wrappers.o (strlcpy)
./../build/opteemin-sdcard-stm32mp135f-dk/lib/libc.a(strlen.o)
                              ./../build/opteemin-sdcard-stm32mp135f-dk/bl2/fdt_wrappers.o (strlen)
./../build/opteemin-sdcard-stm32mp135f-dk/lib/libc.a(strncmp.o)
                              ./../build/opteemin-sdcard-stm32mp135f-dk/bl2/fdt_wrappers.o (strncmp)
./../build/opteemin-sdcard-stm32mp135f-dk/lib/libc.a(strnlen.o)
                              ./../build/opteemin-sdcard-stm32mp135f-dk/bl2/uuid.o (strnlen)
./../build/opteemin-sdcard-stm32mp135f-dk/lib/libc.a(strrchr.o)
                              ./../build/opteemin-sdcard-stm32mp135f-dk/lib/libfdt.a(fdt_ro.o) (strrchr)

Discarded input sections

 .text          0x00000000        0x0 ./../build/opteemin-sdcard-stm32mp135f-dk/bl2/build_message.o
 .data          0x00000000        0x0 ./../build/opteemin-sdcard-stm32mp135f-dk/bl2/build_message.o
 .bss           0x00000000        0x0 ./../build/opteemin-sdcard-stm32mp135f-dk/bl2/build_message.o
 .rodata.version
                0x00000000        0x8 ./../build/opteemin-sdcard-stm32mp135f-dk/bl2/build_message.o
 .text          0x00000000        0x0 ./../build/opteemin-sdcard-stm32mp135f-dk/bl2/bl2_arch_setup.o
 .data          0x00000000        0x0 ./../build/opteemin-sdcard-stm32mp135f-dk/bl2/bl2_arch_setup.o
 .bss           0x00000000        0x0 ./../build/opteemin-sdcard-stm32mp135f-dk/bl2/bl2_arch_setup.o
 .text          0x00000000        0x0 ./../build/opteemin-sdcard-stm32mp135f-dk/bl2/bl2_image_load_v2.o
 .data          0x00000000        0x0 ./../build/opteemin-sdcard-stm32mp135f-dk/bl2/bl2_image_load_v2.o
 .bss           0x00000000        0x0 ./../build/opteemin-sdcard-stm32mp135f-dk/bl2/bl2_image_load_v2.o
 .text          0x00000000        0x0 ./../build/opteemin-sdcard-stm32mp135f-dk/bl2/bl2_main.o
 .data          0x00000000        0x0 ./../build/opteemin-sdcard-stm32mp135f-dk/bl2/bl2_main.o
 .bss           0x00000000        0x0 ./../build/opteemin-sdcard-stm32mp135f-dk/bl2/bl2_main.o
 .text          0x00000000        0x0 ./../build/opteemin-sdcard-stm32mp135f-dk/bl2/bl_common.o
 .data          0x00000000        0x0 ./../build/opteemin-sdcard-stm32mp135f-dk/bl2/bl_common.o
 .bss           0x00000000        0x0 ./../build/opteemin-sdcard-stm32mp135f-dk/bl2/bl_common.o
 .text.page_align
                0x00000000       0x14 ./../build/opteemin-sdcard-stm32mp135f-dk/bl2/bl_common.o
 .text.get_version
                0x00000000        0x8 ./../build/opteemin-sdcard-stm32mp135f-dk/bl2/bl_common.o
 .text          0x00000000        0x0 ./../build/opteemin-sdcard-stm32mp135f-dk/bl2/desc_image_load.o
 .data          0x00000000        0x0 ./../build/opteemin-sdcard-stm32mp135f-dk/bl2/desc_image_load.o
 .bss           0x00000000        0x0 ./../build/opteemin-sdcard-stm32mp135f-dk/bl2/desc_image_load.o
 .text.bl31_params_parse_helper
                0x00000000       0x98 ./../build/opteemin-sdcard-stm32mp135f-dk/bl2/desc_image_load.o
 .text          0x00000000        0x0 ./../build/opteemin-sdcard-stm32mp135f-dk/bl2/fdt_wrappers.o
 .data          0x00000000        0x0 ./../build/opteemin-sdcard-stm32mp135f-dk/bl2/fdt_wrappers.o
 .bss           0x00000000        0x0 ./../build/opteemin-sdcard-stm32mp135f-dk/bl2/fdt_wrappers.o
 .text.fdt_read_prop_cells
                0x00000000       0x1e ./../build/opteemin-sdcard-stm32mp135f-dk/bl2/fdt_wrappers.o
 .text.fdt_read_uint64_default
                0x00000000       0x20 ./../build/opteemin-sdcard-stm32mp135f-dk/bl2/fdt_wrappers.o
 .text.fdtw_read_bytes
                0x00000000       0x84 ./../build/opteemin-sdcard-stm32mp135f-dk/bl2/fdt_wrappers.o
 .rodata.fdtw_write_inplace_cells.str1.1
                0x00000000       0x2a ./../build/opteemin-sdcard-stm32mp135f-dk/bl2/fdt_wrappers.o
 .text.fdtw_write_inplace_cells
                0x00000000       0x70 ./../build/opteemin-sdcard-stm32mp135f-dk/bl2/fdt_wrappers.o
 .rodata.fdtw_write_inplace_bytes.str1.1
                0x00000000       0x27 ./../build/opteemin-sdcard-stm32mp135f-dk/bl2/fdt_wrappers.o
 .text.fdtw_write_inplace_bytes
                0x00000000       0xac ./../build/opteemin-sdcard-stm32mp135f-dk/bl2/fdt_wrappers.o
 .rodata.fdt_get_reg_props_by_index.str1.1
                0x00000000       0x2a ./../build/opteemin-sdcard-stm32mp135f-dk/bl2/fdt_wrappers.o
 .text.fdt_get_reg_props_by_index
                0x00000000       0xa0 ./../build/opteemin-sdcard-stm32mp135f-dk/bl2/fdt_wrappers.o
 .rodata.fdt_get_reg_props_by_name.str1.1
                0x00000000        0xa ./../build/opteemin-sdcard-stm32mp135f-dk/bl2/fdt_wrappers.o
 .text.fdt_get_reg_props_by_name
                0x00000000       0x30 ./../build/opteemin-sdcard-stm32mp135f-dk/bl2/fdt_wrappers.o
 .rodata.fdtw_translate_address.str1.1
                0x00000000       0x6d ./../build/opteemin-sdcard-stm32mp135f-dk/bl2/fdt_wrappers.o
 .text.fdtw_translate_address
                0x00000000      0x164 ./../build/opteemin-sdcard-stm32mp135f-dk/bl2/fdt_wrappers.o
 .rodata.fdtw_for_each_cpu.str1.1
                0x00000000        0xb ./../build/opteemin-sdcard-stm32mp135f-dk/bl2/fdt_wrappers.o
 .text.fdtw_for_each_cpu
                0x00000000       0x7c ./../build/opteemin-sdcard-stm32mp135f-dk/bl2/fdt_wrappers.o
 .rodata.fdtw_find_or_add_subnode.str1.1
                0x00000000        0xd ./../build/opteemin-sdcard-stm32mp135f-dk/bl2/fdt_wrappers.o
 .text.fdtw_find_or_add_subnode
                0x00000000       0x40 ./../build/opteemin-sdcard-stm32mp135f-dk/bl2/fdt_wrappers.o
 .rodata.__func__.0
                0x00000000       0x19 ./../build/opteemin-sdcard-stm32mp135f-dk/bl2/fdt_wrappers.o
 .text          0x00000000        0x0 ./../build/opteemin-sdcard-stm32mp135f-dk/bl2/tf_log.o
 .data          0x00000000        0x0 ./../build/opteemin-sdcard-stm32mp135f-dk/bl2/tf_log.o
 .bss           0x00000000        0x0 ./../build/opteemin-sdcard-stm32mp135f-dk/bl2/tf_log.o
 .text.tf_log_newline
                0x00000000       0x3c ./../build/opteemin-sdcard-stm32mp135f-dk/bl2/tf_log.o
 .text.tf_log_set_max_level
                0x00000000       0x30 ./../build/opteemin-sdcard-stm32mp135f-dk/bl2/tf_log.o
 .text          0x00000000        0x0 ./../build/opteemin-sdcard-stm32mp135f-dk/bl2/uuid.o
 .data          0x00000000        0x0 ./../build/opteemin-sdcard-stm32mp135f-dk/bl2/uuid.o
 .bss           0x00000000        0x0 ./../build/opteemin-sdcard-stm32mp135f-dk/bl2/uuid.o
 .text.uuid_match
                0x00000000       0x10 ./../build/opteemin-sdcard-stm32mp135f-dk/bl2/uuid.o
 .text.copy_uuid
                0x00000000       0x12 ./../build/opteemin-sdcard-stm32mp135f-dk/bl2/uuid.o
 .text.is_null_uuid
                0x00000000       0x20 ./../build/opteemin-sdcard-stm32mp135f-dk/bl2/uuid.o
 .text          0x00000000        0x0 ./../build/opteemin-sdcard-stm32mp135f-dk/bl2/tzc400.o
 .data          0x00000000        0x0 ./../build/opteemin-sdcard-stm32mp135f-dk/bl2/tzc400.o
 .bss           0x00000000        0x0 ./../build/opteemin-sdcard-stm32mp135f-dk/bl2/tzc400.o
 .rodata.tzc400_it_handler.str1.1
                0x00000000       0x93 ./../build/opteemin-sdcard-stm32mp135f-dk/bl2/tzc400.o
 .text.tzc400_it_handler
                0x00000000       0xac ./../build/opteemin-sdcard-stm32mp135f-dk/bl2/tzc400.o
 .text          0x00000000        0x0 ./../build/opteemin-sdcard-stm32mp135f-dk/bl2/clk.o
 .data          0x00000000        0x0 ./../build/opteemin-sdcard-stm32mp135f-dk/bl2/clk.o
 .bss           0x00000000        0x0 ./../build/opteemin-sdcard-stm32mp135f-dk/bl2/clk.o
 .text.clk_get_parent
                0x00000000       0x24 ./../build/opteemin-sdcard-stm32mp135f-dk/bl2/clk.o
 .text          0x00000000        0x0 ./../build/opteemin-sdcard-stm32mp135f-dk/bl2/multi_console.o
 .data          0x00000000        0x0 ./../build/opteemin-sdcard-stm32mp135f-dk/bl2/multi_console.o
 .bss           0x00000000        0x0 ./../build/opteemin-sdcard-stm32mp135f-dk/bl2/multi_console.o
 .text.console_unregister
                0x00000000       0x2c ./../build/opteemin-sdcard-stm32mp135f-dk/bl2/multi_console.o
 .text.console_switch_state
                0x00000000        0xc ./../build/opteemin-sdcard-stm32mp135f-dk/bl2/multi_console.o
 .text          0x00000000        0x0 ./../build/opteemin-sdcard-stm32mp135f-dk/bl2/delay_timer.o
 .data          0x00000000        0x0 ./../build/opteemin-sdcard-stm32mp135f-dk/bl2/delay_timer.o
 .bss           0x00000000        0x0 ./../build/opteemin-sdcard-stm32mp135f-dk/bl2/delay_timer.o
 .text          0x00000000        0x0 ./../build/opteemin-sdcard-stm32mp135f-dk/bl2/generic_delay_timer.o
 .data          0x00000000        0x0 ./../build/opteemin-sdcard-stm32mp135f-dk/bl2/generic_delay_timer.o
 .bss           0x00000000        0x0 ./../build/opteemin-sdcard-stm32mp135f-dk/bl2/generic_delay_timer.o
 .text          0x00000000        0x0 ./../build/opteemin-sdcard-stm32mp135f-dk/bl2/fwu.o
 .data          0x00000000        0x0 ./../build/opteemin-sdcard-stm32mp135f-dk/bl2/fwu.o
 .bss           0x00000000        0x0 ./../build/opteemin-sdcard-stm32mp135f-dk/bl2/fwu.o
 .text.fwu_get_active_bank_state
                0x00000000       0x3c ./../build/opteemin-sdcard-stm32mp135f-dk/bl2/fwu.o
 .text          0x00000000        0x0 ./../build/opteemin-sdcard-stm32mp135f-dk/bl2/io_block.o
 .data          0x00000000        0x0 ./../build/opteemin-sdcard-stm32mp135f-dk/bl2/io_block.o
 .bss           0x00000000        0x0 ./../build/opteemin-sdcard-stm32mp135f-dk/bl2/io_block.o
 .text          0x00000000        0x0 ./../build/opteemin-sdcard-stm32mp135f-dk/bl2/io_fip.o
 .data          0x00000000        0x0 ./../build/opteemin-sdcard-stm32mp135f-dk/bl2/io_fip.o
 .bss           0x00000000        0x0 ./../build/opteemin-sdcard-stm32mp135f-dk/bl2/io_fip.o
 .text.fip_dev_get_plat_toc_flag
                0x00000000       0x1c ./../build/opteemin-sdcard-stm32mp135f-dk/bl2/io_fip.o
 .text          0x00000000        0x0 ./../build/opteemin-sdcard-stm32mp135f-dk/bl2/io_mtd.o
 .data          0x00000000        0x0 ./../build/opteemin-sdcard-stm32mp135f-dk/bl2/io_mtd.o
 .bss           0x00000000        0x0 ./../build/opteemin-sdcard-stm32mp135f-dk/bl2/io_mtd.o
 .text.device_type_mtd
                0x00000000        0x4 ./../build/opteemin-sdcard-stm32mp135f-dk/bl2/io_mtd.o
 .text.mtd_close
                0x00000000        0x8 ./../build/opteemin-sdcard-stm32mp135f-dk/bl2/io_mtd.o
 .rodata.mtd_read.str1.1
                0x00000000       0x14 ./../build/opteemin-sdcard-stm32mp135f-dk/bl2/io_mtd.o
 .text.mtd_read
                0x00000000       0x84 ./../build/opteemin-sdcard-stm32mp135f-dk/bl2/io_mtd.o
 .rodata.mtd_add_extra_offset.constprop.0.str1.1
                0x00000000       0x14 ./../build/opteemin-sdcard-stm32mp135f-dk/bl2/io_mtd.o
 .text.mtd_add_extra_offset.constprop.0
                0x00000000       0x2c ./../build/opteemin-sdcard-stm32mp135f-dk/bl2/io_mtd.o
 .text.mtd_open
                0x00000000       0x44 ./../build/opteemin-sdcard-stm32mp135f-dk/bl2/io_mtd.o
 .text.mtd_seek
                0x00000000       0x84 ./../build/opteemin-sdcard-stm32mp135f-dk/bl2/io_mtd.o
 .text.mtd_dev_close
                0x00000000       0x3c ./../build/opteemin-sdcard-stm32mp135f-dk/bl2/io_mtd.o
 .text.mtd_dev_open
                0x00000000       0x4c ./../build/opteemin-sdcard-stm32mp135f-dk/bl2/io_mtd.o
 .text.register_io_dev_mtd
                0x00000000       0x1c ./../build/opteemin-sdcard-stm32mp135f-dk/bl2/io_mtd.o
 .rodata.__func__.0
                0x00000000       0x15 ./../build/opteemin-sdcard-stm32mp135f-dk/bl2/io_mtd.o
 .bss.dev_info_pool
                0x00000000        0x8 ./../build/opteemin-sdcard-stm32mp135f-dk/bl2/io_mtd.o
 .bss.state_pool
                0x00000000       0x20 ./../build/opteemin-sdcard-stm32mp135f-dk/bl2/io_mtd.o
 .rodata.mtd_dev_funcs
                0x00000000       0x24 ./../build/opteemin-sdcard-stm32mp135f-dk/bl2/io_mtd.o
 .rodata.mtd_dev_connector
                0x00000000        0x4 ./../build/opteemin-sdcard-stm32mp135f-dk/bl2/io_mtd.o
 .debug_info    0x00000000      0xdcc ./../build/opteemin-sdcard-stm32mp135f-dk/bl2/io_mtd.o
 .debug_abbrev  0x00000000      0x33a ./../build/opteemin-sdcard-stm32mp135f-dk/bl2/io_mtd.o
 .debug_loc     0x00000000      0xa79 ./../build/opteemin-sdcard-stm32mp135f-dk/bl2/io_mtd.o
 .debug_aranges
                0x00000000       0x60 ./../build/opteemin-sdcard-stm32mp135f-dk/bl2/io_mtd.o
 .debug_ranges  0x00000000       0xb8 ./../build/opteemin-sdcard-stm32mp135f-dk/bl2/io_mtd.o
 .debug_line    0x00000000      0x4f9 ./../build/opteemin-sdcard-stm32mp135f-dk/bl2/io_mtd.o
 .debug_str     0x00000000      0x622 ./../build/opteemin-sdcard-stm32mp135f-dk/bl2/io_mtd.o
 .comment       0x00000000       0x13 ./../build/opteemin-sdcard-stm32mp135f-dk/bl2/io_mtd.o
 .note.GNU-stack
                0x00000000        0x0 ./../build/opteemin-sdcard-stm32mp135f-dk/bl2/io_mtd.o
 .debug_frame   0x00000000       0xfc ./../build/opteemin-sdcard-stm32mp135f-dk/bl2/io_mtd.o
 .ARM.attributes
                0x00000000       0x33 ./../build/opteemin-sdcard-stm32mp135f-dk/bl2/io_mtd.o
 .text          0x00000000        0x0 ./../build/opteemin-sdcard-stm32mp135f-dk/bl2/io_storage.o
 .data          0x00000000        0x0 ./../build/opteemin-sdcard-stm32mp135f-dk/bl2/io_storage.o
 .bss           0x00000000        0x0 ./../build/opteemin-sdcard-stm32mp135f-dk/bl2/io_storage.o
 .text.io_write
                0x00000000       0x48 ./../build/opteemin-sdcard-stm32mp135f-dk/bl2/io_storage.o
 .text          0x00000000        0x0 ./../build/opteemin-sdcard-stm32mp135f-dk/bl2/mmc.o
 .data          0x00000000        0x0 ./../build/opteemin-sdcard-stm32mp135f-dk/bl2/mmc.o
 .bss           0x00000000        0x0 ./../build/opteemin-sdcard-stm32mp135f-dk/bl2/mmc.o
 .text.mmc_send_part_switch_cmd
                0x00000000       0x44 ./../build/opteemin-sdcard-stm32mp135f-dk/bl2/mmc.o
 .text.mmc_write_blocks
                0x00000000       0xd0 ./../build/opteemin-sdcard-stm32mp135f-dk/bl2/mmc.o
 .text.mmc_erase_blocks
                0x00000000       0x6c ./../build/opteemin-sdcard-stm32mp135f-dk/bl2/mmc.o
 .rodata.mmc_part_switch_current_boot.str1.1
                0x00000000       0x5e ./../build/opteemin-sdcard-stm32mp135f-dk/bl2/mmc.o
 .text.mmc_part_switch_current_boot
                0x00000000       0x48 ./../build/opteemin-sdcard-stm32mp135f-dk/bl2/mmc.o
 .rodata.mmc_part_switch_user.str1.1
                0x00000000       0x29 ./../build/opteemin-sdcard-stm32mp135f-dk/bl2/mmc.o
 .text.mmc_part_switch_user
                0x00000000       0x28 ./../build/opteemin-sdcard-stm32mp135f-dk/bl2/mmc.o
 .text.mmc_boot_part_size
                0x00000000       0x10 ./../build/opteemin-sdcard-stm32mp135f-dk/bl2/mmc.o
 .text.mmc_boot_part_read_blocks
                0x00000000       0x2c ./../build/opteemin-sdcard-stm32mp135f-dk/bl2/mmc.o
 .text          0x00000000        0x0 ./../build/opteemin-sdcard-stm32mp135f-dk/bl2/gpt.o
 .data          0x00000000        0x0 ./../build/opteemin-sdcard-stm32mp135f-dk/bl2/gpt.o
 .bss           0x00000000        0x0 ./../build/opteemin-sdcard-stm32mp135f-dk/bl2/gpt.o
 .text          0x00000000        0x0 ./../build/opteemin-sdcard-stm32mp135f-dk/bl2/partition.o
 .data          0x00000000        0x0 ./../build/opteemin-sdcard-stm32mp135f-dk/bl2/partition.o
 .bss           0x00000000        0x0 ./../build/opteemin-sdcard-stm32mp135f-dk/bl2/partition.o
 .text.get_partition_entry_list
                0x00000000        0x8 ./../build/opteemin-sdcard-stm32mp135f-dk/bl2/partition.o
 .text.gpt_partition_init
                0x00000000        0x6 ./../build/opteemin-sdcard-stm32mp135f-dk/bl2/partition.o
 .text          0x00000000        0x0 ./../build/opteemin-sdcard-stm32mp135f-dk/bl2/bsec2.o
 .data          0x00000000        0x0 ./../build/opteemin-sdcard-stm32mp135f-dk/bl2/bsec2.o
 .bss           0x00000000        0x0 ./../build/opteemin-sdcard-stm32mp135f-dk/bl2/bsec2.o
 .text.bsec_permanent_lock_otp
                0x00000000       0x98 ./../build/opteemin-sdcard-stm32mp135f-dk/bl2/bsec2.o
 .text.bsec_set_sr_lock
                0x00000000       0x40 ./../build/opteemin-sdcard-stm32mp135f-dk/bl2/bsec2.o
 .text.bsec_set_sw_lock
                0x00000000       0x40 ./../build/opteemin-sdcard-stm32mp135f-dk/bl2/bsec2.o
 .text.bsec_set_sp_lock
                0x00000000       0x40 ./../build/opteemin-sdcard-stm32mp135f-dk/bl2/bsec2.o
 .text.bsec_read_sp_lock
                0x00000000       0x34 ./../build/opteemin-sdcard-stm32mp135f-dk/bl2/bsec2.o
 .rodata.bsec_program_otp.str1.1
                0x00000000       0xa8 ./../build/opteemin-sdcard-stm32mp135f-dk/bl2/bsec2.o
 .text.bsec_program_otp
                0x00000000       0xf0 ./../build/opteemin-sdcard-stm32mp135f-dk/bl2/bsec2.o
 .text.bsec_get_state
                0x00000000       0x18 ./../build/opteemin-sdcard-stm32mp135f-dk/bl2/bsec2.o
 .text          0x00000000        0x0 ./../build/opteemin-sdcard-stm32mp135f-dk/bl2/clk-stm32-core.o
 .data          0x00000000        0x0 ./../build/opteemin-sdcard-stm32mp135f-dk/bl2/clk-stm32-core.o
 .bss           0x00000000        0x0 ./../build/opteemin-sdcard-stm32mp135f-dk/bl2/clk-stm32-core.o
 .text._clk_stm32_get_parent_index
                0x00000000       0x22 ./../build/opteemin-sdcard-stm32mp135f-dk/bl2/clk-stm32-core.o
 .text._clk_stm32_get_parent_by_index
                0x00000000       0x36 ./../build/opteemin-sdcard-stm32mp135f-dk/bl2/clk-stm32-core.o
 .text          0x00000000        0x0 ./../build/opteemin-sdcard-stm32mp135f-dk/bl2/clk-stm32mp13.o
 .data          0x00000000        0x0 ./../build/opteemin-sdcard-stm32mp135f-dk/bl2/clk-stm32mp13.o
 .bss           0x00000000        0x0 ./../build/opteemin-sdcard-stm32mp135f-dk/bl2/clk-stm32mp13.o
 .text          0x00000000        0x0 ./../build/opteemin-sdcard-stm32mp135f-dk/bl2/stm32mp_clkfunc.o
 .data          0x00000000        0x0 ./../build/opteemin-sdcard-stm32mp135f-dk/bl2/stm32mp_clkfunc.o
 .bss           0x00000000        0x0 ./../build/opteemin-sdcard-stm32mp135f-dk/bl2/stm32mp_clkfunc.o
 .rodata.fdt_get_rcc_node.str1.1
                0x00000000       0x11 ./../build/opteemin-sdcard-stm32mp135f-dk/bl2/stm32mp_clkfunc.o
 .text.fdt_get_rcc_node
                0x00000000       0x24 ./../build/opteemin-sdcard-stm32mp135f-dk/bl2/stm32mp_clkfunc.o
 .rodata.fdt_osc_read_freq.str1.1
                0x00000000       0x18 ./../build/opteemin-sdcard-stm32mp135f-dk/bl2/stm32mp_clkfunc.o
 .text.fdt_osc_read_freq
                0x00000000       0x8c ./../build/opteemin-sdcard-stm32mp135f-dk/bl2/stm32mp_clkfunc.o
 .text.fdt_clk_read_bool
                0x00000000       0x68 ./../build/opteemin-sdcard-stm32mp135f-dk/bl2/stm32mp_clkfunc.o
 .text.fdt_clk_read_uint32_default
                0x00000000       0x64 ./../build/opteemin-sdcard-stm32mp135f-dk/bl2/stm32mp_clkfunc.o
 .text.fdt_rcc_read_uint32_array
                0x00000000       0x36 ./../build/opteemin-sdcard-stm32mp135f-dk/bl2/stm32mp_clkfunc.o
 .text.fdt_rcc_subnode_offset
                0x00000000       0x32 ./../build/opteemin-sdcard-stm32mp135f-dk/bl2/stm32mp_clkfunc.o
 .text.fdt_rcc_read_prop
                0x00000000       0x32 ./../build/opteemin-sdcard-stm32mp135f-dk/bl2/stm32mp_clkfunc.o
 .rodata.fdt_get_uart_clock_freq.str1.1
                0x00000000       0x10 ./../build/opteemin-sdcard-stm32mp135f-dk/bl2/stm32mp_clkfunc.o
 .text.fdt_get_uart_clock_freq
                0x00000000       0x30 ./../build/opteemin-sdcard-stm32mp135f-dk/bl2/stm32mp_clkfunc.o
 .bss.node.0    0x00000000        0x4 ./../build/opteemin-sdcard-stm32mp135f-dk/bl2/stm32mp_clkfunc.o
 .text          0x00000000        0x0 ./../build/opteemin-sdcard-stm32mp135f-dk/bl2/stm32_hash.o
 .data          0x00000000        0x0 ./../build/opteemin-sdcard-stm32mp135f-dk/bl2/stm32_hash.o
 .bss           0x00000000        0x0 ./../build/opteemin-sdcard-stm32mp135f-dk/bl2/stm32_hash.o
 .rodata.hash_write_data.str1.1
                0x00000000       0x13 ./../build/opteemin-sdcard-stm32mp135f-dk/bl2/stm32_hash.o
 .text.hash_write_data
                0x00000000       0x64 ./../build/opteemin-sdcard-stm32mp135f-dk/bl2/stm32_hash.o
 .rodata.stm32_hash_update.str1.1
                0x00000000       0x1f ./../build/opteemin-sdcard-stm32mp135f-dk/bl2/stm32_hash.o
 .text.stm32_hash_update
                0x00000000       0xb8 ./../build/opteemin-sdcard-stm32mp135f-dk/bl2/stm32_hash.o
 .text.stm32_hash_final
                0x00000000       0xfc ./../build/opteemin-sdcard-stm32mp135f-dk/bl2/stm32_hash.o
 .text.stm32_hash_final_update
                0x00000000       0x16 ./../build/opteemin-sdcard-stm32mp135f-dk/bl2/stm32_hash.o
 .rodata.stm32_hash_init.str1.1
                0x00000000       0x1b ./../build/opteemin-sdcard-stm32mp135f-dk/bl2/stm32_hash.o
 .text.stm32_hash_init
                0x00000000       0x80 ./../build/opteemin-sdcard-stm32mp135f-dk/bl2/stm32_hash.o
 .rodata.stm32_hash_register.str1.1
                0x00000000       0x12 ./../build/opteemin-sdcard-stm32mp135f-dk/bl2/stm32_hash.o
 .text.stm32_hash_register
                0x00000000       0x8c ./../build/opteemin-sdcard-stm32mp135f-dk/bl2/stm32_hash.o
 .rodata.__func__.0
                0x00000000       0x10 ./../build/opteemin-sdcard-stm32mp135f-dk/bl2/stm32_hash.o
 .rodata.__func__.1
                0x00000000       0x16 ./../build/opteemin-sdcard-stm32mp135f-dk/bl2/stm32_hash.o
 .rodata.__func__.2
                0x00000000        0xf ./../build/opteemin-sdcard-stm32mp135f-dk/bl2/stm32_hash.o
 .bss.stm32_remain
                0x00000000        0x8 ./../build/opteemin-sdcard-stm32mp135f-dk/bl2/stm32_hash.o
 .bss.stm32_hash
                0x00000000        0xc ./../build/opteemin-sdcard-stm32mp135f-dk/bl2/stm32_hash.o
 .debug_info    0x00000000     0x1247 ./../build/opteemin-sdcard-stm32mp135f-dk/bl2/stm32_hash.o
 .debug_abbrev  0x00000000      0x469 ./../build/opteemin-sdcard-stm32mp135f-dk/bl2/stm32_hash.o
 .debug_loc     0x00000000      0xc10 ./../build/opteemin-sdcard-stm32mp135f-dk/bl2/stm32_hash.o
 .debug_aranges
                0x00000000       0x48 ./../build/opteemin-sdcard-stm32mp135f-dk/bl2/stm32_hash.o
 .debug_ranges  0x00000000      0x2a0 ./../build/opteemin-sdcard-stm32mp135f-dk/bl2/stm32_hash.o
 .debug_line    0x00000000      0x8fb ./../build/opteemin-sdcard-stm32mp135f-dk/bl2/stm32_hash.o
 .debug_str     0x00000000      0x620 ./../build/opteemin-sdcard-stm32mp135f-dk/bl2/stm32_hash.o
 .comment       0x00000000       0x13 ./../build/opteemin-sdcard-stm32mp135f-dk/bl2/stm32_hash.o
 .note.GNU-stack
                0x00000000        0x0 ./../build/opteemin-sdcard-stm32mp135f-dk/bl2/stm32_hash.o
 .debug_frame   0x00000000       0xf0 ./../build/opteemin-sdcard-stm32mp135f-dk/bl2/stm32_hash.o
 .ARM.attributes
                0x00000000       0x33 ./../build/opteemin-sdcard-stm32mp135f-dk/bl2/stm32_hash.o
 .text          0x00000000        0x0 ./../build/opteemin-sdcard-stm32mp135f-dk/bl2/stm32_rng.o
 .data          0x00000000        0x0 ./../build/opteemin-sdcard-stm32mp135f-dk/bl2/stm32_rng.o
 .bss           0x00000000        0x0 ./../build/opteemin-sdcard-stm32mp135f-dk/bl2/stm32_rng.o
 .text.stm32_rng_select
                0x00000000       0x14 ./../build/opteemin-sdcard-stm32mp135f-dk/bl2/stm32_rng.o
 .text          0x00000000        0x0 ./../build/opteemin-sdcard-stm32mp135f-dk/bl2/stm32mp1_ddr.o
 .data          0x00000000        0x0 ./../build/opteemin-sdcard-stm32mp135f-dk/bl2/stm32mp1_ddr.o
 .bss           0x00000000        0x0 ./../build/opteemin-sdcard-stm32mp135f-dk/bl2/stm32mp1_ddr.o
 .text          0x00000000        0x0 ./../build/opteemin-sdcard-stm32mp135f-dk/bl2/stm32mp1_ddr_helpers.o
 .data          0x00000000        0x0 ./../build/opteemin-sdcard-stm32mp135f-dk/bl2/stm32mp1_ddr_helpers.o
 .bss           0x00000000        0x0 ./../build/opteemin-sdcard-stm32mp135f-dk/bl2/stm32mp1_ddr_helpers.o
 .text          0x00000000        0x0 ./../build/opteemin-sdcard-stm32mp135f-dk/bl2/stm32mp1_ram.o
 .data          0x00000000        0x0 ./../build/opteemin-sdcard-stm32mp135f-dk/bl2/stm32mp1_ram.o
 .bss           0x00000000        0x0 ./../build/opteemin-sdcard-stm32mp135f-dk/bl2/stm32mp1_ram.o
 .text          0x00000000        0x0 ./../build/opteemin-sdcard-stm32mp135f-dk/bl2/stm32mp_ddr.o
 .data          0x00000000        0x0 ./../build/opteemin-sdcard-stm32mp135f-dk/bl2/stm32mp_ddr.o
 .bss           0x00000000        0x0 ./../build/opteemin-sdcard-stm32mp135f-dk/bl2/stm32mp_ddr.o
 .text          0x00000000        0x0 ./../build/opteemin-sdcard-stm32mp135f-dk/bl2/stm32mp_ddr_test.o
 .data          0x00000000        0x0 ./../build/opteemin-sdcard-stm32mp135f-dk/bl2/stm32mp_ddr_test.o
 .bss           0x00000000        0x0 ./../build/opteemin-sdcard-stm32mp135f-dk/bl2/stm32mp_ddr_test.o
 .text          0x00000000        0x0 ./../build/opteemin-sdcard-stm32mp135f-dk/bl2/stm32mp_ram.o
 .data          0x00000000        0x0 ./../build/opteemin-sdcard-stm32mp135f-dk/bl2/stm32mp_ram.o
 .bss           0x00000000        0x0 ./../build/opteemin-sdcard-stm32mp135f-dk/bl2/stm32mp_ram.o
 .text          0x00000000        0x0 ./../build/opteemin-sdcard-stm32mp135f-dk/bl2/stm32_gpio.o
 .data          0x00000000        0x0 ./../build/opteemin-sdcard-stm32mp135f-dk/bl2/stm32_gpio.o
 .bss           0x00000000        0x0 ./../build/opteemin-sdcard-stm32mp135f-dk/bl2/stm32_gpio.o
 .text.set_gpio_secure_cfg
                0x00000000       0x4c ./../build/opteemin-sdcard-stm32mp135f-dk/bl2/stm32_gpio.o
 .text.set_gpio_reset_cfg
                0x00000000       0x2e ./../build/opteemin-sdcard-stm32mp135f-dk/bl2/stm32_gpio.o
 .text.set_gpio_level
                0x00000000       0x48 ./../build/opteemin-sdcard-stm32mp135f-dk/bl2/stm32_gpio.o
 .text.get_gpio_level
                0x00000000       0x40 ./../build/opteemin-sdcard-stm32mp135f-dk/bl2/stm32_gpio.o
 .text.set_gpio_config
                0x00000000       0x30 ./../build/opteemin-sdcard-stm32mp135f-dk/bl2/stm32_gpio.o
 .text          0x00000000        0x0 ./../build/opteemin-sdcard-stm32mp135f-dk/bl2/stm32_i2c.o
 .data          0x00000000        0x0 ./../build/opteemin-sdcard-stm32mp135f-dk/bl2/stm32_i2c.o
 .bss           0x00000000        0x0 ./../build/opteemin-sdcard-stm32mp135f-dk/bl2/stm32_i2c.o
 .text.stm32_i2c_master_transmit
                0x00000000       0x18 ./../build/opteemin-sdcard-stm32mp135f-dk/bl2/stm32_i2c.o
 .text.stm32_i2c_master_receive
                0x00000000       0x14 ./../build/opteemin-sdcard-stm32mp135f-dk/bl2/stm32_i2c.o
 .text          0x00000000        0x0 ./../build/opteemin-sdcard-stm32mp135f-dk/bl2/stm32_iwdg.o
 .data          0x00000000        0x0 ./../build/opteemin-sdcard-stm32mp135f-dk/bl2/stm32_iwdg.o
 .bss           0x00000000        0x0 ./../build/opteemin-sdcard-stm32mp135f-dk/bl2/stm32_iwdg.o
 .text          0x00000000        0x0 ./../build/opteemin-sdcard-stm32mp135f-dk/bl2/stm32_mce.o
 .data          0x00000000        0x0 ./../build/opteemin-sdcard-stm32mp135f-dk/bl2/stm32_mce.o
 .bss           0x00000000        0x0 ./../build/opteemin-sdcard-stm32mp135f-dk/bl2/stm32_mce.o
 .text.stm32_mce_is_master_key_locked
                0x00000000       0x10 ./../build/opteemin-sdcard-stm32mp135f-dk/bl2/stm32_mce.o
 .text.stm32_mce_lock_global
                0x00000000       0x10 ./../build/opteemin-sdcard-stm32mp135f-dk/bl2/stm32_mce.o
 .text.stm32_mce_is_globally_locked
                0x00000000       0x10 ./../build/opteemin-sdcard-stm32mp135f-dk/bl2/stm32_mce.o
 .text.stm32_mce_get_address_encryption_state
                0x00000000       0x68 ./../build/opteemin-sdcard-stm32mp135f-dk/bl2/stm32_mce.o
 .text          0x00000000        0x0 ./../build/opteemin-sdcard-stm32mp135f-dk/bl2/stm32_sdmmc2.o
 .data          0x00000000        0x0 ./../build/opteemin-sdcard-stm32mp135f-dk/bl2/stm32_sdmmc2.o
 .bss           0x00000000        0x0 ./../build/opteemin-sdcard-stm32mp135f-dk/bl2/stm32_sdmmc2.o
 .text.stm32_sdmmc2_mmc_get_device_size
                0x00000000       0x10 ./../build/opteemin-sdcard-stm32mp135f-dk/bl2/stm32_sdmmc2.o
 .text          0x00000000        0x0 ./../build/opteemin-sdcard-stm32mp135f-dk/bl2/nvmem.o
 .data          0x00000000        0x0 ./../build/opteemin-sdcard-stm32mp135f-dk/bl2/nvmem.o
 .bss           0x00000000        0x0 ./../build/opteemin-sdcard-stm32mp135f-dk/bl2/nvmem.o
 .text          0x00000000        0x0 ./../build/opteemin-sdcard-stm32mp135f-dk/bl2/stm32mp_tamp_nvram_core.o
 .data          0x00000000        0x0 ./../build/opteemin-sdcard-stm32mp135f-dk/bl2/stm32mp_tamp_nvram_core.o
 .bss           0x00000000        0x0 ./../build/opteemin-sdcard-stm32mp135f-dk/bl2/stm32mp_tamp_nvram_core.o
 .text.stm32_tamp_nvram_reg_field_write
                0x00000000       0x72 ./../build/opteemin-sdcard-stm32mp135f-dk/bl2/stm32mp_tamp_nvram_core.o
 .text          0x00000000        0x0 ./../build/opteemin-sdcard-stm32mp135f-dk/bl2/stm32mp_tamp_nvram_mp1.o
 .data          0x00000000        0x0 ./../build/opteemin-sdcard-stm32mp135f-dk/bl2/stm32mp_tamp_nvram_mp1.o
 .bss           0x00000000        0x0 ./../build/opteemin-sdcard-stm32mp135f-dk/bl2/stm32mp_tamp_nvram_mp1.o
 .text          0x00000000        0x0 ./../build/opteemin-sdcard-stm32mp135f-dk/bl2/stm32mp_pmic.o
 .data          0x00000000        0x0 ./../build/opteemin-sdcard-stm32mp135f-dk/bl2/stm32mp_pmic.o
 .bss           0x00000000        0x0 ./../build/opteemin-sdcard-stm32mp135f-dk/bl2/stm32mp_pmic.o
 .text          0x00000000        0x0 ./../build/opteemin-sdcard-stm32mp135f-dk/bl2/stpmic1.o
 .data          0x00000000        0x0 ./../build/opteemin-sdcard-stm32mp135f-dk/bl2/stpmic1.o
 .bss           0x00000000        0x0 ./../build/opteemin-sdcard-stm32mp135f-dk/bl2/stpmic1.o
 .text.stpmic1_dump_regulators
                0x00000000        0x2 ./../build/opteemin-sdcard-stm32mp135f-dk/bl2/stpmic1.o
 .text          0x00000000        0x0 ./../build/opteemin-sdcard-stm32mp135f-dk/bl2/regulator_core.o
 .data          0x00000000        0x0 ./../build/opteemin-sdcard-stm32mp135f-dk/bl2/regulator_core.o
 .bss           0x00000000        0x0 ./../build/opteemin-sdcard-stm32mp135f-dk/bl2/regulator_core.o
 .rodata.regulator_is_enabled.str1.1
                0x00000000       0x24 ./../build/opteemin-sdcard-stm32mp135f-dk/bl2/regulator_core.o
 .text.regulator_is_enabled
                0x00000000       0x4c ./../build/opteemin-sdcard-stm32mp135f-dk/bl2/regulator_core.o
 .rodata.regulator_set_flag.str1.1
                0x00000000       0x3d ./../build/opteemin-sdcard-stm32mp135f-dk/bl2/regulator_core.o
 .text.regulator_set_flag
                0x00000000       0x78 ./../build/opteemin-sdcard-stm32mp135f-dk/bl2/regulator_core.o
 .text          0x00000000        0x0 ./../build/opteemin-sdcard-stm32mp135f-dk/bl2/regulator_fixed.o
 .data          0x00000000        0x0 ./../build/opteemin-sdcard-stm32mp135f-dk/bl2/regulator_fixed.o
 .bss           0x00000000        0x0 ./../build/opteemin-sdcard-stm32mp135f-dk/bl2/regulator_fixed.o
 .text          0x00000000        0x0 ./../build/opteemin-sdcard-stm32mp135f-dk/bl2/regulator_gpio.o
 .data          0x00000000        0x0 ./../build/opteemin-sdcard-stm32mp135f-dk/bl2/regulator_gpio.o
 .bss           0x00000000        0x0 ./../build/opteemin-sdcard-stm32mp135f-dk/bl2/regulator_gpio.o
 .rodata.gpio_regulator_register.str1.1
                0x00000000       0x63 ./../build/opteemin-sdcard-stm32mp135f-dk/bl2/regulator_gpio.o
 .text.gpio_regulator_register
                0x00000000       0x44 ./../build/opteemin-sdcard-stm32mp135f-dk/bl2/regulator_gpio.o
 .debug_info    0x00000000      0x6dd ./../build/opteemin-sdcard-stm32mp135f-dk/bl2/regulator_gpio.o
 .debug_abbrev  0x00000000      0x21f ./../build/opteemin-sdcard-stm32mp135f-dk/bl2/regulator_gpio.o
 .debug_loc     0x00000000       0x58 ./../build/opteemin-sdcard-stm32mp135f-dk/bl2/regulator_gpio.o
 .debug_aranges
                0x00000000       0x20 ./../build/opteemin-sdcard-stm32mp135f-dk/bl2/regulator_gpio.o
 .debug_ranges  0x00000000       0x10 ./../build/opteemin-sdcard-stm32mp135f-dk/bl2/regulator_gpio.o
 .debug_line    0x00000000      0x1d8 ./../build/opteemin-sdcard-stm32mp135f-dk/bl2/regulator_gpio.o
 .debug_str     0x00000000      0x4e3 ./../build/opteemin-sdcard-stm32mp135f-dk/bl2/regulator_gpio.o
 .comment       0x00000000       0x13 ./../build/opteemin-sdcard-stm32mp135f-dk/bl2/regulator_gpio.o
 .note.GNU-stack
                0x00000000        0x0 ./../build/opteemin-sdcard-stm32mp135f-dk/bl2/regulator_gpio.o
 .debug_frame   0x00000000       0x2c ./../build/opteemin-sdcard-stm32mp135f-dk/bl2/regulator_gpio.o
 .ARM.attributes
                0x00000000       0x33 ./../build/opteemin-sdcard-stm32mp135f-dk/bl2/regulator_gpio.o
 .text          0x00000000        0x0 ./../build/opteemin-sdcard-stm32mp135f-dk/bl2/stm32mp1_reset.o
 .data          0x00000000        0x0 ./../build/opteemin-sdcard-stm32mp135f-dk/bl2/stm32mp1_reset.o
 .bss           0x00000000        0x0 ./../build/opteemin-sdcard-stm32mp135f-dk/bl2/stm32mp1_reset.o
 .text          0x00000000        0x0 ./../build/opteemin-sdcard-stm32mp135f-dk/bl2/ctzdi2.o
 .data          0x00000000        0x0 ./../build/opteemin-sdcard-stm32mp135f-dk/bl2/ctzdi2.o
 .bss           0x00000000        0x0 ./../build/opteemin-sdcard-stm32mp135f-dk/bl2/ctzdi2.o
 .text          0x00000000        0x0 ./../build/opteemin-sdcard-stm32mp135f-dk/bl2/divdi3.o
 .data          0x00000000        0x0 ./../build/opteemin-sdcard-stm32mp135f-dk/bl2/divdi3.o
 .bss           0x00000000        0x0 ./../build/opteemin-sdcard-stm32mp135f-dk/bl2/divdi3.o
 .text.__divdi3
                0x00000000       0x3e ./../build/opteemin-sdcard-stm32mp135f-dk/bl2/divdi3.o
 .debug_info    0x00000000      0x1f2 ./../build/opteemin-sdcard-stm32mp135f-dk/bl2/divdi3.o
 .debug_abbrev  0x00000000      0x124 ./../build/opteemin-sdcard-stm32mp135f-dk/bl2/divdi3.o
 .debug_loc     0x00000000       0xd2 ./../build/opteemin-sdcard-stm32mp135f-dk/bl2/divdi3.o
 .debug_aranges
                0x00000000       0x20 ./../build/opteemin-sdcard-stm32mp135f-dk/bl2/divdi3.o
 .debug_ranges  0x00000000       0x28 ./../build/opteemin-sdcard-stm32mp135f-dk/bl2/divdi3.o
 .debug_line    0x00000000      0x10e ./../build/opteemin-sdcard-stm32mp135f-dk/bl2/divdi3.o
 .debug_str     0x00000000      0x24b ./../build/opteemin-sdcard-stm32mp135f-dk/bl2/divdi3.o
 .comment       0x00000000       0x13 ./../build/opteemin-sdcard-stm32mp135f-dk/bl2/divdi3.o
 .note.GNU-stack
                0x00000000        0x0 ./../build/opteemin-sdcard-stm32mp135f-dk/bl2/divdi3.o
 .debug_frame   0x00000000       0x30 ./../build/opteemin-sdcard-stm32mp135f-dk/bl2/divdi3.o
 .ARM.attributes
                0x00000000       0x33 ./../build/opteemin-sdcard-stm32mp135f-dk/bl2/divdi3.o
 .text          0x00000000        0x0 ./../build/opteemin-sdcard-stm32mp135f-dk/bl2/divmoddi4.o
 .data          0x00000000        0x0 ./../build/opteemin-sdcard-stm32mp135f-dk/bl2/divmoddi4.o
 .bss           0x00000000        0x0 ./../build/opteemin-sdcard-stm32mp135f-dk/bl2/divmoddi4.o
 .text.__divmoddi4
                0x00000000       0x54 ./../build/opteemin-sdcard-stm32mp135f-dk/bl2/divmoddi4.o
 .debug_info    0x00000000      0x19b ./../build/opteemin-sdcard-stm32mp135f-dk/bl2/divmoddi4.o
 .debug_abbrev  0x00000000      0x106 ./../build/opteemin-sdcard-stm32mp135f-dk/bl2/divmoddi4.o
 .debug_loc     0x00000000       0x8c ./../build/opteemin-sdcard-stm32mp135f-dk/bl2/divmoddi4.o
 .debug_aranges
                0x00000000       0x20 ./../build/opteemin-sdcard-stm32mp135f-dk/bl2/divmoddi4.o
 .debug_ranges  0x00000000       0x10 ./../build/opteemin-sdcard-stm32mp135f-dk/bl2/divmoddi4.o
 .debug_line    0x00000000      0x10b ./../build/opteemin-sdcard-stm32mp135f-dk/bl2/divmoddi4.o
 .debug_str     0x00000000      0x259 ./../build/opteemin-sdcard-stm32mp135f-dk/bl2/divmoddi4.o
 .comment       0x00000000       0x13 ./../build/opteemin-sdcard-stm32mp135f-dk/bl2/divmoddi4.o
 .note.GNU-stack
                0x00000000        0x0 ./../build/opteemin-sdcard-stm32mp135f-dk/bl2/divmoddi4.o
 .debug_frame   0x00000000       0x34 ./../build/opteemin-sdcard-stm32mp135f-dk/bl2/divmoddi4.o
 .ARM.attributes
                0x00000000       0x33 ./../build/opteemin-sdcard-stm32mp135f-dk/bl2/divmoddi4.o
 .text          0x00000000        0x0 ./../build/opteemin-sdcard-stm32mp135f-dk/bl2/lshrdi3.o
 .data          0x00000000        0x0 ./../build/opteemin-sdcard-stm32mp135f-dk/bl2/lshrdi3.o
 .bss           0x00000000        0x0 ./../build/opteemin-sdcard-stm32mp135f-dk/bl2/lshrdi3.o
 .text.__lshrdi3
                0x00000000       0x26 ./../build/opteemin-sdcard-stm32mp135f-dk/bl2/lshrdi3.o
 .debug_info    0x00000000      0x18c ./../build/opteemin-sdcard-stm32mp135f-dk/bl2/lshrdi3.o
 .debug_abbrev  0x00000000       0xdf ./../build/opteemin-sdcard-stm32mp135f-dk/bl2/lshrdi3.o
 .debug_loc     0x00000000       0x97 ./../build/opteemin-sdcard-stm32mp135f-dk/bl2/lshrdi3.o
 .debug_aranges
                0x00000000       0x20 ./../build/opteemin-sdcard-stm32mp135f-dk/bl2/lshrdi3.o
 .debug_ranges  0x00000000       0x10 ./../build/opteemin-sdcard-stm32mp135f-dk/bl2/lshrdi3.o
 .debug_line    0x00000000       0xf2 ./../build/opteemin-sdcard-stm32mp135f-dk/bl2/lshrdi3.o
 .debug_str     0x00000000      0x26e ./../build/opteemin-sdcard-stm32mp135f-dk/bl2/lshrdi3.o
 .comment       0x00000000       0x13 ./../build/opteemin-sdcard-stm32mp135f-dk/bl2/lshrdi3.o
 .note.GNU-stack
                0x00000000        0x0 ./../build/opteemin-sdcard-stm32mp135f-dk/bl2/lshrdi3.o
 .debug_frame   0x00000000       0x28 ./../build/opteemin-sdcard-stm32mp135f-dk/bl2/lshrdi3.o
 .ARM.attributes
                0x00000000       0x33 ./../build/opteemin-sdcard-stm32mp135f-dk/bl2/lshrdi3.o
 .text          0x00000000        0x0 ./../build/opteemin-sdcard-stm32mp135f-dk/bl2/popcountdi2.o
 .data          0x00000000        0x0 ./../build/opteemin-sdcard-stm32mp135f-dk/bl2/popcountdi2.o
 .bss           0x00000000        0x0 ./../build/opteemin-sdcard-stm32mp135f-dk/bl2/popcountdi2.o
 .text.__popcountdi2
                0x00000000       0x52 ./../build/opteemin-sdcard-stm32mp135f-dk/bl2/popcountdi2.o
 .debug_info    0x00000000      0x125 ./../build/opteemin-sdcard-stm32mp135f-dk/bl2/popcountdi2.o
 .debug_abbrev  0x00000000       0x7d ./../build/opteemin-sdcard-stm32mp135f-dk/bl2/popcountdi2.o
 .debug_loc     0x00000000       0xa3 ./../build/opteemin-sdcard-stm32mp135f-dk/bl2/popcountdi2.o
 .debug_aranges
                0x00000000       0x20 ./../build/opteemin-sdcard-stm32mp135f-dk/bl2/popcountdi2.o
 .debug_ranges  0x00000000       0x10 ./../build/opteemin-sdcard-stm32mp135f-dk/bl2/popcountdi2.o
 .debug_line    0x00000000      0x109 ./../build/opteemin-sdcard-stm32mp135f-dk/bl2/popcountdi2.o
 .debug_str     0x00000000      0x24f ./../build/opteemin-sdcard-stm32mp135f-dk/bl2/popcountdi2.o
 .comment       0x00000000       0x13 ./../build/opteemin-sdcard-stm32mp135f-dk/bl2/popcountdi2.o
 .note.GNU-stack
                0x00000000        0x0 ./../build/opteemin-sdcard-stm32mp135f-dk/bl2/popcountdi2.o
 .debug_frame   0x00000000       0x20 ./../build/opteemin-sdcard-stm32mp135f-dk/bl2/popcountdi2.o
 .ARM.attributes
                0x00000000       0x33 ./../build/opteemin-sdcard-stm32mp135f-dk/bl2/popcountdi2.o
 .text          0x00000000        0x0 ./../build/opteemin-sdcard-stm32mp135f-dk/bl2/popcountsi2.o
 .data          0x00000000        0x0 ./../build/opteemin-sdcard-stm32mp135f-dk/bl2/popcountsi2.o
 .bss           0x00000000        0x0 ./../build/opteemin-sdcard-stm32mp135f-dk/bl2/popcountsi2.o
 .text.__popcountsi2
                0x00000000       0x2a ./../build/opteemin-sdcard-stm32mp135f-dk/bl2/popcountsi2.o
 .debug_info    0x00000000       0xfa ./../build/opteemin-sdcard-stm32mp135f-dk/bl2/popcountsi2.o
 .debug_abbrev  0x00000000       0x7d ./../build/opteemin-sdcard-stm32mp135f-dk/bl2/popcountsi2.o
 .debug_loc     0x00000000      0x17c ./../build/opteemin-sdcard-stm32mp135f-dk/bl2/popcountsi2.o
 .debug_aranges
                0x00000000       0x20 ./../build/opteemin-sdcard-stm32mp135f-dk/bl2/popcountsi2.o
 .debug_ranges  0x00000000       0x10 ./../build/opteemin-sdcard-stm32mp135f-dk/bl2/popcountsi2.o
 .debug_line    0x00000000       0xc1 ./../build/opteemin-sdcard-stm32mp135f-dk/bl2/popcountsi2.o
 .debug_str     0x00000000      0x23f ./../build/opteemin-sdcard-stm32mp135f-dk/bl2/popcountsi2.o
 .comment       0x00000000       0x13 ./../build/opteemin-sdcard-stm32mp135f-dk/bl2/popcountsi2.o
 .note.GNU-stack
                0x00000000        0x0 ./../build/opteemin-sdcard-stm32mp135f-dk/bl2/popcountsi2.o
 .debug_frame   0x00000000       0x20 ./../build/opteemin-sdcard-stm32mp135f-dk/bl2/popcountsi2.o
 .ARM.attributes
                0x00000000       0x33 ./../build/opteemin-sdcard-stm32mp135f-dk/bl2/popcountsi2.o
 .text          0x00000000        0x0 ./../build/opteemin-sdcard-stm32mp135f-dk/bl2/udivmoddi4.o
 .data          0x00000000        0x0 ./../build/opteemin-sdcard-stm32mp135f-dk/bl2/udivmoddi4.o
 .bss           0x00000000        0x0 ./../build/opteemin-sdcard-stm32mp135f-dk/bl2/udivmoddi4.o
 .text          0x00000000        0x0 ./../build/opteemin-sdcard-stm32mp135f-dk/bl2/pmuv3.o
 .data          0x00000000        0x0 ./../build/opteemin-sdcard-stm32mp135f-dk/bl2/pmuv3.o
 .bss           0x00000000        0x0 ./../build/opteemin-sdcard-stm32mp135f-dk/bl2/pmuv3.o
 .text.pmuv3_init_el3
                0x00000000       0x1e ./../build/opteemin-sdcard-stm32mp135f-dk/bl2/pmuv3.o
 .debug_info    0x00000000      0x1e9 ./../build/opteemin-sdcard-stm32mp135f-dk/bl2/pmuv3.o
 .debug_abbrev  0x00000000      0x14f ./../build/opteemin-sdcard-stm32mp135f-dk/bl2/pmuv3.o
 .debug_loc     0x00000000       0xba ./../build/opteemin-sdcard-stm32mp135f-dk/bl2/pmuv3.o
 .debug_aranges
                0x00000000       0x20 ./../build/opteemin-sdcard-stm32mp135f-dk/bl2/pmuv3.o
 .debug_ranges  0x00000000       0x40 ./../build/opteemin-sdcard-stm32mp135f-dk/bl2/pmuv3.o
 .debug_line    0x00000000      0x11b ./../build/opteemin-sdcard-stm32mp135f-dk/bl2/pmuv3.o
 .debug_str     0x00000000      0x258 ./../build/opteemin-sdcard-stm32mp135f-dk/bl2/pmuv3.o
 .comment       0x00000000       0x13 ./../build/opteemin-sdcard-stm32mp135f-dk/bl2/pmuv3.o
 .note.GNU-stack
                0x00000000        0x0 ./../build/opteemin-sdcard-stm32mp135f-dk/bl2/pmuv3.o
 .debug_frame   0x00000000       0x20 ./../build/opteemin-sdcard-stm32mp135f-dk/bl2/pmuv3.o
 .ARM.attributes
                0x00000000       0x33 ./../build/opteemin-sdcard-stm32mp135f-dk/bl2/pmuv3.o
 .text          0x00000000        0x0 ./../build/opteemin-sdcard-stm32mp135f-dk/bl2/fconf.o
 .data          0x00000000        0x0 ./../build/opteemin-sdcard-stm32mp135f-dk/bl2/fconf.o
 .bss           0x00000000        0x0 ./../build/opteemin-sdcard-stm32mp135f-dk/bl2/fconf.o
 .text.fconf_load_config
                0x00000000       0x60 ./../build/opteemin-sdcard-stm32mp135f-dk/bl2/fconf.o
 .text          0x00000000        0x0 ./../build/opteemin-sdcard-stm32mp135f-dk/bl2/fconf_dyn_cfg_getter.o
 .data          0x00000000        0x0 ./../build/opteemin-sdcard-stm32mp135f-dk/bl2/fconf_dyn_cfg_getter.o
 .bss           0x00000000        0x0 ./../build/opteemin-sdcard-stm32mp135f-dk/bl2/fconf_dyn_cfg_getter.o
 .text          0x00000000        0x0 ./../build/opteemin-sdcard-stm32mp135f-dk/bl2/optee_utils.o
 .data          0x00000000        0x0 ./../build/opteemin-sdcard-stm32mp135f-dk/bl2/optee_utils.o
 .bss           0x00000000        0x0 ./../build/opteemin-sdcard-stm32mp135f-dk/bl2/optee_utils.o
 .text          0x00000000        0x0 ./../build/opteemin-sdcard-stm32mp135f-dk/bl2/xlat_tables_arch.o
 .data          0x00000000        0x0 ./../build/opteemin-sdcard-stm32mp135f-dk/bl2/xlat_tables_arch.o
 .bss           0x00000000        0x0 ./../build/opteemin-sdcard-stm32mp135f-dk/bl2/xlat_tables_arch.o
 .text.xlat_arch_is_granule_size_supported
                0x00000000        0xa ./../build/opteemin-sdcard-stm32mp135f-dk/bl2/xlat_tables_arch.o
 .text.xlat_arch_get_max_supported_granule_size
                0x00000000        0x6 ./../build/opteemin-sdcard-stm32mp135f-dk/bl2/xlat_tables_arch.o
 .text          0x00000000        0x0 ./../build/opteemin-sdcard-stm32mp135f-dk/bl2/xlat_tables_context.o
 .data          0x00000000        0x0 ./../build/opteemin-sdcard-stm32mp135f-dk/bl2/xlat_tables_context.o
 .bss           0x00000000        0x0 ./../build/opteemin-sdcard-stm32mp135f-dk/bl2/xlat_tables_context.o
 .text.mmap_add_region_alloc_va
                0x00000000       0x30 ./../build/opteemin-sdcard-stm32mp135f-dk/bl2/xlat_tables_context.o
 .text.mmap_add_alloc_va
                0x00000000       0x2c ./../build/opteemin-sdcard-stm32mp135f-dk/bl2/xlat_tables_context.o
 .text.mmap_add_dynamic_region_alloc_va
                0x00000000       0x30 ./../build/opteemin-sdcard-stm32mp135f-dk/bl2/xlat_tables_context.o
 .text.xlat_get_mem_attributes
                0x00000000       0x10 ./../build/opteemin-sdcard-stm32mp135f-dk/bl2/xlat_tables_context.o
 .text.xlat_change_mem_attributes
                0x00000000       0x10 ./../build/opteemin-sdcard-stm32mp135f-dk/bl2/xlat_tables_context.o
 .text.enable_mmu_hyp
                0x00000000       0x34 ./../build/opteemin-sdcard-stm32mp135f-dk/bl2/xlat_tables_context.o
 .text          0x00000000        0x0 ./../build/opteemin-sdcard-stm32mp135f-dk/bl2/xlat_tables_core.o
 .data          0x00000000        0x0 ./../build/opteemin-sdcard-stm32mp135f-dk/bl2/xlat_tables_core.o
 .bss           0x00000000        0x0 ./../build/opteemin-sdcard-stm32mp135f-dk/bl2/xlat_tables_core.o
 .text.mmap_alloc_va_align_ctx.isra.0
                0x00000000       0x32 ./../build/opteemin-sdcard-stm32mp135f-dk/bl2/xlat_tables_core.o
 .text.mmap_add_region_alloc_va_ctx
                0x00000000       0x38 ./../build/opteemin-sdcard-stm32mp135f-dk/bl2/xlat_tables_core.o
 .text.mmap_add_dynamic_region_alloc_va_ctx
                0x00000000       0x2a ./../build/opteemin-sdcard-stm32mp135f-dk/bl2/xlat_tables_core.o
 .text.xlat_setup_dynamic_ctx
                0x00000000       0x62 ./../build/opteemin-sdcard-stm32mp135f-dk/bl2/xlat_tables_core.o
 .text          0x00000000        0x0 ./../build/opteemin-sdcard-stm32mp135f-dk/bl2/xlat_tables_utils.o
 .data          0x00000000        0x0 ./../build/opteemin-sdcard-stm32mp135f-dk/bl2/xlat_tables_utils.o
 .bss           0x00000000        0x0 ./../build/opteemin-sdcard-stm32mp135f-dk/bl2/xlat_tables_utils.o
 .rodata.find_xlat_table_entry.str1.1
                0x00000000       0x53 ./../build/opteemin-sdcard-stm32mp135f-dk/bl2/xlat_tables_utils.o
 .text.find_xlat_table_entry
                0x00000000       0x8c ./../build/opteemin-sdcard-stm32mp135f-dk/bl2/xlat_tables_utils.o
 .rodata.xlat_get_mem_attributes_internal.str1.1
                0x00000000       0x1f ./../build/opteemin-sdcard-stm32mp135f-dk/bl2/xlat_tables_utils.o
 .text.xlat_get_mem_attributes_internal
                0x00000000      0x118 ./../build/opteemin-sdcard-stm32mp135f-dk/bl2/xlat_tables_utils.o
 .text.xlat_get_mem_attributes_ctx
                0x00000000       0x12 ./../build/opteemin-sdcard-stm32mp135f-dk/bl2/xlat_tables_utils.o
 .rodata.xlat_change_mem_attributes_ctx.str1.1
                0x00000000      0x152 ./../build/opteemin-sdcard-stm32mp135f-dk/bl2/xlat_tables_utils.o
 .text.xlat_change_mem_attributes_ctx
                0x00000000      0x194 ./../build/opteemin-sdcard-stm32mp135f-dk/bl2/xlat_tables_utils.o
 .rodata.__func__.0
                0x00000000       0x1f ./../build/opteemin-sdcard-stm32mp135f-dk/bl2/xlat_tables_utils.o
 .text          0x00000000        0x0 ./../build/opteemin-sdcard-stm32mp135f-dk/bl2/adler32.o
 .data          0x00000000        0x0 ./../build/opteemin-sdcard-stm32mp135f-dk/bl2/adler32.o
 .bss           0x00000000        0x0 ./../build/opteemin-sdcard-stm32mp135f-dk/bl2/adler32.o
 .text.adler32_combine_
                0x00000000       0x70 ./../build/opteemin-sdcard-stm32mp135f-dk/bl2/adler32.o
 .text.adler32_z
                0x00000000      0x226 ./../build/opteemin-sdcard-stm32mp135f-dk/bl2/adler32.o
 .text.adler32  0x00000000        0x4 ./../build/opteemin-sdcard-stm32mp135f-dk/bl2/adler32.o
 .text.adler32_combine
                0x00000000        0x4 ./../build/opteemin-sdcard-stm32mp135f-dk/bl2/adler32.o
 .text.adler32_combine64
                0x00000000        0x4 ./../build/opteemin-sdcard-stm32mp135f-dk/bl2/adler32.o
 .debug_info    0x00000000      0x314 ./../build/opteemin-sdcard-stm32mp135f-dk/bl2/adler32.o
 .debug_abbrev  0x00000000      0x153 ./../build/opteemin-sdcard-stm32mp135f-dk/bl2/adler32.o
 .debug_loc     0x00000000      0x991 ./../build/opteemin-sdcard-stm32mp135f-dk/bl2/adler32.o
 .debug_aranges
                0x00000000       0x40 ./../build/opteemin-sdcard-stm32mp135f-dk/bl2/adler32.o
 .debug_ranges  0x00000000       0x30 ./../build/opteemin-sdcard-stm32mp135f-dk/bl2/adler32.o
 .debug_line    0x00000000      0x352 ./../build/opteemin-sdcard-stm32mp135f-dk/bl2/adler32.o
 .debug_str     0x00000000      0x228 ./../build/opteemin-sdcard-stm32mp135f-dk/bl2/adler32.o
 .comment       0x00000000       0x13 ./../build/opteemin-sdcard-stm32mp135f-dk/bl2/adler32.o
 .note.GNU-stack
                0x00000000        0x0 ./../build/opteemin-sdcard-stm32mp135f-dk/bl2/adler32.o
 .debug_frame   0x00000000       0x8c ./../build/opteemin-sdcard-stm32mp135f-dk/bl2/adler32.o
 .ARM.attributes
                0x00000000       0x33 ./../build/opteemin-sdcard-stm32mp135f-dk/bl2/adler32.o
 .text          0x00000000        0x0 ./../build/opteemin-sdcard-stm32mp135f-dk/bl2/crc32.o
 .data          0x00000000        0x0 ./../build/opteemin-sdcard-stm32mp135f-dk/bl2/crc32.o
 .bss           0x00000000        0x0 ./../build/opteemin-sdcard-stm32mp135f-dk/bl2/crc32.o
 .text.multmodp
                0x00000000       0x2c ./../build/opteemin-sdcard-stm32mp135f-dk/bl2/crc32.o
 .text.x2nmodp.constprop.0
                0x00000000       0x2c ./../build/opteemin-sdcard-stm32mp135f-dk/bl2/crc32.o
 .text.get_crc_table
                0x00000000        0x8 ./../build/opteemin-sdcard-stm32mp135f-dk/bl2/crc32.o
 .text.crc32_combine64
                0x00000000       0x16 ./../build/opteemin-sdcard-stm32mp135f-dk/bl2/crc32.o
 .text.crc32_combine
                0x00000000        0x4 ./../build/opteemin-sdcard-stm32mp135f-dk/bl2/crc32.o
 .text.crc32_combine_gen64
                0x00000000        0x4 ./../build/opteemin-sdcard-stm32mp135f-dk/bl2/crc32.o
 .text.crc32_combine_gen
                0x00000000        0x4 ./../build/opteemin-sdcard-stm32mp135f-dk/bl2/crc32.o
 .text.crc32_combine_op
                0x00000000       0x10 ./../build/opteemin-sdcard-stm32mp135f-dk/bl2/crc32.o
 .rodata.x2n_table
                0x00000000       0x80 ./../build/opteemin-sdcard-stm32mp135f-dk/bl2/crc32.o
 .text          0x00000000        0x0 ./../build/opteemin-sdcard-stm32mp135f-dk/bl2/inffast.o
 .data          0x00000000        0x0 ./../build/opteemin-sdcard-stm32mp135f-dk/bl2/inffast.o
 .bss           0x00000000        0x0 ./../build/opteemin-sdcard-stm32mp135f-dk/bl2/inffast.o
 .rodata.inflate_fast.str1.1
                0x00000000       0x50 ./../build/opteemin-sdcard-stm32mp135f-dk/bl2/inffast.o
 .text.inflate_fast
                0x00000000      0x36c ./../build/opteemin-sdcard-stm32mp135f-dk/bl2/inffast.o
 .debug_info    0x00000000      0x80e ./../build/opteemin-sdcard-stm32mp135f-dk/bl2/inffast.o
 .debug_abbrev  0x00000000      0x196 ./../build/opteemin-sdcard-stm32mp135f-dk/bl2/inffast.o
 .debug_loc     0x00000000      0x8e2 ./../build/opteemin-sdcard-stm32mp135f-dk/bl2/inffast.o
 .debug_aranges
                0x00000000       0x20 ./../build/opteemin-sdcard-stm32mp135f-dk/bl2/inffast.o
 .debug_ranges  0x00000000       0x10 ./../build/opteemin-sdcard-stm32mp135f-dk/bl2/inffast.o
 .debug_line    0x00000000      0x5db ./../build/opteemin-sdcard-stm32mp135f-dk/bl2/inffast.o
 .debug_str     0x00000000      0x4a9 ./../build/opteemin-sdcard-stm32mp135f-dk/bl2/inffast.o
 .comment       0x00000000       0x13 ./../build/opteemin-sdcard-stm32mp135f-dk/bl2/inffast.o
 .note.GNU-stack
                0x00000000        0x0 ./../build/opteemin-sdcard-stm32mp135f-dk/bl2/inffast.o
 .debug_frame   0x00000000       0x40 ./../build/opteemin-sdcard-stm32mp135f-dk/bl2/inffast.o
 .ARM.attributes
                0x00000000       0x33 ./../build/opteemin-sdcard-stm32mp135f-dk/bl2/inffast.o
 .text          0x00000000        0x0 ./../build/opteemin-sdcard-stm32mp135f-dk/bl2/inflate.o
 .data          0x00000000        0x0 ./../build/opteemin-sdcard-stm32mp135f-dk/bl2/inflate.o
 .bss           0x00000000        0x0 ./../build/opteemin-sdcard-stm32mp135f-dk/bl2/inflate.o
 .text.syncsearch
                0x00000000       0x34 ./../build/opteemin-sdcard-stm32mp135f-dk/bl2/inflate.o
 .text.updatewindow
                0x00000000       0x9c ./../build/opteemin-sdcard-stm32mp135f-dk/bl2/inflate.o
 .text.inflateStateCheck
                0x00000000       0x2a ./../build/opteemin-sdcard-stm32mp135f-dk/bl2/inflate.o
 .text.inflateResetKeep
                0x00000000       0x5c ./../build/opteemin-sdcard-stm32mp135f-dk/bl2/inflate.o
 .text.inflateReset
                0x00000000       0x22 ./../build/opteemin-sdcard-stm32mp135f-dk/bl2/inflate.o
 .text.inflateReset2
                0x00000000       0x5c ./../build/opteemin-sdcard-stm32mp135f-dk/bl2/inflate.o
 .text.inflateInit2_
                0x00000000       0x6c ./../build/opteemin-sdcard-stm32mp135f-dk/bl2/inflate.o
 .text.inflateInit_
                0x00000000        0xa ./../build/opteemin-sdcard-stm32mp135f-dk/bl2/inflate.o
 .text.inflatePrime
                0x00000000       0x42 ./../build/opteemin-sdcard-stm32mp135f-dk/bl2/inflate.o
 .rodata.inflate.str1.1
                0x00000000      0x1cd ./../build/opteemin-sdcard-stm32mp135f-dk/bl2/inflate.o
 .text.inflate  0x00000000      0xe28 ./../build/opteemin-sdcard-stm32mp135f-dk/bl2/inflate.o
 .text.inflateEnd
                0x00000000       0x2e ./../build/opteemin-sdcard-stm32mp135f-dk/bl2/inflate.o
 .text.inflateGetDictionary
                0x00000000       0x44 ./../build/opteemin-sdcard-stm32mp135f-dk/bl2/inflate.o
 .text.inflateSetDictionary
                0x00000000       0x64 ./../build/opteemin-sdcard-stm32mp135f-dk/bl2/inflate.o
 .text.inflateGetHeader
                0x00000000       0x1e ./../build/opteemin-sdcard-stm32mp135f-dk/bl2/inflate.o
 .text.inflateSync
                0x00000000       0xc6 ./../build/opteemin-sdcard-stm32mp135f-dk/bl2/inflate.o
 .text.inflateSyncPoint
                0x00000000       0x26 ./../build/opteemin-sdcard-stm32mp135f-dk/bl2/inflate.o
 .text.inflateCopy
                0x00000000       0xba ./../build/opteemin-sdcard-stm32mp135f-dk/bl2/inflate.o
 .text.inflateUndermine
                0x00000000       0x22 ./../build/opteemin-sdcard-stm32mp135f-dk/bl2/inflate.o
 .text.inflateValidate
                0x00000000       0x26 ./../build/opteemin-sdcard-stm32mp135f-dk/bl2/inflate.o
 .text.inflateMark
                0x00000000       0x44 ./../build/opteemin-sdcard-stm32mp135f-dk/bl2/inflate.o
 .text.inflateCodesUsed
                0x00000000       0x1e ./../build/opteemin-sdcard-stm32mp135f-dk/bl2/inflate.o
 .rodata.distfix.0
                0x00000000       0x80 ./../build/opteemin-sdcard-stm32mp135f-dk/bl2/inflate.o
 .rodata.lenfix.1
                0x00000000      0x800 ./../build/opteemin-sdcard-stm32mp135f-dk/bl2/inflate.o
 .rodata.order.2
                0x00000000       0x26 ./../build/opteemin-sdcard-stm32mp135f-dk/bl2/inflate.o
 .debug_info    0x00000000     0x1789 ./../build/opteemin-sdcard-stm32mp135f-dk/bl2/inflate.o
 .debug_abbrev  0x00000000      0x41c ./../build/opteemin-sdcard-stm32mp135f-dk/bl2/inflate.o
 .debug_loc     0x00000000     0x2101 ./../build/opteemin-sdcard-stm32mp135f-dk/bl2/inflate.o
 .debug_aranges
                0x00000000       0xc0 ./../build/opteemin-sdcard-stm32mp135f-dk/bl2/inflate.o
 .debug_ranges  0x00000000       0xb0 ./../build/opteemin-sdcard-stm32mp135f-dk/bl2/inflate.o
 .debug_line    0x00000000     0x2173 ./../build/opteemin-sdcard-stm32mp135f-dk/bl2/inflate.o
 .debug_str     0x00000000      0x68e ./../build/opteemin-sdcard-stm32mp135f-dk/bl2/inflate.o
 .comment       0x00000000       0x13 ./../build/opteemin-sdcard-stm32mp135f-dk/bl2/inflate.o
 .note.GNU-stack
                0x00000000        0x0 ./../build/opteemin-sdcard-stm32mp135f-dk/bl2/inflate.o
 .debug_frame   0x00000000      0x278 ./../build/opteemin-sdcard-stm32mp135f-dk/bl2/inflate.o
 .ARM.attributes
                0x00000000       0x33 ./../build/opteemin-sdcard-stm32mp135f-dk/bl2/inflate.o
 .text          0x00000000        0x0 ./../build/opteemin-sdcard-stm32mp135f-dk/bl2/inftrees.o
 .data          0x00000000        0x0 ./../build/opteemin-sdcard-stm32mp135f-dk/bl2/inftrees.o
 .bss           0x00000000        0x0 ./../build/opteemin-sdcard-stm32mp135f-dk/bl2/inftrees.o
 .text.inflate_table
                0x00000000      0x304 ./../build/opteemin-sdcard-stm32mp135f-dk/bl2/inftrees.o
 .rodata.dext.0
                0x00000000       0x40 ./../build/opteemin-sdcard-stm32mp135f-dk/bl2/inftrees.o
 .rodata.dbase.1
                0x00000000       0x40 ./../build/opteemin-sdcard-stm32mp135f-dk/bl2/inftrees.o
 .rodata.lext.2
                0x00000000       0x3e ./../build/opteemin-sdcard-stm32mp135f-dk/bl2/inftrees.o
 .rodata.lbase.3
                0x00000000       0x3e ./../build/opteemin-sdcard-stm32mp135f-dk/bl2/inftrees.o
 .rodata.inflate_copyright
                0x00000000       0x2d ./../build/opteemin-sdcard-stm32mp135f-dk/bl2/inftrees.o
 .debug_info    0x00000000      0x3c0 ./../build/opteemin-sdcard-stm32mp135f-dk/bl2/inftrees.o
 .debug_abbrev  0x00000000      0x126 ./../build/opteemin-sdcard-stm32mp135f-dk/bl2/inftrees.o
 .debug_loc     0x00000000      0x779 ./../build/opteemin-sdcard-stm32mp135f-dk/bl2/inftrees.o
 .debug_aranges
                0x00000000       0x20 ./../build/opteemin-sdcard-stm32mp135f-dk/bl2/inftrees.o
 .debug_ranges  0x00000000       0x10 ./../build/opteemin-sdcard-stm32mp135f-dk/bl2/inftrees.o
 .debug_line    0x00000000      0x498 ./../build/opteemin-sdcard-stm32mp135f-dk/bl2/inftrees.o
 .debug_str     0x00000000      0x261 ./../build/opteemin-sdcard-stm32mp135f-dk/bl2/inftrees.o
 .comment       0x00000000       0x13 ./../build/opteemin-sdcard-stm32mp135f-dk/bl2/inftrees.o
 .note.GNU-stack
                0x00000000        0x0 ./../build/opteemin-sdcard-stm32mp135f-dk/bl2/inftrees.o
 .debug_frame   0x00000000       0x40 ./../build/opteemin-sdcard-stm32mp135f-dk/bl2/inftrees.o
 .ARM.attributes
                0x00000000       0x33 ./../build/opteemin-sdcard-stm32mp135f-dk/bl2/inftrees.o
 .text          0x00000000        0x0 ./../build/opteemin-sdcard-stm32mp135f-dk/bl2/tf_gunzip.o
 .data          0x00000000        0x0 ./../build/opteemin-sdcard-stm32mp135f-dk/bl2/tf_gunzip.o
 .bss           0x00000000        0x0 ./../build/opteemin-sdcard-stm32mp135f-dk/bl2/tf_gunzip.o
 .text.zfree    0x00000000        0x2 ./../build/opteemin-sdcard-stm32mp135f-dk/bl2/tf_gunzip.o
 .text.zcalloc  0x00000000       0x34 ./../build/opteemin-sdcard-stm32mp135f-dk/bl2/tf_gunzip.o
 .rodata.gunzip.str1.1
                0x00000000       0x52 ./../build/opteemin-sdcard-stm32mp135f-dk/bl2/tf_gunzip.o
 .text.gunzip   0x00000000       0xb0 ./../build/opteemin-sdcard-stm32mp135f-dk/bl2/tf_gunzip.o
 .bss.zalloc_current
                0x00000000        0x4 ./../build/opteemin-sdcard-stm32mp135f-dk/bl2/tf_gunzip.o
 .bss.zalloc_end
                0x00000000        0x4 ./../build/opteemin-sdcard-stm32mp135f-dk/bl2/tf_gunzip.o
 .text          0x00000000        0x0 ./../build/opteemin-sdcard-stm32mp135f-dk/bl2/zutil.o
 .data          0x00000000        0x0 ./../build/opteemin-sdcard-stm32mp135f-dk/bl2/zutil.o
 .bss           0x00000000        0x0 ./../build/opteemin-sdcard-stm32mp135f-dk/bl2/zutil.o
 .rodata.zlibVersion.str1.1
                0x00000000        0x4 ./../build/opteemin-sdcard-stm32mp135f-dk/bl2/zutil.o
 .text.zlibVersion
                0x00000000        0x8 ./../build/opteemin-sdcard-stm32mp135f-dk/bl2/zutil.o
 .text.zlibCompileFlags
                0x00000000        0x4 ./../build/opteemin-sdcard-stm32mp135f-dk/bl2/zutil.o
 .text.zError   0x00000000       0x10 ./../build/opteemin-sdcard-stm32mp135f-dk/bl2/zutil.o
 .text.zmemcpy  0x00000000       0x14 ./../build/opteemin-sdcard-stm32mp135f-dk/bl2/zutil.o
 .text.zmemcmp  0x00000000       0x24 ./../build/opteemin-sdcard-stm32mp135f-dk/bl2/zutil.o
 .text.zmemzero
                0x00000000       0x10 ./../build/opteemin-sdcard-stm32mp135f-dk/bl2/zutil.o
 .rodata.str1.1
                0x00000000       0x75 ./../build/opteemin-sdcard-stm32mp135f-dk/bl2/zutil.o
 .rodata.z_errmsg
                0x00000000       0x28 ./../build/opteemin-sdcard-stm32mp135f-dk/bl2/zutil.o
 .debug_info    0x00000000      0x242 ./../build/opteemin-sdcard-stm32mp135f-dk/bl2/zutil.o
 .debug_abbrev  0x00000000      0x134 ./../build/opteemin-sdcard-stm32mp135f-dk/bl2/zutil.o
 .debug_loc     0x00000000      0x1f1 ./../build/opteemin-sdcard-stm32mp135f-dk/bl2/zutil.o
 .debug_aranges
                0x00000000       0x48 ./../build/opteemin-sdcard-stm32mp135f-dk/bl2/zutil.o
 .debug_ranges  0x00000000       0x38 ./../build/opteemin-sdcard-stm32mp135f-dk/bl2/zutil.o
 .debug_line    0x00000000      0x1a0 ./../build/opteemin-sdcard-stm32mp135f-dk/bl2/zutil.o
 .debug_str     0x00000000      0x204 ./../build/opteemin-sdcard-stm32mp135f-dk/bl2/zutil.o
 .comment       0x00000000       0x13 ./../build/opteemin-sdcard-stm32mp135f-dk/bl2/zutil.o
 .note.GNU-stack
                0x00000000        0x0 ./../build/opteemin-sdcard-stm32mp135f-dk/bl2/zutil.o
 .debug_frame   0x00000000       0x7c ./../build/opteemin-sdcard-stm32mp135f-dk/bl2/zutil.o
 .ARM.attributes
                0x00000000       0x33 ./../build/opteemin-sdcard-stm32mp135f-dk/bl2/zutil.o
 .text          0x00000000        0x0 ./../build/opteemin-sdcard-stm32mp135f-dk/bl2/plat_common.o
 .data          0x00000000        0x0 ./../build/opteemin-sdcard-stm32mp135f-dk/bl2/plat_common.o
 .bss           0x00000000        0x0 ./../build/opteemin-sdcard-stm32mp135f-dk/bl2/plat_common.o
 .text.bl32_plat_enable_mmu
                0x00000000        0x4 ./../build/opteemin-sdcard-stm32mp135f-dk/bl2/plat_common.o
 .debug_info    0x00000000      0x110 ./../build/opteemin-sdcard-stm32mp135f-dk/bl2/plat_common.o
 .debug_abbrev  0x00000000       0xb3 ./../build/opteemin-sdcard-stm32mp135f-dk/bl2/plat_common.o
 .debug_loc     0x00000000       0x2b ./../build/opteemin-sdcard-stm32mp135f-dk/bl2/plat_common.o
 .debug_aranges
                0x00000000       0x20 ./../build/opteemin-sdcard-stm32mp135f-dk/bl2/plat_common.o
 .debug_ranges  0x00000000       0x10 ./../build/opteemin-sdcard-stm32mp135f-dk/bl2/plat_common.o
 .debug_line    0x00000000       0xbf ./../build/opteemin-sdcard-stm32mp135f-dk/bl2/plat_common.o
 .debug_str     0x00000000      0x23d ./../build/opteemin-sdcard-stm32mp135f-dk/bl2/plat_common.o
 .comment       0x00000000       0x13 ./../build/opteemin-sdcard-stm32mp135f-dk/bl2/plat_common.o
 .note.GNU-stack
                0x00000000        0x0 ./../build/opteemin-sdcard-stm32mp135f-dk/bl2/plat_common.o
 .debug_frame   0x00000000       0x20 ./../build/opteemin-sdcard-stm32mp135f-dk/bl2/plat_common.o
 .ARM.attributes
                0x00000000       0x33 ./../build/opteemin-sdcard-stm32mp135f-dk/bl2/plat_common.o
 .text          0x00000000        0x0 ./../build/opteemin-sdcard-stm32mp135f-dk/bl2/plat_bl_common.o
 .data          0x00000000        0x0 ./../build/opteemin-sdcard-stm32mp135f-dk/bl2/plat_bl_common.o
 .bss           0x00000000        0x0 ./../build/opteemin-sdcard-stm32mp135f-dk/bl2/plat_bl_common.o
 .text.plat_get_soc_version
                0x00000000        0x6 ./../build/opteemin-sdcard-stm32mp135f-dk/bl2/plat_bl_common.o
 .text.plat_get_soc_revision
                0x00000000        0x6 ./../build/opteemin-sdcard-stm32mp135f-dk/bl2/plat_bl_common.o
 .text.plat_is_smccc_feature_available
                0x00000000        0x6 ./../build/opteemin-sdcard-stm32mp135f-dk/bl2/plat_bl_common.o
 .text.bl2_el3_plat_prepare_exit
                0x00000000        0x2 ./../build/opteemin-sdcard-stm32mp135f-dk/bl2/plat_bl_common.o
 .text.bl2_plat_handle_pre_image_load
                0x00000000        0x4 ./../build/opteemin-sdcard-stm32mp135f-dk/bl2/plat_bl_common.o
 .text.bl2_plat_handle_post_image_load
                0x00000000        0x4 ./../build/opteemin-sdcard-stm32mp135f-dk/bl2/plat_bl_common.o
 .text.plat_try_next_boot_source
                0x00000000        0x4 ./../build/opteemin-sdcard-stm32mp135f-dk/bl2/plat_bl_common.o
 .text.plat_try_backup_partitions
                0x00000000        0x4 ./../build/opteemin-sdcard-stm32mp135f-dk/bl2/plat_bl_common.o
 .rodata.plat_get_enc_key_info.str1.1
                0x00000000       0x3e ./../build/opteemin-sdcard-stm32mp135f-dk/bl2/plat_bl_common.o
 .text.plat_get_enc_key_info
                0x00000000       0x40 ./../build/opteemin-sdcard-stm32mp135f-dk/bl2/plat_bl_common.o
 .text.setup_page_tables
                0x00000000       0x16 ./../build/opteemin-sdcard-stm32mp135f-dk/bl2/plat_bl_common.o
 .text          0x00000000        0x0 ./../build/opteemin-sdcard-stm32mp135f-dk/bl2/plat_log_common.o
 .data          0x00000000        0x0 ./../build/opteemin-sdcard-stm32mp135f-dk/bl2/plat_log_common.o
 .bss           0x00000000        0x0 ./../build/opteemin-sdcard-stm32mp135f-dk/bl2/plat_log_common.o
 .text          0x00000000        0x0 ./../build/opteemin-sdcard-stm32mp135f-dk/bl2/bl2_io_storage.o
 .data          0x00000000        0x0 ./../build/opteemin-sdcard-stm32mp135f-dk/bl2/bl2_io_storage.o
 .bss           0x00000000        0x0 ./../build/opteemin-sdcard-stm32mp135f-dk/bl2/bl2_io_storage.o
 .text.stm32mp_io_exit
                0x00000000       0x20 ./../build/opteemin-sdcard-stm32mp135f-dk/bl2/bl2_io_storage.o
 .text          0x00000000        0x0 ./../build/opteemin-sdcard-stm32mp135f-dk/bl2/plat_image_load.o
 .data          0x00000000        0x0 ./../build/opteemin-sdcard-stm32mp135f-dk/bl2/plat_image_load.o
 .bss           0x00000000        0x0 ./../build/opteemin-sdcard-stm32mp135f-dk/bl2/plat_image_load.o
 .text          0x00000000        0x0 ./../build/opteemin-sdcard-stm32mp135f-dk/bl2/stm32mp_common.o
 .data          0x00000000        0x0 ./../build/opteemin-sdcard-stm32mp135f-dk/bl2/stm32mp_common.o
 .bss           0x00000000        0x0 ./../build/opteemin-sdcard-stm32mp135f-dk/bl2/stm32mp_common.o
 .text.plat_get_ns_image_entrypoint
                0x00000000        0x6 ./../build/opteemin-sdcard-stm32mp135f-dk/bl2/stm32mp_common.o
 .rodata.stm32_lock_enc_key_otp.str1.1
                0x00000000        0xc ./../build/opteemin-sdcard-stm32mp135f-dk/bl2/stm32mp_common.o
 .text.stm32_lock_enc_key_otp
                0x00000000       0x48 ./../build/opteemin-sdcard-stm32mp135f-dk/bl2/stm32mp_common.o
 .rodata.stm32_get_uid_otp.str1.1
                0x00000000       0x5e ./../build/opteemin-sdcard-stm32mp135f-dk/bl2/stm32mp_common.o
 .text.stm32_get_uid_otp
                0x00000000       0x60 ./../build/opteemin-sdcard-stm32mp135f-dk/bl2/stm32mp_common.o
 .rodata.stm32_get_enc_key_otp_idx_len.str1.1
                0x00000000       0x19 ./../build/opteemin-sdcard-stm32mp135f-dk/bl2/stm32mp_common.o
 .text.stm32_get_enc_key_otp_idx_len
                0x00000000       0x4c ./../build/opteemin-sdcard-stm32mp135f-dk/bl2/stm32mp_common.o
 .text.stm32mp_uart_console_is_running
                0x00000000       0x28 ./../build/opteemin-sdcard-stm32mp135f-dk/bl2/stm32mp_common.o
 .text.plat_is_smccc_feature_available
                0x00000000       0x10 ./../build/opteemin-sdcard-stm32mp135f-dk/bl2/stm32mp_common.o
 .text.plat_get_soc_version
                0x00000000        0xe ./../build/opteemin-sdcard-stm32mp135f-dk/bl2/stm32mp_common.o
 .text.plat_get_soc_revision
                0x00000000        0xc ./../build/opteemin-sdcard-stm32mp135f-dk/bl2/stm32mp_common.o
 .text.stm32_get_boot_interface
                0x00000000       0x50 ./../build/opteemin-sdcard-stm32mp135f-dk/bl2/stm32mp_common.o
 .bss.itf.4     0x00000000        0x4 ./../build/opteemin-sdcard-stm32mp135f-dk/bl2/stm32mp_common.o
 .rodata.__func__.5
                0x00000000       0x1e ./../build/opteemin-sdcard-stm32mp135f-dk/bl2/stm32mp_common.o
 .bss.idx.6     0x00000000        0x4 ./../build/opteemin-sdcard-stm32mp135f-dk/bl2/stm32mp_common.o
 .bss.len.7     0x00000000        0x4 ./../build/opteemin-sdcard-stm32mp135f-dk/bl2/stm32mp_common.o
 .text          0x00000000        0x0 ./../build/opteemin-sdcard-stm32mp135f-dk/bl2/stm32mp_dt.o
 .data          0x00000000        0x0 ./../build/opteemin-sdcard-stm32mp135f-dk/bl2/stm32mp_dt.o
 .bss           0x00000000        0x0 ./../build/opteemin-sdcard-stm32mp135f-dk/bl2/stm32mp_dt.o
 .rodata.dt_get_cpu_regulator.str1.1
                0x00000000       0x10 ./../build/opteemin-sdcard-stm32mp135f-dk/bl2/stm32mp_dt.o
 .text.dt_get_cpu_regulator
                0x00000000       0x2c ./../build/opteemin-sdcard-stm32mp135f-dk/bl2/stm32mp_dt.o
 .rodata.dt_get_sysram_regulator.str1.1
                0x00000000       0x12 ./../build/opteemin-sdcard-stm32mp135f-dk/bl2/stm32mp_dt.o
 .text.dt_get_sysram_regulator
                0x00000000       0x74 ./../build/opteemin-sdcard-stm32mp135f-dk/bl2/stm32mp_dt.o
 .rodata.fdt_get_gpio_bank_pin_count.str1.1
                0x00000000       0x1c ./../build/opteemin-sdcard-stm32mp135f-dk/bl2/stm32mp_dt.o
 .text.fdt_get_gpio_bank_pin_count
                0x00000000       0xd4 ./../build/opteemin-sdcard-stm32mp135f-dk/bl2/stm32mp_dt.o
 .text          0x00000000        0x0 ./../build/opteemin-sdcard-stm32mp135f-dk/bl2/stm32mp_fconf_fuse.o
 .data          0x00000000        0x0 ./../build/opteemin-sdcard-stm32mp135f-dk/bl2/stm32mp_fconf_fuse.o
 .bss           0x00000000        0x0 ./../build/opteemin-sdcard-stm32mp135f-dk/bl2/stm32mp_fconf_fuse.o
 .text          0x00000000        0x0 ./../build/opteemin-sdcard-stm32mp135f-dk/bl2/stm32mp_fconf_io.o
 .data          0x00000000        0x0 ./../build/opteemin-sdcard-stm32mp135f-dk/bl2/stm32mp_fconf_io.o
 .bss           0x00000000        0x0 ./../build/opteemin-sdcard-stm32mp135f-dk/bl2/stm32mp_fconf_io.o
 .text          0x00000000        0x0 ./../build/opteemin-sdcard-stm32mp135f-dk/bl2/bl2_plat_setup.o
 .data          0x00000000        0x0 ./../build/opteemin-sdcard-stm32mp135f-dk/bl2/bl2_plat_setup.o
 .bss           0x00000000        0x0 ./../build/opteemin-sdcard-stm32mp135f-dk/bl2/bl2_plat_setup.o
 .text          0x00000000        0x0 ./../build/opteemin-sdcard-stm32mp135f-dk/bl2/plat_bl2_mem_params_desc.o
 .data          0x00000000        0x0 ./../build/opteemin-sdcard-stm32mp135f-dk/bl2/plat_bl2_mem_params_desc.o
 .bss           0x00000000        0x0 ./../build/opteemin-sdcard-stm32mp135f-dk/bl2/plat_bl2_mem_params_desc.o
 .text          0x00000000        0x0 ./../build/opteemin-sdcard-stm32mp135f-dk/bl2/plat_ddr.o
 .data          0x00000000        0x0 ./../build/opteemin-sdcard-stm32mp135f-dk/bl2/plat_ddr.o
 .bss           0x00000000        0x0 ./../build/opteemin-sdcard-stm32mp135f-dk/bl2/plat_ddr.o
 .text          0x00000000        0x0 ./../build/opteemin-sdcard-stm32mp135f-dk/bl2/stm32mp1_context.o
 .data          0x00000000        0x0 ./../build/opteemin-sdcard-stm32mp135f-dk/bl2/stm32mp1_context.o
 .bss           0x00000000        0x0 ./../build/opteemin-sdcard-stm32mp135f-dk/bl2/stm32mp1_context.o
 .text          0x00000000        0x0 ./../build/opteemin-sdcard-stm32mp135f-dk/bl2/stm32mp1_critic_power.o
 .data          0x00000000        0x0 ./../build/opteemin-sdcard-stm32mp135f-dk/bl2/stm32mp1_critic_power.o
 .bss           0x00000000        0x0 ./../build/opteemin-sdcard-stm32mp135f-dk/bl2/stm32mp1_critic_power.o
 .text          0x00000000        0x0 ./../build/opteemin-sdcard-stm32mp135f-dk/bl2/stm32mp1_dbgmcu.o
 .data          0x00000000        0x0 ./../build/opteemin-sdcard-stm32mp135f-dk/bl2/stm32mp1_dbgmcu.o
 .bss           0x00000000        0x0 ./../build/opteemin-sdcard-stm32mp135f-dk/bl2/stm32mp1_dbgmcu.o
 .rodata.stm32mp1_dbgmcu_init.str1.1
                0x00000000       0x36 ./../build/opteemin-sdcard-stm32mp135f-dk/bl2/stm32mp1_dbgmcu.o
 .text.stm32mp1_dbgmcu_init
                0x00000000       0x30 ./../build/opteemin-sdcard-stm32mp135f-dk/bl2/stm32mp1_dbgmcu.o
 .rodata.stm32mp1_dbgmcu_get_chip_version.str1.1
                0x00000000       0x23 ./../build/opteemin-sdcard-stm32mp135f-dk/bl2/stm32mp1_dbgmcu.o
 .text.stm32mp1_dbgmcu_get_chip_version
                0x00000000       0x2c ./../build/opteemin-sdcard-stm32mp135f-dk/bl2/stm32mp1_dbgmcu.o
 .text.stm32mp1_dbgmcu_get_chip_dev_id
                0x00000000       0x30 ./../build/opteemin-sdcard-stm32mp135f-dk/bl2/stm32mp1_dbgmcu.o
 .debug_info    0x00000000      0x31f ./../build/opteemin-sdcard-stm32mp135f-dk/bl2/stm32mp1_dbgmcu.o
 .debug_abbrev  0x00000000      0x1ca ./../build/opteemin-sdcard-stm32mp135f-dk/bl2/stm32mp1_dbgmcu.o
 .debug_loc     0x00000000      0x127 ./../build/opteemin-sdcard-stm32mp135f-dk/bl2/stm32mp1_dbgmcu.o
 .debug_aranges
                0x00000000       0x30 ./../build/opteemin-sdcard-stm32mp135f-dk/bl2/stm32mp1_dbgmcu.o
 .debug_ranges  0x00000000       0x50 ./../build/opteemin-sdcard-stm32mp135f-dk/bl2/stm32mp1_dbgmcu.o
 .debug_line    0x00000000      0x1fc ./../build/opteemin-sdcard-stm32mp135f-dk/bl2/stm32mp1_dbgmcu.o
 .debug_str     0x00000000      0x2da ./../build/opteemin-sdcard-stm32mp135f-dk/bl2/stm32mp1_dbgmcu.o
 .comment       0x00000000       0x13 ./../build/opteemin-sdcard-stm32mp135f-dk/bl2/stm32mp1_dbgmcu.o
 .note.GNU-stack
                0x00000000        0x0 ./../build/opteemin-sdcard-stm32mp135f-dk/bl2/stm32mp1_dbgmcu.o
 .debug_frame   0x00000000       0x58 ./../build/opteemin-sdcard-stm32mp135f-dk/bl2/stm32mp1_dbgmcu.o
 .ARM.attributes
                0x00000000       0x33 ./../build/opteemin-sdcard-stm32mp135f-dk/bl2/stm32mp1_dbgmcu.o
 .text          0x00000000        0x0 ./../build/opteemin-sdcard-stm32mp135f-dk/bl2/stm32mp1_fconf_firewall.o
 .data          0x00000000        0x0 ./../build/opteemin-sdcard-stm32mp135f-dk/bl2/stm32mp1_fconf_firewall.o
 .bss           0x00000000        0x0 ./../build/opteemin-sdcard-stm32mp135f-dk/bl2/stm32mp1_fconf_firewall.o
 .text          0x00000000        0x0 ./../build/opteemin-sdcard-stm32mp135f-dk/bl2/stm32mp1_private.o
 .data          0x00000000        0x0 ./../build/opteemin-sdcard-stm32mp135f-dk/bl2/stm32mp1_private.o
 .bss           0x00000000        0x0 ./../build/opteemin-sdcard-stm32mp135f-dk/bl2/stm32mp1_private.o
 .text.stm32_gpio_is_secure_at_reset
                0x00000000        0x4 ./../build/opteemin-sdcard-stm32mp135f-dk/bl2/stm32mp1_private.o
 .rodata.stm32_get_gpio_bank_pinctrl_node.str1.1
                0x00000000       0x16 ./../build/opteemin-sdcard-stm32mp135f-dk/bl2/stm32mp1_private.o
 .text.stm32_get_gpio_bank_pinctrl_node
                0x00000000       0x20 ./../build/opteemin-sdcard-stm32mp135f-dk/bl2/stm32mp1_private.o
 .text.stm32_get_header_address
                0x00000000        0x8 ./../build/opteemin-sdcard-stm32mp135f-dk/bl2/stm32mp1_private.o
 .text.stm32mp_get_chip_version
                0x00000000        0x4 ./../build/opteemin-sdcard-stm32mp135f-dk/bl2/stm32mp1_private.o
 .text.stm32mp_get_chip_dev_id
                0x00000000        0x4 ./../build/opteemin-sdcard-stm32mp135f-dk/bl2/stm32mp1_private.o
 .text.stm32mp_is_single_core
                0x00000000        0x4 ./../build/opteemin-sdcard-stm32mp135f-dk/bl2/stm32mp1_private.o
 .text          0x00000000        0x0 ./../build/opteemin-sdcard-stm32mp135f-dk/bl2/stm32mp1_syscfg.o
 .data          0x00000000        0x0 ./../build/opteemin-sdcard-stm32mp135f-dk/bl2/stm32mp1_syscfg.o
 .bss           0x00000000        0x0 ./../build/opteemin-sdcard-stm32mp135f-dk/bl2/stm32mp1_syscfg.o
 .text.disable_io_comp_cell
                0x00000000       0x44 ./../build/opteemin-sdcard-stm32mp135f-dk/bl2/stm32mp1_syscfg.o
 .text.stm32mp_syscfg_disable_io_compensation
                0x00000000       0x24 ./../build/opteemin-sdcard-stm32mp135f-dk/bl2/stm32mp1_syscfg.o
 .text          0x00000000        0x0 ./../build/opteemin-sdcard-stm32mp135f-dk/bl2/bl2_el3_entrypoint.o
 .data          0x00000000        0x0 ./../build/opteemin-sdcard-stm32mp135f-dk/bl2/bl2_el3_entrypoint.o
 .bss           0x00000000        0x0 ./../build/opteemin-sdcard-stm32mp135f-dk/bl2/bl2_el3_entrypoint.o
 .text          0x00000000        0x0 ./../build/opteemin-sdcard-stm32mp135f-dk/bl2/bl2_el3_exceptions.o
 .data          0x00000000        0x0 ./../build/opteemin-sdcard-stm32mp135f-dk/bl2/bl2_el3_exceptions.o
 .bss           0x00000000        0x0 ./../build/opteemin-sdcard-stm32mp135f-dk/bl2/bl2_el3_exceptions.o
 .text          0x00000000        0x0 ./../build/opteemin-sdcard-stm32mp135f-dk/bl2/bl2_run_next_image.o
 .data          0x00000000        0x0 ./../build/opteemin-sdcard-stm32mp135f-dk/bl2/bl2_run_next_image.o
 .bss           0x00000000        0x0 ./../build/opteemin-sdcard-stm32mp135f-dk/bl2/bl2_run_next_image.o
 .text          0x00000000        0x0 ./../build/opteemin-sdcard-stm32mp135f-dk/bl2/debug.o
 .data          0x00000000        0x0 ./../build/opteemin-sdcard-stm32mp135f-dk/bl2/debug.o
 .bss           0x00000000        0x0 ./../build/opteemin-sdcard-stm32mp135f-dk/bl2/debug.o
 .text          0x00000000        0x0 ./../build/opteemin-sdcard-stm32mp135f-dk/bl2/stm32_console.o
 .data          0x00000000        0x0 ./../build/opteemin-sdcard-stm32mp135f-dk/bl2/stm32_console.o
 .bss           0x00000000        0x0 ./../build/opteemin-sdcard-stm32mp135f-dk/bl2/stm32_console.o
 .text.asm.console_stm32_core_getc
                0x00000000        0x8 ./../build/opteemin-sdcard-stm32mp135f-dk/bl2/stm32_console.o
 .text          0x00000000        0x0 ./../build/opteemin-sdcard-stm32mp135f-dk/bl2/cache_helpers.o
 .data          0x00000000        0x0 ./../build/opteemin-sdcard-stm32mp135f-dk/bl2/cache_helpers.o
 .bss           0x00000000        0x0 ./../build/opteemin-sdcard-stm32mp135f-dk/bl2/cache_helpers.o
 .text.asm.dcsw_op_louis
                0x00000000       0x14 ./../build/opteemin-sdcard-stm32mp135f-dk/bl2/cache_helpers.o
 .text.asm.dcsw_op_level1
                0x00000000       0x10 ./../build/opteemin-sdcard-stm32mp135f-dk/bl2/cache_helpers.o
 .text.asm.dcsw_op_level2
                0x00000000       0x10 ./../build/opteemin-sdcard-stm32mp135f-dk/bl2/cache_helpers.o
 .text.asm.dcsw_op_level3
                0x00000000       0x10 ./../build/opteemin-sdcard-stm32mp135f-dk/bl2/cache_helpers.o
 .text          0x00000000        0x0 ./../build/opteemin-sdcard-stm32mp135f-dk/bl2/misc_helpers.o
 .data          0x00000000        0x0 ./../build/opteemin-sdcard-stm32mp135f-dk/bl2/misc_helpers.o
 .bss           0x00000000        0x0 ./../build/opteemin-sdcard-stm32mp135f-dk/bl2/misc_helpers.o
 .text.asm.smc  0x00000000        0x8 ./../build/opteemin-sdcard-stm32mp135f-dk/bl2/misc_helpers.o
 .text.asm.memcpy4
                0x00000000       0x4c ./../build/opteemin-sdcard-stm32mp135f-dk/bl2/misc_helpers.o
 .rodata.str1.1
                0x00000000       0x1b ./../build/opteemin-sdcard-stm32mp135f-dk/bl2/misc_helpers.o
 .text.asm.fixup_gdt_reloc
                0x00000000       0xec ./../build/opteemin-sdcard-stm32mp135f-dk/bl2/misc_helpers.o
 .text          0x00000000       0x24 ./../build/opteemin-sdcard-stm32mp135f-dk/bl2/aeabi_ldivmod.o
 .data          0x00000000        0x0 ./../build/opteemin-sdcard-stm32mp135f-dk/bl2/aeabi_ldivmod.o
 .bss           0x00000000        0x0 ./../build/opteemin-sdcard-stm32mp135f-dk/bl2/aeabi_ldivmod.o
 .note.GNU-stack
                0x00000000        0x0 ./../build/opteemin-sdcard-stm32mp135f-dk/bl2/aeabi_ldivmod.o
 .debug_line    0x00000000       0x67 ./../build/opteemin-sdcard-stm32mp135f-dk/bl2/aeabi_ldivmod.o
 .debug_info    0x00000000       0x30 ./../build/opteemin-sdcard-stm32mp135f-dk/bl2/aeabi_ldivmod.o
 .debug_abbrev  0x00000000       0x28 ./../build/opteemin-sdcard-stm32mp135f-dk/bl2/aeabi_ldivmod.o
 .debug_aranges
                0x00000000       0x20 ./../build/opteemin-sdcard-stm32mp135f-dk/bl2/aeabi_ldivmod.o
 .debug_str     0x00000000       0x77 ./../build/opteemin-sdcard-stm32mp135f-dk/bl2/aeabi_ldivmod.o
 .ARM.attributes
                0x00000000       0x27 ./../build/opteemin-sdcard-stm32mp135f-dk/bl2/aeabi_ldivmod.o
 .text          0x00000000        0x4 ./../build/opteemin-sdcard-stm32mp135f-dk/bl2/aeabi_memcpy.o
 .data          0x00000000        0x0 ./../build/opteemin-sdcard-stm32mp135f-dk/bl2/aeabi_memcpy.o
 .bss           0x00000000        0x0 ./../build/opteemin-sdcard-stm32mp135f-dk/bl2/aeabi_memcpy.o
 .note.GNU-stack
                0x00000000        0x0 ./../build/opteemin-sdcard-stm32mp135f-dk/bl2/aeabi_memcpy.o
 .debug_line    0x00000000       0x5c ./../build/opteemin-sdcard-stm32mp135f-dk/bl2/aeabi_memcpy.o
 .debug_info    0x00000000       0x46 ./../build/opteemin-sdcard-stm32mp135f-dk/bl2/aeabi_memcpy.o
 .debug_abbrev  0x00000000       0x28 ./../build/opteemin-sdcard-stm32mp135f-dk/bl2/aeabi_memcpy.o
 .debug_aranges
                0x00000000       0x20 ./../build/opteemin-sdcard-stm32mp135f-dk/bl2/aeabi_memcpy.o
 .debug_str     0x00000000       0x95 ./../build/opteemin-sdcard-stm32mp135f-dk/bl2/aeabi_memcpy.o
 .ARM.attributes
                0x00000000       0x27 ./../build/opteemin-sdcard-stm32mp135f-dk/bl2/aeabi_memcpy.o
 .text          0x00000000       0x1c ./../build/opteemin-sdcard-stm32mp135f-dk/bl2/aeabi_memset.o
 .data          0x00000000        0x0 ./../build/opteemin-sdcard-stm32mp135f-dk/bl2/aeabi_memset.o
 .bss           0x00000000        0x0 ./../build/opteemin-sdcard-stm32mp135f-dk/bl2/aeabi_memset.o
 .note.GNU-stack
                0x00000000        0x0 ./../build/opteemin-sdcard-stm32mp135f-dk/bl2/aeabi_memset.o
 .debug_line    0x00000000       0x64 ./../build/opteemin-sdcard-stm32mp135f-dk/bl2/aeabi_memset.o
 .debug_info    0x00000000       0x67 ./../build/opteemin-sdcard-stm32mp135f-dk/bl2/aeabi_memset.o
 .debug_abbrev  0x00000000       0x28 ./../build/opteemin-sdcard-stm32mp135f-dk/bl2/aeabi_memset.o
 .debug_aranges
                0x00000000       0x20 ./../build/opteemin-sdcard-stm32mp135f-dk/bl2/aeabi_memset.o
 .debug_str     0x00000000       0xc4 ./../build/opteemin-sdcard-stm32mp135f-dk/bl2/aeabi_memset.o
 .ARM.attributes
                0x00000000       0x27 ./../build/opteemin-sdcard-stm32mp135f-dk/bl2/aeabi_memset.o
 .data          0x00000000        0x0 ./../build/opteemin-sdcard-stm32mp135f-dk/bl2/aeabi_uldivmod.o
 .bss           0x00000000        0x0 ./../build/opteemin-sdcard-stm32mp135f-dk/bl2/aeabi_uldivmod.o
 .text          0x00000000        0x0 ./../build/opteemin-sdcard-stm32mp135f-dk/bl2/cortex_a7.o
 .data          0x00000000        0x0 ./../build/opteemin-sdcard-stm32mp135f-dk/bl2/cortex_a7.o
 .bss           0x00000000        0x0 ./../build/opteemin-sdcard-stm32mp135f-dk/bl2/cortex_a7.o
 .text.asm.cortex_a7_disable_smp
                0x00000000       0x18 ./../build/opteemin-sdcard-stm32mp135f-dk/bl2/cortex_a7.o
 .text.asm.cortex_a7_core_pwr_dwn
                0x00000000       0x30 ./../build/opteemin-sdcard-stm32mp135f-dk/bl2/cortex_a7.o
 .rodata.str1.1
                0x00000000       0x1d ./../build/opteemin-sdcard-stm32mp135f-dk/bl2/cortex_a7.o
 .text.asm.cortex_a7_cluster_pwr_dwn
                0x00000000       0x3c ./../build/opteemin-sdcard-stm32mp135f-dk/bl2/cortex_a7.o
 .text          0x00000000        0x0 ./../build/opteemin-sdcard-stm32mp135f-dk/bl2/cpu_helpers.o
 .data          0x00000000        0x0 ./../build/opteemin-sdcard-stm32mp135f-dk/bl2/cpu_helpers.o
 .bss           0x00000000        0x0 ./../build/opteemin-sdcard-stm32mp135f-dk/bl2/cpu_helpers.o
 .text.asm.cpu_get_rev_var
                0x00000000       0x10 ./../build/opteemin-sdcard-stm32mp135f-dk/bl2/cpu_helpers.o
 .text.asm.cpu_rev_var_ls
                0x00000000       0x10 ./../build/opteemin-sdcard-stm32mp135f-dk/bl2/cpu_helpers.o
 .text.asm.cpu_rev_var_hs
                0x00000000       0x10 ./../build/opteemin-sdcard-stm32mp135f-dk/bl2/cpu_helpers.o
 .text          0x00000000        0x0 ./../build/opteemin-sdcard-stm32mp135f-dk/bl2/spinlock.o
 .data          0x00000000        0x0 ./../build/opteemin-sdcard-stm32mp135f-dk/bl2/spinlock.o
 .bss           0x00000000        0x0 ./../build/opteemin-sdcard-stm32mp135f-dk/bl2/spinlock.o
 .text          0x00000000        0x0 ./../build/opteemin-sdcard-stm32mp135f-dk/bl2/enable_mmu.o
 .data          0x00000000        0x0 ./../build/opteemin-sdcard-stm32mp135f-dk/bl2/enable_mmu.o
 .bss           0x00000000        0x0 ./../build/opteemin-sdcard-stm32mp135f-dk/bl2/enable_mmu.o
 .text.asm.enable_mmu_direct_hyp
                0x00000000       0x74 ./../build/opteemin-sdcard-stm32mp135f-dk/bl2/enable_mmu.o
 .text          0x00000000        0x0 ./../build/opteemin-sdcard-stm32mp135f-dk/bl2/platform_helpers.o
 .data          0x00000000        0x0 ./../build/opteemin-sdcard-stm32mp135f-dk/bl2/platform_helpers.o
 .bss           0x00000000        0x0 ./../build/opteemin-sdcard-stm32mp135f-dk/bl2/platform_helpers.o
 .text.asm.plat_report_exception
                0x00000000        0x4 ./../build/opteemin-sdcard-stm32mp135f-dk/bl2/platform_helpers.o
 .text.asm.plat_report_prefetch_abort
                0x00000000        0x4 ./../build/opteemin-sdcard-stm32mp135f-dk/bl2/platform_helpers.o
 .text.asm.plat_report_data_abort
                0x00000000        0x4 ./../build/opteemin-sdcard-stm32mp135f-dk/bl2/platform_helpers.o
 .text.asm.plat_reset_handler
                0x00000000        0x4 ./../build/opteemin-sdcard-stm32mp135f-dk/bl2/platform_helpers.o
 .text.asm.plat_disable_acp
                0x00000000        0x4 ./../build/opteemin-sdcard-stm32mp135f-dk/bl2/platform_helpers.o
 .text.asm.platform_mem_init
                0x00000000        0x4 ./../build/opteemin-sdcard-stm32mp135f-dk/bl2/platform_helpers.o
 .text.asm.bl1_plat_prepare_exit
                0x00000000        0x4 ./../build/opteemin-sdcard-stm32mp135f-dk/bl2/platform_helpers.o
 .text.asm.plat_panic_handler
                0x00000000        0x4 ./../build/opteemin-sdcard-stm32mp135f-dk/bl2/platform_helpers.o
 .debug_line    0x00000000       0xc3 ./../build/opteemin-sdcard-stm32mp135f-dk/bl2/platform_helpers.o
 .debug_info    0x00000000       0x7c ./../build/opteemin-sdcard-stm32mp135f-dk/bl2/platform_helpers.o
 .debug_abbrev  0x00000000       0x24 ./../build/opteemin-sdcard-stm32mp135f-dk/bl2/platform_helpers.o
 .debug_aranges
                0x00000000       0x58 ./../build/opteemin-sdcard-stm32mp135f-dk/bl2/platform_helpers.o
 .debug_str     0x00000000      0x108 ./../build/opteemin-sdcard-stm32mp135f-dk/bl2/platform_helpers.o
 .debug_ranges  0x00000000       0x50 ./../build/opteemin-sdcard-stm32mp135f-dk/bl2/platform_helpers.o
 .debug_frame   0x00000000       0x90 ./../build/opteemin-sdcard-stm32mp135f-dk/bl2/platform_helpers.o
 .ARM.attributes
                0x00000000       0x27 ./../build/opteemin-sdcard-stm32mp135f-dk/bl2/platform_helpers.o
 .text          0x00000000        0x0 ./../build/opteemin-sdcard-stm32mp135f-dk/bl2/platform_up_stack.o
 .data          0x00000000        0x0 ./../build/opteemin-sdcard-stm32mp135f-dk/bl2/platform_up_stack.o
 .bss           0x00000000        0x0 ./../build/opteemin-sdcard-stm32mp135f-dk/bl2/platform_up_stack.o
 .text.asm.plat_get_my_stack
                0x00000000        0xc ./../build/opteemin-sdcard-stm32mp135f-dk/bl2/platform_up_stack.o
 .text          0x00000000        0x0 ./../build/opteemin-sdcard-stm32mp135f-dk/bl2/stm32mp1_critic_power_wrapper.o
 .bss           0x00000000        0x0 ./../build/opteemin-sdcard-stm32mp135f-dk/bl2/stm32mp1_critic_power_wrapper.o
 .text          0x00000000        0x0 ./../build/opteemin-sdcard-stm32mp135f-dk/bl2/stm32mp1_helper.o
 .data          0x00000000        0x0 ./../build/opteemin-sdcard-stm32mp135f-dk/bl2/stm32mp1_helper.o
 .bss           0x00000000        0x0 ./../build/opteemin-sdcard-stm32mp135f-dk/bl2/stm32mp1_helper.o
 .text.asm.plat_stm32mp1_get_core_pos
                0x00000000       0x10 ./../build/opteemin-sdcard-stm32mp135f-dk/bl2/stm32mp1_helper.o
 .text.asm.plat_my_core_pos
                0x00000000        0x8 ./../build/opteemin-sdcard-stm32mp135f-dk/bl2/stm32mp1_helper.o
 .text          0x00000000        0x0 ./../build/opteemin-sdcard-stm32mp135f-dk/lib/libfdt.a(fdt.o)
 .data          0x00000000        0x0 ./../build/opteemin-sdcard-stm32mp135f-dk/lib/libfdt.a(fdt.o)
 .bss           0x00000000        0x0 ./../build/opteemin-sdcard-stm32mp135f-dk/lib/libfdt.a(fdt.o)
 .text.fdt_find_string_
                0x00000000       0x30 ./../build/opteemin-sdcard-stm32mp135f-dk/lib/libfdt.a(fdt.o)
 .text.fdt_move
                0x00000000       0x30 ./../build/opteemin-sdcard-stm32mp135f-dk/lib/libfdt.a(fdt.o)
 .text          0x00000000        0x0 ./../build/opteemin-sdcard-stm32mp135f-dk/lib/libfdt.a(fdt_addresses.o)
 .data          0x00000000        0x0 ./../build/opteemin-sdcard-stm32mp135f-dk/lib/libfdt.a(fdt_addresses.o)
 .bss           0x00000000        0x0 ./../build/opteemin-sdcard-stm32mp135f-dk/lib/libfdt.a(fdt_addresses.o)
 .rodata.fdt_size_cells.str1.1
                0x00000000        0xc ./../build/opteemin-sdcard-stm32mp135f-dk/lib/libfdt.a(fdt_addresses.o)
 .text.fdt_size_cells
                0x00000000       0x14 ./../build/opteemin-sdcard-stm32mp135f-dk/lib/libfdt.a(fdt_addresses.o)
 .text.fdt_appendprop_addrrange
                0x00000000       0xce ./../build/opteemin-sdcard-stm32mp135f-dk/lib/libfdt.a(fdt_addresses.o)
 .text          0x00000000        0x0 ./../build/opteemin-sdcard-stm32mp135f-dk/lib/libfdt.a(fdt_ro.o)
 .data          0x00000000        0x0 ./../build/opteemin-sdcard-stm32mp135f-dk/lib/libfdt.a(fdt_ro.o)
 .bss           0x00000000        0x0 ./../build/opteemin-sdcard-stm32mp135f-dk/lib/libfdt.a(fdt_ro.o)
 .text.fdt64_ld_
                0x00000000        0xa ./../build/opteemin-sdcard-stm32mp135f-dk/lib/libfdt.a(fdt_ro.o)
 .text.fdt_mem_rsv
                0x00000000       0x24 ./../build/opteemin-sdcard-stm32mp135f-dk/lib/libfdt.a(fdt_ro.o)
 .text.fdt_string
                0x00000000        0x6 ./../build/opteemin-sdcard-stm32mp135f-dk/lib/libfdt.a(fdt_ro.o)
 .text.fdt_get_mem_rsv
                0x00000000       0x3c ./../build/opteemin-sdcard-stm32mp135f-dk/lib/libfdt.a(fdt_ro.o)
 .text.fdt_num_mem_rsv
                0x00000000       0x26 ./../build/opteemin-sdcard-stm32mp135f-dk/lib/libfdt.a(fdt_ro.o)
 .text.fdt_get_property_by_offset
                0x00000000       0x28 ./../build/opteemin-sdcard-stm32mp135f-dk/lib/libfdt.a(fdt_ro.o)
 .text.fdt_get_property_namelen
                0x00000000       0x34 ./../build/opteemin-sdcard-stm32mp135f-dk/lib/libfdt.a(fdt_ro.o)
 .text.fdt_get_property
                0x00000000       0x22 ./../build/opteemin-sdcard-stm32mp135f-dk/lib/libfdt.a(fdt_ro.o)
 .text.fdt_getprop_by_offset
                0x00000000       0x68 ./../build/opteemin-sdcard-stm32mp135f-dk/lib/libfdt.a(fdt_ro.o)
 .text.fdt_find_max_phandle
                0x00000000       0x3c ./../build/opteemin-sdcard-stm32mp135f-dk/lib/libfdt.a(fdt_ro.o)
 .text.fdt_generate_phandle
                0x00000000       0x28 ./../build/opteemin-sdcard-stm32mp135f-dk/lib/libfdt.a(fdt_ro.o)
 .text.fdt_get_alias
                0x00000000       0x1a ./../build/opteemin-sdcard-stm32mp135f-dk/lib/libfdt.a(fdt_ro.o)
 .text.fdt_get_path
                0x00000000       0xca ./../build/opteemin-sdcard-stm32mp135f-dk/lib/libfdt.a(fdt_ro.o)
 .text.fdt_node_offset_by_prop_value
                0x00000000       0x58 ./../build/opteemin-sdcard-stm32mp135f-dk/lib/libfdt.a(fdt_ro.o)
 .text.fdt_stringlist_count
                0x00000000       0x38 ./../build/opteemin-sdcard-stm32mp135f-dk/lib/libfdt.a(fdt_ro.o)
 .text.fdt_stringlist_get
                0x00000000       0x5c ./../build/opteemin-sdcard-stm32mp135f-dk/lib/libfdt.a(fdt_ro.o)
 .text          0x00000000        0x0 ./../build/opteemin-sdcard-stm32mp135f-dk/lib/libfdt.a(fdt_rw.o)
 .data          0x00000000        0x0 ./../build/opteemin-sdcard-stm32mp135f-dk/lib/libfdt.a(fdt_rw.o)
 .bss           0x00000000        0x0 ./../build/opteemin-sdcard-stm32mp135f-dk/lib/libfdt.a(fdt_rw.o)
 .text.cpu_to_fdt32
                0x00000000        0x4 ./../build/opteemin-sdcard-stm32mp135f-dk/lib/libfdt.a(fdt_rw.o)
 .text.cpu_to_fdt64
                0x00000000        0x8 ./../build/opteemin-sdcard-stm32mp135f-dk/lib/libfdt.a(fdt_rw.o)
 .text.fdt32_ld
                0x00000000       0x18 ./../build/opteemin-sdcard-stm32mp135f-dk/lib/libfdt.a(fdt_rw.o)
 .text.fdt_blocks_misordered_
                0x00000000       0x52 ./../build/opteemin-sdcard-stm32mp135f-dk/lib/libfdt.a(fdt_rw.o)
 .text.fdt_splice_
                0x00000000       0x6a ./../build/opteemin-sdcard-stm32mp135f-dk/lib/libfdt.a(fdt_rw.o)
 .text.fdt_splice_mem_rsv_
                0x00000000       0x3c ./../build/opteemin-sdcard-stm32mp135f-dk/lib/libfdt.a(fdt_rw.o)
 .text.fdt_rw_probe_
                0x00000000       0x46 ./../build/opteemin-sdcard-stm32mp135f-dk/lib/libfdt.a(fdt_rw.o)
 .text.fdt_packblocks_
                0x00000000       0x82 ./../build/opteemin-sdcard-stm32mp135f-dk/lib/libfdt.a(fdt_rw.o)
 .text.fdt_splice_struct_
                0x00000000       0x36 ./../build/opteemin-sdcard-stm32mp135f-dk/lib/libfdt.a(fdt_rw.o)
 .text.fdt_add_property_
                0x00000000       0xfc ./../build/opteemin-sdcard-stm32mp135f-dk/lib/libfdt.a(fdt_rw.o)
 .text.fdt_add_mem_rsv
                0x00000000       0x56 ./../build/opteemin-sdcard-stm32mp135f-dk/lib/libfdt.a(fdt_rw.o)
 .text.fdt_del_mem_rsv
                0x00000000       0x42 ./../build/opteemin-sdcard-stm32mp135f-dk/lib/libfdt.a(fdt_rw.o)
 .text.fdt_set_name
                0x00000000       0x5a ./../build/opteemin-sdcard-stm32mp135f-dk/lib/libfdt.a(fdt_rw.o)
 .text.fdt_setprop_placeholder
                0x00000000       0x7a ./../build/opteemin-sdcard-stm32mp135f-dk/lib/libfdt.a(fdt_rw.o)
 .text.fdt_setprop
                0x00000000       0x26 ./../build/opteemin-sdcard-stm32mp135f-dk/lib/libfdt.a(fdt_rw.o)
 .text.fdt_appendprop
                0x00000000       0x8a ./../build/opteemin-sdcard-stm32mp135f-dk/lib/libfdt.a(fdt_rw.o)
 .text.fdt_delprop
                0x00000000       0x3e ./../build/opteemin-sdcard-stm32mp135f-dk/lib/libfdt.a(fdt_rw.o)
 .text.fdt_add_subnode_namelen
                0x00000000       0xaa ./../build/opteemin-sdcard-stm32mp135f-dk/lib/libfdt.a(fdt_rw.o)
 .text.fdt_add_subnode
                0x00000000       0x1e ./../build/opteemin-sdcard-stm32mp135f-dk/lib/libfdt.a(fdt_rw.o)
 .text.fdt_del_node
                0x00000000       0x38 ./../build/opteemin-sdcard-stm32mp135f-dk/lib/libfdt.a(fdt_rw.o)
 .text.fdt_open_into
                0x00000000      0x118 ./../build/opteemin-sdcard-stm32mp135f-dk/lib/libfdt.a(fdt_rw.o)
 .text.fdt_pack
                0x00000000       0x56 ./../build/opteemin-sdcard-stm32mp135f-dk/lib/libfdt.a(fdt_rw.o)
 .debug_info    0x00000000     0x2c00 ./../build/opteemin-sdcard-stm32mp135f-dk/lib/libfdt.a(fdt_rw.o)
 .debug_abbrev  0x00000000      0x4a4 ./../build/opteemin-sdcard-stm32mp135f-dk/lib/libfdt.a(fdt_rw.o)
 .debug_loc     0x00000000     0x229c ./../build/opteemin-sdcard-stm32mp135f-dk/lib/libfdt.a(fdt_rw.o)
 .debug_aranges
                0x00000000       0xc8 ./../build/opteemin-sdcard-stm32mp135f-dk/lib/libfdt.a(fdt_rw.o)
 .debug_ranges  0x00000000      0x420 ./../build/opteemin-sdcard-stm32mp135f-dk/lib/libfdt.a(fdt_rw.o)
 .debug_line    0x00000000     0x104c ./../build/opteemin-sdcard-stm32mp135f-dk/lib/libfdt.a(fdt_rw.o)
 .debug_str     0x00000000      0x866 ./../build/opteemin-sdcard-stm32mp135f-dk/lib/libfdt.a(fdt_rw.o)
 .comment       0x00000000       0x13 ./../build/opteemin-sdcard-stm32mp135f-dk/lib/libfdt.a(fdt_rw.o)
 .note.GNU-stack
                0x00000000        0x0 ./../build/opteemin-sdcard-stm32mp135f-dk/lib/libfdt.a(fdt_rw.o)
 .debug_frame   0x00000000      0x2f8 ./../build/opteemin-sdcard-stm32mp135f-dk/lib/libfdt.a(fdt_rw.o)
 .ARM.attributes
                0x00000000       0x33 ./../build/opteemin-sdcard-stm32mp135f-dk/lib/libfdt.a(fdt_rw.o)
 .text          0x00000000        0x0 ./../build/opteemin-sdcard-stm32mp135f-dk/lib/libfdt.a(fdt_strerror.o)
 .data          0x00000000        0x0 ./../build/opteemin-sdcard-stm32mp135f-dk/lib/libfdt.a(fdt_strerror.o)
 .bss           0x00000000        0x0 ./../build/opteemin-sdcard-stm32mp135f-dk/lib/libfdt.a(fdt_strerror.o)
 .rodata.fdt_strerror.str1.1
                0x00000000       0x31 ./../build/opteemin-sdcard-stm32mp135f-dk/lib/libfdt.a(fdt_strerror.o)
 .text.fdt_strerror
                0x00000000       0x3c ./../build/opteemin-sdcard-stm32mp135f-dk/lib/libfdt.a(fdt_strerror.o)
 .rodata.str1.1
                0x00000000      0x150 ./../build/opteemin-sdcard-stm32mp135f-dk/lib/libfdt.a(fdt_strerror.o)
 .rodata.fdt_errtable
                0x00000000       0x50 ./../build/opteemin-sdcard-stm32mp135f-dk/lib/libfdt.a(fdt_strerror.o)
 .debug_info    0x00000000       0xfe ./../build/opteemin-sdcard-stm32mp135f-dk/lib/libfdt.a(fdt_strerror.o)
 .debug_abbrev  0x00000000       0xca ./../build/opteemin-sdcard-stm32mp135f-dk/lib/libfdt.a(fdt_strerror.o)
 .debug_loc     0x00000000       0xd7 ./../build/opteemin-sdcard-stm32mp135f-dk/lib/libfdt.a(fdt_strerror.o)
 .debug_aranges
                0x00000000       0x20 ./../build/opteemin-sdcard-stm32mp135f-dk/lib/libfdt.a(fdt_strerror.o)
 .debug_ranges  0x00000000       0x28 ./../build/opteemin-sdcard-stm32mp135f-dk/lib/libfdt.a(fdt_strerror.o)
 .debug_line    0x00000000       0x89 ./../build/opteemin-sdcard-stm32mp135f-dk/lib/libfdt.a(fdt_strerror.o)
 .debug_str     0x00000000      0x1fb ./../build/opteemin-sdcard-stm32mp135f-dk/lib/libfdt.a(fdt_strerror.o)
 .comment       0x00000000       0x13 ./../build/opteemin-sdcard-stm32mp135f-dk/lib/libfdt.a(fdt_strerror.o)
 .note.GNU-stack
                0x00000000        0x0 ./../build/opteemin-sdcard-stm32mp135f-dk/lib/libfdt.a(fdt_strerror.o)
 .debug_frame   0x00000000       0x20 ./../build/opteemin-sdcard-stm32mp135f-dk/lib/libfdt.a(fdt_strerror.o)
 .ARM.attributes
                0x00000000       0x33 ./../build/opteemin-sdcard-stm32mp135f-dk/lib/libfdt.a(fdt_strerror.o)
 .text          0x00000000        0x0 ./../build/opteemin-sdcard-stm32mp135f-dk/lib/libfdt.a(fdt_wip.o)
 .data          0x00000000        0x0 ./../build/opteemin-sdcard-stm32mp135f-dk/lib/libfdt.a(fdt_wip.o)
 .bss           0x00000000        0x0 ./../build/opteemin-sdcard-stm32mp135f-dk/lib/libfdt.a(fdt_wip.o)
 .text.fdt_setprop_inplace_namelen_partial
                0x00000000       0x30 ./../build/opteemin-sdcard-stm32mp135f-dk/lib/libfdt.a(fdt_wip.o)
 .text.fdt_setprop_inplace
                0x00000000       0x4a ./../build/opteemin-sdcard-stm32mp135f-dk/lib/libfdt.a(fdt_wip.o)
 .text.fdt_nop_property
                0x00000000       0x2c ./../build/opteemin-sdcard-stm32mp135f-dk/lib/libfdt.a(fdt_wip.o)
 .text.fdt_node_end_offset_
                0x00000000       0x20 ./../build/opteemin-sdcard-stm32mp135f-dk/lib/libfdt.a(fdt_wip.o)
 .text.fdt_nop_node
                0x00000000       0x30 ./../build/opteemin-sdcard-stm32mp135f-dk/lib/libfdt.a(fdt_wip.o)
 .debug_info    0x00000000      0x86e ./../build/opteemin-sdcard-stm32mp135f-dk/lib/libfdt.a(fdt_wip.o)
 .debug_abbrev  0x00000000      0x269 ./../build/opteemin-sdcard-stm32mp135f-dk/lib/libfdt.a(fdt_wip.o)
 .debug_loc     0x00000000      0x615 ./../build/opteemin-sdcard-stm32mp135f-dk/lib/libfdt.a(fdt_wip.o)
 .debug_aranges
                0x00000000       0x40 ./../build/opteemin-sdcard-stm32mp135f-dk/lib/libfdt.a(fdt_wip.o)
 .debug_ranges  0x00000000       0x90 ./../build/opteemin-sdcard-stm32mp135f-dk/lib/libfdt.a(fdt_wip.o)
 .debug_line    0x00000000      0x2d8 ./../build/opteemin-sdcard-stm32mp135f-dk/lib/libfdt.a(fdt_wip.o)
 .debug_str     0x00000000      0x381 ./../build/opteemin-sdcard-stm32mp135f-dk/lib/libfdt.a(fdt_wip.o)
 .comment       0x00000000       0x13 ./../build/opteemin-sdcard-stm32mp135f-dk/lib/libfdt.a(fdt_wip.o)
 .note.GNU-stack
                0x00000000        0x0 ./../build/opteemin-sdcard-stm32mp135f-dk/lib/libfdt.a(fdt_wip.o)
 .debug_frame   0x00000000       0xb4 ./../build/opteemin-sdcard-stm32mp135f-dk/lib/libfdt.a(fdt_wip.o)
 .ARM.attributes
                0x00000000       0x33 ./../build/opteemin-sdcard-stm32mp135f-dk/lib/libfdt.a(fdt_wip.o)
 .text          0x00000000        0x0 ./../build/opteemin-sdcard-stm32mp135f-dk/lib/libc.a(assert.o)
 .data          0x00000000        0x0 ./../build/opteemin-sdcard-stm32mp135f-dk/lib/libc.a(assert.o)
 .bss           0x00000000        0x0 ./../build/opteemin-sdcard-stm32mp135f-dk/lib/libc.a(assert.o)
 .text          0x00000000        0x0 ./../build/opteemin-sdcard-stm32mp135f-dk/lib/libc.a(memchr.o)
 .data          0x00000000        0x0 ./../build/opteemin-sdcard-stm32mp135f-dk/lib/libc.a(memchr.o)
 .bss           0x00000000        0x0 ./../build/opteemin-sdcard-stm32mp135f-dk/lib/libc.a(memchr.o)
 .text          0x00000000        0x0 ./../build/opteemin-sdcard-stm32mp135f-dk/lib/libc.a(memcmp.o)
 .data          0x00000000        0x0 ./../build/opteemin-sdcard-stm32mp135f-dk/lib/libc.a(memcmp.o)
 .bss           0x00000000        0x0 ./../build/opteemin-sdcard-stm32mp135f-dk/lib/libc.a(memcmp.o)
 .text          0x00000000        0x0 ./../build/opteemin-sdcard-stm32mp135f-dk/lib/libc.a(memcpy.o)
 .data          0x00000000        0x0 ./../build/opteemin-sdcard-stm32mp135f-dk/lib/libc.a(memcpy.o)
 .bss           0x00000000        0x0 ./../build/opteemin-sdcard-stm32mp135f-dk/lib/libc.a(memcpy.o)
 .text          0x00000000        0x0 ./../build/opteemin-sdcard-stm32mp135f-dk/lib/libc.a(memmove.o)
 .data          0x00000000        0x0 ./../build/opteemin-sdcard-stm32mp135f-dk/lib/libc.a(memmove.o)
 .bss           0x00000000        0x0 ./../build/opteemin-sdcard-stm32mp135f-dk/lib/libc.a(memmove.o)
 .text          0x00000000        0x0 ./../build/opteemin-sdcard-stm32mp135f-dk/lib/libc.a(memset.o)
 .data          0x00000000        0x0 ./../build/opteemin-sdcard-stm32mp135f-dk/lib/libc.a(memset.o)
 .bss           0x00000000        0x0 ./../build/opteemin-sdcard-stm32mp135f-dk/lib/libc.a(memset.o)
 .text          0x00000000        0x0 ./../build/opteemin-sdcard-stm32mp135f-dk/lib/libc.a(printf.o)
 .data          0x00000000        0x0 ./../build/opteemin-sdcard-stm32mp135f-dk/lib/libc.a(printf.o)
 .bss           0x00000000        0x0 ./../build/opteemin-sdcard-stm32mp135f-dk/lib/libc.a(printf.o)
 .text          0x00000000        0x0 ./../build/opteemin-sdcard-stm32mp135f-dk/lib/libc.a(snprintf.o)
 .data          0x00000000        0x0 ./../build/opteemin-sdcard-stm32mp135f-dk/lib/libc.a(snprintf.o)
 .bss           0x00000000        0x0 ./../build/opteemin-sdcard-stm32mp135f-dk/lib/libc.a(snprintf.o)
 .text          0x00000000        0x0 ./../build/opteemin-sdcard-stm32mp135f-dk/lib/libc.a(strchr.o)
 .data          0x00000000        0x0 ./../build/opteemin-sdcard-stm32mp135f-dk/lib/libc.a(strchr.o)
 .bss           0x00000000        0x0 ./../build/opteemin-sdcard-stm32mp135f-dk/lib/libc.a(strchr.o)
 .text          0x00000000        0x0 ./../build/opteemin-sdcard-stm32mp135f-dk/lib/libc.a(strcmp.o)
 .data          0x00000000        0x0 ./../build/opteemin-sdcard-stm32mp135f-dk/lib/libc.a(strcmp.o)
 .bss           0x00000000        0x0 ./../build/opteemin-sdcard-stm32mp135f-dk/lib/libc.a(strcmp.o)
 .text          0x00000000        0x0 ./../build/opteemin-sdcard-stm32mp135f-dk/lib/libc.a(strlcpy.o)
 .data          0x00000000        0x0 ./../build/opteemin-sdcard-stm32mp135f-dk/lib/libc.a(strlcpy.o)
 .bss           0x00000000        0x0 ./../build/opteemin-sdcard-stm32mp135f-dk/lib/libc.a(strlcpy.o)
 .text          0x00000000        0x0 ./../build/opteemin-sdcard-stm32mp135f-dk/lib/libc.a(strlen.o)
 .data          0x00000000        0x0 ./../build/opteemin-sdcard-stm32mp135f-dk/lib/libc.a(strlen.o)
 .bss           0x00000000        0x0 ./../build/opteemin-sdcard-stm32mp135f-dk/lib/libc.a(strlen.o)
 .text          0x00000000        0x0 ./../build/opteemin-sdcard-stm32mp135f-dk/lib/libc.a(strncmp.o)
 .data          0x00000000        0x0 ./../build/opteemin-sdcard-stm32mp135f-dk/lib/libc.a(strncmp.o)
 .bss           0x00000000        0x0 ./../build/opteemin-sdcard-stm32mp135f-dk/lib/libc.a(strncmp.o)
 .text          0x00000000        0x0 ./../build/opteemin-sdcard-stm32mp135f-dk/lib/libc.a(strnlen.o)
 .data          0x00000000        0x0 ./../build/opteemin-sdcard-stm32mp135f-dk/lib/libc.a(strnlen.o)
 .bss           0x00000000        0x0 ./../build/opteemin-sdcard-stm32mp135f-dk/lib/libc.a(strnlen.o)
 .text          0x00000000        0x0 ./../build/opteemin-sdcard-stm32mp135f-dk/lib/libc.a(strrchr.o)
 .data          0x00000000        0x0 ./../build/opteemin-sdcard-stm32mp135f-dk/lib/libc.a(strrchr.o)
 .bss           0x00000000        0x0 ./../build/opteemin-sdcard-stm32mp135f-dk/lib/libc.a(strrchr.o)

Memory Configuration

Name             Origin             Length             Attributes
RAM              0x2ffe4000         0x0001b000         xrw
*default*        0x00000000         0xffffffff

Linker script and memory map

                0x2ffe4000                        RAM_REGION_START = ORIGIN (RAM)
                0x0001b000                        RAM_REGION_LENGTH = LENGTH (RAM)
                0x2ffe4000                        . = 0x2ffe4000
                0x00000001                        ASSERT ((. == ALIGN (0x1000)), BL2_BASE address is not aligned on a page boundary.)

.ro             0x2ffe4000    0x12000
                0x2ffe4000                        __RO_START__ = .
                0x2ffe4000                        __TEXT_RESIDENT_START__ = .
 *bl2_el3_entrypoint.o(SORT_BY_ALIGNMENT(.text*))
 .text.asm.bl2_entrypoint
                0x2ffe4000      0x160 ./../build/opteemin-sdcard-stm32mp135f-dk/bl2/bl2_el3_entrypoint.o
                0x2ffe4000                bl2_entrypoint
 *(SORT_BY_ALIGNMENT(.text.asm.*))
 .text.asm.bl2_run_next_image
                0x2ffe4160       0x48 ./../build/opteemin-sdcard-stm32mp135f-dk/bl2/bl2_run_next_image.o
                0x2ffe4160                bl2_run_next_image
 .text.asm.asm_assert
                0x2ffe41a8       0x7c ./../build/opteemin-sdcard-stm32mp135f-dk/bl2/debug.o
                0x2ffe41a8                asm_assert
 .text.asm.asm_print_str
                0x2ffe4224       0x1c ./../build/opteemin-sdcard-stm32mp135f-dk/bl2/debug.o
                0x2ffe4224                asm_print_str
 .text.asm.asm_print_hex
                0x2ffe4240       0x34 ./../build/opteemin-sdcard-stm32mp135f-dk/bl2/debug.o
                0x2ffe4240                asm_print_hex
                0x2ffe4244                asm_print_hex_bits
 .text.asm.el3_panic
                0x2ffe4274       0x3c ./../build/opteemin-sdcard-stm32mp135f-dk/bl2/debug.o
                0x2ffe4274                el3_panic
 .text.asm.report_exception
                0x2ffe42b0       0x14 ./../build/opteemin-sdcard-stm32mp135f-dk/bl2/debug.o
                0x2ffe42b0                report_exception
 .text.asm.report_prefetch_abort
                0x2ffe42c4       0x10 ./../build/opteemin-sdcard-stm32mp135f-dk/bl2/debug.o
                0x2ffe42c4                report_prefetch_abort
 .text.asm.report_data_abort
                0x2ffe42d4       0x10 ./../build/opteemin-sdcard-stm32mp135f-dk/bl2/debug.o
                0x2ffe42d4                report_data_abort
 .text.asm.console_stm32_core_init
                0x2ffe42e4       0xac ./../build/opteemin-sdcard-stm32mp135f-dk/bl2/stm32_console.o
                0x2ffe42e4                console_stm32_core_init
 .text.asm.console_stm32_register
                0x2ffe4390       0x50 ./../build/opteemin-sdcard-stm32mp135f-dk/bl2/stm32_console.o
                0x2ffe4390                console_stm32_register
 .text.asm.console_stm32_core_putc
                0x2ffe43e0       0x24 ./../build/opteemin-sdcard-stm32mp135f-dk/bl2/stm32_console.o
                0x2ffe43e0                console_stm32_core_putc
 .text.asm.console_stm32_putc
                0x2ffe4404       0x20 ./../build/opteemin-sdcard-stm32mp135f-dk/bl2/stm32_console.o
                0x2ffe4404                console_stm32_putc
 .text.asm.console_stm32_core_flush
                0x2ffe4424       0x34 ./../build/opteemin-sdcard-stm32mp135f-dk/bl2/stm32_console.o
                0x2ffe4424                console_stm32_core_flush
 .text.asm.console_stm32_flush
                0x2ffe4458       0x20 ./../build/opteemin-sdcard-stm32mp135f-dk/bl2/stm32_console.o
                0x2ffe4458                console_stm32_flush
 .text.asm.flush_dcache_range
                0x2ffe4478       0x3c ./../build/opteemin-sdcard-stm32mp135f-dk/bl2/cache_helpers.o
                0x2ffe4478                flush_dcache_range
 .text.asm.clean_dcache_range
                0x2ffe44b4       0x3c ./../build/opteemin-sdcard-stm32mp135f-dk/bl2/cache_helpers.o
                0x2ffe44b4                clean_dcache_range
 .text.asm.inv_dcache_range
                0x2ffe44f0       0x3c ./../build/opteemin-sdcard-stm32mp135f-dk/bl2/cache_helpers.o
                0x2ffe44f0                inv_dcache_range
 .text.asm.do_dcsw_op
                0x2ffe452c       0xc8 ./../build/opteemin-sdcard-stm32mp135f-dk/bl2/cache_helpers.o
 .text.asm.dcsw_op_all
                0x2ffe45f4       0x14 ./../build/opteemin-sdcard-stm32mp135f-dk/bl2/cache_helpers.o
                0x2ffe45f4                dcsw_op_all
 .text.asm.zeromem
                0x2ffe4608       0x64 ./../build/opteemin-sdcard-stm32mp135f-dk/bl2/misc_helpers.o
                0x2ffe4608                zeromem
                0x2ffe4608                zero_normalmem
 .text.asm.disable_mmu_secure
                0x2ffe466c       0x1c ./../build/opteemin-sdcard-stm32mp135f-dk/bl2/misc_helpers.o
                0x2ffe466c                disable_mmu_secure
 .text.asm.disable_mmu_icache_secure
                0x2ffe4688        0xc ./../build/opteemin-sdcard-stm32mp135f-dk/bl2/misc_helpers.o
                0x2ffe4688                disable_mmu_icache_secure
 .text.asm.cortex_a7_enable_smp
                0x2ffe4694       0x14 ./../build/opteemin-sdcard-stm32mp135f-dk/bl2/cortex_a7.o
 .text.asm.cortex_a7_reset_func
                0x2ffe46a8        0x4 ./../build/opteemin-sdcard-stm32mp135f-dk/bl2/cortex_a7.o
 .text.asm.reset_handler
                0x2ffe46ac       0x38 ./../build/opteemin-sdcard-stm32mp135f-dk/bl2/cpu_helpers.o
                0x2ffe46ac                reset_handler
 .text.asm.get_cpu_ops_ptr
                0x2ffe46e4       0x5c ./../build/opteemin-sdcard-stm32mp135f-dk/bl2/cpu_helpers.o
                0x2ffe46e4                get_cpu_ops_ptr
 .text.asm.spin_lock
                0x2ffe4740       0x24 ./../build/opteemin-sdcard-stm32mp135f-dk/bl2/spinlock.o
                0x2ffe4740                spin_lock
 .text.asm.spin_unlock
                0x2ffe4764       0x18 ./../build/opteemin-sdcard-stm32mp135f-dk/bl2/spinlock.o
                0x2ffe4764                spin_unlock
 .text.asm.enable_mmu_direct_svc_mon
                0x2ffe477c       0x80 ./../build/opteemin-sdcard-stm32mp135f-dk/bl2/enable_mmu.o
                0x2ffe477c                enable_mmu_direct_svc_mon
 .text.asm.plat_set_my_stack
                0x2ffe47fc       0x10 ./../build/opteemin-sdcard-stm32mp135f-dk/bl2/platform_up_stack.o
                0x2ffe47fc                plat_set_my_stack
 .text.asm.stm32_pwr_down_wfi_wrapper
                0x2ffe480c       0x88 ./../build/opteemin-sdcard-stm32mp135f-dk/bl2/stm32mp1_critic_power_wrapper.o
                0x2ffe480c                stm32_pwr_down_wfi_wrapper
 .text.asm.stm32_pwr_back_from_stop2
                0x2ffe4894       0x58 ./../build/opteemin-sdcard-stm32mp135f-dk/bl2/stm32mp1_critic_power_wrapper.o
                0x2ffe4894                stm32_pwr_back_from_stop2
 .text.asm.platform_mem_init
                0x2ffe48ec        0x4 ./../build/opteemin-sdcard-stm32mp135f-dk/bl2/stm32mp1_helper.o
                0x2ffe48ec                platform_mem_init
 .text.asm.plat_report_exception
                0x2ffe48f0       0x64 ./../build/opteemin-sdcard-stm32mp135f-dk/bl2/stm32mp1_helper.o
                0x2ffe48f0                plat_report_exception
 .text.asm.plat_report_prefetch_abort
                0x2ffe4954       0x58 ./../build/opteemin-sdcard-stm32mp135f-dk/bl2/stm32mp1_helper.o
                0x2ffe4954                plat_report_prefetch_abort
 .text.asm.plat_report_data_abort
                0x2ffe49ac       0x58 ./../build/opteemin-sdcard-stm32mp135f-dk/bl2/stm32mp1_helper.o
                0x2ffe49ac                plat_report_data_abort
 .text.asm.plat_reset_handler
                0x2ffe4a04        0x4 ./../build/opteemin-sdcard-stm32mp135f-dk/bl2/stm32mp1_helper.o
                0x2ffe4a04                plat_reset_handler
 .text.asm.plat_get_my_entrypoint
                0x2ffe4a08        0x8 ./../build/opteemin-sdcard-stm32mp135f-dk/bl2/stm32mp1_helper.o
                0x2ffe4a08                plat_get_my_entrypoint
 .text.asm.plat_secondary_cold_boot_setup
                0x2ffe4a10        0x4 ./../build/opteemin-sdcard-stm32mp135f-dk/bl2/stm32mp1_helper.o
                0x2ffe4a10                plat_secondary_cold_boot_setup
 .text.asm.plat_is_my_cpu_primary
                0x2ffe4a14       0x20 ./../build/opteemin-sdcard-stm32mp135f-dk/bl2/stm32mp1_helper.o
                0x2ffe4a14                plat_is_my_cpu_primary
 .text.asm.plat_crash_console_init
                0x2ffe4a34       0xc0 ./../build/opteemin-sdcard-stm32mp135f-dk/bl2/stm32mp1_helper.o
                0x2ffe4a34                plat_crash_console_init
 .text.asm.plat_crash_console_flush
                0x2ffe4af4        0xc ./../build/opteemin-sdcard-stm32mp135f-dk/bl2/stm32mp1_helper.o
                0x2ffe4af4                plat_crash_console_flush
 .text.asm.plat_crash_console_putc
                0x2ffe4b00        0xc ./../build/opteemin-sdcard-stm32mp135f-dk/bl2/stm32mp1_helper.o
                0x2ffe4b00                plat_crash_console_putc
 .text.asm.plat_panic_handler
                0x2ffe4b0c       0x14 ./../build/opteemin-sdcard-stm32mp135f-dk/bl2/stm32mp1_helper.o
                0x2ffe4b0c                plat_panic_handler
                0x2ffe4b20                        __TEXT_RESIDENT_END__ = .
 *(SORT_BY_ALIGNMENT(.text*))
 .text.bl2_load_images
                0x2ffe4b20      0x118 ./../build/opteemin-sdcard-stm32mp135f-dk/bl2/bl2_image_load_v2.o
                0x2ffe4b20                bl2_load_images
 .text.bl2_main
                0x2ffe4c38       0x54 ./../build/opteemin-sdcard-stm32mp135f-dk/bl2/bl2_main.o
                0x2ffe4c38                bl2_main
 .text.load_auth_image
                0x2ffe4c8c      0x10c ./../build/opteemin-sdcard-stm32mp135f-dk/bl2/bl_common.o
                0x2ffe4c8c                load_auth_image
 .text.print_entry_point_info
                0x2ffe4d98       0x20 ./../build/opteemin-sdcard-stm32mp135f-dk/bl2/bl_common.o
                0x2ffe4d98                print_entry_point_info
 .text.flush_bl_params_desc_args
                0x2ffe4db8       0x34 ./../build/opteemin-sdcard-stm32mp135f-dk/bl2/desc_image_load.o
                0x2ffe4db8                flush_bl_params_desc_args
 .text.flush_bl_params_desc
                0x2ffe4dec       0x1c ./../build/opteemin-sdcard-stm32mp135f-dk/bl2/desc_image_load.o
                0x2ffe4dec                flush_bl_params_desc
 .text.get_bl_params_node_index
                0x2ffe4e08       0x44 ./../build/opteemin-sdcard-stm32mp135f-dk/bl2/desc_image_load.o
                0x2ffe4e08                get_bl_params_node_index
 .text.get_bl_mem_params_node
                0x2ffe4e4c       0x30 ./../build/opteemin-sdcard-stm32mp135f-dk/bl2/desc_image_load.o
                0x2ffe4e4c                get_bl_mem_params_node
 .text.get_bl_load_info_from_mem_params_desc
                0x2ffe4e7c       0x50 ./../build/opteemin-sdcard-stm32mp135f-dk/bl2/desc_image_load.o
                0x2ffe4e7c                get_bl_load_info_from_mem_params_desc
 .text.get_next_bl_params_from_mem_params_desc
                0x2ffe4ecc       0xc0 ./../build/opteemin-sdcard-stm32mp135f-dk/bl2/desc_image_load.o
                0x2ffe4ecc                get_next_bl_params_from_mem_params_desc
 .text.populate_next_bl_params_config
                0x2ffe4f8c       0x68 ./../build/opteemin-sdcard-stm32mp135f-dk/bl2/desc_image_load.o
                0x2ffe4f8c                populate_next_bl_params_config
 .text.fdt_read_uint32_array
                0x2ffe4ff4       0x70 ./../build/opteemin-sdcard-stm32mp135f-dk/bl2/fdt_wrappers.o
                0x2ffe4ff4                fdt_read_uint32_array
 .text.fdtw_read_string
                0x2ffe5064       0x88 ./../build/opteemin-sdcard-stm32mp135f-dk/bl2/fdt_wrappers.o
                0x2ffe5064                fdtw_read_string
 .text.fdtw_read_uuid
                0x2ffe50ec       0x54 ./../build/opteemin-sdcard-stm32mp135f-dk/bl2/fdt_wrappers.o
                0x2ffe50ec                fdtw_read_uuid
 .text.fdt_get_stdout_node_offset
                0x2ffe5140       0x74 ./../build/opteemin-sdcard-stm32mp135f-dk/bl2/fdt_wrappers.o
                0x2ffe5140                fdt_get_stdout_node_offset
 .text.tf_log   0x2ffe51b4       0x5c ./../build/opteemin-sdcard-stm32mp135f-dk/bl2/tf_log.o
                0x2ffe51b4                tf_log
 .text.read_uuid
                0x2ffe5210       0xc8 ./../build/opteemin-sdcard-stm32mp135f-dk/bl2/uuid.o
                0x2ffe5210                read_uuid
 .text.tzc400_set_action
                0x2ffe52d8       0x24 ./../build/opteemin-sdcard-stm32mp135f-dk/bl2/tzc400.o
                0x2ffe52d8                tzc400_set_action
 .text.tzc400_init
                0x2ffe52fc       0x5c ./../build/opteemin-sdcard-stm32mp135f-dk/bl2/tzc400.o
                0x2ffe52fc                tzc400_init
 .text.tzc400_configure_region0
                0x2ffe5358       0x2c ./../build/opteemin-sdcard-stm32mp135f-dk/bl2/tzc400.o
                0x2ffe5358                tzc400_configure_region0
 .text.tzc400_configure_region
                0x2ffe5384       0xc4 ./../build/opteemin-sdcard-stm32mp135f-dk/bl2/tzc400.o
                0x2ffe5384                tzc400_configure_region
 .text.tzc400_update_filters
                0x2ffe5448       0x44 ./../build/opteemin-sdcard-stm32mp135f-dk/bl2/tzc400.o
                0x2ffe5448                tzc400_update_filters
 .text.tzc400_enable_filters
                0x2ffe548c       0x68 ./../build/opteemin-sdcard-stm32mp135f-dk/bl2/tzc400.o
                0x2ffe548c                tzc400_enable_filters
 .text.tzc400_disable_filters
                0x2ffe54f4       0x50 ./../build/opteemin-sdcard-stm32mp135f-dk/bl2/tzc400.o
                0x2ffe54f4                tzc400_disable_filters
 .text.clk_enable
                0x2ffe5544       0x24 ./../build/opteemin-sdcard-stm32mp135f-dk/bl2/clk.o
                0x2ffe5544                clk_enable
 .text.clk_disable
                0x2ffe5568       0x24 ./../build/opteemin-sdcard-stm32mp135f-dk/bl2/clk.o
                0x2ffe5568                clk_disable
 .text.clk_get_rate
                0x2ffe558c       0x24 ./../build/opteemin-sdcard-stm32mp135f-dk/bl2/clk.o
                0x2ffe558c                clk_get_rate
 .text.clk_is_enabled
                0x2ffe55b0       0x24 ./../build/opteemin-sdcard-stm32mp135f-dk/bl2/clk.o
                0x2ffe55b0                clk_is_enabled
 .text.clk_register
                0x2ffe55d4       0x30 ./../build/opteemin-sdcard-stm32mp135f-dk/bl2/clk.o
                0x2ffe55d4                clk_register
 .text.console_is_registered
                0x2ffe5604       0x28 ./../build/opteemin-sdcard-stm32mp135f-dk/bl2/multi_console.o
                0x2ffe5604                console_is_registered
 .text.console_register
                0x2ffe562c       0x40 ./../build/opteemin-sdcard-stm32mp135f-dk/bl2/multi_console.o
                0x2ffe562c                console_register
 .text.console_set_scope
                0x2ffe566c       0x1c ./../build/opteemin-sdcard-stm32mp135f-dk/bl2/multi_console.o
                0x2ffe566c                console_set_scope
 .text.console_putc
                0x2ffe5688       0x58 ./../build/opteemin-sdcard-stm32mp135f-dk/bl2/multi_console.o
                0x2ffe5688                console_putc
 .text.console_flush
                0x2ffe56e0       0x28 ./../build/opteemin-sdcard-stm32mp135f-dk/bl2/multi_console.o
                0x2ffe56e0                console_flush
 .text.udelay   0x2ffe5708       0x70 ./../build/opteemin-sdcard-stm32mp135f-dk/bl2/delay_timer.o
                0x2ffe5708                udelay
 .text.timer_init
                0x2ffe5778       0x28 ./../build/opteemin-sdcard-stm32mp135f-dk/bl2/delay_timer.o
                0x2ffe5778                timer_init
 .text.generic_delay_timer_init_args
                0x2ffe57a0       0x18 ./../build/opteemin-sdcard-stm32mp135f-dk/bl2/generic_delay_timer.o
                0x2ffe57a0                generic_delay_timer_init_args
 .text.generic_delay_timer_init
                0x2ffe57b8       0x54 ./../build/opteemin-sdcard-stm32mp135f-dk/bl2/generic_delay_timer.o
                0x2ffe57b8                generic_delay_timer_init
 .text.fwu_metadata_load
                0x2ffe580c      0x178 ./../build/opteemin-sdcard-stm32mp135f-dk/bl2/fwu.o
 .text.fwu_get_alternate_boot_bank
                0x2ffe5984       0x90 ./../build/opteemin-sdcard-stm32mp135f-dk/bl2/fwu.o
                0x2ffe5984                fwu_get_alternate_boot_bank
 .text.fwu_get_metadata
                0x2ffe5a14       0x24 ./../build/opteemin-sdcard-stm32mp135f-dk/bl2/fwu.o
                0x2ffe5a14                fwu_get_metadata
 .text.fwu_init
                0x2ffe5a38       0x48 ./../build/opteemin-sdcard-stm32mp135f-dk/bl2/fwu.o
                0x2ffe5a38                fwu_init
 .text.block_seek
                0x2ffe5a80       0x54 ./../build/opteemin-sdcard-stm32mp135f-dk/bl2/io_block.o
 .text.block_open
                0x2ffe5ad4       0x4c ./../build/opteemin-sdcard-stm32mp135f-dk/bl2/io_block.o
 .text.block_write
                0x2ffe5b20      0x11c ./../build/opteemin-sdcard-stm32mp135f-dk/bl2/io_block.o
 .text.block_read
                0x2ffe5c3c       0xe4 ./../build/opteemin-sdcard-stm32mp135f-dk/bl2/io_block.o
 .text.block_dev_close
                0x2ffe5d20       0x48 ./../build/opteemin-sdcard-stm32mp135f-dk/bl2/io_block.o
 .text.block_dev_open
                0x2ffe5d68       0x78 ./../build/opteemin-sdcard-stm32mp135f-dk/bl2/io_block.o
 .text.register_io_dev_block
                0x2ffe5de0       0x2c ./../build/opteemin-sdcard-stm32mp135f-dk/bl2/io_block.o
                0x2ffe5de0                register_io_dev_block
 .text.fip_file_close
                0x2ffe5e0c       0x20 ./../build/opteemin-sdcard-stm32mp135f-dk/bl2/io_fip.o
 .text.fip_dev_init
                0x2ffe5e2c       0x9c ./../build/opteemin-sdcard-stm32mp135f-dk/bl2/io_fip.o
 .text.fip_file_read
                0x2ffe5ec8       0xb4 ./../build/opteemin-sdcard-stm32mp135f-dk/bl2/io_fip.o
 .text.fip_file_len
                0x2ffe5f7c       0x24 ./../build/opteemin-sdcard-stm32mp135f-dk/bl2/io_fip.o
 .text.fip_file_open
                0x2ffe5fa0       0xf0 ./../build/opteemin-sdcard-stm32mp135f-dk/bl2/io_fip.o
 .text.fip_dev_close
                0x2ffe6090       0x50 ./../build/opteemin-sdcard-stm32mp135f-dk/bl2/io_fip.o
 .text.fip_dev_open
                0x2ffe60e0       0x4c ./../build/opteemin-sdcard-stm32mp135f-dk/bl2/io_fip.o
 .text.register_io_dev_fip
                0x2ffe612c       0x2c ./../build/opteemin-sdcard-stm32mp135f-dk/bl2/io_fip.o
                0x2ffe612c                register_io_dev_fip
 .text.free_entity.isra.0
                0x2ffe6158       0x40 ./../build/opteemin-sdcard-stm32mp135f-dk/bl2/io_storage.o
 .text.io_register_device
                0x2ffe6198       0x28 ./../build/opteemin-sdcard-stm32mp135f-dk/bl2/io_storage.o
                0x2ffe6198                io_register_device
 .text.io_dev_open
                0x2ffe61c0       0x28 ./../build/opteemin-sdcard-stm32mp135f-dk/bl2/io_storage.o
                0x2ffe61c0                io_dev_open
 .text.io_dev_init
                0x2ffe61e8       0x34 ./../build/opteemin-sdcard-stm32mp135f-dk/bl2/io_storage.o
                0x2ffe61e8                io_dev_init
 .text.io_dev_close
                0x2ffe621c       0x30 ./../build/opteemin-sdcard-stm32mp135f-dk/bl2/io_storage.o
                0x2ffe621c                io_dev_close
 .text.io_open  0x2ffe624c       0x94 ./../build/opteemin-sdcard-stm32mp135f-dk/bl2/io_storage.o
                0x2ffe624c                io_open
 .text.io_seek  0x2ffe62e0       0x4c ./../build/opteemin-sdcard-stm32mp135f-dk/bl2/io_storage.o
                0x2ffe62e0                io_seek
 .text.io_size  0x2ffe632c       0x34 ./../build/opteemin-sdcard-stm32mp135f-dk/bl2/io_storage.o
                0x2ffe632c                io_size
 .text.io_read  0x2ffe6360       0x48 ./../build/opteemin-sdcard-stm32mp135f-dk/bl2/io_storage.o
                0x2ffe6360                io_read
 .text.io_close
                0x2ffe63a8       0x30 ./../build/opteemin-sdcard-stm32mp135f-dk/bl2/io_storage.o
                0x2ffe63a8                io_close
 .text.mmc_send_cmd
                0x2ffe63d8       0x40 ./../build/opteemin-sdcard-stm32mp135f-dk/bl2/mmc.o
 .text.mmc_device_state
                0x2ffe6418       0x54 ./../build/opteemin-sdcard-stm32mp135f-dk/bl2/mmc.o
 .text.sd_switch.constprop.0
                0x2ffe646c       0x44 ./../build/opteemin-sdcard-stm32mp135f-dk/bl2/mmc.o
 .text.mmc_read_blocks
                0x2ffe64b0       0xd8 ./../build/opteemin-sdcard-stm32mp135f-dk/bl2/mmc.o
                0x2ffe64b0                mmc_read_blocks
 .text.mmc_init
                0x2ffe6588      0x4d4 ./../build/opteemin-sdcard-stm32mp135f-dk/bl2/mmc.o
                0x2ffe6588                mmc_init
 .text.parse_gpt_entry
                0x2ffe6a5c       0xb0 ./../build/opteemin-sdcard-stm32mp135f-dk/bl2/gpt.o
                0x2ffe6a5c                parse_gpt_entry
 .text.load_gpt_header
                0x2ffe6b0c       0x80 ./../build/opteemin-sdcard-stm32mp135f-dk/bl2/partition.o
 .text.load_partition_gpt
                0x2ffe6b8c       0x6c ./../build/opteemin-sdcard-stm32mp135f-dk/bl2/partition.o
 .text.load_partition_table
                0x2ffe6bf8      0x204 ./../build/opteemin-sdcard-stm32mp135f-dk/bl2/partition.o
                0x2ffe6bf8                load_partition_table
 .text.get_partition_entry
                0x2ffe6dfc       0x34 ./../build/opteemin-sdcard-stm32mp135f-dk/bl2/partition.o
                0x2ffe6dfc                get_partition_entry
 .text.get_partition_entry_by_type
                0x2ffe6e30       0x38 ./../build/opteemin-sdcard-stm32mp135f-dk/bl2/partition.o
                0x2ffe6e30                get_partition_entry_by_type
 .text.get_partition_entry_by_guid
                0x2ffe6e68       0x38 ./../build/opteemin-sdcard-stm32mp135f-dk/bl2/partition.o
                0x2ffe6e68                get_partition_entry_by_guid
 .text.partition_init
                0x2ffe6ea0       0x1c ./../build/opteemin-sdcard-stm32mp135f-dk/bl2/partition.o
                0x2ffe6ea0                partition_init
 .text.is_otp_invalid_mode
                0x2ffe6ebc       0x28 ./../build/opteemin-sdcard-stm32mp135f-dk/bl2/bsec2.o
 .text.bsec_lock
                0x2ffe6ee4       0x18 ./../build/opteemin-sdcard-stm32mp135f-dk/bl2/bsec2.o
 .text.bsec_unlock
                0x2ffe6efc       0x18 ./../build/opteemin-sdcard-stm32mp135f-dk/bl2/bsec2.o
 .text.bsec_power_safmem
                0x2ffe6f14       0x58 ./../build/opteemin-sdcard-stm32mp135f-dk/bl2/bsec2.o
 .text.otp_bank_offset
                0x2ffe6f6c       0x18 ./../build/opteemin-sdcard-stm32mp135f-dk/bl2/bsec2.o
 .text.bsec_check_error
                0x2ffe6f84       0x34 ./../build/opteemin-sdcard-stm32mp135f-dk/bl2/bsec2.o
 .text.bsec_probe
                0x2ffe6fb8       0x3c ./../build/opteemin-sdcard-stm32mp135f-dk/bl2/bsec2.o
                0x2ffe6fb8                bsec_probe
 .text.bsec_read_debug_conf
                0x2ffe6ff4        0xc ./../build/opteemin-sdcard-stm32mp135f-dk/bl2/bsec2.o
                0x2ffe6ff4                bsec_read_debug_conf
 .text.bsec_write_scratch
                0x2ffe7000        0xc ./../build/opteemin-sdcard-stm32mp135f-dk/bl2/bsec2.o
                0x2ffe7000                bsec_write_scratch
 .text.bsec_read_sr_lock
                0x2ffe700c       0x34 ./../build/opteemin-sdcard-stm32mp135f-dk/bl2/bsec2.o
                0x2ffe700c                bsec_read_sr_lock
 .text.bsec_read_sw_lock
                0x2ffe7040       0x34 ./../build/opteemin-sdcard-stm32mp135f-dk/bl2/bsec2.o
                0x2ffe7040                bsec_read_sw_lock
 .text.bsec_write_otp
                0x2ffe7074       0x4c ./../build/opteemin-sdcard-stm32mp135f-dk/bl2/bsec2.o
                0x2ffe7074                bsec_write_otp
 .text.bsec_shadow_read_otp
                0x2ffe70c0       0xb8 ./../build/opteemin-sdcard-stm32mp135f-dk/bl2/bsec2.o
                0x2ffe70c0                bsec_shadow_read_otp
 .text.clk_stm32_get_priv
                0x2ffe7178        0xc ./../build/opteemin-sdcard-stm32mp135f-dk/bl2/clk-stm32-core.o
                0x2ffe7178                clk_stm32_get_priv
 .text.clk_stm32_rcc_regs_lock
                0x2ffe7184        0xc ./../build/opteemin-sdcard-stm32mp135f-dk/bl2/clk-stm32-core.o
                0x2ffe7184                clk_stm32_rcc_regs_lock
 .text.clk_stm32_rcc_regs_unlock
                0x2ffe7190        0xc ./../build/opteemin-sdcard-stm32mp135f-dk/bl2/clk-stm32-core.o
                0x2ffe7190                clk_stm32_rcc_regs_unlock
 .text._clk_get_ops
                0x2ffe719c       0x20 ./../build/opteemin-sdcard-stm32mp135f-dk/bl2/clk-stm32-core.o
 .text.fixed_factor_recalc_rate
                0x2ffe71bc       0x2c ./../build/opteemin-sdcard-stm32mp135f-dk/bl2/clk-stm32-core.o
                0x2ffe71bc                fixed_factor_recalc_rate
 .text.clk_mux_set_parent
                0x2ffe71e8       0x8c ./../build/opteemin-sdcard-stm32mp135f-dk/bl2/clk-stm32-core.o
                0x2ffe71e8                clk_mux_set_parent
 .text.clk_stm32_get_parent
                0x2ffe7274       0x3c ./../build/opteemin-sdcard-stm32mp135f-dk/bl2/clk-stm32-core.o
 .text.clk_stm32_get_rate
                0x2ffe72b0       0x3c ./../build/opteemin-sdcard-stm32mp135f-dk/bl2/clk-stm32-core.o
 .text.clk_stm32_enable_call_ops
                0x2ffe72ec       0x4c ./../build/opteemin-sdcard-stm32mp135f-dk/bl2/clk-stm32-core.o
                0x2ffe72ec                clk_stm32_enable_call_ops
 .text._clk_stm32_enable_core
                0x2ffe7338       0x60 ./../build/opteemin-sdcard-stm32mp135f-dk/bl2/clk-stm32-core.o
 .text._clk_stm32_enable
                0x2ffe7398       0x28 ./../build/opteemin-sdcard-stm32mp135f-dk/bl2/clk-stm32-core.o
                0x2ffe7398                _clk_stm32_enable
 .text.clk_stm32_enable
                0x2ffe73c0       0x3c ./../build/opteemin-sdcard-stm32mp135f-dk/bl2/clk-stm32-core.o
 .text._clk_stm32_disable
                0x2ffe73fc       0x70 ./../build/opteemin-sdcard-stm32mp135f-dk/bl2/clk-stm32-core.o
                0x2ffe73fc                _clk_stm32_disable
 .text.clk_stm32_disable
                0x2ffe746c       0x3c ./../build/opteemin-sdcard-stm32mp135f-dk/bl2/clk-stm32-core.o
 .text.clk_stm32_is_enabled
                0x2ffe74a8       0x3c ./../build/opteemin-sdcard-stm32mp135f-dk/bl2/clk-stm32-core.o
 .text.clk_stm32_enable_critical_clocks
                0x2ffe74e4       0x2c ./../build/opteemin-sdcard-stm32mp135f-dk/bl2/clk-stm32-core.o
                0x2ffe74e4                clk_stm32_enable_critical_clocks
 .text.clk_stm32_set_div
                0x2ffe7510       0x94 ./../build/opteemin-sdcard-stm32mp135f-dk/bl2/clk-stm32-core.o
                0x2ffe7510                clk_stm32_set_div
 .text.clk_stm32_init
                0x2ffe75a4       0x3c ./../build/opteemin-sdcard-stm32mp135f-dk/bl2/clk-stm32-core.o
                0x2ffe75a4                clk_stm32_init
 .text.clk_stm32_osc_gate_enable
                0x2ffe75e0       0x44 ./../build/opteemin-sdcard-stm32mp135f-dk/bl2/clk-stm32mp13.o
 .text.clk_stm32_osc_init
                0x2ffe7624       0x88 ./../build/opteemin-sdcard-stm32mp135f-dk/bl2/clk-stm32mp13.o
 .text.clk_stm32_osc_gate_disable
                0x2ffe76ac       0x44 ./../build/opteemin-sdcard-stm32mp135f-dk/bl2/clk-stm32mp13.o
 .text.clk_stm32_pll_is_enabled
                0x2ffe76f0       0x24 ./../build/opteemin-sdcard-stm32mp135f-dk/bl2/clk-stm32mp13.o
 .text.clk_stm32_pll_recalc_rate
                0x2ffe7714       0x64 ./../build/opteemin-sdcard-stm32mp135f-dk/bl2/clk-stm32mp13.o
 .text._clk_stm32_pll_enable
                0x2ffe7778       0x7c ./../build/opteemin-sdcard-stm32mp135f-dk/bl2/clk-stm32mp13.o
 .text.clk_stm32_pll_enable
                0x2ffe77f4       0x20 ./../build/opteemin-sdcard-stm32mp135f-dk/bl2/clk-stm32mp13.o
 .text._clk_stm32_pll_disable
                0x2ffe7814       0x80 ./../build/opteemin-sdcard-stm32mp135f-dk/bl2/clk-stm32mp13.o
 .text.clk_stm32_pll_disable
                0x2ffe7894       0x20 ./../build/opteemin-sdcard-stm32mp135f-dk/bl2/clk-stm32mp13.o
 .text.clk_stm32_pll_init
                0x2ffe78b4      0x158 ./../build/opteemin-sdcard-stm32mp135f-dk/bl2/clk-stm32mp13.o
 .text.stm32mp1_clk_init
                0x2ffe7a0c      0x570 ./../build/opteemin-sdcard-stm32mp135f-dk/bl2/clk-stm32mp13.o
                0x2ffe7a0c                stm32mp1_clk_init
 .text.stm32mp1_clk_probe
                0x2ffe7f7c      0x2c4 ./../build/opteemin-sdcard-stm32mp135f-dk/bl2/clk-stm32mp13.o
                0x2ffe7f7c                stm32mp1_clk_probe
 .text.fdt_get_clock_id
                0x2ffe8240       0x34 ./../build/opteemin-sdcard-stm32mp135f-dk/bl2/stm32mp_clkfunc.o
                0x2ffe8240                fdt_get_clock_id
 .text.stm32mp_stgen_config
                0x2ffe8274       0x4c ./../build/opteemin-sdcard-stm32mp135f-dk/bl2/stm32mp_clkfunc.o
                0x2ffe8274                stm32mp_stgen_config
 .text.stm32mp_stgen_restore_rate
                0x2ffe82c0       0x10 ./../build/opteemin-sdcard-stm32mp135f-dk/bl2/stm32mp_clkfunc.o
                0x2ffe82c0                stm32mp_stgen_restore_rate
 .text.seed_error_recovery
                0x2ffe82d0       0x34 ./../build/opteemin-sdcard-stm32mp135f-dk/bl2/stm32_rng.o
 .text.check_data_validity
                0x2ffe8304       0x40 ./../build/opteemin-sdcard-stm32mp135f-dk/bl2/stm32_rng.o
 .text.stm32_rng_read
                0x2ffe8344       0x80 ./../build/opteemin-sdcard-stm32mp135f-dk/bl2/stm32_rng.o
                0x2ffe8344                stm32_rng_read
 .text.stm32_rng_init
                0x2ffe83c4      0x27c ./../build/opteemin-sdcard-stm32mp135f-dk/bl2/stm32_rng.o
                0x2ffe83c4                stm32_rng_init
 .text.stm32mp1_ddr_init
                0x2ffe8640      0x498 ./../build/opteemin-sdcard-stm32mp135f-dk/bl2/stm32mp1_ddr.o
                0x2ffe8640                stm32mp1_ddr_init
 .text.ddr_sw_self_refresh_exit
                0x2ffe8ad8      0x1cc ./../build/opteemin-sdcard-stm32mp135f-dk/bl2/stm32mp1_ddr_helpers.o
                0x2ffe8ad8                ddr_sw_self_refresh_exit
 .text.ddr_read_sr_mode
                0x2ffe8ca4       0x18 ./../build/opteemin-sdcard-stm32mp135f-dk/bl2/stm32mp1_ddr_helpers.o
                0x2ffe8ca4                ddr_read_sr_mode
 .text.ddr_set_sr_mode
                0x2ffe8cbc      0x1c0 ./../build/opteemin-sdcard-stm32mp135f-dk/bl2/stm32mp1_ddr_helpers.o
                0x2ffe8cbc                ddr_set_sr_mode
 .text.stm32mp1_ddr_setup
                0x2ffe8e7c      0x154 ./../build/opteemin-sdcard-stm32mp135f-dk/bl2/stm32mp1_ram.o
 .text.stm32mp1_ddr_clk_enable
                0x2ffe8fd0       0x48 ./../build/opteemin-sdcard-stm32mp135f-dk/bl2/stm32mp1_ram.o
                0x2ffe8fd0                stm32mp1_ddr_clk_enable
 .text.stm32mp1_ddr_is_restored
                0x2ffe9018        0xc ./../build/opteemin-sdcard-stm32mp135f-dk/bl2/stm32mp1_ram.o
                0x2ffe9018                stm32mp1_ddr_is_restored
 .text.stm32mp1_ddr_probe
                0x2ffe9024       0x3c ./../build/opteemin-sdcard-stm32mp135f-dk/bl2/stm32mp1_ram.o
                0x2ffe9024                stm32mp1_ddr_probe
 .text.stm32mp_ddr_set_reg
                0x2ffe9060       0x48 ./../build/opteemin-sdcard-stm32mp135f-dk/bl2/stm32mp_ddr.o
                0x2ffe9060                stm32mp_ddr_set_reg
 .text.stm32mp_ddr_sw_selfref_entry
                0x2ffe90a8       0x58 ./../build/opteemin-sdcard-stm32mp135f-dk/bl2/stm32mp_ddr.o
                0x2ffe90a8                stm32mp_ddr_sw_selfref_entry
 .text.stm32mp_ddr_set_qd3_update_conditions
                0x2ffe9100       0x4c ./../build/opteemin-sdcard-stm32mp135f-dk/bl2/stm32mp_ddr.o
                0x2ffe9100                stm32mp_ddr_set_qd3_update_conditions
 .text.stm32mp_ddr_unset_qd3_update_conditions
                0x2ffe914c       0x40 ./../build/opteemin-sdcard-stm32mp135f-dk/bl2/stm32mp_ddr.o
                0x2ffe914c                stm32mp_ddr_unset_qd3_update_conditions
 .text.stm32mp_ddr_dt_get_info
                0x2ffe918c       0x50 ./../build/opteemin-sdcard-stm32mp135f-dk/bl2/stm32mp_ram.o
                0x2ffe918c                stm32mp_ddr_dt_get_info
 .text.stm32mp_ddr_dt_get_param
                0x2ffe91dc       0x54 ./../build/opteemin-sdcard-stm32mp135f-dk/bl2/stm32mp_ram.o
                0x2ffe91dc                stm32mp_ddr_dt_get_param
 .text.set_gpio.isra.0
                0x2ffe9230       0xf0 ./../build/opteemin-sdcard-stm32mp135f-dk/bl2/stm32_gpio.o
 .text.dt_set_pinctrl_config
                0x2ffe9320      0x240 ./../build/opteemin-sdcard-stm32mp135f-dk/bl2/stm32_gpio.o
                0x2ffe9320                dt_set_pinctrl_config
 .text.i2c_transfer_config.isra.0
                0x2ffe9560       0x2c ./../build/opteemin-sdcard-stm32mp135f-dk/bl2/stm32_i2c.o
 .text.i2c_read.isra.0
                0x2ffe958c      0x1f0 ./../build/opteemin-sdcard-stm32mp135f-dk/bl2/stm32_i2c.o
 .text.i2c_write
                0x2ffe977c      0x218 ./../build/opteemin-sdcard-stm32mp135f-dk/bl2/stm32_i2c.o
 .text.stm32_i2c_get_setup_from_fdt
                0x2ffe9994       0x64 ./../build/opteemin-sdcard-stm32mp135f-dk/bl2/stm32_i2c.o
                0x2ffe9994                stm32_i2c_get_setup_from_fdt
 .text.stm32_i2c_init
                0x2ffe99f8      0x434 ./../build/opteemin-sdcard-stm32mp135f-dk/bl2/stm32_i2c.o
                0x2ffe99f8                stm32_i2c_init
 .text.stm32_i2c_is_device_ready
                0x2ffe9e2c      0x130 ./../build/opteemin-sdcard-stm32mp135f-dk/bl2/stm32_i2c.o
                0x2ffe9e2c                stm32_i2c_is_device_ready
 .text.fdt_get_clk_by_name
                0x2ffe9f5c       0x4c ./../build/opteemin-sdcard-stm32mp135f-dk/bl2/stm32_iwdg.o
 .text.stm32_iwdg_refresh
                0x2ffe9fa8       0x40 ./../build/opteemin-sdcard-stm32mp135f-dk/bl2/stm32_iwdg.o
                0x2ffe9fa8                stm32_iwdg_refresh
 .text.stm32_iwdg_init
                0x2ffe9fe8      0x184 ./../build/opteemin-sdcard-stm32mp135f-dk/bl2/stm32_iwdg.o
                0x2ffe9fe8                stm32_iwdg_init
 .text.check_region_settings
                0x2ffea16c       0x70 ./../build/opteemin-sdcard-stm32mp135f-dk/bl2/stm32_mce.o
 .text.stm32_mce_init
                0x2ffea1dc       0x68 ./../build/opteemin-sdcard-stm32mp135f-dk/bl2/stm32_mce.o
                0x2ffea1dc                stm32_mce_init
 .text.stm32_mce_write_master_key
                0x2ffea244       0x90 ./../build/opteemin-sdcard-stm32mp135f-dk/bl2/stm32_mce.o
                0x2ffea244                stm32_mce_write_master_key
 .text.stm32_mce_lock_master_key
                0x2ffea2d4       0x10 ./../build/opteemin-sdcard-stm32mp135f-dk/bl2/stm32_mce.o
                0x2ffea2d4                stm32_mce_lock_master_key
 .text.stm32_mce_is_hw_encryption_functional
                0x2ffea2e4       0x14 ./../build/opteemin-sdcard-stm32mp135f-dk/bl2/stm32_mce.o
                0x2ffea2e4                stm32_mce_is_hw_encryption_functional
 .text.stm32_mce_configure_region.part.0
                0x2ffea2f8       0x60 ./../build/opteemin-sdcard-stm32mp135f-dk/bl2/stm32_mce.o
 .text.fconf_populate_mce
                0x2ffea358       0xd0 ./../build/opteemin-sdcard-stm32mp135f-dk/bl2/stm32_mce.o
 .text.stm32_sdmmc2_set_ios
                0x2ffea428       0x78 ./../build/opteemin-sdcard-stm32mp135f-dk/bl2/stm32_sdmmc2.o
 .text.stm32_sdmmc2_init
                0x2ffea4a0       0x8c ./../build/opteemin-sdcard-stm32mp135f-dk/bl2/stm32_sdmmc2.o
 .text.stm32_sdmmc2_send_cmd
                0x2ffea52c      0x318 ./../build/opteemin-sdcard-stm32mp135f-dk/bl2/stm32_sdmmc2.o
 .text.stm32_sdmmc2_read
                0x2ffea844      0x138 ./../build/opteemin-sdcard-stm32mp135f-dk/bl2/stm32_sdmmc2.o
 .text.stm32_sdmmc2_prepare
                0x2ffea97c       0xb4 ./../build/opteemin-sdcard-stm32mp135f-dk/bl2/stm32_sdmmc2.o
 .text.stm32_sdmmc2_mmc_init
                0x2ffeaa30      0x184 ./../build/opteemin-sdcard-stm32mp135f-dk/bl2/stm32_sdmmc2.o
                0x2ffeaa30                stm32_sdmmc2_mmc_init
 .text.nvmem_driver_register
                0x2ffeabb4       0x24 ./../build/opteemin-sdcard-stm32mp135f-dk/bl2/nvmem.o
                0x2ffeabb4                nvmem_driver_register
 .text.nvmem_get_cell_by_index
                0x2ffeabd8       0x90 ./../build/opteemin-sdcard-stm32mp135f-dk/bl2/nvmem.o
                0x2ffeabd8                nvmem_get_cell_by_index
 .text.nvmem_get_cell_by_name
                0x2ffeac68       0x2c ./../build/opteemin-sdcard-stm32mp135f-dk/bl2/nvmem.o
                0x2ffeac68                nvmem_get_cell_by_name
 .text.stm32_tamp_nvram_write_bkp
                0x2ffeac94       0x68 ./../build/opteemin-sdcard-stm32mp135f-dk/bl2/stm32mp_tamp_nvram_core.o
 .text.stm32_tamp_nvram_read_bkp.constprop.0.isra.0
                0x2ffeacfc       0x68 ./../build/opteemin-sdcard-stm32mp135f-dk/bl2/stm32mp_tamp_nvram_core.o
 .text.stm32_tamp_nvram_read_cell
                0x2ffead64       0xa4 ./../build/opteemin-sdcard-stm32mp135f-dk/bl2/stm32mp_tamp_nvram_core.o
 .text.stm32_tamp_nvram_write_cell
                0x2ffeae08       0xc4 ./../build/opteemin-sdcard-stm32mp135f-dk/bl2/stm32mp_tamp_nvram_core.o
 .text.stm32_tamp_nvram_update_rights
                0x2ffeaecc       0xc4 ./../build/opteemin-sdcard-stm32mp135f-dk/bl2/stm32mp_tamp_nvram_core.o
                0x2ffeaecc                stm32_tamp_nvram_update_rights
 .text.stm32_tamp_nvram_init
                0x2ffeaf90       0xc4 ./../build/opteemin-sdcard-stm32mp135f-dk/bl2/stm32mp_tamp_nvram_core.o
                0x2ffeaf90                stm32_tamp_nvram_init
 .text.stm32_tamp_nvram_get_cdata
                0x2ffeb054        0x8 ./../build/opteemin-sdcard-stm32mp135f-dk/bl2/stm32mp_tamp_nvram_mp1.o
                0x2ffeb054                stm32_tamp_nvram_get_cdata
 .text.stm32_tamp_nvram_get_access_rights
                0x2ffeb05c        0x8 ./../build/opteemin-sdcard-stm32mp135f-dk/bl2/stm32mp_tamp_nvram_mp1.o
                0x2ffeb05c                stm32_tamp_nvram_get_access_rights
 .text.dt_get_pmic_node
                0x2ffeb064       0x24 ./../build/opteemin-sdcard-stm32mp135f-dk/bl2/stm32mp_pmic.o
 .text.handle_pmic_property
                0x2ffeb088       0x30 ./../build/opteemin-sdcard-stm32mp135f-dk/bl2/stm32mp_pmic.o
 .text.dt_pmic_status
                0x2ffeb0b8       0x34 ./../build/opteemin-sdcard-stm32mp135f-dk/bl2/stm32mp_pmic.o
                0x2ffeb0b8                dt_pmic_status
 .text.initialize_pmic_i2c
                0x2ffeb0ec      0x10c ./../build/opteemin-sdcard-stm32mp135f-dk/bl2/stm32mp_pmic.o
                0x2ffeb0ec                initialize_pmic_i2c
 .text.initialize_pmic
                0x2ffeb1f8      0x114 ./../build/opteemin-sdcard-stm32mp135f-dk/bl2/stm32mp_pmic.o
                0x2ffeb1f8                initialize_pmic
 .text.print_pmic_info_and_debug
                0x2ffeb30c       0x30 ./../build/opteemin-sdcard-stm32mp135f-dk/bl2/stm32mp_pmic.o
                0x2ffeb30c                print_pmic_info_and_debug
 .text.pmic_voltages_init
                0x2ffeb33c       0x3c ./../build/opteemin-sdcard-stm32mp135f-dk/bl2/stm32mp_pmic.o
                0x2ffeb33c                pmic_voltages_init
 .text.get_regulator_data
                0x2ffeb378       0x44 ./../build/opteemin-sdcard-stm32mp135f-dk/bl2/stpmic1.o
 .text.stpmic1_regulator_levels_mv
                0x2ffeb3bc       0x40 ./../build/opteemin-sdcard-stm32mp135f-dk/bl2/stpmic1.o
                0x2ffeb3bc                stpmic1_regulator_levels_mv
 .text.stpmic1_register_read
                0x2ffeb3fc       0x28 ./../build/opteemin-sdcard-stm32mp135f-dk/bl2/stpmic1.o
                0x2ffeb3fc                stpmic1_register_read
 .text.stpmic1_regulator_voltage_get
                0x2ffeb424       0x90 ./../build/opteemin-sdcard-stm32mp135f-dk/bl2/stpmic1.o
                0x2ffeb424                stpmic1_regulator_voltage_get
 .text.stpmic1_register_write
                0x2ffeb4b4       0x60 ./../build/opteemin-sdcard-stm32mp135f-dk/bl2/stpmic1.o
                0x2ffeb4b4                stpmic1_register_write
 .text.stpmic1_regulator_voltage_set
                0x2ffeb514       0x98 ./../build/opteemin-sdcard-stm32mp135f-dk/bl2/stpmic1.o
                0x2ffeb514                stpmic1_regulator_voltage_set
 .text.stpmic1_regulator_sink_mode_set
                0x2ffeb5ac       0x30 ./../build/opteemin-sdcard-stm32mp135f-dk/bl2/stpmic1.o
                0x2ffeb5ac                stpmic1_regulator_sink_mode_set
 .text.stpmic1_regulator_bypass_mode_set
                0x2ffeb5dc       0x30 ./../build/opteemin-sdcard-stm32mp135f-dk/bl2/stpmic1.o
                0x2ffeb5dc                stpmic1_regulator_bypass_mode_set
 .text.stpmic1_active_discharge_mode_set
                0x2ffeb60c       0x3c ./../build/opteemin-sdcard-stm32mp135f-dk/bl2/stpmic1.o
                0x2ffeb60c                stpmic1_active_discharge_mode_set
 .text.stpmic1_bind_i2c
                0x2ffeb648       0x14 ./../build/opteemin-sdcard-stm32mp135f-dk/bl2/stpmic1.o
                0x2ffeb648                stpmic1_bind_i2c
 .text.regulator_get_by_name
                0x2ffeb65c       0x48 ./../build/opteemin-sdcard-stm32mp135f-dk/bl2/regulator_core.o
                0x2ffeb65c                regulator_get_by_name
 .text.regulator_get_by_supply_name
                0x2ffeb6a4       0x74 ./../build/opteemin-sdcard-stm32mp135f-dk/bl2/regulator_core.o
                0x2ffeb6a4                regulator_get_by_supply_name
 .text.regulator_enable
                0x2ffeb718       0x30 ./../build/opteemin-sdcard-stm32mp135f-dk/bl2/regulator_core.o
                0x2ffeb718                regulator_enable
 .text.regulator_disable
                0x2ffeb748       0x3c ./../build/opteemin-sdcard-stm32mp135f-dk/bl2/regulator_core.o
                0x2ffeb748                regulator_disable
 .text.regulator_get_voltage
                0x2ffeb784       0x4c ./../build/opteemin-sdcard-stm32mp135f-dk/bl2/regulator_core.o
                0x2ffeb784                regulator_get_voltage
 .text.regulator_set_voltage
                0x2ffeb7d0       0x6c ./../build/opteemin-sdcard-stm32mp135f-dk/bl2/regulator_core.o
                0x2ffeb7d0                regulator_set_voltage
 .text.regulator_list_voltages
                0x2ffeb83c       0xe0 ./../build/opteemin-sdcard-stm32mp135f-dk/bl2/regulator_core.o
                0x2ffeb83c                regulator_list_voltages
 .text.regulator_get_range
                0x2ffeb91c       0x20 ./../build/opteemin-sdcard-stm32mp135f-dk/bl2/regulator_core.o
                0x2ffeb91c                regulator_get_range
 .text.regulator_register
                0x2ffeb93c      0x180 ./../build/opteemin-sdcard-stm32mp135f-dk/bl2/regulator_core.o
                0x2ffeb93c                regulator_register
 .text.fixed_regulator_register
                0x2ffebabc       0xc8 ./../build/opteemin-sdcard-stm32mp135f-dk/bl2/regulator_fixed.o
                0x2ffebabc                fixed_regulator_register
 .text.stm32mp_reset_assert
                0x2ffebb84       0x60 ./../build/opteemin-sdcard-stm32mp135f-dk/bl2/stm32mp1_reset.o
                0x2ffebb84                stm32mp_reset_assert
 .text.stm32mp_reset_deassert
                0x2ffebbe4       0x60 ./../build/opteemin-sdcard-stm32mp135f-dk/bl2/stm32mp1_reset.o
                0x2ffebbe4                stm32mp_reset_deassert
 .text.fconf_populate
                0x2ffebc44       0x88 ./../build/opteemin-sdcard-stm32mp135f-dk/bl2/fconf.o
                0x2ffebc44                fconf_populate
 .text.set_config_info
                0x2ffebccc       0x40 ./../build/opteemin-sdcard-stm32mp135f-dk/bl2/fconf_dyn_cfg_getter.o
                0x2ffebccc                set_config_info
 .text.fconf_populate_dtb_registry
                0x2ffebd0c      0x10c ./../build/opteemin-sdcard-stm32mp135f-dk/bl2/fconf_dyn_cfg_getter.o
                0x2ffebd0c                fconf_populate_dtb_registry
 .text.dyn_cfg_dtb_info_get_index
                0x2ffebe18       0x20 ./../build/opteemin-sdcard-stm32mp135f-dk/bl2/fconf_dyn_cfg_getter.o
                0x2ffebe18                dyn_cfg_dtb_info_get_index
 .text.dyn_cfg_dtb_info_getter
                0x2ffebe38       0x28 ./../build/opteemin-sdcard-stm32mp135f-dk/bl2/fconf_dyn_cfg_getter.o
                0x2ffebe38                dyn_cfg_dtb_info_getter
 .text.parse_optee_image
                0x2ffebe60       0x60 ./../build/opteemin-sdcard-stm32mp135f-dk/bl2/optee_utils.o
 .text.optee_header_is_valid
                0x2ffebec0       0x24 ./../build/opteemin-sdcard-stm32mp135f-dk/bl2/optee_utils.o
                0x2ffebec0                optee_header_is_valid
 .text.parse_optee_header
                0x2ffebee4      0x114 ./../build/opteemin-sdcard-stm32mp135f-dk/bl2/optee_utils.o
                0x2ffebee4                parse_optee_header
 .text.xlat_arch_regime_get_xn_desc
                0x2ffebff8       0x28 ./../build/opteemin-sdcard-stm32mp135f-dk/bl2/xlat_tables_arch.o
                0x2ffebff8                xlat_arch_regime_get_xn_desc
 .text.xlat_arch_tlbi_va
                0x2ffec020       0x2c ./../build/opteemin-sdcard-stm32mp135f-dk/bl2/xlat_tables_arch.o
                0x2ffec020                xlat_arch_tlbi_va
 .text.xlat_arch_current_el
                0x2ffec04c       0x3c ./../build/opteemin-sdcard-stm32mp135f-dk/bl2/xlat_tables_arch.o
                0x2ffec04c                xlat_arch_current_el
 .text.is_mmu_enabled_ctx
                0x2ffec088       0x40 ./../build/opteemin-sdcard-stm32mp135f-dk/bl2/xlat_tables_arch.o
                0x2ffec088                is_mmu_enabled_ctx
 .text.setup_mmu_cfg
                0x2ffec0c8       0xac ./../build/opteemin-sdcard-stm32mp135f-dk/bl2/xlat_tables_arch.o
                0x2ffec0c8                setup_mmu_cfg
 .text.mmap_add_region
                0x2ffec174       0x28 ./../build/opteemin-sdcard-stm32mp135f-dk/bl2/xlat_tables_context.o
                0x2ffec174                mmap_add_region
 .text.mmap_add
                0x2ffec19c        0xc ./../build/opteemin-sdcard-stm32mp135f-dk/bl2/xlat_tables_context.o
                0x2ffec19c                mmap_add
 .text.mmap_add_dynamic_region
                0x2ffec1a8       0x28 ./../build/opteemin-sdcard-stm32mp135f-dk/bl2/xlat_tables_context.o
                0x2ffec1a8                mmap_add_dynamic_region
 .text.mmap_remove_dynamic_region
                0x2ffec1d0       0x10 ./../build/opteemin-sdcard-stm32mp135f-dk/bl2/xlat_tables_context.o
                0x2ffec1d0                mmap_remove_dynamic_region
 .text.init_xlat_tables
                0x2ffec1e0       0x3c ./../build/opteemin-sdcard-stm32mp135f-dk/bl2/xlat_tables_context.o
                0x2ffec1e0                init_xlat_tables
 .text.enable_mmu_svc_mon
                0x2ffec21c       0x34 ./../build/opteemin-sdcard-stm32mp135f-dk/bl2/xlat_tables_context.o
                0x2ffec21c                enable_mmu_svc_mon
 .text.xlat_table_get_index
                0x2ffec250       0x28 ./../build/opteemin-sdcard-stm32mp135f-dk/bl2/xlat_tables_core.o
 .text.xlat_tables_unmap_region
                0x2ffec278      0x138 ./../build/opteemin-sdcard-stm32mp135f-dk/bl2/xlat_tables_core.o
 .text.xlat_desc
                0x2ffec3b0       0xc4 ./../build/opteemin-sdcard-stm32mp135f-dk/bl2/xlat_tables_core.o
                0x2ffec3b0                xlat_desc
 .text.xlat_tables_map_region
                0x2ffec474      0x1ac ./../build/opteemin-sdcard-stm32mp135f-dk/bl2/xlat_tables_core.o
 .text.mmap_add_region_ctx
                0x2ffec620       0xf0 ./../build/opteemin-sdcard-stm32mp135f-dk/bl2/xlat_tables_core.o
                0x2ffec620                mmap_add_region_ctx
 .text.mmap_add_dynamic_region_ctx
                0x2ffec710      0x154 ./../build/opteemin-sdcard-stm32mp135f-dk/bl2/xlat_tables_core.o
                0x2ffec710                mmap_add_dynamic_region_ctx
 .text.mmap_remove_dynamic_region_ctx
                0x2ffec864      0x108 ./../build/opteemin-sdcard-stm32mp135f-dk/bl2/xlat_tables_core.o
                0x2ffec864                mmap_remove_dynamic_region_ctx
 .text.init_xlat_tables_ctx
                0x2ffec96c      0x140 ./../build/opteemin-sdcard-stm32mp135f-dk/bl2/xlat_tables_core.o
                0x2ffec96c                init_xlat_tables_ctx
 .text.crc32_z  0x2ffecaac       0xc8 ./../build/opteemin-sdcard-stm32mp135f-dk/bl2/crc32.o
                0x2ffecaac                crc32_z
 .text.plat_log_get_prefix
                0x2ffecb74       0x24 ./../build/opteemin-sdcard-stm32mp135f-dk/bl2/plat_log_common.o
                0x2ffecb74                plat_log_get_prefix
 .text.open_fip
                0x2ffecb98       0x10 ./../build/opteemin-sdcard-stm32mp135f-dk/bl2/bl2_io_storage.o
                0x2ffecb98                open_fip
 .text.open_storage
                0x2ffecba8       0x10 ./../build/opteemin-sdcard-stm32mp135f-dk/bl2/bl2_io_storage.o
                0x2ffecba8                open_storage
 .text.stm32mp_io_setup
                0x2ffecbb8      0x180 ./../build/opteemin-sdcard-stm32mp135f-dk/bl2/bl2_io_storage.o
                0x2ffecbb8                stm32mp_io_setup
 .text.bl2_plat_handle_pre_image_load
                0x2ffecd38       0x60 ./../build/opteemin-sdcard-stm32mp135f-dk/bl2/bl2_io_storage.o
                0x2ffecd38                bl2_plat_handle_pre_image_load
 .text.plat_get_image_source
                0x2ffecd98       0x44 ./../build/opteemin-sdcard-stm32mp135f-dk/bl2/bl2_io_storage.o
                0x2ffecd98                plat_get_image_source
 .text.plat_fwu_get_boot_idx
                0x2ffecddc       0xac ./../build/opteemin-sdcard-stm32mp135f-dk/bl2/bl2_io_storage.o
                0x2ffecddc                plat_fwu_get_boot_idx
 .text.plat_fwu_set_images_source
                0x2ffece88       0x98 ./../build/opteemin-sdcard-stm32mp135f-dk/bl2/bl2_io_storage.o
                0x2ffece88                plat_fwu_set_images_source
 .text.plat_fwu_set_metadata_image_source
                0x2ffecf20       0xb4 ./../build/opteemin-sdcard-stm32mp135f-dk/bl2/bl2_io_storage.o
                0x2ffecf20                plat_fwu_set_metadata_image_source
 .text.stm32_get_bootinfo_cell
                0x2ffecfd4       0x3c ./../build/opteemin-sdcard-stm32mp135f-dk/bl2/stm32mp_common.o
 .text.stm32mp_save_boot_ctx_address
                0x2ffed010       0x40 ./../build/opteemin-sdcard-stm32mp135f-dk/bl2/stm32mp_common.o
                0x2ffed010                stm32mp_save_boot_ctx_address
 .text.stm32mp_get_boot_ctx_address
                0x2ffed050        0xc ./../build/opteemin-sdcard-stm32mp135f-dk/bl2/stm32mp_common.o
                0x2ffed050                stm32mp_get_boot_ctx_address
 .text.stm32mp_get_boot_itf_selected
                0x2ffed05c        0xc ./../build/opteemin-sdcard-stm32mp135f-dk/bl2/stm32mp_common.o
                0x2ffed05c                stm32mp_get_boot_itf_selected
 .text.stm32mp_get_boot_action
                0x2ffed068        0xc ./../build/opteemin-sdcard-stm32mp135f-dk/bl2/stm32mp_common.o
                0x2ffed068                stm32mp_get_boot_action
 .text.stm32mp_ddrctrl_base
                0x2ffed074        0x8 ./../build/opteemin-sdcard-stm32mp135f-dk/bl2/stm32mp_common.o
                0x2ffed074                stm32mp_ddrctrl_base
 .text.stm32mp_ddrphyc_base
                0x2ffed07c        0x8 ./../build/opteemin-sdcard-stm32mp135f-dk/bl2/stm32mp_common.o
                0x2ffed07c                stm32mp_ddrphyc_base
 .text.stm32mp_pwr_base
                0x2ffed084        0x8 ./../build/opteemin-sdcard-stm32mp135f-dk/bl2/stm32mp_common.o
                0x2ffed084                stm32mp_pwr_base
 .text.stm32mp_pwr_regs_lock
                0x2ffed08c       0x18 ./../build/opteemin-sdcard-stm32mp135f-dk/bl2/stm32mp_common.o
                0x2ffed08c                stm32mp_pwr_regs_lock
 .text.stm32mp_pwr_regs_unlock
                0x2ffed0a4       0x18 ./../build/opteemin-sdcard-stm32mp135f-dk/bl2/stm32mp_common.o
                0x2ffed0a4                stm32mp_pwr_regs_unlock
 .text.stm32_get_otp_index
                0x2ffed0bc       0x20 ./../build/opteemin-sdcard-stm32mp135f-dk/bl2/stm32mp_common.o
                0x2ffed0bc                stm32_get_otp_index
 .text.stm32_get_otp_value_from_idx
                0x2ffed0dc       0x30 ./../build/opteemin-sdcard-stm32mp135f-dk/bl2/stm32mp_common.o
                0x2ffed0dc                stm32_get_otp_value_from_idx
 .text.stm32_get_otp_value
                0x2ffed10c       0x44 ./../build/opteemin-sdcard-stm32mp135f-dk/bl2/stm32mp_common.o
                0x2ffed10c                stm32_get_otp_value
 .text.stm32mp_uart_console_setup
                0x2ffed150       0x94 ./../build/opteemin-sdcard-stm32mp135f-dk/bl2/stm32mp_common.o
                0x2ffed150                stm32mp_uart_console_setup
 .text.stm32_display_board_info
                0x2ffed1e4       0x2c ./../build/opteemin-sdcard-stm32mp135f-dk/bl2/stm32mp_common.o
                0x2ffed1e4                stm32_display_board_info
 .text.stm32_get_fwu_info_cell
                0x2ffed210       0x34 ./../build/opteemin-sdcard-stm32mp135f-dk/bl2/stm32mp_common.o
                0x2ffed210                stm32_get_fwu_info_cell
 .text.stm32_get_boot_mode_cell
                0x2ffed244       0x34 ./../build/opteemin-sdcard-stm32mp135f-dk/bl2/stm32mp_common.o
                0x2ffed244                stm32_get_boot_mode_cell
 .text.stm32_save_boot_info
                0x2ffed278       0xdc ./../build/opteemin-sdcard-stm32mp135f-dk/bl2/stm32mp_common.o
                0x2ffed278                stm32_save_boot_info
 .text.stm32_get_and_dec_fwu_trial_boot_cnt
                0x2ffed354       0x60 ./../build/opteemin-sdcard-stm32mp135f-dk/bl2/stm32mp_common.o
                0x2ffed354                stm32_get_and_dec_fwu_trial_boot_cnt
 .text.fdt_get_node_parent_address_cells
                0x2ffed3b4       0x24 ./../build/opteemin-sdcard-stm32mp135f-dk/bl2/stm32mp_dt.o
 .text.dt_open_and_check
                0x2ffed3d8       0x14 ./../build/opteemin-sdcard-stm32mp135f-dk/bl2/stm32mp_dt.o
                0x2ffed3d8                dt_open_and_check
 .text.fdt_get_address
                0x2ffed3ec       0x14 ./../build/opteemin-sdcard-stm32mp135f-dk/bl2/stm32mp_dt.o
                0x2ffed3ec                fdt_get_address
 .text.fdt_check_node
                0x2ffed400       0x20 ./../build/opteemin-sdcard-stm32mp135f-dk/bl2/stm32mp_dt.o
                0x2ffed400                fdt_check_node
 .text.fdt_get_status
                0x2ffed420       0x74 ./../build/opteemin-sdcard-stm32mp135f-dk/bl2/stm32mp_dt.o
                0x2ffed420                fdt_get_status
 .text.dt_set_stdout_pinctrl
                0x2ffed494       0x20 ./../build/opteemin-sdcard-stm32mp135f-dk/bl2/stm32mp_dt.o
                0x2ffed494                dt_set_stdout_pinctrl
 .text.dt_fill_device_info
                0x2ffed4b4       0x88 ./../build/opteemin-sdcard-stm32mp135f-dk/bl2/stm32mp_dt.o
                0x2ffed4b4                dt_fill_device_info
 .text.dt_get_node
                0x2ffed53c       0x28 ./../build/opteemin-sdcard-stm32mp135f-dk/bl2/stm32mp_dt.o
                0x2ffed53c                dt_get_node
 .text.dt_get_stdout_uart_info
                0x2ffed564       0x28 ./../build/opteemin-sdcard-stm32mp135f-dk/bl2/stm32mp_dt.o
                0x2ffed564                dt_get_stdout_uart_info
 .text.dt_match_instance_by_compatible
                0x2ffed58c       0x70 ./../build/opteemin-sdcard-stm32mp135f-dk/bl2/stm32mp_dt.o
                0x2ffed58c                dt_match_instance_by_compatible
 .text.dt_get_ddr_size
                0x2ffed5fc       0x58 ./../build/opteemin-sdcard-stm32mp135f-dk/bl2/stm32mp_dt.o
                0x2ffed5fc                dt_get_ddr_size
 .text.dt_get_vdd_regulator
                0x2ffed654       0x30 ./../build/opteemin-sdcard-stm32mp135f-dk/bl2/stm32mp_dt.o
                0x2ffed654                dt_get_vdd_regulator
 .text.dt_get_board_model
                0x2ffed684       0x30 ./../build/opteemin-sdcard-stm32mp135f-dk/bl2/stm32mp_dt.o
                0x2ffed684                dt_get_board_model
 .text.dt_find_otp_name
                0x2ffed6b4       0xa8 ./../build/opteemin-sdcard-stm32mp135f-dk/bl2/stm32mp_dt.o
                0x2ffed6b4                dt_find_otp_name
 .text.dt_get_otp_by_phandle
                0x2ffed75c       0x88 ./../build/opteemin-sdcard-stm32mp135f-dk/bl2/stm32mp_dt.o
                0x2ffed75c                dt_get_otp_by_phandle
 .text.fconf_populate_stm32mp_fuse_provisioning
                0x2ffed7e4      0x128 ./../build/opteemin-sdcard-stm32mp135f-dk/bl2/stm32mp_fconf_fuse.o
 .text.fconf_populate_stm32mp_io_policies
                0x2ffed90c       0xd8 ./../build/opteemin-sdcard-stm32mp135f-dk/bl2/stm32mp_fconf_io.o
                0x2ffed90c                fconf_populate_stm32mp_io_policies
 .text.bl2_platform_setup
                0x2ffed9e4       0x50 ./../build/opteemin-sdcard-stm32mp135f-dk/bl2/bl2_plat_setup.o
                0x2ffed9e4                bl2_platform_setup
 .text.bl2_el3_plat_arch_setup
                0x2ffeda34      0x3bc ./../build/opteemin-sdcard-stm32mp135f-dk/bl2/bl2_plat_setup.o
                0x2ffeda34                bl2_el3_plat_arch_setup
 .text.bl2_plat_handle_post_image_load
                0x2ffeddf0      0x27c ./../build/opteemin-sdcard-stm32mp135f-dk/bl2/bl2_plat_setup.o
                0x2ffeddf0                bl2_plat_handle_post_image_load
 .text.bl2_el3_plat_prepare_exit
                0x2ffee06c       0x34 ./../build/opteemin-sdcard-stm32mp135f-dk/bl2/bl2_plat_setup.o
                0x2ffee06c                bl2_el3_plat_prepare_exit
 .text.stm32mp_board_ddr_power_init
                0x2ffee0a0      0x124 ./../build/opteemin-sdcard-stm32mp135f-dk/bl2/plat_ddr.o
                0x2ffee0a0                stm32mp_board_ddr_power_init
 .text.stm32_pm_get_optee_ep
                0x2ffee1c4       0x48 ./../build/opteemin-sdcard-stm32mp135f-dk/bl2/stm32mp1_context.o
                0x2ffee1c4                stm32_pm_get_optee_ep
 .text.stm32_context_save_bl2_param
                0x2ffee20c       0x54 ./../build/opteemin-sdcard-stm32mp135f-dk/bl2/stm32mp1_context.o
                0x2ffee20c                stm32_context_save_bl2_param
 .text.stm32_pm_context_is_valid
                0x2ffee260       0x88 ./../build/opteemin-sdcard-stm32mp135f-dk/bl2/stm32mp1_context.o
                0x2ffee260                stm32_pm_context_is_valid
 .text.stm32_restore_ddr_training_area
                0x2ffee2e8       0x3c ./../build/opteemin-sdcard-stm32mp135f-dk/bl2/stm32mp1_context.o
                0x2ffee2e8                stm32_restore_ddr_training_area
 .text.stm32mp1_pm_save_mce_mkey_in_context
                0x2ffee324       0x2c ./../build/opteemin-sdcard-stm32mp135f-dk/bl2/stm32mp1_context.o
                0x2ffee324                stm32mp1_pm_save_mce_mkey_in_context
 .text.stm32mp1_pm_get_mce_mkey_from_context
                0x2ffee350       0x3c ./../build/opteemin-sdcard-stm32mp135f-dk/bl2/stm32mp1_context.o
                0x2ffee350                stm32mp1_pm_get_mce_mkey_from_context
 .text.stm32mp1_pm_save_mce_region
                0x2ffee38c       0x34 ./../build/opteemin-sdcard-stm32mp135f-dk/bl2/stm32mp1_context.o
                0x2ffee38c                stm32mp1_pm_save_mce_region
 .text.stm32mp1_pm_get_mce_region
                0x2ffee3c0       0x40 ./../build/opteemin-sdcard-stm32mp135f-dk/bl2/stm32mp1_context.o
                0x2ffee3c0                stm32mp1_pm_get_mce_region
 .text.stm32_pwr_down_wfi_load
                0x2ffee400       0x7c ./../build/opteemin-sdcard-stm32mp135f-dk/bl2/stm32mp1_critic_power.o
                0x2ffee400                stm32_pwr_down_wfi_load
 .text.fconf_populate_stm32mp1_firewall
                0x2ffee47c       0xcc ./../build/opteemin-sdcard-stm32mp135f-dk/bl2/stm32mp1_fconf_firewall.o
 .text.stm32mp1_arch_security_setup
                0x2ffee548       0x2c ./../build/opteemin-sdcard-stm32mp135f-dk/bl2/stm32mp1_fconf_firewall.o
                0x2ffee548                stm32mp1_arch_security_setup
 .text.stm32mp1_security_setup
                0x2ffee574       0x5c ./../build/opteemin-sdcard-stm32mp135f-dk/bl2/stm32mp1_fconf_firewall.o
                0x2ffee574                stm32mp1_security_setup
 .text.configure_mmu
                0x2ffee5d0       0x1c ./../build/opteemin-sdcard-stm32mp135f-dk/bl2/stm32mp1_private.o
                0x2ffee5d0                configure_mmu
 .text.stm32_get_gpio_bank_base
                0x2ffee5ec       0x1c ./../build/opteemin-sdcard-stm32mp135f-dk/bl2/stm32mp1_private.o
                0x2ffee5ec                stm32_get_gpio_bank_base
 .text.stm32_get_gpio_bank_offset
                0x2ffee608       0x18 ./../build/opteemin-sdcard-stm32mp135f-dk/bl2/stm32mp1_private.o
                0x2ffee608                stm32_get_gpio_bank_offset
 .text.stm32_get_gpio_bank_clock
                0x2ffee620       0x18 ./../build/opteemin-sdcard-stm32mp135f-dk/bl2/stm32mp1_private.o
                0x2ffee620                stm32_get_gpio_bank_clock
 .text.stm32mp_get_part_number
                0x2ffee638       0x38 ./../build/opteemin-sdcard-stm32mp135f-dk/bl2/stm32mp1_private.o
                0x2ffee638                stm32mp_get_part_number
 .text.stm32mp_get_soc_name
                0x2ffee670      0x130 ./../build/opteemin-sdcard-stm32mp135f-dk/bl2/stm32mp1_private.o
                0x2ffee670                stm32mp_get_soc_name
 .text.stm32mp_print_cpuinfo
                0x2ffee7a0       0x1c ./../build/opteemin-sdcard-stm32mp135f-dk/bl2/stm32mp1_private.o
                0x2ffee7a0                stm32mp_print_cpuinfo
 .text.stm32mp_print_boardinfo
                0x2ffee7bc       0x24 ./../build/opteemin-sdcard-stm32mp135f-dk/bl2/stm32mp1_private.o
                0x2ffee7bc                stm32mp_print_boardinfo
 .text.stm32mp_check_closed_device
                0x2ffee7e0       0x54 ./../build/opteemin-sdcard-stm32mp135f-dk/bl2/stm32mp1_private.o
                0x2ffee7e0                stm32mp_check_closed_device
 .text.stm32mp_is_auth_supported
                0x2ffee834       0x44 ./../build/opteemin-sdcard-stm32mp135f-dk/bl2/stm32mp1_private.o
                0x2ffee834                stm32mp_is_auth_supported
 .text.stm32_iwdg_get_instance
                0x2ffee878       0x28 ./../build/opteemin-sdcard-stm32mp135f-dk/bl2/stm32mp1_private.o
                0x2ffee878                stm32_iwdg_get_instance
 .text.stm32_iwdg_get_otp_config
                0x2ffee8a0       0x30 ./../build/opteemin-sdcard-stm32mp135f-dk/bl2/stm32mp1_private.o
                0x2ffee8a0                stm32_iwdg_get_otp_config
 .text.stm32mp_is_wakeup_from_standby
                0x2ffee8d0       0x28 ./../build/opteemin-sdcard-stm32mp135f-dk/bl2/stm32mp1_private.o
                0x2ffee8d0                stm32mp_is_wakeup_from_standby
 .text.stm32mp_skip_boot_device_after_standby
                0x2ffee8f8       0x28 ./../build/opteemin-sdcard-stm32mp135f-dk/bl2/stm32mp1_private.o
                0x2ffee8f8                stm32mp_skip_boot_device_after_standby
 .text.stm32mp_bkpram_get_access
                0x2ffee920       0x48 ./../build/opteemin-sdcard-stm32mp135f-dk/bl2/stm32mp1_private.o
                0x2ffee920                stm32mp_bkpram_get_access
 .text.enable_io_comp_cell_finish
                0x2ffee968       0x54 ./../build/opteemin-sdcard-stm32mp135f-dk/bl2/stm32mp1_syscfg.o
 .text.sdmmc_is_low_voltage
                0x2ffee9bc       0x78 ./../build/opteemin-sdcard-stm32mp135f-dk/bl2/stm32mp1_syscfg.o
 .text.stm32mp_syscfg_enable_io_compensation_start
                0x2ffeea34       0x28 ./../build/opteemin-sdcard-stm32mp135f-dk/bl2/stm32mp1_syscfg.o
                0x2ffeea34                stm32mp_syscfg_enable_io_compensation_start
 .text.stm32mp_syscfg_init
                0x2ffeea5c       0xb8 ./../build/opteemin-sdcard-stm32mp135f-dk/bl2/stm32mp1_syscfg.o
                0x2ffeea5c                stm32mp_syscfg_init
 .text.stm32mp_syscfg_get_chip_version
                0x2ffeeb14       0x10 ./../build/opteemin-sdcard-stm32mp135f-dk/bl2/stm32mp1_syscfg.o
                0x2ffeeb14                stm32mp_syscfg_get_chip_version
 .text.stm32mp_syscfg_get_chip_dev_id
                0x2ffeeb24       0x10 ./../build/opteemin-sdcard-stm32mp135f-dk/bl2/stm32mp1_syscfg.o
                0x2ffeeb24                stm32mp_syscfg_get_chip_dev_id
 .text.stm32mp_syscfg_boot_mode_enable
                0x2ffeeb34       0x10 ./../build/opteemin-sdcard-stm32mp135f-dk/bl2/stm32mp1_syscfg.o
                0x2ffeeb34                stm32mp_syscfg_boot_mode_enable
 .text.stm32mp_syscfg_boot_mode_disable
                0x2ffeeb44       0x10 ./../build/opteemin-sdcard-stm32mp135f-dk/bl2/stm32mp1_syscfg.o
                0x2ffeeb44                stm32mp_syscfg_boot_mode_disable
 .text          0x2ffeeb54       0x24 ./../build/opteemin-sdcard-stm32mp135f-dk/bl2/aeabi_uldivmod.o
                0x2ffeeb54                __aeabi_uldivmod
 .text.fdt_ro_probe_
                0x2ffeeb78       0x74 ./../build/opteemin-sdcard-stm32mp135f-dk/lib/libfdt.a(fdt.o)
                0x2ffeeb78                fdt_ro_probe_
 .text.fdt_check_header
                0x2ffeebec       0xd0 ./../build/opteemin-sdcard-stm32mp135f-dk/lib/libfdt.a(fdt.o)
                0x2ffeebec                fdt_check_header
 .text.fdt_address_cells
                0x2ffeecbc       0x1c ./../build/opteemin-sdcard-stm32mp135f-dk/lib/libfdt.a(fdt_addresses.o)
                0x2ffeecbc                fdt_address_cells
 .text.fdt_get_string
                0x2ffeecd8       0xb0 ./../build/opteemin-sdcard-stm32mp135f-dk/lib/libfdt.a(fdt_ro.o)
                0x2ffeecd8                fdt_get_string
 .text.fdt_get_phandle
                0x2ffeed88       0x44 ./../build/opteemin-sdcard-stm32mp135f-dk/lib/libfdt.a(fdt_ro.o)
                0x2ffeed88                fdt_get_phandle
 .text.fdt_get_alias_namelen
                0x2ffeedcc       0x2c ./../build/opteemin-sdcard-stm32mp135f-dk/lib/libfdt.a(fdt_ro.o)
                0x2ffeedcc                fdt_get_alias_namelen
 .text.fdt_node_check_compatible
                0x2ffeedf8       0x28 ./../build/opteemin-sdcard-stm32mp135f-dk/lib/libfdt.a(fdt_ro.o)
                0x2ffeedf8                fdt_node_check_compatible
 .text.__assert
                0x2ffeee20       0x18 ./../build/opteemin-sdcard-stm32mp135f-dk/lib/libc.a(assert.o)
                0x2ffeee20                __assert
 .text.vprintf  0x2ffeee38      0x1c4 ./../build/opteemin-sdcard-stm32mp135f-dk/lib/libc.a(printf.o)
                0x2ffeee38                vprintf
 .text.vsnprintf
                0x2ffeeffc      0x2d0 ./../build/opteemin-sdcard-stm32mp135f-dk/lib/libc.a(snprintf.o)
                0x2ffeeffc                vsnprintf
 .text.bl2_arch_setup
                0x2ffef2cc        0x2 ./../build/opteemin-sdcard-stm32mp135f-dk/bl2/bl2_arch_setup.o
                0x2ffef2cc                bl2_arch_setup
 .text.bl2_el3_setup
                0x2ffef2ce        0xe ./../build/opteemin-sdcard-stm32mp135f-dk/bl2/bl2_main.o
                0x2ffef2ce                bl2_el3_setup
 .text.fdt32_to_cpu
                0x2ffef2dc        0x4 ./../build/opteemin-sdcard-stm32mp135f-dk/bl2/fdt_wrappers.o
 .text.fdt_read_uint32
                0x2ffef2e0       0x10 ./../build/opteemin-sdcard-stm32mp135f-dk/bl2/fdt_wrappers.o
                0x2ffef2e0                fdt_read_uint32
 .text.fdt_read_uint32_default
                0x2ffef2f0       0x18 ./../build/opteemin-sdcard-stm32mp135f-dk/bl2/fdt_wrappers.o
                0x2ffef2f0                fdt_read_uint32_default
 .text.fdt_read_uint64
                0x2ffef308       0x28 ./../build/opteemin-sdcard-stm32mp135f-dk/bl2/fdt_wrappers.o
                0x2ffef308                fdt_read_uint64
 .text.hex_val  0x2ffef330       0x2e ./../build/opteemin-sdcard-stm32mp135f-dk/bl2/uuid.o
 .text.read_hex.part.0
                0x2ffef35e       0x3a ./../build/opteemin-sdcard-stm32mp135f-dk/bl2/uuid.o
 .text.putchar  0x2ffef398       0x14 ./../build/opteemin-sdcard-stm32mp135f-dk/bl2/multi_console.o
                0x2ffef398                putchar
 .text.mdelay   0x2ffef3ac        0xa ./../build/opteemin-sdcard-stm32mp135f-dk/bl2/delay_timer.o
                0x2ffef3ac                mdelay
 .text.get_timer_value
                0x2ffef3b6        0x8 ./../build/opteemin-sdcard-stm32mp135f-dk/bl2/generic_delay_timer.o
 .text.device_type_block
                0x2ffef3be        0x4 ./../build/opteemin-sdcard-stm32mp135f-dk/bl2/io_block.o
                0x2ffef3be                device_type_block
 .text.block_close
                0x2ffef3c2        0x8 ./../build/opteemin-sdcard-stm32mp135f-dk/bl2/io_block.o
 .text.device_type_fip
                0x2ffef3ca        0x4 ./../build/opteemin-sdcard-stm32mp135f-dk/bl2/io_fip.o
 .text.is_valid_dev
                0x2ffef3ce       0x18 ./../build/opteemin-sdcard-stm32mp135f-dk/bl2/io_storage.o
 .text.is_valid_entity
                0x2ffef3e6       0x10 ./../build/opteemin-sdcard-stm32mp135f-dk/bl2/io_storage.o
 .text.bsec_read_otp
                0x2ffef3f6       0x2c ./../build/opteemin-sdcard-stm32mp135f-dk/bl2/bsec2.o
                0x2ffef3f6                bsec_read_otp
 .text._clk_lock
                0x2ffef422       0x16 ./../build/opteemin-sdcard-stm32mp135f-dk/bl2/clk-stm32-core.o
 .text._clk_unlock
                0x2ffef438       0x16 ./../build/opteemin-sdcard-stm32mp135f-dk/bl2/clk-stm32-core.o
 .text._clk_stm32_gate_disable
                0x2ffef44e       0x28 ./../build/opteemin-sdcard-stm32mp135f-dk/bl2/clk-stm32-core.o
                0x2ffef44e                _clk_stm32_gate_disable
 .text._clk_stm32_gate_enable
                0x2ffef476       0x24 ./../build/opteemin-sdcard-stm32mp135f-dk/bl2/clk-stm32-core.o
                0x2ffef476                _clk_stm32_gate_enable
 .text._clk_get
                0x2ffef49a       0x12 ./../build/opteemin-sdcard-stm32mp135f-dk/bl2/clk-stm32-core.o
                0x2ffef49a                _clk_get
 .text.clk_oscillator_get_data
                0x2ffef4ac       0x18 ./../build/opteemin-sdcard-stm32mp135f-dk/bl2/clk-stm32-core.o
                0x2ffef4ac                clk_oscillator_get_data
 .text.clk_gate_is_enabled
                0x2ffef4c4       0x20 ./../build/opteemin-sdcard-stm32mp135f-dk/bl2/clk-stm32-core.o
 .text.clk_gate_disable
                0x2ffef4e4       0x26 ./../build/opteemin-sdcard-stm32mp135f-dk/bl2/clk-stm32-core.o
 .text.clk_gate_enable
                0x2ffef50a       0x22 ./../build/opteemin-sdcard-stm32mp135f-dk/bl2/clk-stm32-core.o
 .text.clk_stm32_gate_enable
                0x2ffef52c       0x2e ./../build/opteemin-sdcard-stm32mp135f-dk/bl2/clk-stm32-core.o
                0x2ffef52c                clk_stm32_gate_enable
 .text.clk_stm32_gate_disable
                0x2ffef55a       0x32 ./../build/opteemin-sdcard-stm32mp135f-dk/bl2/clk-stm32-core.o
                0x2ffef55a                clk_stm32_gate_disable
 .text.timer_recalc_rate
                0x2ffef58c       0x26 ./../build/opteemin-sdcard-stm32mp135f-dk/bl2/clk-stm32-core.o
 .text.clk_fixed_rate_recalc
                0x2ffef5b2        0xc ./../build/opteemin-sdcard-stm32mp135f-dk/bl2/clk-stm32-core.o
 .text.clk_mux_get_parent
                0x2ffef5be       0x3e ./../build/opteemin-sdcard-stm32mp135f-dk/bl2/clk-stm32-core.o
                0x2ffef5be                clk_mux_get_parent
 .text._clk_stm32_set_parent_by_index
                0x2ffef5fc       0x28 ./../build/opteemin-sdcard-stm32mp135f-dk/bl2/clk-stm32-core.o
                0x2ffef5fc                _clk_stm32_set_parent_by_index
 .text._clk_stm32_get_parent
                0x2ffef624       0x5a ./../build/opteemin-sdcard-stm32mp135f-dk/bl2/clk-stm32-core.o
                0x2ffef624                _clk_stm32_get_parent
 .text.clk_get_index
                0x2ffef67e       0x26 ./../build/opteemin-sdcard-stm32mp135f-dk/bl2/clk-stm32-core.o
                0x2ffef67e                clk_get_index
 .text._clk_stm32_get_rate
                0x2ffef6a4       0x5e ./../build/opteemin-sdcard-stm32mp135f-dk/bl2/clk-stm32-core.o
                0x2ffef6a4                _clk_stm32_get_rate
 .text._clk_stm32_get_parent_rate
                0x2ffef702       0x1a ./../build/opteemin-sdcard-stm32mp135f-dk/bl2/clk-stm32-core.o
                0x2ffef702                _clk_stm32_get_parent_rate
 .text._stm32_clk_is_flags
                0x2ffef71c       0x14 ./../build/opteemin-sdcard-stm32mp135f-dk/bl2/clk-stm32-core.o
                0x2ffef71c                _stm32_clk_is_flags
 .text.clk_stm32_disable_call_ops
                0x2ffef730       0x1a ./../build/opteemin-sdcard-stm32mp135f-dk/bl2/clk-stm32-core.o
                0x2ffef730                clk_stm32_disable_call_ops
 .text._clk_stm32_is_enabled
                0x2ffef74a       0x24 ./../build/opteemin-sdcard-stm32mp135f-dk/bl2/clk-stm32-core.o
                0x2ffef74a                _clk_stm32_is_enabled
 .text._clk_stm32_set_parent
                0x2ffef76e       0xa8 ./../build/opteemin-sdcard-stm32mp135f-dk/bl2/clk-stm32-core.o
                0x2ffef76e                _clk_stm32_set_parent
 .text.clk_stm32_div_get_value
                0x2ffef816       0x22 ./../build/opteemin-sdcard-stm32mp135f-dk/bl2/clk-stm32-core.o
                0x2ffef816                clk_stm32_div_get_value
 .text._clk_stm32_divider_recalc
                0x2ffef838       0x74 ./../build/opteemin-sdcard-stm32mp135f-dk/bl2/clk-stm32-core.o
                0x2ffef838                _clk_stm32_divider_recalc
 .text.clk_stm32_divider_recalc
                0x2ffef8ac       0x16 ./../build/opteemin-sdcard-stm32mp135f-dk/bl2/clk-stm32-core.o
                0x2ffef8ac                clk_stm32_divider_recalc
 .text._clk_stm32_gate_wait_ready
                0x2ffef8c2       0x58 ./../build/opteemin-sdcard-stm32mp135f-dk/bl2/clk-stm32-core.o
                0x2ffef8c2                _clk_stm32_gate_wait_ready
 .text._clk_stm32_gate_is_enabled
                0x2ffef91a       0x20 ./../build/opteemin-sdcard-stm32mp135f-dk/bl2/clk-stm32-core.o
                0x2ffef91a                _clk_stm32_gate_is_enabled
 .text.clk_stm32_gate_is_enabled
                0x2ffef93a       0x16 ./../build/opteemin-sdcard-stm32mp135f-dk/bl2/clk-stm32-core.o
                0x2ffef93a                clk_stm32_gate_is_enabled
 .text.stm32_clk_parse_fdt_by_name
                0x2ffef950       0x36 ./../build/opteemin-sdcard-stm32mp135f-dk/bl2/clk-stm32-core.o
                0x2ffef950                stm32_clk_parse_fdt_by_name
 .text.fdt32_to_cpu
                0x2ffef986        0x4 ./../build/opteemin-sdcard-stm32mp135f-dk/bl2/clk-stm32mp13.o
 .text.clk_oscillator_set_bypass
                0x2ffef98a       0x3c ./../build/opteemin-sdcard-stm32mp135f-dk/bl2/clk-stm32mp13.o
 .text.clk_oscillator_set_css
                0x2ffef9c6       0x22 ./../build/opteemin-sdcard-stm32mp135f-dk/bl2/clk-stm32mp13.o
 .text.clk_stm32_osc_recalc_rate
                0x2ffef9e8        0xa ./../build/opteemin-sdcard-stm32mp135f-dk/bl2/clk-stm32mp13.o
 .text.clk_stm32_osc_gate_is_enabled
                0x2ffef9f2       0x14 ./../build/opteemin-sdcard-stm32mp135f-dk/bl2/clk-stm32mp13.o
 .text.clk_stm32_composite_gate_is_enabled
                0x2ffefa06       0x16 ./../build/opteemin-sdcard-stm32mp135f-dk/bl2/clk-stm32mp13.o
 .text.clk_stm32_composite_gate_disable
                0x2ffefa1c       0x16 ./../build/opteemin-sdcard-stm32mp135f-dk/bl2/clk-stm32mp13.o
 .text.clk_stm32_composite_gate_enable
                0x2ffefa32       0x16 ./../build/opteemin-sdcard-stm32mp135f-dk/bl2/clk-stm32mp13.o
 .text.clk_stm32_composite_recalc_rate
                0x2ffefa48       0x1a ./../build/opteemin-sdcard-stm32mp135f-dk/bl2/clk-stm32mp13.o
 .text.stm32mp1_clk_rcc_regs_lock
                0x2ffefa62        0x4 ./../build/opteemin-sdcard-stm32mp135f-dk/bl2/clk-stm32mp13.o
                0x2ffefa62                stm32mp1_clk_rcc_regs_lock
 .text.stm32mp1_clk_rcc_regs_unlock
                0x2ffefa66        0x4 ./../build/opteemin-sdcard-stm32mp135f-dk/bl2/clk-stm32mp13.o
                0x2ffefa66                stm32mp1_clk_rcc_regs_unlock
 .text.stm32mp1_mode_register_write.isra.0
                0x2ffefa6a       0x22 ./../build/opteemin-sdcard-stm32mp135f-dk/bl2/stm32mp1_ddr.o
 .text.stm32mp1_ddrphy_idone_wait
                0x2ffefa8c       0x4a ./../build/opteemin-sdcard-stm32mp135f-dk/bl2/stm32mp1_ddr.o
 .text.stm32mp1_wait_operating_mode
                0x2ffefad6       0x4e ./../build/opteemin-sdcard-stm32mp135f-dk/bl2/stm32mp1_ddr.o
 .text.ddr_enable_clock
                0x2ffefb24       0x2a ./../build/opteemin-sdcard-stm32mp135f-dk/bl2/stm32mp1_ddr_helpers.o
                0x2ffefb24                ddr_enable_clock
 .text.ddr_get_io_calibration_val
                0x2ffefb4e       0x10 ./../build/opteemin-sdcard-stm32mp135f-dk/bl2/stm32mp1_ddr_helpers.o
                0x2ffefb4e                ddr_get_io_calibration_val
 .text.ddr_standby_sr_entry
                0x2ffefb5e      0x166 ./../build/opteemin-sdcard-stm32mp135f-dk/bl2/stm32mp1_ddr_helpers.o
                0x2ffefb5e                ddr_standby_sr_entry
 .text.stm32mp_ddr_start_sw_done
                0x2ffefcc4        0xe ./../build/opteemin-sdcard-stm32mp135f-dk/bl2/stm32mp_ddr.o
                0x2ffefcc4                stm32mp_ddr_start_sw_done
 .text.stm32mp_ddr_wait_sw_done_ack
                0x2ffefcd2       0x3a ./../build/opteemin-sdcard-stm32mp135f-dk/bl2/stm32mp_ddr.o
                0x2ffefcd2                stm32mp_ddr_wait_sw_done_ack
 .text.stm32mp_ddr_enable_axi_port
                0x2ffefd0c        0xe ./../build/opteemin-sdcard-stm32mp135f-dk/bl2/stm32mp_ddr.o
                0x2ffefd0c                stm32mp_ddr_enable_axi_port
 .text.stm32mp_ddr_disable_axi_port
                0x2ffefd1a       0x3a ./../build/opteemin-sdcard-stm32mp135f-dk/bl2/stm32mp_ddr.o
                0x2ffefd1a                stm32mp_ddr_disable_axi_port
 .text.stm32mp_ddr_enable_host_interface
                0x2ffefd54        0xe ./../build/opteemin-sdcard-stm32mp135f-dk/bl2/stm32mp_ddr.o
                0x2ffefd54                stm32mp_ddr_enable_host_interface
 .text.stm32mp_ddr_disable_host_interface
                0x2ffefd62       0x4a ./../build/opteemin-sdcard-stm32mp135f-dk/bl2/stm32mp_ddr.o
                0x2ffefd62                stm32mp_ddr_disable_host_interface
 .text.stm32mp_ddr_sw_selfref_exit
                0x2ffefdac        0xa ./../build/opteemin-sdcard-stm32mp135f-dk/bl2/stm32mp_ddr.o
                0x2ffefdac                stm32mp_ddr_sw_selfref_exit
 .text.stm32mp_ddr_wait_refresh_update_done_ack
                0x2ffefdb6       0x4c ./../build/opteemin-sdcard-stm32mp135f-dk/bl2/stm32mp_ddr.o
                0x2ffefdb6                stm32mp_ddr_wait_refresh_update_done_ack
 .text.stm32mp_ddr_test_rw_access
                0x2ffefe02       0x1a ./../build/opteemin-sdcard-stm32mp135f-dk/bl2/stm32mp_ddr_test.o
                0x2ffefe02                stm32mp_ddr_test_rw_access
 .text.stm32mp_ddr_test_data_bus
                0x2ffefe1c       0x1e ./../build/opteemin-sdcard-stm32mp135f-dk/bl2/stm32mp_ddr_test.o
                0x2ffefe1c                stm32mp_ddr_test_data_bus
 .text.stm32mp_ddr_test_addr_bus
                0x2ffefe3a       0x86 ./../build/opteemin-sdcard-stm32mp135f-dk/bl2/stm32mp_ddr_test.o
                0x2ffefe3a                stm32mp_ddr_test_addr_bus
 .text.stm32mp_ddr_check_size
                0x2ffefec0       0x2e ./../build/opteemin-sdcard-stm32mp135f-dk/bl2/stm32mp_ddr_test.o
                0x2ffefec0                stm32mp_ddr_check_size
 .text.fdt32_to_cpu
                0x2ffefeee        0x4 ./../build/opteemin-sdcard-stm32mp135f-dk/bl2/stm32_gpio.o
 .text.i2c_wait_flag
                0x2ffefef2       0x44 ./../build/opteemin-sdcard-stm32mp135f-dk/bl2/stm32_i2c.o
 .text.i2c_ack_failed
                0x2ffeff36       0x8c ./../build/opteemin-sdcard-stm32mp135f-dk/bl2/stm32_i2c.o
 .text.i2c_wait_txis
                0x2ffeffc2       0x42 ./../build/opteemin-sdcard-stm32mp135f-dk/bl2/stm32_i2c.o
 .text.i2c_wait_stop
                0x2fff0004       0x42 ./../build/opteemin-sdcard-stm32mp135f-dk/bl2/stm32_i2c.o
 .text.stm32_i2c_mem_write
                0x2fff0046       0x1c ./../build/opteemin-sdcard-stm32mp135f-dk/bl2/stm32_i2c.o
                0x2fff0046                stm32_i2c_mem_write
 .text.stm32_i2c_mem_read
                0x2fff0062       0x12 ./../build/opteemin-sdcard-stm32mp135f-dk/bl2/stm32_i2c.o
                0x2fff0062                stm32_i2c_mem_read
 .text.stm32_mce_reload_configuration
                0x2fff0074       0x2e ./../build/opteemin-sdcard-stm32mp135f-dk/bl2/stm32_mce.o
                0x2fff0074                stm32_mce_reload_configuration
 .text.stm32_sdmmc2_write
                0x2fff00a2        0x4 ./../build/opteemin-sdcard-stm32mp135f-dk/bl2/stm32_sdmmc2.o
 .text.stm32_sdmmc2_stop_transfer
                0x2fff00a6       0x20 ./../build/opteemin-sdcard-stm32mp135f-dk/bl2/stm32_sdmmc2.o
 .text.plat_sdmmc2_use_dma
                0x2fff00c6        0x4 ./../build/opteemin-sdcard-stm32mp135f-dk/bl2/stm32_sdmmc2.o
                0x2fff00c6                plat_sdmmc2_use_dma
 .text.nvmem_cell_read
                0x2fff00ca       0x18 ./../build/opteemin-sdcard-stm32mp135f-dk/bl2/nvmem.o
                0x2fff00ca                nvmem_cell_read
 .text.nvmem_cell_write
                0x2fff00e2       0x10 ./../build/opteemin-sdcard-stm32mp135f-dk/bl2/nvmem.o
                0x2fff00e2                nvmem_cell_write
 .text.fdt32_to_cpu
                0x2fff00f2        0x4 ./../build/opteemin-sdcard-stm32mp135f-dk/bl2/stm32mp_tamp_nvram_core.o
 .text.stm32_tamp_nvram_reg_get_zone
                0x2fff00f6       0x2a ./../build/opteemin-sdcard-stm32mp135f-dk/bl2/stm32mp_tamp_nvram_core.o
                0x2fff00f6                stm32_tamp_nvram_reg_get_zone
 .text.stm32_tamp_nvram_reg_field_read
                0x2fff0120       0x30 ./../build/opteemin-sdcard-stm32mp135f-dk/bl2/stm32mp_tamp_nvram_core.o
                0x2fff0120                stm32_tamp_nvram_reg_field_read
 .text.pmic_set_flag
                0x2fff0150       0x44 ./../build/opteemin-sdcard-stm32mp135f-dk/bl2/stm32mp_pmic.o
 .text.pmic_list_voltages
                0x2fff0194        0x6 ./../build/opteemin-sdcard-stm32mp135f-dk/bl2/stm32mp_pmic.o
 .text.pmic_get_voltage
                0x2fff019a        0x6 ./../build/opteemin-sdcard-stm32mp135f-dk/bl2/stm32mp_pmic.o
 .text.pmic_set_voltage
                0x2fff01a0        0x6 ./../build/opteemin-sdcard-stm32mp135f-dk/bl2/stm32mp_pmic.o
 .text.pmic_get_state
                0x2fff01a6        0xa ./../build/opteemin-sdcard-stm32mp135f-dk/bl2/stm32mp_pmic.o
 .text.pmic_set_state
                0x2fff01b0        0xc ./../build/opteemin-sdcard-stm32mp135f-dk/bl2/stm32mp_pmic.o
 .text.pmic_switch_off
                0x2fff01bc       0x16 ./../build/opteemin-sdcard-stm32mp135f-dk/bl2/stm32mp_pmic.o
                0x2fff01bc                pmic_switch_off
 .text.stpmic1_is_regulator_enabled
                0x2fff01d2       0x2e ./../build/opteemin-sdcard-stm32mp135f-dk/bl2/stpmic1.o
                0x2fff01d2                stpmic1_is_regulator_enabled
 .text.stpmic1_register_update
                0x2fff0200       0x2e ./../build/opteemin-sdcard-stm32mp135f-dk/bl2/stpmic1.o
                0x2fff0200                stpmic1_register_update
 .text.stpmic1_powerctrl_on
                0x2fff022e        0xa ./../build/opteemin-sdcard-stm32mp135f-dk/bl2/stpmic1.o
                0x2fff022e                stpmic1_powerctrl_on
 .text.stpmic1_switch_off
                0x2fff0238        0xa ./../build/opteemin-sdcard-stm32mp135f-dk/bl2/stpmic1.o
                0x2fff0238                stpmic1_switch_off
 .text.stpmic1_regulator_enable
                0x2fff0242       0x14 ./../build/opteemin-sdcard-stm32mp135f-dk/bl2/stpmic1.o
                0x2fff0242                stpmic1_regulator_enable
 .text.stpmic1_regulator_disable
                0x2fff0256       0x14 ./../build/opteemin-sdcard-stm32mp135f-dk/bl2/stpmic1.o
                0x2fff0256                stpmic1_regulator_disable
 .text.stpmic1_regulator_pull_down_set
                0x2fff026a       0x24 ./../build/opteemin-sdcard-stm32mp135f-dk/bl2/stpmic1.o
                0x2fff026a                stpmic1_regulator_pull_down_set
 .text.stpmic1_regulator_mask_reset_set
                0x2fff028e       0x24 ./../build/opteemin-sdcard-stm32mp135f-dk/bl2/stpmic1.o
                0x2fff028e                stpmic1_regulator_mask_reset_set
 .text.stpmic1_regulator_icc_set
                0x2fff02b2       0x24 ./../build/opteemin-sdcard-stm32mp135f-dk/bl2/stpmic1.o
                0x2fff02b2                stpmic1_regulator_icc_set
 .text.stpmic1_get_version
                0x2fff02d6       0x1e ./../build/opteemin-sdcard-stm32mp135f-dk/bl2/stpmic1.o
                0x2fff02d6                stpmic1_get_version
 .text.fdt32_to_cpu
                0x2fff02f4        0x4 ./../build/opteemin-sdcard-stm32mp135f-dk/bl2/regulator_core.o
 .text.unlock_driver.isra.0
                0x2fff02f8        0xa ./../build/opteemin-sdcard-stm32mp135f-dk/bl2/regulator_core.o
 .text.lock_driver.isra.0
                0x2fff0302        0xa ./../build/opteemin-sdcard-stm32mp135f-dk/bl2/regulator_core.o
 .text.regulator_set_min_voltage
                0x2fff030c        0x6 ./../build/opteemin-sdcard-stm32mp135f-dk/bl2/regulator_core.o
                0x2fff030c                regulator_set_min_voltage
 .text.fixed_set_state
                0x2fff0312        0x4 ./../build/opteemin-sdcard-stm32mp135f-dk/bl2/regulator_fixed.o
 .text.fixed_get_state
                0x2fff0316        0x4 ./../build/opteemin-sdcard-stm32mp135f-dk/bl2/regulator_fixed.o
 .text.stm32mp_system_reset
                0x2fff031a       0x14 ./../build/opteemin-sdcard-stm32mp135f-dk/bl2/stm32mp1_reset.o
                0x2fff031a                stm32mp_system_reset
 .text.__ctzdi2
                0x2fff032e       0x22 ./../build/opteemin-sdcard-stm32mp135f-dk/bl2/ctzdi2.o
                0x2fff032e                __ctzdi2
 .text.__udivmoddi4
                0x2fff0350      0x180 ./../build/opteemin-sdcard-stm32mp135f-dk/bl2/udivmoddi4.o
                0x2fff0350                __udivmoddi4
 .text.xlat_arch_get_pas
                0x2fff04d0       0x10 ./../build/opteemin-sdcard-stm32mp135f-dk/bl2/xlat_tables_arch.o
                0x2fff04d0                xlat_arch_get_pas
 .text.xlat_arch_get_max_supported_pa
                0x2fff04e0        0x8 ./../build/opteemin-sdcard-stm32mp135f-dk/bl2/xlat_tables_arch.o
                0x2fff04e0                xlat_arch_get_max_supported_pa
 .text.xlat_get_min_virt_addr_space_size
                0x2fff04e8        0x6 ./../build/opteemin-sdcard-stm32mp135f-dk/bl2/xlat_tables_arch.o
                0x2fff04e8                xlat_get_min_virt_addr_space_size
 .text.is_dcache_enabled
                0x2fff04ee       0x1c ./../build/opteemin-sdcard-stm32mp135f-dk/bl2/xlat_tables_arch.o
                0x2fff04ee                is_dcache_enabled
 .text.xlat_arch_tlbi_va_sync
                0x2fff050a       0x10 ./../build/opteemin-sdcard-stm32mp135f-dk/bl2/xlat_tables_arch.o
                0x2fff050a                xlat_arch_tlbi_va_sync
 .text.mmap_add_region_check
                0x2fff051a      0x12e ./../build/opteemin-sdcard-stm32mp135f-dk/bl2/xlat_tables_core.o
 .text.xlat_clean_dcache_range
                0x2fff0648       0x1a ./../build/opteemin-sdcard-stm32mp135f-dk/bl2/xlat_tables_core.o
 .text.mmap_add_ctx
                0x2fff0662       0x18 ./../build/opteemin-sdcard-stm32mp135f-dk/bl2/xlat_tables_core.o
                0x2fff0662                mmap_add_ctx
 .text.xlat_mmap_print
                0x2fff067a        0x2 ./../build/opteemin-sdcard-stm32mp135f-dk/bl2/xlat_tables_utils.o
                0x2fff067a                xlat_mmap_print
 .text.xlat_tables_print
                0x2fff067c        0x2 ./../build/opteemin-sdcard-stm32mp135f-dk/bl2/xlat_tables_utils.o
                0x2fff067c                xlat_tables_print
 .text.crc32    0x2fff067e        0x4 ./../build/opteemin-sdcard-stm32mp135f-dk/bl2/crc32.o
                0x2fff067e                crc32
 .text.tf_crc32
                0x2fff0682        0x4 ./../build/opteemin-sdcard-stm32mp135f-dk/bl2/tf_gunzip.o
                0x2fff0682                tf_crc32
 .text.plat_error_handler
                0x2fff0686        0x4 ./../build/opteemin-sdcard-stm32mp135f-dk/bl2/plat_bl_common.o
                0x2fff0686                plat_error_handler
 .text.bl2_plat_preload_setup
                0x2fff068a        0x2 ./../build/opteemin-sdcard-stm32mp135f-dk/bl2/plat_bl_common.o
                0x2fff068a                bl2_plat_preload_setup
 .text.plat_try_backup_partitions
                0x2fff068c        0x4 ./../build/opteemin-sdcard-stm32mp135f-dk/bl2/bl2_io_storage.o
                0x2fff068c                plat_try_backup_partitions
 .text.plat_fwu_is_enabled
                0x2fff0690        0xe ./../build/opteemin-sdcard-stm32mp135f-dk/bl2/bl2_io_storage.o
                0x2fff0690                plat_fwu_is_enabled
 .text.plat_flush_next_bl_params
                0x2fff069e        0x4 ./../build/opteemin-sdcard-stm32mp135f-dk/bl2/plat_image_load.o
                0x2fff069e                plat_flush_next_bl_params
 .text.plat_get_bl_image_load_info
                0x2fff06a2        0x4 ./../build/opteemin-sdcard-stm32mp135f-dk/bl2/plat_image_load.o
                0x2fff06a2                plat_get_bl_image_load_info
 .text.plat_get_next_bl_params
                0x2fff06a6       0x10 ./../build/opteemin-sdcard-stm32mp135f-dk/bl2/plat_image_load.o
                0x2fff06a6                plat_get_next_bl_params
 .text.stm32_nvmem_cell_clrset
                0x2fff06b6       0x32 ./../build/opteemin-sdcard-stm32mp135f-dk/bl2/stm32mp_common.o
 .text.plat_get_syscnt_freq2
                0x2fff06e8        0x6 ./../build/opteemin-sdcard-stm32mp135f-dk/bl2/stm32mp_common.o
                0x2fff06e8                plat_get_syscnt_freq2
 .text.stm32mp_rcc_base
                0x2fff06ee        0x6 ./../build/opteemin-sdcard-stm32mp135f-dk/bl2/stm32mp_common.o
                0x2fff06ee                stm32mp_rcc_base
 .text.stm32mp_lock_available
                0x2fff06f4       0x10 ./../build/opteemin-sdcard-stm32mp135f-dk/bl2/stm32mp_common.o
                0x2fff06f4                stm32mp_lock_available
 .text.stm32mp_map_ddr_non_cacheable
                0x2fff0704       0x1e ./../build/opteemin-sdcard-stm32mp135f-dk/bl2/stm32mp_common.o
                0x2fff0704                stm32mp_map_ddr_non_cacheable
 .text.stm32mp_unmap_ddr
                0x2fff0722        0xc ./../build/opteemin-sdcard-stm32mp135f-dk/bl2/stm32mp_common.o
                0x2fff0722                stm32mp_unmap_ddr
 .text.stm32_fwu_set_boot_idx
                0x2fff072e       0x28 ./../build/opteemin-sdcard-stm32mp135f-dk/bl2/stm32mp_common.o
                0x2fff072e                stm32_fwu_set_boot_idx
 .text.stm32_set_max_fwu_trial_boot_cnt
                0x2fff0756       0x22 ./../build/opteemin-sdcard-stm32mp135f-dk/bl2/stm32mp_common.o
                0x2fff0756                stm32_set_max_fwu_trial_boot_cnt
 .text.stm32_clear_fwu_trial_boot_cnt
                0x2fff0778       0x22 ./../build/opteemin-sdcard-stm32mp135f-dk/bl2/stm32mp_common.o
                0x2fff0778                stm32_clear_fwu_trial_boot_cnt
 .text.fdt32_to_cpu
                0x2fff079a        0x4 ./../build/opteemin-sdcard-stm32mp135f-dk/bl2/stm32mp_dt.o
 .text.dt_get_pwr_vdd_voltage
                0x2fff079e       0x22 ./../build/opteemin-sdcard-stm32mp135f-dk/bl2/stm32mp_dt.o
                0x2fff079e                dt_get_pwr_vdd_voltage
 .text.bl2_el3_early_platform_setup
                0x2fff07c0        0x4 ./../build/opteemin-sdcard-stm32mp135f-dk/bl2/bl2_plat_setup.o
                0x2fff07c0                bl2_el3_early_platform_setup
 .text.stm32_clean_context
                0x2fff07c4       0x24 ./../build/opteemin-sdcard-stm32mp135f-dk/bl2/stm32mp1_context.o
                0x2fff07c4                stm32_clean_context
 .text.stm32_get_zdata_from_context
                0x2fff07e8       0x1c ./../build/opteemin-sdcard-stm32mp135f-dk/bl2/stm32mp1_context.o
                0x2fff07e8                stm32_get_zdata_from_context
 .text.stm32_pwr_cstop_critic_exit
                0x2fff0804       0x20 ./../build/opteemin-sdcard-stm32mp135f-dk/bl2/stm32mp1_critic_power.o
                0x2fff0804                stm32_pwr_cstop_critic_exit
 .text.stm32_pwr_call_optee_ep
                0x2fff0824       0x10 ./../build/opteemin-sdcard-stm32mp135f-dk/bl2/stm32mp1_critic_power.o
                0x2fff0824                stm32_pwr_call_optee_ep
 .text.fdt32_to_cpu
                0x2fff0834        0x4 ./../build/opteemin-sdcard-stm32mp135f-dk/bl2/stm32mp1_fconf_firewall.o
 .text.stm32mp1_addr_inside_backupsram
                0x2fff0838       0x10 ./../build/opteemin-sdcard-stm32mp135f-dk/bl2/stm32mp1_private.o
                0x2fff0838                stm32mp1_addr_inside_backupsram
 .text.stm32mp_syscfg_enable_io_compensation_finish
                0x2fff0848       0x18 ./../build/opteemin-sdcard-stm32mp135f-dk/bl2/stm32mp1_syscfg.o
                0x2fff0848                stm32mp_syscfg_enable_io_compensation_finish
 .text.fdt32_ld
                0x2fff0860       0x18 ./../build/opteemin-sdcard-stm32mp135f-dk/lib/libfdt.a(fdt.o)
 .text.fdt_header_size_
                0x2fff0878       0x1a ./../build/opteemin-sdcard-stm32mp135f-dk/lib/libfdt.a(fdt.o)
                0x2fff0878                fdt_header_size_
 .text.fdt_header_size
                0x2fff0892       0x10 ./../build/opteemin-sdcard-stm32mp135f-dk/lib/libfdt.a(fdt.o)
                0x2fff0892                fdt_header_size
 .text.fdt_offset_ptr
                0x2fff08a2       0x54 ./../build/opteemin-sdcard-stm32mp135f-dk/lib/libfdt.a(fdt.o)
                0x2fff08a2                fdt_offset_ptr
 .text.fdt_next_tag
                0x2fff08f6       0xbc ./../build/opteemin-sdcard-stm32mp135f-dk/lib/libfdt.a(fdt.o)
                0x2fff08f6                fdt_next_tag
 .text.fdt_check_node_offset_
                0x2fff09b2       0x24 ./../build/opteemin-sdcard-stm32mp135f-dk/lib/libfdt.a(fdt.o)
                0x2fff09b2                fdt_check_node_offset_
 .text.fdt_check_prop_offset_
                0x2fff09d6       0x24 ./../build/opteemin-sdcard-stm32mp135f-dk/lib/libfdt.a(fdt.o)
                0x2fff09d6                fdt_check_prop_offset_
 .text.fdt_next_node
                0x2fff09fa       0x6e ./../build/opteemin-sdcard-stm32mp135f-dk/lib/libfdt.a(fdt.o)
                0x2fff09fa                fdt_next_node
 .text.fdt_first_subnode
                0x2fff0a68       0x26 ./../build/opteemin-sdcard-stm32mp135f-dk/lib/libfdt.a(fdt.o)
                0x2fff0a68                fdt_first_subnode
 .text.fdt_next_subnode
                0x2fff0a8e       0x2a ./../build/opteemin-sdcard-stm32mp135f-dk/lib/libfdt.a(fdt.o)
                0x2fff0a8e                fdt_next_subnode
 .text.fdt_cells
                0x2fff0ab8       0x2a ./../build/opteemin-sdcard-stm32mp135f-dk/lib/libfdt.a(fdt_addresses.o)
 .text.fdt32_ld
                0x2fff0ae2       0x18 ./../build/opteemin-sdcard-stm32mp135f-dk/lib/libfdt.a(fdt_ro.o)
 .text.nextprop_
                0x2fff0afa       0x32 ./../build/opteemin-sdcard-stm32mp135f-dk/lib/libfdt.a(fdt_ro.o)
 .text.fdt32_ld_.isra.0
                0x2fff0b2c        0x4 ./../build/opteemin-sdcard-stm32mp135f-dk/lib/libfdt.a(fdt_ro.o)
 .text.fdt_get_property_by_offset_
                0x2fff0b30       0x34 ./../build/opteemin-sdcard-stm32mp135f-dk/lib/libfdt.a(fdt_ro.o)
 .text.fdt_get_name
                0x2fff0b64       0x62 ./../build/opteemin-sdcard-stm32mp135f-dk/lib/libfdt.a(fdt_ro.o)
                0x2fff0b64                fdt_get_name
 .text.fdt_subnode_offset_namelen
                0x2fff0bc6       0x7a ./../build/opteemin-sdcard-stm32mp135f-dk/lib/libfdt.a(fdt_ro.o)
                0x2fff0bc6                fdt_subnode_offset_namelen
 .text.fdt_subnode_offset
                0x2fff0c40       0x1e ./../build/opteemin-sdcard-stm32mp135f-dk/lib/libfdt.a(fdt_ro.o)
                0x2fff0c40                fdt_subnode_offset
 .text.fdt_first_property_offset
                0x2fff0c5e       0x18 ./../build/opteemin-sdcard-stm32mp135f-dk/lib/libfdt.a(fdt_ro.o)
                0x2fff0c5e                fdt_first_property_offset
 .text.fdt_next_property_offset
                0x2fff0c76       0x18 ./../build/opteemin-sdcard-stm32mp135f-dk/lib/libfdt.a(fdt_ro.o)
                0x2fff0c76                fdt_next_property_offset
 .text.fdt_get_property_namelen_
                0x2fff0c8e       0x7c ./../build/opteemin-sdcard-stm32mp135f-dk/lib/libfdt.a(fdt_ro.o)
 .text.fdt_getprop_namelen
                0x2fff0d0a       0x40 ./../build/opteemin-sdcard-stm32mp135f-dk/lib/libfdt.a(fdt_ro.o)
                0x2fff0d0a                fdt_getprop_namelen
 .text.fdt_getprop
                0x2fff0d4a       0x22 ./../build/opteemin-sdcard-stm32mp135f-dk/lib/libfdt.a(fdt_ro.o)
                0x2fff0d4a                fdt_getprop
 .text.fdt_path_offset_namelen
                0x2fff0d6c       0x94 ./../build/opteemin-sdcard-stm32mp135f-dk/lib/libfdt.a(fdt_ro.o)
                0x2fff0d6c                fdt_path_offset_namelen
 .text.fdt_path_offset
                0x2fff0e00       0x1a ./../build/opteemin-sdcard-stm32mp135f-dk/lib/libfdt.a(fdt_ro.o)
                0x2fff0e00                fdt_path_offset
 .text.fdt_supernode_atdepth_offset
                0x2fff0e1a       0x6c ./../build/opteemin-sdcard-stm32mp135f-dk/lib/libfdt.a(fdt_ro.o)
                0x2fff0e1a                fdt_supernode_atdepth_offset
 .text.fdt_node_depth
                0x2fff0e86       0x20 ./../build/opteemin-sdcard-stm32mp135f-dk/lib/libfdt.a(fdt_ro.o)
                0x2fff0e86                fdt_node_depth
 .text.fdt_parent_offset
                0x2fff0ea6       0x20 ./../build/opteemin-sdcard-stm32mp135f-dk/lib/libfdt.a(fdt_ro.o)
                0x2fff0ea6                fdt_parent_offset
 .text.fdt_node_offset_by_phandle
                0x2fff0ec6       0x42 ./../build/opteemin-sdcard-stm32mp135f-dk/lib/libfdt.a(fdt_ro.o)
                0x2fff0ec6                fdt_node_offset_by_phandle
 .text.fdt_stringlist_contains
                0x2fff0f08       0x46 ./../build/opteemin-sdcard-stm32mp135f-dk/lib/libfdt.a(fdt_ro.o)
                0x2fff0f08                fdt_stringlist_contains
 .text.fdt_stringlist_search
                0x2fff0f4e       0x66 ./../build/opteemin-sdcard-stm32mp135f-dk/lib/libfdt.a(fdt_ro.o)
                0x2fff0f4e                fdt_stringlist_search
 .text.fdt_node_offset_by_compatible
                0x2fff0fb4       0x36 ./../build/opteemin-sdcard-stm32mp135f-dk/lib/libfdt.a(fdt_ro.o)
                0x2fff0fb4                fdt_node_offset_by_compatible
 .text.memchr   0x2fff0fea       0x1c ./../build/opteemin-sdcard-stm32mp135f-dk/lib/libc.a(memchr.o)
                0x2fff0fea                memchr
 .text.memcmp   0x2fff1006       0x1c ./../build/opteemin-sdcard-stm32mp135f-dk/lib/libc.a(memcmp.o)
                0x2fff1006                memcmp
 .text.memcpy   0x2fff1022       0x16 ./../build/opteemin-sdcard-stm32mp135f-dk/lib/libc.a(memcpy.o)
                0x2fff1022                memcpy
 .text.memmove  0x2fff1038       0x2c ./../build/opteemin-sdcard-stm32mp135f-dk/lib/libc.a(memmove.o)
                0x2fff1038                memmove
 .text.memset   0x2fff1064       0x42 ./../build/opteemin-sdcard-stm32mp135f-dk/lib/libc.a(memset.o)
                0x2fff1064                memset
 .text.unsigned_num_print.part.0
                0x2fff10a6       0x92 ./../build/opteemin-sdcard-stm32mp135f-dk/lib/libc.a(printf.o)
 .text.printf   0x2fff1138       0x1a ./../build/opteemin-sdcard-stm32mp135f-dk/lib/libc.a(printf.o)
                0x2fff1138                printf
 .text.unsigned_num_print
                0x2fff1152       0xca ./../build/opteemin-sdcard-stm32mp135f-dk/lib/libc.a(snprintf.o)
 .text.snprintf
                0x2fff121c       0x1a ./../build/opteemin-sdcard-stm32mp135f-dk/lib/libc.a(snprintf.o)
                0x2fff121c                snprintf
 .text.strchr   0x2fff1236       0x16 ./../build/opteemin-sdcard-stm32mp135f-dk/lib/libc.a(strchr.o)
                0x2fff1236                strchr
 .text.strcmp   0x2fff124c       0x18 ./../build/opteemin-sdcard-stm32mp135f-dk/lib/libc.a(strcmp.o)
                0x2fff124c                strcmp
 .text.strlcpy  0x2fff1264       0x28 ./../build/opteemin-sdcard-stm32mp135f-dk/lib/libc.a(strlcpy.o)
                0x2fff1264                strlcpy
 .text.strlen   0x2fff128c       0x10 ./../build/opteemin-sdcard-stm32mp135f-dk/lib/libc.a(strlen.o)
                0x2fff128c                strlen
 .text.strncmp  0x2fff129c       0x28 ./../build/opteemin-sdcard-stm32mp135f-dk/lib/libc.a(strncmp.o)
                0x2fff129c                strncmp
 .text.strnlen  0x2fff12c4       0x14 ./../build/opteemin-sdcard-stm32mp135f-dk/lib/libc.a(strnlen.o)
                0x2fff12c4                strnlen
 .text.strrchr  0x2fff12d8       0x1a ./../build/opteemin-sdcard-stm32mp135f-dk/lib/libc.a(strrchr.o)
                0x2fff12d8                strrchr
 *(SORT_BY_ALIGNMENT(.rodata*))
 *fill*         0x2fff12f2        0x6 
 .rodata.stm32mp1_mmap
                0x2fff12f8       0x60 ./../build/opteemin-sdcard-stm32mp135f-dk/bl2/stm32mp1_private.o
 .rodata.block_dev_funcs
                0x2fff1358       0x24 ./../build/opteemin-sdcard-stm32mp135f-dk/bl2/io_block.o
 .rodata.block_dev_connector
                0x2fff137c        0x4 ./../build/opteemin-sdcard-stm32mp135f-dk/bl2/io_block.o
 .rodata.fip_dev_funcs
                0x2fff1380       0x24 ./../build/opteemin-sdcard-stm32mp135f-dk/bl2/io_fip.o
 .rodata.fip_dev_connector
                0x2fff13a4        0x4 ./../build/opteemin-sdcard-stm32mp135f-dk/bl2/io_fip.o
 .rodata.clk_stm32_fixed_rate_ops
                0x2fff13a8       0x1c ./../build/opteemin-sdcard-stm32mp135f-dk/bl2/clk-stm32-core.o
                0x2fff13a8                clk_stm32_fixed_rate_ops
 .rodata.clk_timer_ops
                0x2fff13c4       0x1c ./../build/opteemin-sdcard-stm32mp135f-dk/bl2/clk-stm32-core.o
                0x2fff13c4                clk_timer_ops
 .rodata.clk_fixed_factor_ops
                0x2fff13e0       0x1c ./../build/opteemin-sdcard-stm32mp135f-dk/bl2/clk-stm32-core.o
                0x2fff13e0                clk_fixed_factor_ops
 .rodata.clk_stm32_gate_ops
                0x2fff13fc       0x1c ./../build/opteemin-sdcard-stm32mp135f-dk/bl2/clk-stm32-core.o
                0x2fff13fc                clk_stm32_gate_ops
 .rodata.clk_stm32_divider_ops
                0x2fff1418       0x1c ./../build/opteemin-sdcard-stm32mp135f-dk/bl2/clk-stm32-core.o
                0x2fff1418                clk_stm32_divider_ops
 .rodata.stm32mp_clk_ops
                0x2fff1434       0x14 ./../build/opteemin-sdcard-stm32mp135f-dk/bl2/clk-stm32-core.o
 .rodata.clk_gate_ops
                0x2fff1448       0x1c ./../build/opteemin-sdcard-stm32mp135f-dk/bl2/clk-stm32-core.o
                0x2fff1448                clk_gate_ops
 .rodata.clk_mux_ops
                0x2fff1464       0x1c ./../build/opteemin-sdcard-stm32mp135f-dk/bl2/clk-stm32-core.o
                0x2fff1464                clk_mux_ops
 .rodata.stm32mp13_clk
                0x2fff1480      0x48c ./../build/opteemin-sdcard-stm32mp135f-dk/bl2/clk-stm32mp13.o
 .rodata.clk_stm32_composite_ops
                0x2fff190c       0x1c ./../build/opteemin-sdcard-stm32mp135f-dk/bl2/clk-stm32mp13.o
 .rodata.clk_stm32_pll_ops
                0x2fff1928       0x1c ./../build/opteemin-sdcard-stm32mp135f-dk/bl2/clk-stm32mp13.o
 .rodata.stm32_mp13_clk_pll
                0x2fff1944       0x20 ./../build/opteemin-sdcard-stm32mp135f-dk/bl2/clk-stm32mp13.o
 .rodata.dividers_mp13
                0x2fff1964      0x138 ./../build/opteemin-sdcard-stm32mp135f-dk/bl2/clk-stm32mp13.o
 .rodata.parent_mp13
                0x2fff1a9c      0x228 ./../build/opteemin-sdcard-stm32mp135f-dk/bl2/clk-stm32mp13.o
 .rodata        0x2fff1cc4        0xc ./../build/opteemin-sdcard-stm32mp135f-dk/bl2/stm32_rng.o
 .rodata.ddr_registers
                0x2fff1cd0       0x60 ./../build/opteemin-sdcard-stm32mp135f-dk/bl2/stm32mp1_ddr.o
 .rodata        0x2fff1d30       0x48 ./../build/opteemin-sdcard-stm32mp135f-dk/bl2/stm32mp1_ram.o
 .rodata.i2c_specs
                0x2fff1d78       0x60 ./../build/opteemin-sdcard-stm32mp135f-dk/bl2/stm32_i2c.o
 .rodata.stm32_sdmmc2_ops
                0x2fff1dd8       0x18 ./../build/opteemin-sdcard-stm32mp135f-dk/bl2/stm32_sdmmc2.o
 .rodata.stm32_tamp_nvram_nvmem_ops
                0x2fff1df0        0x8 ./../build/opteemin-sdcard-stm32mp135f-dk/bl2/stm32mp_tamp_nvram_core.o
 .rodata.stm32mp1_tamp_nvram
                0x2fff1df8        0x8 ./../build/opteemin-sdcard-stm32mp135f-dk/bl2/stm32mp_tamp_nvram_mp1.o
 .rodata.mp1_zone_cfg_fields
                0x2fff1e00       0x18 ./../build/opteemin-sdcard-stm32mp135f-dk/bl2/stm32mp_tamp_nvram_mp1.o
 .rodata.pmic_regs
                0x2fff1e18      0x118 ./../build/opteemin-sdcard-stm32mp135f-dk/bl2/stm32mp_pmic.o
 .rodata.pmic_ops
                0x2fff1f30       0x20 ./../build/opteemin-sdcard-stm32mp135f-dk/bl2/stm32mp_pmic.o
 .rodata.regulators_table
                0x2fff1f50      0x118 ./../build/opteemin-sdcard-stm32mp135f-dk/bl2/stpmic1.o
 .rodata.crc_table
                0x2fff2068      0x400 ./../build/opteemin-sdcard-stm32mp135f-dk/bl2/crc32.o
 .rodata.plat_prefix_str
                0x2fff2468       0x14 ./../build/opteemin-sdcard-stm32mp135f-dk/bl2/plat_log_common.o
 .rodata        0x2fff247c       0x10 ./../build/opteemin-sdcard-stm32mp135f-dk/bl2/bl2_io_storage.o
 .rodata.load_info
                0x2fff248c       0x38 ./../build/opteemin-sdcard-stm32mp135f-dk/bl2/stm32mp_fconf_io.o
 .rodata        0x2fff24c4       0x10 ./../build/opteemin-sdcard-stm32mp135f-dk/bl2/bl2_plat_setup.o
 .rodata.apb_div_table
                0x2fff24d4       0x24 ./../build/opteemin-sdcard-stm32mp135f-dk/bl2/clk-stm32mp13.o
 .rodata.mlahb_div_table
                0x2fff24f8       0x44 ./../build/opteemin-sdcard-stm32mp135f-dk/bl2/clk-stm32mp13.o
 .rodata.axi_div_table
                0x2fff253c       0x24 ./../build/opteemin-sdcard-stm32mp135f-dk/bl2/clk-stm32mp13.o
 .rodata.gates_mp13
                0x2fff2560      0x238 ./../build/opteemin-sdcard-stm32mp135f-dk/bl2/clk-stm32mp13.o
 .rodata.SAES_src
                0x2fff2798        0x8 ./../build/opteemin-sdcard-stm32mp135f-dk/bl2/clk-stm32mp13.o
 .rodata.DCMIPP_src
                0x2fff27a0        0x8 ./../build/opteemin-sdcard-stm32mp135f-dk/bl2/clk-stm32mp13.o
 .rodata.STGEN_src
                0x2fff27a8        0x4 ./../build/opteemin-sdcard-stm32mp135f-dk/bl2/clk-stm32mp13.o
 .rodata.RNG1_src
                0x2fff27ac        0x8 ./../build/opteemin-sdcard-stm32mp135f-dk/bl2/clk-stm32mp13.o
 .rodata.FMC_src
                0x2fff27b4        0x8 ./../build/opteemin-sdcard-stm32mp135f-dk/bl2/clk-stm32mp13.o
 .rodata.QSPI_src
                0x2fff27bc        0x8 ./../build/opteemin-sdcard-stm32mp135f-dk/bl2/clk-stm32mp13.o
 .rodata.USBO_src
                0x2fff27c4        0x4 ./../build/opteemin-sdcard-stm32mp135f-dk/bl2/clk-stm32mp13.o
 .rodata.USBPHY_src
                0x2fff27c8        0x6 ./../build/opteemin-sdcard-stm32mp135f-dk/bl2/clk-stm32mp13.o
 .rodata.ETH2_src
                0x2fff27ce        0x4 ./../build/opteemin-sdcard-stm32mp135f-dk/bl2/clk-stm32mp13.o
 .rodata.ETH1_src
                0x2fff27d2        0x4 ./../build/opteemin-sdcard-stm32mp135f-dk/bl2/clk-stm32mp13.o
 .rodata.SDMMC2_src
                0x2fff27d6        0x8 ./../build/opteemin-sdcard-stm32mp135f-dk/bl2/clk-stm32mp13.o
 .rodata.SDMMC1_src
                0x2fff27de        0x8 ./../build/opteemin-sdcard-stm32mp135f-dk/bl2/clk-stm32mp13.o
 .rodata.ADC2_src
                0x2fff27e6        0x6 ./../build/opteemin-sdcard-stm32mp135f-dk/bl2/clk-stm32mp13.o
 .rodata.ADC1_src
                0x2fff27ec        0x6 ./../build/opteemin-sdcard-stm32mp135f-dk/bl2/clk-stm32mp13.o
 .rodata.SPDIF_src
                0x2fff27f2        0x6 ./../build/opteemin-sdcard-stm32mp135f-dk/bl2/clk-stm32mp13.o
 .rodata.FDCAN_src
                0x2fff27f8        0x8 ./../build/opteemin-sdcard-stm32mp135f-dk/bl2/clk-stm32mp13.o
 .rodata.SAI2_src
                0x2fff2800        0xc ./../build/opteemin-sdcard-stm32mp135f-dk/bl2/clk-stm32mp13.o
 .rodata.SAI1_src
                0x2fff280c        0xa ./../build/opteemin-sdcard-stm32mp135f-dk/bl2/clk-stm32mp13.o
 .rodata.LPTIM45_src
                0x2fff2816        0xc ./../build/opteemin-sdcard-stm32mp135f-dk/bl2/clk-stm32mp13.o
 .rodata.LPTIM3_src
                0x2fff2822        0xa ./../build/opteemin-sdcard-stm32mp135f-dk/bl2/clk-stm32mp13.o
 .rodata.LPTIM2_src
                0x2fff282c        0xa ./../build/opteemin-sdcard-stm32mp135f-dk/bl2/clk-stm32mp13.o
 .rodata.LPTIM1_src
                0x2fff2836        0xc ./../build/opteemin-sdcard-stm32mp135f-dk/bl2/clk-stm32mp13.o
 .rodata.UART78_src
                0x2fff2842        0xa ./../build/opteemin-sdcard-stm32mp135f-dk/bl2/clk-stm32mp13.o
 .rodata.UART6_src
                0x2fff284c        0xa ./../build/opteemin-sdcard-stm32mp135f-dk/bl2/clk-stm32mp13.o
 .rodata.UART4_src
                0x2fff2856        0xa ./../build/opteemin-sdcard-stm32mp135f-dk/bl2/clk-stm32mp13.o
 .rodata.UART35_src
                0x2fff2860        0xa ./../build/opteemin-sdcard-stm32mp135f-dk/bl2/clk-stm32mp13.o
 .rodata.UART2_src
                0x2fff286a        0xc ./../build/opteemin-sdcard-stm32mp135f-dk/bl2/clk-stm32mp13.o
 .rodata.UART1_src
                0x2fff2876        0xc ./../build/opteemin-sdcard-stm32mp135f-dk/bl2/clk-stm32mp13.o
 .rodata.SPI5_src
                0x2fff2882        0xa ./../build/opteemin-sdcard-stm32mp135f-dk/bl2/clk-stm32mp13.o
 .rodata.SPI4_src
                0x2fff288c        0xc ./../build/opteemin-sdcard-stm32mp135f-dk/bl2/clk-stm32mp13.o
 .rodata.SPI23_src
                0x2fff2898        0xa ./../build/opteemin-sdcard-stm32mp135f-dk/bl2/clk-stm32mp13.o
 .rodata.SPI1_src
                0x2fff28a2        0xa ./../build/opteemin-sdcard-stm32mp135f-dk/bl2/clk-stm32mp13.o
 .rodata.I2C5_src
                0x2fff28ac        0x8 ./../build/opteemin-sdcard-stm32mp135f-dk/bl2/clk-stm32mp13.o
 .rodata.I2C4_src
                0x2fff28b4        0x8 ./../build/opteemin-sdcard-stm32mp135f-dk/bl2/clk-stm32mp13.o
 .rodata.I2C3_src
                0x2fff28bc        0x8 ./../build/opteemin-sdcard-stm32mp135f-dk/bl2/clk-stm32mp13.o
 .rodata.I2C12_src
                0x2fff28c4        0x8 ./../build/opteemin-sdcard-stm32mp135f-dk/bl2/clk-stm32mp13.o
 .rodata.CKPER_src
                0x2fff28cc        0x8 ./../build/opteemin-sdcard-stm32mp135f-dk/bl2/clk-stm32mp13.o
 .rodata.MLAHBS_src
                0x2fff28d4        0x8 ./../build/opteemin-sdcard-stm32mp135f-dk/bl2/clk-stm32mp13.o
 .rodata.AXI_src
                0x2fff28dc        0x6 ./../build/opteemin-sdcard-stm32mp135f-dk/bl2/clk-stm32mp13.o
 .rodata.MPU_src
                0x2fff28e2        0x8 ./../build/opteemin-sdcard-stm32mp135f-dk/bl2/clk-stm32mp13.o
 .rodata.PLL4_src
                0x2fff28ea        0x8 ./../build/opteemin-sdcard-stm32mp135f-dk/bl2/clk-stm32mp13.o
 .rodata.PLL3_src
                0x2fff28f2        0x6 ./../build/opteemin-sdcard-stm32mp135f-dk/bl2/clk-stm32mp13.o
 .rodata.PLL12_src
                0x2fff28f8        0x4 ./../build/opteemin-sdcard-stm32mp135f-dk/bl2/clk-stm32mp13.o
 .rodata.MCO2_src
                0x2fff28fc        0xc ./../build/opteemin-sdcard-stm32mp135f-dk/bl2/clk-stm32mp13.o
 .rodata.MCO1_src
                0x2fff2908        0xa ./../build/opteemin-sdcard-stm32mp135f-dk/bl2/clk-stm32mp13.o
 .rodata.RTC_src
                0x2fff2912        0x8 ./../build/opteemin-sdcard-stm32mp135f-dk/bl2/clk-stm32mp13.o
 .rodata.ddrphy_timing
                0x2fff291a       0x28 ./../build/opteemin-sdcard-stm32mp135f-dk/bl2/stm32mp1_ddr.o
 .rodata.ddrphy_reg
                0x2fff2942       0x24 ./../build/opteemin-sdcard-stm32mp135f-dk/bl2/stm32mp1_ddr.o
 .rodata.ddr_perf
                0x2fff2966       0x2c ./../build/opteemin-sdcard-stm32mp135f-dk/bl2/stm32mp1_ddr.o
 .rodata.ddr_map
                0x2fff2992       0x24 ./../build/opteemin-sdcard-stm32mp135f-dk/bl2/stm32mp1_ddr.o
 .rodata.ddr_timing
                0x2fff29b6       0x30 ./../build/opteemin-sdcard-stm32mp135f-dk/bl2/stm32mp1_ddr.o
 .rodata.ddr_reg
                0x2fff29e6       0x64 ./../build/opteemin-sdcard-stm32mp135f-dk/bl2/stm32mp1_ddr.o
 .rodata.fixed_5v_voltage_table
                0x2fff2a4a        0x2 ./../build/opteemin-sdcard-stm32mp135f-dk/bl2/stpmic1.o
 .rodata.vref_ddr_voltage_table
                0x2fff2a4c        0x2 ./../build/opteemin-sdcard-stm32mp135f-dk/bl2/stpmic1.o
 .rodata.ldo4_voltage_table
                0x2fff2a4e        0x2 ./../build/opteemin-sdcard-stm32mp135f-dk/bl2/stpmic1.o
 .rodata.ldo6_voltage_table
                0x2fff2a50       0x32 ./../build/opteemin-sdcard-stm32mp135f-dk/bl2/stpmic1.o
 .rodata.ldo5_voltage_table
                0x2fff2a82       0x3e ./../build/opteemin-sdcard-stm32mp135f-dk/bl2/stpmic1.o
 .rodata.ldo3_special_mode_table
                0x2fff2ac0        0x2 ./../build/opteemin-sdcard-stm32mp135f-dk/bl2/stpmic1.o
 .rodata.ldo3_voltage_table
                0x2fff2ac2       0x3e ./../build/opteemin-sdcard-stm32mp135f-dk/bl2/stpmic1.o
 .rodata.ldo2_voltage_table
                0x2fff2b00       0x32 ./../build/opteemin-sdcard-stm32mp135f-dk/bl2/stpmic1.o
 .rodata.ldo1_voltage_table
                0x2fff2b32       0x32 ./../build/opteemin-sdcard-stm32mp135f-dk/bl2/stpmic1.o
 .rodata.buck4_voltage_table
                0x2fff2b64       0x7a ./../build/opteemin-sdcard-stm32mp135f-dk/bl2/stpmic1.o
 .rodata.buck3_voltage_table
                0x2fff2bde       0x70 ./../build/opteemin-sdcard-stm32mp135f-dk/bl2/stpmic1.o
 .rodata.buck2_voltage_table
                0x2fff2c4e       0x4a ./../build/opteemin-sdcard-stm32mp135f-dk/bl2/stpmic1.o
 .rodata.buck1_voltage_table
                0x2fff2c98       0x80 ./../build/opteemin-sdcard-stm32mp135f-dk/bl2/stpmic1.o
 .rodata.version_string
                0x2fff2d18       0x35 ./../build/opteemin-sdcard-stm32mp135f-dk/bl2/build_message.o
                0x2fff2d18                version_string
 .rodata.build_message
                0x2fff2d4d       0x1e ./../build/opteemin-sdcard-stm32mp135f-dk/bl2/build_message.o
                0x2fff2d4d                build_message
 .rodata.bl2_load_images.str1.1
                0x2fff2d6b     0x2b6f ./../build/opteemin-sdcard-stm32mp135f-dk/bl2/bl2_image_load_v2.o
                                0x11a (size before relaxing)
 .rodata.bl2_main.str1.1
                0x2fff58da       0x1e ./../build/opteemin-sdcard-stm32mp135f-dk/bl2/bl2_main.o
 .rodata.load_auth_image.str1.1
                0x2fff58da      0x12d ./../build/opteemin-sdcard-stm32mp135f-dk/bl2/bl_common.o
 .rodata.print_entry_point_info.str1.1
                0x2fff58da       0x2c ./../build/opteemin-sdcard-stm32mp135f-dk/bl2/bl_common.o
 .rodata.flush_bl_params_desc_args.str1.1
                0x2fff58da       0x19 ./../build/opteemin-sdcard-stm32mp135f-dk/bl2/desc_image_load.o
 .rodata.CSWTCH.28
                0x2fff58da        0x3 ./../build/opteemin-sdcard-stm32mp135f-dk/bl2/desc_image_load.o
 .rodata.fdt_read_uint32_array.str1.1
                0x2fff58dd       0x31 ./../build/opteemin-sdcard-stm32mp135f-dk/bl2/fdt_wrappers.o
 .rodata.fdtw_read_bytes.str1.1
                0x2fff58dd       0x23 ./../build/opteemin-sdcard-stm32mp135f-dk/bl2/fdt_wrappers.o
 .rodata.fdtw_read_string.str1.1
                0x2fff58dd       0x32 ./../build/opteemin-sdcard-stm32mp135f-dk/bl2/fdt_wrappers.o
 .rodata.fdt_get_stdout_node_offset.str1.1
                0x2fff58dd       0x23 ./../build/opteemin-sdcard-stm32mp135f-dk/bl2/fdt_wrappers.o
 .rodata.tf_log.str1.1
                0x2fff58dd       0x10 ./../build/opteemin-sdcard-stm32mp135f-dk/bl2/tf_log.o
 .rodata.read_uuid.str1.1
                0x2fff58dd       0x30 ./../build/opteemin-sdcard-stm32mp135f-dk/bl2/uuid.o
 .rodata.tzc400_set_action.str1.1
                0x2fff58dd       0x19 ./../build/opteemin-sdcard-stm32mp135f-dk/bl2/tzc400.o
 .rodata.tzc400_init.str1.1
                0x2fff58dd       0x24 ./../build/opteemin-sdcard-stm32mp135f-dk/bl2/tzc400.o
 .rodata.tzc400_enable_filters.str1.1
                0x2fff58dd       0x32 ./../build/opteemin-sdcard-stm32mp135f-dk/bl2/tzc400.o
 .rodata.clk_enable.str1.1
                0x2fff58dd       0x12 ./../build/opteemin-sdcard-stm32mp135f-dk/bl2/clk.o
 .rodata.console_unregister.str1.1
                0x2fff58dd       0x20 ./../build/opteemin-sdcard-stm32mp135f-dk/bl2/multi_console.o
 .rodata.udelay.str1.1
                0x2fff58dd       0x22 ./../build/opteemin-sdcard-stm32mp135f-dk/bl2/delay_timer.o
 .rodata.generic_delay_timer_init.str1.1
                0x2fff58dd       0x2a ./../build/opteemin-sdcard-stm32mp135f-dk/bl2/generic_delay_timer.o
 .rodata.fwu_metadata_load.str1.1
                0x2fff58dd      0x261 ./../build/opteemin-sdcard-stm32mp135f-dk/bl2/fwu.o
 .rodata.fwu_get_active_bank_state.str1.1
                0x2fff58dd       0x12 ./../build/opteemin-sdcard-stm32mp135f-dk/bl2/fwu.o
 .rodata.fwu_init.str1.1
                0x2fff58dd       0x60 ./../build/opteemin-sdcard-stm32mp135f-dk/bl2/fwu.o
 .rodata.block_seek.str1.1
                0x2fff58dd       0x16 ./../build/opteemin-sdcard-stm32mp135f-dk/bl2/io_block.o
 .rodata.fip_dev_init.str1.1
                0x2fff58dd       0x97 ./../build/opteemin-sdcard-stm32mp135f-dk/bl2/io_fip.o
 .rodata.fip_file_read.str1.1
                0x2fff58dd       0x58 ./../build/opteemin-sdcard-stm32mp135f-dk/bl2/io_fip.o
 .rodata.fip_file_open.str1.1
                0x2fff58dd       0x97 ./../build/opteemin-sdcard-stm32mp135f-dk/bl2/io_fip.o
 .rodata.uuid_null.0
                0x2fff58dd       0x10 ./../build/opteemin-sdcard-stm32mp135f-dk/bl2/io_fip.o
 .rodata.free_entity.isra.0.str1.1
                0x2fff58ed       0x18 ./../build/opteemin-sdcard-stm32mp135f-dk/bl2/io_storage.o
 .rodata.mmc_device_state.str1.1
                0x2fff58ed       0x20 ./../build/opteemin-sdcard-stm32mp135f-dk/bl2/mmc.o
 .rodata.mmc_read_blocks.str1.1
                0x2fff58ed       0x12 ./../build/opteemin-sdcard-stm32mp135f-dk/bl2/mmc.o
 .rodata.mmc_init.str1.1
                0x2fff58ed       0x95 ./../build/opteemin-sdcard-stm32mp135f-dk/bl2/mmc.o
 .rodata.sd_tran_speed_base
                0x2fff58ed       0x10 ./../build/opteemin-sdcard-stm32mp135f-dk/bl2/mmc.o
 .rodata.tran_speed_base
                0x2fff58fd       0x10 ./../build/opteemin-sdcard-stm32mp135f-dk/bl2/mmc.o
 .rodata.parse_gpt_entry.str1.1
                0x2fff590d       0x18 ./../build/opteemin-sdcard-stm32mp135f-dk/bl2/gpt.o
 .rodata.load_gpt_header.str1.1
                0x2fff590d       0x3f ./../build/opteemin-sdcard-stm32mp135f-dk/bl2/partition.o
 .rodata.load_partition_table.str1.1
                0x2fff590d       0x69 ./../build/opteemin-sdcard-stm32mp135f-dk/bl2/partition.o
 .rodata.partition_init.str1.1
                0x2fff590d       0x2f ./../build/opteemin-sdcard-stm32mp135f-dk/bl2/partition.o
 .rodata.is_otp_invalid_mode.str1.1
                0x2fff590d       0x1a ./../build/opteemin-sdcard-stm32mp135f-dk/bl2/bsec2.o
 .rodata.otp_bank_offset.str1.1
                0x2fff590d       0x18 ./../build/opteemin-sdcard-stm32mp135f-dk/bl2/bsec2.o
 .rodata.bsec_write_otp.str1.1
                0x2fff590d       0x2a ./../build/opteemin-sdcard-stm32mp135f-dk/bl2/bsec2.o
 .rodata.bsec_shadow_read_otp.str1.1
                0x2fff590d       0x60 ./../build/opteemin-sdcard-stm32mp135f-dk/bl2/bsec2.o
 .rodata._clk_get_ops.str1.1
                0x2fff590d       0x20 ./../build/opteemin-sdcard-stm32mp135f-dk/bl2/clk-stm32-core.o
 .rodata.fixed_factor_recalc_rate.str1.1
                0x2fff590d       0x13 ./../build/opteemin-sdcard-stm32mp135f-dk/bl2/clk-stm32-core.o
 .rodata.clk_stm32_get_parent.str1.1
                0x2fff590d       0x1f ./../build/opteemin-sdcard-stm32mp135f-dk/bl2/clk-stm32-core.o
 .rodata.clk_stm32_enable_call_ops.str1.1
                0x2fff590d       0x20 ./../build/opteemin-sdcard-stm32mp135f-dk/bl2/clk-stm32-core.o
 .rodata._clk_stm32_enable_core.str1.1
                0x2fff590d       0x1b ./../build/opteemin-sdcard-stm32mp135f-dk/bl2/clk-stm32-core.o
 .rodata.__func__.0
                0x2fff590d       0x11 ./../build/opteemin-sdcard-stm32mp135f-dk/bl2/clk-stm32-core.o
 .rodata.__func__.1
                0x2fff591e       0x12 ./../build/opteemin-sdcard-stm32mp135f-dk/bl2/clk-stm32-core.o
 .rodata.__func__.2
                0x2fff5930       0x13 ./../build/opteemin-sdcard-stm32mp135f-dk/bl2/clk-stm32-core.o
 .rodata.__func__.3
                0x2fff5943       0x15 ./../build/opteemin-sdcard-stm32mp135f-dk/bl2/clk-stm32-core.o
 .rodata.__func__.4
                0x2fff5958       0x15 ./../build/opteemin-sdcard-stm32mp135f-dk/bl2/clk-stm32-core.o
 .rodata.__func__.5
                0x2fff596d       0x17 ./../build/opteemin-sdcard-stm32mp135f-dk/bl2/clk-stm32-core.o
 .rodata.clk_stm32_osc_gate_enable.str1.1
                0x2fff5984        0xe ./../build/opteemin-sdcard-stm32mp135f-dk/bl2/clk-stm32mp13.o
 .rodata.clk_stm32_osc_init.str1.1
                0x2fff5984       0x18 ./../build/opteemin-sdcard-stm32mp135f-dk/bl2/clk-stm32mp13.o
 .rodata._clk_stm32_pll_enable.str1.1
                0x2fff5984       0x22 ./../build/opteemin-sdcard-stm32mp135f-dk/bl2/clk-stm32mp13.o
 .rodata._clk_stm32_pll_disable.str1.1
                0x2fff5984       0x21 ./../build/opteemin-sdcard-stm32mp135f-dk/bl2/clk-stm32mp13.o
 .rodata.stm32mp1_clk_probe.str1.1
                0x2fff5984       0x8a ./../build/opteemin-sdcard-stm32mp135f-dk/bl2/clk-stm32mp13.o
 .rodata.__func__.0
                0x2fff5984       0x1a ./../build/opteemin-sdcard-stm32mp135f-dk/bl2/clk-stm32mp13.o
 .rodata.__func__.1
                0x2fff599e       0x1b ./../build/opteemin-sdcard-stm32mp135f-dk/bl2/clk-stm32mp13.o
 .rodata.str1.1
                0x2fff59b9       0x31 ./../build/opteemin-sdcard-stm32mp135f-dk/bl2/clk-stm32mp13.o
 .rodata.stm32mp1_pll
                0x2fff59b9        0x6 ./../build/opteemin-sdcard-stm32mp135f-dk/bl2/clk-stm32mp13.o
 .rodata.fdt_get_clock_id.str1.1
                0x2fff59bf        0x7 ./../build/opteemin-sdcard-stm32mp135f-dk/bl2/stm32mp_clkfunc.o
 .rodata.seed_error_recovery.str1.1
                0x2fff59bf        0xc ./../build/opteemin-sdcard-stm32mp135f-dk/bl2/stm32_rng.o
 .rodata.stm32_rng_init.str1.1
                0x2fff59bf       0x8f ./../build/opteemin-sdcard-stm32mp135f-dk/bl2/stm32_rng.o
 .rodata.__func__.0
                0x2fff59bf        0xf ./../build/opteemin-sdcard-stm32mp135f-dk/bl2/stm32_rng.o
 .rodata.stm32mp1_ddr_init.str1.1
                0x2fff59ce       0x31 ./../build/opteemin-sdcard-stm32mp135f-dk/bl2/stm32mp1_ddr.o
 .rodata.str1.1
                0x2fff59ce       0x17 ./../build/opteemin-sdcard-stm32mp135f-dk/bl2/stm32mp1_ddr.o
 .rodata.ddr_set_sr_mode.str1.1
                0x2fff59ce       0x1c ./../build/opteemin-sdcard-stm32mp135f-dk/bl2/stm32mp1_ddr_helpers.o
 .rodata.CSWTCH.37
                0x2fff59ce        0xa ./../build/opteemin-sdcard-stm32mp135f-dk/bl2/stm32mp1_ddr_helpers.o
 .rodata.stm32mp1_ddr_setup.str1.1
                0x2fff59d8      0x110 ./../build/opteemin-sdcard-stm32mp135f-dk/bl2/stm32mp1_ram.o
 .rodata.stm32mp1_ddr_clk_enable.str1.1
                0x2fff59d8       0x2f ./../build/opteemin-sdcard-stm32mp135f-dk/bl2/stm32mp1_ram.o
 .rodata.__func__.0
                0x2fff59d8       0x13 ./../build/opteemin-sdcard-stm32mp135f-dk/bl2/stm32mp1_ram.o
 .rodata.str1.1
                0x2fff59eb       0x49 ./../build/opteemin-sdcard-stm32mp135f-dk/bl2/stm32mp1_ram.o
 .rodata.stm32mp_ddr_set_reg.str1.1
                0x2fff59eb       0x1b ./../build/opteemin-sdcard-stm32mp135f-dk/bl2/stm32mp_ddr.o
 .rodata.stm32mp_ddr_dt_get_info.str1.1
                0x2fff59eb       0x23 ./../build/opteemin-sdcard-stm32mp135f-dk/bl2/stm32mp_ram.o
 .rodata.stm32mp_ddr_dt_get_param.str1.1
                0x2fff59eb       0x1f ./../build/opteemin-sdcard-stm32mp135f-dk/bl2/stm32mp_ram.o
 .rodata.__func__.0
                0x2fff59eb       0x19 ./../build/opteemin-sdcard-stm32mp135f-dk/bl2/stm32mp_ram.o
 .rodata.set_gpio.isra.0.str1.1
                0x2fff5a04       0x1d ./../build/opteemin-sdcard-stm32mp135f-dk/bl2/stm32_gpio.o
 .rodata.dt_set_pinctrl_config.str1.1
                0x2fff5a04       0x90 ./../build/opteemin-sdcard-stm32mp135f-dk/bl2/stm32_gpio.o
 .rodata.stm32_i2c_get_setup_from_fdt.str1.1
                0x2fff5a04       0x5d ./../build/opteemin-sdcard-stm32mp135f-dk/bl2/stm32_i2c.o
 .rodata.stm32_i2c_init.str1.1
                0x2fff5a04      0x146 ./../build/opteemin-sdcard-stm32mp135f-dk/bl2/stm32_i2c.o
 .rodata.fdt_get_clk_by_name.str1.1
                0x2fff5a04       0x13 ./../build/opteemin-sdcard-stm32mp135f-dk/bl2/stm32_iwdg.o
 .rodata.stm32_iwdg_init.str1.1
                0x2fff5a04       0x71 ./../build/opteemin-sdcard-stm32mp135f-dk/bl2/stm32_iwdg.o
 .rodata.check_region_settings.str1.1
                0x2fff5a04       0xf1 ./../build/opteemin-sdcard-stm32mp135f-dk/bl2/stm32_mce.o
 .rodata.stm32_mce_init.str1.1
                0x2fff5a04       0x38 ./../build/opteemin-sdcard-stm32mp135f-dk/bl2/stm32_mce.o
 .rodata.stm32_mce_configure_region.part.0.str1.1
                0x2fff5a04       0x20 ./../build/opteemin-sdcard-stm32mp135f-dk/bl2/stm32_mce.o
 .rodata.fconf_populate_mce.str1.1
                0x2fff5a04       0x67 ./../build/opteemin-sdcard-stm32mp135f-dk/bl2/stm32_mce.o
 .rodata.str1.1
                0x2fff5a04       0x15 ./../build/opteemin-sdcard-stm32mp135f-dk/bl2/stm32_mce.o
 .rodata.stm32_sdmmc2_send_cmd.str1.1
                0x2fff5a04      0x104 ./../build/opteemin-sdcard-stm32mp135f-dk/bl2/stm32_sdmmc2.o
 .rodata.stm32_sdmmc2_read.str1.1
                0x2fff5a04       0x5b ./../build/opteemin-sdcard-stm32mp135f-dk/bl2/stm32_sdmmc2.o
 .rodata.stm32_sdmmc2_prepare.str1.1
                0x2fff5a04        0xf ./../build/opteemin-sdcard-stm32mp135f-dk/bl2/stm32_sdmmc2.o
 .rodata.stm32_sdmmc2_mmc_init.str1.1
                0x2fff5a04       0x5f ./../build/opteemin-sdcard-stm32mp135f-dk/bl2/stm32_sdmmc2.o
 .rodata.__func__.0
                0x2fff5a04       0x1a ./../build/opteemin-sdcard-stm32mp135f-dk/bl2/stm32_sdmmc2.o
 .rodata.__func__.1
                0x2fff5a1e       0x12 ./../build/opteemin-sdcard-stm32mp135f-dk/bl2/stm32_sdmmc2.o
 .rodata.__func__.2
                0x2fff5a30       0x16 ./../build/opteemin-sdcard-stm32mp135f-dk/bl2/stm32_sdmmc2.o
 .rodata.nvmem_driver_register.str1.1
                0x2fff5a46       0x4a ./../build/opteemin-sdcard-stm32mp135f-dk/bl2/nvmem.o
 .rodata.nvmem_get_cell_by_index.str1.1
                0x2fff5a46       0x3f ./../build/opteemin-sdcard-stm32mp135f-dk/bl2/nvmem.o
 .rodata.nvmem_get_cell_by_name.str1.1
                0x2fff5a46       0x11 ./../build/opteemin-sdcard-stm32mp135f-dk/bl2/nvmem.o
 .rodata.__func__.0
                0x2fff5a46       0x12 ./../build/opteemin-sdcard-stm32mp135f-dk/bl2/nvmem.o
 .rodata.stm32_tamp_nvram_write_bkp.str1.1
                0x2fff5a58       0x27 ./../build/opteemin-sdcard-stm32mp135f-dk/bl2/stm32mp_tamp_nvram_core.o
 .rodata.stm32_tamp_nvram_read_cell.str1.1
                0x2fff5a58       0x19 ./../build/opteemin-sdcard-stm32mp135f-dk/bl2/stm32mp_tamp_nvram_core.o
 .rodata.stm32_tamp_nvram_update_rights.str1.1
                0x2fff5a58       0x86 ./../build/opteemin-sdcard-stm32mp135f-dk/bl2/stm32mp_tamp_nvram_core.o
 .rodata.stm32_tamp_nvram_init.str1.1
                0x2fff5a58       0x1c ./../build/opteemin-sdcard-stm32mp135f-dk/bl2/stm32mp_tamp_nvram_core.o
 .rodata.dt_get_pmic_node.str1.1
                0x2fff5a58        0xb ./../build/opteemin-sdcard-stm32mp135f-dk/bl2/stm32mp_pmic.o
 .rodata.handle_pmic_property.str1.1
                0x2fff5a58       0x10 ./../build/opteemin-sdcard-stm32mp135f-dk/bl2/stm32mp_pmic.o
 .rodata.initialize_pmic_i2c.str1.1
                0x2fff5a58       0x59 ./../build/opteemin-sdcard-stm32mp135f-dk/bl2/stm32mp_pmic.o
 .rodata.initialize_pmic.str1.1
                0x2fff5a58       0x83 ./../build/opteemin-sdcard-stm32mp135f-dk/bl2/stm32mp_pmic.o
 .rodata.print_pmic_info_and_debug.str1.1
                0x2fff5a58       0x31 ./../build/opteemin-sdcard-stm32mp135f-dk/bl2/stm32mp_pmic.o
 .rodata.pmic_voltages_init.str1.1
                0x2fff5a58        0xc ./../build/opteemin-sdcard-stm32mp135f-dk/bl2/stm32mp_pmic.o
 .rodata.__func__.0
                0x2fff5a58        0xe ./../build/opteemin-sdcard-stm32mp135f-dk/bl2/stm32mp_pmic.o
 .rodata.str1.1
                0x2fff5a66       0x49 ./../build/opteemin-sdcard-stm32mp135f-dk/bl2/stm32mp_pmic.o
 .rodata.stpmic1_regulator_levels_mv.str1.1
                0x2fff5a66        0x5 ./../build/opteemin-sdcard-stm32mp135f-dk/bl2/stpmic1.o
 .rodata.stpmic1_regulator_voltage_get.str1.1
                0x2fff5a66        0xe ./../build/opteemin-sdcard-stm32mp135f-dk/bl2/stpmic1.o
 .rodata.stpmic1_active_discharge_mode_set.str1.1
                0x2fff5a66       0x10 ./../build/opteemin-sdcard-stm32mp135f-dk/bl2/stpmic1.o
 .rodata.str1.1
                0x2fff5a66       0x3b ./../build/opteemin-sdcard-stm32mp135f-dk/bl2/stpmic1.o
 .rodata.regulator_get_by_name.str1.1
                0x2fff5a66       0x39 ./../build/opteemin-sdcard-stm32mp135f-dk/bl2/regulator_core.o
 .rodata.regulator_get_by_supply_name.str1.1
                0x2fff5a66       0x25 ./../build/opteemin-sdcard-stm32mp135f-dk/bl2/regulator_core.o
 .rodata.regulator_get_voltage.str1.1
                0x2fff5a66       0x26 ./../build/opteemin-sdcard-stm32mp135f-dk/bl2/regulator_core.o
 .rodata.regulator_set_voltage.str1.1
                0x2fff5a66       0x23 ./../build/opteemin-sdcard-stm32mp135f-dk/bl2/regulator_core.o
 .rodata.regulator_list_voltages.str1.1
                0x2fff5a66       0x98 ./../build/opteemin-sdcard-stm32mp135f-dk/bl2/regulator_core.o
 .rodata.regulator_register.str1.1
                0x2fff5a66      0x101 ./../build/opteemin-sdcard-stm32mp135f-dk/bl2/regulator_core.o
 .rodata.__func__.0
                0x2fff5a66       0x19 ./../build/opteemin-sdcard-stm32mp135f-dk/bl2/regulator_core.o
 .rodata.__func__.1
                0x2fff5a7f       0x16 ./../build/opteemin-sdcard-stm32mp135f-dk/bl2/regulator_core.o
 .rodata.fixed_regulator_register.str1.1
                0x2fff5a95       0x58 ./../build/opteemin-sdcard-stm32mp135f-dk/bl2/regulator_fixed.o
 .rodata.__func__.0
                0x2fff5a95       0x19 ./../build/opteemin-sdcard-stm32mp135f-dk/bl2/regulator_fixed.o
 .rodata.fconf_load_config.str1.1
                0x2fff5aae       0x52 ./../build/opteemin-sdcard-stm32mp135f-dk/bl2/fconf.o
 .rodata.fconf_populate.str1.1
                0x2fff5aae       0xa0 ./../build/opteemin-sdcard-stm32mp135f-dk/bl2/fconf.o
 .rodata.set_config_info.str1.1
                0x2fff5aae       0x3e ./../build/opteemin-sdcard-stm32mp135f-dk/bl2/fconf_dyn_cfg_getter.o
 .rodata.fconf_populate_dtb_registry.str1.1
                0x2fff5aae       0xd1 ./../build/opteemin-sdcard-stm32mp135f-dk/bl2/fconf_dyn_cfg_getter.o
 .rodata.dyn_cfg_dtb_info_getter.str1.1
                0x2fff5aae       0x1e ./../build/opteemin-sdcard-stm32mp135f-dk/bl2/fconf_dyn_cfg_getter.o
 .rodata.str1.1
                0x2fff5aae       0x12 ./../build/opteemin-sdcard-stm32mp135f-dk/bl2/fconf_dyn_cfg_getter.o
 .rodata.parse_optee_image.str1.1
                0x2fff5aae       0x4d ./../build/opteemin-sdcard-stm32mp135f-dk/bl2/optee_utils.o
 .rodata.parse_optee_header.str1.1
                0x2fff5aae      0x125 ./../build/opteemin-sdcard-stm32mp135f-dk/bl2/optee_utils.o
 .rodata.xlat_arch_regime_get_xn_desc.str1.1
                0x2fff5aae       0x2e ./../build/opteemin-sdcard-stm32mp135f-dk/bl2/xlat_tables_arch.o
 .rodata.mmap_add_alloc_va.str1.1
                0x2fff5aae       0x29 ./../build/opteemin-sdcard-stm32mp135f-dk/bl2/xlat_tables_context.o
 .rodata.xlat_table_get_index.str1.1
                0x2fff5aae       0x26 ./../build/opteemin-sdcard-stm32mp135f-dk/bl2/xlat_tables_core.o
 .rodata.mmap_add_region_ctx.str1.1
                0x2fff5aae       0x2b ./../build/opteemin-sdcard-stm32mp135f-dk/bl2/xlat_tables_core.o
 .rodata.init_xlat_tables_ctx.str1.1
                0x2fff5aae       0x4f ./../build/opteemin-sdcard-stm32mp135f-dk/bl2/xlat_tables_core.o
 .rodata.str1.1
                0x2fff5aae       0x32 ./../build/opteemin-sdcard-stm32mp135f-dk/bl2/plat_log_common.o
 .rodata.stm32mp_io_setup.str1.1
                0x2fff5aae      0x133 ./../build/opteemin-sdcard-stm32mp135f-dk/bl2/bl2_io_storage.o
 .rodata.bl2_plat_handle_pre_image_load.str1.1
                0x2fff5aae       0x10 ./../build/opteemin-sdcard-stm32mp135f-dk/bl2/bl2_io_storage.o
 .rodata.plat_fwu_get_boot_idx.str1.1
                0x2fff5aae       0xba ./../build/opteemin-sdcard-stm32mp135f-dk/bl2/bl2_io_storage.o
 .rodata.plat_fwu_set_images_source.str1.1
                0x2fff5aae       0x6c ./../build/opteemin-sdcard-stm32mp135f-dk/bl2/bl2_io_storage.o
 .rodata.plat_fwu_set_metadata_image_source.str1.1
                0x2fff5aae       0x3a ./../build/opteemin-sdcard-stm32mp135f-dk/bl2/bl2_io_storage.o
 .rodata.__func__.0
                0x2fff5aae       0x16 ./../build/opteemin-sdcard-stm32mp135f-dk/bl2/bl2_io_storage.o
 .rodata.stm32_get_bootinfo_cell.str1.1
                0x2fff5ac4       0x14 ./../build/opteemin-sdcard-stm32mp135f-dk/bl2/stm32mp_common.o
 .rodata.stm32_get_otp_index.str1.1
                0x2fff5ac4       0x20 ./../build/opteemin-sdcard-stm32mp135f-dk/bl2/stm32mp_common.o
 .rodata.stm32_get_otp_value_from_idx.str1.1
                0x2fff5ac4       0x1a ./../build/opteemin-sdcard-stm32mp135f-dk/bl2/stm32mp_common.o
 .rodata.stm32_get_otp_value.str1.1
                0x2fff5ac4       0x16 ./../build/opteemin-sdcard-stm32mp135f-dk/bl2/stm32mp_common.o
 .rodata.stm32_display_board_info.str1.1
                0x2fff5ac4       0x25 ./../build/opteemin-sdcard-stm32mp135f-dk/bl2/stm32mp_common.o
 .rodata.stm32_get_fwu_info_cell.str1.1
                0x2fff5ac4        0x9 ./../build/opteemin-sdcard-stm32mp135f-dk/bl2/stm32mp_common.o
 .rodata.stm32_get_boot_mode_cell.str1.1
                0x2fff5ac4        0xa ./../build/opteemin-sdcard-stm32mp135f-dk/bl2/stm32mp_common.o
 .rodata.fdt_get_status.str1.1
                0x2fff5ac4       0x1a ./../build/opteemin-sdcard-stm32mp135f-dk/bl2/stm32mp_dt.o
 .rodata.dt_fill_device_info.str1.1
                0x2fff5ac4       0x2e ./../build/opteemin-sdcard-stm32mp135f-dk/bl2/stm32mp_dt.o
 .rodata.dt_get_ddr_size.str1.1
                0x2fff5ac4       0x3e ./../build/opteemin-sdcard-stm32mp135f-dk/bl2/stm32mp_dt.o
 .rodata.dt_get_vdd_regulator.str1.1
                0x2fff5ac4       0x18 ./../build/opteemin-sdcard-stm32mp135f-dk/bl2/stm32mp_dt.o
 .rodata.dt_get_board_model.str1.1
                0x2fff5ac4        0x8 ./../build/opteemin-sdcard-stm32mp135f-dk/bl2/stm32mp_dt.o
 .rodata.dt_find_otp_name.str1.1
                0x2fff5ac4       0x76 ./../build/opteemin-sdcard-stm32mp135f-dk/bl2/stm32mp_dt.o
 .rodata.__func__.0
                0x2fff5ac4       0x10 ./../build/opteemin-sdcard-stm32mp135f-dk/bl2/stm32mp_dt.o
 .rodata.fconf_populate_stm32mp_fuse_provisioning.str1.1
                0x2fff5ad4       0x8b ./../build/opteemin-sdcard-stm32mp135f-dk/bl2/stm32mp_fconf_fuse.o
 .rodata.str1.1
                0x2fff5ad4       0x13 ./../build/opteemin-sdcard-stm32mp135f-dk/bl2/stm32mp_fconf_fuse.o
 .rodata.fconf_populate_stm32mp_io_policies.str1.1
                0x2fff5ad4       0x99 ./../build/opteemin-sdcard-stm32mp135f-dk/bl2/stm32mp_fconf_io.o
 .rodata.str1.1
                0x2fff5ad4       0x6f ./../build/opteemin-sdcard-stm32mp135f-dk/bl2/stm32mp_fconf_io.o
 .rodata.bl2_platform_setup.str1.1
                0x2fff5ad4       0x35 ./../build/opteemin-sdcard-stm32mp135f-dk/bl2/bl2_plat_setup.o
 .rodata.bl2_el3_plat_arch_setup.str1.1
                0x2fff5ad4      0x31f ./../build/opteemin-sdcard-stm32mp135f-dk/bl2/bl2_plat_setup.o
 .rodata.bl2_plat_handle_post_image_load.str1.1
                0x2fff5ad4       0x26 ./../build/opteemin-sdcard-stm32mp135f-dk/bl2/bl2_plat_setup.o
 .rodata.debug_msg
                0x2fff5ad4      0x1d5 ./../build/opteemin-sdcard-stm32mp135f-dk/bl2/bl2_plat_setup.o
 .rodata.stm32mp_board_ddr_power_init.str1.1
                0x2fff5ca9       0x4e ./../build/opteemin-sdcard-stm32mp135f-dk/bl2/plat_ddr.o
 .rodata.__func__.0
                0x2fff5ca9       0x14 ./../build/opteemin-sdcard-stm32mp135f-dk/bl2/plat_ddr.o
 .rodata.stm32_pm_get_optee_ep.str1.1
                0x2fff5cbd       0x18 ./../build/opteemin-sdcard-stm32mp135f-dk/bl2/stm32mp1_context.o
 .rodata.stm32_pm_context_is_valid.str1.1
                0x2fff5cbd       0x33 ./../build/opteemin-sdcard-stm32mp135f-dk/bl2/stm32mp1_context.o
 .rodata.stm32mp1_pm_get_mce_mkey_from_context.str1.1
                0x2fff5cbd       0x23 ./../build/opteemin-sdcard-stm32mp135f-dk/bl2/stm32mp1_context.o
 .rodata.stm32mp1_pm_get_mce_region.str1.1
                0x2fff5cbd       0x1b ./../build/opteemin-sdcard-stm32mp135f-dk/bl2/stm32mp1_context.o
 .rodata.stm32_pwr_down_wfi_load.str1.1
                0x2fff5cbd       0x1a ./../build/opteemin-sdcard-stm32mp135f-dk/bl2/stm32mp1_critic_power.o
 .rodata.fconf_populate_stm32mp1_firewall.str1.1
                0x2fff5cbd       0x68 ./../build/opteemin-sdcard-stm32mp135f-dk/bl2/stm32mp1_fconf_firewall.o
 .rodata.stm32mp1_security_setup.str1.1
                0x2fff5cbd       0x2b ./../build/opteemin-sdcard-stm32mp135f-dk/bl2/stm32mp1_fconf_firewall.o
 .rodata.str1.1
                0x2fff5cbd       0x1c ./../build/opteemin-sdcard-stm32mp135f-dk/bl2/stm32mp1_fconf_firewall.o
 .rodata.stm32_get_gpio_bank_base.str1.1
                0x2fff5cbd       0x24 ./../build/opteemin-sdcard-stm32mp135f-dk/bl2/stm32mp1_private.o
 .rodata.stm32mp_get_part_number.str1.1
                0x2fff5cbd       0x10 ./../build/opteemin-sdcard-stm32mp135f-dk/bl2/stm32mp1_private.o
 .rodata.stm32mp_get_soc_name.str1.1
                0x2fff5cbd       0x5d ./../build/opteemin-sdcard-stm32mp135f-dk/bl2/stm32mp1_private.o
 .rodata.stm32mp_print_cpuinfo.str1.1
                0x2fff5cbd        0xa ./../build/opteemin-sdcard-stm32mp135f-dk/bl2/stm32mp1_private.o
 .rodata.stm32mp_print_boardinfo.str1.1
                0x2fff5cbd        0x9 ./../build/opteemin-sdcard-stm32mp135f-dk/bl2/stm32mp1_private.o
 .rodata.stm32mp_check_closed_device.str1.1
                0x2fff5cbd        0x9 ./../build/opteemin-sdcard-stm32mp135f-dk/bl2/stm32mp1_private.o
 .rodata.stm32_iwdg_get_otp_config.str1.1
                0x2fff5cbd        0x8 ./../build/opteemin-sdcard-stm32mp135f-dk/bl2/stm32mp1_private.o
 .rodata.stm32mp_bkpram_get_access.str1.1
                0x2fff5cbd       0x22 ./../build/opteemin-sdcard-stm32mp135f-dk/bl2/stm32mp1_private.o
 .rodata.enable_io_comp_cell_finish.str1.1
                0x2fff5cbd       0x21 ./../build/opteemin-sdcard-stm32mp135f-dk/bl2/stm32mp1_syscfg.o
 .rodata.sdmmc_is_low_voltage.str1.1
                0x2fff5cbd       0x35 ./../build/opteemin-sdcard-stm32mp135f-dk/bl2/stm32mp1_syscfg.o
 .rodata.stm32mp_syscfg_init.str1.1
                0x2fff5cbd       0x97 ./../build/opteemin-sdcard-stm32mp135f-dk/bl2/stm32mp1_syscfg.o
 .rodata.str1.1
                0x2fff5cbd       0x29 ./../build/opteemin-sdcard-stm32mp135f-dk/bl2/bl2_el3_entrypoint.o
 .rodata.assert_str
                0x2fff5ce6       0x15 ./../build/opteemin-sdcard-stm32mp135f-dk/bl2/debug.o
 .rodata.panic_str
                0x2fff5cfb       0x14 ./../build/opteemin-sdcard-stm32mp135f-dk/bl2/debug.o
 .rodata.str1.1
                0x2fff5d0f       0x28 ./../build/opteemin-sdcard-stm32mp135f-dk/bl2/stm32_console.o
 .rodata.errata_entries
                0x2fff5d37        0x0 ./../build/opteemin-sdcard-stm32mp135f-dk/bl2/cortex_a7.o
 .rodata.str1.1
                0x2fff5d37       0x1f ./../build/opteemin-sdcard-stm32mp135f-dk/bl2/cpu_helpers.o
 .rodata.str1.1
                0x2fff5d56       0x28 ./../build/opteemin-sdcard-stm32mp135f-dk/bl2/enable_mmu.o
 .rodata.rev_err_str
                0x2fff5d7e       0x92 ./../build/opteemin-sdcard-stm32mp135f-dk/bl2/stm32mp1_helper.o
 .rodata.fdt_address_cells.str1.1
                0x2fff5e10        0xf ./../build/opteemin-sdcard-stm32mp135f-dk/lib/libfdt.a(fdt_addresses.o)
 .rodata.fdt_get_phandle.str1.1
                0x2fff5e10       0x16 ./../build/opteemin-sdcard-stm32mp135f-dk/lib/libfdt.a(fdt_ro.o)
 .rodata.fdt_get_alias_namelen.str1.1
                0x2fff5e10        0x9 ./../build/opteemin-sdcard-stm32mp135f-dk/lib/libfdt.a(fdt_ro.o)
 .rodata.fdt_node_check_compatible.str1.1
                0x2fff5e10        0xb ./../build/opteemin-sdcard-stm32mp135f-dk/lib/libfdt.a(fdt_ro.o)
 .rodata.__assert.str1.1
                0x2fff5e10        0xf ./../build/opteemin-sdcard-stm32mp135f-dk/lib/libc.a(assert.o)
 .rodata.vprintf.str1.1
                0x2fff5e10       0x15 ./../build/opteemin-sdcard-stm32mp135f-dk/lib/libc.a(printf.o)
 .rodata.vsnprintf.str1.1
                0x2fff5e10        0x3 ./../build/opteemin-sdcard-stm32mp135f-dk/lib/libc.a(snprintf.o)
                0x2fff5e28                        . = ALIGN (0x4)
                0x2fff5e10                        __RT_SVC_DESCS_START__ = .
 *(SORT_BY_ALIGNMENT(.rt_svc_descs))
                0x2fff5e10                        __RT_SVC_DESCS_END__ = .
                0x2fff5e28                        . = ALIGN (0x4)
                0x2fff5e10                        __FCONF_POPULATOR_START__ = .
 *(SORT_BY_ALIGNMENT(.fconf_populator))
 .fconf_populator
                0x2fff5e10        0xc ./../build/opteemin-sdcard-stm32mp135f-dk/bl2/stm32_mce.o
 .fconf_populator
                0x2fff5e1c        0xc ./../build/opteemin-sdcard-stm32mp135f-dk/bl2/fconf_dyn_cfg_getter.o
 .fconf_populator
                0x2fff5e28        0xc ./../build/opteemin-sdcard-stm32mp135f-dk/bl2/stm32mp_fconf_fuse.o
 .fconf_populator
                0x2fff5e34        0xc ./../build/opteemin-sdcard-stm32mp135f-dk/bl2/stm32mp_fconf_io.o
 .fconf_populator
                0x2fff5e40        0xc ./../build/opteemin-sdcard-stm32mp135f-dk/bl2/stm32mp1_fconf_firewall.o
                0x2fff5e4c                        __FCONF_POPULATOR_END__ = .
                0x2fff5e4c                        . = ALIGN (0x4)
                0x2fff5e4c                        __PMF_SVC_DESCS_START__ = .
 *(SORT_BY_ALIGNMENT(.pmf_svc_descs))
                0x2fff5e4c                        __PMF_SVC_DESCS_END__ = .
                0x2fff5e4c                        . = ALIGN (0x4)
                0x2fff5e4c                        __PARSER_LIB_DESCS_START__ = .
 *(SORT_BY_ALIGNMENT(.img_parser_lib_descs))
                0x2fff5e4c                        __PARSER_LIB_DESCS_END__ = .
                0x2fff5e4c                        . = ALIGN (0x4)
                0x2fff5e4c                        __CPU_OPS_START__ = .
 *(SORT_BY_ALIGNMENT(.cpu_ops))
 .cpu_ops       0x2fff5e4c       0x10 ./../build/opteemin-sdcard-stm32mp135f-dk/bl2/cortex_a7.o
                0x2fff5e5c                        __CPU_OPS_END__ = .
                0x2fff5e5c                        . = ALIGN (0x4)
                0x2fff5e5c                        __GOT_START__ = .
 *(SORT_BY_ALIGNMENT(.got))
                0x2fff5e5c                        __GOT_END__ = .
 *(SORT_BY_ALIGNMENT(.vectors))
 *fill*         0x2fff5e5c        0x4 
 .vectors       0x2fff5e60       0x20 ./../build/opteemin-sdcard-stm32mp135f-dk/bl2/bl2_el3_exceptions.o
                0x2fff5e60                bl2_vector_table
 .vectors.__stub
                0x2fff5e80       0x38 linker stubs
                0x2fff5eb8                        __RO_END_UNALIGNED__ = .
                0x2fff6000                        . = ALIGN (0x1000)
 *fill*         0x2fff5eb8      0x148 
                0x2fff6000                        __RO_END__ = .
                0x00000001                        ASSERT ((__CPU_OPS_END__ > __CPU_OPS_START__), cpu_ops not defined for this platform.)
                0x2fff6000                        __RW_START__ = .

.glue_7         0x2fff6000        0x0
 .glue_7        0x2fff6000        0x0 linker stubs

.glue_7t        0x2fff6000        0x0
 .glue_7t       0x2fff6000        0x0 linker stubs

.vfp11_veneer   0x2fff6000        0x0
 .vfp11_veneer  0x2fff6000        0x0 linker stubs

.v4_bx          0x2fff6000        0x0
 .v4_bx         0x2fff6000        0x0 linker stubs

.iplt           0x2fff6000        0x0
 .iplt          0x2fff6000        0x0 ./../build/opteemin-sdcard-stm32mp135f-dk/bl2/bl2_image_load_v2.o

.data           0x2fff6000      0x82f
                0x2fff6000                        __DATA_START__ = .
 *(SORT_BY_ALIGNMENT(.data*))
 .data.tf_xlat_ctx
                0x2fff6000       0x48 ./../build/opteemin-sdcard-stm32mp135f-dk/bl2/xlat_tables_context.o
 .data.max_log_level
                0x2fff6048        0x4 ./../build/opteemin-sdcard-stm32mp135f-dk/bl2/tf_log.o
 .data.stm32mp13_clock_data
                0x2fff604c       0x38 ./../build/opteemin-sdcard-stm32mp135f-dk/bl2/clk-stm32mp13.o
 .data.stm32mp13_clock_pdata
                0x2fff6084       0x20 ./../build/opteemin-sdcard-stm32mp135f-dk/bl2/clk-stm32mp13.o
 .data.__compound_literal.117
                0x2fff60a4        0x8 ./../build/opteemin-sdcard-stm32mp135f-dk/bl2/clk-stm32mp13.o
 .data.__compound_literal.115
                0x2fff60ac        0x8 ./../build/opteemin-sdcard-stm32mp135f-dk/bl2/clk-stm32mp13.o
 .data.__compound_literal.113
                0x2fff60b4        0x8 ./../build/opteemin-sdcard-stm32mp135f-dk/bl2/clk-stm32mp13.o
 .data.__compound_literal.71
                0x2fff60bc        0x4 ./../build/opteemin-sdcard-stm32mp135f-dk/bl2/clk-stm32mp13.o
 .data.ops_array_mp13
                0x2fff60c0       0x30 ./../build/opteemin-sdcard-stm32mp135f-dk/bl2/clk-stm32mp13.o
 .data.clk_stm32_osc_nogate_ops
                0x2fff60f0       0x1c ./../build/opteemin-sdcard-stm32mp135f-dk/bl2/clk-stm32mp13.o
 .data.clk_stm32_osc_ops
                0x2fff610c       0x1c ./../build/opteemin-sdcard-stm32mp135f-dk/bl2/clk-stm32mp13.o
 .data.stm32mp13_osc_data
                0x2fff6128       0xa8 ./../build/opteemin-sdcard-stm32mp135f-dk/bl2/clk-stm32mp13.o
 .data.mp1_bkpreg_access
                0x2fff61d0        0xc ./../build/opteemin-sdcard-stm32mp135f-dk/bl2/stm32mp_tamp_nvram_mp1.o
 .data.i2c_node.1
                0x2fff61dc        0x4 ./../build/opteemin-sdcard-stm32mp135f-dk/bl2/stm32mp_pmic.o
 .data.node.2   0x2fff61e0        0x4 ./../build/opteemin-sdcard-stm32mp135f-dk/bl2/stm32mp_pmic.o
 .data.status.3
                0x2fff61e4        0x4 ./../build/opteemin-sdcard-stm32mp135f-dk/bl2/stm32mp_pmic.o
 .data.fixed_ops
                0x2fff61e8       0x20 ./../build/opteemin-sdcard-stm32mp135f-dk/bl2/regulator_fixed.o
 .data.dtb_info_pool
                0x2fff6208       0x10 ./../build/opteemin-sdcard-stm32mp135f-dk/bl2/fconf_dyn_cfg_getter.o
 .data.boot_idx.1
                0x2fff6218        0x4 ./../build/opteemin-sdcard-stm32mp135f-dk/bl2/bl2_io_storage.o
 .data.mmc_block_dev_spec
                0x2fff621c       0x14 ./../build/opteemin-sdcard-stm32mp135f-dk/bl2/bl2_io_storage.o
 .data.fconf_stm32mp_uuids_pool
                0x2fff6230       0x10 ./../build/opteemin-sdcard-stm32mp135f-dk/bl2/stm32mp_fconf_io.o
 .data.policies
                0x2fff6240      0x214 ./../build/opteemin-sdcard-stm32mp135f-dk/bl2/stm32mp_fconf_io.o
                0x2fff6240                policies
 .data.gpt_block_spec
                0x2fff6454        0x8 ./../build/opteemin-sdcard-stm32mp135f-dk/bl2/stm32mp_fconf_io.o
 .data.bl_mem_params_desc_num
                0x2fff645c        0x4 ./../build/opteemin-sdcard-stm32mp135f-dk/bl2/plat_bl2_mem_params_desc.o
                0x2fff645c                bl_mem_params_desc_num
 .data.bl_mem_params_desc_ptr
                0x2fff6460        0x4 ./../build/opteemin-sdcard-stm32mp135f-dk/bl2/plat_bl2_mem_params_desc.o
                0x2fff6460                bl_mem_params_desc_ptr
 .data.bl2_mem_params_descs
                0x2fff6464      0x228 ./../build/opteemin-sdcard-stm32mp135f-dk/bl2/plat_bl2_mem_params_desc.o
 .data.skip.1   0x2fff668c        0x4 ./../build/opteemin-sdcard-stm32mp135f-dk/bl2/stm32mp1_private.o
 .data          0x2fff6690        0xc ./../build/opteemin-sdcard-stm32mp135f-dk/bl2/stm32mp1_critic_power_wrapper.o
 .data.__compound_literal.54
                0x2fff669c        0x4 ./../build/opteemin-sdcard-stm32mp135f-dk/bl2/clk-stm32mp13.o
 .data.__compound_literal.53
                0x2fff66a0        0x4 ./../build/opteemin-sdcard-stm32mp135f-dk/bl2/clk-stm32mp13.o
 .data.__compound_literal.51
                0x2fff66a4        0x6 ./../build/opteemin-sdcard-stm32mp135f-dk/bl2/clk-stm32mp13.o
 .data.__compound_literal.50
                0x2fff66aa        0x4 ./../build/opteemin-sdcard-stm32mp135f-dk/bl2/clk-stm32mp13.o
 .data.__compound_literal.49
                0x2fff66ae        0x4 ./../build/opteemin-sdcard-stm32mp135f-dk/bl2/clk-stm32mp13.o
 .data.__compound_literal.45
                0x2fff66b2        0x6 ./../build/opteemin-sdcard-stm32mp135f-dk/bl2/clk-stm32mp13.o
 .data.__compound_literal.44
                0x2fff66b8        0x6 ./../build/opteemin-sdcard-stm32mp135f-dk/bl2/clk-stm32mp13.o
 .data.__compound_literal.43
                0x2fff66be        0x6 ./../build/opteemin-sdcard-stm32mp135f-dk/bl2/clk-stm32mp13.o
 .data.__compound_literal.42
                0x2fff66c4        0x6 ./../build/opteemin-sdcard-stm32mp135f-dk/bl2/clk-stm32mp13.o
 .data.__compound_literal.41
                0x2fff66ca        0x6 ./../build/opteemin-sdcard-stm32mp135f-dk/bl2/clk-stm32mp13.o
 .data.__compound_literal.40
                0x2fff66d0        0x6 ./../build/opteemin-sdcard-stm32mp135f-dk/bl2/clk-stm32mp13.o
 .data.__compound_literal.39
                0x2fff66d6        0x6 ./../build/opteemin-sdcard-stm32mp135f-dk/bl2/clk-stm32mp13.o
 .data.__compound_literal.38
                0x2fff66dc        0x6 ./../build/opteemin-sdcard-stm32mp135f-dk/bl2/clk-stm32mp13.o
 .data.__compound_literal.37
                0x2fff66e2        0x6 ./../build/opteemin-sdcard-stm32mp135f-dk/bl2/clk-stm32mp13.o
 .data.__compound_literal.36
                0x2fff66e8        0x6 ./../build/opteemin-sdcard-stm32mp135f-dk/bl2/clk-stm32mp13.o
 .data.__compound_literal.35
                0x2fff66ee        0x6 ./../build/opteemin-sdcard-stm32mp135f-dk/bl2/clk-stm32mp13.o
 .data.__compound_literal.34
                0x2fff66f4        0x6 ./../build/opteemin-sdcard-stm32mp135f-dk/bl2/clk-stm32mp13.o
 .data.__compound_literal.33
                0x2fff66fa        0x6 ./../build/opteemin-sdcard-stm32mp135f-dk/bl2/clk-stm32mp13.o
 .data.__compound_literal.32
                0x2fff6700        0x6 ./../build/opteemin-sdcard-stm32mp135f-dk/bl2/clk-stm32mp13.o
 .data.__compound_literal.31
                0x2fff6706        0x6 ./../build/opteemin-sdcard-stm32mp135f-dk/bl2/clk-stm32mp13.o
 .data.__compound_literal.30
                0x2fff670c        0x6 ./../build/opteemin-sdcard-stm32mp135f-dk/bl2/clk-stm32mp13.o
 .data.__compound_literal.29
                0x2fff6712        0x6 ./../build/opteemin-sdcard-stm32mp135f-dk/bl2/clk-stm32mp13.o
 .data.__compound_literal.28
                0x2fff6718        0x6 ./../build/opteemin-sdcard-stm32mp135f-dk/bl2/clk-stm32mp13.o
 .data.__compound_literal.27
                0x2fff671e        0x6 ./../build/opteemin-sdcard-stm32mp135f-dk/bl2/clk-stm32mp13.o
 .data.__compound_literal.26
                0x2fff6724        0x6 ./../build/opteemin-sdcard-stm32mp135f-dk/bl2/clk-stm32mp13.o
 .data.__compound_literal.25
                0x2fff672a        0x6 ./../build/opteemin-sdcard-stm32mp135f-dk/bl2/clk-stm32mp13.o
 .data.__compound_literal.24
                0x2fff6730        0x6 ./../build/opteemin-sdcard-stm32mp135f-dk/bl2/clk-stm32mp13.o
 .data.__compound_literal.23
                0x2fff6736        0x6 ./../build/opteemin-sdcard-stm32mp135f-dk/bl2/clk-stm32mp13.o
 .data.__compound_literal.22
                0x2fff673c        0x6 ./../build/opteemin-sdcard-stm32mp135f-dk/bl2/clk-stm32mp13.o
 .data.__compound_literal.21
                0x2fff6742        0x6 ./../build/opteemin-sdcard-stm32mp135f-dk/bl2/clk-stm32mp13.o
 .data.__compound_literal.20
                0x2fff6748        0x6 ./../build/opteemin-sdcard-stm32mp135f-dk/bl2/clk-stm32mp13.o
 .data.__compound_literal.19
                0x2fff674e        0x6 ./../build/opteemin-sdcard-stm32mp135f-dk/bl2/clk-stm32mp13.o
 .data.__compound_literal.18
                0x2fff6754        0x6 ./../build/opteemin-sdcard-stm32mp135f-dk/bl2/clk-stm32mp13.o
 .data.__compound_literal.17
                0x2fff675a        0x6 ./../build/opteemin-sdcard-stm32mp135f-dk/bl2/clk-stm32mp13.o
 .data.__compound_literal.16
                0x2fff6760        0x6 ./../build/opteemin-sdcard-stm32mp135f-dk/bl2/clk-stm32mp13.o
 .data.__compound_literal.15
                0x2fff6766        0x6 ./../build/opteemin-sdcard-stm32mp135f-dk/bl2/clk-stm32mp13.o
 .data.__compound_literal.14
                0x2fff676c        0x6 ./../build/opteemin-sdcard-stm32mp135f-dk/bl2/clk-stm32mp13.o
 .data.__compound_literal.13
                0x2fff6772        0x6 ./../build/opteemin-sdcard-stm32mp135f-dk/bl2/clk-stm32mp13.o
 .data.__compound_literal.12
                0x2fff6778        0x6 ./../build/opteemin-sdcard-stm32mp135f-dk/bl2/clk-stm32mp13.o
 .data.__compound_literal.11
                0x2fff677e        0x6 ./../build/opteemin-sdcard-stm32mp135f-dk/bl2/clk-stm32mp13.o
 .data.__compound_literal.10
                0x2fff6784        0x6 ./../build/opteemin-sdcard-stm32mp135f-dk/bl2/clk-stm32mp13.o
 .data.__compound_literal.9
                0x2fff678a        0x6 ./../build/opteemin-sdcard-stm32mp135f-dk/bl2/clk-stm32mp13.o
 .data.__compound_literal.8
                0x2fff6790        0x6 ./../build/opteemin-sdcard-stm32mp135f-dk/bl2/clk-stm32mp13.o
 .data.__compound_literal.7
                0x2fff6796        0x6 ./../build/opteemin-sdcard-stm32mp135f-dk/bl2/clk-stm32mp13.o
 .data.__compound_literal.6
                0x2fff679c        0x6 ./../build/opteemin-sdcard-stm32mp135f-dk/bl2/clk-stm32mp13.o
 .data.__compound_literal.5
                0x2fff67a2        0x6 ./../build/opteemin-sdcard-stm32mp135f-dk/bl2/clk-stm32mp13.o
 .data.__compound_literal.4
                0x2fff67a8        0x6 ./../build/opteemin-sdcard-stm32mp135f-dk/bl2/clk-stm32mp13.o
 .data.__compound_literal.3
                0x2fff67ae        0x6 ./../build/opteemin-sdcard-stm32mp135f-dk/bl2/clk-stm32mp13.o
 .data.__compound_literal.2
                0x2fff67b4        0x6 ./../build/opteemin-sdcard-stm32mp135f-dk/bl2/clk-stm32mp13.o
 .data.__compound_literal.1
                0x2fff67ba        0x6 ./../build/opteemin-sdcard-stm32mp135f-dk/bl2/clk-stm32mp13.o
 .data.__compound_literal.0
                0x2fff67c0        0x6 ./../build/opteemin-sdcard-stm32mp135f-dk/bl2/clk-stm32mp13.o
 .data.console_state
                0x2fff67c6        0x1 ./../build/opteemin-sdcard-stm32mp135f-dk/bl2/multi_console.o
 .data.__compound_literal.231
                0x2fff67c7        0x2 ./../build/opteemin-sdcard-stm32mp135f-dk/bl2/clk-stm32mp13.o
 .data.__compound_literal.230
                0x2fff67c9        0x2 ./../build/opteemin-sdcard-stm32mp135f-dk/bl2/clk-stm32mp13.o
 .data.__compound_literal.229
                0x2fff67cb        0x2 ./../build/opteemin-sdcard-stm32mp135f-dk/bl2/clk-stm32mp13.o
 .data.__compound_literal.227
                0x2fff67cd        0x1 ./../build/opteemin-sdcard-stm32mp135f-dk/bl2/clk-stm32mp13.o
 .data.__compound_literal.225
                0x2fff67ce        0x1 ./../build/opteemin-sdcard-stm32mp135f-dk/bl2/clk-stm32mp13.o
 .data.__compound_literal.223
                0x2fff67cf        0x1 ./../build/opteemin-sdcard-stm32mp135f-dk/bl2/clk-stm32mp13.o
 .data.__compound_literal.221
                0x2fff67d0        0x1 ./../build/opteemin-sdcard-stm32mp135f-dk/bl2/clk-stm32mp13.o
 .data.__compound_literal.219
                0x2fff67d1        0x1 ./../build/opteemin-sdcard-stm32mp135f-dk/bl2/clk-stm32mp13.o
 .data.__compound_literal.217
                0x2fff67d2        0x1 ./../build/opteemin-sdcard-stm32mp135f-dk/bl2/clk-stm32mp13.o
 .data.__compound_literal.215
                0x2fff67d3        0x1 ./../build/opteemin-sdcard-stm32mp135f-dk/bl2/clk-stm32mp13.o
 .data.__compound_literal.213
                0x2fff67d4        0x1 ./../build/opteemin-sdcard-stm32mp135f-dk/bl2/clk-stm32mp13.o
 .data.__compound_literal.211
                0x2fff67d5        0x1 ./../build/opteemin-sdcard-stm32mp135f-dk/bl2/clk-stm32mp13.o
 .data.__compound_literal.209
                0x2fff67d6        0x1 ./../build/opteemin-sdcard-stm32mp135f-dk/bl2/clk-stm32mp13.o
 .data.__compound_literal.207
                0x2fff67d7        0x1 ./../build/opteemin-sdcard-stm32mp135f-dk/bl2/clk-stm32mp13.o
 .data.__compound_literal.205
                0x2fff67d8        0x1 ./../build/opteemin-sdcard-stm32mp135f-dk/bl2/clk-stm32mp13.o
 .data.__compound_literal.203
                0x2fff67d9        0x1 ./../build/opteemin-sdcard-stm32mp135f-dk/bl2/clk-stm32mp13.o
 .data.__compound_literal.201
                0x2fff67da        0x1 ./../build/opteemin-sdcard-stm32mp135f-dk/bl2/clk-stm32mp13.o
 .data.__compound_literal.199
                0x2fff67db        0x1 ./../build/opteemin-sdcard-stm32mp135f-dk/bl2/clk-stm32mp13.o
 .data.__compound_literal.197
                0x2fff67dc        0x1 ./../build/opteemin-sdcard-stm32mp135f-dk/bl2/clk-stm32mp13.o
 .data.__compound_literal.195
                0x2fff67dd        0x1 ./../build/opteemin-sdcard-stm32mp135f-dk/bl2/clk-stm32mp13.o
 .data.__compound_literal.193
                0x2fff67de        0x1 ./../build/opteemin-sdcard-stm32mp135f-dk/bl2/clk-stm32mp13.o
 .data.__compound_literal.191
                0x2fff67df        0x1 ./../build/opteemin-sdcard-stm32mp135f-dk/bl2/clk-stm32mp13.o
 .data.__compound_literal.189
                0x2fff67e0        0x1 ./../build/opteemin-sdcard-stm32mp135f-dk/bl2/clk-stm32mp13.o
 .data.__compound_literal.187
                0x2fff67e1        0x1 ./../build/opteemin-sdcard-stm32mp135f-dk/bl2/clk-stm32mp13.o
 .data.__compound_literal.185
                0x2fff67e2        0x1 ./../build/opteemin-sdcard-stm32mp135f-dk/bl2/clk-stm32mp13.o
 .data.__compound_literal.183
                0x2fff67e3        0x1 ./../build/opteemin-sdcard-stm32mp135f-dk/bl2/clk-stm32mp13.o
 .data.__compound_literal.181
                0x2fff67e4        0x1 ./../build/opteemin-sdcard-stm32mp135f-dk/bl2/clk-stm32mp13.o
 .data.__compound_literal.179
                0x2fff67e5        0x1 ./../build/opteemin-sdcard-stm32mp135f-dk/bl2/clk-stm32mp13.o
 .data.__compound_literal.177
                0x2fff67e6        0x1 ./../build/opteemin-sdcard-stm32mp135f-dk/bl2/clk-stm32mp13.o
 .data.__compound_literal.175
                0x2fff67e7        0x1 ./../build/opteemin-sdcard-stm32mp135f-dk/bl2/clk-stm32mp13.o
 .data.__compound_literal.173
                0x2fff67e8        0x1 ./../build/opteemin-sdcard-stm32mp135f-dk/bl2/clk-stm32mp13.o
 .data.__compound_literal.171
                0x2fff67e9        0x1 ./../build/opteemin-sdcard-stm32mp135f-dk/bl2/clk-stm32mp13.o
 .data.__compound_literal.169
                0x2fff67ea        0x1 ./../build/opteemin-sdcard-stm32mp135f-dk/bl2/clk-stm32mp13.o
 .data.__compound_literal.167
                0x2fff67eb        0x1 ./../build/opteemin-sdcard-stm32mp135f-dk/bl2/clk-stm32mp13.o
 .data.__compound_literal.165
                0x2fff67ec        0x1 ./../build/opteemin-sdcard-stm32mp135f-dk/bl2/clk-stm32mp13.o
 .data.__compound_literal.163
                0x2fff67ed        0x1 ./../build/opteemin-sdcard-stm32mp135f-dk/bl2/clk-stm32mp13.o
 .data.__compound_literal.161
                0x2fff67ee        0x1 ./../build/opteemin-sdcard-stm32mp135f-dk/bl2/clk-stm32mp13.o
 .data.__compound_literal.159
                0x2fff67ef        0x1 ./../build/opteemin-sdcard-stm32mp135f-dk/bl2/clk-stm32mp13.o
 .data.__compound_literal.157
                0x2fff67f0        0x1 ./../build/opteemin-sdcard-stm32mp135f-dk/bl2/clk-stm32mp13.o
 .data.__compound_literal.155
                0x2fff67f1        0x1 ./../build/opteemin-sdcard-stm32mp135f-dk/bl2/clk-stm32mp13.o
 .data.__compound_literal.153
                0x2fff67f2        0x1 ./../build/opteemin-sdcard-stm32mp135f-dk/bl2/clk-stm32mp13.o
 .data.__compound_literal.151
                0x2fff67f3        0x1 ./../build/opteemin-sdcard-stm32mp135f-dk/bl2/clk-stm32mp13.o
 .data.__compound_literal.149
                0x2fff67f4        0x1 ./../build/opteemin-sdcard-stm32mp135f-dk/bl2/clk-stm32mp13.o
 .data.__compound_literal.147
                0x2fff67f5        0x1 ./../build/opteemin-sdcard-stm32mp135f-dk/bl2/clk-stm32mp13.o
 .data.__compound_literal.145
                0x2fff67f6        0x1 ./../build/opteemin-sdcard-stm32mp135f-dk/bl2/clk-stm32mp13.o
 .data.__compound_literal.143
                0x2fff67f7        0x1 ./../build/opteemin-sdcard-stm32mp135f-dk/bl2/clk-stm32mp13.o
 .data.__compound_literal.141
                0x2fff67f8        0x1 ./../build/opteemin-sdcard-stm32mp135f-dk/bl2/clk-stm32mp13.o
 .data.__compound_literal.139
                0x2fff67f9        0x1 ./../build/opteemin-sdcard-stm32mp135f-dk/bl2/clk-stm32mp13.o
 .data.__compound_literal.137
                0x2fff67fa        0x1 ./../build/opteemin-sdcard-stm32mp135f-dk/bl2/clk-stm32mp13.o
 .data.__compound_literal.135
                0x2fff67fb        0x1 ./../build/opteemin-sdcard-stm32mp135f-dk/bl2/clk-stm32mp13.o
 .data.__compound_literal.133
                0x2fff67fc        0x1 ./../build/opteemin-sdcard-stm32mp135f-dk/bl2/clk-stm32mp13.o
 .data.__compound_literal.131
                0x2fff67fd        0x1 ./../build/opteemin-sdcard-stm32mp135f-dk/bl2/clk-stm32mp13.o
 .data.__compound_literal.129
                0x2fff67fe        0x1 ./../build/opteemin-sdcard-stm32mp135f-dk/bl2/clk-stm32mp13.o
 .data.__compound_literal.127
                0x2fff67ff        0x1 ./../build/opteemin-sdcard-stm32mp135f-dk/bl2/clk-stm32mp13.o
 .data.__compound_literal.125
                0x2fff6800        0x1 ./../build/opteemin-sdcard-stm32mp135f-dk/bl2/clk-stm32mp13.o
 .data.__compound_literal.123
                0x2fff6801        0x1 ./../build/opteemin-sdcard-stm32mp135f-dk/bl2/clk-stm32mp13.o
 .data.__compound_literal.121
                0x2fff6802        0x1 ./../build/opteemin-sdcard-stm32mp135f-dk/bl2/clk-stm32mp13.o
 .data.__compound_literal.119
                0x2fff6803        0x1 ./../build/opteemin-sdcard-stm32mp135f-dk/bl2/clk-stm32mp13.o
 .data.__compound_literal.111
                0x2fff6804        0x1 ./../build/opteemin-sdcard-stm32mp135f-dk/bl2/clk-stm32mp13.o
 .data.__compound_literal.109
                0x2fff6805        0x1 ./../build/opteemin-sdcard-stm32mp135f-dk/bl2/clk-stm32mp13.o
 .data.__compound_literal.107
                0x2fff6806        0x1 ./../build/opteemin-sdcard-stm32mp135f-dk/bl2/clk-stm32mp13.o
 .data.__compound_literal.105
                0x2fff6807        0x1 ./../build/opteemin-sdcard-stm32mp135f-dk/bl2/clk-stm32mp13.o
 .data.__compound_literal.103
                0x2fff6808        0x1 ./../build/opteemin-sdcard-stm32mp135f-dk/bl2/clk-stm32mp13.o
 .data.__compound_literal.101
                0x2fff6809        0x1 ./../build/opteemin-sdcard-stm32mp135f-dk/bl2/clk-stm32mp13.o
 .data.__compound_literal.98
                0x2fff680a        0x1 ./../build/opteemin-sdcard-stm32mp135f-dk/bl2/clk-stm32mp13.o
 .data.__compound_literal.96
                0x2fff680b        0x1 ./../build/opteemin-sdcard-stm32mp135f-dk/bl2/clk-stm32mp13.o
 .data.__compound_literal.94
                0x2fff680c        0x2 ./../build/opteemin-sdcard-stm32mp135f-dk/bl2/clk-stm32mp13.o
 .data.__compound_literal.93
                0x2fff680e        0x2 ./../build/opteemin-sdcard-stm32mp135f-dk/bl2/clk-stm32mp13.o
 .data.__compound_literal.92
                0x2fff6810        0x2 ./../build/opteemin-sdcard-stm32mp135f-dk/bl2/clk-stm32mp13.o
 .data.__compound_literal.91
                0x2fff6812        0x2 ./../build/opteemin-sdcard-stm32mp135f-dk/bl2/clk-stm32mp13.o
 .data.__compound_literal.90
                0x2fff6814        0x2 ./../build/opteemin-sdcard-stm32mp135f-dk/bl2/clk-stm32mp13.o
 .data.__compound_literal.89
                0x2fff6816        0x2 ./../build/opteemin-sdcard-stm32mp135f-dk/bl2/clk-stm32mp13.o
 .data.__compound_literal.88
                0x2fff6818        0x2 ./../build/opteemin-sdcard-stm32mp135f-dk/bl2/clk-stm32mp13.o
 .data.__compound_literal.87
                0x2fff681a        0x2 ./../build/opteemin-sdcard-stm32mp135f-dk/bl2/clk-stm32mp13.o
 .data.__compound_literal.86
                0x2fff681c        0x2 ./../build/opteemin-sdcard-stm32mp135f-dk/bl2/clk-stm32mp13.o
 .data.__compound_literal.84
                0x2fff681e        0x1 ./../build/opteemin-sdcard-stm32mp135f-dk/bl2/clk-stm32mp13.o
 .data.__compound_literal.83
                0x2fff681f        0x2 ./../build/opteemin-sdcard-stm32mp135f-dk/bl2/clk-stm32mp13.o
 .data.__compound_literal.82
                0x2fff6821        0x1 ./../build/opteemin-sdcard-stm32mp135f-dk/bl2/clk-stm32mp13.o
 .data.__compound_literal.81
                0x2fff6822        0x1 ./../build/opteemin-sdcard-stm32mp135f-dk/bl2/clk-stm32mp13.o
 .data.__compound_literal.80
                0x2fff6823        0x1 ./../build/opteemin-sdcard-stm32mp135f-dk/bl2/clk-stm32mp13.o
 .data.__compound_literal.77
                0x2fff6824        0x2 ./../build/opteemin-sdcard-stm32mp135f-dk/bl2/clk-stm32mp13.o
 .data.__compound_literal.75
                0x2fff6826        0x2 ./../build/opteemin-sdcard-stm32mp135f-dk/bl2/clk-stm32mp13.o
 .data.__compound_literal.73
                0x2fff6828        0x1 ./../build/opteemin-sdcard-stm32mp135f-dk/bl2/clk-stm32mp13.o
 .data.__compound_literal.69
                0x2fff6829        0x1 ./../build/opteemin-sdcard-stm32mp135f-dk/bl2/clk-stm32mp13.o
 .data.__compound_literal.67
                0x2fff682a        0x1 ./../build/opteemin-sdcard-stm32mp135f-dk/bl2/clk-stm32mp13.o
 .data.__compound_literal.65
                0x2fff682b        0x1 ./../build/opteemin-sdcard-stm32mp135f-dk/bl2/clk-stm32mp13.o
 .data.__compound_literal.63
                0x2fff682c        0x1 ./../build/opteemin-sdcard-stm32mp135f-dk/bl2/clk-stm32mp13.o
 .data.__compound_literal.59
                0x2fff682d        0x1 ./../build/opteemin-sdcard-stm32mp135f-dk/bl2/clk-stm32mp13.o
 .data.state.0  0x2fff682e        0x1 ./../build/opteemin-sdcard-stm32mp135f-dk/bl2/stm32mp1_private.o
                0x2fff682f                        __DATA_END__ = .
                0x2fff6000                        __DATA_RAM_START__ = __DATA_START__
                0x2fff682f                        __DATA_RAM_END__ = __DATA_END__

.igot.plt       0x2fff6830        0x0
 .igot.plt      0x2fff6830        0x0 ./../build/opteemin-sdcard-stm32mp135f-dk/bl2/bl2_image_load_v2.o

.rel.dyn        0x2fff6830        0x0
                0x2fff6830                        __RELA_START__ = .
 *(SORT_BY_ALIGNMENT(.rel*))
 .rel.iplt      0x2fff6830        0x0 ./../build/opteemin-sdcard-stm32mp135f-dk/bl2/bl2_image_load_v2.o
                0x2fff6830                        __RELA_END__ = .

.stacks         0x2fff6840      0xc00
                0x2fff6840                        __STACKS_START__ = .
 *(SORT_BY_ALIGNMENT(.tzfw_normal_stacks))
 .tzfw_normal_stacks
                0x2fff6840      0xc00 ./../build/opteemin-sdcard-stm32mp135f-dk/bl2/platform_up_stack.o
                0x2fff7440                        __STACKS_END__ = .

.bss            0x2fff7600     0x11e0
                0x2fff7600                        __BSS_START__ = .
 *(SORT_BY_ALIGNMENT(.bss*))
 .bss.block_buffer
                0x2fff7600      0x200 ./../build/opteemin-sdcard-stm32mp135f-dk/bl2/bl2_io_storage.o
 .bss.scr       0x2fff7800        0x8 ./../build/opteemin-sdcard-stm32mp135f-dk/bl2/mmc.o
 *fill*         0x2fff7808        0x8 
 .bss.mmc_ext_csd
                0x2fff7810      0x200 ./../build/opteemin-sdcard-stm32mp135f-dk/bl2/mmc.o
 .bss.state_pool
                0x2fff7a10       0x18 ./../build/opteemin-sdcard-stm32mp135f-dk/bl2/io_block.o
 .bss.current_fip_file
                0x2fff7a28       0x30 ./../build/opteemin-sdcard-stm32mp135f-dk/bl2/io_fip.o
 .bss.list      0x2fff7a58      0x218 ./../build/opteemin-sdcard-stm32mp135f-dk/bl2/partition.o
 .bss.ddr_priv_data
                0x2fff7c70       0x20 ./../build/opteemin-sdcard-stm32mp135f-dk/bl2/stm32mp1_ram.o
 .bss.tf_mmap   0x2fff7c90       0xc0 ./../build/opteemin-sdcard-stm32mp135f-dk/bl2/xlat_tables_context.o
 .bss.mmu_cfg_params
                0x2fff7d50       0x18 ./../build/opteemin-sdcard-stm32mp135f-dk/bl2/xlat_tables_context.o
                0x2fff7d50                mmu_cfg_params
 .bss.mmc_info  0x2fff7d68       0x18 ./../build/opteemin-sdcard-stm32mp135f-dk/bl2/bl2_io_storage.o
 .bss.next_bl_params
                0x2fff7d80        0xc ./../build/opteemin-sdcard-stm32mp135f-dk/bl2/desc_image_load.o
 .bss.bl_load_info
                0x2fff7d8c        0xc ./../build/opteemin-sdcard-stm32mp135f-dk/bl2/desc_image_load.o
 .bss.tzc400    0x2fff7d98        0x8 ./../build/opteemin-sdcard-stm32mp135f-dk/bl2/tzc400.o
 .bss.ops       0x2fff7da0        0x4 ./../build/opteemin-sdcard-stm32mp135f-dk/bl2/clk.o
 .bss.console_list
                0x2fff7da4        0x4 ./../build/opteemin-sdcard-stm32mp135f-dk/bl2/multi_console.o
                0x2fff7da4                console_list
 .bss.timer_ops
                0x2fff7da8        0x4 ./../build/opteemin-sdcard-stm32mp135f-dk/bl2/delay_timer.o
 .bss.ops       0x2fff7dac        0xc ./../build/opteemin-sdcard-stm32mp135f-dk/bl2/generic_delay_timer.o
 .bss.block_dev_count
                0x2fff7db8        0x4 ./../build/opteemin-sdcard-stm32mp135f-dk/bl2/io_block.o
 .bss.dev_info_pool
                0x2fff7dbc        0x8 ./../build/opteemin-sdcard-stm32mp135f-dk/bl2/io_block.o
 .bss.fip_dev_count
                0x2fff7dc4        0x4 ./../build/opteemin-sdcard-stm32mp135f-dk/bl2/io_fip.o
 .bss.dev_info_pool
                0x2fff7dc8        0x8 ./../build/opteemin-sdcard-stm32mp135f-dk/bl2/io_fip.o
 .bss.state_pool
                0x2fff7dd0        0x8 ./../build/opteemin-sdcard-stm32mp135f-dk/bl2/io_fip.o
 .bss.backend_image_spec
                0x2fff7dd8        0x4 ./../build/opteemin-sdcard-stm32mp135f-dk/bl2/io_fip.o
 .bss.backend_dev_handle
                0x2fff7ddc        0x4 ./../build/opteemin-sdcard-stm32mp135f-dk/bl2/io_fip.o
 .bss.dev_count
                0x2fff7de0        0x4 ./../build/opteemin-sdcard-stm32mp135f-dk/bl2/io_storage.o
 .bss.entity_count
                0x2fff7de4        0x4 ./../build/opteemin-sdcard-stm32mp135f-dk/bl2/io_storage.o
 .bss.entity_map
                0x2fff7de8       0x10 ./../build/opteemin-sdcard-stm32mp135f-dk/bl2/io_storage.o
 .bss.entity_pool
                0x2fff7df8       0x20 ./../build/opteemin-sdcard-stm32mp135f-dk/bl2/io_storage.o
 .bss.rca       0x2fff7e18        0x4 ./../build/opteemin-sdcard-stm32mp135f-dk/bl2/mmc.o
 .bss.mmc_dev_info
                0x2fff7e1c        0x4 ./../build/opteemin-sdcard-stm32mp135f-dk/bl2/mmc.o
 .bss.mmc_flags
                0x2fff7e20        0x4 ./../build/opteemin-sdcard-stm32mp135f-dk/bl2/mmc.o
 .bss.mmc_csd   0x2fff7e24       0x10 ./../build/opteemin-sdcard-stm32mp135f-dk/bl2/mmc.o
 .bss.mmc_ocr_value
                0x2fff7e34        0x4 ./../build/opteemin-sdcard-stm32mp135f-dk/bl2/mmc.o
 .bss.ops       0x2fff7e38        0x4 ./../build/opteemin-sdcard-stm32mp135f-dk/bl2/mmc.o
 .bss.bsec_spinlock
                0x2fff7e3c        0x4 ./../build/opteemin-sdcard-stm32mp135f-dk/bl2/bsec2.o
 .bss.stm32_clock_data
                0x2fff7e40        0x4 ./../build/opteemin-sdcard-stm32mp135f-dk/bl2/clk-stm32-core.o
 .bss.refcount_lock
                0x2fff7e44        0x4 ./../build/opteemin-sdcard-stm32mp135f-dk/bl2/clk-stm32-core.o
 .bss.reg_lock  0x2fff7e48        0x4 ./../build/opteemin-sdcard-stm32mp135f-dk/bl2/clk-stm32-core.o
 .bss.mp13_clkdiv
                0x2fff7e4c       0x68 ./../build/opteemin-sdcard-stm32mp135f-dk/bl2/clk-stm32mp13.o
 .bss.mp13_clksrc
                0x2fff7eb4       0xb8 ./../build/opteemin-sdcard-stm32mp135f-dk/bl2/clk-stm32mp13.o
 .bss.mp13_osci
                0x2fff7f6c       0x48 ./../build/opteemin-sdcard-stm32mp135f-dk/bl2/clk-stm32mp13.o
 .bss.mp13_pll  0x2fff7fb4       0xc0 ./../build/opteemin-sdcard-stm32mp135f-dk/bl2/clk-stm32mp13.o
 .bss.__compound_literal.57
                0x2fff8074        0x4 ./../build/opteemin-sdcard-stm32mp135f-dk/bl2/clk-stm32mp13.o
 .bss.stm32_rng
                0x2fff8078       0x10 ./../build/opteemin-sdcard-stm32mp135f-dk/bl2/stm32_rng.o
 .bss.stm32_iwdg
                0x2fff8088       0x20 ./../build/opteemin-sdcard-stm32mp135f-dk/bl2/stm32_iwdg.o
 .bss.sdmmc2_params
                0x2fff80a8       0x34 ./../build/opteemin-sdcard-stm32mp135f-dk/bl2/stm32_sdmmc2.o
 .bss.nvmem_dev_array
                0x2fff80dc        0xc ./../build/opteemin-sdcard-stm32mp135f-dk/bl2/nvmem.o
 .bss.static_bkpreg_zones_end.0
                0x2fff80e8        0xc ./../build/opteemin-sdcard-stm32mp135f-dk/bl2/stm32mp_tamp_nvram_core.o
 .bss.nvram_drv_data
                0x2fff80f4       0x2c ./../build/opteemin-sdcard-stm32mp135f-dk/bl2/stm32mp_tamp_nvram_core.o
 .bss.pmic_i2c_addr
                0x2fff8120        0x4 ./../build/opteemin-sdcard-stm32mp135f-dk/bl2/stm32mp_pmic.o
 .bss.i2c_handle
                0x2fff8124       0x24 ./../build/opteemin-sdcard-stm32mp135f-dk/bl2/stm32mp_pmic.o
 .bss.pmic_i2c_handle
                0x2fff8148        0x4 ./../build/opteemin-sdcard-stm32mp135f-dk/bl2/stpmic1.o
 .bss.rdev_array
                0x2fff814c      0x17c ./../build/opteemin-sdcard-stm32mp135f-dk/bl2/regulator_core.o
 .bss.data      0x2fff82c8       0x68 ./../build/opteemin-sdcard-stm32mp135f-dk/bl2/regulator_fixed.o
 .bss.dtb_infos
                0x2fff8330       0x60 ./../build/opteemin-sdcard-stm32mp135f-dk/bl2/fconf_dyn_cfg_getter.o
 .bss.tf_mapped_regions
                0x2fff8390        0x8 ./../build/opteemin-sdcard-stm32mp135f-dk/bl2/xlat_tables_context.o
 .bss.image_block_spec
                0x2fff8398        0x8 ./../build/opteemin-sdcard-stm32mp135f-dk/bl2/bl2_io_storage.o
                0x2fff8398                image_block_spec
 .bss.mmc_dev_con
                0x2fff83a0        0x4 ./../build/opteemin-sdcard-stm32mp135f-dk/bl2/bl2_io_storage.o
 .bss.fip_dev_con
                0x2fff83a4        0x4 ./../build/opteemin-sdcard-stm32mp135f-dk/bl2/bl2_io_storage.o
 .bss.storage_dev_handle
                0x2fff83a8        0x4 ./../build/opteemin-sdcard-stm32mp135f-dk/bl2/bl2_io_storage.o
                0x2fff83a8                storage_dev_handle
 .bss.fip_dev_handle
                0x2fff83ac        0x4 ./../build/opteemin-sdcard-stm32mp135f-dk/bl2/bl2_io_storage.o
                0x2fff83ac                fip_dev_handle
 .bss.s_boot_mode.0
                0x2fff83b0        0xc ./../build/opteemin-sdcard-stm32mp135f-dk/bl2/stm32mp_common.o
 .bss.s_fwu_info.2
                0x2fff83bc        0xc ./../build/opteemin-sdcard-stm32mp135f-dk/bl2/stm32mp_common.o
 .bss.boot_action_saved
                0x2fff83c8        0x4 ./../build/opteemin-sdcard-stm32mp135f-dk/bl2/stm32mp_common.o
 .bss.boot_ctx_address
                0x2fff83cc        0x4 ./../build/opteemin-sdcard-stm32mp135f-dk/bl2/stm32mp_common.o
 .bss.lock      0x2fff83d0        0x4 ./../build/opteemin-sdcard-stm32mp135f-dk/bl2/stm32mp_common.o
 .bss.console_clk
                0x2fff83d4        0x4 ./../build/opteemin-sdcard-stm32mp135f-dk/bl2/stm32mp_common.o
 .bss.console   0x2fff83d8       0x14 ./../build/opteemin-sdcard-stm32mp135f-dk/bl2/stm32mp_common.o
 .bss.size.1    0x2fff83ec        0x4 ./../build/opteemin-sdcard-stm32mp135f-dk/bl2/stm32mp_dt.o
 .bss.fdt       0x2fff83f0        0x4 ./../build/opteemin-sdcard-stm32mp135f-dk/bl2/stm32mp_dt.o
 .bss.metadata_block_spec
                0x2fff83f4        0x8 ./../build/opteemin-sdcard-stm32mp135f-dk/bl2/stm32mp_fconf_io.o
 .bss.nb_regions
                0x2fff83fc        0x4 ./../build/opteemin-sdcard-stm32mp135f-dk/bl2/stm32mp1_fconf_firewall.o
 .bss.part_number.2
                0x2fff8400        0x4 ./../build/opteemin-sdcard-stm32mp135f-dk/bl2/stm32mp1_private.o
 .bss.sd_switch_func_status
                0x2fff8404       0x40 ./../build/opteemin-sdcard-stm32mp135f-dk/bl2/mmc.o
 .bss.pmic_i2c_addr
                0x2fff8444        0x2 ./../build/opteemin-sdcard-stm32mp135f-dk/bl2/stpmic1.o
 .bss.boot_itf_selected
                0x2fff8446        0x2 ./../build/opteemin-sdcard-stm32mp135f-dk/bl2/stm32mp_common.o
 .bss.is_metadata_initialized
                0x2fff8448        0x1 ./../build/opteemin-sdcard-stm32mp135f-dk/bl2/fwu.o
 .bss.metadata  0x2fff8449       0x78 ./../build/opteemin-sdcard-stm32mp135f-dk/bl2/fwu.o
 .bss.mbr_sector
                0x2fff84c1      0x200 ./../build/opteemin-sdcard-stm32mp135f-dk/bl2/partition.o
 .bss.__compound_literal.79
                0x2fff86c1        0x1 ./../build/opteemin-sdcard-stm32mp135f-dk/bl2/clk-stm32mp13.o
 .bss.__compound_literal.61
                0x2fff86c2        0x1 ./../build/opteemin-sdcard-stm32mp135f-dk/bl2/clk-stm32mp13.o
 .bss.refcounts_mp13
                0x2fff86c3       0x61 ./../build/opteemin-sdcard-stm32mp135f-dk/bl2/clk-stm32mp13.o
 .bss.ddr_self_refresh
                0x2fff8724        0x1 ./../build/opteemin-sdcard-stm32mp135f-dk/bl2/stm32mp1_ram.o
 .bss.host_interface_reenable_request
                0x2fff8725        0x1 ./../build/opteemin-sdcard-stm32mp135f-dk/bl2/stm32mp_ddr.o
 .bss.axi_port_reenable_request
                0x2fff8726        0x1 ./../build/opteemin-sdcard-stm32mp135f-dk/bl2/stm32mp_ddr.o
 .bss.next_cmd_is_acmd
                0x2fff8727        0x1 ./../build/opteemin-sdcard-stm32mp135f-dk/bl2/stm32_sdmmc2.o
 .bss.ldo3_special_mode
                0x2fff8728        0x1 ./../build/opteemin-sdcard-stm32mp135f-dk/bl2/stpmic1.o
 .bss.gpt_init_done.4
                0x2fff8729        0x1 ./../build/opteemin-sdcard-stm32mp135f-dk/bl2/bl2_io_storage.o
 .bss.initialized.1
                0x2fff872a        0x1 ./../build/opteemin-sdcard-stm32mp135f-dk/bl2/stm32mp_common.o
 .bss.initialized.3
                0x2fff872b        0x1 ./../build/opteemin-sdcard-stm32mp135f-dk/bl2/stm32mp_common.o
 .bss.fconf_stm32mp_uuids
                0x2fff872c       0x70 ./../build/opteemin-sdcard-stm32mp135f-dk/bl2/stm32mp_fconf_io.o
 *(SORT_BY_ALIGNMENT(COMMON))
                0x2fff87c0                        . = ALIGN (0x40)
 *fill*         0x2fff879c       0x24 
                0x2fff87c0                        __BAKERY_LOCK_START__ = .
                0x2fff87c0                        __PERCPU_BAKERY_LOCK_START__ = .
 *(SORT_BY_ALIGNMENT(.bakery_lock))
                0x2fff87c0                        . = ALIGN (0x40)
                0x2fff87c0                        __PERCPU_BAKERY_LOCK_END__ = .
                0x00000000                        __PERCPU_BAKERY_LOCK_SIZE__ = ABSOLUTE ((__PERCPU_BAKERY_LOCK_END__ - __PERCPU_BAKERY_LOCK_START__))
                0x2fff87c0                        . = (. + (__PERCPU_BAKERY_LOCK_SIZE__ * 0x1))
                0x2fff87c0                        __BAKERY_LOCK_END__ = .
                0x2fff87c0                        . = ALIGN (0x40)
                0x2fff87c0                        __PMF_TIMESTAMP_START__ = .
 *(SORT_BY_ALIGNMENT(.pmf_timestamp_array))
                0x2fff87c0                        . = ALIGN (0x40)
                0x2fff87c0                        __PMF_PERCPU_TIMESTAMP_END__ = .
                0x00000000                        __PERCPU_TIMESTAMP_SIZE__ = ABSOLUTE ((. - __PMF_TIMESTAMP_START__))
                0x2fff87c0                        . = (. + (__PERCPU_TIMESTAMP_SIZE__ * 0x1))
                0x2fff87c0                        __PMF_TIMESTAMP_END__ = .
                0x2fff87c0                        . = ALIGN (0x10)
                0x2fff87c0                        __BASE_XLAT_TABLE_START__ = .
 *(SORT_BY_ALIGNMENT(.base_xlat_table))
 .base_xlat_table
                0x2fff87c0       0x20 ./../build/opteemin-sdcard-stm32mp135f-dk/bl2/xlat_tables_context.o
                0x2fff87e0                        __BASE_XLAT_TABLE_END__ = .
                0x2fff87e0                        __BSS_END__ = .

.xlat_table     0x2fff9000     0x2000
                0x2fff9000                        __XLAT_TABLE_START__ = .
 *(SORT_BY_ALIGNMENT(.xlat_table))
 .xlat_table    0x2fff9000     0x2000 ./../build/opteemin-sdcard-stm32mp135f-dk/bl2/xlat_tables_context.o
                0x2fffb000                        __XLAT_TABLE_END__ = .
                0x2fffb000                        __RW_END__ = .
                0x2fffb000                        __BL2_END__ = .

/DISCARD/
 *(SORT_BY_ALIGNMENT(.dynsym) SORT_BY_ALIGNMENT(.dynstr) SORT_BY_ALIGNMENT(.hash) SORT_BY_ALIGNMENT(.gnu.hash))
                0x000011e0                        __BSS_SIZE__ = SIZEOF (.bss)
                0x2fffb000                        RAM_REGION_END = .
                0x00000001                        ASSERT ((. <= 0x2ffff000), BL2 image has exceeded its limit.)
LOAD ./../build/opteemin-sdcard-stm32mp135f-dk/bl2/build_message.o
LOAD ./../build/opteemin-sdcard-stm32mp135f-dk/bl2/bl2_arch_setup.o
LOAD ./../build/opteemin-sdcard-stm32mp135f-dk/bl2/bl2_image_load_v2.o
LOAD ./../build/opteemin-sdcard-stm32mp135f-dk/bl2/bl2_main.o
LOAD ./../build/opteemin-sdcard-stm32mp135f-dk/bl2/bl_common.o
LOAD ./../build/opteemin-sdcard-stm32mp135f-dk/bl2/desc_image_load.o
LOAD ./../build/opteemin-sdcard-stm32mp135f-dk/bl2/fdt_wrappers.o
LOAD ./../build/opteemin-sdcard-stm32mp135f-dk/bl2/tf_log.o
LOAD ./../build/opteemin-sdcard-stm32mp135f-dk/bl2/uuid.o
LOAD ./../build/opteemin-sdcard-stm32mp135f-dk/bl2/tzc400.o
LOAD ./../build/opteemin-sdcard-stm32mp135f-dk/bl2/clk.o
LOAD ./../build/opteemin-sdcard-stm32mp135f-dk/bl2/multi_console.o
LOAD ./../build/opteemin-sdcard-stm32mp135f-dk/bl2/delay_timer.o
LOAD ./../build/opteemin-sdcard-stm32mp135f-dk/bl2/generic_delay_timer.o
LOAD ./../build/opteemin-sdcard-stm32mp135f-dk/bl2/fwu.o
LOAD ./../build/opteemin-sdcard-stm32mp135f-dk/bl2/io_block.o
LOAD ./../build/opteemin-sdcard-stm32mp135f-dk/bl2/io_fip.o
LOAD ./../build/opteemin-sdcard-stm32mp135f-dk/bl2/io_mtd.o
LOAD ./../build/opteemin-sdcard-stm32mp135f-dk/bl2/io_storage.o
LOAD ./../build/opteemin-sdcard-stm32mp135f-dk/bl2/mmc.o
LOAD ./../build/opteemin-sdcard-stm32mp135f-dk/bl2/gpt.o
LOAD ./../build/opteemin-sdcard-stm32mp135f-dk/bl2/partition.o
LOAD ./../build/opteemin-sdcard-stm32mp135f-dk/bl2/bsec2.o
LOAD ./../build/opteemin-sdcard-stm32mp135f-dk/bl2/clk-stm32-core.o
LOAD ./../build/opteemin-sdcard-stm32mp135f-dk/bl2/clk-stm32mp13.o
LOAD ./../build/opteemin-sdcard-stm32mp135f-dk/bl2/stm32mp_clkfunc.o
LOAD ./../build/opteemin-sdcard-stm32mp135f-dk/bl2/stm32_hash.o
LOAD ./../build/opteemin-sdcard-stm32mp135f-dk/bl2/stm32_rng.o
LOAD ./../build/opteemin-sdcard-stm32mp135f-dk/bl2/stm32mp1_ddr.o
LOAD ./../build/opteemin-sdcard-stm32mp135f-dk/bl2/stm32mp1_ddr_helpers.o
LOAD ./../build/opteemin-sdcard-stm32mp135f-dk/bl2/stm32mp1_ram.o
LOAD ./../build/opteemin-sdcard-stm32mp135f-dk/bl2/stm32mp_ddr.o
LOAD ./../build/opteemin-sdcard-stm32mp135f-dk/bl2/stm32mp_ddr_test.o
LOAD ./../build/opteemin-sdcard-stm32mp135f-dk/bl2/stm32mp_ram.o
LOAD ./../build/opteemin-sdcard-stm32mp135f-dk/bl2/stm32_gpio.o
LOAD ./../build/opteemin-sdcard-stm32mp135f-dk/bl2/stm32_i2c.o
LOAD ./../build/opteemin-sdcard-stm32mp135f-dk/bl2/stm32_iwdg.o
LOAD ./../build/opteemin-sdcard-stm32mp135f-dk/bl2/stm32_mce.o
LOAD ./../build/opteemin-sdcard-stm32mp135f-dk/bl2/stm32_sdmmc2.o
LOAD ./../build/opteemin-sdcard-stm32mp135f-dk/bl2/nvmem.o
LOAD ./../build/opteemin-sdcard-stm32mp135f-dk/bl2/stm32mp_tamp_nvram_core.o
LOAD ./../build/opteemin-sdcard-stm32mp135f-dk/bl2/stm32mp_tamp_nvram_mp1.o
LOAD ./../build/opteemin-sdcard-stm32mp135f-dk/bl2/stm32mp_pmic.o
LOAD ./../build/opteemin-sdcard-stm32mp135f-dk/bl2/stpmic1.o
LOAD ./../build/opteemin-sdcard-stm32mp135f-dk/bl2/regulator_core.o
LOAD ./../build/opteemin-sdcard-stm32mp135f-dk/bl2/regulator_fixed.o
LOAD ./../build/opteemin-sdcard-stm32mp135f-dk/bl2/regulator_gpio.o
LOAD ./../build/opteemin-sdcard-stm32mp135f-dk/bl2/stm32mp1_reset.o
LOAD ./../build/opteemin-sdcard-stm32mp135f-dk/bl2/ctzdi2.o
LOAD ./../build/opteemin-sdcard-stm32mp135f-dk/bl2/divdi3.o
LOAD ./../build/opteemin-sdcard-stm32mp135f-dk/bl2/divmoddi4.o
LOAD ./../build/opteemin-sdcard-stm32mp135f-dk/bl2/lshrdi3.o
LOAD ./../build/opteemin-sdcard-stm32mp135f-dk/bl2/popcountdi2.o
LOAD ./../build/opteemin-sdcard-stm32mp135f-dk/bl2/popcountsi2.o
LOAD ./../build/opteemin-sdcard-stm32mp135f-dk/bl2/udivmoddi4.o
LOAD ./../build/opteemin-sdcard-stm32mp135f-dk/bl2/pmuv3.o
LOAD ./../build/opteemin-sdcard-stm32mp135f-dk/bl2/fconf.o
LOAD ./../build/opteemin-sdcard-stm32mp135f-dk/bl2/fconf_dyn_cfg_getter.o
LOAD ./../build/opteemin-sdcard-stm32mp135f-dk/bl2/optee_utils.o
LOAD ./../build/opteemin-sdcard-stm32mp135f-dk/bl2/xlat_tables_arch.o
LOAD ./../build/opteemin-sdcard-stm32mp135f-dk/bl2/xlat_tables_context.o
LOAD ./../build/opteemin-sdcard-stm32mp135f-dk/bl2/xlat_tables_core.o
LOAD ./../build/opteemin-sdcard-stm32mp135f-dk/bl2/xlat_tables_utils.o
LOAD ./../build/opteemin-sdcard-stm32mp135f-dk/bl2/adler32.o
LOAD ./../build/opteemin-sdcard-stm32mp135f-dk/bl2/crc32.o
LOAD ./../build/opteemin-sdcard-stm32mp135f-dk/bl2/inffast.o
LOAD ./../build/opteemin-sdcard-stm32mp135f-dk/bl2/inflate.o
LOAD ./../build/opteemin-sdcard-stm32mp135f-dk/bl2/inftrees.o
LOAD ./../build/opteemin-sdcard-stm32mp135f-dk/bl2/tf_gunzip.o
LOAD ./../build/opteemin-sdcard-stm32mp135f-dk/bl2/zutil.o
LOAD ./../build/opteemin-sdcard-stm32mp135f-dk/bl2/plat_common.o
LOAD ./../build/opteemin-sdcard-stm32mp135f-dk/bl2/plat_bl_common.o
LOAD ./../build/opteemin-sdcard-stm32mp135f-dk/bl2/plat_log_common.o
LOAD ./../build/opteemin-sdcard-stm32mp135f-dk/bl2/bl2_io_storage.o
LOAD ./../build/opteemin-sdcard-stm32mp135f-dk/bl2/plat_image_load.o
LOAD ./../build/opteemin-sdcard-stm32mp135f-dk/bl2/stm32mp_common.o
LOAD ./../build/opteemin-sdcard-stm32mp135f-dk/bl2/stm32mp_dt.o
LOAD ./../build/opteemin-sdcard-stm32mp135f-dk/bl2/stm32mp_fconf_fuse.o
LOAD ./../build/opteemin-sdcard-stm32mp135f-dk/bl2/stm32mp_fconf_io.o
LOAD ./../build/opteemin-sdcard-stm32mp135f-dk/bl2/bl2_plat_setup.o
LOAD ./../build/opteemin-sdcard-stm32mp135f-dk/bl2/plat_bl2_mem_params_desc.o
LOAD ./../build/opteemin-sdcard-stm32mp135f-dk/bl2/plat_ddr.o
LOAD ./../build/opteemin-sdcard-stm32mp135f-dk/bl2/stm32mp1_context.o
LOAD ./../build/opteemin-sdcard-stm32mp135f-dk/bl2/stm32mp1_critic_power.o
LOAD ./../build/opteemin-sdcard-stm32mp135f-dk/bl2/stm32mp1_dbgmcu.o
LOAD ./../build/opteemin-sdcard-stm32mp135f-dk/bl2/stm32mp1_fconf_firewall.o
LOAD ./../build/opteemin-sdcard-stm32mp135f-dk/bl2/stm32mp1_private.o
LOAD ./../build/opteemin-sdcard-stm32mp135f-dk/bl2/stm32mp1_syscfg.o
LOAD ./../build/opteemin-sdcard-stm32mp135f-dk/bl2/bl2_el3_entrypoint.o
LOAD ./../build/opteemin-sdcard-stm32mp135f-dk/bl2/bl2_el3_exceptions.o
LOAD ./../build/opteemin-sdcard-stm32mp135f-dk/bl2/bl2_run_next_image.o
LOAD ./../build/opteemin-sdcard-stm32mp135f-dk/bl2/debug.o
LOAD ./../build/opteemin-sdcard-stm32mp135f-dk/bl2/stm32_console.o
LOAD ./../build/opteemin-sdcard-stm32mp135f-dk/bl2/cache_helpers.o
LOAD ./../build/opteemin-sdcard-stm32mp135f-dk/bl2/misc_helpers.o
LOAD ./../build/opteemin-sdcard-stm32mp135f-dk/bl2/aeabi_ldivmod.o
LOAD ./../build/opteemin-sdcard-stm32mp135f-dk/bl2/aeabi_memcpy.o
LOAD ./../build/opteemin-sdcard-stm32mp135f-dk/bl2/aeabi_memset.o
LOAD ./../build/opteemin-sdcard-stm32mp135f-dk/bl2/aeabi_uldivmod.o
LOAD ./../build/opteemin-sdcard-stm32mp135f-dk/bl2/cortex_a7.o
LOAD ./../build/opteemin-sdcard-stm32mp135f-dk/bl2/cpu_helpers.o
LOAD ./../build/opteemin-sdcard-stm32mp135f-dk/bl2/spinlock.o
LOAD ./../build/opteemin-sdcard-stm32mp135f-dk/bl2/enable_mmu.o
LOAD ./../build/opteemin-sdcard-stm32mp135f-dk/bl2/platform_helpers.o
LOAD ./../build/opteemin-sdcard-stm32mp135f-dk/bl2/platform_up_stack.o
LOAD ./../build/opteemin-sdcard-stm32mp135f-dk/bl2/stm32mp1_critic_power_wrapper.o
LOAD ./../build/opteemin-sdcard-stm32mp135f-dk/bl2/stm32mp1_helper.o
LOAD ./../build/opteemin-sdcard-stm32mp135f-dk/lib/libfdt.a
LOAD ./../build/opteemin-sdcard-stm32mp135f-dk/lib/libc.a
OUTPUT(../build/opteemin-sdcard-stm32mp135f-dk/bl2/bl2.elf elf32-littlearm)
LOAD linker stubs

.debug_info     0x00000000    0x4b794
 .debug_info    0x00000000       0xa6 ./../build/opteemin-sdcard-stm32mp135f-dk/bl2/build_message.o
 .debug_info    0x000000a6       0xc6 ./../build/opteemin-sdcard-stm32mp135f-dk/bl2/bl2_arch_setup.o
 .debug_info    0x0000016c      0x582 ./../build/opteemin-sdcard-stm32mp135f-dk/bl2/bl2_image_load_v2.o
 .debug_info    0x000006ee      0x46a ./../build/opteemin-sdcard-stm32mp135f-dk/bl2/bl2_main.o
 .debug_info    0x00000b58      0x70a ./../build/opteemin-sdcard-stm32mp135f-dk/bl2/bl_common.o
 .debug_info    0x00001262      0x964 ./../build/opteemin-sdcard-stm32mp135f-dk/bl2/desc_image_load.o
 .debug_info    0x00001bc6     0x1b58 ./../build/opteemin-sdcard-stm32mp135f-dk/bl2/fdt_wrappers.o
 .debug_info    0x0000371e      0x2c5 ./../build/opteemin-sdcard-stm32mp135f-dk/bl2/tf_log.o
 .debug_info    0x000039e3      0x653 ./../build/opteemin-sdcard-stm32mp135f-dk/bl2/uuid.o
 .debug_info    0x00004036     0x14c0 ./../build/opteemin-sdcard-stm32mp135f-dk/bl2/tzc400.o
 .debug_info    0x000054f6      0x2f5 ./../build/opteemin-sdcard-stm32mp135f-dk/bl2/clk.o
 .debug_info    0x000057eb      0x513 ./../build/opteemin-sdcard-stm32mp135f-dk/bl2/multi_console.o
 .debug_info    0x00005cfe      0x2d3 ./../build/opteemin-sdcard-stm32mp135f-dk/bl2/delay_timer.o
 .debug_info    0x00005fd1      0x33d ./../build/opteemin-sdcard-stm32mp135f-dk/bl2/generic_delay_timer.o
 .debug_info    0x0000630e      0x79e ./../build/opteemin-sdcard-stm32mp135f-dk/bl2/fwu.o
 .debug_info    0x00006aac      0xe6e ./../build/opteemin-sdcard-stm32mp135f-dk/bl2/io_block.o
 .debug_info    0x0000791a     0x12a8 ./../build/opteemin-sdcard-stm32mp135f-dk/bl2/io_fip.o
 .debug_info    0x00008bc2     0x1029 ./../build/opteemin-sdcard-stm32mp135f-dk/bl2/io_storage.o
 .debug_info    0x00009beb     0x1bb7 ./../build/opteemin-sdcard-stm32mp135f-dk/bl2/mmc.o
 .debug_info    0x0000b7a2      0x436 ./../build/opteemin-sdcard-stm32mp135f-dk/bl2/gpt.o
 .debug_info    0x0000bbd8     0x1259 ./../build/opteemin-sdcard-stm32mp135f-dk/bl2/partition.o
 .debug_info    0x0000ce31     0x1655 ./../build/opteemin-sdcard-stm32mp135f-dk/bl2/bsec2.o
 .debug_info    0x0000e486     0x381f ./../build/opteemin-sdcard-stm32mp135f-dk/bl2/clk-stm32-core.o
 .debug_info    0x00011ca5     0x5f77 ./../build/opteemin-sdcard-stm32mp135f-dk/bl2/clk-stm32mp13.o
 .debug_info    0x00017c1c      0xeb4 ./../build/opteemin-sdcard-stm32mp135f-dk/bl2/stm32mp_clkfunc.o
 .debug_info    0x00018ad0     0x112d ./../build/opteemin-sdcard-stm32mp135f-dk/bl2/stm32_rng.o
 .debug_info    0x00019bfd     0x3ddc ./../build/opteemin-sdcard-stm32mp135f-dk/bl2/stm32mp1_ddr.o
 .debug_info    0x0001d9d9     0x3db7 ./../build/opteemin-sdcard-stm32mp135f-dk/bl2/stm32mp1_ddr_helpers.o
 .debug_info    0x00021790     0x1a58 ./../build/opteemin-sdcard-stm32mp135f-dk/bl2/stm32mp1_ram.o
 .debug_info    0x000231e8     0x2387 ./../build/opteemin-sdcard-stm32mp135f-dk/bl2/stm32mp_ddr.o
 .debug_info    0x0002556f      0x808 ./../build/opteemin-sdcard-stm32mp135f-dk/bl2/stm32mp_ddr_test.o
 .debug_info    0x00025d77      0x3f7 ./../build/opteemin-sdcard-stm32mp135f-dk/bl2/stm32mp_ram.o
 .debug_info    0x0002616e     0x1674 ./../build/opteemin-sdcard-stm32mp135f-dk/bl2/stm32_gpio.o
 .debug_info    0x000277e2     0x31e5 ./../build/opteemin-sdcard-stm32mp135f-dk/bl2/stm32_i2c.o
 .debug_info    0x0002a9c7      0xa0c ./../build/opteemin-sdcard-stm32mp135f-dk/bl2/stm32_iwdg.o
 .debug_info    0x0002b3d3     0x12e2 ./../build/opteemin-sdcard-stm32mp135f-dk/bl2/stm32_mce.o
 .debug_info    0x0002c6b5     0x21f5 ./../build/opteemin-sdcard-stm32mp135f-dk/bl2/stm32_sdmmc2.o
 .debug_info    0x0002e8aa      0x7c0 ./../build/opteemin-sdcard-stm32mp135f-dk/bl2/nvmem.o
 .debug_info    0x0002f06a     0x13f0 ./../build/opteemin-sdcard-stm32mp135f-dk/bl2/stm32mp_tamp_nvram_core.o
 .debug_info    0x0003045a      0x31b ./../build/opteemin-sdcard-stm32mp135f-dk/bl2/stm32mp_tamp_nvram_mp1.o
 .debug_info    0x00030775     0x150b ./../build/opteemin-sdcard-stm32mp135f-dk/bl2/stm32mp_pmic.o
 .debug_info    0x00031c80     0x1072 ./../build/opteemin-sdcard-stm32mp135f-dk/bl2/stpmic1.o
 .debug_info    0x00032cf2     0x12e9 ./../build/opteemin-sdcard-stm32mp135f-dk/bl2/regulator_core.o
 .debug_info    0x00033fdb      0x5fc ./../build/opteemin-sdcard-stm32mp135f-dk/bl2/regulator_fixed.o
 .debug_info    0x000345d7      0x751 ./../build/opteemin-sdcard-stm32mp135f-dk/bl2/stm32mp1_reset.o
 .debug_info    0x00034d28      0x171 ./../build/opteemin-sdcard-stm32mp135f-dk/bl2/ctzdi2.o
 .debug_info    0x00034e99      0x20b ./../build/opteemin-sdcard-stm32mp135f-dk/bl2/udivmoddi4.o
 .debug_info    0x000350a4      0x4fb ./../build/opteemin-sdcard-stm32mp135f-dk/bl2/fconf.o
 .debug_info    0x0003559f      0x8af ./../build/opteemin-sdcard-stm32mp135f-dk/bl2/fconf_dyn_cfg_getter.o
 .debug_info    0x00035e4e      0x649 ./../build/opteemin-sdcard-stm32mp135f-dk/bl2/optee_utils.o
 .debug_info    0x00036497      0x948 ./../build/opteemin-sdcard-stm32mp135f-dk/bl2/xlat_tables_arch.o
 .debug_info    0x00036ddf      0xa92 ./../build/opteemin-sdcard-stm32mp135f-dk/bl2/xlat_tables_context.o
 .debug_info    0x00037871     0x1872 ./../build/opteemin-sdcard-stm32mp135f-dk/bl2/xlat_tables_core.o
 .debug_info    0x000390e3      0x9d9 ./../build/opteemin-sdcard-stm32mp135f-dk/bl2/xlat_tables_utils.o
 .debug_info    0x00039abc      0x504 ./../build/opteemin-sdcard-stm32mp135f-dk/bl2/crc32.o
 .debug_info    0x00039fc0      0x5e2 ./../build/opteemin-sdcard-stm32mp135f-dk/bl2/tf_gunzip.o
 .debug_info    0x0003a5a2      0x4bc ./../build/opteemin-sdcard-stm32mp135f-dk/bl2/plat_bl_common.o
 .debug_info    0x0003aa5e      0x163 ./../build/opteemin-sdcard-stm32mp135f-dk/bl2/plat_log_common.o
 .debug_info    0x0003abc1     0x1c61 ./../build/opteemin-sdcard-stm32mp135f-dk/bl2/bl2_io_storage.o
 .debug_info    0x0003c822      0x3f5 ./../build/opteemin-sdcard-stm32mp135f-dk/bl2/plat_image_load.o
 .debug_info    0x0003cc17     0x1d46 ./../build/opteemin-sdcard-stm32mp135f-dk/bl2/stm32mp_common.o
 .debug_info    0x0003e95d     0x13ae ./../build/opteemin-sdcard-stm32mp135f-dk/bl2/stm32mp_dt.o
 .debug_info    0x0003fd0b      0x66e ./../build/opteemin-sdcard-stm32mp135f-dk/bl2/stm32mp_fconf_fuse.o
 .debug_info    0x00040379      0x7b8 ./../build/opteemin-sdcard-stm32mp135f-dk/bl2/stm32mp_fconf_io.o
 .debug_info    0x00040b31     0x1c96 ./../build/opteemin-sdcard-stm32mp135f-dk/bl2/bl2_plat_setup.o
 .debug_info    0x000427c7      0x3be ./../build/opteemin-sdcard-stm32mp135f-dk/bl2/plat_bl2_mem_params_desc.o
 .debug_info    0x00042b85      0x6cb ./../build/opteemin-sdcard-stm32mp135f-dk/bl2/plat_ddr.o
 .debug_info    0x00043250      0x9c6 ./../build/opteemin-sdcard-stm32mp135f-dk/bl2/stm32mp1_context.o
 .debug_info    0x00043c16      0x416 ./../build/opteemin-sdcard-stm32mp135f-dk/bl2/stm32mp1_critic_power.o
 .debug_info    0x0004402c      0x668 ./../build/opteemin-sdcard-stm32mp135f-dk/bl2/stm32mp1_fconf_firewall.o
 .debug_info    0x00044694      0xadd ./../build/opteemin-sdcard-stm32mp135f-dk/bl2/stm32mp1_private.o
 .debug_info    0x00045171      0xf6e ./../build/opteemin-sdcard-stm32mp135f-dk/bl2/stm32mp1_syscfg.o
 .debug_info    0x000460df       0x32 ./../build/opteemin-sdcard-stm32mp135f-dk/bl2/bl2_el3_entrypoint.o
 .debug_info    0x00046111       0x23 ./../build/opteemin-sdcard-stm32mp135f-dk/bl2/bl2_el3_exceptions.o
 .debug_info    0x00046134       0x30 ./../build/opteemin-sdcard-stm32mp135f-dk/bl2/bl2_run_next_image.o
 .debug_info    0x00046164       0x71 ./../build/opteemin-sdcard-stm32mp135f-dk/bl2/debug.o
 .debug_info    0x000461d5       0x72 ./../build/opteemin-sdcard-stm32mp135f-dk/bl2/stm32_console.o
 .debug_info    0x00046247       0x9a ./../build/opteemin-sdcard-stm32mp135f-dk/bl2/cache_helpers.o
 .debug_info    0x000462e1       0x72 ./../build/opteemin-sdcard-stm32mp135f-dk/bl2/misc_helpers.o
 .debug_info    0x00046353       0x30 ./../build/opteemin-sdcard-stm32mp135f-dk/bl2/aeabi_uldivmod.o
 .debug_info    0x00046383       0x5b ./../build/opteemin-sdcard-stm32mp135f-dk/bl2/cortex_a7.o
 .debug_info    0x000463de       0x5b ./../build/opteemin-sdcard-stm32mp135f-dk/bl2/cpu_helpers.o
 .debug_info    0x00046439       0x3a ./../build/opteemin-sdcard-stm32mp135f-dk/bl2/spinlock.o
 .debug_info    0x00046473       0x3a ./../build/opteemin-sdcard-stm32mp135f-dk/bl2/enable_mmu.o
 .debug_info    0x000464ad       0x3a ./../build/opteemin-sdcard-stm32mp135f-dk/bl2/platform_up_stack.o
 .debug_info    0x000464e7       0x3a ./../build/opteemin-sdcard-stm32mp135f-dk/bl2/stm32mp1_critic_power_wrapper.o
 .debug_info    0x00046521       0xdb ./../build/opteemin-sdcard-stm32mp135f-dk/bl2/stm32mp1_helper.o
 .debug_info    0x000465fc      0xdb0 ./../build/opteemin-sdcard-stm32mp135f-dk/lib/libfdt.a(fdt.o)
 .debug_info    0x000473ac      0x5ba ./../build/opteemin-sdcard-stm32mp135f-dk/lib/libfdt.a(fdt_addresses.o)
 .debug_info    0x00047966     0x274c ./../build/opteemin-sdcard-stm32mp135f-dk/lib/libfdt.a(fdt_ro.o)
 .debug_info    0x0004a0b2      0x158 ./../build/opteemin-sdcard-stm32mp135f-dk/lib/libc.a(assert.o)
 .debug_info    0x0004a20a       0xd0 ./../build/opteemin-sdcard-stm32mp135f-dk/lib/libc.a(memchr.o)
 .debug_info    0x0004a2da      0x106 ./../build/opteemin-sdcard-stm32mp135f-dk/lib/libc.a(memcmp.o)
 .debug_info    0x0004a3e0       0xdd ./../build/opteemin-sdcard-stm32mp135f-dk/lib/libc.a(memcpy.o)
 .debug_info    0x0004a4bd      0x152 ./../build/opteemin-sdcard-stm32mp135f-dk/lib/libc.a(memmove.o)
 .debug_info    0x0004a60f      0x137 ./../build/opteemin-sdcard-stm32mp135f-dk/lib/libc.a(memset.o)
 .debug_info    0x0004a746      0x6aa ./../build/opteemin-sdcard-stm32mp135f-dk/lib/libc.a(printf.o)
 .debug_info    0x0004adf0      0x4ad ./../build/opteemin-sdcard-stm32mp135f-dk/lib/libc.a(snprintf.o)
 .debug_info    0x0004b29d       0xac ./../build/opteemin-sdcard-stm32mp135f-dk/lib/libc.a(strchr.o)
 .debug_info    0x0004b349       0x8e ./../build/opteemin-sdcard-stm32mp135f-dk/lib/libc.a(strcmp.o)
 .debug_info    0x0004b3d7      0x10f ./../build/opteemin-sdcard-stm32mp135f-dk/lib/libc.a(strlcpy.o)
 .debug_info    0x0004b4e6       0x9a ./../build/opteemin-sdcard-stm32mp135f-dk/lib/libc.a(strlen.o)
 .debug_info    0x0004b580       0xb3 ./../build/opteemin-sdcard-stm32mp135f-dk/lib/libc.a(strncmp.o)
 .debug_info    0x0004b633       0xa1 ./../build/opteemin-sdcard-stm32mp135f-dk/lib/libc.a(strnlen.o)
 .debug_info    0x0004b6d4       0xc0 ./../build/opteemin-sdcard-stm32mp135f-dk/lib/libc.a(strrchr.o)

.debug_abbrev   0x00000000     0xe596
 .debug_abbrev  0x00000000       0x47 ./../build/opteemin-sdcard-stm32mp135f-dk/bl2/build_message.o
 .debug_abbrev  0x00000047       0x69 ./../build/opteemin-sdcard-stm32mp135f-dk/bl2/bl2_arch_setup.o
 .debug_abbrev  0x000000b0      0x184 ./../build/opteemin-sdcard-stm32mp135f-dk/bl2/bl2_image_load_v2.o
 .debug_abbrev  0x00000234      0x1ca ./../build/opteemin-sdcard-stm32mp135f-dk/bl2/bl2_main.o
 .debug_abbrev  0x000003fe      0x269 ./../build/opteemin-sdcard-stm32mp135f-dk/bl2/bl_common.o
 .debug_abbrev  0x00000667      0x2be ./../build/opteemin-sdcard-stm32mp135f-dk/bl2/desc_image_load.o
 .debug_abbrev  0x00000925      0x3d6 ./../build/opteemin-sdcard-stm32mp135f-dk/bl2/fdt_wrappers.o
 .debug_abbrev  0x00000cfb      0x191 ./../build/opteemin-sdcard-stm32mp135f-dk/bl2/tf_log.o
 .debug_abbrev  0x00000e8c      0x237 ./../build/opteemin-sdcard-stm32mp135f-dk/bl2/uuid.o
 .debug_abbrev  0x000010c3      0x2d4 ./../build/opteemin-sdcard-stm32mp135f-dk/bl2/tzc400.o
 .debug_abbrev  0x00001397      0x148 ./../build/opteemin-sdcard-stm32mp135f-dk/bl2/clk.o
 .debug_abbrev  0x000014df      0x27a ./../build/opteemin-sdcard-stm32mp135f-dk/bl2/multi_console.o
 .debug_abbrev  0x00001759      0x177 ./../build/opteemin-sdcard-stm32mp135f-dk/bl2/delay_timer.o
 .debug_abbrev  0x000018d0      0x267 ./../build/opteemin-sdcard-stm32mp135f-dk/bl2/generic_delay_timer.o
 .debug_abbrev  0x00001b37      0x2db ./../build/opteemin-sdcard-stm32mp135f-dk/bl2/fwu.o
 .debug_abbrev  0x00001e12      0x342 ./../build/opteemin-sdcard-stm32mp135f-dk/bl2/io_block.o
 .debug_abbrev  0x00002154      0x3b7 ./../build/opteemin-sdcard-stm32mp135f-dk/bl2/io_fip.o
 .debug_abbrev  0x0000250b      0x34a ./../build/opteemin-sdcard-stm32mp135f-dk/bl2/io_storage.o
 .debug_abbrev  0x00002855      0x4fc ./../build/opteemin-sdcard-stm32mp135f-dk/bl2/mmc.o
 .debug_abbrev  0x00002d51      0x1c7 ./../build/opteemin-sdcard-stm32mp135f-dk/bl2/gpt.o
 .debug_abbrev  0x00002f18      0x3be ./../build/opteemin-sdcard-stm32mp135f-dk/bl2/partition.o
 .debug_abbrev  0x000032d6      0x42f ./../build/opteemin-sdcard-stm32mp135f-dk/bl2/bsec2.o
 .debug_abbrev  0x00003705      0x685 ./../build/opteemin-sdcard-stm32mp135f-dk/bl2/clk-stm32-core.o
 .debug_abbrev  0x00003d8a      0x53a ./../build/opteemin-sdcard-stm32mp135f-dk/bl2/clk-stm32mp13.o
 .debug_abbrev  0x000042c4      0x317 ./../build/opteemin-sdcard-stm32mp135f-dk/bl2/stm32mp_clkfunc.o
 .debug_abbrev  0x000045db      0x412 ./../build/opteemin-sdcard-stm32mp135f-dk/bl2/stm32_rng.o
 .debug_abbrev  0x000049ed      0x425 ./../build/opteemin-sdcard-stm32mp135f-dk/bl2/stm32mp1_ddr.o
 .debug_abbrev  0x00004e12      0x381 ./../build/opteemin-sdcard-stm32mp135f-dk/bl2/stm32mp1_ddr_helpers.o
 .debug_abbrev  0x00005193      0x317 ./../build/opteemin-sdcard-stm32mp135f-dk/bl2/stm32mp1_ram.o
 .debug_abbrev  0x000054aa      0x3a2 ./../build/opteemin-sdcard-stm32mp135f-dk/bl2/stm32mp_ddr.o
 .debug_abbrev  0x0000584c      0x168 ./../build/opteemin-sdcard-stm32mp135f-dk/bl2/stm32mp_ddr_test.o
 .debug_abbrev  0x000059b4      0x19d ./../build/opteemin-sdcard-stm32mp135f-dk/bl2/stm32mp_ram.o
 .debug_abbrev  0x00005b51      0x402 ./../build/opteemin-sdcard-stm32mp135f-dk/bl2/stm32_gpio.o
 .debug_abbrev  0x00005f53      0x41b ./../build/opteemin-sdcard-stm32mp135f-dk/bl2/stm32_i2c.o
 .debug_abbrev  0x0000636e      0x324 ./../build/opteemin-sdcard-stm32mp135f-dk/bl2/stm32_iwdg.o
 .debug_abbrev  0x00006692      0x447 ./../build/opteemin-sdcard-stm32mp135f-dk/bl2/stm32_mce.o
 .debug_abbrev  0x00006ad9      0x50c ./../build/opteemin-sdcard-stm32mp135f-dk/bl2/stm32_sdmmc2.o
 .debug_abbrev  0x00006fe5      0x260 ./../build/opteemin-sdcard-stm32mp135f-dk/bl2/nvmem.o
 .debug_abbrev  0x00007245      0x462 ./../build/opteemin-sdcard-stm32mp135f-dk/bl2/stm32mp_tamp_nvram_core.o
 .debug_abbrev  0x000076a7      0x10e ./../build/opteemin-sdcard-stm32mp135f-dk/bl2/stm32mp_tamp_nvram_mp1.o
 .debug_abbrev  0x000077b5      0x4b3 ./../build/opteemin-sdcard-stm32mp135f-dk/bl2/stm32mp_pmic.o
 .debug_abbrev  0x00007c68      0x2aa ./../build/opteemin-sdcard-stm32mp135f-dk/bl2/stpmic1.o
 .debug_abbrev  0x00007f12      0x496 ./../build/opteemin-sdcard-stm32mp135f-dk/bl2/regulator_core.o
 .debug_abbrev  0x000083a8      0x23f ./../build/opteemin-sdcard-stm32mp135f-dk/bl2/regulator_fixed.o
 .debug_abbrev  0x000085e7      0x1d1 ./../build/opteemin-sdcard-stm32mp135f-dk/bl2/stm32mp1_reset.o
 .debug_abbrev  0x000087b8       0xe2 ./../build/opteemin-sdcard-stm32mp135f-dk/bl2/ctzdi2.o
 .debug_abbrev  0x0000889a      0x119 ./../build/opteemin-sdcard-stm32mp135f-dk/bl2/udivmoddi4.o
 .debug_abbrev  0x000089b3      0x22b ./../build/opteemin-sdcard-stm32mp135f-dk/bl2/fconf.o
 .debug_abbrev  0x00008bde      0x278 ./../build/opteemin-sdcard-stm32mp135f-dk/bl2/fconf_dyn_cfg_getter.o
 .debug_abbrev  0x00008e56      0x1d5 ./../build/opteemin-sdcard-stm32mp135f-dk/bl2/optee_utils.o
 .debug_abbrev  0x0000902b      0x301 ./../build/opteemin-sdcard-stm32mp135f-dk/bl2/xlat_tables_arch.o
 .debug_abbrev  0x0000932c      0x2a5 ./../build/opteemin-sdcard-stm32mp135f-dk/bl2/xlat_tables_context.o
 .debug_abbrev  0x000095d1      0x4c1 ./../build/opteemin-sdcard-stm32mp135f-dk/bl2/xlat_tables_core.o
 .debug_abbrev  0x00009a92      0x2db ./../build/opteemin-sdcard-stm32mp135f-dk/bl2/xlat_tables_utils.o
 .debug_abbrev  0x00009d6d      0x1cb ./../build/opteemin-sdcard-stm32mp135f-dk/bl2/crc32.o
 .debug_abbrev  0x00009f38      0x214 ./../build/opteemin-sdcard-stm32mp135f-dk/bl2/tf_gunzip.o
 .debug_abbrev  0x0000a14c      0x2b3 ./../build/opteemin-sdcard-stm32mp135f-dk/bl2/plat_bl_common.o
 .debug_abbrev  0x0000a3ff       0xdd ./../build/opteemin-sdcard-stm32mp135f-dk/bl2/plat_log_common.o
 .debug_abbrev  0x0000a4dc      0x44f ./../build/opteemin-sdcard-stm32mp135f-dk/bl2/bl2_io_storage.o
 .debug_abbrev  0x0000a92b      0x14b ./../build/opteemin-sdcard-stm32mp135f-dk/bl2/plat_image_load.o
 .debug_abbrev  0x0000aa76      0x556 ./../build/opteemin-sdcard-stm32mp135f-dk/bl2/stm32mp_common.o
 .debug_abbrev  0x0000afcc      0x338 ./../build/opteemin-sdcard-stm32mp135f-dk/bl2/stm32mp_dt.o
 .debug_abbrev  0x0000b304      0x24c ./../build/opteemin-sdcard-stm32mp135f-dk/bl2/stm32mp_fconf_fuse.o
 .debug_abbrev  0x0000b550      0x2b2 ./../build/opteemin-sdcard-stm32mp135f-dk/bl2/stm32mp_fconf_io.o
 .debug_abbrev  0x0000b802      0x46c ./../build/opteemin-sdcard-stm32mp135f-dk/bl2/bl2_plat_setup.o
 .debug_abbrev  0x0000bc6e       0xea ./../build/opteemin-sdcard-stm32mp135f-dk/bl2/plat_bl2_mem_params_desc.o
 .debug_abbrev  0x0000bd58      0x235 ./../build/opteemin-sdcard-stm32mp135f-dk/bl2/plat_ddr.o
 .debug_abbrev  0x0000bf8d      0x2d9 ./../build/opteemin-sdcard-stm32mp135f-dk/bl2/stm32mp1_context.o
 .debug_abbrev  0x0000c266      0x225 ./../build/opteemin-sdcard-stm32mp135f-dk/bl2/stm32mp1_critic_power.o
 .debug_abbrev  0x0000c48b      0x253 ./../build/opteemin-sdcard-stm32mp135f-dk/bl2/stm32mp1_fconf_firewall.o
 .debug_abbrev  0x0000c6de      0x3a1 ./../build/opteemin-sdcard-stm32mp135f-dk/bl2/stm32mp1_private.o
 .debug_abbrev  0x0000ca7f      0x392 ./../build/opteemin-sdcard-stm32mp135f-dk/bl2/stm32mp1_syscfg.o
 .debug_abbrev  0x0000ce11       0x28 ./../build/opteemin-sdcard-stm32mp135f-dk/bl2/bl2_el3_entrypoint.o
 .debug_abbrev  0x0000ce39       0x14 ./../build/opteemin-sdcard-stm32mp135f-dk/bl2/bl2_el3_exceptions.o
 .debug_abbrev  0x0000ce4d       0x28 ./../build/opteemin-sdcard-stm32mp135f-dk/bl2/bl2_run_next_image.o
 .debug_abbrev  0x0000ce75       0x26 ./../build/opteemin-sdcard-stm32mp135f-dk/bl2/debug.o
 .debug_abbrev  0x0000ce9b       0x26 ./../build/opteemin-sdcard-stm32mp135f-dk/bl2/stm32_console.o
 .debug_abbrev  0x0000cec1       0x26 ./../build/opteemin-sdcard-stm32mp135f-dk/bl2/cache_helpers.o
 .debug_abbrev  0x0000cee7       0x26 ./../build/opteemin-sdcard-stm32mp135f-dk/bl2/misc_helpers.o
 .debug_abbrev  0x0000cf0d       0x28 ./../build/opteemin-sdcard-stm32mp135f-dk/bl2/aeabi_uldivmod.o
 .debug_abbrev  0x0000cf35       0x24 ./../build/opteemin-sdcard-stm32mp135f-dk/bl2/cortex_a7.o
 .debug_abbrev  0x0000cf59       0x26 ./../build/opteemin-sdcard-stm32mp135f-dk/bl2/cpu_helpers.o
 .debug_abbrev  0x0000cf7f       0x26 ./../build/opteemin-sdcard-stm32mp135f-dk/bl2/spinlock.o
 .debug_abbrev  0x0000cfa5       0x26 ./../build/opteemin-sdcard-stm32mp135f-dk/bl2/enable_mmu.o
 .debug_abbrev  0x0000cfcb       0x24 ./../build/opteemin-sdcard-stm32mp135f-dk/bl2/platform_up_stack.o
 .debug_abbrev  0x0000cfef       0x26 ./../build/opteemin-sdcard-stm32mp135f-dk/bl2/stm32mp1_critic_power_wrapper.o
 .debug_abbrev  0x0000d015       0x26 ./../build/opteemin-sdcard-stm32mp135f-dk/bl2/stm32mp1_helper.o
 .debug_abbrev  0x0000d03b      0x2e7 ./../build/opteemin-sdcard-stm32mp135f-dk/lib/libfdt.a(fdt.o)
 .debug_abbrev  0x0000d322      0x1d8 ./../build/opteemin-sdcard-stm32mp135f-dk/lib/libfdt.a(fdt_addresses.o)
 .debug_abbrev  0x0000d4fa      0x399 ./../build/opteemin-sdcard-stm32mp135f-dk/lib/libfdt.a(fdt_ro.o)
 .debug_abbrev  0x0000d893       0xf9 ./../build/opteemin-sdcard-stm32mp135f-dk/lib/libc.a(assert.o)
 .debug_abbrev  0x0000d98c       0x9b ./../build/opteemin-sdcard-stm32mp135f-dk/lib/libc.a(memchr.o)
 .debug_abbrev  0x0000da27       0x94 ./../build/opteemin-sdcard-stm32mp135f-dk/lib/libc.a(memcmp.o)
 .debug_abbrev  0x0000dabb       0xa1 ./../build/opteemin-sdcard-stm32mp135f-dk/lib/libc.a(memcpy.o)
 .debug_abbrev  0x0000db5c       0xd1 ./../build/opteemin-sdcard-stm32mp135f-dk/lib/libc.a(memmove.o)
 .debug_abbrev  0x0000dc2d       0xc8 ./../build/opteemin-sdcard-stm32mp135f-dk/lib/libc.a(memset.o)
 .debug_abbrev  0x0000dcf5      0x273 ./../build/opteemin-sdcard-stm32mp135f-dk/lib/libc.a(printf.o)
 .debug_abbrev  0x0000df68      0x277 ./../build/opteemin-sdcard-stm32mp135f-dk/lib/libc.a(snprintf.o)
 .debug_abbrev  0x0000e1df       0x80 ./../build/opteemin-sdcard-stm32mp135f-dk/lib/libc.a(strchr.o)
 .debug_abbrev  0x0000e25f       0x6c ./../build/opteemin-sdcard-stm32mp135f-dk/lib/libc.a(strcmp.o)
 .debug_abbrev  0x0000e2cb       0xa3 ./../build/opteemin-sdcard-stm32mp135f-dk/lib/libc.a(strlcpy.o)
 .debug_abbrev  0x0000e36e       0x84 ./../build/opteemin-sdcard-stm32mp135f-dk/lib/libc.a(strlen.o)
 .debug_abbrev  0x0000e3f2       0x7b ./../build/opteemin-sdcard-stm32mp135f-dk/lib/libc.a(strncmp.o)
 .debug_abbrev  0x0000e46d       0x95 ./../build/opteemin-sdcard-stm32mp135f-dk/lib/libc.a(strnlen.o)
 .debug_abbrev  0x0000e502       0x94 ./../build/opteemin-sdcard-stm32mp135f-dk/lib/libc.a(strrchr.o)

.debug_aranges  0x00000000     0x2130
 .debug_aranges
                0x00000000       0x18 ./../build/opteemin-sdcard-stm32mp135f-dk/bl2/build_message.o
 .debug_aranges
                0x00000018       0x20 ./../build/opteemin-sdcard-stm32mp135f-dk/bl2/bl2_arch_setup.o
 .debug_aranges
                0x00000038       0x20 ./../build/opteemin-sdcard-stm32mp135f-dk/bl2/bl2_image_load_v2.o
 .debug_aranges
                0x00000058       0x28 ./../build/opteemin-sdcard-stm32mp135f-dk/bl2/bl2_main.o
 .debug_aranges
                0x00000080       0x38 ./../build/opteemin-sdcard-stm32mp135f-dk/bl2/bl_common.o
 .debug_aranges
                0x000000b8       0x58 ./../build/opteemin-sdcard-stm32mp135f-dk/bl2/desc_image_load.o
 .debug_aranges
                0x00000110       0xa8 ./../build/opteemin-sdcard-stm32mp135f-dk/bl2/fdt_wrappers.o
 .debug_aranges
                0x000001b8       0x30 ./../build/opteemin-sdcard-stm32mp135f-dk/bl2/tf_log.o
 .debug_aranges
                0x000001e8       0x48 ./../build/opteemin-sdcard-stm32mp135f-dk/bl2/uuid.o
 .debug_aranges
                0x00000230       0x58 ./../build/opteemin-sdcard-stm32mp135f-dk/bl2/tzc400.o
 .debug_aranges
                0x00000288       0x48 ./../build/opteemin-sdcard-stm32mp135f-dk/bl2/clk.o
 .debug_aranges
                0x000002d0       0x58 ./../build/opteemin-sdcard-stm32mp135f-dk/bl2/multi_console.o
 .debug_aranges
                0x00000328       0x30 ./../build/opteemin-sdcard-stm32mp135f-dk/bl2/delay_timer.o
 .debug_aranges
                0x00000358       0x30 ./../build/opteemin-sdcard-stm32mp135f-dk/bl2/generic_delay_timer.o
 .debug_aranges
                0x00000388       0x40 ./../build/opteemin-sdcard-stm32mp135f-dk/bl2/fwu.o
 .debug_aranges
                0x000003c8       0x60 ./../build/opteemin-sdcard-stm32mp135f-dk/bl2/io_block.o
 .debug_aranges
                0x00000428       0x68 ./../build/opteemin-sdcard-stm32mp135f-dk/bl2/io_fip.o
 .debug_aranges
                0x00000490       0x80 ./../build/opteemin-sdcard-stm32mp135f-dk/bl2/io_storage.o
 .debug_aranges
                0x00000510       0x78 ./../build/opteemin-sdcard-stm32mp135f-dk/bl2/mmc.o
 .debug_aranges
                0x00000588       0x20 ./../build/opteemin-sdcard-stm32mp135f-dk/bl2/gpt.o
 .debug_aranges
                0x000005a8       0x60 ./../build/opteemin-sdcard-stm32mp135f-dk/bl2/partition.o
 .debug_aranges
                0x00000608       0xc0 ./../build/opteemin-sdcard-stm32mp135f-dk/bl2/bsec2.o
 .debug_aranges
                0x000006c8      0x1a8 ./../build/opteemin-sdcard-stm32mp135f-dk/bl2/clk-stm32-core.o
 .debug_aranges
                0x00000870       0xd0 ./../build/opteemin-sdcard-stm32mp135f-dk/bl2/clk-stm32mp13.o
 .debug_aranges
                0x00000940       0x70 ./../build/opteemin-sdcard-stm32mp135f-dk/bl2/stm32mp_clkfunc.o
 .debug_aranges
                0x000009b0       0x40 ./../build/opteemin-sdcard-stm32mp135f-dk/bl2/stm32_rng.o
 .debug_aranges
                0x000009f0       0x38 ./../build/opteemin-sdcard-stm32mp135f-dk/bl2/stm32mp1_ddr.o
 .debug_aranges
                0x00000a28       0x48 ./../build/opteemin-sdcard-stm32mp135f-dk/bl2/stm32mp1_ddr_helpers.o
 .debug_aranges
                0x00000a70       0x38 ./../build/opteemin-sdcard-stm32mp135f-dk/bl2/stm32mp1_ram.o
 .debug_aranges
                0x00000aa8       0x78 ./../build/opteemin-sdcard-stm32mp135f-dk/bl2/stm32mp_ddr.o
 .debug_aranges
                0x00000b20       0x38 ./../build/opteemin-sdcard-stm32mp135f-dk/bl2/stm32mp_ddr_test.o
 .debug_aranges
                0x00000b58       0x28 ./../build/opteemin-sdcard-stm32mp135f-dk/bl2/stm32mp_ram.o
 .debug_aranges
                0x00000b80       0x58 ./../build/opteemin-sdcard-stm32mp135f-dk/bl2/stm32_gpio.o
 .debug_aranges
                0x00000bd8       0x88 ./../build/opteemin-sdcard-stm32mp135f-dk/bl2/stm32_i2c.o
 .debug_aranges
                0x00000c60       0x30 ./../build/opteemin-sdcard-stm32mp135f-dk/bl2/stm32_iwdg.o
 .debug_aranges
                0x00000c90       0x78 ./../build/opteemin-sdcard-stm32mp135f-dk/bl2/stm32_mce.o
 .debug_aranges
                0x00000d08       0x68 ./../build/opteemin-sdcard-stm32mp135f-dk/bl2/stm32_sdmmc2.o
 .debug_aranges
                0x00000d70       0x40 ./../build/opteemin-sdcard-stm32mp135f-dk/bl2/nvmem.o
 .debug_aranges
                0x00000db0       0x68 ./../build/opteemin-sdcard-stm32mp135f-dk/bl2/stm32mp_tamp_nvram_core.o
 .debug_aranges
                0x00000e18       0x28 ./../build/opteemin-sdcard-stm32mp135f-dk/bl2/stm32mp_tamp_nvram_mp1.o
 .debug_aranges
                0x00000e40       0x88 ./../build/opteemin-sdcard-stm32mp135f-dk/bl2/stm32mp_pmic.o
 .debug_aranges
                0x00000ec8       0xc0 ./../build/opteemin-sdcard-stm32mp135f-dk/bl2/stpmic1.o
 .debug_aranges
                0x00000f88       0x90 ./../build/opteemin-sdcard-stm32mp135f-dk/bl2/regulator_core.o
 .debug_aranges
                0x00001018       0x30 ./../build/opteemin-sdcard-stm32mp135f-dk/bl2/regulator_fixed.o
 .debug_aranges
                0x00001048       0x30 ./../build/opteemin-sdcard-stm32mp135f-dk/bl2/stm32mp1_reset.o
 .debug_aranges
                0x00001078       0x20 ./../build/opteemin-sdcard-stm32mp135f-dk/bl2/ctzdi2.o
 .debug_aranges
                0x00001098       0x20 ./../build/opteemin-sdcard-stm32mp135f-dk/bl2/udivmoddi4.o
 .debug_aranges
                0x000010b8       0x28 ./../build/opteemin-sdcard-stm32mp135f-dk/bl2/fconf.o
 .debug_aranges
                0x000010e0       0x38 ./../build/opteemin-sdcard-stm32mp135f-dk/bl2/fconf_dyn_cfg_getter.o
 .debug_aranges
                0x00001118       0x30 ./../build/opteemin-sdcard-stm32mp135f-dk/bl2/optee_utils.o
 .debug_aranges
                0x00001148       0x78 ./../build/opteemin-sdcard-stm32mp135f-dk/bl2/xlat_tables_arch.o
 .debug_aranges
                0x000011c0       0x78 ./../build/opteemin-sdcard-stm32mp135f-dk/bl2/xlat_tables_context.o
 .debug_aranges
                0x00001238       0x90 ./../build/opteemin-sdcard-stm32mp135f-dk/bl2/xlat_tables_core.o
 .debug_aranges
                0x000012c8       0x48 ./../build/opteemin-sdcard-stm32mp135f-dk/bl2/xlat_tables_utils.o
 .debug_aranges
                0x00001310       0x68 ./../build/opteemin-sdcard-stm32mp135f-dk/bl2/crc32.o
 .debug_aranges
                0x00001378       0x38 ./../build/opteemin-sdcard-stm32mp135f-dk/bl2/tf_gunzip.o
 .debug_aranges
                0x000013b0       0x78 ./../build/opteemin-sdcard-stm32mp135f-dk/bl2/plat_bl_common.o
 .debug_aranges
                0x00001428       0x20 ./../build/opteemin-sdcard-stm32mp135f-dk/bl2/plat_log_common.o
 .debug_aranges
                0x00001448       0x70 ./../build/opteemin-sdcard-stm32mp135f-dk/bl2/bl2_io_storage.o
 .debug_aranges
                0x000014b8       0x30 ./../build/opteemin-sdcard-stm32mp135f-dk/bl2/plat_image_load.o
 .debug_aranges
                0x000014e8      0x140 ./../build/opteemin-sdcard-stm32mp135f-dk/bl2/stm32mp_common.o
 .debug_aranges
                0x00001628       0xb8 ./../build/opteemin-sdcard-stm32mp135f-dk/bl2/stm32mp_dt.o
 .debug_aranges
                0x000016e0       0x20 ./../build/opteemin-sdcard-stm32mp135f-dk/bl2/stm32mp_fconf_fuse.o
 .debug_aranges
                0x00001700       0x20 ./../build/opteemin-sdcard-stm32mp135f-dk/bl2/stm32mp_fconf_io.o
 .debug_aranges
                0x00001720       0x40 ./../build/opteemin-sdcard-stm32mp135f-dk/bl2/bl2_plat_setup.o
 .debug_aranges
                0x00001760       0x18 ./../build/opteemin-sdcard-stm32mp135f-dk/bl2/plat_bl2_mem_params_desc.o
 .debug_aranges
                0x00001778       0x20 ./../build/opteemin-sdcard-stm32mp135f-dk/bl2/plat_ddr.o
 .debug_aranges
                0x00001798       0x68 ./../build/opteemin-sdcard-stm32mp135f-dk/bl2/stm32mp1_context.o
 .debug_aranges
                0x00001800       0x30 ./../build/opteemin-sdcard-stm32mp135f-dk/bl2/stm32mp1_critic_power.o
 .debug_aranges
                0x00001830       0x38 ./../build/opteemin-sdcard-stm32mp135f-dk/bl2/stm32mp1_fconf_firewall.o
 .debug_aranges
                0x00001868       0xc8 ./../build/opteemin-sdcard-stm32mp135f-dk/bl2/stm32mp1_private.o
 .debug_aranges
                0x00001930       0x70 ./../build/opteemin-sdcard-stm32mp135f-dk/bl2/stm32mp1_syscfg.o
 .debug_aranges
                0x000019a0       0x20 ./../build/opteemin-sdcard-stm32mp135f-dk/bl2/bl2_el3_entrypoint.o
 .debug_aranges
                0x000019c0       0x20 ./../build/opteemin-sdcard-stm32mp135f-dk/bl2/bl2_el3_exceptions.o
 .debug_aranges
                0x000019e0       0x20 ./../build/opteemin-sdcard-stm32mp135f-dk/bl2/bl2_run_next_image.o
 .debug_aranges
                0x00001a00       0x50 ./../build/opteemin-sdcard-stm32mp135f-dk/bl2/debug.o
 .debug_aranges
                0x00001a50       0x50 ./../build/opteemin-sdcard-stm32mp135f-dk/bl2/stm32_console.o
 .debug_aranges
                0x00001aa0       0x60 ./../build/opteemin-sdcard-stm32mp135f-dk/bl2/cache_helpers.o
 .debug_aranges
                0x00001b00       0x48 ./../build/opteemin-sdcard-stm32mp135f-dk/bl2/misc_helpers.o
 .debug_aranges
                0x00001b48       0x20 ./../build/opteemin-sdcard-stm32mp135f-dk/bl2/aeabi_uldivmod.o
 .debug_aranges
                0x00001b68       0x40 ./../build/opteemin-sdcard-stm32mp135f-dk/bl2/cortex_a7.o
 .debug_aranges
                0x00001ba8       0x40 ./../build/opteemin-sdcard-stm32mp135f-dk/bl2/cpu_helpers.o
 .debug_aranges
                0x00001be8       0x28 ./../build/opteemin-sdcard-stm32mp135f-dk/bl2/spinlock.o
 .debug_aranges
                0x00001c10       0x28 ./../build/opteemin-sdcard-stm32mp135f-dk/bl2/enable_mmu.o
 .debug_aranges
                0x00001c38       0x28 ./../build/opteemin-sdcard-stm32mp135f-dk/bl2/platform_up_stack.o
 .debug_aranges
                0x00001c60       0x28 ./../build/opteemin-sdcard-stm32mp135f-dk/bl2/stm32mp1_critic_power_wrapper.o
 .debug_aranges
                0x00001c88       0x88 ./../build/opteemin-sdcard-stm32mp135f-dk/bl2/stm32mp1_helper.o
 .debug_aranges
                0x00001d10       0x88 ./../build/opteemin-sdcard-stm32mp135f-dk/lib/libfdt.a(fdt.o)
 .debug_aranges
                0x00001d98       0x38 ./../build/opteemin-sdcard-stm32mp135f-dk/lib/libfdt.a(fdt_addresses.o)
 .debug_aranges
                0x00001dd0      0x160 ./../build/opteemin-sdcard-stm32mp135f-dk/lib/libfdt.a(fdt_ro.o)
 .debug_aranges
                0x00001f30       0x20 ./../build/opteemin-sdcard-stm32mp135f-dk/lib/libc.a(assert.o)
 .debug_aranges
                0x00001f50       0x20 ./../build/opteemin-sdcard-stm32mp135f-dk/lib/libc.a(memchr.o)
 .debug_aranges
                0x00001f70       0x20 ./../build/opteemin-sdcard-stm32mp135f-dk/lib/libc.a(memcmp.o)
 .debug_aranges
                0x00001f90       0x20 ./../build/opteemin-sdcard-stm32mp135f-dk/lib/libc.a(memcpy.o)
 .debug_aranges
                0x00001fb0       0x20 ./../build/opteemin-sdcard-stm32mp135f-dk/lib/libc.a(memmove.o)
 .debug_aranges
                0x00001fd0       0x20 ./../build/opteemin-sdcard-stm32mp135f-dk/lib/libc.a(memset.o)
 .debug_aranges
                0x00001ff0       0x30 ./../build/opteemin-sdcard-stm32mp135f-dk/lib/libc.a(printf.o)
 .debug_aranges
                0x00002020       0x30 ./../build/opteemin-sdcard-stm32mp135f-dk/lib/libc.a(snprintf.o)
 .debug_aranges
                0x00002050       0x20 ./../build/opteemin-sdcard-stm32mp135f-dk/lib/libc.a(strchr.o)
 .debug_aranges
                0x00002070       0x20 ./../build/opteemin-sdcard-stm32mp135f-dk/lib/libc.a(strcmp.o)
 .debug_aranges
                0x00002090       0x20 ./../build/opteemin-sdcard-stm32mp135f-dk/lib/libc.a(strlcpy.o)
 .debug_aranges
                0x000020b0       0x20 ./../build/opteemin-sdcard-stm32mp135f-dk/lib/libc.a(strlen.o)
 .debug_aranges
                0x000020d0       0x20 ./../build/opteemin-sdcard-stm32mp135f-dk/lib/libc.a(strncmp.o)
 .debug_aranges
                0x000020f0       0x20 ./../build/opteemin-sdcard-stm32mp135f-dk/lib/libc.a(strnlen.o)
 .debug_aranges
                0x00002110       0x20 ./../build/opteemin-sdcard-stm32mp135f-dk/lib/libc.a(strrchr.o)

.debug_line     0x00000000    0x22b62
 .debug_line    0x00000000       0x28 ./../build/opteemin-sdcard-stm32mp135f-dk/bl2/build_message.o
 .debug_line    0x00000028       0x8a ./../build/opteemin-sdcard-stm32mp135f-dk/bl2/bl2_arch_setup.o
 .debug_line    0x000000b2      0x24a ./../build/opteemin-sdcard-stm32mp135f-dk/bl2/bl2_image_load_v2.o
 .debug_line    0x000002fc      0x1ce ./../build/opteemin-sdcard-stm32mp135f-dk/bl2/bl2_main.o
 .debug_line    0x000004ca      0x347 ./../build/opteemin-sdcard-stm32mp135f-dk/bl2/bl_common.o
 .debug_line    0x00000811      0x617 ./../build/opteemin-sdcard-stm32mp135f-dk/bl2/desc_image_load.o
 .debug_line    0x00000e28      0xad2 ./../build/opteemin-sdcard-stm32mp135f-dk/bl2/fdt_wrappers.o
 .debug_line    0x000018fa      0x201 ./../build/opteemin-sdcard-stm32mp135f-dk/bl2/tf_log.o
 .debug_line    0x00001afb      0x30d ./../build/opteemin-sdcard-stm32mp135f-dk/bl2/uuid.o
 .debug_line    0x00001e08      0x88d ./../build/opteemin-sdcard-stm32mp135f-dk/bl2/tzc400.o
 .debug_line    0x00002695      0x1b3 ./../build/opteemin-sdcard-stm32mp135f-dk/bl2/clk.o
 .debug_line    0x00002848      0x316 ./../build/opteemin-sdcard-stm32mp135f-dk/bl2/multi_console.o
 .debug_line    0x00002b5e      0x1e7 ./../build/opteemin-sdcard-stm32mp135f-dk/bl2/delay_timer.o
 .debug_line    0x00002d45      0x24d ./../build/opteemin-sdcard-stm32mp135f-dk/bl2/generic_delay_timer.o
 .debug_line    0x00002f92      0x4b8 ./../build/opteemin-sdcard-stm32mp135f-dk/bl2/fwu.o
 .debug_line    0x0000344a      0x77f ./../build/opteemin-sdcard-stm32mp135f-dk/bl2/io_block.o
 .debug_line    0x00003bc9      0x731 ./../build/opteemin-sdcard-stm32mp135f-dk/bl2/io_fip.o
 .debug_line    0x000042fa      0x5f0 ./../build/opteemin-sdcard-stm32mp135f-dk/bl2/io_storage.o
 .debug_line    0x000048ea      0xd1b ./../build/opteemin-sdcard-stm32mp135f-dk/bl2/mmc.o
 .debug_line    0x00005605      0x22b ./../build/opteemin-sdcard-stm32mp135f-dk/bl2/gpt.o
 .debug_line    0x00005830      0x774 ./../build/opteemin-sdcard-stm32mp135f-dk/bl2/partition.o
 .debug_line    0x00005fa4      0xe01 ./../build/opteemin-sdcard-stm32mp135f-dk/bl2/bsec2.o
 .debug_line    0x00006da5     0x182d ./../build/opteemin-sdcard-stm32mp135f-dk/bl2/clk-stm32-core.o
 .debug_line    0x000085d2     0x1c7c ./../build/opteemin-sdcard-stm32mp135f-dk/bl2/clk-stm32mp13.o
 .debug_line    0x0000a24e      0x732 ./../build/opteemin-sdcard-stm32mp135f-dk/bl2/stm32mp_clkfunc.o
 .debug_line    0x0000a980      0x969 ./../build/opteemin-sdcard-stm32mp135f-dk/bl2/stm32_rng.o
 .debug_line    0x0000b2e9     0x13ed ./../build/opteemin-sdcard-stm32mp135f-dk/bl2/stm32mp1_ddr.o
 .debug_line    0x0000c6d6     0x160a ./../build/opteemin-sdcard-stm32mp135f-dk/bl2/stm32mp1_ddr_helpers.o
 .debug_line    0x0000dce0      0x57d ./../build/opteemin-sdcard-stm32mp135f-dk/bl2/stm32mp1_ram.o
 .debug_line    0x0000e25d      0xb72 ./../build/opteemin-sdcard-stm32mp135f-dk/bl2/stm32mp_ddr.o
 .debug_line    0x0000edcf      0x4ca ./../build/opteemin-sdcard-stm32mp135f-dk/bl2/stm32mp_ddr_test.o
 .debug_line    0x0000f299      0x21a ./../build/opteemin-sdcard-stm32mp135f-dk/bl2/stm32mp_ram.o
 .debug_line    0x0000f4b3      0x9e9 ./../build/opteemin-sdcard-stm32mp135f-dk/bl2/stm32_gpio.o
 .debug_line    0x0000fe9c     0x1add ./../build/opteemin-sdcard-stm32mp135f-dk/bl2/stm32_i2c.o
 .debug_line    0x00011979      0x518 ./../build/opteemin-sdcard-stm32mp135f-dk/bl2/stm32_iwdg.o
 .debug_line    0x00011e91      0xa7f ./../build/opteemin-sdcard-stm32mp135f-dk/bl2/stm32_mce.o
 .debug_line    0x00012910     0x1190 ./../build/opteemin-sdcard-stm32mp135f-dk/bl2/stm32_sdmmc2.o
 .debug_line    0x00013aa0      0x2fa ./../build/opteemin-sdcard-stm32mp135f-dk/bl2/nvmem.o
 .debug_line    0x00013d9a      0x962 ./../build/opteemin-sdcard-stm32mp135f-dk/bl2/stm32mp_tamp_nvram_core.o
 .debug_line    0x000146fc      0x119 ./../build/opteemin-sdcard-stm32mp135f-dk/bl2/stm32mp_tamp_nvram_mp1.o
 .debug_line    0x00014815      0x7bb ./../build/opteemin-sdcard-stm32mp135f-dk/bl2/stm32mp_pmic.o
 .debug_line    0x00014fd0      0x6e4 ./../build/opteemin-sdcard-stm32mp135f-dk/bl2/stpmic1.o
 .debug_line    0x000156b4      0x998 ./../build/opteemin-sdcard-stm32mp135f-dk/bl2/regulator_core.o
 .debug_line    0x0001604c      0x286 ./../build/opteemin-sdcard-stm32mp135f-dk/bl2/regulator_fixed.o
 .debug_line    0x000162d2      0x415 ./../build/opteemin-sdcard-stm32mp135f-dk/bl2/stm32mp1_reset.o
 .debug_line    0x000166e7       0xc6 ./../build/opteemin-sdcard-stm32mp135f-dk/bl2/ctzdi2.o
 .debug_line    0x000167ad      0x385 ./../build/opteemin-sdcard-stm32mp135f-dk/bl2/udivmoddi4.o
 .debug_line    0x00016b32      0x2a7 ./../build/opteemin-sdcard-stm32mp135f-dk/bl2/fconf.o
 .debug_line    0x00016dd9      0x3f8 ./../build/opteemin-sdcard-stm32mp135f-dk/bl2/fconf_dyn_cfg_getter.o
 .debug_line    0x000171d1      0x343 ./../build/opteemin-sdcard-stm32mp135f-dk/bl2/optee_utils.o
 .debug_line    0x00017514      0x54b ./../build/opteemin-sdcard-stm32mp135f-dk/bl2/xlat_tables_arch.o
 .debug_line    0x00017a5f      0x39c ./../build/opteemin-sdcard-stm32mp135f-dk/bl2/xlat_tables_context.o
 .debug_line    0x00017dfb     0x106b ./../build/opteemin-sdcard-stm32mp135f-dk/bl2/xlat_tables_core.o
 .debug_line    0x00018e66      0x5f2 ./../build/opteemin-sdcard-stm32mp135f-dk/bl2/xlat_tables_utils.o
 .debug_line    0x00019458      0x2e8 ./../build/opteemin-sdcard-stm32mp135f-dk/bl2/crc32.o
 .debug_line    0x00019740      0x24c ./../build/opteemin-sdcard-stm32mp135f-dk/bl2/tf_gunzip.o
 .debug_line    0x0001998c      0x2a9 ./../build/opteemin-sdcard-stm32mp135f-dk/bl2/plat_bl_common.o
 .debug_line    0x00019c35       0xce ./../build/opteemin-sdcard-stm32mp135f-dk/bl2/plat_log_common.o
 .debug_line    0x00019d03      0x954 ./../build/opteemin-sdcard-stm32mp135f-dk/bl2/bl2_io_storage.o
 .debug_line    0x0001a657      0x130 ./../build/opteemin-sdcard-stm32mp135f-dk/bl2/plat_image_load.o
 .debug_line    0x0001a787      0xcef ./../build/opteemin-sdcard-stm32mp135f-dk/bl2/stm32mp_common.o
 .debug_line    0x0001b476      0x978 ./../build/opteemin-sdcard-stm32mp135f-dk/bl2/stm32mp_dt.o
 .debug_line    0x0001bdee      0x34a ./../build/opteemin-sdcard-stm32mp135f-dk/bl2/stm32mp_fconf_fuse.o
 .debug_line    0x0001c138      0x34d ./../build/opteemin-sdcard-stm32mp135f-dk/bl2/stm32mp_fconf_io.o
 .debug_line    0x0001c485      0xe26 ./../build/opteemin-sdcard-stm32mp135f-dk/bl2/bl2_plat_setup.o
 .debug_line    0x0001d2ab      0x111 ./../build/opteemin-sdcard-stm32mp135f-dk/bl2/plat_bl2_mem_params_desc.o
 .debug_line    0x0001d3bc      0x2e2 ./../build/opteemin-sdcard-stm32mp135f-dk/bl2/plat_ddr.o
 .debug_line    0x0001d69e      0x4d2 ./../build/opteemin-sdcard-stm32mp135f-dk/bl2/stm32mp1_context.o
 .debug_line    0x0001db70      0x309 ./../build/opteemin-sdcard-stm32mp135f-dk/bl2/stm32mp1_critic_power.o
 .debug_line    0x0001de79      0x34c ./../build/opteemin-sdcard-stm32mp135f-dk/bl2/stm32mp1_fconf_firewall.o
 .debug_line    0x0001e1c5      0x788 ./../build/opteemin-sdcard-stm32mp135f-dk/bl2/stm32mp1_private.o
 .debug_line    0x0001e94d      0x82c ./../build/opteemin-sdcard-stm32mp135f-dk/bl2/stm32mp1_syscfg.o
 .debug_line    0x0001f179       0x64 ./../build/opteemin-sdcard-stm32mp135f-dk/bl2/bl2_el3_entrypoint.o
 .debug_line    0x0001f1dd       0x58 ./../build/opteemin-sdcard-stm32mp135f-dk/bl2/bl2_el3_exceptions.o
 .debug_line    0x0001f235       0x60 ./../build/opteemin-sdcard-stm32mp135f-dk/bl2/bl2_run_next_image.o
 .debug_line    0x0001f295       0xed ./../build/opteemin-sdcard-stm32mp135f-dk/bl2/debug.o
 .debug_line    0x0001f382      0x10c ./../build/opteemin-sdcard-stm32mp135f-dk/bl2/stm32_console.o
 .debug_line    0x0001f48e       0xfb ./../build/opteemin-sdcard-stm32mp135f-dk/bl2/cache_helpers.o
 .debug_line    0x0001f589      0x10b ./../build/opteemin-sdcard-stm32mp135f-dk/bl2/misc_helpers.o
 .debug_line    0x0001f694       0x68 ./../build/opteemin-sdcard-stm32mp135f-dk/bl2/aeabi_uldivmod.o
 .debug_line    0x0001f6fc       0xa5 ./../build/opteemin-sdcard-stm32mp135f-dk/bl2/cortex_a7.o
 .debug_line    0x0001f7a1       0xbd ./../build/opteemin-sdcard-stm32mp135f-dk/bl2/cpu_helpers.o
 .debug_line    0x0001f85e       0x71 ./../build/opteemin-sdcard-stm32mp135f-dk/bl2/spinlock.o
 .debug_line    0x0001f8cf       0xa5 ./../build/opteemin-sdcard-stm32mp135f-dk/bl2/enable_mmu.o
 .debug_line    0x0001f974       0x6c ./../build/opteemin-sdcard-stm32mp135f-dk/bl2/platform_up_stack.o
 .debug_line    0x0001f9e0       0xab ./../build/opteemin-sdcard-stm32mp135f-dk/bl2/stm32mp1_critic_power_wrapper.o
 .debug_line    0x0001fa8b      0x1b5 ./../build/opteemin-sdcard-stm32mp135f-dk/bl2/stm32mp1_helper.o
 .debug_line    0x0001fc40      0x7d2 ./../build/opteemin-sdcard-stm32mp135f-dk/lib/libfdt.a(fdt.o)
 .debug_line    0x00020412      0x2c6 ./../build/opteemin-sdcard-stm32mp135f-dk/lib/libfdt.a(fdt_addresses.o)
 .debug_line    0x000206d8     0x1280 ./../build/opteemin-sdcard-stm32mp135f-dk/lib/libfdt.a(fdt_ro.o)
 .debug_line    0x00021958       0xe1 ./../build/opteemin-sdcard-stm32mp135f-dk/lib/libc.a(assert.o)
 .debug_line    0x00021a39       0x89 ./../build/opteemin-sdcard-stm32mp135f-dk/lib/libc.a(memchr.o)
 .debug_line    0x00021ac2       0xa3 ./../build/opteemin-sdcard-stm32mp135f-dk/lib/libc.a(memcmp.o)
 .debug_line    0x00021b65       0x8c ./../build/opteemin-sdcard-stm32mp135f-dk/lib/libc.a(memcpy.o)
 .debug_line    0x00021bf1       0xe4 ./../build/opteemin-sdcard-stm32mp135f-dk/lib/libc.a(memmove.o)
 .debug_line    0x00021cd5      0x109 ./../build/opteemin-sdcard-stm32mp135f-dk/lib/libc.a(memset.o)
 .debug_line    0x00021dde      0x448 ./../build/opteemin-sdcard-stm32mp135f-dk/lib/libc.a(printf.o)
 .debug_line    0x00022226      0x572 ./../build/opteemin-sdcard-stm32mp135f-dk/lib/libc.a(snprintf.o)
 .debug_line    0x00022798       0x6c ./../build/opteemin-sdcard-stm32mp135f-dk/lib/libc.a(strchr.o)
 .debug_line    0x00022804       0x66 ./../build/opteemin-sdcard-stm32mp135f-dk/lib/libc.a(strcmp.o)
 .debug_line    0x0002286a       0xc3 ./../build/opteemin-sdcard-stm32mp135f-dk/lib/libc.a(strlcpy.o)
 .debug_line    0x0002292d       0x7b ./../build/opteemin-sdcard-stm32mp135f-dk/lib/libc.a(strlen.o)
 .debug_line    0x000229a8       0xa9 ./../build/opteemin-sdcard-stm32mp135f-dk/lib/libc.a(strncmp.o)
 .debug_line    0x00022a51       0x9e ./../build/opteemin-sdcard-stm32mp135f-dk/lib/libc.a(strnlen.o)
 .debug_line    0x00022aef       0x73 ./../build/opteemin-sdcard-stm32mp135f-dk/lib/libc.a(strrchr.o)

.debug_str      0x00000000     0xab53
 .debug_str     0x00000000     0xab53 ./../build/opteemin-sdcard-stm32mp135f-dk/bl2/build_message.o
                                0x168 (size before relaxing)
 .debug_str     0x0000ab53      0x210 ./../build/opteemin-sdcard-stm32mp135f-dk/bl2/bl2_arch_setup.o
 .debug_str     0x0000ab53      0x4cf ./../build/opteemin-sdcard-stm32mp135f-dk/bl2/bl2_image_load_v2.o
 .debug_str     0x0000ab53      0x40f ./../build/opteemin-sdcard-stm32mp135f-dk/bl2/bl2_main.o
 .debug_str     0x0000ab53      0x44d ./../build/opteemin-sdcard-stm32mp135f-dk/bl2/bl_common.o
 .debug_str     0x0000ab53      0x6b1 ./../build/opteemin-sdcard-stm32mp135f-dk/bl2/desc_image_load.o
 .debug_str     0x0000ab53      0x747 ./../build/opteemin-sdcard-stm32mp135f-dk/bl2/fdt_wrappers.o
 .debug_str     0x0000ab53      0x2d4 ./../build/opteemin-sdcard-stm32mp135f-dk/bl2/tf_log.o
 .debug_str     0x0000ab53      0x29b ./../build/opteemin-sdcard-stm32mp135f-dk/bl2/uuid.o
 .debug_str     0x0000ab53      0x635 ./../build/opteemin-sdcard-stm32mp135f-dk/bl2/tzc400.o
 .debug_str     0x0000ab53      0x260 ./../build/opteemin-sdcard-stm32mp135f-dk/bl2/clk.o
 .debug_str     0x0000ab53      0x32c ./../build/opteemin-sdcard-stm32mp135f-dk/bl2/multi_console.o
 .debug_str     0x0000ab53      0x2fa ./../build/opteemin-sdcard-stm32mp135f-dk/bl2/delay_timer.o
 .debug_str     0x0000ab53      0x34e ./../build/opteemin-sdcard-stm32mp135f-dk/bl2/generic_delay_timer.o
 .debug_str     0x0000ab53      0x579 ./../build/opteemin-sdcard-stm32mp135f-dk/bl2/fwu.o
 .debug_str     0x0000ab53      0x66f ./../build/opteemin-sdcard-stm32mp135f-dk/bl2/io_block.o
 .debug_str     0x0000ab53      0x84f ./../build/opteemin-sdcard-stm32mp135f-dk/bl2/io_fip.o
 .debug_str     0x0000ab53      0x5bb ./../build/opteemin-sdcard-stm32mp135f-dk/bl2/io_storage.o
 .debug_str     0x0000ab53      0x956 ./../build/opteemin-sdcard-stm32mp135f-dk/bl2/mmc.o
 .debug_str     0x0000ab53      0x32c ./../build/opteemin-sdcard-stm32mp135f-dk/bl2/gpt.o
 .debug_str     0x0000ab53      0x719 ./../build/opteemin-sdcard-stm32mp135f-dk/bl2/partition.o
 .debug_str     0x0000ab53      0x502 ./../build/opteemin-sdcard-stm32mp135f-dk/bl2/bsec2.o
 .debug_str     0x0000ab53      0xd4b ./../build/opteemin-sdcard-stm32mp135f-dk/bl2/clk-stm32-core.o
 .debug_str     0x0000ab53     0x2249 ./../build/opteemin-sdcard-stm32mp135f-dk/bl2/clk-stm32mp13.o
 .debug_str     0x0000ab53      0x559 ./../build/opteemin-sdcard-stm32mp135f-dk/bl2/stm32mp_clkfunc.o
 .debug_str     0x0000ab53      0x5bb ./../build/opteemin-sdcard-stm32mp135f-dk/bl2/stm32_rng.o
 .debug_str     0x0000ab53      0xf4c ./../build/opteemin-sdcard-stm32mp135f-dk/bl2/stm32mp1_ddr.o
 .debug_str     0x0000ab53      0xac7 ./../build/opteemin-sdcard-stm32mp135f-dk/bl2/stm32mp1_ddr_helpers.o
 .debug_str     0x0000ab53      0xdc0 ./../build/opteemin-sdcard-stm32mp135f-dk/bl2/stm32mp1_ram.o
 .debug_str     0x0000ab53      0xd4e ./../build/opteemin-sdcard-stm32mp135f-dk/bl2/stm32mp_ddr.o
 .debug_str     0x0000ab53      0x311 ./../build/opteemin-sdcard-stm32mp135f-dk/bl2/stm32mp_ddr_test.o
 .debug_str     0x0000ab53      0x2f0 ./../build/opteemin-sdcard-stm32mp135f-dk/bl2/stm32mp_ram.o
 .debug_str     0x0000ab53      0x576 ./../build/opteemin-sdcard-stm32mp135f-dk/bl2/stm32_gpio.o
 .debug_str     0x0000ab53      0x977 ./../build/opteemin-sdcard-stm32mp135f-dk/bl2/stm32_i2c.o
 .debug_str     0x0000ab53      0x4ca ./../build/opteemin-sdcard-stm32mp135f-dk/bl2/stm32_iwdg.o
 .debug_str     0x0000ab53      0x6c9 ./../build/opteemin-sdcard-stm32mp135f-dk/bl2/stm32_mce.o
 .debug_str     0x0000ab53      0x934 ./../build/opteemin-sdcard-stm32mp135f-dk/bl2/stm32_sdmmc2.o
 .debug_str     0x0000ab53      0x434 ./../build/opteemin-sdcard-stm32mp135f-dk/bl2/nvmem.o
 .debug_str     0x0000ab53      0x7e0 ./../build/opteemin-sdcard-stm32mp135f-dk/bl2/stm32mp_tamp_nvram_core.o
 .debug_str     0x0000ab53      0x41a ./../build/opteemin-sdcard-stm32mp135f-dk/bl2/stm32mp_tamp_nvram_mp1.o
 .debug_str     0x0000ab53      0xb7f ./../build/opteemin-sdcard-stm32mp135f-dk/bl2/stm32mp_pmic.o
 .debug_str     0x0000ab53      0x7f2 ./../build/opteemin-sdcard-stm32mp135f-dk/bl2/stpmic1.o
 .debug_str     0x0000ab53      0x596 ./../build/opteemin-sdcard-stm32mp135f-dk/bl2/regulator_core.o
 .debug_str     0x0000ab53      0x3f9 ./../build/opteemin-sdcard-stm32mp135f-dk/bl2/regulator_fixed.o
 .debug_str     0x0000ab53      0x373 ./../build/opteemin-sdcard-stm32mp135f-dk/bl2/stm32mp1_reset.o
 .debug_str     0x0000ab53      0x250 ./../build/opteemin-sdcard-stm32mp135f-dk/bl2/ctzdi2.o
 .debug_str     0x0000ab53      0x27b ./../build/opteemin-sdcard-stm32mp135f-dk/bl2/udivmoddi4.o
 .debug_str     0x0000ab53      0x40a ./../build/opteemin-sdcard-stm32mp135f-dk/bl2/fconf.o
 .debug_str     0x0000ab53      0x517 ./../build/opteemin-sdcard-stm32mp135f-dk/bl2/fconf_dyn_cfg_getter.o
 .debug_str     0x0000ab53      0x45e ./../build/opteemin-sdcard-stm32mp135f-dk/bl2/optee_utils.o
 .debug_str     0x0000ab53      0x524 ./../build/opteemin-sdcard-stm32mp135f-dk/bl2/xlat_tables_arch.o
 .debug_str     0x0000ab53      0x627 ./../build/opteemin-sdcard-stm32mp135f-dk/bl2/xlat_tables_context.o
 .debug_str     0x0000ab53      0x8e7 ./../build/opteemin-sdcard-stm32mp135f-dk/bl2/xlat_tables_core.o
 .debug_str     0x0000ab53      0x551 ./../build/opteemin-sdcard-stm32mp135f-dk/bl2/xlat_tables_utils.o
 .debug_str     0x0000ab53      0x260 ./../build/opteemin-sdcard-stm32mp135f-dk/bl2/crc32.o
 .debug_str     0x0000ab53      0x36a ./../build/opteemin-sdcard-stm32mp135f-dk/bl2/tf_gunzip.o
 .debug_str     0x0000ab53      0x45b ./../build/opteemin-sdcard-stm32mp135f-dk/bl2/plat_bl_common.o
 .debug_str     0x0000ab53      0x27f ./../build/opteemin-sdcard-stm32mp135f-dk/bl2/plat_log_common.o
 .debug_str     0x0000ab53     0x1062 ./../build/opteemin-sdcard-stm32mp135f-dk/bl2/bl2_io_storage.o
 .debug_str     0x0000ab53      0x476 ./../build/opteemin-sdcard-stm32mp135f-dk/bl2/plat_image_load.o
 .debug_str     0x0000ab53      0xd20 ./../build/opteemin-sdcard-stm32mp135f-dk/bl2/stm32mp_common.o
 .debug_str     0x0000ab53      0x777 ./../build/opteemin-sdcard-stm32mp135f-dk/bl2/stm32mp_dt.o
 .debug_str     0x0000ab53      0x458 ./../build/opteemin-sdcard-stm32mp135f-dk/bl2/stm32mp_fconf_fuse.o
 .debug_str     0x0000ab53      0x593 ./../build/opteemin-sdcard-stm32mp135f-dk/bl2/stm32mp_fconf_io.o
 .debug_str     0x0000ab53      0xf8a ./../build/opteemin-sdcard-stm32mp135f-dk/bl2/bl2_plat_setup.o
 .debug_str     0x0000ab53      0x462 ./../build/opteemin-sdcard-stm32mp135f-dk/bl2/plat_bl2_mem_params_desc.o
 .debug_str     0x0000ab53      0x40e ./../build/opteemin-sdcard-stm32mp135f-dk/bl2/plat_ddr.o
 .debug_str     0x0000ab53      0x56b ./../build/opteemin-sdcard-stm32mp135f-dk/bl2/stm32mp1_context.o
 .debug_str     0x0000ab53      0x431 ./../build/opteemin-sdcard-stm32mp135f-dk/bl2/stm32mp1_critic_power.o
 .debug_str     0x0000ab53      0x487 ./../build/opteemin-sdcard-stm32mp135f-dk/bl2/stm32mp1_fconf_firewall.o
 .debug_str     0x0000ab53      0x6c6 ./../build/opteemin-sdcard-stm32mp135f-dk/bl2/stm32mp1_private.o
 .debug_str     0x0000ab53      0x612 ./../build/opteemin-sdcard-stm32mp135f-dk/bl2/stm32mp1_syscfg.o
 .debug_str     0x0000ab53       0x6a ./../build/opteemin-sdcard-stm32mp135f-dk/bl2/bl2_el3_entrypoint.o
 .debug_str     0x0000ab53       0x5b ./../build/opteemin-sdcard-stm32mp135f-dk/bl2/bl2_el3_exceptions.o
 .debug_str     0x0000ab53       0x6e ./../build/opteemin-sdcard-stm32mp135f-dk/bl2/bl2_run_next_image.o
 .debug_str     0x0000ab53       0xbb ./../build/opteemin-sdcard-stm32mp135f-dk/bl2/debug.o
 .debug_str     0x0000ab53      0x101 ./../build/opteemin-sdcard-stm32mp135f-dk/bl2/stm32_console.o
 .debug_str     0x0000ab53       0xdf ./../build/opteemin-sdcard-stm32mp135f-dk/bl2/cache_helpers.o
 .debug_str     0x0000ab53       0xb5 ./../build/opteemin-sdcard-stm32mp135f-dk/bl2/misc_helpers.o
 .debug_str     0x0000ab53       0x79 ./../build/opteemin-sdcard-stm32mp135f-dk/bl2/aeabi_uldivmod.o
 .debug_str     0x0000ab53       0xc8 ./../build/opteemin-sdcard-stm32mp135f-dk/bl2/cortex_a7.o
 .debug_str     0x0000ab53       0xa5 ./../build/opteemin-sdcard-stm32mp135f-dk/bl2/cpu_helpers.o
 .debug_str     0x0000ab53       0x77 ./../build/opteemin-sdcard-stm32mp135f-dk/bl2/spinlock.o
 .debug_str     0x0000ab53       0x92 ./../build/opteemin-sdcard-stm32mp135f-dk/bl2/enable_mmu.o
 .debug_str     0x0000ab53       0x86 ./../build/opteemin-sdcard-stm32mp135f-dk/bl2/platform_up_stack.o
 .debug_str     0x0000ab53       0xa0 ./../build/opteemin-sdcard-stm32mp135f-dk/bl2/stm32mp1_critic_power_wrapper.o
 .debug_str     0x0000ab53      0x19f ./../build/opteemin-sdcard-stm32mp135f-dk/bl2/stm32mp1_helper.o
 .debug_str     0x0000ab53      0x4bd ./../build/opteemin-sdcard-stm32mp135f-dk/lib/libfdt.a(fdt.o)
 .debug_str     0x0000ab53      0x2bd ./../build/opteemin-sdcard-stm32mp135f-dk/lib/libfdt.a(fdt_addresses.o)
 .debug_str     0x0000ab53      0x8cb ./../build/opteemin-sdcard-stm32mp135f-dk/lib/libfdt.a(fdt_ro.o)
 .debug_str     0x0000ab53      0x229 ./../build/opteemin-sdcard-stm32mp135f-dk/lib/libc.a(assert.o)
 .debug_str     0x0000ab53      0x184 ./../build/opteemin-sdcard-stm32mp135f-dk/lib/libc.a(memchr.o)
 .debug_str     0x0000ab53      0x184 ./../build/opteemin-sdcard-stm32mp135f-dk/lib/libc.a(memcmp.o)
 .debug_str     0x0000ab53      0x17b ./../build/opteemin-sdcard-stm32mp135f-dk/lib/libc.a(memcpy.o)
 .debug_str     0x0000ab53      0x184 ./../build/opteemin-sdcard-stm32mp135f-dk/lib/libc.a(memmove.o)
 .debug_str     0x0000ab53      0x1f9 ./../build/opteemin-sdcard-stm32mp135f-dk/lib/libc.a(memset.o)
 .debug_str     0x0000ab53      0x273 ./../build/opteemin-sdcard-stm32mp135f-dk/lib/libc.a(printf.o)
 .debug_str     0x0000ab53      0x2a3 ./../build/opteemin-sdcard-stm32mp135f-dk/lib/libc.a(snprintf.o)
 .debug_str     0x0000ab53      0x174 ./../build/opteemin-sdcard-stm32mp135f-dk/lib/libc.a(strchr.o)
 .debug_str     0x0000ab53      0x15d ./../build/opteemin-sdcard-stm32mp135f-dk/lib/libc.a(strcmp.o)
 .debug_str     0x0000ab53      0x1e5 ./../build/opteemin-sdcard-stm32mp135f-dk/lib/libc.a(strlcpy.o)
 .debug_str     0x0000ab53      0x182 ./../build/opteemin-sdcard-stm32mp135f-dk/lib/libc.a(strlen.o)
 .debug_str     0x0000ab53      0x17d ./../build/opteemin-sdcard-stm32mp135f-dk/lib/libc.a(strncmp.o)
 .debug_str     0x0000ab53      0x16d ./../build/opteemin-sdcard-stm32mp135f-dk/lib/libc.a(strnlen.o)
 .debug_str     0x0000ab53      0x17b ./../build/opteemin-sdcard-stm32mp135f-dk/lib/libc.a(strrchr.o)

.comment        0x00000000       0x12
 .comment       0x00000000       0x12 ./../build/opteemin-sdcard-stm32mp135f-dk/bl2/build_message.o
                                 0x13 (size before relaxing)
 .comment       0x00000012       0x13 ./../build/opteemin-sdcard-stm32mp135f-dk/bl2/bl2_arch_setup.o
 .comment       0x00000012       0x13 ./../build/opteemin-sdcard-stm32mp135f-dk/bl2/bl2_image_load_v2.o
 .comment       0x00000012       0x13 ./../build/opteemin-sdcard-stm32mp135f-dk/bl2/bl2_main.o
 .comment       0x00000012       0x13 ./../build/opteemin-sdcard-stm32mp135f-dk/bl2/bl_common.o
 .comment       0x00000012       0x13 ./../build/opteemin-sdcard-stm32mp135f-dk/bl2/desc_image_load.o
 .comment       0x00000012       0x13 ./../build/opteemin-sdcard-stm32mp135f-dk/bl2/fdt_wrappers.o
 .comment       0x00000012       0x13 ./../build/opteemin-sdcard-stm32mp135f-dk/bl2/tf_log.o
 .comment       0x00000012       0x13 ./../build/opteemin-sdcard-stm32mp135f-dk/bl2/uuid.o
 .comment       0x00000012       0x13 ./../build/opteemin-sdcard-stm32mp135f-dk/bl2/tzc400.o
 .comment       0x00000012       0x13 ./../build/opteemin-sdcard-stm32mp135f-dk/bl2/clk.o
 .comment       0x00000012       0x13 ./../build/opteemin-sdcard-stm32mp135f-dk/bl2/multi_console.o
 .comment       0x00000012       0x13 ./../build/opteemin-sdcard-stm32mp135f-dk/bl2/delay_timer.o
 .comment       0x00000012       0x13 ./../build/opteemin-sdcard-stm32mp135f-dk/bl2/generic_delay_timer.o
 .comment       0x00000012       0x13 ./../build/opteemin-sdcard-stm32mp135f-dk/bl2/fwu.o
 .comment       0x00000012       0x13 ./../build/opteemin-sdcard-stm32mp135f-dk/bl2/io_block.o
 .comment       0x00000012       0x13 ./../build/opteemin-sdcard-stm32mp135f-dk/bl2/io_fip.o
 .comment       0x00000012       0x13 ./../build/opteemin-sdcard-stm32mp135f-dk/bl2/io_storage.o
 .comment       0x00000012       0x13 ./../build/opteemin-sdcard-stm32mp135f-dk/bl2/mmc.o
 .comment       0x00000012       0x13 ./../build/opteemin-sdcard-stm32mp135f-dk/bl2/gpt.o
 .comment       0x00000012       0x13 ./../build/opteemin-sdcard-stm32mp135f-dk/bl2/partition.o
 .comment       0x00000012       0x13 ./../build/opteemin-sdcard-stm32mp135f-dk/bl2/bsec2.o
 .comment       0x00000012       0x13 ./../build/opteemin-sdcard-stm32mp135f-dk/bl2/clk-stm32-core.o
 .comment       0x00000012       0x13 ./../build/opteemin-sdcard-stm32mp135f-dk/bl2/clk-stm32mp13.o
 .comment       0x00000012       0x13 ./../build/opteemin-sdcard-stm32mp135f-dk/bl2/stm32mp_clkfunc.o
 .comment       0x00000012       0x13 ./../build/opteemin-sdcard-stm32mp135f-dk/bl2/stm32_rng.o
 .comment       0x00000012       0x13 ./../build/opteemin-sdcard-stm32mp135f-dk/bl2/stm32mp1_ddr.o
 .comment       0x00000012       0x13 ./../build/opteemin-sdcard-stm32mp135f-dk/bl2/stm32mp1_ddr_helpers.o
 .comment       0x00000012       0x13 ./../build/opteemin-sdcard-stm32mp135f-dk/bl2/stm32mp1_ram.o
 .comment       0x00000012       0x13 ./../build/opteemin-sdcard-stm32mp135f-dk/bl2/stm32mp_ddr.o
 .comment       0x00000012       0x13 ./../build/opteemin-sdcard-stm32mp135f-dk/bl2/stm32mp_ddr_test.o
 .comment       0x00000012       0x13 ./../build/opteemin-sdcard-stm32mp135f-dk/bl2/stm32mp_ram.o
 .comment       0x00000012       0x13 ./../build/opteemin-sdcard-stm32mp135f-dk/bl2/stm32_gpio.o
 .comment       0x00000012       0x13 ./../build/opteemin-sdcard-stm32mp135f-dk/bl2/stm32_i2c.o
 .comment       0x00000012       0x13 ./../build/opteemin-sdcard-stm32mp135f-dk/bl2/stm32_iwdg.o
 .comment       0x00000012       0x13 ./../build/opteemin-sdcard-stm32mp135f-dk/bl2/stm32_mce.o
 .comment       0x00000012       0x13 ./../build/opteemin-sdcard-stm32mp135f-dk/bl2/stm32_sdmmc2.o
 .comment       0x00000012       0x13 ./../build/opteemin-sdcard-stm32mp135f-dk/bl2/nvmem.o
 .comment       0x00000012       0x13 ./../build/opteemin-sdcard-stm32mp135f-dk/bl2/stm32mp_tamp_nvram_core.o
 .comment       0x00000012       0x13 ./../build/opteemin-sdcard-stm32mp135f-dk/bl2/stm32mp_tamp_nvram_mp1.o
 .comment       0x00000012       0x13 ./../build/opteemin-sdcard-stm32mp135f-dk/bl2/stm32mp_pmic.o
 .comment       0x00000012       0x13 ./../build/opteemin-sdcard-stm32mp135f-dk/bl2/stpmic1.o
 .comment       0x00000012       0x13 ./../build/opteemin-sdcard-stm32mp135f-dk/bl2/regulator_core.o
 .comment       0x00000012       0x13 ./../build/opteemin-sdcard-stm32mp135f-dk/bl2/regulator_fixed.o
 .comment       0x00000012       0x13 ./../build/opteemin-sdcard-stm32mp135f-dk/bl2/stm32mp1_reset.o
 .comment       0x00000012       0x13 ./../build/opteemin-sdcard-stm32mp135f-dk/bl2/ctzdi2.o
 .comment       0x00000012       0x13 ./../build/opteemin-sdcard-stm32mp135f-dk/bl2/udivmoddi4.o
 .comment       0x00000012       0x13 ./../build/opteemin-sdcard-stm32mp135f-dk/bl2/fconf.o
 .comment       0x00000012       0x13 ./../build/opteemin-sdcard-stm32mp135f-dk/bl2/fconf_dyn_cfg_getter.o
 .comment       0x00000012       0x13 ./../build/opteemin-sdcard-stm32mp135f-dk/bl2/optee_utils.o
 .comment       0x00000012       0x13 ./../build/opteemin-sdcard-stm32mp135f-dk/bl2/xlat_tables_arch.o
 .comment       0x00000012       0x13 ./../build/opteemin-sdcard-stm32mp135f-dk/bl2/xlat_tables_context.o
 .comment       0x00000012       0x13 ./../build/opteemin-sdcard-stm32mp135f-dk/bl2/xlat_tables_core.o
 .comment       0x00000012       0x13 ./../build/opteemin-sdcard-stm32mp135f-dk/bl2/xlat_tables_utils.o
 .comment       0x00000012       0x13 ./../build/opteemin-sdcard-stm32mp135f-dk/bl2/crc32.o
 .comment       0x00000012       0x13 ./../build/opteemin-sdcard-stm32mp135f-dk/bl2/tf_gunzip.o
 .comment       0x00000012       0x13 ./../build/opteemin-sdcard-stm32mp135f-dk/bl2/plat_bl_common.o
 .comment       0x00000012       0x13 ./../build/opteemin-sdcard-stm32mp135f-dk/bl2/plat_log_common.o
 .comment       0x00000012       0x13 ./../build/opteemin-sdcard-stm32mp135f-dk/bl2/bl2_io_storage.o
 .comment       0x00000012       0x13 ./../build/opteemin-sdcard-stm32mp135f-dk/bl2/plat_image_load.o
 .comment       0x00000012       0x13 ./../build/opteemin-sdcard-stm32mp135f-dk/bl2/stm32mp_common.o
 .comment       0x00000012       0x13 ./../build/opteemin-sdcard-stm32mp135f-dk/bl2/stm32mp_dt.o
 .comment       0x00000012       0x13 ./../build/opteemin-sdcard-stm32mp135f-dk/bl2/stm32mp_fconf_fuse.o
 .comment       0x00000012       0x13 ./../build/opteemin-sdcard-stm32mp135f-dk/bl2/stm32mp_fconf_io.o
 .comment       0x00000012       0x13 ./../build/opteemin-sdcard-stm32mp135f-dk/bl2/bl2_plat_setup.o
 .comment       0x00000012       0x13 ./../build/opteemin-sdcard-stm32mp135f-dk/bl2/plat_bl2_mem_params_desc.o
 .comment       0x00000012       0x13 ./../build/opteemin-sdcard-stm32mp135f-dk/bl2/plat_ddr.o
 .comment       0x00000012       0x13 ./../build/opteemin-sdcard-stm32mp135f-dk/bl2/stm32mp1_context.o
 .comment       0x00000012       0x13 ./../build/opteemin-sdcard-stm32mp135f-dk/bl2/stm32mp1_critic_power.o
 .comment       0x00000012       0x13 ./../build/opteemin-sdcard-stm32mp135f-dk/bl2/stm32mp1_fconf_firewall.o
 .comment       0x00000012       0x13 ./../build/opteemin-sdcard-stm32mp135f-dk/bl2/stm32mp1_private.o
 .comment       0x00000012       0x13 ./../build/opteemin-sdcard-stm32mp135f-dk/bl2/stm32mp1_syscfg.o
 .comment       0x00000012       0x13 ./../build/opteemin-sdcard-stm32mp135f-dk/lib/libfdt.a(fdt.o)
 .comment       0x00000012       0x13 ./../build/opteemin-sdcard-stm32mp135f-dk/lib/libfdt.a(fdt_addresses.o)
 .comment       0x00000012       0x13 ./../build/opteemin-sdcard-stm32mp135f-dk/lib/libfdt.a(fdt_ro.o)
 .comment       0x00000012       0x13 ./../build/opteemin-sdcard-stm32mp135f-dk/lib/libc.a(assert.o)
 .comment       0x00000012       0x13 ./../build/opteemin-sdcard-stm32mp135f-dk/lib/libc.a(memchr.o)
 .comment       0x00000012       0x13 ./../build/opteemin-sdcard-stm32mp135f-dk/lib/libc.a(memcmp.o)
 .comment       0x00000012       0x13 ./../build/opteemin-sdcard-stm32mp135f-dk/lib/libc.a(memcpy.o)
 .comment       0x00000012       0x13 ./../build/opteemin-sdcard-stm32mp135f-dk/lib/libc.a(memmove.o)
 .comment       0x00000012       0x13 ./../build/opteemin-sdcard-stm32mp135f-dk/lib/libc.a(memset.o)
 .comment       0x00000012       0x13 ./../build/opteemin-sdcard-stm32mp135f-dk/lib/libc.a(printf.o)
 .comment       0x00000012       0x13 ./../build/opteemin-sdcard-stm32mp135f-dk/lib/libc.a(snprintf.o)
 .comment       0x00000012       0x13 ./../build/opteemin-sdcard-stm32mp135f-dk/lib/libc.a(strchr.o)
 .comment       0x00000012       0x13 ./../build/opteemin-sdcard-stm32mp135f-dk/lib/libc.a(strcmp.o)
 .comment       0x00000012       0x13 ./../build/opteemin-sdcard-stm32mp135f-dk/lib/libc.a(strlcpy.o)
 .comment       0x00000012       0x13 ./../build/opteemin-sdcard-stm32mp135f-dk/lib/libc.a(strlen.o)
 .comment       0x00000012       0x13 ./../build/opteemin-sdcard-stm32mp135f-dk/lib/libc.a(strncmp.o)
 .comment       0x00000012       0x13 ./../build/opteemin-sdcard-stm32mp135f-dk/lib/libc.a(strnlen.o)
 .comment       0x00000012       0x13 ./../build/opteemin-sdcard-stm32mp135f-dk/lib/libc.a(strrchr.o)

.note.GNU-stack
                0x00000000        0x0
 .note.GNU-stack
                0x00000000        0x0 ./../build/opteemin-sdcard-stm32mp135f-dk/bl2/build_message.o
 .note.GNU-stack
                0x00000000        0x0 ./../build/opteemin-sdcard-stm32mp135f-dk/bl2/bl2_arch_setup.o
 .note.GNU-stack
                0x00000000        0x0 ./../build/opteemin-sdcard-stm32mp135f-dk/bl2/bl2_image_load_v2.o
 .note.GNU-stack
                0x00000000        0x0 ./../build/opteemin-sdcard-stm32mp135f-dk/bl2/bl2_main.o
 .note.GNU-stack
                0x00000000        0x0 ./../build/opteemin-sdcard-stm32mp135f-dk/bl2/bl_common.o
 .note.GNU-stack
                0x00000000        0x0 ./../build/opteemin-sdcard-stm32mp135f-dk/bl2/desc_image_load.o
 .note.GNU-stack
                0x00000000        0x0 ./../build/opteemin-sdcard-stm32mp135f-dk/bl2/fdt_wrappers.o
 .note.GNU-stack
                0x00000000        0x0 ./../build/opteemin-sdcard-stm32mp135f-dk/bl2/tf_log.o
 .note.GNU-stack
                0x00000000        0x0 ./../build/opteemin-sdcard-stm32mp135f-dk/bl2/uuid.o
 .note.GNU-stack
                0x00000000        0x0 ./../build/opteemin-sdcard-stm32mp135f-dk/bl2/tzc400.o
 .note.GNU-stack
                0x00000000        0x0 ./../build/opteemin-sdcard-stm32mp135f-dk/bl2/clk.o
 .note.GNU-stack
                0x00000000        0x0 ./../build/opteemin-sdcard-stm32mp135f-dk/bl2/multi_console.o
 .note.GNU-stack
                0x00000000        0x0 ./../build/opteemin-sdcard-stm32mp135f-dk/bl2/delay_timer.o
 .note.GNU-stack
                0x00000000        0x0 ./../build/opteemin-sdcard-stm32mp135f-dk/bl2/generic_delay_timer.o
 .note.GNU-stack
                0x00000000        0x0 ./../build/opteemin-sdcard-stm32mp135f-dk/bl2/fwu.o
 .note.GNU-stack
                0x00000000        0x0 ./../build/opteemin-sdcard-stm32mp135f-dk/bl2/io_block.o
 .note.GNU-stack
                0x00000000        0x0 ./../build/opteemin-sdcard-stm32mp135f-dk/bl2/io_fip.o
 .note.GNU-stack
                0x00000000        0x0 ./../build/opteemin-sdcard-stm32mp135f-dk/bl2/io_storage.o
 .note.GNU-stack
                0x00000000        0x0 ./../build/opteemin-sdcard-stm32mp135f-dk/bl2/mmc.o
 .note.GNU-stack
                0x00000000        0x0 ./../build/opteemin-sdcard-stm32mp135f-dk/bl2/gpt.o
 .note.GNU-stack
                0x00000000        0x0 ./../build/opteemin-sdcard-stm32mp135f-dk/bl2/partition.o
 .note.GNU-stack
                0x00000000        0x0 ./../build/opteemin-sdcard-stm32mp135f-dk/bl2/bsec2.o
 .note.GNU-stack
                0x00000000        0x0 ./../build/opteemin-sdcard-stm32mp135f-dk/bl2/clk-stm32-core.o
 .note.GNU-stack
                0x00000000        0x0 ./../build/opteemin-sdcard-stm32mp135f-dk/bl2/clk-stm32mp13.o
 .note.GNU-stack
                0x00000000        0x0 ./../build/opteemin-sdcard-stm32mp135f-dk/bl2/stm32mp_clkfunc.o
 .note.GNU-stack
                0x00000000        0x0 ./../build/opteemin-sdcard-stm32mp135f-dk/bl2/stm32_rng.o
 .note.GNU-stack
                0x00000000        0x0 ./../build/opteemin-sdcard-stm32mp135f-dk/bl2/stm32mp1_ddr.o
 .note.GNU-stack
                0x00000000        0x0 ./../build/opteemin-sdcard-stm32mp135f-dk/bl2/stm32mp1_ddr_helpers.o
 .note.GNU-stack
                0x00000000        0x0 ./../build/opteemin-sdcard-stm32mp135f-dk/bl2/stm32mp1_ram.o
 .note.GNU-stack
                0x00000000        0x0 ./../build/opteemin-sdcard-stm32mp135f-dk/bl2/stm32mp_ddr.o
 .note.GNU-stack
                0x00000000        0x0 ./../build/opteemin-sdcard-stm32mp135f-dk/bl2/stm32mp_ddr_test.o
 .note.GNU-stack
                0x00000000        0x0 ./../build/opteemin-sdcard-stm32mp135f-dk/bl2/stm32mp_ram.o
 .note.GNU-stack
                0x00000000        0x0 ./../build/opteemin-sdcard-stm32mp135f-dk/bl2/stm32_gpio.o
 .note.GNU-stack
                0x00000000        0x0 ./../build/opteemin-sdcard-stm32mp135f-dk/bl2/stm32_i2c.o
 .note.GNU-stack
                0x00000000        0x0 ./../build/opteemin-sdcard-stm32mp135f-dk/bl2/stm32_iwdg.o
 .note.GNU-stack
                0x00000000        0x0 ./../build/opteemin-sdcard-stm32mp135f-dk/bl2/stm32_mce.o
 .note.GNU-stack
                0x00000000        0x0 ./../build/opteemin-sdcard-stm32mp135f-dk/bl2/stm32_sdmmc2.o
 .note.GNU-stack
                0x00000000        0x0 ./../build/opteemin-sdcard-stm32mp135f-dk/bl2/nvmem.o
 .note.GNU-stack
                0x00000000        0x0 ./../build/opteemin-sdcard-stm32mp135f-dk/bl2/stm32mp_tamp_nvram_core.o
 .note.GNU-stack
                0x00000000        0x0 ./../build/opteemin-sdcard-stm32mp135f-dk/bl2/stm32mp_tamp_nvram_mp1.o
 .note.GNU-stack
                0x00000000        0x0 ./../build/opteemin-sdcard-stm32mp135f-dk/bl2/stm32mp_pmic.o
 .note.GNU-stack
                0x00000000        0x0 ./../build/opteemin-sdcard-stm32mp135f-dk/bl2/stpmic1.o
 .note.GNU-stack
                0x00000000        0x0 ./../build/opteemin-sdcard-stm32mp135f-dk/bl2/regulator_core.o
 .note.GNU-stack
                0x00000000        0x0 ./../build/opteemin-sdcard-stm32mp135f-dk/bl2/regulator_fixed.o
 .note.GNU-stack
                0x00000000        0x0 ./../build/opteemin-sdcard-stm32mp135f-dk/bl2/stm32mp1_reset.o
 .note.GNU-stack
                0x00000000        0x0 ./../build/opteemin-sdcard-stm32mp135f-dk/bl2/ctzdi2.o
 .note.GNU-stack
                0x00000000        0x0 ./../build/opteemin-sdcard-stm32mp135f-dk/bl2/udivmoddi4.o
 .note.GNU-stack
                0x00000000        0x0 ./../build/opteemin-sdcard-stm32mp135f-dk/bl2/fconf.o
 .note.GNU-stack
                0x00000000        0x0 ./../build/opteemin-sdcard-stm32mp135f-dk/bl2/fconf_dyn_cfg_getter.o
 .note.GNU-stack
                0x00000000        0x0 ./../build/opteemin-sdcard-stm32mp135f-dk/bl2/optee_utils.o
 .note.GNU-stack
                0x00000000        0x0 ./../build/opteemin-sdcard-stm32mp135f-dk/bl2/xlat_tables_arch.o
 .note.GNU-stack
                0x00000000        0x0 ./../build/opteemin-sdcard-stm32mp135f-dk/bl2/xlat_tables_context.o
 .note.GNU-stack
                0x00000000        0x0 ./../build/opteemin-sdcard-stm32mp135f-dk/bl2/xlat_tables_core.o
 .note.GNU-stack
                0x00000000        0x0 ./../build/opteemin-sdcard-stm32mp135f-dk/bl2/xlat_tables_utils.o
 .note.GNU-stack
                0x00000000        0x0 ./../build/opteemin-sdcard-stm32mp135f-dk/bl2/crc32.o
 .note.GNU-stack
                0x00000000        0x0 ./../build/opteemin-sdcard-stm32mp135f-dk/bl2/tf_gunzip.o
 .note.GNU-stack
                0x00000000        0x0 ./../build/opteemin-sdcard-stm32mp135f-dk/bl2/plat_bl_common.o
 .note.GNU-stack
                0x00000000        0x0 ./../build/opteemin-sdcard-stm32mp135f-dk/bl2/plat_log_common.o
 .note.GNU-stack
                0x00000000        0x0 ./../build/opteemin-sdcard-stm32mp135f-dk/bl2/bl2_io_storage.o
 .note.GNU-stack
                0x00000000        0x0 ./../build/opteemin-sdcard-stm32mp135f-dk/bl2/plat_image_load.o
 .note.GNU-stack
                0x00000000        0x0 ./../build/opteemin-sdcard-stm32mp135f-dk/bl2/stm32mp_common.o
 .note.GNU-stack
                0x00000000        0x0 ./../build/opteemin-sdcard-stm32mp135f-dk/bl2/stm32mp_dt.o
 .note.GNU-stack
                0x00000000        0x0 ./../build/opteemin-sdcard-stm32mp135f-dk/bl2/stm32mp_fconf_fuse.o
 .note.GNU-stack
                0x00000000        0x0 ./../build/opteemin-sdcard-stm32mp135f-dk/bl2/stm32mp_fconf_io.o
 .note.GNU-stack
                0x00000000        0x0 ./../build/opteemin-sdcard-stm32mp135f-dk/bl2/bl2_plat_setup.o
 .note.GNU-stack
                0x00000000        0x0 ./../build/opteemin-sdcard-stm32mp135f-dk/bl2/plat_bl2_mem_params_desc.o
 .note.GNU-stack
                0x00000000        0x0 ./../build/opteemin-sdcard-stm32mp135f-dk/bl2/plat_ddr.o
 .note.GNU-stack
                0x00000000        0x0 ./../build/opteemin-sdcard-stm32mp135f-dk/bl2/stm32mp1_context.o
 .note.GNU-stack
                0x00000000        0x0 ./../build/opteemin-sdcard-stm32mp135f-dk/bl2/stm32mp1_critic_power.o
 .note.GNU-stack
                0x00000000        0x0 ./../build/opteemin-sdcard-stm32mp135f-dk/bl2/stm32mp1_fconf_firewall.o
 .note.GNU-stack
                0x00000000        0x0 ./../build/opteemin-sdcard-stm32mp135f-dk/bl2/stm32mp1_private.o
 .note.GNU-stack
                0x00000000        0x0 ./../build/opteemin-sdcard-stm32mp135f-dk/bl2/stm32mp1_syscfg.o
 .note.GNU-stack
                0x00000000        0x0 ./../build/opteemin-sdcard-stm32mp135f-dk/bl2/aeabi_uldivmod.o
 .note.GNU-stack
                0x00000000        0x0 ./../build/opteemin-sdcard-stm32mp135f-dk/lib/libfdt.a(fdt.o)
 .note.GNU-stack
                0x00000000        0x0 ./../build/opteemin-sdcard-stm32mp135f-dk/lib/libfdt.a(fdt_addresses.o)
 .note.GNU-stack
                0x00000000        0x0 ./../build/opteemin-sdcard-stm32mp135f-dk/lib/libfdt.a(fdt_ro.o)
 .note.GNU-stack
                0x00000000        0x0 ./../build/opteemin-sdcard-stm32mp135f-dk/lib/libc.a(assert.o)
 .note.GNU-stack
                0x00000000        0x0 ./../build/opteemin-sdcard-stm32mp135f-dk/lib/libc.a(memchr.o)
 .note.GNU-stack
                0x00000000        0x0 ./../build/opteemin-sdcard-stm32mp135f-dk/lib/libc.a(memcmp.o)
 .note.GNU-stack
                0x00000000        0x0 ./../build/opteemin-sdcard-stm32mp135f-dk/lib/libc.a(memcpy.o)
 .note.GNU-stack
                0x00000000        0x0 ./../build/opteemin-sdcard-stm32mp135f-dk/lib/libc.a(memmove.o)
 .note.GNU-stack
                0x00000000        0x0 ./../build/opteemin-sdcard-stm32mp135f-dk/lib/libc.a(memset.o)
 .note.GNU-stack
                0x00000000        0x0 ./../build/opteemin-sdcard-stm32mp135f-dk/lib/libc.a(printf.o)
 .note.GNU-stack
                0x00000000        0x0 ./../build/opteemin-sdcard-stm32mp135f-dk/lib/libc.a(snprintf.o)
 .note.GNU-stack
                0x00000000        0x0 ./../build/opteemin-sdcard-stm32mp135f-dk/lib/libc.a(strchr.o)
 .note.GNU-stack
                0x00000000        0x0 ./../build/opteemin-sdcard-stm32mp135f-dk/lib/libc.a(strcmp.o)
 .note.GNU-stack
                0x00000000        0x0 ./../build/opteemin-sdcard-stm32mp135f-dk/lib/libc.a(strlcpy.o)
 .note.GNU-stack
                0x00000000        0x0 ./../build/opteemin-sdcard-stm32mp135f-dk/lib/libc.a(strlen.o)
 .note.GNU-stack
                0x00000000        0x0 ./../build/opteemin-sdcard-stm32mp135f-dk/lib/libc.a(strncmp.o)
 .note.GNU-stack
                0x00000000        0x0 ./../build/opteemin-sdcard-stm32mp135f-dk/lib/libc.a(strnlen.o)
 .note.GNU-stack
                0x00000000        0x0 ./../build/opteemin-sdcard-stm32mp135f-dk/lib/libc.a(strrchr.o)

.ARM.attributes
                0x00000000       0x35
 .ARM.attributes
                0x00000000       0x33 ./../build/opteemin-sdcard-stm32mp135f-dk/bl2/build_message.o
 .ARM.attributes
                0x00000033       0x33 ./../build/opteemin-sdcard-stm32mp135f-dk/bl2/bl2_arch_setup.o
 .ARM.attributes
                0x00000066       0x33 ./../build/opteemin-sdcard-stm32mp135f-dk/bl2/bl2_image_load_v2.o
 .ARM.attributes
                0x00000099       0x33 ./../build/opteemin-sdcard-stm32mp135f-dk/bl2/bl2_main.o
 .ARM.attributes
                0x000000cc       0x33 ./../build/opteemin-sdcard-stm32mp135f-dk/bl2/bl_common.o
 .ARM.attributes
                0x000000ff       0x33 ./../build/opteemin-sdcard-stm32mp135f-dk/bl2/desc_image_load.o
 .ARM.attributes
                0x00000132       0x33 ./../build/opteemin-sdcard-stm32mp135f-dk/bl2/fdt_wrappers.o
 .ARM.attributes
                0x00000165       0x33 ./../build/opteemin-sdcard-stm32mp135f-dk/bl2/tf_log.o
 .ARM.attributes
                0x00000198       0x33 ./../build/opteemin-sdcard-stm32mp135f-dk/bl2/uuid.o
 .ARM.attributes
                0x000001cb       0x33 ./../build/opteemin-sdcard-stm32mp135f-dk/bl2/tzc400.o
 .ARM.attributes
                0x000001fe       0x33 ./../build/opteemin-sdcard-stm32mp135f-dk/bl2/clk.o
 .ARM.attributes
                0x00000231       0x33 ./../build/opteemin-sdcard-stm32mp135f-dk/bl2/multi_console.o
 .ARM.attributes
                0x00000264       0x33 ./../build/opteemin-sdcard-stm32mp135f-dk/bl2/delay_timer.o
 .ARM.attributes
                0x00000297       0x33 ./../build/opteemin-sdcard-stm32mp135f-dk/bl2/generic_delay_timer.o
 .ARM.attributes
                0x000002ca       0x33 ./../build/opteemin-sdcard-stm32mp135f-dk/bl2/fwu.o
 .ARM.attributes
                0x000002fd       0x33 ./../build/opteemin-sdcard-stm32mp135f-dk/bl2/io_block.o
 .ARM.attributes
                0x00000330       0x33 ./../build/opteemin-sdcard-stm32mp135f-dk/bl2/io_fip.o
 .ARM.attributes
                0x00000363       0x33 ./../build/opteemin-sdcard-stm32mp135f-dk/bl2/io_storage.o
 .ARM.attributes
                0x00000396       0x33 ./../build/opteemin-sdcard-stm32mp135f-dk/bl2/mmc.o
 .ARM.attributes
                0x000003c9       0x33 ./../build/opteemin-sdcard-stm32mp135f-dk/bl2/gpt.o
 .ARM.attributes
                0x000003fc       0x33 ./../build/opteemin-sdcard-stm32mp135f-dk/bl2/partition.o
 .ARM.attributes
                0x0000042f       0x33 ./../build/opteemin-sdcard-stm32mp135f-dk/bl2/bsec2.o
 .ARM.attributes
                0x00000462       0x33 ./../build/opteemin-sdcard-stm32mp135f-dk/bl2/clk-stm32-core.o
 .ARM.attributes
                0x00000495       0x33 ./../build/opteemin-sdcard-stm32mp135f-dk/bl2/clk-stm32mp13.o
 .ARM.attributes
                0x000004c8       0x33 ./../build/opteemin-sdcard-stm32mp135f-dk/bl2/stm32mp_clkfunc.o
 .ARM.attributes
                0x000004fb       0x33 ./../build/opteemin-sdcard-stm32mp135f-dk/bl2/stm32_rng.o
 .ARM.attributes
                0x0000052e       0x33 ./../build/opteemin-sdcard-stm32mp135f-dk/bl2/stm32mp1_ddr.o
 .ARM.attributes
                0x00000561       0x33 ./../build/opteemin-sdcard-stm32mp135f-dk/bl2/stm32mp1_ddr_helpers.o
 .ARM.attributes
                0x00000594       0x33 ./../build/opteemin-sdcard-stm32mp135f-dk/bl2/stm32mp1_ram.o
 .ARM.attributes
                0x000005c7       0x33 ./../build/opteemin-sdcard-stm32mp135f-dk/bl2/stm32mp_ddr.o
 .ARM.attributes
                0x000005fa       0x33 ./../build/opteemin-sdcard-stm32mp135f-dk/bl2/stm32mp_ddr_test.o
 .ARM.attributes
                0x0000062d       0x33 ./../build/opteemin-sdcard-stm32mp135f-dk/bl2/stm32mp_ram.o
 .ARM.attributes
                0x00000660       0x33 ./../build/opteemin-sdcard-stm32mp135f-dk/bl2/stm32_gpio.o
 .ARM.attributes
                0x00000693       0x33 ./../build/opteemin-sdcard-stm32mp135f-dk/bl2/stm32_i2c.o
 .ARM.attributes
                0x000006c6       0x33 ./../build/opteemin-sdcard-stm32mp135f-dk/bl2/stm32_iwdg.o
 .ARM.attributes
                0x000006f9       0x33 ./../build/opteemin-sdcard-stm32mp135f-dk/bl2/stm32_mce.o
 .ARM.attributes
                0x0000072c       0x33 ./../build/opteemin-sdcard-stm32mp135f-dk/bl2/stm32_sdmmc2.o
 .ARM.attributes
                0x0000075f       0x33 ./../build/opteemin-sdcard-stm32mp135f-dk/bl2/nvmem.o
 .ARM.attributes
                0x00000792       0x33 ./../build/opteemin-sdcard-stm32mp135f-dk/bl2/stm32mp_tamp_nvram_core.o
 .ARM.attributes
                0x000007c5       0x33 ./../build/opteemin-sdcard-stm32mp135f-dk/bl2/stm32mp_tamp_nvram_mp1.o
 .ARM.attributes
                0x000007f8       0x33 ./../build/opteemin-sdcard-stm32mp135f-dk/bl2/stm32mp_pmic.o
 .ARM.attributes
                0x0000082b       0x33 ./../build/opteemin-sdcard-stm32mp135f-dk/bl2/stpmic1.o
 .ARM.attributes
                0x0000085e       0x33 ./../build/opteemin-sdcard-stm32mp135f-dk/bl2/regulator_core.o
 .ARM.attributes
                0x00000891       0x33 ./../build/opteemin-sdcard-stm32mp135f-dk/bl2/regulator_fixed.o
 .ARM.attributes
                0x000008c4       0x33 ./../build/opteemin-sdcard-stm32mp135f-dk/bl2/stm32mp1_reset.o
 .ARM.attributes
                0x000008f7       0x33 ./../build/opteemin-sdcard-stm32mp135f-dk/bl2/ctzdi2.o
 .ARM.attributes
                0x0000092a       0x33 ./../build/opteemin-sdcard-stm32mp135f-dk/bl2/udivmoddi4.o
 .ARM.attributes
                0x0000095d       0x33 ./../build/opteemin-sdcard-stm32mp135f-dk/bl2/fconf.o
 .ARM.attributes
                0x00000990       0x33 ./../build/opteemin-sdcard-stm32mp135f-dk/bl2/fconf_dyn_cfg_getter.o
 .ARM.attributes
                0x000009c3       0x33 ./../build/opteemin-sdcard-stm32mp135f-dk/bl2/optee_utils.o
 .ARM.attributes
                0x000009f6       0x33 ./../build/opteemin-sdcard-stm32mp135f-dk/bl2/xlat_tables_arch.o
 .ARM.attributes
                0x00000a29       0x33 ./../build/opteemin-sdcard-stm32mp135f-dk/bl2/xlat_tables_context.o
 .ARM.attributes
                0x00000a5c       0x33 ./../build/opteemin-sdcard-stm32mp135f-dk/bl2/xlat_tables_core.o
 .ARM.attributes
                0x00000a8f       0x33 ./../build/opteemin-sdcard-stm32mp135f-dk/bl2/xlat_tables_utils.o
 .ARM.attributes
                0x00000ac2       0x33 ./../build/opteemin-sdcard-stm32mp135f-dk/bl2/crc32.o
 .ARM.attributes
                0x00000af5       0x33 ./../build/opteemin-sdcard-stm32mp135f-dk/bl2/tf_gunzip.o
 .ARM.attributes
                0x00000b28       0x33 ./../build/opteemin-sdcard-stm32mp135f-dk/bl2/plat_bl_common.o
 .ARM.attributes
                0x00000b5b       0x33 ./../build/opteemin-sdcard-stm32mp135f-dk/bl2/plat_log_common.o
 .ARM.attributes
                0x00000b8e       0x33 ./../build/opteemin-sdcard-stm32mp135f-dk/bl2/bl2_io_storage.o
 .ARM.attributes
                0x00000bc1       0x33 ./../build/opteemin-sdcard-stm32mp135f-dk/bl2/plat_image_load.o
 .ARM.attributes
                0x00000bf4       0x33 ./../build/opteemin-sdcard-stm32mp135f-dk/bl2/stm32mp_common.o
 .ARM.attributes
                0x00000c27       0x33 ./../build/opteemin-sdcard-stm32mp135f-dk/bl2/stm32mp_dt.o
 .ARM.attributes
                0x00000c5a       0x33 ./../build/opteemin-sdcard-stm32mp135f-dk/bl2/stm32mp_fconf_fuse.o
 .ARM.attributes
                0x00000c8d       0x33 ./../build/opteemin-sdcard-stm32mp135f-dk/bl2/stm32mp_fconf_io.o
 .ARM.attributes
                0x00000cc0       0x33 ./../build/opteemin-sdcard-stm32mp135f-dk/bl2/bl2_plat_setup.o
 .ARM.attributes
                0x00000cf3       0x33 ./../build/opteemin-sdcard-stm32mp135f-dk/bl2/plat_bl2_mem_params_desc.o
 .ARM.attributes
                0x00000d26       0x33 ./../build/opteemin-sdcard-stm32mp135f-dk/bl2/plat_ddr.o
 .ARM.attributes
                0x00000d59       0x33 ./../build/opteemin-sdcard-stm32mp135f-dk/bl2/stm32mp1_context.o
 .ARM.attributes
                0x00000d8c       0x33 ./../build/opteemin-sdcard-stm32mp135f-dk/bl2/stm32mp1_critic_power.o
 .ARM.attributes
                0x00000dbf       0x33 ./../build/opteemin-sdcard-stm32mp135f-dk/bl2/stm32mp1_fconf_firewall.o
 .ARM.attributes
                0x00000df2       0x33 ./../build/opteemin-sdcard-stm32mp135f-dk/bl2/stm32mp1_private.o
 .ARM.attributes
                0x00000e25       0x33 ./../build/opteemin-sdcard-stm32mp135f-dk/bl2/stm32mp1_syscfg.o
 .ARM.attributes
                0x00000e58       0x27 ./../build/opteemin-sdcard-stm32mp135f-dk/bl2/bl2_el3_entrypoint.o
 .ARM.attributes
                0x00000e7f       0x27 ./../build/opteemin-sdcard-stm32mp135f-dk/bl2/bl2_el3_exceptions.o
 .ARM.attributes
                0x00000ea6       0x27 ./../build/opteemin-sdcard-stm32mp135f-dk/bl2/bl2_run_next_image.o
 .ARM.attributes
                0x00000ecd       0x27 ./../build/opteemin-sdcard-stm32mp135f-dk/bl2/debug.o
 .ARM.attributes
                0x00000ef4       0x27 ./../build/opteemin-sdcard-stm32mp135f-dk/bl2/stm32_console.o
 .ARM.attributes
                0x00000f1b       0x27 ./../build/opteemin-sdcard-stm32mp135f-dk/bl2/cache_helpers.o
 .ARM.attributes
                0x00000f42       0x27 ./../build/opteemin-sdcard-stm32mp135f-dk/bl2/misc_helpers.o
 .ARM.attributes
                0x00000f69       0x27 ./../build/opteemin-sdcard-stm32mp135f-dk/bl2/aeabi_uldivmod.o
 .ARM.attributes
                0x00000f90       0x27 ./../build/opteemin-sdcard-stm32mp135f-dk/bl2/cortex_a7.o
 .ARM.attributes
                0x00000fb7       0x27 ./../build/opteemin-sdcard-stm32mp135f-dk/bl2/cpu_helpers.o
 .ARM.attributes
                0x00000fde       0x27 ./../build/opteemin-sdcard-stm32mp135f-dk/bl2/spinlock.o
 .ARM.attributes
                0x00001005       0x27 ./../build/opteemin-sdcard-stm32mp135f-dk/bl2/enable_mmu.o
 .ARM.attributes
                0x0000102c       0x27 ./../build/opteemin-sdcard-stm32mp135f-dk/bl2/platform_up_stack.o
 .ARM.attributes
                0x00001053       0x27 ./../build/opteemin-sdcard-stm32mp135f-dk/bl2/stm32mp1_critic_power_wrapper.o
 .ARM.attributes
                0x0000107a       0x27 ./../build/opteemin-sdcard-stm32mp135f-dk/bl2/stm32mp1_helper.o
 .ARM.attributes
                0x000010a1       0x33 ./../build/opteemin-sdcard-stm32mp135f-dk/lib/libfdt.a(fdt.o)
 .ARM.attributes
                0x000010d4       0x33 ./../build/opteemin-sdcard-stm32mp135f-dk/lib/libfdt.a(fdt_addresses.o)
 .ARM.attributes
                0x00001107       0x33 ./../build/opteemin-sdcard-stm32mp135f-dk/lib/libfdt.a(fdt_ro.o)
 .ARM.attributes
                0x0000113a       0x33 ./../build/opteemin-sdcard-stm32mp135f-dk/lib/libc.a(assert.o)
 .ARM.attributes
                0x0000116d       0x33 ./../build/opteemin-sdcard-stm32mp135f-dk/lib/libc.a(memchr.o)
 .ARM.attributes
                0x000011a0       0x33 ./../build/opteemin-sdcard-stm32mp135f-dk/lib/libc.a(memcmp.o)
 .ARM.attributes
                0x000011d3       0x33 ./../build/opteemin-sdcard-stm32mp135f-dk/lib/libc.a(memcpy.o)
 .ARM.attributes
                0x00001206       0x33 ./../build/opteemin-sdcard-stm32mp135f-dk/lib/libc.a(memmove.o)
 .ARM.attributes
                0x00001239       0x33 ./../build/opteemin-sdcard-stm32mp135f-dk/lib/libc.a(memset.o)
 .ARM.attributes
                0x0000126c       0x33 ./../build/opteemin-sdcard-stm32mp135f-dk/lib/libc.a(printf.o)
 .ARM.attributes
                0x0000129f       0x33 ./../build/opteemin-sdcard-stm32mp135f-dk/lib/libc.a(snprintf.o)
 .ARM.attributes
                0x000012d2       0x33 ./../build/opteemin-sdcard-stm32mp135f-dk/lib/libc.a(strchr.o)
 .ARM.attributes
                0x00001305       0x33 ./../build/opteemin-sdcard-stm32mp135f-dk/lib/libc.a(strcmp.o)
 .ARM.attributes
                0x00001338       0x33 ./../build/opteemin-sdcard-stm32mp135f-dk/lib/libc.a(strlcpy.o)
 .ARM.attributes
                0x0000136b       0x33 ./../build/opteemin-sdcard-stm32mp135f-dk/lib/libc.a(strlen.o)
 .ARM.attributes
                0x0000139e       0x33 ./../build/opteemin-sdcard-stm32mp135f-dk/lib/libc.a(strncmp.o)
 .ARM.attributes
                0x000013d1       0x33 ./../build/opteemin-sdcard-stm32mp135f-dk/lib/libc.a(strnlen.o)
 .ARM.attributes
                0x00001404       0x33 ./../build/opteemin-sdcard-stm32mp135f-dk/lib/libc.a(strrchr.o)

.debug_ranges   0x00000000     0x5b68
 .debug_ranges  0x00000000       0x10 ./../build/opteemin-sdcard-stm32mp135f-dk/bl2/bl2_arch_setup.o
 .debug_ranges  0x00000010       0x10 ./../build/opteemin-sdcard-stm32mp135f-dk/bl2/bl2_image_load_v2.o
 .debug_ranges  0x00000020       0x18 ./../build/opteemin-sdcard-stm32mp135f-dk/bl2/bl2_main.o
 .debug_ranges  0x00000038       0x50 ./../build/opteemin-sdcard-stm32mp135f-dk/bl2/bl_common.o
 .debug_ranges  0x00000088       0x60 ./../build/opteemin-sdcard-stm32mp135f-dk/bl2/desc_image_load.o
 .debug_ranges  0x000000e8      0x140 ./../build/opteemin-sdcard-stm32mp135f-dk/bl2/fdt_wrappers.o
 .debug_ranges  0x00000228       0x20 ./../build/opteemin-sdcard-stm32mp135f-dk/bl2/tf_log.o
 .debug_ranges  0x00000248      0x118 ./../build/opteemin-sdcard-stm32mp135f-dk/bl2/uuid.o
 .debug_ranges  0x00000360      0x248 ./../build/opteemin-sdcard-stm32mp135f-dk/bl2/tzc400.o
 .debug_ranges  0x000005a8       0x38 ./../build/opteemin-sdcard-stm32mp135f-dk/bl2/clk.o
 .debug_ranges  0x000005e0       0x78 ./../build/opteemin-sdcard-stm32mp135f-dk/bl2/multi_console.o
 .debug_ranges  0x00000658       0x40 ./../build/opteemin-sdcard-stm32mp135f-dk/bl2/delay_timer.o
 .debug_ranges  0x00000698       0x38 ./../build/opteemin-sdcard-stm32mp135f-dk/bl2/generic_delay_timer.o
 .debug_ranges  0x000006d0       0x50 ./../build/opteemin-sdcard-stm32mp135f-dk/bl2/fwu.o
 .debug_ranges  0x00000720       0xf8 ./../build/opteemin-sdcard-stm32mp135f-dk/bl2/io_block.o
 .debug_ranges  0x00000818      0x140 ./../build/opteemin-sdcard-stm32mp135f-dk/bl2/io_fip.o
 .debug_ranges  0x00000958      0x110 ./../build/opteemin-sdcard-stm32mp135f-dk/bl2/io_storage.o
 .debug_ranges  0x00000a68      0x198 ./../build/opteemin-sdcard-stm32mp135f-dk/bl2/mmc.o
 .debug_ranges  0x00000c00       0x60 ./../build/opteemin-sdcard-stm32mp135f-dk/bl2/gpt.o
 .debug_ranges  0x00000c60       0xf0 ./../build/opteemin-sdcard-stm32mp135f-dk/bl2/partition.o
 .debug_ranges  0x00000d50      0x398 ./../build/opteemin-sdcard-stm32mp135f-dk/bl2/bsec2.o
 .debug_ranges  0x000010e8      0x508 ./../build/opteemin-sdcard-stm32mp135f-dk/bl2/clk-stm32-core.o
 .debug_ranges  0x000015f0      0x8b0 ./../build/opteemin-sdcard-stm32mp135f-dk/bl2/clk-stm32mp13.o
 .debug_ranges  0x00001ea0      0x108 ./../build/opteemin-sdcard-stm32mp135f-dk/bl2/stm32mp_clkfunc.o
 .debug_ranges  0x00001fa8      0x1d8 ./../build/opteemin-sdcard-stm32mp135f-dk/bl2/stm32_rng.o
 .debug_ranges  0x00002180      0x450 ./../build/opteemin-sdcard-stm32mp135f-dk/bl2/stm32mp1_ddr.o
 .debug_ranges  0x000025d0      0x1c8 ./../build/opteemin-sdcard-stm32mp135f-dk/bl2/stm32mp1_ddr_helpers.o
 .debug_ranges  0x00002798       0x88 ./../build/opteemin-sdcard-stm32mp135f-dk/bl2/stm32mp1_ram.o
 .debug_ranges  0x00002820      0x1e8 ./../build/opteemin-sdcard-stm32mp135f-dk/bl2/stm32mp_ddr.o
 .debug_ranges  0x00002a08      0x120 ./../build/opteemin-sdcard-stm32mp135f-dk/bl2/stm32mp_ddr_test.o
 .debug_ranges  0x00002b28       0x18 ./../build/opteemin-sdcard-stm32mp135f-dk/bl2/stm32mp_ram.o
 .debug_ranges  0x00002b40      0x260 ./../build/opteemin-sdcard-stm32mp135f-dk/bl2/stm32_gpio.o
 .debug_ranges  0x00002da0      0x790 ./../build/opteemin-sdcard-stm32mp135f-dk/bl2/stm32_i2c.o
 .debug_ranges  0x00003530      0x108 ./../build/opteemin-sdcard-stm32mp135f-dk/bl2/stm32_iwdg.o
 .debug_ranges  0x00003638      0x210 ./../build/opteemin-sdcard-stm32mp135f-dk/bl2/stm32_mce.o
 .debug_ranges  0x00003848      0x2d0 ./../build/opteemin-sdcard-stm32mp135f-dk/bl2/stm32_sdmmc2.o
 .debug_ranges  0x00003b18       0x50 ./../build/opteemin-sdcard-stm32mp135f-dk/bl2/nvmem.o
 .debug_ranges  0x00003b68      0x1d8 ./../build/opteemin-sdcard-stm32mp135f-dk/bl2/stm32mp_tamp_nvram_core.o
 .debug_ranges  0x00003d40       0x18 ./../build/opteemin-sdcard-stm32mp135f-dk/bl2/stm32mp_tamp_nvram_mp1.o
 .debug_ranges  0x00003d58      0x128 ./../build/opteemin-sdcard-stm32mp135f-dk/bl2/stm32mp_pmic.o
 .debug_ranges  0x00003e80       0xb0 ./../build/opteemin-sdcard-stm32mp135f-dk/bl2/stpmic1.o
 .debug_ranges  0x00003f30      0x110 ./../build/opteemin-sdcard-stm32mp135f-dk/bl2/regulator_core.o
 .debug_ranges  0x00004040       0x50 ./../build/opteemin-sdcard-stm32mp135f-dk/bl2/regulator_fixed.o
 .debug_ranges  0x00004090      0x120 ./../build/opteemin-sdcard-stm32mp135f-dk/bl2/stm32mp1_reset.o
 .debug_ranges  0x000041b0       0x10 ./../build/opteemin-sdcard-stm32mp135f-dk/bl2/ctzdi2.o
 .debug_ranges  0x000041c0       0x28 ./../build/opteemin-sdcard-stm32mp135f-dk/bl2/udivmoddi4.o
 .debug_ranges  0x000041e8       0x18 ./../build/opteemin-sdcard-stm32mp135f-dk/bl2/fconf.o
 .debug_ranges  0x00004200       0x70 ./../build/opteemin-sdcard-stm32mp135f-dk/bl2/fconf_dyn_cfg_getter.o
 .debug_ranges  0x00004270       0x20 ./../build/opteemin-sdcard-stm32mp135f-dk/bl2/optee_utils.o
 .debug_ranges  0x00004290       0xe0 ./../build/opteemin-sdcard-stm32mp135f-dk/bl2/xlat_tables_arch.o
 .debug_ranges  0x00004370       0x68 ./../build/opteemin-sdcard-stm32mp135f-dk/bl2/xlat_tables_context.o
 .debug_ranges  0x000043d8      0x2a0 ./../build/opteemin-sdcard-stm32mp135f-dk/bl2/xlat_tables_core.o
 .debug_ranges  0x00004678      0x100 ./../build/opteemin-sdcard-stm32mp135f-dk/bl2/xlat_tables_utils.o
 .debug_ranges  0x00004778       0x58 ./../build/opteemin-sdcard-stm32mp135f-dk/bl2/crc32.o
 .debug_ranges  0x000047d0       0x28 ./../build/opteemin-sdcard-stm32mp135f-dk/bl2/tf_gunzip.o
 .debug_ranges  0x000047f8       0x68 ./../build/opteemin-sdcard-stm32mp135f-dk/bl2/plat_bl_common.o
 .debug_ranges  0x00004860       0x10 ./../build/opteemin-sdcard-stm32mp135f-dk/bl2/plat_log_common.o
 .debug_ranges  0x00004870      0x108 ./../build/opteemin-sdcard-stm32mp135f-dk/bl2/bl2_io_storage.o
 .debug_ranges  0x00004978       0x20 ./../build/opteemin-sdcard-stm32mp135f-dk/bl2/plat_image_load.o
 .debug_ranges  0x00004998      0x198 ./../build/opteemin-sdcard-stm32mp135f-dk/bl2/stm32mp_common.o
 .debug_ranges  0x00004b30      0x130 ./../build/opteemin-sdcard-stm32mp135f-dk/bl2/stm32mp_dt.o
 .debug_ranges  0x00004c60       0x98 ./../build/opteemin-sdcard-stm32mp135f-dk/bl2/stm32mp_fconf_fuse.o
 .debug_ranges  0x00004cf8       0x58 ./../build/opteemin-sdcard-stm32mp135f-dk/bl2/stm32mp_fconf_io.o
 .debug_ranges  0x00004d50      0x1c8 ./../build/opteemin-sdcard-stm32mp135f-dk/bl2/bl2_plat_setup.o
 .debug_ranges  0x00004f18       0x60 ./../build/opteemin-sdcard-stm32mp135f-dk/bl2/plat_ddr.o
 .debug_ranges  0x00004f78       0x78 ./../build/opteemin-sdcard-stm32mp135f-dk/bl2/stm32mp1_context.o
 .debug_ranges  0x00004ff0       0x38 ./../build/opteemin-sdcard-stm32mp135f-dk/bl2/stm32mp1_critic_power.o
 .debug_ranges  0x00005028       0x48 ./../build/opteemin-sdcard-stm32mp135f-dk/bl2/stm32mp1_fconf_firewall.o
 .debug_ranges  0x00005070       0xb8 ./../build/opteemin-sdcard-stm32mp135f-dk/bl2/stm32mp1_private.o
 .debug_ranges  0x00005128      0x200 ./../build/opteemin-sdcard-stm32mp135f-dk/bl2/stm32mp1_syscfg.o
 .debug_ranges  0x00005328       0x48 ./../build/opteemin-sdcard-stm32mp135f-dk/bl2/debug.o
 .debug_ranges  0x00005370       0x48 ./../build/opteemin-sdcard-stm32mp135f-dk/bl2/stm32_console.o
 .debug_ranges  0x000053b8       0x58 ./../build/opteemin-sdcard-stm32mp135f-dk/bl2/cache_helpers.o
 .debug_ranges  0x00005410       0x40 ./../build/opteemin-sdcard-stm32mp135f-dk/bl2/misc_helpers.o
 .debug_ranges  0x00005450       0x38 ./../build/opteemin-sdcard-stm32mp135f-dk/bl2/cortex_a7.o
 .debug_ranges  0x00005488       0x38 ./../build/opteemin-sdcard-stm32mp135f-dk/bl2/cpu_helpers.o
 .debug_ranges  0x000054c0       0x20 ./../build/opteemin-sdcard-stm32mp135f-dk/bl2/spinlock.o
 .debug_ranges  0x000054e0       0x20 ./../build/opteemin-sdcard-stm32mp135f-dk/bl2/enable_mmu.o
 .debug_ranges  0x00005500       0x20 ./../build/opteemin-sdcard-stm32mp135f-dk/bl2/platform_up_stack.o
 .debug_ranges  0x00005520       0x20 ./../build/opteemin-sdcard-stm32mp135f-dk/bl2/stm32mp1_critic_power_wrapper.o
 .debug_ranges  0x00005540       0x80 ./../build/opteemin-sdcard-stm32mp135f-dk/bl2/stm32mp1_helper.o
 .debug_ranges  0x000055c0      0x108 ./../build/opteemin-sdcard-stm32mp135f-dk/lib/libfdt.a(fdt.o)
 .debug_ranges  0x000056c8       0x28 ./../build/opteemin-sdcard-stm32mp135f-dk/lib/libfdt.a(fdt_addresses.o)
 .debug_ranges  0x000056f0      0x290 ./../build/opteemin-sdcard-stm32mp135f-dk/lib/libfdt.a(fdt_ro.o)
 .debug_ranges  0x00005980       0x10 ./../build/opteemin-sdcard-stm32mp135f-dk/lib/libc.a(assert.o)
 .debug_ranges  0x00005990       0x10 ./../build/opteemin-sdcard-stm32mp135f-dk/lib/libc.a(memchr.o)
 .debug_ranges  0x000059a0       0x10 ./../build/opteemin-sdcard-stm32mp135f-dk/lib/libc.a(memcmp.o)
 .debug_ranges  0x000059b0       0x10 ./../build/opteemin-sdcard-stm32mp135f-dk/lib/libc.a(memcpy.o)
 .debug_ranges  0x000059c0       0x28 ./../build/opteemin-sdcard-stm32mp135f-dk/lib/libc.a(memmove.o)
 .debug_ranges  0x000059e8       0x10 ./../build/opteemin-sdcard-stm32mp135f-dk/lib/libc.a(memset.o)
 .debug_ranges  0x000059f8       0xc0 ./../build/opteemin-sdcard-stm32mp135f-dk/lib/libc.a(printf.o)
 .debug_ranges  0x00005ab8       0x40 ./../build/opteemin-sdcard-stm32mp135f-dk/lib/libc.a(snprintf.o)
 .debug_ranges  0x00005af8       0x10 ./../build/opteemin-sdcard-stm32mp135f-dk/lib/libc.a(strchr.o)
 .debug_ranges  0x00005b08       0x10 ./../build/opteemin-sdcard-stm32mp135f-dk/lib/libc.a(strcmp.o)
 .debug_ranges  0x00005b18       0x10 ./../build/opteemin-sdcard-stm32mp135f-dk/lib/libc.a(strlcpy.o)
 .debug_ranges  0x00005b28       0x10 ./../build/opteemin-sdcard-stm32mp135f-dk/lib/libc.a(strlen.o)
 .debug_ranges  0x00005b38       0x10 ./../build/opteemin-sdcard-stm32mp135f-dk/lib/libc.a(strncmp.o)
 .debug_ranges  0x00005b48       0x10 ./../build/opteemin-sdcard-stm32mp135f-dk/lib/libc.a(strnlen.o)
 .debug_ranges  0x00005b58       0x10 ./../build/opteemin-sdcard-stm32mp135f-dk/lib/libc.a(strrchr.o)

.debug_frame    0x00000000     0x56e0
 .debug_frame   0x00000000       0x20 ./../build/opteemin-sdcard-stm32mp135f-dk/bl2/bl2_arch_setup.o
 .debug_frame   0x00000020       0x34 ./../build/opteemin-sdcard-stm32mp135f-dk/bl2/bl2_image_load_v2.o
 .debug_frame   0x00000054       0x48 ./../build/opteemin-sdcard-stm32mp135f-dk/bl2/bl2_main.o
 .debug_frame   0x0000009c       0x78 ./../build/opteemin-sdcard-stm32mp135f-dk/bl2/bl_common.o
 .debug_frame   0x00000114       0xe0 ./../build/opteemin-sdcard-stm32mp135f-dk/bl2/desc_image_load.o
 .debug_frame   0x000001f4      0x294 ./../build/opteemin-sdcard-stm32mp135f-dk/bl2/fdt_wrappers.o
 .debug_frame   0x00000488       0x80 ./../build/opteemin-sdcard-stm32mp135f-dk/bl2/tf_log.o
 .debug_frame   0x00000508       0x98 ./../build/opteemin-sdcard-stm32mp135f-dk/bl2/uuid.o
 .debug_frame   0x000005a0       0xec ./../build/opteemin-sdcard-stm32mp135f-dk/bl2/tzc400.o
 .debug_frame   0x0000068c       0xb4 ./../build/opteemin-sdcard-stm32mp135f-dk/bl2/clk.o
 .debug_frame   0x00000740       0xd4 ./../build/opteemin-sdcard-stm32mp135f-dk/bl2/multi_console.o
 .debug_frame   0x00000814       0x58 ./../build/opteemin-sdcard-stm32mp135f-dk/bl2/delay_timer.o
 .debug_frame   0x0000086c       0x4c ./../build/opteemin-sdcard-stm32mp135f-dk/bl2/generic_delay_timer.o
 .debug_frame   0x000008b8       0x98 ./../build/opteemin-sdcard-stm32mp135f-dk/bl2/fwu.o
 .debug_frame   0x00000950      0x114 ./../build/opteemin-sdcard-stm32mp135f-dk/bl2/io_block.o
 .debug_frame   0x00000a64      0x12c ./../build/opteemin-sdcard-stm32mp135f-dk/bl2/io_fip.o
 .debug_frame   0x00000b90      0x1c4 ./../build/opteemin-sdcard-stm32mp135f-dk/bl2/io_storage.o
 .debug_frame   0x00000d54      0x184 ./../build/opteemin-sdcard-stm32mp135f-dk/bl2/mmc.o
 .debug_frame   0x00000ed8       0x2c ./../build/opteemin-sdcard-stm32mp135f-dk/bl2/gpt.o
 .debug_frame   0x00000f04      0x130 ./../build/opteemin-sdcard-stm32mp135f-dk/bl2/partition.o
 .debug_frame   0x00001034      0x250 ./../build/opteemin-sdcard-stm32mp135f-dk/bl2/bsec2.o
 .debug_frame   0x00001284      0x5b4 ./../build/opteemin-sdcard-stm32mp135f-dk/bl2/clk-stm32-core.o
 .debug_frame   0x00001838      0x2f8 ./../build/opteemin-sdcard-stm32mp135f-dk/bl2/clk-stm32mp13.o
 .debug_frame   0x00001b30      0x170 ./../build/opteemin-sdcard-stm32mp135f-dk/bl2/stm32mp_clkfunc.o
 .debug_frame   0x00001ca0       0xac ./../build/opteemin-sdcard-stm32mp135f-dk/bl2/stm32_rng.o
 .debug_frame   0x00001d4c       0x98 ./../build/opteemin-sdcard-stm32mp135f-dk/bl2/stm32mp1_ddr.o
 .debug_frame   0x00001de4       0xc0 ./../build/opteemin-sdcard-stm32mp135f-dk/bl2/stm32mp1_ddr_helpers.o
 .debug_frame   0x00001ea4       0x7c ./../build/opteemin-sdcard-stm32mp135f-dk/bl2/stm32mp1_ram.o
 .debug_frame   0x00001f20      0x130 ./../build/opteemin-sdcard-stm32mp135f-dk/bl2/stm32mp_ddr.o
 .debug_frame   0x00002050       0x68 ./../build/opteemin-sdcard-stm32mp135f-dk/bl2/stm32mp_ddr_test.o
 .debug_frame   0x000020b8       0x58 ./../build/opteemin-sdcard-stm32mp135f-dk/bl2/stm32mp_ram.o
 .debug_frame   0x00002110      0x140 ./../build/opteemin-sdcard-stm32mp135f-dk/bl2/stm32_gpio.o
 .debug_frame   0x00002250      0x1f8 ./../build/opteemin-sdcard-stm32mp135f-dk/bl2/stm32_i2c.o
 .debug_frame   0x00002448       0x80 ./../build/opteemin-sdcard-stm32mp135f-dk/bl2/stm32_iwdg.o
 .debug_frame   0x000024c8      0x128 ./../build/opteemin-sdcard-stm32mp135f-dk/bl2/stm32_mce.o
 .debug_frame   0x000025f0      0x160 ./../build/opteemin-sdcard-stm32mp135f-dk/bl2/stm32_sdmmc2.o
 .debug_frame   0x00002750       0xa4 ./../build/opteemin-sdcard-stm32mp135f-dk/bl2/nvmem.o
 .debug_frame   0x000027f4      0x180 ./../build/opteemin-sdcard-stm32mp135f-dk/bl2/stm32mp_tamp_nvram_core.o
 .debug_frame   0x00002974       0x30 ./../build/opteemin-sdcard-stm32mp135f-dk/bl2/stm32mp_tamp_nvram_mp1.o
 .debug_frame   0x000029a4      0x174 ./../build/opteemin-sdcard-stm32mp135f-dk/bl2/stm32mp_pmic.o
 .debug_frame   0x00002b18      0x264 ./../build/opteemin-sdcard-stm32mp135f-dk/bl2/stpmic1.o
 .debug_frame   0x00002d7c      0x194 ./../build/opteemin-sdcard-stm32mp135f-dk/bl2/regulator_core.o
 .debug_frame   0x00002f10       0x5c ./../build/opteemin-sdcard-stm32mp135f-dk/bl2/regulator_fixed.o
 .debug_frame   0x00002f6c       0x70 ./../build/opteemin-sdcard-stm32mp135f-dk/bl2/stm32mp1_reset.o
 .debug_frame   0x00002fdc       0x20 ./../build/opteemin-sdcard-stm32mp135f-dk/bl2/ctzdi2.o
 .debug_frame   0x00002ffc       0x30 ./../build/opteemin-sdcard-stm32mp135f-dk/bl2/udivmoddi4.o
 .debug_frame   0x0000302c       0x50 ./../build/opteemin-sdcard-stm32mp135f-dk/bl2/fconf.o
 .debug_frame   0x0000307c       0x88 ./../build/opteemin-sdcard-stm32mp135f-dk/bl2/fconf_dyn_cfg_getter.o
 .debug_frame   0x00003104       0x68 ./../build/opteemin-sdcard-stm32mp135f-dk/bl2/optee_utils.o
 .debug_frame   0x0000316c      0x100 ./../build/opteemin-sdcard-stm32mp135f-dk/bl2/xlat_tables_arch.o
 .debug_frame   0x0000326c      0x138 ./../build/opteemin-sdcard-stm32mp135f-dk/bl2/xlat_tables_context.o
 .debug_frame   0x000033a4      0x258 ./../build/opteemin-sdcard-stm32mp135f-dk/bl2/xlat_tables_core.o
 .debug_frame   0x000035fc       0xc4 ./../build/opteemin-sdcard-stm32mp135f-dk/bl2/xlat_tables_utils.o
 .debug_frame   0x000036c0       0xec ./../build/opteemin-sdcard-stm32mp135f-dk/bl2/crc32.o
 .debug_frame   0x000037ac       0x74 ./../build/opteemin-sdcard-stm32mp135f-dk/bl2/tf_gunzip.o
 .debug_frame   0x00003820       0xf0 ./../build/opteemin-sdcard-stm32mp135f-dk/bl2/plat_bl_common.o
 .debug_frame   0x00003910       0x20 ./../build/opteemin-sdcard-stm32mp135f-dk/bl2/plat_log_common.o
 .debug_frame   0x00003930      0x13c ./../build/opteemin-sdcard-stm32mp135f-dk/bl2/bl2_io_storage.o
 .debug_frame   0x00003a6c       0x48 ./../build/opteemin-sdcard-stm32mp135f-dk/bl2/plat_image_load.o
 .debug_frame   0x00003ab4      0x39c ./../build/opteemin-sdcard-stm32mp135f-dk/bl2/stm32mp_common.o
 .debug_frame   0x00003e50      0x268 ./../build/opteemin-sdcard-stm32mp135f-dk/bl2/stm32mp_dt.o
 .debug_frame   0x000040b8       0x40 ./../build/opteemin-sdcard-stm32mp135f-dk/bl2/stm32mp_fconf_fuse.o
 .debug_frame   0x000040f8       0x40 ./../build/opteemin-sdcard-stm32mp135f-dk/bl2/stm32mp_fconf_io.o
 .debug_frame   0x00004138       0xb8 ./../build/opteemin-sdcard-stm32mp135f-dk/bl2/bl2_plat_setup.o
 .debug_frame   0x000041f0       0x34 ./../build/opteemin-sdcard-stm32mp135f-dk/bl2/plat_ddr.o
 .debug_frame   0x00004224      0x134 ./../build/opteemin-sdcard-stm32mp135f-dk/bl2/stm32mp1_context.o
 .debug_frame   0x00004358       0x68 ./../build/opteemin-sdcard-stm32mp135f-dk/bl2/stm32mp1_critic_power.o
 .debug_frame   0x000043c0       0x8c ./../build/opteemin-sdcard-stm32mp135f-dk/bl2/stm32mp1_fconf_firewall.o
 .debug_frame   0x0000444c      0x214 ./../build/opteemin-sdcard-stm32mp135f-dk/bl2/stm32mp1_private.o
 .debug_frame   0x00004660      0x124 ./../build/opteemin-sdcard-stm32mp135f-dk/bl2/stm32mp1_syscfg.o
 .debug_frame   0x00004784       0x20 ./../build/opteemin-sdcard-stm32mp135f-dk/bl2/bl2_el3_entrypoint.o
 .debug_frame   0x000047a4       0x20 ./../build/opteemin-sdcard-stm32mp135f-dk/bl2/bl2_run_next_image.o
 .debug_frame   0x000047c4       0x80 ./../build/opteemin-sdcard-stm32mp135f-dk/bl2/debug.o
 .debug_frame   0x00004844       0x80 ./../build/opteemin-sdcard-stm32mp135f-dk/bl2/stm32_console.o
 .debug_frame   0x000048c4       0xa0 ./../build/opteemin-sdcard-stm32mp135f-dk/bl2/cache_helpers.o
 .debug_frame   0x00004964       0x70 ./../build/opteemin-sdcard-stm32mp135f-dk/bl2/misc_helpers.o
 .debug_frame   0x000049d4       0x60 ./../build/opteemin-sdcard-stm32mp135f-dk/bl2/cortex_a7.o
 .debug_frame   0x00004a34       0x60 ./../build/opteemin-sdcard-stm32mp135f-dk/bl2/cpu_helpers.o
 .debug_frame   0x00004a94       0x30 ./../build/opteemin-sdcard-stm32mp135f-dk/bl2/spinlock.o
 .debug_frame   0x00004ac4       0x30 ./../build/opteemin-sdcard-stm32mp135f-dk/bl2/enable_mmu.o
 .debug_frame   0x00004af4       0x30 ./../build/opteemin-sdcard-stm32mp135f-dk/bl2/platform_up_stack.o
 .debug_frame   0x00004b24       0x30 ./../build/opteemin-sdcard-stm32mp135f-dk/bl2/stm32mp1_critic_power_wrapper.o
 .debug_frame   0x00004b54       0xf0 ./../build/opteemin-sdcard-stm32mp135f-dk/bl2/stm32mp1_helper.o
 .debug_frame   0x00004c44      0x198 ./../build/opteemin-sdcard-stm32mp135f-dk/lib/libfdt.a(fdt.o)
 .debug_frame   0x00004ddc       0x8c ./../build/opteemin-sdcard-stm32mp135f-dk/lib/libfdt.a(fdt_addresses.o)
 .debug_frame   0x00004e68      0x548 ./../build/opteemin-sdcard-stm32mp135f-dk/lib/libfdt.a(fdt_ro.o)
 .debug_frame   0x000053b0       0x28 ./../build/opteemin-sdcard-stm32mp135f-dk/lib/libc.a(assert.o)
 .debug_frame   0x000053d8       0x28 ./../build/opteemin-sdcard-stm32mp135f-dk/lib/libc.a(memchr.o)
 .debug_frame   0x00005400       0x28 ./../build/opteemin-sdcard-stm32mp135f-dk/lib/libc.a(memcmp.o)
 .debug_frame   0x00005428       0x28 ./../build/opteemin-sdcard-stm32mp135f-dk/lib/libc.a(memcpy.o)
 .debug_frame   0x00005450       0x3c ./../build/opteemin-sdcard-stm32mp135f-dk/lib/libc.a(memmove.o)
 .debug_frame   0x0000548c       0x2c ./../build/opteemin-sdcard-stm32mp135f-dk/lib/libc.a(memset.o)
 .debug_frame   0x000054b8       0x9c ./../build/opteemin-sdcard-stm32mp135f-dk/lib/libc.a(printf.o)
 .debug_frame   0x00005554       0x94 ./../build/opteemin-sdcard-stm32mp135f-dk/lib/libc.a(snprintf.o)
 .debug_frame   0x000055e8       0x20 ./../build/opteemin-sdcard-stm32mp135f-dk/lib/libc.a(strchr.o)
 .debug_frame   0x00005608       0x20 ./../build/opteemin-sdcard-stm32mp135f-dk/lib/libc.a(strcmp.o)
 .debug_frame   0x00005628       0x28 ./../build/opteemin-sdcard-stm32mp135f-dk/lib/libc.a(strlcpy.o)
 .debug_frame   0x00005650       0x20 ./../build/opteemin-sdcard-stm32mp135f-dk/lib/libc.a(strlen.o)
 .debug_frame   0x00005670       0x28 ./../build/opteemin-sdcard-stm32mp135f-dk/lib/libc.a(strncmp.o)
 .debug_frame   0x00005698       0x20 ./../build/opteemin-sdcard-stm32mp135f-dk/lib/libc.a(strnlen.o)
 .debug_frame   0x000056b8       0x28 ./../build/opteemin-sdcard-stm32mp135f-dk/lib/libc.a(strrchr.o)

.debug_loc      0x00000000    0x315a3
 .debug_loc     0x00000000      0x170 ./../build/opteemin-sdcard-stm32mp135f-dk/bl2/bl2_image_load_v2.o
 .debug_loc     0x00000170       0xdb ./../build/opteemin-sdcard-stm32mp135f-dk/bl2/bl2_main.o
 .debug_loc     0x0000024b      0x308 ./../build/opteemin-sdcard-stm32mp135f-dk/bl2/bl_common.o
 .debug_loc     0x00000553      0x97b ./../build/opteemin-sdcard-stm32mp135f-dk/bl2/desc_image_load.o
 .debug_loc     0x00000ece     0x1d21 ./../build/opteemin-sdcard-stm32mp135f-dk/bl2/fdt_wrappers.o
 .debug_loc     0x00002bef      0x16e ./../build/opteemin-sdcard-stm32mp135f-dk/bl2/tf_log.o
 .debug_loc     0x00002d5d      0x69c ./../build/opteemin-sdcard-stm32mp135f-dk/bl2/uuid.o
 .debug_loc     0x000033f9     0x1287 ./../build/opteemin-sdcard-stm32mp135f-dk/bl2/tzc400.o
 .debug_loc     0x00004680      0x1be ./../build/opteemin-sdcard-stm32mp135f-dk/bl2/clk.o
 .debug_loc     0x0000483e      0x30b ./../build/opteemin-sdcard-stm32mp135f-dk/bl2/multi_console.o
 .debug_loc     0x00004b49      0x156 ./../build/opteemin-sdcard-stm32mp135f-dk/bl2/delay_timer.o
 .debug_loc     0x00004c9f       0xc5 ./../build/opteemin-sdcard-stm32mp135f-dk/bl2/generic_delay_timer.o
 .debug_loc     0x00004d64      0x302 ./../build/opteemin-sdcard-stm32mp135f-dk/bl2/fwu.o
 .debug_loc     0x00005066      0xdcb ./../build/opteemin-sdcard-stm32mp135f-dk/bl2/io_block.o
 .debug_loc     0x00005e31      0xdc9 ./../build/opteemin-sdcard-stm32mp135f-dk/bl2/io_fip.o
 .debug_loc     0x00006bfa     0x114b ./../build/opteemin-sdcard-stm32mp135f-dk/bl2/io_storage.o
 .debug_loc     0x00007d45     0x11eb ./../build/opteemin-sdcard-stm32mp135f-dk/bl2/mmc.o
 .debug_loc     0x00008f30      0x1a7 ./../build/opteemin-sdcard-stm32mp135f-dk/bl2/gpt.o
 .debug_loc     0x000090d7      0x890 ./../build/opteemin-sdcard-stm32mp135f-dk/bl2/partition.o
 .debug_loc     0x00009967     0x119d ./../build/opteemin-sdcard-stm32mp135f-dk/bl2/bsec2.o
 .debug_loc     0x0000ab04     0x3300 ./../build/opteemin-sdcard-stm32mp135f-dk/bl2/clk-stm32-core.o
 .debug_loc     0x0000de04     0x412e ./../build/opteemin-sdcard-stm32mp135f-dk/bl2/clk-stm32mp13.o
 .debug_loc     0x00011f32      0x789 ./../build/opteemin-sdcard-stm32mp135f-dk/bl2/stm32mp_clkfunc.o
 .debug_loc     0x000126bb      0xb71 ./../build/opteemin-sdcard-stm32mp135f-dk/bl2/stm32_rng.o
 .debug_loc     0x0001322c     0x1d70 ./../build/opteemin-sdcard-stm32mp135f-dk/bl2/stm32mp1_ddr.o
 .debug_loc     0x00014f9c     0x27b1 ./../build/opteemin-sdcard-stm32mp135f-dk/bl2/stm32mp1_ddr_helpers.o
 .debug_loc     0x0001774d      0x31d ./../build/opteemin-sdcard-stm32mp135f-dk/bl2/stm32mp1_ram.o
 .debug_loc     0x00017a6a     0x10d8 ./../build/opteemin-sdcard-stm32mp135f-dk/bl2/stm32mp_ddr.o
 .debug_loc     0x00018b42      0x6f2 ./../build/opteemin-sdcard-stm32mp135f-dk/bl2/stm32mp_ddr_test.o
 .debug_loc     0x00019234      0x18f ./../build/opteemin-sdcard-stm32mp135f-dk/bl2/stm32mp_ram.o
 .debug_loc     0x000193c3     0x1361 ./../build/opteemin-sdcard-stm32mp135f-dk/bl2/stm32_gpio.o
 .debug_loc     0x0001a724     0x3131 ./../build/opteemin-sdcard-stm32mp135f-dk/bl2/stm32_i2c.o
 .debug_loc     0x0001d855      0x57a ./../build/opteemin-sdcard-stm32mp135f-dk/bl2/stm32_iwdg.o
 .debug_loc     0x0001ddcf      0xc10 ./../build/opteemin-sdcard-stm32mp135f-dk/bl2/stm32_mce.o
 .debug_loc     0x0001e9df     0x1880 ./../build/opteemin-sdcard-stm32mp135f-dk/bl2/stm32_sdmmc2.o
 .debug_loc     0x0002025f      0x693 ./../build/opteemin-sdcard-stm32mp135f-dk/bl2/nvmem.o
 .debug_loc     0x000208f2     0x100b ./../build/opteemin-sdcard-stm32mp135f-dk/bl2/stm32mp_tamp_nvram_core.o
 .debug_loc     0x000218fd       0x2b ./../build/opteemin-sdcard-stm32mp135f-dk/bl2/stm32mp_tamp_nvram_mp1.o
 .debug_loc     0x00021928      0x893 ./../build/opteemin-sdcard-stm32mp135f-dk/bl2/stm32mp_pmic.o
 .debug_loc     0x000221bb      0x787 ./../build/opteemin-sdcard-stm32mp135f-dk/bl2/stpmic1.o
 .debug_loc     0x00022942      0xb32 ./../build/opteemin-sdcard-stm32mp135f-dk/bl2/regulator_core.o
 .debug_loc     0x00023474      0x1ac ./../build/opteemin-sdcard-stm32mp135f-dk/bl2/regulator_fixed.o
 .debug_loc     0x00023620      0x46a ./../build/opteemin-sdcard-stm32mp135f-dk/bl2/stm32mp1_reset.o
 .debug_loc     0x00023a8a       0x47 ./../build/opteemin-sdcard-stm32mp135f-dk/bl2/ctzdi2.o
 .debug_loc     0x00023ad1      0x31d ./../build/opteemin-sdcard-stm32mp135f-dk/bl2/udivmoddi4.o
 .debug_loc     0x00023dee      0x123 ./../build/opteemin-sdcard-stm32mp135f-dk/bl2/fconf.o
 .debug_loc     0x00023f11      0x421 ./../build/opteemin-sdcard-stm32mp135f-dk/bl2/fconf_dyn_cfg_getter.o
 .debug_loc     0x00024332      0x31d ./../build/opteemin-sdcard-stm32mp135f-dk/bl2/optee_utils.o
 .debug_loc     0x0002464f      0x579 ./../build/opteemin-sdcard-stm32mp135f-dk/bl2/xlat_tables_arch.o
 .debug_loc     0x00024bc8      0x5f2 ./../build/opteemin-sdcard-stm32mp135f-dk/bl2/xlat_tables_context.o
 .debug_loc     0x000251ba     0x184f ./../build/opteemin-sdcard-stm32mp135f-dk/bl2/xlat_tables_core.o
 .debug_loc     0x00026a09      0x969 ./../build/opteemin-sdcard-stm32mp135f-dk/bl2/xlat_tables_utils.o
 .debug_loc     0x00027372      0x5b1 ./../build/opteemin-sdcard-stm32mp135f-dk/bl2/crc32.o
 .debug_loc     0x00027923      0x332 ./../build/opteemin-sdcard-stm32mp135f-dk/bl2/tf_gunzip.o
 .debug_loc     0x00027c55      0x1e9 ./../build/opteemin-sdcard-stm32mp135f-dk/bl2/plat_bl_common.o
 .debug_loc     0x00027e3e       0xa2 ./../build/opteemin-sdcard-stm32mp135f-dk/bl2/plat_log_common.o
 .debug_loc     0x00027ee0      0x93f ./../build/opteemin-sdcard-stm32mp135f-dk/bl2/bl2_io_storage.o
 .debug_loc     0x0002881f       0x22 ./../build/opteemin-sdcard-stm32mp135f-dk/bl2/plat_image_load.o
 .debug_loc     0x00028841      0xc54 ./../build/opteemin-sdcard-stm32mp135f-dk/bl2/stm32mp_common.o
 .debug_loc     0x00029495      0xb08 ./../build/opteemin-sdcard-stm32mp135f-dk/bl2/stm32mp_dt.o
 .debug_loc     0x00029f9d      0x259 ./../build/opteemin-sdcard-stm32mp135f-dk/bl2/stm32mp_fconf_fuse.o
 .debug_loc     0x0002a1f6      0x163 ./../build/opteemin-sdcard-stm32mp135f-dk/bl2/stm32mp_fconf_io.o
 .debug_loc     0x0002a359      0xbe0 ./../build/opteemin-sdcard-stm32mp135f-dk/bl2/bl2_plat_setup.o
 .debug_loc     0x0002af39      0x318 ./../build/opteemin-sdcard-stm32mp135f-dk/bl2/plat_ddr.o
 .debug_loc     0x0002b251      0x2ee ./../build/opteemin-sdcard-stm32mp135f-dk/bl2/stm32mp1_context.o
 .debug_loc     0x0002b53f       0xf1 ./../build/opteemin-sdcard-stm32mp135f-dk/bl2/stm32mp1_critic_power.o
 .debug_loc     0x0002b630      0x2c1 ./../build/opteemin-sdcard-stm32mp135f-dk/bl2/stm32mp1_fconf_firewall.o
 .debug_loc     0x0002b8f1      0x467 ./../build/opteemin-sdcard-stm32mp135f-dk/bl2/stm32mp1_private.o
 .debug_loc     0x0002bd58      0x889 ./../build/opteemin-sdcard-stm32mp135f-dk/bl2/stm32mp1_syscfg.o
 .debug_loc     0x0002c5e1      0xa24 ./../build/opteemin-sdcard-stm32mp135f-dk/lib/libfdt.a(fdt.o)
 .debug_loc     0x0002d005      0x543 ./../build/opteemin-sdcard-stm32mp135f-dk/lib/libfdt.a(fdt_addresses.o)
 .debug_loc     0x0002d548     0x24e3 ./../build/opteemin-sdcard-stm32mp135f-dk/lib/libfdt.a(fdt_ro.o)
 .debug_loc     0x0002fa2b       0x70 ./../build/opteemin-sdcard-stm32mp135f-dk/lib/libc.a(assert.o)
 .debug_loc     0x0002fa9b      0x14c ./../build/opteemin-sdcard-stm32mp135f-dk/lib/libc.a(memchr.o)
 .debug_loc     0x0002fbe7      0x132 ./../build/opteemin-sdcard-stm32mp135f-dk/lib/libc.a(memcmp.o)
 .debug_loc     0x0002fd19       0xb4 ./../build/opteemin-sdcard-stm32mp135f-dk/lib/libc.a(memcpy.o)
 .debug_loc     0x0002fdcd      0x188 ./../build/opteemin-sdcard-stm32mp135f-dk/lib/libc.a(memmove.o)
 .debug_loc     0x0002ff55      0x185 ./../build/opteemin-sdcard-stm32mp135f-dk/lib/libc.a(memset.o)
 .debug_loc     0x000300da      0x918 ./../build/opteemin-sdcard-stm32mp135f-dk/lib/libc.a(printf.o)
 .debug_loc     0x000309f2      0x73f ./../build/opteemin-sdcard-stm32mp135f-dk/lib/libc.a(snprintf.o)
 .debug_loc     0x00031131       0x71 ./../build/opteemin-sdcard-stm32mp135f-dk/lib/libc.a(strchr.o)
 .debug_loc     0x000311a2       0x71 ./../build/opteemin-sdcard-stm32mp135f-dk/lib/libc.a(strcmp.o)
 .debug_loc     0x00031213      0x13e ./../build/opteemin-sdcard-stm32mp135f-dk/lib/libc.a(strlcpy.o)
 .debug_loc     0x00031351       0x4d ./../build/opteemin-sdcard-stm32mp135f-dk/lib/libc.a(strlen.o)
 .debug_loc     0x0003139e      0x12e ./../build/opteemin-sdcard-stm32mp135f-dk/lib/libc.a(strncmp.o)
 .debug_loc     0x000314cc       0x38 ./../build/opteemin-sdcard-stm32mp135f-dk/lib/libc.a(strnlen.o)
 .debug_loc     0x00031504       0x9f ./../build/opteemin-sdcard-stm32mp135f-dk/lib/libc.a(strrchr.o)
