
/home/dangcaominh/STM32MP1/atf/stm32mp1_atf/../build/optee-nor-stm32mp157c-ev1/bl2/bl2.elf:     file format elf32-littlearm
/home/dangcaominh/STM32MP1/atf/stm32mp1_atf/../build/optee-nor-stm32mp157c-ev1/bl2/bl2.elf
architecture: armv7, flags 0x00000112:
EXEC_P, HAS_SYMS, D_PAGED
start address 0x2ffe9000

Program Header:
    LOAD off    0x00001000 vaddr 0x2ffe9000 paddr 0x2ffe9000 align 2**12
         filesz 0x00011000 memsz 0x00011000 flags r-x
    LOAD off    0x00012000 vaddr 0x2fffa000 paddr 0x2fffa000 align 2**12
         filesz 0x000005cd memsz 0x00004000 flags rw-
   STACK off    0x00000000 vaddr 0x00000000 paddr 0x00000000 align 2**4
         filesz 0x00000000 memsz 0x00000000 flags rw-
private flags = 0x5000200: [Version5 EABI] [soft-float ABI]

Sections:
Idx Name          Size      VMA       LMA       File off  Algn
  0 .ro           00011000  2ffe9000  2ffe9000  00001000  2**5
                  CONTENTS, ALLOC, LOAD, READONLY, CODE
  1 .data         000005cd  2fffa000  2fffa000  00012000  2**3
                  CONTENTS, ALLOC, LOAD, DATA
  2 .stacks       00000c00  2fffa600  2fffa600  000125cd  2**6
                  ALLOC
  3 .bss          000009e0  2fffb200  2fffb200  000125cd  2**5
                  ALLOC
  4 .xlat_table   00002000  2fffc000  2fffc000  000125cd  2**12
                  ALLOC
  5 .debug_info   000445a8  00000000  00000000  000125cd  2**0
                  CONTENTS, READONLY, DEBUGGING, OCTETS
  6 .debug_abbrev 0000d6d1  00000000  00000000  00056b75  2**0
                  CONTENTS, READONLY, DEBUGGING, OCTETS
  7 .debug_aranges 00001ea8  00000000  00000000  00064248  2**3
                  CONTENTS, READONLY, DEBUGGING, OCTETS
  8 .debug_line   000201d7  00000000  00000000  000660f0  2**0
                  CONTENTS, READONLY, DEBUGGING, OCTETS
  9 .debug_str    000093f5  00000000  00000000  000862c7  2**0
                  CONTENTS, READONLY, DEBUGGING, OCTETS
 10 .comment      00000012  00000000  00000000  0008f6bc  2**0
                  CONTENTS, READONLY
 11 .ARM.attributes 00000035  00000000  00000000  0008f6ce  2**0
                  CONTENTS, READONLY
 12 .debug_ranges 00005440  00000000  00000000  0008f708  2**3
                  CONTENTS, READONLY, DEBUGGING, OCTETS
 13 .debug_frame  00004d88  00000000  00000000  00094b48  2**2
                  CONTENTS, READONLY, DEBUGGING, OCTETS
 14 .debug_loc    0002c977  00000000  00000000  000998d0  2**0
                  CONTENTS, READONLY, DEBUGGING, OCTETS
SYMBOL TABLE:
2ffe9000 l    d  .ro	00000000 .ro
2fffa000 l    d  .data	00000000 .data
2fffa600 l    d  .stacks	00000000 .stacks
2fffb200 l    d  .bss	00000000 .bss
2fffc000 l    d  .xlat_table	00000000 .xlat_table
00000000 l    d  .debug_info	00000000 .debug_info
00000000 l    d  .debug_abbrev	00000000 .debug_abbrev
00000000 l    d  .debug_aranges	00000000 .debug_aranges
00000000 l    d  .debug_line	00000000 .debug_line
00000000 l    d  .debug_str	00000000 .debug_str
00000000 l    d  .comment	00000000 .comment
00000000 l    d  .ARM.attributes	00000000 .ARM.attributes
00000000 l    d  .debug_ranges	00000000 .debug_ranges
00000000 l    d  .debug_frame	00000000 .debug_frame
00000000 l    d  .debug_loc	00000000 .debug_loc
00000000 l    df *ABS*	00000000 bl2_el3_entrypoint.o
2ffe90f0 l       .ro	00000000 do_primary_cold_boot
00000000 l    df *ABS*	00000000 bl2_run_next_image.o
00000000 l    df *ABS*	00000000 debug.o
2fff930e l       .ro	00000000 assert_msg1
2fff931c l       .ro	00000000 assert_msg2
2ffe920c l       .ro	00000000 _assert_loop
2ffe91ec l       .ro	00000000 dec_print_loop
2fff9323 l       .ro	00000000 panic_msg
2fff9334 l       .ro	00000000 panic_end
2ffe92a0 l       .ro	00000000 _panic_handler
00000000 l    df *ABS*	00000000 stm32_console.o
2ffe9388 l       .ro	00000000 core_init_fail
2ffe936c l       .ro	00000000 teack_loop
2ffe93d4 l       .ro	00000000 register_fail
2ffe93fc l       .ro	00000000 putc_error
2ffe93e8 l       .ro	00000000 txe_loop
2ffe9444 l       .ro	00000000 tc_loop
00000000 l    df *ABS*	00000000 cache_helpers.o
2ffe94b0 l       .ro	00000000 exit_loop_cimvac
2ffe949c l       .ro	00000000 loop_cimvac
2ffe94ec l       .ro	00000000 exit_loop_cmvac
2ffe94d8 l       .ro	00000000 loop_cmvac
2ffe9528 l       .ro	00000000 exit_loop_imvac
2ffe9514 l       .ro	00000000 loop_imvac
2ffe952c l     F .ro	000000c8 do_dcsw_op
2ffe95dc l       .ro	00000000 dcsw_loop_table
2ffe9540 l       .ro	00000000 loop1
2ffe95b8 l       .ro	00000000 level_done
2ffe9584 l       .ro	00000000 loop2
2ffe959c l       .ro	00000000 loop3
00000000 l    df *ABS*	00000000 misc_helpers.o
2ffe9670 l       .ro	00000000 do_disable_mmu
00000000 l    df *ABS*	00000000 cortex_a7.o
2ffe9694 l     F .ro	00000014 cortex_a7_enable_smp
2ffe96a8 l     F .ro	00000004 cortex_a7_reset_func
2fff935f l       .ro	00000000 cortex_a7_errata_list_start
2fff935f l       .ro	00000000 cortex_a7_errata_list_end
00000000 l    df *ABS*	00000000 cpu_helpers.o
2ffe972c l       .ro	00000000 error_exit
00000000 l    df *ABS*	00000000 spinlock.o
00000000 l    df *ABS*	00000000 enable_mmu.o
00000000 l    df *ABS*	00000000 platform_up_stack.o
2fffa600 l       .stacks	00000000 platform_normal_stacks
00000006 l       *ABS*	00000000 TZ_COUNT
00000000 l    df *ABS*	00000000 stm32mp1_critic_power_wrapper.o
2fffa5c0 l       .data	00000000 saved_sp
2fffa5c4 l       .data	00000000 saved_vbar
2fffa5c8 l       .data	00000000 saved_mvbar
00000000 l    df *ABS*	00000000 stm32mp1_helper.o
2ffe98bc l       .ro	00000000 other_exception_lbl
2fff93d0 l       .ro	00000000 undefined_str
2ffe98dc l       .ro	00000000 print_exception_info
2fff93ee l       .ro	00000000 exception_start_str
2fff9401 l       .ro	00000000 exception_end_str
2fff9435 l       .ro	00000000 end_error_str
2fff93a6 l       .ro	00000000 prefetch_abort_str
2fff941f l       .ro	00000000 ifsr_str
2fff942a l       .ro	00000000 ifar_str
2fff93bd l       .ro	00000000 data_abort_str
2fff9409 l       .ro	00000000 dfsr_str
2fff9414 l       .ro	00000000 dfar_str
00000000 l    df *ABS*	00000000 bl2_image_load_v2.c
00000000 l    df *ABS*	00000000 bl2_main.c
00000000 l    df *ABS*	00000000 bl_common.c
00000000 l    df *ABS*	00000000 desc_image_load.c
2fffb388 l     O .bss	0000000c next_bl_params
2fffb394 l     O .bss	0000000c bl_load_info
2fff8f12 l     O .ro	00000003 CSWTCH.28
00000000 l    df *ABS*	00000000 fdt_wrappers.c
2fff3654 l     F .ro	00000004 fdt32_to_cpu
2fff3654 l     F .ro	00000004 cpu_to_fdt32
2fff3658 l     F .ro	0000001e fdt_read_prop_cells
00000000 l    df *ABS*	00000000 tf_log.c
2fffa070 l     O .data	00000004 max_log_level
00000000 l    df *ABS*	00000000 uuid.c
2fff36c6 l     F .ro	0000002e hex_val
2fff36f4 l     F .ro	0000003a read_hex.part.0
00000000 l    df *ABS*	00000000 tzc400.c
2fffb3a0 l     O .bss	00000008 tzc400
00000000 l    df *ABS*	00000000 clk.c
2fffb3a8 l     O .bss	00000004 ops
00000000 l    df *ABS*	00000000 multi_console.c
2fffa5cc l     O .data	00000001 console_state
00000000 l    df *ABS*	00000000 delay_timer.c
2fffb3b0 l     O .bss	00000004 timer_ops
00000000 l    df *ABS*	00000000 generic_delay_timer.c
2fff374c l     F .ro	00000008 get_timer_value
2fffb3b4 l     O .bss	0000000c ops
00000000 l    df *ABS*	00000000 fwu.c
2ffea884 l     F .ro	00000178 fwu_metadata_load
2fffba9d l     O .bss	00000078 metadata
2fffba9c l     O .bss	00000001 is_metadata_initialized
00000000 l    df *ABS*	00000000 io_fip.c
2fff3754 l     F .ro	00000004 device_type_fip
2ffeaaf8 l     F .ro	00000020 fip_file_close
2fffb200 l     O .bss	00000030 current_fip_file
2ffeab18 l     F .ro	0000009c fip_dev_init
2fffb3d4 l     O .bss	00000004 backend_image_spec
2fffb3d8 l     O .bss	00000004 backend_dev_handle
2ffeabb4 l     F .ro	000000b4 fip_file_read
2ffeac68 l     F .ro	00000024 fip_file_len
2ffeac8c l     F .ro	000000f0 fip_file_open
2fff8f15 l     O .ro	00000010 uuid_null.0
2ffead7c l     F .ro	00000050 fip_dev_close
2fffb3cc l     O .bss	00000008 state_pool
2fffb3c0 l     O .bss	00000004 fip_dev_count
2ffeadcc l     F .ro	0000004c fip_dev_open
2fffb3c4 l     O .bss	00000008 dev_info_pool
2fff5218 l     O .ro	00000024 fip_dev_funcs
2fff523c l     O .ro	00000004 fip_dev_connector
00000000 l    df *ABS*	00000000 io_mtd.c
2fff375c l     F .ro	00000008 mtd_close
2ffeae44 l     F .ro	00000084 mtd_read
2ffeaec8 l     F .ro	0000002c mtd_add_extra_offset.constprop.0
2fff8f25 l     O .ro	00000015 __func__.0
2ffeaef4 l     F .ro	00000044 mtd_open
2ffeaf38 l     F .ro	00000084 mtd_seek
2ffeafbc l     F .ro	0000003c mtd_dev_close
2fffb230 l     O .bss	00000020 state_pool
2ffeaff8 l     F .ro	0000004c mtd_dev_open
2fffb3dc l     O .bss	00000008 dev_info_pool
2fff5240 l     O .ro	00000024 mtd_dev_funcs
2fff5264 l     O .ro	00000004 mtd_dev_connector
00000000 l    df *ABS*	00000000 io_storage.c
2fff3764 l     F .ro	00000018 is_valid_dev
2fff377c l     F .ro	00000010 is_valid_entity
2ffeb060 l     F .ro	00000040 free_entity.isra.0
2fffb3ec l     O .bss	00000010 entity_map
2fffb3e8 l     O .bss	00000004 entity_count
2fffb3e4 l     O .bss	00000004 dev_count
2fffb3fc l     O .bss	00000020 entity_pool
00000000 l    df *ABS*	00000000 spi_nor.c
2fff378c l     F .ro	00000036 spi_nor_reg
2fff37c2 l     F .ro	0000000c spi_nor_write_en
2fff37ce l     F .ro	0000000c spi_nor_read_sr
2ffeb2e0 l     F .ro	00000030 spi_nor_clean_bar
2fffb250 l     O .bss	00000040 nor_dev
2ffeb310 l     F .ro	00000080 spi_nor_wait_ready
2fff8f3a l     O .ro	0000000d __func__.0
00000000 l    df *ABS*	00000000 spi_mem.c
2fff37da l     F .ro	00000004 fdt32_to_cpu
2ffeb738 l     F .ro	00000054 spi_mem_check_buswidth_req
2fffb41c l     O .bss	00000010 spi_slave
2fff37de l     F .ro	00000046 spi_mem_check_buswidth
2ffeb78c l     F .ro	00000014 spi_mem_supports_op
00000000 l    df *ABS*	00000000 bsec2.c
2ffeba3c l     F .ro	00000028 is_otp_invalid_mode
2ffeba64 l     F .ro	00000018 bsec_lock
2fffb42c l     O .bss	00000004 bsec_spinlock
2ffeba7c l     F .ro	00000018 bsec_unlock
2ffeba94 l     F .ro	00000058 bsec_power_safmem
2ffebaec l     F .ro	00000018 otp_bank_offset
2ffebb04 l     F .ro	00000034 bsec_check_error
00000000 l    df *ABS*	00000000 stm32mp1_clk.c
2fff386e l     F .ro	00000020 clock_is_always_on
2ffebe10 l     F .ro	000000fc stm32mp1_check_pll_conf
2fff527c l     O .ro	00000080 stm32mp1_clk_pll
2fffb708 l     O .bss	00000018 stm32mp1_osc
2fff8f84 l     O .ro	00000004 stm32mp1_pll
2ffebf0c l     F .ro	00000034 stm32mp1_pll_config_output
2fff388e l     F .ro	00000016 stm32mp1_clk_lock
2fff38a4 l     F .ro	00000016 stm32mp1_clk_unlock
2fff38ba l     F .ro	00000036 stm32_clk_parse_fdt_by_name
2ffebf40 l     F .ro	00000034 stm32mp1_clk_get_gated_id
2fff5c7c l     O .ro	000001d8 stm32mp1_clk_gate
2fff8f47 l     O .ro	0000001a __func__.0
2ffebf74 l     F .ro	00000078 stm32mp1_clk_get_parent
2fff8fd7 l     O .ro	00000023 parent_id_clock_id
2fff52fc l     O .ro	00000108 stm32mp1_clk_sel
2ffebfec l     F .ro	00000040 stm32mp_clk_is_enabled
2ffec02c l     F .ro	00000090 stm32mp_clk_disable
2fffb614 l     O .bss	00000004 refcount_lock
2fffb618 l     O .bss	000000ec gate_refcounts
2ffec0bc l     F .ro	0000008c stm32mp_clk_enable
2ffec148 l     F .ro	00000090 stm32_clk_configure_mux
2fff38f0 l     F .ro	00000018 stm32mp1_pll_configure_src
2ffec1d8 l     F .ro	000000ac stm32mp1_read_pll_freq
2fff8f81 l     O .ro	00000003 pllncfgr2
2ffec284 l     F .ro	00000204 stm32mp_clk_get_rate
2fff8f69 l     O .ro	00000008 stm32mp1_mpu_apbx_div
2fff8f61 l     O .ro	00000008 stm32mp1_axi_div
2fff8f71 l     O .ro	00000010 stm32mp1_mcu_div
2ffec488 l     F .ro	00000054 stm32mp1_osc_wait.isra.0
2fffb704 l     O .bss	00000004 reg_lock
2fffb720 l     O .bss	00000004 stm32_clock_data
2fffa074 l     O .data	00000018 stm32mp15_clock_data
2fff5268 l     O .ro	00000014 stm32mp_clk_ops
2fff5e54 l     O .ro	00000108 parent_mp15
2fff5f5c l     O .ro	00000096 dividers_mp15
2fff8fd3 l     O .ro	00000004 i2c12_parents
2fff8fcf l     O .ro	00000004 i2c35_parents
2fff8fcd l     O .ro	00000002 stgen_parents
2fff8fc9 l     O .ro	00000004 i2c46_parents
2fff8fc3 l     O .ro	00000006 spi6_parents
2fff8fbd l     O .ro	00000006 usart1_parents
2fff8fb9 l     O .ro	00000004 rng1_parents
2fff8fb4 l     O .ro	00000005 uart6_parents
2fff8faf l     O .ro	00000005 uart234578_parents
2fff8fab l     O .ro	00000004 sdmmc12_parents
2fff8fa7 l     O .ro	00000004 sdmmc3_parents
2fff8fa3 l     O .ro	00000004 qspi_parents
2fff8f9f l     O .ro	00000004 fmc_parents
2fff8f9c l     O .ro	00000003 axiss_parents
2fff8f98 l     O .ro	00000004 mcuss_parents
2fff8f95 l     O .ro	00000003 usbphy_parents
2fff8f93 l     O .ro	00000002 usbo_parents
2fff8f8f l     O .ro	00000004 mpu_parents
2fff8f8c l     O .ro	00000003 per_parents
2fff8f88 l     O .ro	00000004 rtc_parents
00000000 l    df *ABS*	00000000 stm32mp_clkfunc.c
00000000 l    df *ABS*	00000000 stm32mp1_ddr.c
2fff3908 l     F .ro	00000022 stm32mp1_mode_register_write.isra.0
2fff392a l     F .ro	0000004a stm32mp1_ddrphy_idone_wait
2fff3974 l     F .ro	0000004e stm32mp1_wait_operating_mode
2fff5444 l     O .ro	00000060 ddr_registers
2fff60de l     O .ro	00000064 ddr_reg
2fff60ae l     O .ro	00000030 ddr_timing
2fff6046 l     O .ro	00000044 ddr_perf
2fff608a l     O .ro	00000024 ddr_map
2fff601a l     O .ro	0000002c ddrphy_reg
2fff5ff2 l     O .ro	00000028 ddrphy_timing
00000000 l    df *ABS*	00000000 stm32mp1_ddr_helpers.c
2fff8ffa l     O .ro	0000000a CSWTCH.37
00000000 l    df *ABS*	00000000 stm32mp1_ram.c
2ffedb68 l     F .ro	00000154 stm32mp1_ddr_setup
2fff9004 l     O .ro	00000013 __func__.0
2fffb290 l     O .bss	00000020 ddr_priv_data
2fffbb15 l     O .bss	00000001 ddr_self_refresh
00000000 l    df *ABS*	00000000 stm32mp_ddr.c
2fffbb17 l     O .bss	00000001 axi_port_reenable_request
2fffbb16 l     O .bss	00000001 host_interface_reenable_request
00000000 l    df *ABS*	00000000 stm32mp_ram.c
2fff9017 l     O .ro	00000019 __func__.0
00000000 l    df *ABS*	00000000 stm32_gpio.c
2fff3dbc l     F .ro	00000004 fdt32_to_cpu
2ffedf14 l     F .ro	000000f0 set_gpio.isra.0
00000000 l    df *ABS*	00000000 stm32_i2c.c
2fff3dc0 l     F .ro	00000044 i2c_wait_flag
2ffee244 l     F .ro	0000002c i2c_transfer_config.isra.0
2fff3e04 l     F .ro	0000008c i2c_ack_failed
2fff3e90 l     F .ro	00000042 i2c_wait_txis
2fff3ed2 l     F .ro	00000042 i2c_wait_stop
2ffee270 l     F .ro	000001f0 i2c_read.isra.0
2ffee460 l     F .ro	00000218 i2c_write
2fff54ec l     O .ro	00000060 i2c_specs
00000000 l    df *ABS*	00000000 stm32_iwdg.c
2ffeec40 l     F .ro	0000004c fdt_get_clk_by_name
2fffb724 l     O .bss	00000020 stm32_iwdg
00000000 l    df *ABS*	00000000 nvmem.c
2fffb744 l     O .bss	0000000c nvmem_dev_array
2fff9030 l     O .ro	00000012 __func__.0
00000000 l    df *ABS*	00000000 stm32mp_tamp_nvram_core.c
2fff3f6a l     F .ro	00000004 fdt32_to_cpu
2ffeef30 l     F .ro	00000068 stm32_tamp_nvram_write_bkp
2ffeef98 l     F .ro	00000068 stm32_tamp_nvram_read_bkp.constprop.0.isra.0
2ffef000 l     F .ro	000000a4 stm32_tamp_nvram_read_cell
2ffef0a4 l     F .ro	000000c4 stm32_tamp_nvram_write_cell
2fffb75c l     O .bss	0000002c nvram_drv_data
2fffb750 l     O .bss	0000000c static_bkpreg_zones_end.0
2fff554c l     O .ro	00000008 stm32_tamp_nvram_nvmem_ops
00000000 l    df *ABS*	00000000 stm32mp_tamp_nvram_mp1.c
2fff5554 l     O .ro	00000008 stm32mp1_tamp_nvram
2fffa0c0 l     O .data	0000000c mp1_bkpreg_access
2fff555c l     O .ro	00000018 mp1_zone_cfg_fields
00000000 l    df *ABS*	00000000 stm32mp_pmic.c
2ffef300 l     F .ro	00000024 dt_get_pmic_node
2fffa0d0 l     O .data	00000004 node.2
2fff3fc8 l     F .ro	00000044 pmic_set_flag
2ffef324 l     F .ro	00000030 handle_pmic_property
2fff400c l     F .ro	00000006 pmic_list_voltages
2fff4012 l     F .ro	00000006 pmic_get_voltage
2fff4018 l     F .ro	00000006 pmic_set_voltage
2fff401e l     F .ro	0000000a pmic_get_state
2fff4028 l     F .ro	0000000c pmic_set_state
2fffa0d4 l     O .data	00000004 status.3
2fffa0cc l     O .data	00000004 i2c_node.1
2fffb788 l     O .bss	00000004 pmic_i2c_addr
2fffb78c l     O .bss	00000024 i2c_handle
2fff5574 l     O .ro	00000118 pmic_regs
2fff9042 l     O .ro	0000000e __func__.0
2fff568c l     O .ro	00000020 pmic_ops
00000000 l    df *ABS*	00000000 stpmic1.c
2ffef5d8 l     F .ro	00000044 get_regulator_data
2fff56ac l     O .ro	00000118 regulators_table
2fffbb18 l     O .bss	00000001 ldo3_special_mode
2fff61b8 l     O .ro	00000002 ldo3_special_mode_table
2fffba98 l     O .bss	00000002 pmic_i2c_addr
2fffb7b0 l     O .bss	00000004 pmic_i2c_handle
2fff6390 l     O .ro	00000080 buck1_voltage_table
2fff6346 l     O .ro	0000004a buck2_voltage_table
2fff62d6 l     O .ro	00000070 buck3_voltage_table
2fff625c l     O .ro	0000007a buck4_voltage_table
2fff622a l     O .ro	00000032 ldo1_voltage_table
2fff61f8 l     O .ro	00000032 ldo2_voltage_table
2fff61ba l     O .ro	0000003e ldo3_voltage_table
2fff6146 l     O .ro	00000002 ldo4_voltage_table
2fff617a l     O .ro	0000003e ldo5_voltage_table
2fff6148 l     O .ro	00000032 ldo6_voltage_table
2fff6144 l     O .ro	00000002 vref_ddr_voltage_table
2fff6142 l     O .ro	00000002 fixed_5v_voltage_table
00000000 l    df *ABS*	00000000 regulator_core.c
2fff4170 l     F .ro	00000004 fdt32_to_cpu
2fff4174 l     F .ro	0000000a unlock_driver.isra.0
2fff417e l     F .ro	0000000a lock_driver.isra.0
2fffb7b4 l     O .bss	0000017c rdev_array
2fff9050 l     O .ro	00000019 __func__.0
00000000 l    df *ABS*	00000000 regulator_fixed.c
2fff418e l     F .ro	00000004 fixed_set_state
2fff4192 l     F .ro	00000004 fixed_get_state
2fffb930 l     O .bss	00000068 data
2fffa0d8 l     O .data	00000020 fixed_ops
2fff9069 l     O .ro	00000019 __func__.0
00000000 l    df *ABS*	00000000 stm32mp1_reset.c
00000000 l    df *ABS*	00000000 stm32_qspi.c
2fff41aa l     F .ro	00000006 stm32_qspi_read_fifo
2fff41b0 l     F .ro	00000006 stm32_qspi_write_fifo
2ffefe20 l     F .ro	00000028 stm32_qspi_claim_bus
2fffb998 l     O .bss	00000014 stm32_qspi
2ffefe48 l     F .ro	00000014 stm32_qspi_release_bus
2ffefe5c l     F .ro	00000058 stm32_qspi_wait_for_not_busy
2fff9082 l     O .ro	0000001d __func__.0
2ffefeb4 l     F .ro	0000003c stm32_qspi_set_mode
2ffefef0 l     F .ro	0000006c stm32_qspi_set_speed
2ffeff5c l     F .ro	00000220 stm32_qspi_exec_op
2fff90c3 l     O .ro	00000013 __func__.3
2fff909f l     O .ro	00000014 __func__.1
2fff90b3 l     O .ro	00000010 __func__.2
2fff57c4 l     O .ro	0000001c stm32_qspi_bus_ops
00000000 l    df *ABS*	00000000 fconf.c
00000000 l    df *ABS*	00000000 fconf_dyn_cfg_getter.c
2fffa0f8 l     O .data	00000010 dtb_info_pool
2fffb9ac l     O .bss	00000060 dtb_infos
2fff9438 l     O .ro	0000000c dyn_cfg__populator
00000000 l    df *ABS*	00000000 optee_utils.c
2fff046c l     F .ro	00000060 parse_optee_image
00000000 l    df *ABS*	00000000 xlat_tables_arch.c
00000000 l    df *ABS*	00000000 xlat_tables_context.c
2fffa000 l     O .data	00000048 tf_xlat_ctx
2fffb2b0 l     O .bss	000000c0 tf_mmap
2fffc000 l     O .xlat_table	00002000 tf_xlat_tables
2fffba0c l     O .bss	00000008 tf_mapped_regions
2fffbbc0 l     O .bss	00000020 tf_base_xlat_table
00000000 l    df *ABS*	00000000 xlat_tables_core.c
2fff43a2 l     F .ro	0000012e mmap_add_region_check
2fff44d0 l     F .ro	0000001a xlat_clean_dcache_range
2fff085c l     F .ro	00000028 xlat_table_get_index
2fff0884 l     F .ro	00000138 xlat_tables_unmap_region
2fff0a80 l     F .ro	000001ac xlat_tables_map_region
00000000 l    df *ABS*	00000000 crc32.c
2fff57e0 l     O .ro	00000400 crc_table
00000000 l    df *ABS*	00000000 plat_log_common.c
2fff5be0 l     O .ro	00000014 plat_prefix_str
00000000 l    df *ABS*	00000000 bl2_io_storage.c
2fffba20 l     O .bss	00000004 fip_dev_con
2fffba1c l     O .bss	00000004 spi_dev_con
2fffa048 l     O .data	00000028 spi_nor_dev_spec
2fffa108 l     O .data	00000004 boot_idx.2
2fff90d6 l     O .ro	00000016 __func__.1
00000000 l    df *ABS*	00000000 stm32mp_common.c
2fff453e l     F .ro	00000032 stm32_nvmem_cell_clrset
2fff1534 l     F .ro	0000003c stm32_get_bootinfo_cell
2fffba60 l     O .bss	00000004 boot_ctx_address
2fffba9a l     O .bss	00000002 boot_itf_selected
2fffba5c l     O .bss	00000004 boot_action_saved
2fffba64 l     O .bss	00000004 lock
2fffba68 l     O .bss	00000004 console_clk
2fffba6c l     O .bss	00000014 console
2fffbb1c l     O .bss	00000001 initialized.7
2fffba50 l     O .bss	0000000c s_magic_number.6
2fffbb1b l     O .bss	00000001 initialized.5
2fffba44 l     O .bss	0000000c s_core1_branch_address.4
2fffbb1a l     O .bss	00000001 initialized.3
2fffba38 l     O .bss	0000000c s_fwu_info.2
2fffbb19 l     O .bss	00000001 initialized.1
2fffba2c l     O .bss	0000000c s_boot_mode.0
00000000 l    df *ABS*	00000000 stm32mp_dt.c
2fff4622 l     F .ro	00000004 fdt32_to_cpu
2fff196c l     F .ro	00000024 fdt_get_node_parent_address_cells
2fffba84 l     O .bss	00000004 fdt
2fffba80 l     O .bss	00000004 size.1
2fff90ec l     O .ro	00000010 __func__.0
00000000 l    df *ABS*	00000000 stm32mp_fconf_fuse.c
2fff1d2c l     F .ro	00000128 fconf_populate_stm32mp_fuse_provisioning
2fff9444 l     O .ro	0000000c stm32mp_fuse__populator
00000000 l    df *ABS*	00000000 stm32mp_fconf_io.c
2fff5c14 l     O .ro	00000038 load_info
2fffa10c l     O .data	00000010 fconf_stm32mp_uuids_pool
2fff9450 l     O .ro	0000000c stm32mp_io__populator
2fffbb1d l     O .bss	00000070 fconf_stm32mp_uuids
2fffba88 l     O .bss	00000008 metadata_block_spec
00000000 l    df *ABS*	00000000 bl2_plat_setup.c
2fff90fc l     O .ro	000001d5 debug_msg
00000000 l    df *ABS*	00000000 plat_ddr.c
2fff92d1 l     O .ro	00000014 __func__.0
00000000 l    df *ABS*	00000000 stm32mp1_context.c
00000000 l    df *ABS*	00000000 stm32mp1_critic_power.c
00000000 l    df *ABS*	00000000 stm32mp1_dbgmcu.c
2fff2884 l     F .ro	00000030 stm32mp1_dbgmcu_init
00000000 l    df *ABS*	00000000 stm32mp1_fconf_firewall.c
2fff46de l     F .ro	00000004 fdt32_to_cpu
2fff2910 l     F .ro	000000cc fconf_populate_stm32mp1_firewall
2fffba90 l     O .bss	00000004 nb_regions
2fff945c l     O .ro	0000000c stm32mp1_firewall__populator
00000000 l    df *ABS*	00000000 stm32mp1_private.c
2fff51d0 l     O .ro	00000048 stm32mp1_mmap
2fffba94 l     O .bss	00000004 part_number.1
2fff5c6c l     O .ro	00000010 CSWTCH.27
2fff5c5c l     O .ro	00000010 CSWTCH.28
2fffa5bc l     O .data	00000004 skip.0
00000000 l    df *ABS*	00000000 stm32mp1_syscfg.c
00000000 l    df *ABS*	00000000 aeabi_uldivmod.o
00000000 l    df *ABS*	00000000 fdt.c
2fff4738 l     F .ro	00000018 fdt32_ld
00000000 l    df *ABS*	00000000 fdt_addresses.c
2fff4990 l     F .ro	0000002a fdt_cells
00000000 l    df *ABS*	00000000 fdt_ro.c
2fff49ba l     F .ro	00000018 fdt32_ld
2fff49d2 l     F .ro	00000032 nextprop_
2fff4a04 l     F .ro	00000004 fdt32_ld_.isra.0
2fff4a08 l     F .ro	00000034 fdt_get_property_by_offset_
2fff4b66 l     F .ro	0000007c fdt_get_property_namelen_
00000000 l    df *ABS*	00000000 assert.c
00000000 l    df *ABS*	00000000 printf.c
2fff4f7e l     F .ro	00000092 unsigned_num_print.part.0
00000000 l    df *ABS*	00000000 snprintf.c
2fff502a l     F .ro	000000ca unsigned_num_print
00000000 l    df *ABS*	00000000 bl2_arch_setup.c
00000000 l    df *ABS*	00000000 stm32mp_ddr_test.c
00000000 l    df *ABS*	00000000 ctzdi2.c
00000000 l    df *ABS*	00000000 udivmoddi4.c
00000000 l    df *ABS*	00000000 xlat_tables_utils.c
00000000 l    df *ABS*	00000000 tf_gunzip.c
00000000 l    df *ABS*	00000000 plat_bl_common.c
00000000 l    df *ABS*	00000000 plat_image_load.c
00000000 l    df *ABS*	00000000 stm32mp1_boot_device.c
00000000 l    df *ABS*	00000000 memchr.c
00000000 l    df *ABS*	00000000 memcmp.c
00000000 l    df *ABS*	00000000 memcpy.c
00000000 l    df *ABS*	00000000 memmove.c
00000000 l    df *ABS*	00000000 memset.c
00000000 l    df *ABS*	00000000 strchr.c
00000000 l    df *ABS*	00000000 strcmp.c
00000000 l    df *ABS*	00000000 strlcpy.c
00000000 l    df *ABS*	00000000 strlen.c
00000000 l    df *ABS*	00000000 strncmp.c
00000000 l    df *ABS*	00000000 strnlen.c
00000000 l    df *ABS*	00000000 strrchr.c
00000000 l    df *ABS*	00000000 <stdin>
00000000 l    df *ABS*	00000000 bl2_el3_exceptions.o
00000000 l    df *ABS*	00000000 plat_bl2_mem_params_desc.c
2fffa338 l     O .data	00000284 bl2_mem_params_descs
2fff94a0 l     F .ro	00000008 __clean_dcache_range_from_thumb
2fff94a8 l     F .ro	00000008 __enable_mmu_direct_svc_mon_from_thumb
2fff94b0 l     F .ro	00000008 __spin_lock_from_thumb
2fff94b8 l     F .ro	00000008 __console_register_from_arm
2fff94c0 l     F .ro	00000008 __flush_dcache_range_from_thumb
2fff94c8 l     F .ro	00000008 __bl2_run_next_image_from_thumb
2fff94d0 l     F .ro	00000008 __spin_unlock_from_thumb
2fff372e g     F .ro	00000014 putchar
2ffed77c g     F .ro	000001e4 ddr_sw_self_refresh_exit
2fff4600 g     F .ro	00000022 stm32_clear_fwu_trial_boot_cnt
2ffefa18 g     F .ro	000000e0 regulator_list_voltages
2ffea6e4 g     F .ro	0000001c console_set_scope
2fff3020 g     F .ro	0000001c fdt_address_cells
2fff3742 g     F .ro	0000000a mdelay
2fff15ec g     F .ro	00000018 stm32mp_pwr_regs_lock
2fff477a g     F .ro	00000054 fdt_offset_ptr
2fff3f30 g     F .ro	00000012 stm32_i2c_mem_read
2fffbbc0 g       .bss	00000000 __PMF_TIMESTAMP_START__
2ffef930 g     F .ro	00000030 regulator_enable
2ffea9fc g     F .ro	00000090 fwu_get_alternate_boot_bank
2fff2748 g     F .ro	00000080 stm32_pm_context_is_valid
2fffa0a8 g     O .data	00000018 stm32mp_osc_node_label
2ffea6a4 g     F .ro	00000040 console_register
2ffe96ac g     F .ro	00000034 reset_handler
2fff3cea g     F .ro	0000001e stm32mp_ddr_test_data_bus
2ffe9608 g     F .ro	00000064 zeromem
2fff6410 g     O .ro	00000035 version_string
2ffebb80 g     F .ro	00000034 bsec_read_sr_lock
2fff44ea g     F .ro	00000018 mmap_add_ctx
2ffe9d40 g     F .ro	00000020 print_entry_point_info
2fffb544 g     O .bss	000000d0 mp15_pll
2fff5010 g     F .ro	0000001a printf
2fff4038 g     F .ro	00000016 pmic_switch_off
2fff0d1c g     F .ro	00000154 mmap_add_dynamic_region_ctx
2ffea628 g     F .ro	00000024 clk_is_enabled
2fff15b0 g     F .ro	0000000c stm32mp_get_boot_ctx_address
2fffb370 g     O .bss	00000018 mmu_cfg_params
2fff4504 g     F .ro	00000002 xlat_tables_print
2fffa000 g       .ro	00000000 __RW_START__
2ffeb390 g     F .ro	000000b0 spi_nor_read
2fff0444 g     F .ro	00000028 dyn_cfg_dtb_info_getter
2ffeb7e8 g     F .ro	00000064 spi_mem_dirmap_read
2ffebbb4 g     F .ro	00000034 bsec_read_sw_lock
2ffeec8c g     F .ro	00000040 stm32_iwdg_refresh
2fffc000 g       .xlat_table	00000000 __XLAT_TABLE_START__
2fffa11c g     O .data	00000214 policies
2fff4be2 g     F .ro	00000040 fdt_getprop_namelen
2fff2a6c g     F .ro	0000001c configure_mmu
2fff4b36 g     F .ro	00000018 fdt_first_property_offset
2fff4648 g     F .ro	00000004 bl2_el3_early_platform_setup
2fff07b4 g     F .ro	00000028 mmap_add_dynamic_region
2ffe91a8 g     F .ro	0000006c asm_assert
2fff0424 g     F .ro	00000020 dyn_cfg_dtb_info_get_index
2ffeee74 g     F .ro	00000090 nvmem_get_cell_by_index
2ffeb7a0 g     F .ro	00000048 spi_mem_exec_op
2ffebbe8 g     F .ro	0000004c bsec_write_otp
2fff1770 g     F .ro	00000034 stm32_get_magic_number_cell
2ffe92d4 g     F .ro	00000010 report_data_abort
2fff4f10 g     F .ro	0000002c memmove
2fff4d7e g     F .ro	00000020 fdt_parent_offset
2fff2804 g     F .ro	00000080 stm32_pwr_down_wfi_load
2fff06d4 g     F .ro	000000ac setup_mmu_cfg
2fff50f4 g     F .ro	0000001a snprintf
2fff46f2 g     F .ro	00000046 stm32mp_is_wakeup_from_standby
2fff0e70 g     F .ro	00000108 mmap_remove_dynamic_region_ctx
2ffee004 g     F .ro	00000240 dt_set_pinctrl_config
2ffea56c g     F .ro	00000050 tzc400_disable_filters
2fff4cd8 g     F .ro	0000001a fdt_path_offset
2fffba24 g     O .bss	00000004 storage_dev_handle
2fff46a8 g     F .ro	0000001c stm32_get_zdata_from_context
2fff1180  w    F .ro	00000024 plat_log_get_prefix
2ffef65c g     F .ro	00000028 stpmic1_register_read
2fff46e2 g     F .ro	00000010 stm32mp1_addr_inside_backupsram
2ffe9898 g     F .ro	00000054 plat_report_exception
2fff0318 g     F .ro	0000010c fconf_populate_dtb_registry
2fff6445 g     O .ro	0000001e build_message
2ffef22c g     F .ro	000000c4 stm32_tamp_nvram_init
2fff07ec g     F .ro	0000003c init_xlat_tables
2fffa000 g       .data	00000000 __DATA_START__
2fff2ad0 g     F .ro	00000020 stm32_get_gpio_bank_clock
2ffe9df4 g     F .ro	00000030 get_bl_mem_params_node
2fff3050 g     F .ro	000000b0 fdt_get_string
2ffebb74 g     F .ro	0000000c bsec_read_debug_conf
2ffe9390 g     F .ro	00000048 console_stm32_register
2fff15bc g     F .ro	0000000c stm32mp_get_boot_itf_selected
2ffeaa8c g     F .ro	00000024 fwu_get_metadata
2fff0604 g     F .ro	00000028 xlat_arch_regime_get_xn_desc
2ffef388 g     F .ro	0000010c initialize_pmic_i2c
2ffed2b8 g     F .ro	00000010 stm32mp_stgen_restore_rate
2ffec57c g     F .ro	0000000c stm32mp1_clk_rcc_regs_unlock
2fff3c84 g     F .ro	0000004c stm32mp_ddr_wait_refresh_update_done_ack
2fff4e8c g     F .ro	00000036 fdt_node_offset_by_compatible
2fff1f2c g     F .ro	00000074 bl2_platform_setup
2fff14d8 g     F .ro	0000005c plat_fwu_set_metadata_image_source
2fff3d8e g     F .ro	0000002e stm32mp_ddr_check_size
2ffedcbc g     F .ro	00000048 stm32mp1_ddr_clk_enable
2ffed1d4 g     F .ro	00000064 fdt_clk_read_uint32_default
2ffe9ac8 g       .ro	00000000 __TEXT_RESIDENT_END__
2fff4efa g     F .ro	00000016 memcpy
2fff017c g     F .ro	000000d4 stm32_qspi_init
2fff1408 g     F .ro	000000d0 plat_fwu_set_images_source
2fff15dc g     F .ro	00000008 stm32mp_ddrphyc_base
2ffe9d94 g     F .ro	0000001c flush_bl_params_desc
2ffe9608 g     F .ro	00000064 zero_normalmem
2ffea00c g     F .ro	00000088 fdtw_read_string
2fff2eb8 g     F .ro	00000024 __aeabi_uldivmod
2ffefb18 g     F .ro	00000180 regulator_register
2ffef494 g     F .ro	00000114 initialize_pmic
2ffef8a8 g     F .ro	00000014 stpmic1_bind_i2c
2ffe9894 g     F .ro	00000004 platform_mem_init
2fff3f98 g     F .ro	00000030 stm32_tamp_nvram_reg_field_read
2ffe92c4 g     F .ro	00000010 report_prefetch_abort
2ffebb38 g     F .ro	0000003c bsec_probe
2fff3842 g     F .ro	0000002c bsec_read_otp
2fff3374 g     F .ro	000002d0 vsnprintf
2fff07a8 g     F .ro	0000000c mmap_add
2fff28b4 g     F .ro	0000002c stm32mp1_dbgmcu_get_chip_version
2fff407c g     F .ro	0000002e stpmic1_register_update
2fff15e4 g     F .ro	00000008 stm32mp_pwr_base
2fff4570 g     F .ro	00000006 plat_get_syscnt_freq2
2fff135c g     F .ro	000000ac plat_fwu_get_boot_idx
2fff2ab0 g     F .ro	00000020 stm32_get_gpio_bank_offset
2ffe9ab4 g     F .ro	00000014 plat_panic_handler
2fff4526 g     F .ro	00000004 plat_flush_next_bl_params
2fff9438 g       .ro	00000000 __RT_SVC_DESCS_START__
2fff4a9e g     F .ro	0000007a fdt_subnode_offset_namelen
2ffed960 g     F .ro	00000018 ddr_read_sr_mode
2fffb200 g       .stacks	00000000 __STACKS_END__
2fff4d5e g     F .ro	00000020 fdt_node_depth
2fffbbc0 g       .bss	00000000 __PERCPU_BAKERY_LOCK_END__
2fff2d20 g     F .ro	00000028 stm32_iwdg_get_instance
2fff41d8 g     F .ro	00000180 __udivmoddi4
2ffe94b4 g     F .ro	0000003c clean_dcache_range
2fff190c g     F .ro	00000060 stm32_get_and_dec_fwu_trial_boot_cnt
2fff1a6c g     F .ro	00000088 dt_fill_device_info
2fff1a4c g     F .ro	00000020 dt_set_stdout_pinctrl
2fff3b7a g     F .ro	0000000e stm32mp_ddr_start_sw_done
2ffedd4c g     F .ro	00000048 stm32mp_ddr_set_reg
2fffa334 g     O .data	00000004 bl_mem_params_desc_ptr
2ffeb234 g     F .ro	00000034 io_size
2fff476a g     F .ro	00000010 fdt_header_size
2fff1e54 g     F .ro	000000d8 fconf_populate_stm32mp_io_policies
2fffb430 g     O .bss	00000064 mp15_clkdiv
2fff3bc2 g     F .ro	0000001a stm32mp_ddr_enable_axi_port
2ffef960 g     F .ro	0000004c regulator_get_voltage
2ffeb0c8 g     F .ro	00000028 io_dev_open
2ffe9954 g     F .ro	00000048 plat_report_data_abort
2ffe97fc  w    F .ro	0000000c plat_set_my_stack
2fff9438 g       .ro	00000000 __RT_SVC_DESCS_END__
2fff488a g     F .ro	00000024 fdt_check_node_offset_
2ffef8bc g     F .ro	00000074 regulator_get_by_supply_name
2ffe9db0 g     F .ro	00000044 get_bl_params_node_index
2ffe980c g     F .ro	00000074 stm32_pwr_down_wfi_wrapper
2ffe9240 g     F .ro	00000034 asm_print_hex
2ffeddec g     F .ro	0000004c stm32mp_ddr_set_qd3_update_conditions
2fff3b88 g     F .ro	0000003a stm32mp_ddr_wait_sw_done_ack
000009e0 g       *ABS*	00000000 __BSS_SIZE__
2ffe9224 g     F .ro	0000001c asm_print_str
2ffeee50 g     F .ro	00000024 nvmem_driver_register
2ffe9a9c g     F .ro	00000008 plat_crash_console_flush
2fffb494 g     O .bss	000000b0 mp15_clksrc
2fff2da4 g     F .ro	00000020 stm32mp_bkpram_get_access
2fff450e  w    F .ro	00000004 plat_error_handler
2fff15d4 g     F .ro	00000008 stm32mp_ddrctrl_base
2fff2b38 g     F .ro	00000034 stm32mp_get_part_number
2fff519c g     F .ro	00000014 strnlen
2fff4c22 g     F .ro	00000022 fdt_getprop
2fffba14 g     O .bss	00000008 image_block_spec
2fff4650 g     F .ro	00000034 plat_get_nor_data
2ffececc g     F .ro	00000214 stm32mp1_clk_probe
2fff2380 g     F .ro	000001f8 bl2_plat_handle_post_image_load
2fff94d8 g       .ro	00000000 __RO_END_UNALIGNED__
2ffe9000 g       .ro	00000000 RAM_REGION_START
2ffed0e0 g     F .ro	0000008c fdt_osc_read_freq
2ffea700 g     F .ro	00000058 console_putc
2ffe99b8 g     F .ro	00000004 plat_secondary_cold_boot_setup
2ffed2c8 g     F .ro	000004b4 stm32mp1_ddr_init
2fff1744 g     F .ro	0000002c stm32_display_board_info
2fff51b0 g     F .ro	0000001a strrchr
2fff4196 g     F .ro	00000014 stm32mp_system_reset
2ffeb044 g     F .ro	0000001c register_io_dev_mtd
2fff3f5a g     F .ro	00000010 nvmem_cell_write
2ffe99dc g     F .ro	000000a0 plat_crash_console_init
2ffe9478 g     F .ro	0000003c flush_dcache_range
2ffeeb10 g     F .ro	00000130 stm32_i2c_is_device_ready
2fff04cc g     F .ro	00000024 optee_header_is_valid
2ffea7f0 g     F .ro	00000028 timer_init
2ffe9e74 g     F .ro	000000c0 get_next_bl_params_from_mem_params_desc
2fff4de0 g     F .ro	00000046 fdt_stringlist_contains
2fff3f42 g     F .ro	00000018 nvmem_cell_read
2fff40be g     F .ro	00000014 stpmic1_regulator_enable
2fff9468 g       .ro	00000000 __PMF_SVC_DESCS_END__
2fff4370 g     F .ro	00000006 xlat_get_min_virt_addr_space_size
2fffa5d0 g       .data	00000000 __RELA_END__
2fffa5d0 g       .data	00000000 __RELA_START__
2fffe000 g       .xlat_table	00000000 RAM_REGION_END
2ffec4dc g     F .ro	00000094 clk_stm32_set_div
2fff11a4 g     F .ro	00000010 open_fip
2fff3c30 g     F .ro	0000004a stm32mp_ddr_disable_host_interface
2ffef684 g     F .ro	00000090 stpmic1_regulator_voltage_get
2fff31b0 g     F .ro	000001c4 vprintf
2ffe9f9c g     F .ro	00000070 fdt_read_uint32_array
2fffa08c g     O .data	0000001c stm32mp15_clock_pdata
2ffed16c g     F .ro	00000068 fdt_clk_read_bool
2fff4376 g     F .ro	0000001c is_dcache_enabled
2ffede38 g     F .ro	00000038 stm32mp_ddr_unset_qd3_update_conditions
2ffe95f4 g     F .ro	00000014 dcsw_op_all
2ffe99ac g     F .ro	00000004 plat_reset_handler
2fff4b18 g     F .ro	0000001e fdt_subnode_offset
2fff10b8 g     F .ro	000000c8 crc32_z
2ffe96e4 g     F .ro	0000004c get_cpu_ops_ptr
2fff452a g     F .ro	00000004 plat_get_bl_image_load_info
2fff1570 g     F .ro	00000040 stm32mp_save_boot_ctx_address
2ffe9c34 g     F .ro	0000010c load_auth_image
2fff4ec2 g     F .ro	0000001c memchr
2fff4152 g     F .ro	0000001e stpmic1_get_version
2ffef61c g     F .ro	00000040 stpmic1_regulator_levels_mv
2fff4506 g     F .ro	00000004 crc32
2fff303c g     F .ro	00000014 fdt_size_cells
2fffe000 g       .xlat_table	00000000 __BL2_END__
2fff0658 g     F .ro	0000003c xlat_arch_current_el
2ffed26c g     F .ro	0000004c stm32mp_stgen_config
2fff4cf2 g     F .ro	0000006c fdt_supernode_atdepth_offset
2fff1bcc g     F .ro	00000030 dt_get_board_model
2fff3686 g     F .ro	00000018 fdt_read_uint32_default
00000000 g       *ABS*	00000000 __PERCPU_BAKERY_LOCK_SIZE__
2fff4358 g     F .ro	00000010 xlat_arch_get_pas
2fff3f6e g     F .ro	0000002a stm32_tamp_nvram_reg_get_zone
2fff4966 g     F .ro	0000002a fdt_next_subnode
2fff163c g     F .ro	00000030 stm32_get_otp_value_from_idx
2ffef2f0 g     F .ro	00000008 stm32_tamp_nvram_get_cdata
2fffa5cd g       .data	00000000 __DATA_RAM_END__
2fff0250 g     F .ro	00000088 fconf_populate
2fff1bfc g     F .ro	000000a8 dt_find_otp_name
2fffbbc0 g       .bss	00000000 __PMF_PERCPU_TIMESTAMP_END__
2fff513c g     F .ro	00000028 strlcpy
2ffe9be0 g     F .ro	00000054 bl2_main
2fff5174 g     F .ro	00000028 strncmp
2fffa5cd g       .data	00000000 __DATA_END__
2ffe9244 g       .ro	00000000 asm_print_hex_bits
2fffbbc0 g       .bss	00000000 __BASE_XLAT_TABLE_START__
2fff9468 g       .ro	00000000 __CPU_OPS_START__
2ffef83c g     F .ro	00000030 stpmic1_regulator_bypass_mode_set
2ffea780 g     F .ro	00000070 udelay
2fff1b1c g     F .ro	00000028 dt_get_stdout_uart_info
2fff48ae g     F .ro	00000024 fdt_check_prop_offset_
2ffeb440 g     F .ro	00000274 spi_nor_init
2ffe94f0 g     F .ro	0000003c inv_dcache_range
2ffe93e0 g     F .ro	00000024 console_stm32_core_putc
2fff4518 g     F .ro	0000000e plat_fwu_is_enabled
2fff27c8 g     F .ro	0000003c stm32_restore_ddr_training_area
2ffe9000 g     F .ro	00000140 bl2_entrypoint
2ffeaab0 g     F .ro	00000048 fwu_init
2ffe9424 g     F .ro	00000030 console_stm32_core_flush
2ffea830 g     F .ro	00000054 generic_delay_timer_init
2fff464c g     F .ro	00000004 bl2_el3_plat_prepare_exit
2fff15c8 g     F .ro	0000000c stm32mp_get_boot_action
2ffea818 g     F .ro	00000018 generic_delay_timer_init_args
2fffbbc0 g       .bss	00000000 __BAKERY_LOCK_END__
2fff4ede g     F .ro	0000001c memcmp
2fff4576 g     F .ro	00000006 stm32mp_rcc_base
2ffedd04 g     F .ro	0000000c stm32mp1_ddr_is_restored
2ffef86c g     F .ro	0000003c stpmic1_active_discharge_mode_set
2fff4626 g     F .ro	00000022 dt_get_pwr_vdd_voltage
2fff09bc g     F .ro	000000c4 xlat_desc
2fff4c44 g     F .ro	00000094 fdt_path_offset_namelen
2fff4b4e g     F .ro	00000018 fdt_next_property_offset
2fff28e0 g     F .ro	00000030 stm32mp1_dbgmcu_get_chip_dev_id
2ffe99bc g     F .ro	0000001c plat_is_my_cpu_primary
2fff1af4 g     F .ro	00000028 dt_get_node
2fffbbe0 g       .bss	00000000 __BSS_END__
2fff9478 g       .ro	00000000 __CPU_OPS_END__
2fff29dc g     F .ro	00000034 stm32mp1_arch_security_setup
2ffea504 g     F .ro	00000068 tzc400_enable_filters
2fff412e g     F .ro	00000024 stpmic1_regulator_icc_set
2ffe99b0 g     F .ro	00000008 plat_get_my_entrypoint
2ffeb1e8 g     F .ro	0000004c io_seek
2fff4d9e g     F .ro	00000042 fdt_node_offset_by_phandle
2ffeb2b0 g     F .ro	00000030 io_close
2fff41b6 g     F .ro	00000022 __ctzdi2
2ffed238 g     F .ro	00000034 fdt_get_clock_id
2ffea4c0 g     F .ro	00000044 tzc400_update_filters
2ffeb84c g     F .ro	000001f0 spi_mem_init_slave
2ffea3fc g     F .ro	000000c4 tzc400_configure_region
2fff1990 g     F .ro	00000014 dt_open_and_check
2ffe9688 g     F .ro	00000008 disable_mmu_icache_secure
2fff2e68 g     F .ro	00000050 stm32mp_syscfg_enable_io_compensation_finish
2fff9478 g       .ro	00000000 __GOT_END__
2fff4f3c g     F .ro	00000042 memset
2fff3c22 g     F .ro	0000000e stm32mp_ddr_enable_host_interface
2fff9468 g       .ro	00000000 __PARSER_LIB_DESCS_END__
2fffbbc0 g       .bss	00000000 __BAKERY_LOCK_START__
2fff1fa0 g     F .ro	000003e0 bl2_el3_plat_arch_setup
2fff9480 g       .ro	00000000 bl2_vector_table
2fff3758 g     F .ro	00000004 device_type_mtd
2ffe9160 g     F .ro	00000048 bl2_run_next_image
2ffefc98 g     F .ro	000000c8 fixed_regulator_register
2fff369e g     F .ro	00000028 fdt_read_uint64
2ffe9404 g     F .ro	0000001c console_stm32_putc
2fffa330 g     O .data	00000004 bl_mem_params_desc_num
2fff2d78 g     F .ro	0000002c stm32mp_skip_boot_device_after_standby
2fff2dc4 g     F .ro	00000018 stm32mp_syscfg_enable_io_compensation_start
2fff4512  w    F .ro	00000002 bl2_plat_preload_setup
2fff39ec g     F .ro	00000010 ddr_get_io_calibration_val
2fff4368 g     F .ro	00000008 xlat_arch_get_max_supported_pa
2ffe9ac8 g     F .ro	00000118 bl2_load_images
2fff0828 g     F .ro	00000034 enable_mmu_svc_mon
2ffed978 g     F .ro	000001f0 ddr_set_sr_mode
2fff3c7a g     F .ro	0000000a stm32mp_ddr_sw_selfref_exit
2fff3644 g     F .ro	00000002 bl2_arch_setup
2fff9478 g       .ro	00000000 __GOT_START__
2ffedec0 g     F .ro	00000054 stm32mp_ddr_dt_get_param
2fff3100 g     F .ro	00000044 fdt_get_phandle
2ffea0e8 g     F .ro	000000a0 fdt_get_reg_props_by_index
00000000 g       *ABS*	00000000 __PERCPU_TIMESTAMP_SIZE__
2fff5124 g     F .ro	00000018 strcmp
2ffeeccc g     F .ro	00000184 stm32_iwdg_init
2fff02d8 g     F .ro	00000040 set_config_info
2ffefaf8 g     F .ro	00000020 regulator_get_range
2fff2578 g     F .ro	00000124 stm32mp_board_ddr_power_init
2ffea350 g     F .ro	00000024 tzc400_set_action
2ffef774 g     F .ro	00000098 stpmic1_regulator_voltage_set
2fff3cd0 g     F .ro	0000001a stm32mp_ddr_test_rw_access
2fff40aa g     F .ro	0000000a stpmic1_powerctrl_on
2fff9468 g       .ro	00000000 __FCONF_POPULATOR_END__
2ffe92e4 g     F .ro	000000ac console_stm32_core_init
2ffe9d60 g     F .ro	00000034 flush_bl_params_desc_args
2fff269c g     F .ro	00000058 stm32_pm_get_optee_ep
2ffea604 g     F .ro	00000024 clk_get_rate
2ffe966c g     F .ro	0000001c disable_mmu_secure
2ffee678 g     F .ro	00000064 stm32_i2c_get_setup_from_fdt
2fff17a4 g     F .ro	00000034 stm32_get_core1_branch_address_cell
2ffef714 g     F .ro	00000060 stpmic1_register_write
2ffede70 g     F .ro	00000050 stm32mp_ddr_dt_get_info
2fff404e g     F .ro	0000002e stpmic1_is_regulator_enabled
2ffe9458 g     F .ro	0000001c console_stm32_flush
2ffea288 g     F .ro	000000c8 read_uuid
2fffbbe0 g       .bss	00000000 __BASE_XLAT_TABLE_END__
2fff2f50 g     F .ro	000000d0 fdt_check_header
2ffeef04 g     F .ro	0000002c nvmem_get_cell_by_name
2ffea758 g     F .ro	00000028 console_flush
2fff458c g     F .ro	0000001e stm32mp_map_ddr_non_cacheable
2fff4392 g     F .ro	00000010 xlat_arch_tlbi_va_sync
2fffa000 g       .ro	00000000 __RO_END__
2ffeb0f0 g     F .ro	00000034 io_dev_init
2fff11b4 g     F .ro	00000010 open_storage
2ffef80c g     F .ro	00000030 stpmic1_regulator_sink_mode_set
2fff4a3c g     F .ro	00000062 fdt_get_name
2fff1b9c g     F .ro	00000030 dt_get_vdd_regulator
2fff19b8 g     F .ro	00000020 fdt_check_node
2ffeb268 g     F .ro	00000048 io_read
2ffea1b8 g     F .ro	00000074 fdt_get_stdout_node_offset
2ffe9764 g     F .ro	00000018 spin_unlock
2fff4940 g     F .ro	00000026 fdt_first_subnode
2fffb200 g       .bss	00000000 __BSS_START__
2fff45de g     F .ro	00000022 stm32_set_max_fwu_trial_boot_cnt
2fffa000 g       .data	00000000 __DATA_RAM_START__
2ffe9000 g       .ro	00000000 __RO_START__
2fff410a g     F .ro	00000024 stpmic1_regulator_mask_reset_set
2fff3d08 g     F .ro	00000086 stm32mp_ddr_test_addr_bus
2fff0c2c g     F .ro	000000f0 mmap_add_region_ctx
2fff2b14 g     F .ro	00000024 stm32mp_get_chip_dev_id
2fff9468 g       .ro	00000000 __PMF_SVC_DESCS_START__
2ffe9aa8 g     F .ro	00000008 plat_crash_console_putc
2ffebc68 g     F .ro	000000f0 bsec_program_otp
2ffeb154 g     F .ro	00000094 io_open
2fff48d2 g     F .ro	0000006e fdt_next_node
2fff2cf4 g     F .ro	0000002c stm32mp_check_closed_device
2fff40b4 g     F .ro	0000000a stpmic1_switch_off
2fff3646 g     F .ro	0000000e bl2_el3_setup
2ffefdc0 g     F .ro	00000060 stm32mp_reset_deassert
2fff19a4 g     F .ro	00000014 fdt_get_address
2ffe9740 g     F .ro	00000024 spin_lock
2ffea67c g     F .ro	00000028 console_is_registered
2ffea64c g     F .ro	00000030 clk_register
2fff1604 g     F .ro	00000018 stm32mp_pwr_regs_unlock
2fff39c2 g     F .ro	0000002a ddr_enable_clock
2fff45b6 g     F .ro	00000028 stm32_fwu_set_boot_idx
2fff1b44 g     F .ro	00000058 dt_get_ddr_size
2fff0694 g     F .ro	00000040 is_mmu_enabled_ctx
2ffebd58 g     F .ro	000000b8 bsec_shadow_read_otp
2fff1318 g     F .ro	00000044 plat_get_image_source
2ffea5e0 g     F .ro	00000024 clk_disable
2fff17d8 g     F .ro	00000034 stm32_get_fwu_info_cell
2ffea374 g     F .ro	0000005c tzc400_init
2ffea22c g     F .ro	0000005c tf_log
2fffba28 g     O .bss	00000004 fip_dev_handle
2ffeb0a0 g     F .ro	00000028 io_register_device
2fff26f4 g     F .ro	00000054 stm32_context_save_bl2_param
2fff9438 g       .ro	00000000 __FCONF_POPULATOR_START__
00016000 g       *ABS*	00000000 RAM_REGION_LENGTH
2fff39fc g     F .ro	0000017e ddr_standby_sr_entry
2fff04f0 g     F .ro	00000114 parse_optee_header
2fff4034 g     F .ro	00000004 pmic_voltages_init
2ffe9f34 g     F .ro	00000068 populate_next_bl_params_config
2fffe000 g       .xlat_table	00000000 __RW_END__
2fff2a88 g     F .ro	00000028 stm32_get_gpio_bank_base
2fff19d8 g     F .ro	00000074 fdt_get_status
2fff46c4 g     F .ro	0000001a stm32_pwr_cstop_critic_exit
2ffefd60 g     F .ro	00000060 stm32mp_reset_assert
2ffec570 g     F .ro	0000000c stm32mp1_clk_rcc_regs_lock
2fff1840 g     F .ro	000000cc stm32_save_boot_info
2ffe98fc g     F .ro	00000048 plat_report_prefetch_abort
2fff3676 g     F .ro	00000010 fdt_read_uint32
2ffe9e24 g     F .ro	00000050 get_bl_load_info_from_mem_params_desc
2fffa600 g       .stacks	00000000 __STACKS_START__
2fff2a10 g     F .ro	0000005c stm32mp1_security_setup
2ffea094 g     F .ro	00000054 fdtw_read_uuid
2fff2b6c g     F .ro	00000148 stm32mp_get_soc_name
2fff450a g     F .ro	00000004 tf_crc32
2ffeb6b4 g     F .ro	00000084 spi_nor_reset
2fff47ce g     F .ro	000000bc fdt_next_tag
2fffbbc0 g       .bss	00000000 __PMF_TIMESTAMP_END__
2fff2cb4 g     F .ro	0000001c stm32mp_print_cpuinfo
2ffe9000 g       .ro	00000000 __TEXT_RESIDENT_START__
2ffedd94 g     F .ro	00000058 stm32mp_ddr_sw_selfref_entry
2ffef2f8 g     F .ro	00000008 stm32_tamp_nvram_get_access_rights
2fff0f78 g     F .ro	00000140 init_xlat_tables_ctx
2ffef5a8 g     F .ro	00000030 print_pmic_info_and_debug
2ffee6dc g     F .ro	00000434 stm32_i2c_init
2fff3f14 g     F .ro	0000001c stm32_i2c_mem_write
2fffe000 g       .xlat_table	00000000 __XLAT_TABLE_END__
2fff12f0 g     F .ro	00000028 bl2_plat_handle_pre_image_load
2fff3144 g     F .ro	0000002c fdt_get_alias_namelen
2ffef168 g     F .ro	000000c4 stm32_tamp_nvram_update_rights
2fff457c g     F .ro	00000010 stm32mp_lock_available
2fff3824 g     F .ro	0000001e spi_mem_default_supports_op
2fff2af0 g     F .ro	00000024 stm32mp_get_chip_version
2fff5164 g     F .ro	00000010 strlen
2ffec588 g     F .ro	00000944 stm32mp1_clk_init
2ffea188 g     F .ro	00000030 fdt_get_reg_props_by_name
2ffe92b0 g     F .ro	00000014 report_exception
2fff161c g     F .ro	00000020 stm32_get_otp_index
2fff062c g     F .ro	0000002c xlat_arch_tlbi_va
2fff2d48 g     F .ro	00000030 stm32_iwdg_get_otp_config
2ffef354 g     F .ro	00000034 dt_pmic_status
2ffeb124 g     F .ro	00000030 io_dev_close
2fff3198 g     F .ro	00000018 __assert
2ffe9274 g     F .ro	00000034 el3_panic
2fff510e g     F .ro	00000016 strchr
2fff4502 g     F .ro	00000002 xlat_mmap_print
2ffeae18 g     F .ro	0000002c register_io_dev_fip
2fff3bdc g     F .ro	00000046 stm32mp_ddr_disable_axi_port
2fff40d2 g     F .ro	00000014 stpmic1_regulator_disable
2ffedd10 g     F .ro	0000003c stm32mp1_ddr_probe
2fff40e6 g     F .ro	00000024 stpmic1_regulator_pull_down_set
2ffe977c g     F .ro	00000074 enable_mmu_direct_svc_mon
2ffea3d0 g     F .ro	0000002c tzc400_configure_region0
2fff16b0 g     F .ro	00000094 stm32mp_uart_console_setup
2fff2edc g     F .ro	00000074 fdt_ro_probe_
2fff4e26 g     F .ro	00000066 fdt_stringlist_search
2ffea5bc g     F .ro	00000024 clk_enable
2ffef9ac g     F .ro	0000006c regulator_set_voltage
2fff3170 g     F .ro	00000028 fdt_node_check_compatible
2fff11c4 g     F .ro	0000012c stm32mp_io_setup
2fff4684 g     F .ro	00000024 stm32_clean_context
2fff180c g     F .ro	00000034 stm32_get_boot_mode_cell
2fff07dc g     F .ro	00000010 mmap_remove_dynamic_region
2fff166c g     F .ro	00000044 stm32_get_otp_value
2fff1ca4 g     F .ro	00000088 dt_get_otp_by_phandle
2fffb3ac g     O .bss	00000004 console_list
2fff45aa g     F .ro	0000000c stm32mp_unmap_ddr
2fff2cd0 g     F .ro	00000024 stm32mp_print_boardinfo
2fff452e g     F .ro	00000010 plat_get_next_bl_params
2fff4750 g     F .ro	0000001a fdt_header_size_
2fff4188 g     F .ro	00000006 regulator_set_min_voltage
2fff4514 g     F .ro	00000004 plat_try_backup_partitions
2ffebc34 g     F .ro	00000034 bsec_read_sp_lock
2fffbbc0 g       .bss	00000000 __PERCPU_BAKERY_LOCK_START__
2fff0780 g     F .ro	00000028 mmap_add_region
2fff2ddc g     F .ro	0000008c stm32mp_syscfg_init
2fff9468 g       .ro	00000000 __PARSER_LIB_DESCS_START__



Disassembly of section .ro:

2ffe9000 <bl2_entrypoint>:
2ffe9000:	e1a09000 	mov	r9, r0
2ffe9004:	e1a0a001 	mov	sl, r1
2ffe9008:	e1a0b002 	mov	fp, r2
2ffe900c:	e1a0c003 	mov	ip, r3
2ffe9010:	ee110f11 	mrc	15, 0, r0, cr1, cr1, {0}
2ffe9014:	e3100001 	tst	r0, #1
2ffe9018:	0a000002 	beq	2ffe9028 <bl2_entrypoint+0x28>
2ffe901c:	e59f011c 	ldr	r0, [pc, #284]	@ 2ffe9140 <do_primary_cold_boot+0x50>
2ffe9020:	e3a010f7 	mov	r1, #247	@ 0xf7
2ffe9024:	ea00005f 	b	2ffe91a8 <asm_assert>
2ffe9028:	e59f0114 	ldr	r0, [pc, #276]	@ 2ffe9144 <do_primary_cold_boot+0x54>
2ffe902c:	ee010f10 	mcr	15, 0, r0, cr1, cr0, {0}
2ffe9030:	f57ff06f 	isb	sy
2ffe9034:	f1020016 	cps	#22
2ffe9038:	f57ff06f 	isb	sy
2ffe903c:	eb00025b 	bl	2ffe99b0 <plat_get_my_entrypoint>
2ffe9040:	e3500000 	cmp	r0, #0
2ffe9044:	112fff10 	bxne	r0
2ffe9048:	e59f00f8 	ldr	r0, [pc, #248]	@ 2ffe9148 <do_primary_cold_boot+0x58>
2ffe904c:	ee0c0f10 	mcr	15, 0, r0, cr12, cr0, {0}
2ffe9050:	ee0c0f30 	mcr	15, 0, r0, cr12, cr0, {1}
2ffe9054:	f57ff06f 	isb	sy
2ffe9058:	eb000193 	bl	2ffe96ac <reset_handler>
2ffe905c:	e59f10e8 	ldr	r1, [pc, #232]	@ 2ffe914c <do_primary_cold_boot+0x5c>
2ffe9060:	ee110f10 	mrc	15, 0, r0, cr1, cr0, {0}
2ffe9064:	e1800001 	orr	r0, r0, r1
2ffe9068:	ee010f10 	mcr	15, 0, r0, cr1, cr0, {0}
2ffe906c:	f57ff06f 	isb	sy
2ffe9070:	e3a00c02 	mov	r0, #512	@ 0x200
2ffe9074:	ee010f11 	mcr	15, 0, r0, cr1, cr1, {0}
2ffe9078:	f1080100 	cpsie	a
2ffe907c:	f57ff06f 	isb	sy
2ffe9080:	ee110f51 	mrc	15, 0, r0, cr1, cr1, {2}
2ffe9084:	e2000807 	and	r0, r0, #458752	@ 0x70000
2ffe9088:	e3800b03 	orr	r0, r0, #3072	@ 0xc00
2ffe908c:	ee101f51 	mrc	15, 0, r1, cr0, cr1, {2}
2ffe9090:	e7e31651 	ubfx	r1, r1, #12, #4
2ffe9094:	e3510001 	cmp	r1, #1
2ffe9098:	1a000000 	bne	2ffe90a0 <bl2_entrypoint+0xa0>
2ffe909c:	e3800601 	orr	r0, r0, #1048576	@ 0x100000
2ffe90a0:	ee010f51 	mcr	15, 0, r0, cr1, cr1, {2}
2ffe90a4:	f57ff06f 	isb	sy
2ffe90a8:	e3a0060f 	mov	r0, #15728640	@ 0xf00000
2ffe90ac:	ee010f50 	mcr	15, 0, r0, cr1, cr0, {2}
2ffe90b0:	f57ff06f 	isb	sy
2ffe90b4:	e3a00020 	mov	r0, #32
2ffe90b8:	ee090f1c 	mcr	15, 0, r0, cr9, cr12, {0}
2ffe90bc:	ee100f11 	mrc	15, 0, r0, cr0, cr1, {0}
2ffe90c0:	e200040f 	and	r0, r0, #251658240	@ 0xf000000
2ffe90c4:	e3500401 	cmp	r0, #16777216	@ 0x1000000
2ffe90c8:	1a000002 	bne	2ffe90d8 <bl2_entrypoint+0xd8>
2ffe90cc:	e10f0000 	mrs	r0, CPSR
2ffe90d0:	e3800602 	orr	r0, r0, #2097152	@ 0x200000
2ffe90d4:	e12ff000 	msr	CPSR_fsxc, r0
2ffe90d8:	eb000237 	bl	2ffe99bc <plat_is_my_cpu_primary>
2ffe90dc:	e3500000 	cmp	r0, #0
2ffe90e0:	1a000002 	bne	2ffe90f0 <do_primary_cold_boot>
2ffe90e4:	eb000233 	bl	2ffe99b8 <plat_secondary_cold_boot_setup>
2ffe90e8:	eb000271 	bl	2ffe9ab4 <plat_panic_handler>
2ffe90ec:	e320f000 	nop	{0}

2ffe90f0 <do_primary_cold_boot>:
2ffe90f0:	eb0001e7 	bl	2ffe9894 <platform_mem_init>
2ffe90f4:	e59f0054 	ldr	r0, [pc, #84]	@ 2ffe9150 <do_primary_cold_boot+0x60>
2ffe90f8:	e59f1054 	ldr	r1, [pc, #84]	@ 2ffe9154 <do_primary_cold_boot+0x64>
2ffe90fc:	e0411000 	sub	r1, r1, r0
2ffe9100:	eb0000fa 	bl	2ffe94f0 <inv_dcache_range>
2ffe9104:	e1a0700c 	mov	r7, ip
2ffe9108:	e59f0048 	ldr	r0, [pc, #72]	@ 2ffe9158 <do_primary_cold_boot+0x68>
2ffe910c:	e59f1048 	ldr	r1, [pc, #72]	@ 2ffe915c <do_primary_cold_boot+0x6c>
2ffe9110:	e0411000 	sub	r1, r1, r0
2ffe9114:	eb00013b 	bl	2ffe9608 <zero_normalmem>
2ffe9118:	e1a0c007 	mov	ip, r7
2ffe911c:	eb0001b6 	bl	2ffe97fc <plat_set_my_stack>
2ffe9120:	e1a00009 	mov	r0, r9
2ffe9124:	e1a0100a 	mov	r1, sl
2ffe9128:	e1a0200b 	mov	r2, fp
2ffe912c:	e1a0300c 	mov	r3, ip
2ffe9130:	fb002943 	blx	2fff3646 <bl2_el3_setup>
2ffe9134:	fa0002a9 	blx	2ffe9be0 <bl2_main>
2ffe9138:	eb00025d 	bl	2ffe9ab4 <plat_panic_handler>
2ffe913c:	e320f000 	nop	{0}
2ffe9140:	2fff92e5 	.word	0x2fff92e5
2ffe9144:	00c50038 	.word	0x00c50038
2ffe9148:	2fff9480 	.word	0x2fff9480
2ffe914c:	00001002 	.word	0x00001002
2ffe9150:	2fffa000 	.word	0x2fffa000
2ffe9154:	2fffe000 	.word	0x2fffe000
2ffe9158:	2fffb200 	.word	0x2fffb200
2ffe915c:	2fffbbe0 	.word	0x2fffbbe0

2ffe9160 <bl2_run_next_image>:
2ffe9160:	e1a08000 	mov	r8, r0
2ffe9164:	eb000147 	bl	2ffe9688 <disable_mmu_icache_secure>
2ffe9168:	ee080f17 	mcr	15, 0, r0, cr8, cr7, {0}
2ffe916c:	f57ff04f 	dsb	sy
2ffe9170:	f57ff06f 	isb	sy
2ffe9174:	e1a00008 	mov	r0, r8
2ffe9178:	fa002d33 	blx	2fff464c <bl2_el3_plat_prepare_exit>
2ffe917c:	e598e008 	ldr	lr, [r8, #8]
2ffe9180:	e598100c 	ldr	r1, [r8, #12]
2ffe9184:	e163f001 	msr	SPSR_xc, r1
2ffe9188:	f1020013 	cps	#19
2ffe918c:	e598e010 	ldr	lr, [r8, #16]
2ffe9190:	f1020016 	cps	#22
2ffe9194:	e2888014 	add	r8, r8, #20
2ffe9198:	e898000f 	ldm	r8, {r0, r1, r2, r3}
2ffe919c:	e160006e 	eret
2ffe91a0:	f57ff047 	dsb	un
2ffe91a4:	f57ff06f 	isb	sy

2ffe91a8 <asm_assert>:
2ffe91a8:	e1a05000 	mov	r5, r0
2ffe91ac:	e1a06001 	mov	r6, r1
2ffe91b0:	eb000209 	bl	2ffe99dc <plat_crash_console_init>
2ffe91b4:	e3500000 	cmp	r0, #0
2ffe91b8:	0a000013 	beq	2ffe920c <_assert_loop>
2ffe91bc:	e59f4050 	ldr	r4, [pc, #80]	@ 2ffe9214 <_assert_loop+0x8>
2ffe91c0:	eb000017 	bl	2ffe9224 <asm_print_str>
2ffe91c4:	e1a04005 	mov	r4, r5
2ffe91c8:	eb000015 	bl	2ffe9224 <asm_print_str>
2ffe91cc:	e59f4044 	ldr	r4, [pc, #68]	@ 2ffe9218 <_assert_loop+0xc>
2ffe91d0:	eb000013 	bl	2ffe9224 <asm_print_str>
2ffe91d4:	e59f4040 	ldr	r4, [pc, #64]	@ 2ffe921c <_assert_loop+0x10>
2ffe91d8:	e1160004 	tst	r6, r4
2ffe91dc:	1a00000a 	bne	2ffe920c <_assert_loop>
2ffe91e0:	e1a04006 	mov	r4, r6
2ffe91e4:	e3a0600a 	mov	r6, #10
2ffe91e8:	e59f5030 	ldr	r5, [pc, #48]	@ 2ffe9220 <_assert_loop+0x14>

2ffe91ec <dec_print_loop>:
2ffe91ec:	e730f514 	udiv	r0, r4, r5
2ffe91f0:	e0644590 	mls	r4, r0, r5, r4
2ffe91f4:	e2800030 	add	r0, r0, #48	@ 0x30
2ffe91f8:	eb00022a 	bl	2ffe9aa8 <plat_crash_console_putc>
2ffe91fc:	e735f615 	udiv	r5, r5, r6
2ffe9200:	e3550000 	cmp	r5, #0
2ffe9204:	1afffff8 	bne	2ffe91ec <dec_print_loop>
2ffe9208:	eb000223 	bl	2ffe9a9c <plat_crash_console_flush>

2ffe920c <_assert_loop>:
2ffe920c:	eb000228 	bl	2ffe9ab4 <plat_panic_handler>
2ffe9210:	e320f000 	nop	{0}
2ffe9214:	2fff930e 	.word	0x2fff930e
2ffe9218:	2fff931c 	.word	0x2fff931c
2ffe921c:	ffff0000 	.word	0xffff0000
2ffe9220:	00002710 	.word	0x00002710

2ffe9224 <asm_print_str>:
2ffe9224:	e1a0700e 	mov	r7, lr
2ffe9228:	e4d40001 	ldrb	r0, [r4], #1
2ffe922c:	e3500000 	cmp	r0, #0
2ffe9230:	0a000001 	beq	2ffe923c <asm_print_str+0x18>
2ffe9234:	eb00021b 	bl	2ffe9aa8 <plat_crash_console_putc>
2ffe9238:	eafffffa 	b	2ffe9228 <asm_print_str+0x4>
2ffe923c:	e12fff17 	bx	r7

2ffe9240 <asm_print_hex>:
2ffe9240:	e3a05020 	mov	r5, #32

2ffe9244 <asm_print_hex_bits>:
2ffe9244:	e1a0700e 	mov	r7, lr
2ffe9248:	e2455004 	sub	r5, r5, #4
2ffe924c:	e1a00534 	lsr	r0, r4, r5
2ffe9250:	e200000f 	and	r0, r0, #15
2ffe9254:	e350000a 	cmp	r0, #10
2ffe9258:	3a000000 	bcc	2ffe9260 <asm_print_hex_bits+0x1c>
2ffe925c:	e2800027 	add	r0, r0, #39	@ 0x27
2ffe9260:	e2800030 	add	r0, r0, #48	@ 0x30
2ffe9264:	eb00020f 	bl	2ffe9aa8 <plat_crash_console_putc>
2ffe9268:	e3550000 	cmp	r5, #0
2ffe926c:	1afffff5 	bne	2ffe9248 <asm_print_hex_bits+0x4>
2ffe9270:	e12fff17 	bx	r7

2ffe9274 <el3_panic>:
2ffe9274:	e24e6004 	sub	r6, lr, #4
2ffe9278:	eb0001d7 	bl	2ffe99dc <plat_crash_console_init>
2ffe927c:	e3500000 	cmp	r0, #0
2ffe9280:	0a000006 	beq	2ffe92a0 <_panic_handler>
2ffe9284:	e59f401c 	ldr	r4, [pc, #28]	@ 2ffe92a8 <_panic_handler+0x8>
2ffe9288:	ebffffe5 	bl	2ffe9224 <asm_print_str>
2ffe928c:	e1a04006 	mov	r4, r6
2ffe9290:	ebffffea 	bl	2ffe9240 <asm_print_hex>
2ffe9294:	e59f4010 	ldr	r4, [pc, #16]	@ 2ffe92ac <_panic_handler+0xc>
2ffe9298:	ebffffe1 	bl	2ffe9224 <asm_print_str>
2ffe929c:	eb0001fe 	bl	2ffe9a9c <plat_crash_console_flush>

2ffe92a0 <_panic_handler>:
2ffe92a0:	e1a0e006 	mov	lr, r6
2ffe92a4:	ea000202 	b	2ffe9ab4 <plat_panic_handler>
2ffe92a8:	2fff9323 	.word	0x2fff9323
2ffe92ac:	2fff9334 	.word	0x2fff9334

2ffe92b0 <report_exception>:
2ffe92b0:	e10f0000 	mrs	r0, CPSR
2ffe92b4:	e200001f 	and	r0, r0, #31
2ffe92b8:	eb000176 	bl	2ffe9898 <plat_report_exception>
2ffe92bc:	eb0001fc 	bl	2ffe9ab4 <plat_panic_handler>
2ffe92c0:	e320f000 	nop	{0}

2ffe92c4 <report_prefetch_abort>:
2ffe92c4:	e1040300 	mrs	r0, LR_abt
2ffe92c8:	eb00018b 	bl	2ffe98fc <plat_report_prefetch_abort>
2ffe92cc:	eb0001f8 	bl	2ffe9ab4 <plat_panic_handler>
2ffe92d0:	e320f000 	nop	{0}

2ffe92d4 <report_data_abort>:
2ffe92d4:	e1040300 	mrs	r0, LR_abt
2ffe92d8:	eb00019d 	bl	2ffe9954 <plat_report_data_abort>
2ffe92dc:	eb0001f4 	bl	2ffe9ab4 <plat_panic_handler>
2ffe92e0:	e320f000 	nop	{0}

2ffe92e4 <console_stm32_core_init>:
2ffe92e4:	e3500000 	cmp	r0, #0
2ffe92e8:	0a000026 	beq	2ffe9388 <core_init_fail>
2ffe92ec:	e3510000 	cmp	r1, #0
2ffe92f0:	0a000024 	beq	2ffe9388 <core_init_fail>
2ffe92f4:	e3520000 	cmp	r2, #0
2ffe92f8:	0a000022 	beq	2ffe9388 <core_init_fail>
2ffe92fc:	e5903000 	ldr	r3, [r0]
2ffe9300:	e3c33001 	bic	r3, r3, #1
2ffe9304:	e5803000 	str	r3, [r0]
2ffe9308:	e3833282 	orr	r3, r3, #536870920	@ 0x20000008
2ffe930c:	e5803000 	str	r3, [r0]
2ffe9310:	e5903004 	ldr	r3, [r0, #4]
2ffe9314:	e3c33a03 	bic	r3, r3, #12288	@ 0x3000
2ffe9318:	e5803004 	str	r3, [r0, #4]
2ffe931c:	e1a030a2 	lsr	r3, r2, #1
2ffe9320:	e0813003 	add	r3, r1, r3
2ffe9324:	e733f213 	udiv	r3, r3, r2
2ffe9328:	e3530010 	cmp	r3, #16
2ffe932c:	8a000009 	bhi	2ffe9358 <console_stm32_core_init+0x74>
2ffe9330:	e1a030a2 	lsr	r3, r2, #1
2ffe9334:	e0833081 	add	r3, r3, r1, lsl #1
2ffe9338:	e733f213 	udiv	r3, r3, r2
2ffe933c:	e203100f 	and	r1, r3, #15
2ffe9340:	e1a010a1 	lsr	r1, r1, #1
2ffe9344:	e3c3300f 	bic	r3, r3, #15
2ffe9348:	e1833001 	orr	r3, r3, r1
2ffe934c:	e5901000 	ldr	r1, [r0]
2ffe9350:	e3811902 	orr	r1, r1, #32768	@ 0x8000
2ffe9354:	e5801000 	str	r1, [r0]
2ffe9358:	e580300c 	str	r3, [r0, #12]
2ffe935c:	e5903000 	ldr	r3, [r0]
2ffe9360:	e3833001 	orr	r3, r3, #1
2ffe9364:	e5803000 	str	r3, [r0]
2ffe9368:	e3a02a01 	mov	r2, #4096	@ 0x1000

2ffe936c <teack_loop>:
2ffe936c:	e2522001 	subs	r2, r2, #1
2ffe9370:	0a000004 	beq	2ffe9388 <core_init_fail>
2ffe9374:	e590301c 	ldr	r3, [r0, #28]
2ffe9378:	e3130602 	tst	r3, #2097152	@ 0x200000
2ffe937c:	0afffffa 	beq	2ffe936c <teack_loop>
2ffe9380:	e3a00001 	mov	r0, #1
2ffe9384:	e12fff1e 	bx	lr

2ffe9388 <core_init_fail>:
2ffe9388:	e3a00000 	mov	r0, #0
2ffe938c:	e12fff1e 	bx	lr

2ffe9390 <console_stm32_register>:
2ffe9390:	e92d4010 	push	{r4, lr}
2ffe9394:	e1a04003 	mov	r4, r3
2ffe9398:	e3540000 	cmp	r4, #0
2ffe939c:	0a00000c 	beq	2ffe93d4 <register_fail>
2ffe93a0:	e5840010 	str	r0, [r4, #16]
2ffe93a4:	ebffffce 	bl	2ffe92e4 <console_stm32_core_init>
2ffe93a8:	e3500000 	cmp	r0, #0
2ffe93ac:	0a000008 	beq	2ffe93d4 <register_fail>
2ffe93b0:	e1a00004 	mov	r0, r4
2ffe93b4:	e8bd4010 	pop	{r4, lr}
2ffe93b8:	e59f1018 	ldr	r1, [pc, #24]	@ 2ffe93d8 <register_fail+0x4>
2ffe93bc:	e5801008 	str	r1, [r0, #8]
2ffe93c0:	e59f1014 	ldr	r1, [pc, #20]	@ 2ffe93dc <register_fail+0x8>
2ffe93c4:	e580100c 	str	r1, [r0, #12]
2ffe93c8:	e3a01005 	mov	r1, #5
2ffe93cc:	e5801004 	str	r1, [r0, #4]
2ffe93d0:	ea004038 	b	2fff94b8 <__console_register_from_arm>

2ffe93d4 <register_fail>:
2ffe93d4:	e8bd8010 	pop	{r4, pc}
2ffe93d8:	2ffe9404 	.word	0x2ffe9404
2ffe93dc:	2ffe9458 	.word	0x2ffe9458

2ffe93e0 <console_stm32_core_putc>:
2ffe93e0:	e3510000 	cmp	r1, #0
2ffe93e4:	0a000004 	beq	2ffe93fc <putc_error>

2ffe93e8 <txe_loop>:
2ffe93e8:	e591201c 	ldr	r2, [r1, #28]
2ffe93ec:	e3120080 	tst	r2, #128	@ 0x80
2ffe93f0:	0afffffc 	beq	2ffe93e8 <txe_loop>
2ffe93f4:	e5810028 	str	r0, [r1, #40]	@ 0x28
2ffe93f8:	e12fff1e 	bx	lr

2ffe93fc <putc_error>:
2ffe93fc:	e3e00000 	mvn	r0, #0
2ffe9400:	e12fff1e 	bx	lr

2ffe9404 <console_stm32_putc>:
2ffe9404:	e3510000 	cmp	r1, #0
2ffe9408:	1a000002 	bne	2ffe9418 <console_stm32_putc+0x14>
2ffe940c:	e59f000c 	ldr	r0, [pc, #12]	@ 2ffe9420 <console_stm32_putc+0x1c>
2ffe9410:	e3a010bf 	mov	r1, #191	@ 0xbf
2ffe9414:	eaffff63 	b	2ffe91a8 <asm_assert>
2ffe9418:	e5911010 	ldr	r1, [r1, #16]
2ffe941c:	eaffffef 	b	2ffe93e0 <console_stm32_core_putc>
2ffe9420:	2fff9337 	.word	0x2fff9337

2ffe9424 <console_stm32_core_flush>:
2ffe9424:	e3500000 	cmp	r0, #0
2ffe9428:	1a000002 	bne	2ffe9438 <console_stm32_core_flush+0x14>
2ffe942c:	e59f0020 	ldr	r0, [pc, #32]	@ 2ffe9454 <tc_loop+0x10>
2ffe9430:	e3a010e4 	mov	r1, #228	@ 0xe4
2ffe9434:	eaffff5b 	b	2ffe91a8 <asm_assert>
2ffe9438:	e5901000 	ldr	r1, [r0]
2ffe943c:	e3110001 	tst	r1, #1
2ffe9440:	0a000002 	beq	2ffe9450 <tc_loop+0xc>

2ffe9444 <tc_loop>:
2ffe9444:	e590101c 	ldr	r1, [r0, #28]
2ffe9448:	e3110080 	tst	r1, #128	@ 0x80
2ffe944c:	0afffffc 	beq	2ffe9444 <tc_loop>
2ffe9450:	e12fff1e 	bx	lr
2ffe9454:	2fff9337 	.word	0x2fff9337

2ffe9458 <console_stm32_flush>:
2ffe9458:	e3500000 	cmp	r0, #0
2ffe945c:	1a000002 	bne	2ffe946c <console_stm32_flush+0x14>
2ffe9460:	e59f000c 	ldr	r0, [pc, #12]	@ 2ffe9474 <console_stm32_flush+0x1c>
2ffe9464:	e3a010ff 	mov	r1, #255	@ 0xff
2ffe9468:	eaffff4e 	b	2ffe91a8 <asm_assert>
2ffe946c:	e5900010 	ldr	r0, [r0, #16]
2ffe9470:	eaffffeb 	b	2ffe9424 <console_stm32_core_flush>
2ffe9474:	2fff9337 	.word	0x2fff9337

2ffe9478 <flush_dcache_range>:
2ffe9478:	e3510000 	cmp	r1, #0
2ffe947c:	0a00000b 	beq	2ffe94b0 <exit_loop_cimvac>
2ffe9480:	ee103f30 	mrc	15, 0, r3, cr0, cr0, {1}
2ffe9484:	e7e33853 	ubfx	r3, r3, #16, #4
2ffe9488:	e3a02004 	mov	r2, #4
2ffe948c:	e1a02312 	lsl	r2, r2, r3
2ffe9490:	e0801001 	add	r1, r0, r1
2ffe9494:	e2423001 	sub	r3, r2, #1
2ffe9498:	e1c00003 	bic	r0, r0, r3

2ffe949c <loop_cimvac>:
2ffe949c:	ee070f3e 	mcr	15, 0, r0, cr7, cr14, {1}
2ffe94a0:	e0800002 	add	r0, r0, r2
2ffe94a4:	e1500001 	cmp	r0, r1
2ffe94a8:	3afffffb 	bcc	2ffe949c <loop_cimvac>
2ffe94ac:	f57ff04f 	dsb	sy

2ffe94b0 <exit_loop_cimvac>:
2ffe94b0:	e12fff1e 	bx	lr

2ffe94b4 <clean_dcache_range>:
2ffe94b4:	e3510000 	cmp	r1, #0
2ffe94b8:	0a00000b 	beq	2ffe94ec <exit_loop_cmvac>
2ffe94bc:	ee103f30 	mrc	15, 0, r3, cr0, cr0, {1}
2ffe94c0:	e7e33853 	ubfx	r3, r3, #16, #4
2ffe94c4:	e3a02004 	mov	r2, #4
2ffe94c8:	e1a02312 	lsl	r2, r2, r3
2ffe94cc:	e0801001 	add	r1, r0, r1
2ffe94d0:	e2423001 	sub	r3, r2, #1
2ffe94d4:	e1c00003 	bic	r0, r0, r3

2ffe94d8 <loop_cmvac>:
2ffe94d8:	ee070f3a 	mcr	15, 0, r0, cr7, cr10, {1}
2ffe94dc:	e0800002 	add	r0, r0, r2
2ffe94e0:	e1500001 	cmp	r0, r1
2ffe94e4:	3afffffb 	bcc	2ffe94d8 <loop_cmvac>
2ffe94e8:	f57ff04f 	dsb	sy

2ffe94ec <exit_loop_cmvac>:
2ffe94ec:	e12fff1e 	bx	lr

2ffe94f0 <inv_dcache_range>:
2ffe94f0:	e3510000 	cmp	r1, #0
2ffe94f4:	0a00000b 	beq	2ffe9528 <exit_loop_imvac>
2ffe94f8:	ee103f30 	mrc	15, 0, r3, cr0, cr0, {1}
2ffe94fc:	e7e33853 	ubfx	r3, r3, #16, #4
2ffe9500:	e3a02004 	mov	r2, #4
2ffe9504:	e1a02312 	lsl	r2, r2, r3
2ffe9508:	e0801001 	add	r1, r0, r1
2ffe950c:	e2423001 	sub	r3, r2, #1
2ffe9510:	e1c00003 	bic	r0, r0, r3

2ffe9514 <loop_imvac>:
2ffe9514:	ee070f36 	mcr	15, 0, r0, cr7, cr6, {1}
2ffe9518:	e0800002 	add	r0, r0, r2
2ffe951c:	e1500001 	cmp	r0, r1
2ffe9520:	3afffffb 	bcc	2ffe9514 <loop_imvac>
2ffe9524:	f57ff04f 	dsb	sy

2ffe9528 <exit_loop_imvac>:
2ffe9528:	e12fff1e 	bx	lr

2ffe952c <do_dcsw_op>:
2ffe952c:	e92d5ff0 	push	{r4, r5, r6, r7, r8, r9, sl, fp, ip, lr}
2ffe9530:	ee108fd2 	mrc	15, 0, r8, cr0, cr2, {6}
2ffe9534:	e7e38c58 	ubfx	r8, r8, #24, #4
2ffe9538:	e28fb09c 	add	fp, pc, #156	@ 0x9c
2ffe953c:	e08b6180 	add	r6, fp, r0, lsl #3

2ffe9540 <loop1>:
2ffe9540:	e081a0a1 	add	sl, r1, r1, lsr #1
2ffe9544:	e1a0ca32 	lsr	ip, r2, sl
2ffe9548:	e20cc007 	and	ip, ip, #7
2ffe954c:	e35c0002 	cmp	ip, #2
2ffe9550:	3a000018 	bcc	2ffe95b8 <level_done>
2ffe9554:	ee401f10 	mcr	15, 2, r1, cr0, cr0, {0}
2ffe9558:	f57ff06f 	isb	sy
2ffe955c:	ee30cf10 	mrc	15, 1, ip, cr0, cr0, {0}
2ffe9560:	e20ca007 	and	sl, ip, #7
2ffe9564:	e28aa004 	add	sl, sl, #4
2ffe9568:	e3580000 	cmp	r8, #0
2ffe956c:	0a000001 	beq	2ffe9578 <loop1+0x38>
2ffe9570:	e7f441dc 	ubfx	r4, ip, #3, #21
2ffe9574:	ea000000 	b	2ffe957c <loop1+0x3c>
2ffe9578:	e7e941dc 	ubfx	r4, ip, #3, #10
2ffe957c:	e16f5f14 	clz	r5, r4
2ffe9580:	e1a09004 	mov	r9, r4

2ffe9584 <loop2>:
2ffe9584:	e3580000 	cmp	r8, #0
2ffe9588:	0a000002 	beq	2ffe9598 <loop2+0x14>
2ffe958c:	ee30cf50 	mrc	15, 1, ip, cr0, cr0, {2}
2ffe9590:	e7f7705c 	ubfx	r7, ip, #0, #24
2ffe9594:	ea000000 	b	2ffe959c <loop3>
2ffe9598:	e7ee76dc 	ubfx	r7, ip, #13, #15

2ffe959c <loop3>:
2ffe959c:	e1810519 	orr	r0, r1, r9, lsl r5
2ffe95a0:	e1800a17 	orr	r0, r0, r7, lsl sl
2ffe95a4:	e12fff36 	blx	r6
2ffe95a8:	e2577001 	subs	r7, r7, #1
2ffe95ac:	2afffffa 	bcs	2ffe959c <loop3>
2ffe95b0:	e2599001 	subs	r9, r9, #1
2ffe95b4:	2afffff2 	bcs	2ffe9584 <loop2>

2ffe95b8 <level_done>:
2ffe95b8:	e2811002 	add	r1, r1, #2
2ffe95bc:	e1530001 	cmp	r3, r1
2ffe95c0:	f57ff04f 	dsb	sy
2ffe95c4:	8affffdd 	bhi	2ffe9540 <loop1>
2ffe95c8:	e3a06000 	mov	r6, #0
2ffe95cc:	ee406f10 	mcr	15, 2, r6, cr0, cr0, {0}
2ffe95d0:	f57ff04f 	dsb	sy
2ffe95d4:	f57ff06f 	isb	sy
2ffe95d8:	e8bd9ff0 	pop	{r4, r5, r6, r7, r8, r9, sl, fp, ip, pc}

2ffe95dc <dcsw_loop_table>:
2ffe95dc:	ee070f56 	mcr	15, 0, r0, cr7, cr6, {2}
2ffe95e0:	e12fff1e 	bx	lr
2ffe95e4:	ee070f5e 	mcr	15, 0, r0, cr7, cr14, {2}
2ffe95e8:	e12fff1e 	bx	lr
2ffe95ec:	ee070f5a 	mcr	15, 0, r0, cr7, cr10, {2}
2ffe95f0:	e12fff1e 	bx	lr

2ffe95f4 <dcsw_op_all>:
2ffe95f4:	ee302f30 	mrc	15, 1, r2, cr0, cr0, {1}
2ffe95f8:	e7e23c52 	ubfx	r3, r2, #24, #3
2ffe95fc:	e1a03083 	lsl	r3, r3, #1
2ffe9600:	e3a01000 	mov	r1, #0
2ffe9604:	eaffffc8 	b	2ffe952c <do_dcsw_op>

2ffe9608 <zero_normalmem>:
2ffe9608:	e3a02000 	mov	r2, #0
2ffe960c:	e0801001 	add	r1, r0, r1
2ffe9610:	e3100007 	tst	r0, #7
2ffe9614:	0a000007 	beq	2ffe9638 <zero_normalmem+0x30>
2ffe9618:	e380c007 	orr	ip, r0, #7
2ffe961c:	e29cc001 	adds	ip, ip, #1
2ffe9620:	0a00000b 	beq	2ffe9654 <zero_normalmem+0x4c>
2ffe9624:	e15c0001 	cmp	ip, r1
2ffe9628:	2a000009 	bcs	2ffe9654 <zero_normalmem+0x4c>
2ffe962c:	e4c02001 	strb	r2, [r0], #1
2ffe9630:	e150000c 	cmp	r0, ip
2ffe9634:	1afffffc 	bne	2ffe962c <zero_normalmem+0x24>
2ffe9638:	e3c1c007 	bic	ip, r1, #7
2ffe963c:	e150000c 	cmp	r0, ip
2ffe9640:	2a000003 	bcs	2ffe9654 <zero_normalmem+0x4c>
2ffe9644:	e3a03000 	mov	r3, #0
2ffe9648:	e8a0000c 	stmia	r0!, {r2, r3}
2ffe964c:	e150000c 	cmp	r0, ip
2ffe9650:	3afffffc 	bcc	2ffe9648 <zero_normalmem+0x40>
2ffe9654:	e1500001 	cmp	r0, r1
2ffe9658:	0a000002 	beq	2ffe9668 <zero_normalmem+0x60>
2ffe965c:	e4c02001 	strb	r2, [r0], #1
2ffe9660:	e1500001 	cmp	r0, r1
2ffe9664:	1afffffc 	bne	2ffe965c <zero_normalmem+0x54>
2ffe9668:	e12fff1e 	bx	lr

2ffe966c <disable_mmu_secure>:
2ffe966c:	e3a01005 	mov	r1, #5

2ffe9670 <do_disable_mmu>:
2ffe9670:	ee110f10 	mrc	15, 0, r0, cr1, cr0, {0}
2ffe9674:	e1c00001 	bic	r0, r0, r1
2ffe9678:	ee010f10 	mcr	15, 0, r0, cr1, cr0, {0}
2ffe967c:	f57ff06f 	isb	sy
2ffe9680:	f57ff04f 	dsb	sy
2ffe9684:	e12fff1e 	bx	lr

2ffe9688 <disable_mmu_icache_secure>:
2ffe9688:	e51f1000 	ldr	r1, [pc, #-0]	@ 2ffe9690 <disable_mmu_icache_secure+0x8>
2ffe968c:	eafffff7 	b	2ffe9670 <do_disable_mmu>
2ffe9690:	00001005 	.word	0x00001005

2ffe9694 <cortex_a7_enable_smp>:
2ffe9694:	ee110f30 	mrc	15, 0, r0, cr1, cr0, {1}
2ffe9698:	e3800040 	orr	r0, r0, #64	@ 0x40
2ffe969c:	ee010f30 	mcr	15, 0, r0, cr1, cr0, {1}
2ffe96a0:	f57ff06f 	isb	sy
2ffe96a4:	e12fff1e 	bx	lr

2ffe96a8 <cortex_a7_reset_func>:
2ffe96a8:	eafffff9 	b	2ffe9694 <cortex_a7_enable_smp>

2ffe96ac <reset_handler>:
2ffe96ac:	e1a0800e 	mov	r8, lr
2ffe96b0:	eb0000bd 	bl	2ffe99ac <plat_reset_handler>
2ffe96b4:	eb00000a 	bl	2ffe96e4 <get_cpu_ops_ptr>
2ffe96b8:	e3500000 	cmp	r0, #0
2ffe96bc:	1a000002 	bne	2ffe96cc <reset_handler+0x20>
2ffe96c0:	e59f0018 	ldr	r0, [pc, #24]	@ 2ffe96e0 <reset_handler+0x34>
2ffe96c4:	e3a01025 	mov	r1, #37	@ 0x25
2ffe96c8:	eafffeb6 	b	2ffe91a8 <asm_assert>
2ffe96cc:	e5901004 	ldr	r1, [r0, #4]
2ffe96d0:	e3510000 	cmp	r1, #0
2ffe96d4:	e1a0e008 	mov	lr, r8
2ffe96d8:	112fff11 	bxne	r1
2ffe96dc:	e12fff1e 	bx	lr
2ffe96e0:	2fff935f 	.word	0x2fff935f

2ffe96e4 <get_cpu_ops_ptr>:
2ffe96e4:	e59f4044 	ldr	r4, [pc, #68]	@ 2ffe9730 <error_exit+0x4>
2ffe96e8:	e59f5044 	ldr	r5, [pc, #68]	@ 2ffe9734 <error_exit+0x8>
2ffe96ec:	e3a00000 	mov	r0, #0
2ffe96f0:	ee102f10 	mrc	15, 0, r2, cr0, cr0, {0}
2ffe96f4:	e59f303c 	ldr	r3, [pc, #60]	@ 2ffe9738 <error_exit+0xc>
2ffe96f8:	e0022003 	and	r2, r2, r3
2ffe96fc:	e1540005 	cmp	r4, r5
2ffe9700:	2a000009 	bcs	2ffe972c <error_exit>
2ffe9704:	e4941010 	ldr	r1, [r4], #16
2ffe9708:	e0011003 	and	r1, r1, r3
2ffe970c:	e1510002 	cmp	r1, r2
2ffe9710:	1afffff9 	bne	2ffe96fc <get_cpu_ops_ptr+0x18>
2ffe9714:	e2440010 	sub	r0, r4, #16
2ffe9718:	e3500000 	cmp	r0, #0
2ffe971c:	1a000002 	bne	2ffe972c <error_exit>
2ffe9720:	e59f0014 	ldr	r0, [pc, #20]	@ 2ffe973c <error_exit+0x10>
2ffe9724:	e3a0109d 	mov	r1, #157	@ 0x9d
2ffe9728:	eafffe9e 	b	2ffe91a8 <asm_assert>

2ffe972c <error_exit>:
2ffe972c:	e12fff1e 	bx	lr
2ffe9730:	2fff9468 	.word	0x2fff9468
2ffe9734:	2fff9478 	.word	0x2fff9478
2ffe9738:	ff00fff0 	.word	0xff00fff0
2ffe973c:	2fff935f 	.word	0x2fff935f

2ffe9740 <spin_lock>:
2ffe9740:	e3a02001 	mov	r2, #1
2ffe9744:	e1901f9f 	ldrex	r1, [r0]
2ffe9748:	e3510000 	cmp	r1, #0
2ffe974c:	1320f002 	wfene
2ffe9750:	01801f92 	strexeq	r1, r2, [r0]
2ffe9754:	03510000 	cmpeq	r1, #0
2ffe9758:	1afffff9 	bne	2ffe9744 <spin_lock+0x4>
2ffe975c:	f57ff05f 	dmb	sy
2ffe9760:	e12fff1e 	bx	lr

2ffe9764 <spin_unlock>:
2ffe9764:	e3a01000 	mov	r1, #0
2ffe9768:	f57ff05f 	dmb	sy
2ffe976c:	e5801000 	str	r1, [r0]
2ffe9770:	f57ff04f 	dsb	sy
2ffe9774:	e320f004 	sev
2ffe9778:	e12fff1e 	bx	lr

2ffe977c <enable_mmu_direct_svc_mon>:
2ffe977c:	ee111f10 	mrc	15, 0, r1, cr1, cr0, {0}
2ffe9780:	e3110001 	tst	r1, #1
2ffe9784:	0a000002 	beq	2ffe9794 <enable_mmu_direct_svc_mon+0x18>
2ffe9788:	e59f0060 	ldr	r0, [pc, #96]	@ 2ffe97f0 <enable_mmu_direct_svc_mon+0x74>
2ffe978c:	e3a01014 	mov	r1, #20
2ffe9790:	eafffe84 	b	2ffe91a8 <asm_assert>
2ffe9794:	ee080f17 	mcr	15, 0, r0, cr8, cr7, {0}
2ffe9798:	e1a03000 	mov	r3, r0
2ffe979c:	e59f0050 	ldr	r0, [pc, #80]	@ 2ffe97f4 <enable_mmu_direct_svc_mon+0x78>
2ffe97a0:	e5901000 	ldr	r1, [r0]
2ffe97a4:	ee0a1f12 	mcr	15, 0, r1, cr10, cr2, {0}
2ffe97a8:	e5902008 	ldr	r2, [r0, #8]
2ffe97ac:	ee022f50 	mcr	15, 0, r2, cr2, cr0, {2}
2ffe97b0:	e5901010 	ldr	r1, [r0, #16]
2ffe97b4:	e5902014 	ldr	r2, [r0, #20]
2ffe97b8:	ec421f02 	mcrr	15, 0, r1, r2, cr2
2ffe97bc:	e3a01000 	mov	r1, #0
2ffe97c0:	e3a02000 	mov	r2, #0
2ffe97c4:	ec421f12 	mcrr	15, 1, r1, r2, cr2
2ffe97c8:	f57ff04b 	dsb	ish
2ffe97cc:	f57ff06f 	isb	sy
2ffe97d0:	ee111f10 	mrc	15, 0, r1, cr1, cr0, {0}
2ffe97d4:	e59f201c 	ldr	r2, [pc, #28]	@ 2ffe97f8 <enable_mmu_direct_svc_mon+0x7c>
2ffe97d8:	e1811002 	orr	r1, r1, r2
2ffe97dc:	e3130001 	tst	r3, #1
2ffe97e0:	13c11004 	bicne	r1, r1, #4
2ffe97e4:	ee011f10 	mcr	15, 0, r1, cr1, cr0, {0}
2ffe97e8:	f57ff06f 	isb	sy
2ffe97ec:	e12fff1e 	bx	lr
2ffe97f0:	2fff937e 	.word	0x2fff937e
2ffe97f4:	2fffb370 	.word	0x2fffb370
2ffe97f8:	00080005 	.word	0x00080005

2ffe97fc <plat_set_my_stack>:
2ffe97fc:	e59f0004 	ldr	r0, [pc, #4]	@ 2ffe9808 <plat_set_my_stack+0xc>
2ffe9800:	e1a0d000 	mov	sp, r0
2ffe9804:	e12fff1e 	bx	lr
2ffe9808:	2fffb200 	.word	0x2fffb200

2ffe980c <stm32_pwr_down_wfi_wrapper>:
2ffe980c:	e92d4070 	push	{r4, r5, r6, lr}
2ffe9810:	e1a02000 	mov	r2, r0
2ffe9814:	e1a03001 	mov	r3, r1
2ffe9818:	e59f1060 	ldr	r1, [pc, #96]	@ 2ffe9880 <stm32_pwr_down_wfi_wrapper+0x74>
2ffe981c:	e581d000 	str	sp, [r1]
2ffe9820:	e59f105c 	ldr	r1, [pc, #92]	@ 2ffe9884 <stm32_pwr_down_wfi_wrapper+0x78>
2ffe9824:	ee1c0f10 	mrc	15, 0, r0, cr12, cr0, {0}
2ffe9828:	e5810000 	str	r0, [r1]
2ffe982c:	e59f1054 	ldr	r1, [pc, #84]	@ 2ffe9888 <stm32_pwr_down_wfi_wrapper+0x7c>
2ffe9830:	ee1c0f30 	mrc	15, 0, r0, cr12, cr0, {1}
2ffe9834:	e5810000 	str	r0, [r1]
2ffe9838:	e59f104c 	ldr	r1, [pc, #76]	@ 2ffe988c <stm32_pwr_down_wfi_wrapper+0x80>
2ffe983c:	ee0c1f10 	mcr	15, 0, r1, cr12, cr0, {0}
2ffe9840:	ee0c1f30 	mcr	15, 0, r1, cr12, cr0, {1}
2ffe9844:	e59fd044 	ldr	sp, [pc, #68]	@ 2ffe9890 <stm32_pwr_down_wfi_wrapper+0x84>
2ffe9848:	e1a00002 	mov	r0, r2
2ffe984c:	e1a01003 	mov	r1, r3
2ffe9850:	fa0023eb 	blx	2fff2804 <stm32_pwr_down_wfi_load>
2ffe9854:	e59f1024 	ldr	r1, [pc, #36]	@ 2ffe9880 <stm32_pwr_down_wfi_wrapper+0x74>
2ffe9858:	e591d000 	ldr	sp, [r1]
2ffe985c:	e59f1020 	ldr	r1, [pc, #32]	@ 2ffe9884 <stm32_pwr_down_wfi_wrapper+0x78>
2ffe9860:	e5910000 	ldr	r0, [r1]
2ffe9864:	ee0c0f10 	mcr	15, 0, r0, cr12, cr0, {0}
2ffe9868:	e59f1018 	ldr	r1, [pc, #24]	@ 2ffe9888 <stm32_pwr_down_wfi_wrapper+0x7c>
2ffe986c:	e5910000 	ldr	r0, [r1]
2ffe9870:	ee0c0f30 	mcr	15, 0, r0, cr12, cr0, {1}
2ffe9874:	f57ff04f 	dsb	sy
2ffe9878:	f57ff06f 	isb	sy
2ffe987c:	e8bd8070 	pop	{r4, r5, r6, pc}
2ffe9880:	2fffa5c0 	.word	0x2fffa5c0
2ffe9884:	2fffa5c4 	.word	0x2fffa5c4
2ffe9888:	2fffa5c8 	.word	0x2fffa5c8
2ffe988c:	2fff9480 	.word	0x2fff9480
2ffe9890:	2fffb200 	.word	0x2fffb200

2ffe9894 <platform_mem_init>:
2ffe9894:	e12fff1e 	bx	lr

2ffe9898 <plat_report_exception>:
2ffe9898:	e1a0800e 	mov	r8, lr
2ffe989c:	e3500017 	cmp	r0, #23
2ffe98a0:	0a000010 	beq	2ffe98e8 <print_exception_info+0xc>
2ffe98a4:	e350001b 	cmp	r0, #27
2ffe98a8:	1a000003 	bne	2ffe98bc <other_exception_lbl>
2ffe98ac:	e59f4038 	ldr	r4, [pc, #56]	@ 2ffe98ec <print_exception_info+0x10>
2ffe98b0:	ebfffe5b 	bl	2ffe9224 <asm_print_str>
2ffe98b4:	e1064300 	mrs	r4, LR_und
2ffe98b8:	ea000007 	b	2ffe98dc <print_exception_info>

2ffe98bc <other_exception_lbl>:
2ffe98bc:	e1a09000 	mov	r9, r0
2ffe98c0:	e59f4028 	ldr	r4, [pc, #40]	@ 2ffe98f0 <print_exception_info+0x14>
2ffe98c4:	ebfffe56 	bl	2ffe9224 <asm_print_str>
2ffe98c8:	e1a04009 	mov	r4, r9
2ffe98cc:	ebfffe5b 	bl	2ffe9240 <asm_print_hex>
2ffe98d0:	e59f401c 	ldr	r4, [pc, #28]	@ 2ffe98f4 <print_exception_info+0x18>
2ffe98d4:	ebfffe52 	bl	2ffe9224 <asm_print_str>
2ffe98d8:	e1a04006 	mov	r4, r6

2ffe98dc <print_exception_info>:
2ffe98dc:	ebfffe57 	bl	2ffe9240 <asm_print_hex>
2ffe98e0:	e59f4010 	ldr	r4, [pc, #16]	@ 2ffe98f8 <print_exception_info+0x1c>
2ffe98e4:	ebfffe4e 	bl	2ffe9224 <asm_print_str>
2ffe98e8:	e12fff18 	bx	r8
2ffe98ec:	2fff93d0 	.word	0x2fff93d0
2ffe98f0:	2fff93ee 	.word	0x2fff93ee
2ffe98f4:	2fff9401 	.word	0x2fff9401
2ffe98f8:	2fff9435 	.word	0x2fff9435

2ffe98fc <plat_report_prefetch_abort>:
2ffe98fc:	e1a0800e 	mov	r8, lr
2ffe9900:	e1a09000 	mov	r9, r0
2ffe9904:	e59f4038 	ldr	r4, [pc, #56]	@ 2ffe9944 <plat_report_prefetch_abort+0x48>
2ffe9908:	ebfffe45 	bl	2ffe9224 <asm_print_str>
2ffe990c:	e1a04009 	mov	r4, r9
2ffe9910:	e2444004 	sub	r4, r4, #4
2ffe9914:	ebfffe49 	bl	2ffe9240 <asm_print_hex>
2ffe9918:	e59f4028 	ldr	r4, [pc, #40]	@ 2ffe9948 <plat_report_prefetch_abort+0x4c>
2ffe991c:	ebfffe40 	bl	2ffe9224 <asm_print_str>
2ffe9920:	ee154f30 	mrc	15, 0, r4, cr5, cr0, {1}
2ffe9924:	ebfffe45 	bl	2ffe9240 <asm_print_hex>
2ffe9928:	e59f401c 	ldr	r4, [pc, #28]	@ 2ffe994c <plat_report_prefetch_abort+0x50>
2ffe992c:	ebfffe3c 	bl	2ffe9224 <asm_print_str>
2ffe9930:	ee164f50 	mrc	15, 0, r4, cr6, cr0, {2}
2ffe9934:	ebfffe41 	bl	2ffe9240 <asm_print_hex>
2ffe9938:	e59f4010 	ldr	r4, [pc, #16]	@ 2ffe9950 <plat_report_prefetch_abort+0x54>
2ffe993c:	ebfffe38 	bl	2ffe9224 <asm_print_str>
2ffe9940:	e12fff18 	bx	r8
2ffe9944:	2fff93a6 	.word	0x2fff93a6
2ffe9948:	2fff941f 	.word	0x2fff941f
2ffe994c:	2fff942a 	.word	0x2fff942a
2ffe9950:	2fff9435 	.word	0x2fff9435

2ffe9954 <plat_report_data_abort>:
2ffe9954:	e1a0800e 	mov	r8, lr
2ffe9958:	e1a09000 	mov	r9, r0
2ffe995c:	e59f4038 	ldr	r4, [pc, #56]	@ 2ffe999c <plat_report_data_abort+0x48>
2ffe9960:	ebfffe2f 	bl	2ffe9224 <asm_print_str>
2ffe9964:	e1a04009 	mov	r4, r9
2ffe9968:	e2444008 	sub	r4, r4, #8
2ffe996c:	ebfffe33 	bl	2ffe9240 <asm_print_hex>
2ffe9970:	e59f4028 	ldr	r4, [pc, #40]	@ 2ffe99a0 <plat_report_data_abort+0x4c>
2ffe9974:	ebfffe2a 	bl	2ffe9224 <asm_print_str>
2ffe9978:	ee154f10 	mrc	15, 0, r4, cr5, cr0, {0}
2ffe997c:	ebfffe2f 	bl	2ffe9240 <asm_print_hex>
2ffe9980:	e59f401c 	ldr	r4, [pc, #28]	@ 2ffe99a4 <plat_report_data_abort+0x50>
2ffe9984:	ebfffe26 	bl	2ffe9224 <asm_print_str>
2ffe9988:	ee164f10 	mrc	15, 0, r4, cr6, cr0, {0}
2ffe998c:	ebfffe2b 	bl	2ffe9240 <asm_print_hex>
2ffe9990:	e59f4010 	ldr	r4, [pc, #16]	@ 2ffe99a8 <plat_report_data_abort+0x54>
2ffe9994:	ebfffe22 	bl	2ffe9224 <asm_print_str>
2ffe9998:	e12fff18 	bx	r8
2ffe999c:	2fff93bd 	.word	0x2fff93bd
2ffe99a0:	2fff9409 	.word	0x2fff9409
2ffe99a4:	2fff9414 	.word	0x2fff9414
2ffe99a8:	2fff9435 	.word	0x2fff9435

2ffe99ac <plat_reset_handler>:
2ffe99ac:	e12fff1e 	bx	lr

2ffe99b0 <plat_get_my_entrypoint>:
2ffe99b0:	e3a00000 	mov	r0, #0
2ffe99b4:	e12fff1e 	bx	lr

2ffe99b8 <plat_secondary_cold_boot_setup>:
2ffe99b8:	eafffffe 	b	2ffe99b8 <plat_secondary_cold_boot_setup>

2ffe99bc <plat_is_my_cpu_primary>:
2ffe99bc:	ee100fb0 	mrc	15, 0, r0, cr0, cr0, {5}
2ffe99c0:	e59f1010 	ldr	r1, [pc, #16]	@ 2ffe99d8 <plat_is_my_cpu_primary+0x1c>
2ffe99c4:	e0000001 	and	r0, r0, r1
2ffe99c8:	e3500000 	cmp	r0, #0
2ffe99cc:	03a00001 	moveq	r0, #1
2ffe99d0:	13a00000 	movne	r0, #0
2ffe99d4:	e12fff1e 	bx	lr
2ffe99d8:	0000ffff 	.word	0x0000ffff

2ffe99dc <plat_crash_console_init>:
2ffe99dc:	e59f1098 	ldr	r1, [pc, #152]	@ 2ffe9a7c <plat_crash_console_init+0xa0>
2ffe99e0:	e3a02801 	mov	r2, #65536	@ 0x10000
2ffe99e4:	e5812000 	str	r2, [r1]
2ffe99e8:	e5910000 	ldr	r0, [r1]
2ffe99ec:	e0102002 	ands	r2, r0, r2
2ffe99f0:	0afffffc 	beq	2ffe99e8 <plat_crash_console_init+0xc>
2ffe99f4:	e5812004 	str	r2, [r1, #4]
2ffe99f8:	e5910000 	ldr	r0, [r1]
2ffe99fc:	e0102002 	ands	r2, r0, r2
2ffe9a00:	1afffffc 	bne	2ffe99f8 <plat_crash_console_init+0x1c>
2ffe9a04:	e59f1074 	ldr	r1, [pc, #116]	@ 2ffe9a80 <plat_crash_console_init+0xa4>
2ffe9a08:	e5912000 	ldr	r2, [r1]
2ffe9a0c:	e3822040 	orr	r2, r2, #64	@ 0x40
2ffe9a10:	e5812000 	str	r2, [r1]
2ffe9a14:	e59f1068 	ldr	r1, [pc, #104]	@ 2ffe9a84 <plat_crash_console_init+0xa8>
2ffe9a18:	e5912000 	ldr	r2, [r1]
2ffe9a1c:	e3c22503 	bic	r2, r2, #12582912	@ 0xc00000
2ffe9a20:	e3822502 	orr	r2, r2, #8388608	@ 0x800000
2ffe9a24:	e5812000 	str	r2, [r1]
2ffe9a28:	e5912008 	ldr	r2, [r1, #8]
2ffe9a2c:	e3c22503 	bic	r2, r2, #12582912	@ 0xc00000
2ffe9a30:	e5812008 	str	r2, [r1, #8]
2ffe9a34:	e591200c 	ldr	r2, [r1, #12]
2ffe9a38:	e3c22503 	bic	r2, r2, #12582912	@ 0xc00000
2ffe9a3c:	e581200c 	str	r2, [r1, #12]
2ffe9a40:	e5912024 	ldr	r2, [r1, #36]	@ 0x24
2ffe9a44:	e3c22a0f 	bic	r2, r2, #61440	@ 0xf000
2ffe9a48:	e3822a06 	orr	r2, r2, #24576	@ 0x6000
2ffe9a4c:	e5812024 	str	r2, [r1, #36]	@ 0x24
2ffe9a50:	e59f1030 	ldr	r1, [pc, #48]	@ 2ffe9a88 <plat_crash_console_init+0xac>
2ffe9a54:	e3a02002 	mov	r2, #2
2ffe9a58:	e5812000 	str	r2, [r1]
2ffe9a5c:	e59f1028 	ldr	r1, [pc, #40]	@ 2ffe9a8c <plat_crash_console_init+0xb0>
2ffe9a60:	e5912000 	ldr	r2, [r1]
2ffe9a64:	e3822801 	orr	r2, r2, #65536	@ 0x10000
2ffe9a68:	e5812000 	str	r2, [r1]
2ffe9a6c:	e59f001c 	ldr	r0, [pc, #28]	@ 2ffe9a90 <plat_crash_console_init+0xb4>
2ffe9a70:	e59f101c 	ldr	r1, [pc, #28]	@ 2ffe9a94 <plat_crash_console_init+0xb8>
2ffe9a74:	e59f201c 	ldr	r2, [pc, #28]	@ 2ffe9a98 <plat_crash_console_init+0xbc>
2ffe9a78:	eafffe19 	b	2ffe92e4 <console_stm32_core_init>
2ffe9a7c:	50000980 	.word	0x50000980
2ffe9a80:	50000a28 	.word	0x50000a28
2ffe9a84:	50008000 	.word	0x50008000
2ffe9a88:	500008e8 	.word	0x500008e8
2ffe9a8c:	50000a00 	.word	0x50000a00
2ffe9a90:	40010000 	.word	0x40010000
2ffe9a94:	03d09000 	.word	0x03d09000
2ffe9a98:	0001c200 	.word	0x0001c200

2ffe9a9c <plat_crash_console_flush>:
2ffe9a9c:	e51f0000 	ldr	r0, [pc, #-0]	@ 2ffe9aa4 <plat_crash_console_flush+0x8>
2ffe9aa0:	eafffe5f 	b	2ffe9424 <console_stm32_core_flush>
2ffe9aa4:	40010000 	.word	0x40010000

2ffe9aa8 <plat_crash_console_putc>:
2ffe9aa8:	e51f1000 	ldr	r1, [pc, #-0]	@ 2ffe9ab0 <plat_crash_console_putc+0x8>
2ffe9aac:	eafffe4b 	b	2ffe93e0 <console_stm32_core_putc>
2ffe9ab0:	40010000 	.word	0x40010000

2ffe9ab4 <plat_panic_handler>:
2ffe9ab4:	e10f0000 	mrs	r0, CPSR
2ffe9ab8:	e200001f 	and	r0, r0, #31
2ffe9abc:	ebffff75 	bl	2ffe9898 <plat_report_exception>
2ffe9ac0:	e1a0e006 	mov	lr, r6
2ffe9ac4:	eafffffe 	b	2ffe9ac4 <plat_panic_handler+0x10>

2ffe9ac8 <bl2_load_images>:
2ffe9ac8:	e92d 43f8 	stmdb	sp!, {r3, r4, r5, r6, r7, r8, r9, lr}
2ffe9acc:	f00a fd2d 	bl	2fff452a <plat_get_bl_image_load_info>
2ffe9ad0:	b918      	cbnz	r0, 2ffe9ada <bl2_load_images+0x12>
2ffe9ad2:	2125      	movs	r1, #37	@ 0x25
2ffe9ad4:	483a      	ldr	r0, [pc, #232]	@ (2ffe9bc0 <bl2_load_images+0xf8>)
2ffe9ad6:	f009 fb5f 	bl	2fff3198 <__assert>
2ffe9ada:	6884      	ldr	r4, [r0, #8]
2ffe9adc:	b90c      	cbnz	r4, 2ffe9ae2 <bl2_load_images+0x1a>
2ffe9ade:	2126      	movs	r1, #38	@ 0x26
2ffe9ae0:	e7f8      	b.n	2ffe9ad4 <bl2_load_images+0xc>
2ffe9ae2:	7803      	ldrb	r3, [r0, #0]
2ffe9ae4:	2b04      	cmp	r3, #4
2ffe9ae6:	d001      	beq.n	2ffe9aec <bl2_load_images+0x24>
2ffe9ae8:	2127      	movs	r1, #39	@ 0x27
2ffe9aea:	e7f3      	b.n	2ffe9ad4 <bl2_load_images+0xc>
2ffe9aec:	7843      	ldrb	r3, [r0, #1]
2ffe9aee:	2b01      	cmp	r3, #1
2ffe9af0:	d801      	bhi.n	2ffe9af6 <bl2_load_images+0x2e>
2ffe9af2:	2128      	movs	r1, #40	@ 0x28
2ffe9af4:	e7ee      	b.n	2ffe9ad4 <bl2_load_images+0xc>
2ffe9af6:	4f33      	ldr	r7, [pc, #204]	@ (2ffe9bc4 <bl2_load_images+0xfc>)
2ffe9af8:	2600      	movs	r6, #0
2ffe9afa:	f8df 80cc 	ldr.w	r8, [pc, #204]	@ 2ffe9bc8 <bl2_load_images+0x100>
2ffe9afe:	f8df 90cc 	ldr.w	r9, [pc, #204]	@ 2ffe9bcc <bl2_load_images+0x104>
2ffe9b02:	6863      	ldr	r3, [r4, #4]
2ffe9b04:	685b      	ldr	r3, [r3, #4]
2ffe9b06:	075a      	lsls	r2, r3, #29
2ffe9b08:	d504      	bpl.n	2ffe9b14 <bl2_load_images+0x4c>
2ffe9b0a:	b16e      	cbz	r6, 2ffe9b28 <bl2_load_images+0x60>
2ffe9b0c:	4640      	mov	r0, r8
2ffe9b0e:	f000 fb8d 	bl	2ffea22c <tf_log>
2ffe9b12:	2601      	movs	r6, #1
2ffe9b14:	6820      	ldr	r0, [r4, #0]
2ffe9b16:	f007 fbeb 	bl	2fff12f0 <bl2_plat_handle_pre_image_load>
2ffe9b1a:	4605      	mov	r5, r0
2ffe9b1c:	b150      	cbz	r0, 2ffe9b34 <bl2_load_images+0x6c>
2ffe9b1e:	4601      	mov	r1, r0
2ffe9b20:	482b      	ldr	r0, [pc, #172]	@ (2ffe9bd0 <bl2_load_images+0x108>)
2ffe9b22:	f000 fb83 	bl	2ffea22c <tf_log>
2ffe9b26:	e018      	b.n	2ffe9b5a <bl2_load_images+0x92>
2ffe9b28:	4638      	mov	r0, r7
2ffe9b2a:	f000 fb7f 	bl	2ffea22c <tf_log>
2ffe9b2e:	f008 f9fd 	bl	2fff1f2c <bl2_platform_setup>
2ffe9b32:	e7ee      	b.n	2ffe9b12 <bl2_load_images+0x4a>
2ffe9b34:	e9d4 1300 	ldrd	r1, r3, [r4]
2ffe9b38:	685b      	ldr	r3, [r3, #4]
2ffe9b3a:	079b      	lsls	r3, r3, #30
2ffe9b3c:	d410      	bmi.n	2ffe9b60 <bl2_load_images+0x98>
2ffe9b3e:	4825      	ldr	r0, [pc, #148]	@ (2ffe9bd4 <bl2_load_images+0x10c>)
2ffe9b40:	f000 fb74 	bl	2ffea22c <tf_log>
2ffe9b44:	e9d4 0100 	ldrd	r0, r1, [r4]
2ffe9b48:	f000 f874 	bl	2ffe9c34 <load_auth_image>
2ffe9b4c:	4605      	mov	r5, r0
2ffe9b4e:	b150      	cbz	r0, 2ffe9b66 <bl2_load_images+0x9e>
2ffe9b50:	6821      	ldr	r1, [r4, #0]
2ffe9b52:	4602      	mov	r2, r0
2ffe9b54:	4820      	ldr	r0, [pc, #128]	@ (2ffe9bd8 <bl2_load_images+0x110>)
2ffe9b56:	f000 fb69 	bl	2ffea22c <tf_log>
2ffe9b5a:	4628      	mov	r0, r5
2ffe9b5c:	f00a fcd7 	bl	2fff450e <plat_error_handler>
2ffe9b60:	4648      	mov	r0, r9
2ffe9b62:	f000 fb63 	bl	2ffea22c <tf_log>
2ffe9b66:	6820      	ldr	r0, [r4, #0]
2ffe9b68:	f008 fc0a 	bl	2fff2380 <bl2_plat_handle_post_image_load>
2ffe9b6c:	4605      	mov	r5, r0
2ffe9b6e:	b110      	cbz	r0, 2ffe9b76 <bl2_load_images+0xae>
2ffe9b70:	4601      	mov	r1, r0
2ffe9b72:	481a      	ldr	r0, [pc, #104]	@ (2ffe9bdc <bl2_load_images+0x114>)
2ffe9b74:	e7d5      	b.n	2ffe9b22 <bl2_load_images+0x5a>
2ffe9b76:	68a4      	ldr	r4, [r4, #8]
2ffe9b78:	2c00      	cmp	r4, #0
2ffe9b7a:	d1c2      	bne.n	2ffe9b02 <bl2_load_images+0x3a>
2ffe9b7c:	f00a fcd7 	bl	2fff452e <plat_get_next_bl_params>
2ffe9b80:	4604      	mov	r4, r0
2ffe9b82:	b908      	cbnz	r0, 2ffe9b88 <bl2_load_images+0xc0>
2ffe9b84:	215f      	movs	r1, #95	@ 0x5f
2ffe9b86:	e7a5      	b.n	2ffe9ad4 <bl2_load_images+0xc>
2ffe9b88:	6883      	ldr	r3, [r0, #8]
2ffe9b8a:	b90b      	cbnz	r3, 2ffe9b90 <bl2_load_images+0xc8>
2ffe9b8c:	2160      	movs	r1, #96	@ 0x60
2ffe9b8e:	e7a1      	b.n	2ffe9ad4 <bl2_load_images+0xc>
2ffe9b90:	7802      	ldrb	r2, [r0, #0]
2ffe9b92:	2a05      	cmp	r2, #5
2ffe9b94:	d001      	beq.n	2ffe9b9a <bl2_load_images+0xd2>
2ffe9b96:	2161      	movs	r1, #97	@ 0x61
2ffe9b98:	e79c      	b.n	2ffe9ad4 <bl2_load_images+0xc>
2ffe9b9a:	7842      	ldrb	r2, [r0, #1]
2ffe9b9c:	2a01      	cmp	r2, #1
2ffe9b9e:	d801      	bhi.n	2ffe9ba4 <bl2_load_images+0xdc>
2ffe9ba0:	2162      	movs	r1, #98	@ 0x62
2ffe9ba2:	e797      	b.n	2ffe9ad4 <bl2_load_images+0xc>
2ffe9ba4:	689b      	ldr	r3, [r3, #8]
2ffe9ba6:	b90b      	cbnz	r3, 2ffe9bac <bl2_load_images+0xe4>
2ffe9ba8:	2163      	movs	r1, #99	@ 0x63
2ffe9baa:	e793      	b.n	2ffe9ad4 <bl2_load_images+0xc>
2ffe9bac:	695a      	ldr	r2, [r3, #20]
2ffe9bae:	b902      	cbnz	r2, 2ffe9bb2 <bl2_load_images+0xea>
2ffe9bb0:	6158      	str	r0, [r3, #20]
2ffe9bb2:	f00a fcb8 	bl	2fff4526 <plat_flush_next_bl_params>
2ffe9bb6:	68a3      	ldr	r3, [r4, #8]
2ffe9bb8:	6898      	ldr	r0, [r3, #8]
2ffe9bba:	e8bd 83f8 	ldmia.w	sp!, {r3, r4, r5, r6, r7, r8, r9, pc}
2ffe9bbe:	bf00      	nop
2ffe9bc0:	2fff6463 	.word	0x2fff6463
2ffe9bc4:	2fff64a0 	.word	0x2fff64a0
2ffe9bc8:	2fff647b 	.word	0x2fff647b
2ffe9bcc:	2fff652d 	.word	0x2fff652d
2ffe9bd0:	2fff64bc 	.word	0x2fff64bc
2ffe9bd4:	2fff64eb 	.word	0x2fff64eb
2ffe9bd8:	2fff6506 	.word	0x2fff6506
2ffe9bdc:	2fff654d 	.word	0x2fff654d

2ffe9be0 <bl2_main>:
2ffe9be0:	b510      	push	{r4, lr}
2ffe9be2:	4910      	ldr	r1, [pc, #64]	@ (2ffe9c24 <bl2_main+0x44>)
2ffe9be4:	4810      	ldr	r0, [pc, #64]	@ (2ffe9c28 <bl2_main+0x48>)
2ffe9be6:	f000 fb21 	bl	2ffea22c <tf_log>
2ffe9bea:	4910      	ldr	r1, [pc, #64]	@ (2ffe9c2c <bl2_main+0x4c>)
2ffe9bec:	480e      	ldr	r0, [pc, #56]	@ (2ffe9c28 <bl2_main+0x48>)
2ffe9bee:	f000 fb1d 	bl	2ffea22c <tf_log>
2ffe9bf2:	f009 fd27 	bl	2fff3644 <bl2_arch_setup>
2ffe9bf6:	f00a fc8f 	bl	2fff4518 <plat_fwu_is_enabled>
2ffe9bfa:	b108      	cbz	r0, 2ffe9c00 <bl2_main+0x20>
2ffe9bfc:	f000 ff58 	bl	2ffeaab0 <fwu_init>
2ffe9c00:	f00a fc87 	bl	2fff4512 <bl2_plat_preload_setup>
2ffe9c04:	f7ff ff60 	bl	2ffe9ac8 <bl2_load_images>
2ffe9c08:	4604      	mov	r4, r0
2ffe9c0a:	4809      	ldr	r0, [pc, #36]	@ (2ffe9c30 <bl2_main+0x50>)
2ffe9c0c:	f000 fb0e 	bl	2ffea22c <tf_log>
2ffe9c10:	4620      	mov	r0, r4
2ffe9c12:	f000 f895 	bl	2ffe9d40 <print_entry_point_info>
2ffe9c16:	f000 fd9f 	bl	2ffea758 <console_flush>
2ffe9c1a:	4620      	mov	r0, r4
2ffe9c1c:	e8bd 4010 	ldmia.w	sp!, {r4, lr}
2ffe9c20:	f00f bc52 	b.w	2fff94c8 <__bl2_run_next_image_from_thumb>
2ffe9c24:	2fff6410 	.word	0x2fff6410
2ffe9c28:	2fff657d 	.word	0x2fff657d
2ffe9c2c:	2fff6445 	.word	0x2fff6445
2ffe9c30:	2fff6587 	.word	0x2fff6587

2ffe9c34 <load_auth_image>:
2ffe9c34:	e92d 47f0 	stmdb	sp!, {r4, r5, r6, r7, r8, r9, sl, lr}
2ffe9c38:	4605      	mov	r5, r0
2ffe9c3a:	b086      	sub	sp, #24
2ffe9c3c:	460e      	mov	r6, r1
2ffe9c3e:	b151      	cbz	r1, 2ffe9c56 <load_auth_image+0x22>
2ffe9c40:	f8df 80dc 	ldr.w	r8, [pc, #220]	@ 2ffe9d20 <load_auth_image+0xec>
2ffe9c44:	f8df 90dc 	ldr.w	r9, [pc, #220]	@ 2ffe9d24 <load_auth_image+0xf0>
2ffe9c48:	f8df a0dc 	ldr.w	sl, [pc, #220]	@ 2ffe9d28 <load_auth_image+0xf4>
2ffe9c4c:	7873      	ldrb	r3, [r6, #1]
2ffe9c4e:	2b01      	cmp	r3, #1
2ffe9c50:	d805      	bhi.n	2ffe9c5e <load_auth_image+0x2a>
2ffe9c52:	2151      	movs	r1, #81	@ 0x51
2ffe9c54:	e000      	b.n	2ffe9c58 <load_auth_image+0x24>
2ffe9c56:	2150      	movs	r1, #80	@ 0x50
2ffe9c58:	4834      	ldr	r0, [pc, #208]	@ (2ffe9d2c <load_auth_image+0xf8>)
2ffe9c5a:	f009 fa9d 	bl	2fff3198 <__assert>
2ffe9c5e:	68b7      	ldr	r7, [r6, #8]
2ffe9c60:	aa03      	add	r2, sp, #12
2ffe9c62:	a901      	add	r1, sp, #4
2ffe9c64:	4628      	mov	r0, r5
2ffe9c66:	f007 fb57 	bl	2fff1318 <plat_get_image_source>
2ffe9c6a:	4604      	mov	r4, r0
2ffe9c6c:	b168      	cbz	r0, 2ffe9c8a <load_auth_image+0x56>
2ffe9c6e:	4602      	mov	r2, r0
2ffe9c70:	4629      	mov	r1, r5
2ffe9c72:	482f      	ldr	r0, [pc, #188]	@ (2ffe9d30 <load_auth_image+0xfc>)
2ffe9c74:	f000 fada 	bl	2ffea22c <tf_log>
2ffe9c78:	4628      	mov	r0, r5
2ffe9c7a:	f00a fc4b 	bl	2fff4514 <plat_try_backup_partitions>
2ffe9c7e:	2800      	cmp	r0, #0
2ffe9c80:	d1e4      	bne.n	2ffe9c4c <load_auth_image+0x18>
2ffe9c82:	4620      	mov	r0, r4
2ffe9c84:	b006      	add	sp, #24
2ffe9c86:	e8bd 87f0 	ldmia.w	sp!, {r4, r5, r6, r7, r8, r9, sl, pc}
2ffe9c8a:	9903      	ldr	r1, [sp, #12]
2ffe9c8c:	aa02      	add	r2, sp, #8
2ffe9c8e:	9801      	ldr	r0, [sp, #4]
2ffe9c90:	f001 fa60 	bl	2ffeb154 <io_open>
2ffe9c94:	4604      	mov	r4, r0
2ffe9c96:	b118      	cbz	r0, 2ffe9ca0 <load_auth_image+0x6c>
2ffe9c98:	4602      	mov	r2, r0
2ffe9c9a:	4629      	mov	r1, r5
2ffe9c9c:	4650      	mov	r0, sl
2ffe9c9e:	e7e9      	b.n	2ffe9c74 <load_auth_image+0x40>
2ffe9ca0:	463a      	mov	r2, r7
2ffe9ca2:	4629      	mov	r1, r5
2ffe9ca4:	4640      	mov	r0, r8
2ffe9ca6:	f000 fac1 	bl	2ffea22c <tf_log>
2ffe9caa:	9802      	ldr	r0, [sp, #8]
2ffe9cac:	a904      	add	r1, sp, #16
2ffe9cae:	f001 fac1 	bl	2ffeb234 <io_size>
2ffe9cb2:	4604      	mov	r4, r0
2ffe9cb4:	b908      	cbnz	r0, 2ffe9cba <load_auth_image+0x86>
2ffe9cb6:	9a04      	ldr	r2, [sp, #16]
2ffe9cb8:	b92a      	cbnz	r2, 2ffe9cc6 <load_auth_image+0x92>
2ffe9cba:	4622      	mov	r2, r4
2ffe9cbc:	4629      	mov	r1, r5
2ffe9cbe:	4648      	mov	r0, r9
2ffe9cc0:	f000 fab4 	bl	2ffea22c <tf_log>
2ffe9cc4:	e008      	b.n	2ffe9cd8 <load_auth_image+0xa4>
2ffe9cc6:	6933      	ldr	r3, [r6, #16]
2ffe9cc8:	429a      	cmp	r2, r3
2ffe9cca:	d912      	bls.n	2ffe9cf2 <load_auth_image+0xbe>
2ffe9ccc:	4819      	ldr	r0, [pc, #100]	@ (2ffe9d34 <load_auth_image+0x100>)
2ffe9cce:	4629      	mov	r1, r5
2ffe9cd0:	f06f 041a 	mvn.w	r4, #26
2ffe9cd4:	f000 faaa 	bl	2ffea22c <tf_log>
2ffe9cd8:	9802      	ldr	r0, [sp, #8]
2ffe9cda:	f001 fae9 	bl	2ffeb2b0 <io_close>
2ffe9cde:	9801      	ldr	r0, [sp, #4]
2ffe9ce0:	f001 fa20 	bl	2ffeb124 <io_dev_close>
2ffe9ce4:	2c00      	cmp	r4, #0
2ffe9ce6:	d1c7      	bne.n	2ffe9c78 <load_auth_image+0x44>
2ffe9ce8:	68f1      	ldr	r1, [r6, #12]
2ffe9cea:	68b0      	ldr	r0, [r6, #8]
2ffe9cec:	f7ff ebc4 	blx	2ffe9478 <flush_dcache_range>
2ffe9cf0:	e7c7      	b.n	2ffe9c82 <load_auth_image+0x4e>
2ffe9cf2:	9802      	ldr	r0, [sp, #8]
2ffe9cf4:	ab05      	add	r3, sp, #20
2ffe9cf6:	60f2      	str	r2, [r6, #12]
2ffe9cf8:	4639      	mov	r1, r7
2ffe9cfa:	f001 fab5 	bl	2ffeb268 <io_read>
2ffe9cfe:	4604      	mov	r4, r0
2ffe9d00:	b918      	cbnz	r0, 2ffe9d0a <load_auth_image+0xd6>
2ffe9d02:	e9dd 3204 	ldrd	r3, r2, [sp, #16]
2ffe9d06:	429a      	cmp	r2, r3
2ffe9d08:	d203      	bcs.n	2ffe9d12 <load_auth_image+0xde>
2ffe9d0a:	480b      	ldr	r0, [pc, #44]	@ (2ffe9d38 <load_auth_image+0x104>)
2ffe9d0c:	4622      	mov	r2, r4
2ffe9d0e:	4629      	mov	r1, r5
2ffe9d10:	e7d6      	b.n	2ffe9cc0 <load_auth_image+0x8c>
2ffe9d12:	443b      	add	r3, r7
2ffe9d14:	463a      	mov	r2, r7
2ffe9d16:	4809      	ldr	r0, [pc, #36]	@ (2ffe9d3c <load_auth_image+0x108>)
2ffe9d18:	4629      	mov	r1, r5
2ffe9d1a:	f000 fa87 	bl	2ffea22c <tf_log>
2ffe9d1e:	e7db      	b.n	2ffe9cd8 <load_auth_image+0xa4>
2ffe9d20:	2fff6603 	.word	0x2fff6603
2ffe9d24:	2fff662a 	.word	0x2fff662a
2ffe9d28:	2fff65df 	.word	0x2fff65df
2ffe9d2c:	2fff659b 	.word	0x2fff659b
2ffe9d30:	2fff65ae 	.word	0x2fff65ae
2ffe9d34:	2fff6661 	.word	0x2fff6661
2ffe9d38:	2fff6682 	.word	0x2fff6682
2ffe9d3c:	2fff66a4 	.word	0x2fff66a4

2ffe9d40 <print_entry_point_info>:
2ffe9d40:	b510      	push	{r4, lr}
2ffe9d42:	4604      	mov	r4, r0
2ffe9d44:	6881      	ldr	r1, [r0, #8]
2ffe9d46:	4804      	ldr	r0, [pc, #16]	@ (2ffe9d58 <print_entry_point_info+0x18>)
2ffe9d48:	f000 fa70 	bl	2ffea22c <tf_log>
2ffe9d4c:	68e1      	ldr	r1, [r4, #12]
2ffe9d4e:	4803      	ldr	r0, [pc, #12]	@ (2ffe9d5c <print_entry_point_info+0x1c>)
2ffe9d50:	e8bd 4010 	ldmia.w	sp!, {r4, lr}
2ffe9d54:	f000 ba6a 	b.w	2ffea22c <tf_log>
2ffe9d58:	2fff66c8 	.word	0x2fff66c8
2ffe9d5c:	2fff66e6 	.word	0x2fff66e6

2ffe9d60 <flush_bl_params_desc_args>:
2ffe9d60:	b510      	push	{r4, lr}
2ffe9d62:	4614      	mov	r4, r2
2ffe9d64:	b918      	cbnz	r0, 2ffe9d6e <flush_bl_params_desc_args+0xe>
2ffe9d66:	2125      	movs	r1, #37	@ 0x25
2ffe9d68:	4809      	ldr	r0, [pc, #36]	@ (2ffe9d90 <flush_bl_params_desc_args+0x30>)
2ffe9d6a:	f009 fa15 	bl	2fff3198 <__assert>
2ffe9d6e:	b909      	cbnz	r1, 2ffe9d74 <flush_bl_params_desc_args+0x14>
2ffe9d70:	2126      	movs	r1, #38	@ 0x26
2ffe9d72:	e7f9      	b.n	2ffe9d68 <flush_bl_params_desc_args+0x8>
2ffe9d74:	b90a      	cbnz	r2, 2ffe9d7a <flush_bl_params_desc_args+0x1a>
2ffe9d76:	2127      	movs	r1, #39	@ 0x27
2ffe9d78:	e7f6      	b.n	2ffe9d68 <flush_bl_params_desc_args+0x8>
2ffe9d7a:	235c      	movs	r3, #92	@ 0x5c
2ffe9d7c:	4359      	muls	r1, r3
2ffe9d7e:	f7ff eb7c 	blx	2ffe9478 <flush_dcache_range>
2ffe9d82:	4620      	mov	r0, r4
2ffe9d84:	210c      	movs	r1, #12
2ffe9d86:	e8bd 4010 	ldmia.w	sp!, {r4, lr}
2ffe9d8a:	f00f bb99 	b.w	2fff94c0 <__flush_dcache_range_from_thumb>
2ffe9d8e:	bf00      	nop
2ffe9d90:	2fff66f4 	.word	0x2fff66f4

2ffe9d94 <flush_bl_params_desc>:
2ffe9d94:	4b03      	ldr	r3, [pc, #12]	@ (2ffe9da4 <flush_bl_params_desc+0x10>)
2ffe9d96:	4a04      	ldr	r2, [pc, #16]	@ (2ffe9da8 <flush_bl_params_desc+0x14>)
2ffe9d98:	6819      	ldr	r1, [r3, #0]
2ffe9d9a:	4b04      	ldr	r3, [pc, #16]	@ (2ffe9dac <flush_bl_params_desc+0x18>)
2ffe9d9c:	6818      	ldr	r0, [r3, #0]
2ffe9d9e:	f7ff bfdf 	b.w	2ffe9d60 <flush_bl_params_desc_args>
2ffe9da2:	bf00      	nop
2ffe9da4:	2fffa330 	.word	0x2fffa330
2ffe9da8:	2fffb388 	.word	0x2fffb388
2ffe9dac:	2fffa334 	.word	0x2fffa334

2ffe9db0 <get_bl_params_node_index>:
2ffe9db0:	b538      	push	{r3, r4, r5, lr}
2ffe9db2:	1c43      	adds	r3, r0, #1
2ffe9db4:	d00a      	beq.n	2ffe9dcc <get_bl_params_node_index+0x1c>
2ffe9db6:	4b0c      	ldr	r3, [pc, #48]	@ (2ffe9de8 <get_bl_params_node_index+0x38>)
2ffe9db8:	245c      	movs	r4, #92	@ 0x5c
2ffe9dba:	681a      	ldr	r2, [r3, #0]
2ffe9dbc:	4b0b      	ldr	r3, [pc, #44]	@ (2ffe9dec <get_bl_params_node_index+0x3c>)
2ffe9dbe:	6819      	ldr	r1, [r3, #0]
2ffe9dc0:	2300      	movs	r3, #0
2ffe9dc2:	429a      	cmp	r2, r3
2ffe9dc4:	d106      	bne.n	2ffe9dd4 <get_bl_params_node_index+0x24>
2ffe9dc6:	f04f 30ff 	mov.w	r0, #4294967295	@ 0xffffffff
2ffe9dca:	e009      	b.n	2ffe9de0 <get_bl_params_node_index+0x30>
2ffe9dcc:	4808      	ldr	r0, [pc, #32]	@ (2ffe9df0 <get_bl_params_node_index+0x40>)
2ffe9dce:	2138      	movs	r1, #56	@ 0x38
2ffe9dd0:	f009 f9e2 	bl	2fff3198 <__assert>
2ffe9dd4:	fb04 f503 	mul.w	r5, r4, r3
2ffe9dd8:	594d      	ldr	r5, [r1, r5]
2ffe9dda:	4285      	cmp	r5, r0
2ffe9ddc:	d101      	bne.n	2ffe9de2 <get_bl_params_node_index+0x32>
2ffe9dde:	4618      	mov	r0, r3
2ffe9de0:	bd38      	pop	{r3, r4, r5, pc}
2ffe9de2:	3301      	adds	r3, #1
2ffe9de4:	e7ed      	b.n	2ffe9dc2 <get_bl_params_node_index+0x12>
2ffe9de6:	bf00      	nop
2ffe9de8:	2fffa330 	.word	0x2fffa330
2ffe9dec:	2fffa334 	.word	0x2fffa334
2ffe9df0:	2fff66f4 	.word	0x2fff66f4

2ffe9df4 <get_bl_mem_params_node>:
2ffe9df4:	b508      	push	{r3, lr}
2ffe9df6:	1c43      	adds	r3, r0, #1
2ffe9df8:	d103      	bne.n	2ffe9e02 <get_bl_mem_params_node+0xe>
2ffe9dfa:	4808      	ldr	r0, [pc, #32]	@ (2ffe9e1c <get_bl_mem_params_node+0x28>)
2ffe9dfc:	214a      	movs	r1, #74	@ 0x4a
2ffe9dfe:	f009 f9cb 	bl	2fff3198 <__assert>
2ffe9e02:	f7ff ffd5 	bl	2ffe9db0 <get_bl_params_node_index>
2ffe9e06:	1e03      	subs	r3, r0, #0
2ffe9e08:	bfb1      	iteee	lt
2ffe9e0a:	2000      	movlt	r0, #0
2ffe9e0c:	4a04      	ldrge	r2, [pc, #16]	@ (2ffe9e20 <get_bl_mem_params_node+0x2c>)
2ffe9e0e:	6810      	ldrge	r0, [r2, #0]
2ffe9e10:	225c      	movge	r2, #92	@ 0x5c
2ffe9e12:	bfa8      	it	ge
2ffe9e14:	fb02 0003 	mlage	r0, r2, r3, r0
2ffe9e18:	bd08      	pop	{r3, pc}
2ffe9e1a:	bf00      	nop
2ffe9e1c:	2fff66f4 	.word	0x2fff66f4
2ffe9e20:	2fffa334 	.word	0x2fffa334

2ffe9e24 <get_bl_load_info_from_mem_params_desc>:
2ffe9e24:	4b0f      	ldr	r3, [pc, #60]	@ (2ffe9e64 <get_bl_load_info_from_mem_params_desc+0x40>)
2ffe9e26:	6818      	ldr	r0, [r3, #0]
2ffe9e28:	b1d0      	cbz	r0, 2ffe9e60 <get_bl_load_info_from_mem_params_desc+0x3c>
2ffe9e2a:	4b0f      	ldr	r3, [pc, #60]	@ (2ffe9e68 <get_bl_load_info_from_mem_params_desc+0x44>)
2ffe9e2c:	490f      	ldr	r1, [pc, #60]	@ (2ffe9e6c <get_bl_load_info_from_mem_params_desc+0x48>)
2ffe9e2e:	681b      	ldr	r3, [r3, #0]
2ffe9e30:	f103 0240 	add.w	r2, r3, #64	@ 0x40
2ffe9e34:	339c      	adds	r3, #156	@ 0x9c
2ffe9e36:	608a      	str	r2, [r1, #8]
2ffe9e38:	4a0d      	ldr	r2, [pc, #52]	@ (2ffe9e70 <get_bl_load_info_from_mem_params_desc+0x4c>)
2ffe9e3a:	600a      	str	r2, [r1, #0]
2ffe9e3c:	2200      	movs	r2, #0
2ffe9e3e:	604a      	str	r2, [r1, #4]
2ffe9e40:	f853 1c9c 	ldr.w	r1, [r3, #-156]
2ffe9e44:	3201      	adds	r2, #1
2ffe9e46:	4290      	cmp	r0, r2
2ffe9e48:	f843 1c5c 	str.w	r1, [r3, #-92]
2ffe9e4c:	f1a3 0198 	sub.w	r1, r3, #152	@ 0x98
2ffe9e50:	f843 1c58 	str.w	r1, [r3, #-88]
2ffe9e54:	d003      	beq.n	2ffe9e5e <get_bl_load_info_from_mem_params_desc+0x3a>
2ffe9e56:	f843 3c54 	str.w	r3, [r3, #-84]
2ffe9e5a:	335c      	adds	r3, #92	@ 0x5c
2ffe9e5c:	e7f0      	b.n	2ffe9e40 <get_bl_load_info_from_mem_params_desc+0x1c>
2ffe9e5e:	4803      	ldr	r0, [pc, #12]	@ (2ffe9e6c <get_bl_load_info_from_mem_params_desc+0x48>)
2ffe9e60:	4770      	bx	lr
2ffe9e62:	bf00      	nop
2ffe9e64:	2fffa330 	.word	0x2fffa330
2ffe9e68:	2fffa334 	.word	0x2fffa334
2ffe9e6c:	2fffb394 	.word	0x2fffb394
2ffe9e70:	000c0204 	.word	0x000c0204

2ffe9e74 <get_next_bl_params_from_mem_params_desc>:
2ffe9e74:	4b2a      	ldr	r3, [pc, #168]	@ (2ffe9f20 <get_next_bl_params_from_mem_params_desc+0xac>)
2ffe9e76:	e92d 41f0 	stmdb	sp!, {r4, r5, r6, r7, r8, lr}
2ffe9e7a:	681c      	ldr	r4, [r3, #0]
2ffe9e7c:	2c00      	cmp	r4, #0
2ffe9e7e:	d049      	beq.n	2ffe9f14 <get_next_bl_params_from_mem_params_desc+0xa0>
2ffe9e80:	4b28      	ldr	r3, [pc, #160]	@ (2ffe9f24 <get_next_bl_params_from_mem_params_desc+0xb0>)
2ffe9e82:	2000      	movs	r0, #0
2ffe9e84:	215c      	movs	r1, #92	@ 0x5c
2ffe9e86:	681d      	ldr	r5, [r3, #0]
2ffe9e88:	fb01 5300 	mla	r3, r1, r0, r5
2ffe9e8c:	69da      	ldr	r2, [r3, #28]
2ffe9e8e:	f002 0218 	and.w	r2, r2, #24
2ffe9e92:	2a18      	cmp	r2, #24
2ffe9e94:	d112      	bne.n	2ffe9ebc <get_next_bl_params_from_mem_params_desc+0x48>
2ffe9e96:	4a24      	ldr	r2, [pc, #144]	@ (2ffe9f28 <get_next_bl_params_from_mem_params_desc+0xb4>)
2ffe9e98:	334c      	adds	r3, #76	@ 0x4c
2ffe9e9a:	6093      	str	r3, [r2, #8]
2ffe9e9c:	4b22      	ldr	r3, [pc, #136]	@ (2ffe9f28 <get_next_bl_params_from_mem_params_desc+0xb4>)
2ffe9e9e:	f04f 085c 	mov.w	r8, #92	@ 0x5c
2ffe9ea2:	4a22      	ldr	r2, [pc, #136]	@ (2ffe9f2c <get_next_bl_params_from_mem_params_desc+0xb8>)
2ffe9ea4:	601a      	str	r2, [r3, #0]
2ffe9ea6:	2200      	movs	r2, #0
2ffe9ea8:	605a      	str	r2, [r3, #4]
2ffe9eaa:	4616      	mov	r6, r2
2ffe9eac:	fb08 f000 	mul.w	r0, r8, r0
2ffe9eb0:	182b      	adds	r3, r5, r0
2ffe9eb2:	69d9      	ldr	r1, [r3, #28]
2ffe9eb4:	0709      	lsls	r1, r1, #28
2ffe9eb6:	d40f      	bmi.n	2ffe9ed8 <get_next_bl_params_from_mem_params_desc+0x64>
2ffe9eb8:	21ab      	movs	r1, #171	@ 0xab
2ffe9eba:	e006      	b.n	2ffe9eca <get_next_bl_params_from_mem_params_desc+0x56>
2ffe9ebc:	3001      	adds	r0, #1
2ffe9ebe:	4284      	cmp	r4, r0
2ffe9ec0:	d1e2      	bne.n	2ffe9e88 <get_next_bl_params_from_mem_params_desc+0x14>
2ffe9ec2:	4b19      	ldr	r3, [pc, #100]	@ (2ffe9f28 <get_next_bl_params_from_mem_params_desc+0xb4>)
2ffe9ec4:	689b      	ldr	r3, [r3, #8]
2ffe9ec6:	b91b      	cbnz	r3, 2ffe9ed0 <get_next_bl_params_from_mem_params_desc+0x5c>
2ffe9ec8:	219d      	movs	r1, #157	@ 0x9d
2ffe9eca:	4819      	ldr	r0, [pc, #100]	@ (2ffe9f30 <get_next_bl_params_from_mem_params_desc+0xbc>)
2ffe9ecc:	f009 f964 	bl	2fff3198 <__assert>
2ffe9ed0:	2000      	movs	r0, #0
2ffe9ed2:	e7e3      	b.n	2ffe9e9c <get_next_bl_params_from_mem_params_desc+0x28>
2ffe9ed4:	463a      	mov	r2, r7
2ffe9ed6:	e7e9      	b.n	2ffe9eac <get_next_bl_params_from_mem_params_desc+0x38>
2ffe9ed8:	5829      	ldr	r1, [r5, r0]
2ffe9eda:	f103 074c 	add.w	r7, r3, #76	@ 0x4c
2ffe9ede:	64d9      	str	r1, [r3, #76]	@ 0x4c
2ffe9ee0:	1d19      	adds	r1, r3, #4
2ffe9ee2:	6519      	str	r1, [r3, #80]	@ 0x50
2ffe9ee4:	f103 0118 	add.w	r1, r3, #24
2ffe9ee8:	6559      	str	r1, [r3, #84]	@ 0x54
2ffe9eea:	b122      	cbz	r2, 2ffe9ef6 <get_next_bl_params_from_mem_params_desc+0x82>
2ffe9eec:	68d1      	ldr	r1, [r2, #12]
2ffe9eee:	b109      	cbz	r1, 2ffe9ef4 <get_next_bl_params_from_mem_params_desc+0x80>
2ffe9ef0:	21b7      	movs	r1, #183	@ 0xb7
2ffe9ef2:	e7ea      	b.n	2ffe9eca <get_next_bl_params_from_mem_params_desc+0x56>
2ffe9ef4:	60d7      	str	r7, [r2, #12]
2ffe9ef6:	6bd8      	ldr	r0, [r3, #60]	@ 0x3c
2ffe9ef8:	1c43      	adds	r3, r0, #1
2ffe9efa:	d00e      	beq.n	2ffe9f1a <get_next_bl_params_from_mem_params_desc+0xa6>
2ffe9efc:	f7ff ff58 	bl	2ffe9db0 <get_bl_params_node_index>
2ffe9f00:	b108      	cbz	r0, 2ffe9f06 <get_next_bl_params_from_mem_params_desc+0x92>
2ffe9f02:	4284      	cmp	r4, r0
2ffe9f04:	d801      	bhi.n	2ffe9f0a <get_next_bl_params_from_mem_params_desc+0x96>
2ffe9f06:	21c7      	movs	r1, #199	@ 0xc7
2ffe9f08:	e7df      	b.n	2ffe9eca <get_next_bl_params_from_mem_params_desc+0x56>
2ffe9f0a:	3601      	adds	r6, #1
2ffe9f0c:	42b4      	cmp	r4, r6
2ffe9f0e:	d1e1      	bne.n	2ffe9ed4 <get_next_bl_params_from_mem_params_desc+0x60>
2ffe9f10:	21cc      	movs	r1, #204	@ 0xcc
2ffe9f12:	e7da      	b.n	2ffe9eca <get_next_bl_params_from_mem_params_desc+0x56>
2ffe9f14:	4620      	mov	r0, r4
2ffe9f16:	e8bd 81f0 	ldmia.w	sp!, {r4, r5, r6, r7, r8, pc}
2ffe9f1a:	4803      	ldr	r0, [pc, #12]	@ (2ffe9f28 <get_next_bl_params_from_mem_params_desc+0xb4>)
2ffe9f1c:	e7fb      	b.n	2ffe9f16 <get_next_bl_params_from_mem_params_desc+0xa2>
2ffe9f1e:	bf00      	nop
2ffe9f20:	2fffa330 	.word	0x2fffa330
2ffe9f24:	2fffa334 	.word	0x2fffa334
2ffe9f28:	2fffb388 	.word	0x2fffb388
2ffe9f2c:	000c0205 	.word	0x000c0205
2ffe9f30:	2fff66f4 	.word	0x2fff66f4

2ffe9f34 <populate_next_bl_params_config>:
2ffe9f34:	b5f8      	push	{r3, r4, r5, r6, r7, lr}
2ffe9f36:	4605      	mov	r5, r0
2ffe9f38:	b918      	cbnz	r0, 2ffe9f42 <populate_next_bl_params_config+0xe>
2ffe9f3a:	4816      	ldr	r0, [pc, #88]	@ (2ffe9f94 <populate_next_bl_params_config+0x60>)
2ffe9f3c:	21dd      	movs	r1, #221	@ 0xdd
2ffe9f3e:	f009 f92b 	bl	2fff3198 <__assert>
2ffe9f42:	2002      	movs	r0, #2
2ffe9f44:	f7ff ff56 	bl	2ffe9df4 <get_bl_mem_params_node>
2ffe9f48:	4604      	mov	r4, r0
2ffe9f4a:	b100      	cbz	r0, 2ffe9f4e <populate_next_bl_params_config+0x1a>
2ffe9f4c:	68c4      	ldr	r4, [r0, #12]
2ffe9f4e:	68ae      	ldr	r6, [r5, #8]
2ffe9f50:	4f11      	ldr	r7, [pc, #68]	@ (2ffe9f98 <populate_next_bl_params_config+0x64>)
2ffe9f52:	4635      	mov	r5, r6
2ffe9f54:	b905      	cbnz	r5, 2ffe9f58 <populate_next_bl_params_config+0x24>
2ffe9f56:	bdf8      	pop	{r3, r4, r5, r6, r7, pc}
2ffe9f58:	682b      	ldr	r3, [r5, #0]
2ffe9f5a:	3b03      	subs	r3, #3
2ffe9f5c:	2b02      	cmp	r3, #2
2ffe9f5e:	d80f      	bhi.n	2ffe9f80 <populate_next_bl_params_config+0x4c>
2ffe9f60:	5cf8      	ldrb	r0, [r7, r3]
2ffe9f62:	f7ff ff47 	bl	2ffe9df4 <get_bl_mem_params_node>
2ffe9f66:	b100      	cbz	r0, 2ffe9f6a <populate_next_bl_params_config+0x36>
2ffe9f68:	68c0      	ldr	r0, [r0, #12]
2ffe9f6a:	68ab      	ldr	r3, [r5, #8]
2ffe9f6c:	42b5      	cmp	r5, r6
2ffe9f6e:	699a      	ldr	r2, [r3, #24]
2ffe9f70:	d108      	bne.n	2ffe9f84 <populate_next_bl_params_config+0x50>
2ffe9f72:	b902      	cbnz	r2, 2ffe9f76 <populate_next_bl_params_config+0x42>
2ffe9f74:	6198      	str	r0, [r3, #24]
2ffe9f76:	69da      	ldr	r2, [r3, #28]
2ffe9f78:	b902      	cbnz	r2, 2ffe9f7c <populate_next_bl_params_config+0x48>
2ffe9f7a:	61dc      	str	r4, [r3, #28]
2ffe9f7c:	68ed      	ldr	r5, [r5, #12]
2ffe9f7e:	e7e9      	b.n	2ffe9f54 <populate_next_bl_params_config+0x20>
2ffe9f80:	2000      	movs	r0, #0
2ffe9f82:	e7f2      	b.n	2ffe9f6a <populate_next_bl_params_config+0x36>
2ffe9f84:	6959      	ldr	r1, [r3, #20]
2ffe9f86:	b901      	cbnz	r1, 2ffe9f8a <populate_next_bl_params_config+0x56>
2ffe9f88:	6158      	str	r0, [r3, #20]
2ffe9f8a:	2a00      	cmp	r2, #0
2ffe9f8c:	d1f6      	bne.n	2ffe9f7c <populate_next_bl_params_config+0x48>
2ffe9f8e:	619c      	str	r4, [r3, #24]
2ffe9f90:	e7f4      	b.n	2ffe9f7c <populate_next_bl_params_config+0x48>
2ffe9f92:	bf00      	nop
2ffe9f94:	2fff66f4 	.word	0x2fff66f4
2ffe9f98:	2fff8f12 	.word	0x2fff8f12

2ffe9f9c <fdt_read_uint32_array>:
2ffe9f9c:	b5f7      	push	{r0, r1, r2, r4, r5, r6, r7, lr}
2ffe9f9e:	461c      	mov	r4, r3
2ffe9fa0:	9d08      	ldr	r5, [sp, #32]
2ffe9fa2:	b918      	cbnz	r0, 2ffe9fac <fdt_read_uint32_array+0x10>
2ffe9fa4:	2120      	movs	r1, #32
2ffe9fa6:	4817      	ldr	r0, [pc, #92]	@ (2ffea004 <fdt_read_uint32_array+0x68>)
2ffe9fa8:	f009 f8f6 	bl	2fff3198 <__assert>
2ffe9fac:	b90a      	cbnz	r2, 2ffe9fb2 <fdt_read_uint32_array+0x16>
2ffe9fae:	2121      	movs	r1, #33	@ 0x21
2ffe9fb0:	e7f9      	b.n	2ffe9fa6 <fdt_read_uint32_array+0xa>
2ffe9fb2:	b90d      	cbnz	r5, 2ffe9fb8 <fdt_read_uint32_array+0x1c>
2ffe9fb4:	2122      	movs	r1, #34	@ 0x22
2ffe9fb6:	e7f6      	b.n	2ffe9fa6 <fdt_read_uint32_array+0xa>
2ffe9fb8:	2900      	cmp	r1, #0
2ffe9fba:	da01      	bge.n	2ffe9fc0 <fdt_read_uint32_array+0x24>
2ffe9fbc:	2123      	movs	r1, #35	@ 0x23
2ffe9fbe:	e7f2      	b.n	2ffe9fa6 <fdt_read_uint32_array+0xa>
2ffe9fc0:	ab01      	add	r3, sp, #4
2ffe9fc2:	f00a fe2e 	bl	2fff4c22 <fdt_getprop>
2ffe9fc6:	4602      	mov	r2, r0
2ffe9fc8:	b1c0      	cbz	r0, 2ffe9ffc <fdt_read_uint32_array+0x60>
2ffe9fca:	9b01      	ldr	r3, [sp, #4]
2ffe9fcc:	ebb4 0f93 	cmp.w	r4, r3, lsr #2
2ffe9fd0:	d806      	bhi.n	2ffe9fe0 <fdt_read_uint32_array+0x44>
2ffe9fd2:	eb00 0484 	add.w	r4, r0, r4, lsl #2
2ffe9fd6:	3d04      	subs	r5, #4
2ffe9fd8:	42a2      	cmp	r2, r4
2ffe9fda:	d108      	bne.n	2ffe9fee <fdt_read_uint32_array+0x52>
2ffe9fdc:	2000      	movs	r0, #0
2ffe9fde:	e004      	b.n	2ffe9fea <fdt_read_uint32_array+0x4e>
2ffe9fe0:	4809      	ldr	r0, [pc, #36]	@ (2ffea008 <fdt_read_uint32_array+0x6c>)
2ffe9fe2:	f000 f923 	bl	2ffea22c <tf_log>
2ffe9fe6:	f06f 000e 	mvn.w	r0, #14
2ffe9fea:	b003      	add	sp, #12
2ffe9fec:	bdf0      	pop	{r4, r5, r6, r7, pc}
2ffe9fee:	f852 0b04 	ldr.w	r0, [r2], #4
2ffe9ff2:	f009 fb2f 	bl	2fff3654 <cpu_to_fdt32>
2ffe9ff6:	f845 0f04 	str.w	r0, [r5, #4]!
2ffe9ffa:	e7ed      	b.n	2ffe9fd8 <fdt_read_uint32_array+0x3c>
2ffe9ffc:	f04f 30ff 	mov.w	r0, #4294967295	@ 0xffffffff
2ffea000:	e7f3      	b.n	2ffe9fea <fdt_read_uint32_array+0x4e>
2ffea002:	bf00      	nop
2ffea004:	2fff670d 	.word	0x2fff670d
2ffea008:	2fff6723 	.word	0x2fff6723

2ffea00c <fdtw_read_string>:
2ffea00c:	e92d 43f7 	stmdb	sp!, {r0, r1, r2, r4, r5, r6, r7, r8, r9, lr}
2ffea010:	4689      	mov	r9, r1
2ffea012:	f8dd 8028 	ldr.w	r8, [sp, #40]	@ 0x28
2ffea016:	4614      	mov	r4, r2
2ffea018:	461e      	mov	r6, r3
2ffea01a:	4607      	mov	r7, r0
2ffea01c:	b918      	cbnz	r0, 2ffea026 <fdtw_read_string+0x1a>
2ffea01e:	2196      	movs	r1, #150	@ 0x96
2ffea020:	4819      	ldr	r0, [pc, #100]	@ (2ffea088 <fdtw_read_string+0x7c>)
2ffea022:	f009 f8b9 	bl	2fff3198 <__assert>
2ffea026:	2900      	cmp	r1, #0
2ffea028:	da01      	bge.n	2ffea02e <fdtw_read_string+0x22>
2ffea02a:	2197      	movs	r1, #151	@ 0x97
2ffea02c:	e7f8      	b.n	2ffea020 <fdtw_read_string+0x14>
2ffea02e:	b90a      	cbnz	r2, 2ffea034 <fdtw_read_string+0x28>
2ffea030:	2198      	movs	r1, #152	@ 0x98
2ffea032:	e7f5      	b.n	2ffea020 <fdtw_read_string+0x14>
2ffea034:	b90b      	cbnz	r3, 2ffea03a <fdtw_read_string+0x2e>
2ffea036:	2199      	movs	r1, #153	@ 0x99
2ffea038:	e7f2      	b.n	2ffea020 <fdtw_read_string+0x14>
2ffea03a:	f1b8 0f00 	cmp.w	r8, #0
2ffea03e:	d101      	bne.n	2ffea044 <fdtw_read_string+0x38>
2ffea040:	219a      	movs	r1, #154	@ 0x9a
2ffea042:	e7ed      	b.n	2ffea020 <fdtw_read_string+0x14>
2ffea044:	4610      	mov	r0, r2
2ffea046:	2500      	movs	r5, #0
2ffea048:	f00b f88c 	bl	2fff5164 <strlen>
2ffea04c:	9500      	str	r5, [sp, #0]
2ffea04e:	4603      	mov	r3, r0
2ffea050:	4649      	mov	r1, r9
2ffea052:	4622      	mov	r2, r4
2ffea054:	4638      	mov	r0, r7
2ffea056:	f00a fdc4 	bl	2fff4be2 <fdt_getprop_namelen>
2ffea05a:	4601      	mov	r1, r0
2ffea05c:	b940      	cbnz	r0, 2ffea070 <fdtw_read_string+0x64>
2ffea05e:	480b      	ldr	r0, [pc, #44]	@ (2ffea08c <fdtw_read_string+0x80>)
2ffea060:	4621      	mov	r1, r4
2ffea062:	f000 f8e3 	bl	2ffea22c <tf_log>
2ffea066:	f04f 30ff 	mov.w	r0, #4294967295	@ 0xffffffff
2ffea06a:	b003      	add	sp, #12
2ffea06c:	e8bd 83f0 	ldmia.w	sp!, {r4, r5, r6, r7, r8, r9, pc}
2ffea070:	4642      	mov	r2, r8
2ffea072:	4630      	mov	r0, r6
2ffea074:	f00b f862 	bl	2fff513c <strlcpy>
2ffea078:	4580      	cmp	r8, r0
2ffea07a:	d802      	bhi.n	2ffea082 <fdtw_read_string+0x76>
2ffea07c:	4804      	ldr	r0, [pc, #16]	@ (2ffea090 <fdtw_read_string+0x84>)
2ffea07e:	4621      	mov	r1, r4
2ffea080:	e7ef      	b.n	2ffea062 <fdtw_read_string+0x56>
2ffea082:	4628      	mov	r0, r5
2ffea084:	e7f1      	b.n	2ffea06a <fdtw_read_string+0x5e>
2ffea086:	bf00      	nop
2ffea088:	2fff670d 	.word	0x2fff670d
2ffea08c:	2fff673e 	.word	0x2fff673e
2ffea090:	2fff6761 	.word	0x2fff6761

2ffea094 <fdtw_read_uuid>:
2ffea094:	b570      	push	{r4, r5, r6, lr}
2ffea096:	b08c      	sub	sp, #48	@ 0x30
2ffea098:	9e10      	ldr	r6, [sp, #64]	@ 0x40
2ffea09a:	b918      	cbnz	r0, 2ffea0a4 <fdtw_read_uuid+0x10>
2ffea09c:	21b6      	movs	r1, #182	@ 0xb6
2ffea09e:	4811      	ldr	r0, [pc, #68]	@ (2ffea0e4 <fdtw_read_uuid+0x50>)
2ffea0a0:	f009 f87a 	bl	2fff3198 <__assert>
2ffea0a4:	b90a      	cbnz	r2, 2ffea0aa <fdtw_read_uuid+0x16>
2ffea0a6:	21b7      	movs	r1, #183	@ 0xb7
2ffea0a8:	e7f9      	b.n	2ffea09e <fdtw_read_uuid+0xa>
2ffea0aa:	b90e      	cbnz	r6, 2ffea0b0 <fdtw_read_uuid+0x1c>
2ffea0ac:	21b8      	movs	r1, #184	@ 0xb8
2ffea0ae:	e7f6      	b.n	2ffea09e <fdtw_read_uuid+0xa>
2ffea0b0:	2900      	cmp	r1, #0
2ffea0b2:	da01      	bge.n	2ffea0b8 <fdtw_read_uuid+0x24>
2ffea0b4:	21b9      	movs	r1, #185	@ 0xb9
2ffea0b6:	e7f2      	b.n	2ffea09e <fdtw_read_uuid+0xa>
2ffea0b8:	2b0f      	cmp	r3, #15
2ffea0ba:	d90f      	bls.n	2ffea0dc <fdtw_read_uuid+0x48>
2ffea0bc:	2325      	movs	r3, #37	@ 0x25
2ffea0be:	9300      	str	r3, [sp, #0]
2ffea0c0:	ab02      	add	r3, sp, #8
2ffea0c2:	f7ff ffa3 	bl	2ffea00c <fdtw_read_string>
2ffea0c6:	b938      	cbnz	r0, 2ffea0d8 <fdtw_read_uuid+0x44>
2ffea0c8:	a902      	add	r1, sp, #8
2ffea0ca:	4630      	mov	r0, r6
2ffea0cc:	f000 f8dc 	bl	2ffea288 <read_uuid>
2ffea0d0:	2800      	cmp	r0, #0
2ffea0d2:	bf18      	it	ne
2ffea0d4:	f06f 000e 	mvnne.w	r0, #14
2ffea0d8:	b00c      	add	sp, #48	@ 0x30
2ffea0da:	bd70      	pop	{r4, r5, r6, pc}
2ffea0dc:	f06f 0015 	mvn.w	r0, #21
2ffea0e0:	e7fa      	b.n	2ffea0d8 <fdtw_read_uuid+0x44>
2ffea0e2:	bf00      	nop
2ffea0e4:	2fff670d 	.word	0x2fff670d

2ffea0e8 <fdt_get_reg_props_by_index>:
2ffea0e8:	e92d 4ff7 	stmdb	sp!, {r0, r1, r2, r4, r5, r6, r7, r8, r9, sl, fp, lr}
2ffea0ec:	4604      	mov	r4, r0
2ffea0ee:	f8dd 8030 	ldr.w	r8, [sp, #48]	@ 0x30
2ffea0f2:	468a      	mov	sl, r1
2ffea0f4:	4693      	mov	fp, r2
2ffea0f6:	461f      	mov	r7, r3
2ffea0f8:	f00a fe41 	bl	2fff4d7e <fdt_parent_offset>
2ffea0fc:	1e05      	subs	r5, r0, #0
2ffea0fe:	db39      	blt.n	2ffea174 <fdt_get_reg_props_by_index+0x8c>
2ffea100:	4629      	mov	r1, r5
2ffea102:	4620      	mov	r0, r4
2ffea104:	f008 ff8c 	bl	2fff3020 <fdt_address_cells>
2ffea108:	4606      	mov	r6, r0
2ffea10a:	4629      	mov	r1, r5
2ffea10c:	4620      	mov	r0, r4
2ffea10e:	f008 ff95 	bl	2fff303c <fdt_size_cells>
2ffea112:	eb06 0900 	add.w	r9, r6, r0
2ffea116:	4605      	mov	r5, r0
2ffea118:	4a19      	ldr	r2, [pc, #100]	@ (2ffea180 <fdt_get_reg_props_by_index+0x98>)
2ffea11a:	4620      	mov	r0, r4
2ffea11c:	ab01      	add	r3, sp, #4
2ffea11e:	4651      	mov	r1, sl
2ffea120:	f00a fd7f 	bl	2fff4c22 <fdt_getprop>
2ffea124:	fb0b f909 	mul.w	r9, fp, r9
2ffea128:	4604      	mov	r4, r0
2ffea12a:	b938      	cbnz	r0, 2ffea13c <fdt_get_reg_props_by_index+0x54>
2ffea12c:	4815      	ldr	r0, [pc, #84]	@ (2ffea184 <fdt_get_reg_props_by_index+0x9c>)
2ffea12e:	f000 f87d 	bl	2ffea22c <tf_log>
2ffea132:	f04f 30ff 	mov.w	r0, #4294967295	@ 0xffffffff
2ffea136:	b003      	add	sp, #12
2ffea138:	e8bd 8ff0 	ldmia.w	sp!, {r4, r5, r6, r7, r8, r9, sl, fp, pc}
2ffea13c:	eb06 0a09 	add.w	sl, r6, r9
2ffea140:	eb0a 0205 	add.w	r2, sl, r5
2ffea144:	9b01      	ldr	r3, [sp, #4]
2ffea146:	ebb3 0f82 	cmp.w	r3, r2, lsl #2
2ffea14a:	db16      	blt.n	2ffea17a <fdt_get_reg_props_by_index+0x92>
2ffea14c:	b12f      	cbz	r7, 2ffea15a <fdt_get_reg_props_by_index+0x72>
2ffea14e:	eb00 0089 	add.w	r0, r0, r9, lsl #2
2ffea152:	4631      	mov	r1, r6
2ffea154:	f009 fa80 	bl	2fff3658 <fdt_read_prop_cells>
2ffea158:	6038      	str	r0, [r7, #0]
2ffea15a:	f1b8 0f00 	cmp.w	r8, #0
2ffea15e:	d101      	bne.n	2ffea164 <fdt_get_reg_props_by_index+0x7c>
2ffea160:	2000      	movs	r0, #0
2ffea162:	e7e8      	b.n	2ffea136 <fdt_get_reg_props_by_index+0x4e>
2ffea164:	eb04 008a 	add.w	r0, r4, sl, lsl #2
2ffea168:	4629      	mov	r1, r5
2ffea16a:	f009 fa75 	bl	2fff3658 <fdt_read_prop_cells>
2ffea16e:	f8c8 0000 	str.w	r0, [r8]
2ffea172:	e7f5      	b.n	2ffea160 <fdt_get_reg_props_by_index+0x78>
2ffea174:	f06f 0003 	mvn.w	r0, #3
2ffea178:	e7dd      	b.n	2ffea136 <fdt_get_reg_props_by_index+0x4e>
2ffea17a:	f06f 000e 	mvn.w	r0, #14
2ffea17e:	e7da      	b.n	2ffea136 <fdt_get_reg_props_by_index+0x4e>
2ffea180:	2fff748c 	.word	0x2fff748c
2ffea184:	2fff6793 	.word	0x2fff6793

2ffea188 <fdt_get_reg_props_by_name>:
2ffea188:	e92d 41f0 	stmdb	sp!, {r4, r5, r6, r7, r8, lr}
2ffea18c:	461e      	mov	r6, r3
2ffea18e:	9f06      	ldr	r7, [sp, #24]
2ffea190:	4613      	mov	r3, r2
2ffea192:	4a08      	ldr	r2, [pc, #32]	@ (2ffea1b4 <fdt_get_reg_props_by_name+0x2c>)
2ffea194:	4604      	mov	r4, r0
2ffea196:	460d      	mov	r5, r1
2ffea198:	f00a fe45 	bl	2fff4e26 <fdt_stringlist_search>
2ffea19c:	1e02      	subs	r2, r0, #0
2ffea19e:	db07      	blt.n	2ffea1b0 <fdt_get_reg_props_by_name+0x28>
2ffea1a0:	9706      	str	r7, [sp, #24]
2ffea1a2:	4633      	mov	r3, r6
2ffea1a4:	4629      	mov	r1, r5
2ffea1a6:	4620      	mov	r0, r4
2ffea1a8:	e8bd 41f0 	ldmia.w	sp!, {r4, r5, r6, r7, r8, lr}
2ffea1ac:	f7ff bf9c 	b.w	2ffea0e8 <fdt_get_reg_props_by_index>
2ffea1b0:	e8bd 81f0 	ldmia.w	sp!, {r4, r5, r6, r7, r8, pc}
2ffea1b4:	2fff67b9 	.word	0x2fff67b9

2ffea1b8 <fdt_get_stdout_node_offset>:
2ffea1b8:	4919      	ldr	r1, [pc, #100]	@ (2ffea220 <fdt_get_stdout_node_offset+0x68>)
2ffea1ba:	b538      	push	{r3, r4, r5, lr}
2ffea1bc:	4605      	mov	r5, r0
2ffea1be:	f00a fd8b 	bl	2fff4cd8 <fdt_path_offset>
2ffea1c2:	1e01      	subs	r1, r0, #0
2ffea1c4:	da05      	bge.n	2ffea1d2 <fdt_get_stdout_node_offset+0x1a>
2ffea1c6:	4917      	ldr	r1, [pc, #92]	@ (2ffea224 <fdt_get_stdout_node_offset+0x6c>)
2ffea1c8:	4628      	mov	r0, r5
2ffea1ca:	f00a fd85 	bl	2fff4cd8 <fdt_path_offset>
2ffea1ce:	1e01      	subs	r1, r0, #0
2ffea1d0:	db22      	blt.n	2ffea218 <fdt_get_stdout_node_offset+0x60>
2ffea1d2:	4a15      	ldr	r2, [pc, #84]	@ (2ffea228 <fdt_get_stdout_node_offset+0x70>)
2ffea1d4:	2300      	movs	r3, #0
2ffea1d6:	4628      	mov	r0, r5
2ffea1d8:	f00a fd23 	bl	2fff4c22 <fdt_getprop>
2ffea1dc:	4604      	mov	r4, r0
2ffea1de:	b1d8      	cbz	r0, 2ffea218 <fdt_get_stdout_node_offset+0x60>
2ffea1e0:	213a      	movs	r1, #58	@ 0x3a
2ffea1e2:	f00a ff94 	bl	2fff510e <strchr>
2ffea1e6:	b960      	cbnz	r0, 2ffea202 <fdt_get_stdout_node_offset+0x4a>
2ffea1e8:	4620      	mov	r0, r4
2ffea1ea:	f00a ffbb 	bl	2fff5164 <strlen>
2ffea1ee:	4602      	mov	r2, r0
2ffea1f0:	7823      	ldrb	r3, [r4, #0]
2ffea1f2:	4621      	mov	r1, r4
2ffea1f4:	4628      	mov	r0, r5
2ffea1f6:	2b2f      	cmp	r3, #47	@ 0x2f
2ffea1f8:	d105      	bne.n	2ffea206 <fdt_get_stdout_node_offset+0x4e>
2ffea1fa:	e8bd 4038 	ldmia.w	sp!, {r3, r4, r5, lr}
2ffea1fe:	f00a bd21 	b.w	2fff4c44 <fdt_path_offset_namelen>
2ffea202:	1b02      	subs	r2, r0, r4
2ffea204:	e7f4      	b.n	2ffea1f0 <fdt_get_stdout_node_offset+0x38>
2ffea206:	f008 ff9d 	bl	2fff3144 <fdt_get_alias_namelen>
2ffea20a:	4601      	mov	r1, r0
2ffea20c:	b120      	cbz	r0, 2ffea218 <fdt_get_stdout_node_offset+0x60>
2ffea20e:	4628      	mov	r0, r5
2ffea210:	e8bd 4038 	ldmia.w	sp!, {r3, r4, r5, lr}
2ffea214:	f00a bd60 	b.w	2fff4cd8 <fdt_path_offset>
2ffea218:	f04f 30ff 	mov.w	r0, #4294967295	@ 0xffffffff
2ffea21c:	bd38      	pop	{r3, r4, r5, pc}
2ffea21e:	bf00      	nop
2ffea220:	2fff67c3 	.word	0x2fff67c3
2ffea224:	2fff67d2 	.word	0x2fff67d2
2ffea228:	2fff67da 	.word	0x2fff67da

2ffea22c <tf_log>:
2ffea22c:	b40f      	push	{r0, r1, r2, r3}
2ffea22e:	b537      	push	{r0, r1, r2, r4, r5, lr}
2ffea230:	9d06      	ldr	r5, [sp, #24]
2ffea232:	7828      	ldrb	r0, [r5, #0]
2ffea234:	1e43      	subs	r3, r0, #1
2ffea236:	2b31      	cmp	r3, #49	@ 0x31
2ffea238:	d903      	bls.n	2ffea242 <tf_log+0x16>
2ffea23a:	2122      	movs	r1, #34	@ 0x22
2ffea23c:	4810      	ldr	r0, [pc, #64]	@ (2ffea280 <tf_log+0x54>)
2ffea23e:	f008 ffab 	bl	2fff3198 <__assert>
2ffea242:	220a      	movs	r2, #10
2ffea244:	fbb0 f3f2 	udiv	r3, r0, r2
2ffea248:	fb02 0313 	mls	r3, r2, r3, r0
2ffea24c:	b10b      	cbz	r3, 2ffea252 <tf_log+0x26>
2ffea24e:	2123      	movs	r1, #35	@ 0x23
2ffea250:	e7f4      	b.n	2ffea23c <tf_log+0x10>
2ffea252:	4b0c      	ldr	r3, [pc, #48]	@ (2ffea284 <tf_log+0x58>)
2ffea254:	681b      	ldr	r3, [r3, #0]
2ffea256:	4283      	cmp	r3, r0
2ffea258:	d30a      	bcc.n	2ffea270 <tf_log+0x44>
2ffea25a:	f006 ff91 	bl	2fff1180 <plat_log_get_prefix>
2ffea25e:	1e44      	subs	r4, r0, #1
2ffea260:	f814 0f01 	ldrb.w	r0, [r4, #1]!
2ffea264:	b948      	cbnz	r0, 2ffea27a <tf_log+0x4e>
2ffea266:	a907      	add	r1, sp, #28
2ffea268:	1c68      	adds	r0, r5, #1
2ffea26a:	9101      	str	r1, [sp, #4]
2ffea26c:	f008 ffa0 	bl	2fff31b0 <vprintf>
2ffea270:	b003      	add	sp, #12
2ffea272:	e8bd 4030 	ldmia.w	sp!, {r4, r5, lr}
2ffea276:	b004      	add	sp, #16
2ffea278:	4770      	bx	lr
2ffea27a:	f009 fa58 	bl	2fff372e <putchar>
2ffea27e:	e7ef      	b.n	2ffea260 <tf_log+0x34>
2ffea280:	2fff67e6 	.word	0x2fff67e6
2ffea284:	2fffa070 	.word	0x2fffa070

2ffea288 <read_uuid>:
2ffea288:	e92d 47f0 	stmdb	sp!, {r4, r5, r6, r7, r8, r9, sl, lr}
2ffea28c:	460e      	mov	r6, r1
2ffea28e:	4605      	mov	r5, r0
2ffea290:	2124      	movs	r1, #36	@ 0x24
2ffea292:	4630      	mov	r0, r6
2ffea294:	f00a ff82 	bl	2fff519c <strnlen>
2ffea298:	2824      	cmp	r0, #36	@ 0x24
2ffea29a:	d006      	beq.n	2ffea2aa <read_uuid+0x22>
2ffea29c:	482a      	ldr	r0, [pc, #168]	@ (2ffea348 <read_uuid+0xc0>)
2ffea29e:	f7ff ffc5 	bl	2ffea22c <tf_log>
2ffea2a2:	f06f 0015 	mvn.w	r0, #21
2ffea2a6:	e8bd 87f0 	ldmia.w	sp!, {r4, r5, r6, r7, r8, r9, sl, pc}
2ffea2aa:	2208      	movs	r2, #8
2ffea2ac:	4631      	mov	r1, r6
2ffea2ae:	4628      	mov	r0, r5
2ffea2b0:	f009 fa20 	bl	2fff36f4 <read_hex.part.0>
2ffea2b4:	7a37      	ldrb	r7, [r6, #8]
2ffea2b6:	2204      	movs	r2, #4
2ffea2b8:	4682      	mov	sl, r0
2ffea2ba:	f106 0109 	add.w	r1, r6, #9
2ffea2be:	3f2d      	subs	r7, #45	@ 0x2d
2ffea2c0:	eb05 0002 	add.w	r0, r5, r2
2ffea2c4:	bf18      	it	ne
2ffea2c6:	f04f 37ff 	movne.w	r7, #4294967295	@ 0xffffffff
2ffea2ca:	f009 fa13 	bl	2fff36f4 <read_hex.part.0>
2ffea2ce:	7b74      	ldrb	r4, [r6, #13]
2ffea2d0:	4681      	mov	r9, r0
2ffea2d2:	2204      	movs	r2, #4
2ffea2d4:	f106 010e 	add.w	r1, r6, #14
2ffea2d8:	3c2d      	subs	r4, #45	@ 0x2d
2ffea2da:	f105 0006 	add.w	r0, r5, #6
2ffea2de:	bf18      	it	ne
2ffea2e0:	f04f 34ff 	movne.w	r4, #4294967295	@ 0xffffffff
2ffea2e4:	f009 fa06 	bl	2fff36f4 <read_hex.part.0>
2ffea2e8:	433c      	orrs	r4, r7
2ffea2ea:	4680      	mov	r8, r0
2ffea2ec:	7cb7      	ldrb	r7, [r6, #18]
2ffea2ee:	2204      	movs	r2, #4
2ffea2f0:	f106 0113 	add.w	r1, r6, #19
2ffea2f4:	f105 0008 	add.w	r0, r5, #8
2ffea2f8:	3f2d      	subs	r7, #45	@ 0x2d
2ffea2fa:	bf18      	it	ne
2ffea2fc:	f04f 37ff 	movne.w	r7, #4294967295	@ 0xffffffff
2ffea300:	f009 f9f8 	bl	2fff36f4 <read_hex.part.0>
2ffea304:	4327      	orrs	r7, r4
2ffea306:	220c      	movs	r2, #12
2ffea308:	7df4      	ldrb	r4, [r6, #23]
2ffea30a:	f106 0118 	add.w	r1, r6, #24
2ffea30e:	3c2d      	subs	r4, #45	@ 0x2d
2ffea310:	bf18      	it	ne
2ffea312:	f04f 34ff 	movne.w	r4, #4294967295	@ 0xffffffff
2ffea316:	433c      	orrs	r4, r7
2ffea318:	ea44 040a 	orr.w	r4, r4, sl
2ffea31c:	ea44 0409 	orr.w	r4, r4, r9
2ffea320:	ea44 0408 	orr.w	r4, r4, r8
2ffea324:	4304      	orrs	r4, r0
2ffea326:	f105 000a 	add.w	r0, r5, #10
2ffea32a:	f009 f9e3 	bl	2fff36f4 <read_hex.part.0>
2ffea32e:	4304      	orrs	r4, r0
2ffea330:	d508      	bpl.n	2ffea344 <read_uuid+0xbc>
2ffea332:	4806      	ldr	r0, [pc, #24]	@ (2ffea34c <read_uuid+0xc4>)
2ffea334:	f7ff ff7a 	bl	2ffea22c <tf_log>
2ffea338:	2210      	movs	r2, #16
2ffea33a:	2100      	movs	r1, #0
2ffea33c:	4628      	mov	r0, r5
2ffea33e:	f00a fdfd 	bl	2fff4f3c <memset>
2ffea342:	e7ae      	b.n	2ffea2a2 <read_uuid+0x1a>
2ffea344:	2000      	movs	r0, #0
2ffea346:	e7ae      	b.n	2ffea2a6 <read_uuid+0x1e>
2ffea348:	2fff67f6 	.word	0x2fff67f6
2ffea34c:	2fff6811 	.word	0x2fff6811

2ffea350 <tzc400_set_action>:
2ffea350:	b508      	push	{r3, lr}
2ffea352:	4b06      	ldr	r3, [pc, #24]	@ (2ffea36c <tzc400_set_action+0x1c>)
2ffea354:	681b      	ldr	r3, [r3, #0]
2ffea356:	b91b      	cbnz	r3, 2ffea360 <tzc400_set_action+0x10>
2ffea358:	21b5      	movs	r1, #181	@ 0xb5
2ffea35a:	4805      	ldr	r0, [pc, #20]	@ (2ffea370 <tzc400_set_action+0x20>)
2ffea35c:	f008 ff1c 	bl	2fff3198 <__assert>
2ffea360:	2803      	cmp	r0, #3
2ffea362:	d901      	bls.n	2ffea368 <tzc400_set_action+0x18>
2ffea364:	21b6      	movs	r1, #182	@ 0xb6
2ffea366:	e7f8      	b.n	2ffea35a <tzc400_set_action+0xa>
2ffea368:	6058      	str	r0, [r3, #4]
2ffea36a:	bd08      	pop	{r3, pc}
2ffea36c:	2fffb3a0 	.word	0x2fffb3a0
2ffea370:	2fff6826 	.word	0x2fff6826

2ffea374 <tzc400_init>:
2ffea374:	b508      	push	{r3, lr}
2ffea376:	b918      	cbnz	r0, 2ffea380 <tzc400_init+0xc>
2ffea378:	4812      	ldr	r0, [pc, #72]	@ (2ffea3c4 <tzc400_init+0x50>)
2ffea37a:	21c2      	movs	r1, #194	@ 0xc2
2ffea37c:	f008 ff0c 	bl	2fff3198 <__assert>
2ffea380:	f8d0 3fe0 	ldr.w	r3, [r0, #4064]	@ 0xfe0
2ffea384:	f8d0 1fe4 	ldr.w	r1, [r0, #4068]	@ 0xfe4
2ffea388:	4a0f      	ldr	r2, [pc, #60]	@ (2ffea3c8 <tzc400_init+0x54>)
2ffea38a:	0209      	lsls	r1, r1, #8
2ffea38c:	6010      	str	r0, [r2, #0]
2ffea38e:	f401 6170 	and.w	r1, r1, #3840	@ 0xf00
2ffea392:	4319      	orrs	r1, r3
2ffea394:	f5b1 6f8c 	cmp.w	r1, #1120	@ 0x460
2ffea398:	d006      	beq.n	2ffea3a8 <tzc400_init+0x34>
2ffea39a:	480c      	ldr	r0, [pc, #48]	@ (2ffea3cc <tzc400_init+0x58>)
2ffea39c:	f7ff ff46 	bl	2ffea22c <tf_log>
2ffea3a0:	f000 f9da 	bl	2ffea758 <console_flush>
2ffea3a4:	f7fe ef66 	blx	2ffe9274 <el3_panic>
2ffea3a8:	6803      	ldr	r3, [r0, #0]
2ffea3aa:	f3c3 6101 	ubfx	r1, r3, #24, #2
2ffea3ae:	3101      	adds	r1, #1
2ffea3b0:	7151      	strb	r1, [r2, #5]
2ffea3b2:	f3c3 2105 	ubfx	r1, r3, #8, #6
2ffea3b6:	f003 031f 	and.w	r3, r3, #31
2ffea3ba:	3101      	adds	r1, #1
2ffea3bc:	3301      	adds	r3, #1
2ffea3be:	7111      	strb	r1, [r2, #4]
2ffea3c0:	7193      	strb	r3, [r2, #6]
2ffea3c2:	bd08      	pop	{r3, pc}
2ffea3c4:	2fff6826 	.word	0x2fff6826
2ffea3c8:	2fffb3a0 	.word	0x2fffb3a0
2ffea3cc:	2fff683f 	.word	0x2fff683f

2ffea3d0 <tzc400_configure_region0>:
2ffea3d0:	b508      	push	{r3, lr}
2ffea3d2:	4b08      	ldr	r3, [pc, #32]	@ (2ffea3f4 <tzc400_configure_region0+0x24>)
2ffea3d4:	681b      	ldr	r3, [r3, #0]
2ffea3d6:	b91b      	cbnz	r3, 2ffea3e0 <tzc400_configure_region0+0x10>
2ffea3d8:	21e0      	movs	r1, #224	@ 0xe0
2ffea3da:	4807      	ldr	r0, [pc, #28]	@ (2ffea3f8 <tzc400_configure_region0+0x28>)
2ffea3dc:	f008 fedc 	bl	2fff3198 <__assert>
2ffea3e0:	2803      	cmp	r0, #3
2ffea3e2:	d901      	bls.n	2ffea3e8 <tzc400_configure_region0+0x18>
2ffea3e4:	21e1      	movs	r1, #225	@ 0xe1
2ffea3e6:	e7f8      	b.n	2ffea3da <tzc400_configure_region0+0xa>
2ffea3e8:	0780      	lsls	r0, r0, #30
2ffea3ea:	f8c3 0110 	str.w	r0, [r3, #272]	@ 0x110
2ffea3ee:	f8c3 1114 	str.w	r1, [r3, #276]	@ 0x114
2ffea3f2:	bd08      	pop	{r3, pc}
2ffea3f4:	2fffb3a0 	.word	0x2fffb3a0
2ffea3f8:	2fff6826 	.word	0x2fff6826

2ffea3fc <tzc400_configure_region>:
2ffea3fc:	e92d 47f0 	stmdb	sp!, {r4, r5, r6, r7, r8, r9, sl, lr}
2ffea400:	4d2d      	ldr	r5, [pc, #180]	@ (2ffea4b8 <tzc400_configure_region+0xbc>)
2ffea402:	e9dd 7c08 	ldrd	r7, ip, [sp, #32]
2ffea406:	682c      	ldr	r4, [r5, #0]
2ffea408:	f8dd e028 	ldr.w	lr, [sp, #40]	@ 0x28
2ffea40c:	b91c      	cbnz	r4, 2ffea416 <tzc400_configure_region+0x1a>
2ffea40e:	21f7      	movs	r1, #247	@ 0xf7
2ffea410:	482a      	ldr	r0, [pc, #168]	@ (2ffea4bc <tzc400_configure_region+0xc0>)
2ffea412:	f008 fec1 	bl	2fff3198 <__assert>
2ffea416:	796e      	ldrb	r6, [r5, #5]
2ffea418:	280f      	cmp	r0, #15
2ffea41a:	bf02      	ittt	eq
2ffea41c:	2001      	moveq	r0, #1
2ffea41e:	40b0      	lsleq	r0, r6
2ffea420:	f100 30ff 	addeq.w	r0, r0, #4294967295	@ 0xffffffff
2ffea424:	fa30 f606 	lsrs.w	r6, r0, r6
2ffea428:	d102      	bne.n	2ffea430 <tzc400_configure_region+0x34>
2ffea42a:	79ae      	ldrb	r6, [r5, #6]
2ffea42c:	428e      	cmp	r6, r1
2ffea42e:	d801      	bhi.n	2ffea434 <tzc400_configure_region+0x38>
2ffea430:	21ff      	movs	r1, #255	@ 0xff
2ffea432:	e7ed      	b.n	2ffea410 <tzc400_configure_region+0x14>
2ffea434:	792e      	ldrb	r6, [r5, #4]
2ffea436:	f04f 35ff 	mov.w	r5, #4294967295	@ 0xffffffff
2ffea43a:	f1c6 0a40 	rsb	sl, r6, #64	@ 0x40
2ffea43e:	f1a6 0920 	sub.w	r9, r6, #32
2ffea442:	f1c6 0620 	rsb	r6, r6, #32
2ffea446:	fa25 f80a 	lsr.w	r8, r5, sl
2ffea44a:	fa05 f909 	lsl.w	r9, r5, r9
2ffea44e:	fa25 f606 	lsr.w	r6, r5, r6
2ffea452:	ea48 0809 	orr.w	r8, r8, r9
2ffea456:	ea48 0806 	orr.w	r8, r8, r6
2ffea45a:	fa25 f50a 	lsr.w	r5, r5, sl
2ffea45e:	45b8      	cmp	r8, r7
2ffea460:	eb75 050c 	sbcs.w	r5, r5, ip
2ffea464:	d303      	bcc.n	2ffea46e <tzc400_configure_region+0x72>
2ffea466:	42ba      	cmp	r2, r7
2ffea468:	eb73 050c 	sbcs.w	r5, r3, ip
2ffea46c:	d302      	bcc.n	2ffea474 <tzc400_configure_region+0x78>
2ffea46e:	f44f 7183 	mov.w	r1, #262	@ 0x106
2ffea472:	e7cd      	b.n	2ffea410 <tzc400_configure_region+0x14>
2ffea474:	1c7d      	adds	r5, r7, #1
2ffea476:	4315      	orrs	r5, r2
2ffea478:	f3c5 050b 	ubfx	r5, r5, #0, #12
2ffea47c:	b115      	cbz	r5, 2ffea484 <tzc400_configure_region+0x88>
2ffea47e:	f44f 7185 	mov.w	r1, #266	@ 0x10a
2ffea482:	e7c5      	b.n	2ffea410 <tzc400_configure_region+0x14>
2ffea484:	f1be 0f03 	cmp.w	lr, #3
2ffea488:	d902      	bls.n	2ffea490 <tzc400_configure_region+0x94>
2ffea48a:	f44f 7186 	mov.w	r1, #268	@ 0x10c
2ffea48e:	e7bf      	b.n	2ffea410 <tzc400_configure_region+0x14>
2ffea490:	eb04 1141 	add.w	r1, r4, r1, lsl #5
2ffea494:	ea40 708e 	orr.w	r0, r0, lr, lsl #30
2ffea498:	f8c1 2100 	str.w	r2, [r1, #256]	@ 0x100
2ffea49c:	f8c1 3104 	str.w	r3, [r1, #260]	@ 0x104
2ffea4a0:	9b0b      	ldr	r3, [sp, #44]	@ 0x2c
2ffea4a2:	f8c1 7108 	str.w	r7, [r1, #264]	@ 0x108
2ffea4a6:	f8c1 c10c 	str.w	ip, [r1, #268]	@ 0x10c
2ffea4aa:	f8c1 0110 	str.w	r0, [r1, #272]	@ 0x110
2ffea4ae:	f8c1 3114 	str.w	r3, [r1, #276]	@ 0x114
2ffea4b2:	e8bd 87f0 	ldmia.w	sp!, {r4, r5, r6, r7, r8, r9, sl, pc}
2ffea4b6:	bf00      	nop
2ffea4b8:	2fffb3a0 	.word	0x2fffb3a0
2ffea4bc:	2fff6826 	.word	0x2fff6826

2ffea4c0 <tzc400_update_filters>:
2ffea4c0:	b538      	push	{r3, r4, r5, lr}
2ffea4c2:	4b0e      	ldr	r3, [pc, #56]	@ (2ffea4fc <tzc400_update_filters+0x3c>)
2ffea4c4:	795c      	ldrb	r4, [r3, #5]
2ffea4c6:	fa31 f204 	lsrs.w	r2, r1, r4
2ffea4ca:	d102      	bne.n	2ffea4d2 <tzc400_update_filters+0x12>
2ffea4cc:	799a      	ldrb	r2, [r3, #6]
2ffea4ce:	4282      	cmp	r2, r0
2ffea4d0:	d804      	bhi.n	2ffea4dc <tzc400_update_filters+0x1c>
2ffea4d2:	480b      	ldr	r0, [pc, #44]	@ (2ffea500 <tzc400_update_filters+0x40>)
2ffea4d4:	f44f 718b 	mov.w	r1, #278	@ 0x116
2ffea4d8:	f008 fe5e 	bl	2fff3198 <__assert>
2ffea4dc:	681a      	ldr	r2, [r3, #0]
2ffea4de:	f1c4 0420 	rsb	r4, r4, #32
2ffea4e2:	0140      	lsls	r0, r0, #5
2ffea4e4:	f04f 35ff 	mov.w	r5, #4294967295	@ 0xffffffff
2ffea4e8:	f502 7288 	add.w	r2, r2, #272	@ 0x110
2ffea4ec:	fa25 f404 	lsr.w	r4, r5, r4
2ffea4f0:	5813      	ldr	r3, [r2, r0]
2ffea4f2:	ea23 0304 	bic.w	r3, r3, r4
2ffea4f6:	4319      	orrs	r1, r3
2ffea4f8:	5011      	str	r1, [r2, r0]
2ffea4fa:	bd38      	pop	{r3, r4, r5, pc}
2ffea4fc:	2fffb3a0 	.word	0x2fffb3a0
2ffea500:	2fff6826 	.word	0x2fff6826

2ffea504 <tzc400_enable_filters>:
2ffea504:	b538      	push	{r3, r4, r5, lr}
2ffea506:	4b16      	ldr	r3, [pc, #88]	@ (2ffea560 <tzc400_enable_filters+0x5c>)
2ffea508:	681a      	ldr	r2, [r3, #0]
2ffea50a:	b122      	cbz	r2, 2ffea516 <tzc400_enable_filters+0x12>
2ffea50c:	795c      	ldrb	r4, [r3, #5]
2ffea50e:	2100      	movs	r1, #0
2ffea510:	428c      	cmp	r4, r1
2ffea512:	d805      	bhi.n	2ffea520 <tzc400_enable_filters+0x1c>
2ffea514:	bd38      	pop	{r3, r4, r5, pc}
2ffea516:	4813      	ldr	r0, [pc, #76]	@ (2ffea564 <tzc400_enable_filters+0x60>)
2ffea518:	f240 1121 	movw	r1, #289	@ 0x121
2ffea51c:	f008 fe3c 	bl	2fff3198 <__assert>
2ffea520:	6893      	ldr	r3, [r2, #8]
2ffea522:	f102 0508 	add.w	r5, r2, #8
2ffea526:	f3c3 4303 	ubfx	r3, r3, #16, #4
2ffea52a:	40cb      	lsrs	r3, r1
2ffea52c:	07db      	lsls	r3, r3, #31
2ffea52e:	d507      	bpl.n	2ffea540 <tzc400_enable_filters+0x3c>
2ffea530:	b1a1      	cbz	r1, 2ffea55c <tzc400_enable_filters+0x58>
2ffea532:	480d      	ldr	r0, [pc, #52]	@ (2ffea568 <tzc400_enable_filters+0x64>)
2ffea534:	f7ff fe7a 	bl	2ffea22c <tf_log>
2ffea538:	f000 f90e 	bl	2ffea758 <console_flush>
2ffea53c:	f7fe ee9a 	blx	2ffe9274 <el3_panic>
2ffea540:	6890      	ldr	r0, [r2, #8]
2ffea542:	2301      	movs	r3, #1
2ffea544:	f3c0 4003 	ubfx	r0, r0, #16, #4
2ffea548:	408b      	lsls	r3, r1
2ffea54a:	4303      	orrs	r3, r0
2ffea54c:	f003 000f 	and.w	r0, r3, #15
2ffea550:	6090      	str	r0, [r2, #8]
2ffea552:	6828      	ldr	r0, [r5, #0]
2ffea554:	f3c0 4003 	ubfx	r0, r0, #16, #4
2ffea558:	4283      	cmp	r3, r0
2ffea55a:	d1fa      	bne.n	2ffea552 <tzc400_enable_filters+0x4e>
2ffea55c:	3101      	adds	r1, #1
2ffea55e:	e7d7      	b.n	2ffea510 <tzc400_enable_filters+0xc>
2ffea560:	2fffb3a0 	.word	0x2fffb3a0
2ffea564:	2fff6826 	.word	0x2fff6826
2ffea568:	2fff6863 	.word	0x2fff6863

2ffea56c <tzc400_disable_filters>:
2ffea56c:	4811      	ldr	r0, [pc, #68]	@ (2ffea5b4 <tzc400_disable_filters+0x48>)
2ffea56e:	b538      	push	{r3, r4, r5, lr}
2ffea570:	6803      	ldr	r3, [r0, #0]
2ffea572:	b923      	cbnz	r3, 2ffea57e <tzc400_disable_filters+0x12>
2ffea574:	4810      	ldr	r0, [pc, #64]	@ (2ffea5b8 <tzc400_disable_filters+0x4c>)
2ffea576:	f240 1143 	movw	r1, #323	@ 0x143
2ffea57a:	f008 fe0d 	bl	2fff3198 <__assert>
2ffea57e:	689a      	ldr	r2, [r3, #8]
2ffea580:	f103 0108 	add.w	r1, r3, #8
2ffea584:	7944      	ldrb	r4, [r0, #5]
2ffea586:	2501      	movs	r5, #1
2ffea588:	f3c2 4200 	ubfx	r2, r2, #16, #1
2ffea58c:	4294      	cmp	r4, r2
2ffea58e:	d800      	bhi.n	2ffea592 <tzc400_disable_filters+0x26>
2ffea590:	bd38      	pop	{r3, r4, r5, pc}
2ffea592:	680b      	ldr	r3, [r1, #0]
2ffea594:	fa05 f002 	lsl.w	r0, r5, r2
2ffea598:	0c1b      	lsrs	r3, r3, #16
2ffea59a:	ea23 0300 	bic.w	r3, r3, r0
2ffea59e:	f003 030f 	and.w	r3, r3, #15
2ffea5a2:	600b      	str	r3, [r1, #0]
2ffea5a4:	6808      	ldr	r0, [r1, #0]
2ffea5a6:	f3c0 4003 	ubfx	r0, r0, #16, #4
2ffea5aa:	4283      	cmp	r3, r0
2ffea5ac:	d1fa      	bne.n	2ffea5a4 <tzc400_disable_filters+0x38>
2ffea5ae:	3201      	adds	r2, #1
2ffea5b0:	e7ec      	b.n	2ffea58c <tzc400_disable_filters+0x20>
2ffea5b2:	bf00      	nop
2ffea5b4:	2fffb3a0 	.word	0x2fffb3a0
2ffea5b8:	2fff6826 	.word	0x2fff6826

2ffea5bc <clk_enable>:
2ffea5bc:	4b06      	ldr	r3, [pc, #24]	@ (2ffea5d8 <clk_enable+0x1c>)
2ffea5be:	b510      	push	{r4, lr}
2ffea5c0:	681b      	ldr	r3, [r3, #0]
2ffea5c2:	b10b      	cbz	r3, 2ffea5c8 <clk_enable+0xc>
2ffea5c4:	681b      	ldr	r3, [r3, #0]
2ffea5c6:	b91b      	cbnz	r3, 2ffea5d0 <clk_enable+0x14>
2ffea5c8:	4804      	ldr	r0, [pc, #16]	@ (2ffea5dc <clk_enable+0x20>)
2ffea5ca:	2112      	movs	r1, #18
2ffea5cc:	f008 fde4 	bl	2fff3198 <__assert>
2ffea5d0:	e8bd 4010 	ldmia.w	sp!, {r4, lr}
2ffea5d4:	4718      	bx	r3
2ffea5d6:	bf00      	nop
2ffea5d8:	2fffb3a8 	.word	0x2fffb3a8
2ffea5dc:	2fff6895 	.word	0x2fff6895

2ffea5e0 <clk_disable>:
2ffea5e0:	4b06      	ldr	r3, [pc, #24]	@ (2ffea5fc <clk_disable+0x1c>)
2ffea5e2:	b510      	push	{r4, lr}
2ffea5e4:	681b      	ldr	r3, [r3, #0]
2ffea5e6:	b10b      	cbz	r3, 2ffea5ec <clk_disable+0xc>
2ffea5e8:	685b      	ldr	r3, [r3, #4]
2ffea5ea:	b91b      	cbnz	r3, 2ffea5f4 <clk_disable+0x14>
2ffea5ec:	4804      	ldr	r0, [pc, #16]	@ (2ffea600 <clk_disable+0x20>)
2ffea5ee:	2119      	movs	r1, #25
2ffea5f0:	f008 fdd2 	bl	2fff3198 <__assert>
2ffea5f4:	e8bd 4010 	ldmia.w	sp!, {r4, lr}
2ffea5f8:	4718      	bx	r3
2ffea5fa:	bf00      	nop
2ffea5fc:	2fffb3a8 	.word	0x2fffb3a8
2ffea600:	2fff6895 	.word	0x2fff6895

2ffea604 <clk_get_rate>:
2ffea604:	4b06      	ldr	r3, [pc, #24]	@ (2ffea620 <clk_get_rate+0x1c>)
2ffea606:	b510      	push	{r4, lr}
2ffea608:	681b      	ldr	r3, [r3, #0]
2ffea60a:	b10b      	cbz	r3, 2ffea610 <clk_get_rate+0xc>
2ffea60c:	689b      	ldr	r3, [r3, #8]
2ffea60e:	b91b      	cbnz	r3, 2ffea618 <clk_get_rate+0x14>
2ffea610:	4804      	ldr	r0, [pc, #16]	@ (2ffea624 <clk_get_rate+0x20>)
2ffea612:	2120      	movs	r1, #32
2ffea614:	f008 fdc0 	bl	2fff3198 <__assert>
2ffea618:	e8bd 4010 	ldmia.w	sp!, {r4, lr}
2ffea61c:	4718      	bx	r3
2ffea61e:	bf00      	nop
2ffea620:	2fffb3a8 	.word	0x2fffb3a8
2ffea624:	2fff6895 	.word	0x2fff6895

2ffea628 <clk_is_enabled>:
2ffea628:	4b06      	ldr	r3, [pc, #24]	@ (2ffea644 <clk_is_enabled+0x1c>)
2ffea62a:	b510      	push	{r4, lr}
2ffea62c:	681b      	ldr	r3, [r3, #0]
2ffea62e:	b10b      	cbz	r3, 2ffea634 <clk_is_enabled+0xc>
2ffea630:	691b      	ldr	r3, [r3, #16]
2ffea632:	b91b      	cbnz	r3, 2ffea63c <clk_is_enabled+0x14>
2ffea634:	4804      	ldr	r0, [pc, #16]	@ (2ffea648 <clk_is_enabled+0x20>)
2ffea636:	212e      	movs	r1, #46	@ 0x2e
2ffea638:	f008 fdae 	bl	2fff3198 <__assert>
2ffea63c:	e8bd 4010 	ldmia.w	sp!, {r4, lr}
2ffea640:	4718      	bx	r3
2ffea642:	bf00      	nop
2ffea644:	2fffb3a8 	.word	0x2fffb3a8
2ffea648:	2fff6895 	.word	0x2fff6895

2ffea64c <clk_register>:
2ffea64c:	b508      	push	{r3, lr}
2ffea64e:	b148      	cbz	r0, 2ffea664 <clk_register+0x18>
2ffea650:	6803      	ldr	r3, [r0, #0]
2ffea652:	b13b      	cbz	r3, 2ffea664 <clk_register+0x18>
2ffea654:	6843      	ldr	r3, [r0, #4]
2ffea656:	b12b      	cbz	r3, 2ffea664 <clk_register+0x18>
2ffea658:	6883      	ldr	r3, [r0, #8]
2ffea65a:	b11b      	cbz	r3, 2ffea664 <clk_register+0x18>
2ffea65c:	68c3      	ldr	r3, [r0, #12]
2ffea65e:	b10b      	cbz	r3, 2ffea664 <clk_register+0x18>
2ffea660:	6903      	ldr	r3, [r0, #16]
2ffea662:	b91b      	cbnz	r3, 2ffea66c <clk_register+0x20>
2ffea664:	4803      	ldr	r0, [pc, #12]	@ (2ffea674 <clk_register+0x28>)
2ffea666:	2139      	movs	r1, #57	@ 0x39
2ffea668:	f008 fd96 	bl	2fff3198 <__assert>
2ffea66c:	4b02      	ldr	r3, [pc, #8]	@ (2ffea678 <clk_register+0x2c>)
2ffea66e:	6018      	str	r0, [r3, #0]
2ffea670:	bd08      	pop	{r3, pc}
2ffea672:	bf00      	nop
2ffea674:	2fff6895 	.word	0x2fff6895
2ffea678:	2fffb3a8 	.word	0x2fffb3a8

2ffea67c <console_is_registered>:
2ffea67c:	b508      	push	{r3, lr}
2ffea67e:	b918      	cbnz	r0, 2ffea688 <console_is_registered+0xc>
2ffea680:	4806      	ldr	r0, [pc, #24]	@ (2ffea69c <console_is_registered+0x20>)
2ffea682:	2136      	movs	r1, #54	@ 0x36
2ffea684:	f008 fd88 	bl	2fff3198 <__assert>
2ffea688:	4b05      	ldr	r3, [pc, #20]	@ (2ffea6a0 <console_is_registered+0x24>)
2ffea68a:	681b      	ldr	r3, [r3, #0]
2ffea68c:	b90b      	cbnz	r3, 2ffea692 <console_is_registered+0x16>
2ffea68e:	4618      	mov	r0, r3
2ffea690:	bd08      	pop	{r3, pc}
2ffea692:	4283      	cmp	r3, r0
2ffea694:	d1f9      	bne.n	2ffea68a <console_is_registered+0xe>
2ffea696:	2001      	movs	r0, #1
2ffea698:	e7fa      	b.n	2ffea690 <console_is_registered+0x14>
2ffea69a:	bf00      	nop
2ffea69c:	2fff68a7 	.word	0x2fff68a7
2ffea6a0:	2fffb3ac 	.word	0x2fffb3ac

2ffea6a4 <console_register>:
2ffea6a4:	4b0b      	ldr	r3, [pc, #44]	@ (2ffea6d4 <console_register+0x30>)
2ffea6a6:	b510      	push	{r4, lr}
2ffea6a8:	4604      	mov	r4, r0
2ffea6aa:	4298      	cmp	r0, r3
2ffea6ac:	d306      	bcc.n	2ffea6bc <console_register+0x18>
2ffea6ae:	4b0a      	ldr	r3, [pc, #40]	@ (2ffea6d8 <console_register+0x34>)
2ffea6b0:	4298      	cmp	r0, r3
2ffea6b2:	d203      	bcs.n	2ffea6bc <console_register+0x18>
2ffea6b4:	4809      	ldr	r0, [pc, #36]	@ (2ffea6dc <console_register+0x38>)
2ffea6b6:	2116      	movs	r1, #22
2ffea6b8:	f008 fd6e 	bl	2fff3198 <__assert>
2ffea6bc:	4620      	mov	r0, r4
2ffea6be:	f7ff ffdd 	bl	2ffea67c <console_is_registered>
2ffea6c2:	2801      	cmp	r0, #1
2ffea6c4:	f04f 0001 	mov.w	r0, #1
2ffea6c8:	bf1f      	itttt	ne
2ffea6ca:	4b05      	ldrne	r3, [pc, #20]	@ (2ffea6e0 <console_register+0x3c>)
2ffea6cc:	681a      	ldrne	r2, [r3, #0]
2ffea6ce:	6022      	strne	r2, [r4, #0]
2ffea6d0:	601c      	strne	r4, [r3, #0]
2ffea6d2:	bd10      	pop	{r4, pc}
2ffea6d4:	2fffa600 	.word	0x2fffa600
2ffea6d8:	2fffb200 	.word	0x2fffb200
2ffea6dc:	2fff68a7 	.word	0x2fff68a7
2ffea6e0:	2fffb3ac 	.word	0x2fffb3ac

2ffea6e4 <console_set_scope>:
2ffea6e4:	b508      	push	{r3, lr}
2ffea6e6:	b918      	cbnz	r0, 2ffea6f0 <console_set_scope+0xc>
2ffea6e8:	4804      	ldr	r0, [pc, #16]	@ (2ffea6fc <console_set_scope+0x18>)
2ffea6ea:	2146      	movs	r1, #70	@ 0x46
2ffea6ec:	f008 fd54 	bl	2fff3198 <__assert>
2ffea6f0:	6843      	ldr	r3, [r0, #4]
2ffea6f2:	f023 03ff 	bic.w	r3, r3, #255	@ 0xff
2ffea6f6:	4319      	orrs	r1, r3
2ffea6f8:	6041      	str	r1, [r0, #4]
2ffea6fa:	bd08      	pop	{r3, pc}
2ffea6fc:	2fff68a7 	.word	0x2fff68a7

2ffea700 <console_putc>:
2ffea700:	b5f8      	push	{r3, r4, r5, r6, r7, lr}
2ffea702:	4606      	mov	r6, r0
2ffea704:	4b12      	ldr	r3, [pc, #72]	@ (2ffea750 <console_putc+0x50>)
2ffea706:	f06f 057f 	mvn.w	r5, #127	@ 0x7f
2ffea70a:	4f12      	ldr	r7, [pc, #72]	@ (2ffea754 <console_putc+0x54>)
2ffea70c:	681c      	ldr	r4, [r3, #0]
2ffea70e:	b90c      	cbnz	r4, 2ffea714 <console_putc+0x14>
2ffea710:	4628      	mov	r0, r5
2ffea712:	bdf8      	pop	{r3, r4, r5, r6, r7, pc}
2ffea714:	6862      	ldr	r2, [r4, #4]
2ffea716:	783b      	ldrb	r3, [r7, #0]
2ffea718:	4213      	tst	r3, r2
2ffea71a:	d00d      	beq.n	2ffea738 <console_putc+0x38>
2ffea71c:	68a3      	ldr	r3, [r4, #8]
2ffea71e:	b15b      	cbz	r3, 2ffea738 <console_putc+0x38>
2ffea720:	2e0a      	cmp	r6, #10
2ffea722:	d00b      	beq.n	2ffea73c <console_putc+0x3c>
2ffea724:	68a3      	ldr	r3, [r4, #8]
2ffea726:	4621      	mov	r1, r4
2ffea728:	4630      	mov	r0, r6
2ffea72a:	4798      	blx	r3
2ffea72c:	f115 0f80 	cmn.w	r5, #128	@ 0x80
2ffea730:	d00c      	beq.n	2ffea74c <console_putc+0x4c>
2ffea732:	4285      	cmp	r5, r0
2ffea734:	bfa8      	it	ge
2ffea736:	4605      	movge	r5, r0
2ffea738:	6824      	ldr	r4, [r4, #0]
2ffea73a:	e7e8      	b.n	2ffea70e <console_putc+0xe>
2ffea73c:	05d2      	lsls	r2, r2, #23
2ffea73e:	d5f1      	bpl.n	2ffea724 <console_putc+0x24>
2ffea740:	4621      	mov	r1, r4
2ffea742:	200d      	movs	r0, #13
2ffea744:	4798      	blx	r3
2ffea746:	2800      	cmp	r0, #0
2ffea748:	daec      	bge.n	2ffea724 <console_putc+0x24>
2ffea74a:	e7ef      	b.n	2ffea72c <console_putc+0x2c>
2ffea74c:	4605      	mov	r5, r0
2ffea74e:	e7f3      	b.n	2ffea738 <console_putc+0x38>
2ffea750:	2fffb3ac 	.word	0x2fffb3ac
2ffea754:	2fffa5cc 	.word	0x2fffa5cc

2ffea758 <console_flush>:
2ffea758:	b538      	push	{r3, r4, r5, lr}
2ffea75a:	4b07      	ldr	r3, [pc, #28]	@ (2ffea778 <console_flush+0x20>)
2ffea75c:	4d07      	ldr	r5, [pc, #28]	@ (2ffea77c <console_flush+0x24>)
2ffea75e:	681c      	ldr	r4, [r3, #0]
2ffea760:	b904      	cbnz	r4, 2ffea764 <console_flush+0xc>
2ffea762:	bd38      	pop	{r3, r4, r5, pc}
2ffea764:	782a      	ldrb	r2, [r5, #0]
2ffea766:	6863      	ldr	r3, [r4, #4]
2ffea768:	421a      	tst	r2, r3
2ffea76a:	d003      	beq.n	2ffea774 <console_flush+0x1c>
2ffea76c:	68e3      	ldr	r3, [r4, #12]
2ffea76e:	b10b      	cbz	r3, 2ffea774 <console_flush+0x1c>
2ffea770:	4620      	mov	r0, r4
2ffea772:	4798      	blx	r3
2ffea774:	6824      	ldr	r4, [r4, #0]
2ffea776:	e7f3      	b.n	2ffea760 <console_flush+0x8>
2ffea778:	2fffb3ac 	.word	0x2fffb3ac
2ffea77c:	2fffa5cc 	.word	0x2fffa5cc

2ffea780 <udelay>:
2ffea780:	e92d 41f0 	stmdb	sp!, {r4, r5, r6, r7, r8, lr}
2ffea784:	4604      	mov	r4, r0
2ffea786:	4f18      	ldr	r7, [pc, #96]	@ (2ffea7e8 <udelay+0x68>)
2ffea788:	683b      	ldr	r3, [r7, #0]
2ffea78a:	b12b      	cbz	r3, 2ffea798 <udelay+0x18>
2ffea78c:	685a      	ldr	r2, [r3, #4]
2ffea78e:	b11a      	cbz	r2, 2ffea798 <udelay+0x18>
2ffea790:	689a      	ldr	r2, [r3, #8]
2ffea792:	b10a      	cbz	r2, 2ffea798 <udelay+0x18>
2ffea794:	681b      	ldr	r3, [r3, #0]
2ffea796:	b91b      	cbnz	r3, 2ffea7a0 <udelay+0x20>
2ffea798:	2119      	movs	r1, #25
2ffea79a:	4814      	ldr	r0, [pc, #80]	@ (2ffea7ec <udelay+0x6c>)
2ffea79c:	f008 fcfc 	bl	2fff3198 <__assert>
2ffea7a0:	2600      	movs	r6, #0
2ffea7a2:	4798      	blx	r3
2ffea7a4:	683b      	ldr	r3, [r7, #0]
2ffea7a6:	4680      	mov	r8, r0
2ffea7a8:	685a      	ldr	r2, [r3, #4]
2ffea7aa:	689d      	ldr	r5, [r3, #8]
2ffea7ac:	4633      	mov	r3, r6
2ffea7ae:	1e50      	subs	r0, r2, #1
2ffea7b0:	f146 31ff 	adc.w	r1, r6, #4294967295	@ 0xffffffff
2ffea7b4:	fbe4 0105 	umlal	r0, r1, r4, r5
2ffea7b8:	f008 eb7e 	blx	2fff2eb8 <__aeabi_uldivmod>
2ffea7bc:	1c44      	adds	r4, r0, #1
2ffea7be:	f46f 737a 	mvn.w	r3, #1000	@ 0x3e8
2ffea7c2:	f141 0500 	adc.w	r5, r1, #0
2ffea7c6:	429c      	cmp	r4, r3
2ffea7c8:	f175 0300 	sbcs.w	r3, r5, #0
2ffea7cc:	d301      	bcc.n	2ffea7d2 <udelay+0x52>
2ffea7ce:	212f      	movs	r1, #47	@ 0x2f
2ffea7d0:	e7e3      	b.n	2ffea79a <udelay+0x1a>
2ffea7d2:	683b      	ldr	r3, [r7, #0]
2ffea7d4:	681b      	ldr	r3, [r3, #0]
2ffea7d6:	4798      	blx	r3
2ffea7d8:	eba8 0300 	sub.w	r3, r8, r0
2ffea7dc:	42a3      	cmp	r3, r4
2ffea7de:	eb76 0305 	sbcs.w	r3, r6, r5
2ffea7e2:	d3f6      	bcc.n	2ffea7d2 <udelay+0x52>
2ffea7e4:	e8bd 81f0 	ldmia.w	sp!, {r4, r5, r6, r7, r8, pc}
2ffea7e8:	2fffb3b0 	.word	0x2fffb3b0
2ffea7ec:	2fff68c7 	.word	0x2fff68c7

2ffea7f0 <timer_init>:
2ffea7f0:	b508      	push	{r3, lr}
2ffea7f2:	b128      	cbz	r0, 2ffea800 <timer_init+0x10>
2ffea7f4:	6843      	ldr	r3, [r0, #4]
2ffea7f6:	b11b      	cbz	r3, 2ffea800 <timer_init+0x10>
2ffea7f8:	6883      	ldr	r3, [r0, #8]
2ffea7fa:	b10b      	cbz	r3, 2ffea800 <timer_init+0x10>
2ffea7fc:	6803      	ldr	r3, [r0, #0]
2ffea7fe:	b91b      	cbnz	r3, 2ffea808 <timer_init+0x18>
2ffea800:	4803      	ldr	r0, [pc, #12]	@ (2ffea810 <timer_init+0x20>)
2ffea802:	214c      	movs	r1, #76	@ 0x4c
2ffea804:	f008 fcc8 	bl	2fff3198 <__assert>
2ffea808:	4b02      	ldr	r3, [pc, #8]	@ (2ffea814 <timer_init+0x24>)
2ffea80a:	6018      	str	r0, [r3, #0]
2ffea80c:	bd08      	pop	{r3, pc}
2ffea80e:	bf00      	nop
2ffea810:	2fff68c7 	.word	0x2fff68c7
2ffea814:	2fffb3b0 	.word	0x2fffb3b0

2ffea818 <generic_delay_timer_init_args>:
2ffea818:	4b03      	ldr	r3, [pc, #12]	@ (2ffea828 <generic_delay_timer_init_args+0x10>)
2ffea81a:	4a04      	ldr	r2, [pc, #16]	@ (2ffea82c <generic_delay_timer_init_args+0x14>)
2ffea81c:	6058      	str	r0, [r3, #4]
2ffea81e:	4618      	mov	r0, r3
2ffea820:	601a      	str	r2, [r3, #0]
2ffea822:	6099      	str	r1, [r3, #8]
2ffea824:	f7ff bfe4 	b.w	2ffea7f0 <timer_init>
2ffea828:	2fffb3b4 	.word	0x2fffb3b4
2ffea82c:	2fff374d 	.word	0x2fff374d

2ffea830 <generic_delay_timer_init>:
2ffea830:	b510      	push	{r4, lr}
2ffea832:	ee10 3f31 	mrc	15, 0, r3, cr0, cr1, {1}
2ffea836:	f413 2f70 	tst.w	r3, #983040	@ 0xf0000
2ffea83a:	d103      	bne.n	2ffea844 <generic_delay_timer_init+0x14>
2ffea83c:	480f      	ldr	r0, [pc, #60]	@ (2ffea87c <generic_delay_timer_init+0x4c>)
2ffea83e:	212e      	movs	r1, #46	@ 0x2e
2ffea840:	f008 fcaa 	bl	2fff3198 <__assert>
2ffea844:	f009 fe94 	bl	2fff4570 <plat_get_syscnt_freq2>
2ffea848:	230a      	movs	r3, #10
2ffea84a:	4601      	mov	r1, r0
2ffea84c:	fbb0 f2f3 	udiv	r2, r0, r3
2ffea850:	fb03 0212 	mls	r2, r3, r2, r0
2ffea854:	480a      	ldr	r0, [pc, #40]	@ (2ffea880 <generic_delay_timer_init+0x50>)
2ffea856:	b96a      	cbnz	r2, 2ffea874 <generic_delay_timer_init+0x44>
2ffea858:	fbb0 f0f3 	udiv	r0, r0, r3
2ffea85c:	fbb1 f1f3 	udiv	r1, r1, r3
2ffea860:	fbb0 f2f3 	udiv	r2, r0, r3
2ffea864:	fbb1 f4f3 	udiv	r4, r1, r3
2ffea868:	fb03 0212 	mls	r2, r3, r2, r0
2ffea86c:	fb03 1414 	mls	r4, r3, r4, r1
2ffea870:	4322      	orrs	r2, r4
2ffea872:	d0f1      	beq.n	2ffea858 <generic_delay_timer_init+0x28>
2ffea874:	e8bd 4010 	ldmia.w	sp!, {r4, lr}
2ffea878:	f7ff bfce 	b.w	2ffea818 <generic_delay_timer_init_args>
2ffea87c:	2fff68e9 	.word	0x2fff68e9
2ffea880:	000f4240 	.word	0x000f4240

2ffea884 <fwu_metadata_load>:
2ffea884:	b57f      	push	{r0, r1, r2, r3, r4, r5, r6, lr}
2ffea886:	aa02      	add	r2, sp, #8
2ffea888:	4669      	mov	r1, sp
2ffea88a:	4606      	mov	r6, r0
2ffea88c:	f006 fe24 	bl	2fff14d8 <plat_fwu_set_metadata_image_source>
2ffea890:	4605      	mov	r5, r0
2ffea892:	b138      	cbz	r0, 2ffea8a4 <fwu_metadata_load+0x20>
2ffea894:	4602      	mov	r2, r0
2ffea896:	4631      	mov	r1, r6
2ffea898:	4849      	ldr	r0, [pc, #292]	@ (2ffea9c0 <fwu_metadata_load+0x13c>)
2ffea89a:	f7ff fcc7 	bl	2ffea22c <tf_log>
2ffea89e:	4628      	mov	r0, r5
2ffea8a0:	b004      	add	sp, #16
2ffea8a2:	bd70      	pop	{r4, r5, r6, pc}
2ffea8a4:	9902      	ldr	r1, [sp, #8]
2ffea8a6:	aa01      	add	r2, sp, #4
2ffea8a8:	9800      	ldr	r0, [sp, #0]
2ffea8aa:	f000 fc53 	bl	2ffeb154 <io_open>
2ffea8ae:	4605      	mov	r5, r0
2ffea8b0:	b118      	cbz	r0, 2ffea8ba <fwu_metadata_load+0x36>
2ffea8b2:	4602      	mov	r2, r0
2ffea8b4:	4631      	mov	r1, r6
2ffea8b6:	4843      	ldr	r0, [pc, #268]	@ (2ffea9c4 <fwu_metadata_load+0x140>)
2ffea8b8:	e7ef      	b.n	2ffea89a <fwu_metadata_load+0x16>
2ffea8ba:	4c43      	ldr	r4, [pc, #268]	@ (2ffea9c8 <fwu_metadata_load+0x144>)
2ffea8bc:	ab03      	add	r3, sp, #12
2ffea8be:	9801      	ldr	r0, [sp, #4]
2ffea8c0:	2278      	movs	r2, #120	@ 0x78
2ffea8c2:	4621      	mov	r1, r4
2ffea8c4:	f000 fcd0 	bl	2ffeb268 <io_read>
2ffea8c8:	4605      	mov	r5, r0
2ffea8ca:	b140      	cbz	r0, 2ffea8de <fwu_metadata_load+0x5a>
2ffea8cc:	4602      	mov	r2, r0
2ffea8ce:	4631      	mov	r1, r6
2ffea8d0:	483e      	ldr	r0, [pc, #248]	@ (2ffea9cc <fwu_metadata_load+0x148>)
2ffea8d2:	f7ff fcab 	bl	2ffea22c <tf_log>
2ffea8d6:	9801      	ldr	r0, [sp, #4]
2ffea8d8:	f000 fcea 	bl	2ffeb2b0 <io_close>
2ffea8dc:	e7df      	b.n	2ffea89e <fwu_metadata_load+0x1a>
2ffea8de:	9903      	ldr	r1, [sp, #12]
2ffea8e0:	2978      	cmp	r1, #120	@ 0x78
2ffea8e2:	d006      	beq.n	2ffea8f2 <fwu_metadata_load+0x6e>
2ffea8e4:	483a      	ldr	r0, [pc, #232]	@ (2ffea9d0 <fwu_metadata_load+0x14c>)
2ffea8e6:	2278      	movs	r2, #120	@ 0x78
2ffea8e8:	f7ff fca0 	bl	2ffea22c <tf_log>
2ffea8ec:	f04f 35ff 	mov.w	r5, #4294967295	@ 0xffffffff
2ffea8f0:	e7f1      	b.n	2ffea8d6 <fwu_metadata_load+0x52>
2ffea8f2:	7963      	ldrb	r3, [r4, #5]
2ffea8f4:	7922      	ldrb	r2, [r4, #4]
2ffea8f6:	ea42 2203 	orr.w	r2, r2, r3, lsl #8
2ffea8fa:	79a3      	ldrb	r3, [r4, #6]
2ffea8fc:	ea42 4203 	orr.w	r2, r2, r3, lsl #16
2ffea900:	79e3      	ldrb	r3, [r4, #7]
2ffea902:	ea42 6203 	orr.w	r2, r2, r3, lsl #24
2ffea906:	2a02      	cmp	r2, #2
2ffea908:	d004      	beq.n	2ffea914 <fwu_metadata_load+0x90>
2ffea90a:	4832      	ldr	r0, [pc, #200]	@ (2ffea9d4 <fwu_metadata_load+0x150>)
2ffea90c:	4611      	mov	r1, r2
2ffea90e:	f7ff fc8d 	bl	2ffea22c <tf_log>
2ffea912:	e00e      	b.n	2ffea932 <fwu_metadata_load+0xae>
2ffea914:	7a63      	ldrb	r3, [r4, #9]
2ffea916:	7a21      	ldrb	r1, [r4, #8]
2ffea918:	ea41 2103 	orr.w	r1, r1, r3, lsl #8
2ffea91c:	7aa3      	ldrb	r3, [r4, #10]
2ffea91e:	ea41 4103 	orr.w	r1, r1, r3, lsl #16
2ffea922:	7ae3      	ldrb	r3, [r4, #11]
2ffea924:	ea41 6103 	orr.w	r1, r1, r3, lsl #24
2ffea928:	2901      	cmp	r1, #1
2ffea92a:	d909      	bls.n	2ffea940 <fwu_metadata_load+0xbc>
2ffea92c:	482a      	ldr	r0, [pc, #168]	@ (2ffea9d8 <fwu_metadata_load+0x154>)
2ffea92e:	f7ff fc7d 	bl	2ffea22c <tf_log>
2ffea932:	492a      	ldr	r1, [pc, #168]	@ (2ffea9dc <fwu_metadata_load+0x158>)
2ffea934:	f06f 0515 	mvn.w	r5, #21
2ffea938:	4829      	ldr	r0, [pc, #164]	@ (2ffea9e0 <fwu_metadata_load+0x15c>)
2ffea93a:	f7ff fc77 	bl	2ffea22c <tf_log>
2ffea93e:	e7ca      	b.n	2ffea8d6 <fwu_metadata_load+0x52>
2ffea940:	7b63      	ldrb	r3, [r4, #13]
2ffea942:	7b21      	ldrb	r1, [r4, #12]
2ffea944:	ea41 2103 	orr.w	r1, r1, r3, lsl #8
2ffea948:	7ba3      	ldrb	r3, [r4, #14]
2ffea94a:	ea41 4103 	orr.w	r1, r1, r3, lsl #16
2ffea94e:	7be3      	ldrb	r3, [r4, #15]
2ffea950:	ea41 6103 	orr.w	r1, r1, r3, lsl #24
2ffea954:	2901      	cmp	r1, #1
2ffea956:	d901      	bls.n	2ffea95c <fwu_metadata_load+0xd8>
2ffea958:	4822      	ldr	r0, [pc, #136]	@ (2ffea9e4 <fwu_metadata_load+0x160>)
2ffea95a:	e7e8      	b.n	2ffea92e <fwu_metadata_load+0xaa>
2ffea95c:	f894 1020 	ldrb.w	r1, [r4, #32]
2ffea960:	2902      	cmp	r1, #2
2ffea962:	d001      	beq.n	2ffea968 <fwu_metadata_load+0xe4>
2ffea964:	4820      	ldr	r0, [pc, #128]	@ (2ffea9e8 <fwu_metadata_load+0x164>)
2ffea966:	e7e2      	b.n	2ffea92e <fwu_metadata_load+0xaa>
2ffea968:	f894 1022 	ldrb.w	r1, [r4, #34]	@ 0x22
2ffea96c:	f894 3023 	ldrb.w	r3, [r4, #35]	@ 0x23
2ffea970:	ea41 2103 	orr.w	r1, r1, r3, lsl #8
2ffea974:	2901      	cmp	r1, #1
2ffea976:	d002      	beq.n	2ffea97e <fwu_metadata_load+0xfa>
2ffea978:	481c      	ldr	r0, [pc, #112]	@ (2ffea9ec <fwu_metadata_load+0x168>)
2ffea97a:	2201      	movs	r2, #1
2ffea97c:	e7d7      	b.n	2ffea92e <fwu_metadata_load+0xaa>
2ffea97e:	7d21      	ldrb	r1, [r4, #20]
2ffea980:	7d63      	ldrb	r3, [r4, #21]
2ffea982:	ea41 2103 	orr.w	r1, r1, r3, lsl #8
2ffea986:	2920      	cmp	r1, #32
2ffea988:	d001      	beq.n	2ffea98e <fwu_metadata_load+0x10a>
2ffea98a:	4819      	ldr	r0, [pc, #100]	@ (2ffea9f0 <fwu_metadata_load+0x16c>)
2ffea98c:	e7bf      	b.n	2ffea90e <fwu_metadata_load+0x8a>
2ffea98e:	4e19      	ldr	r6, [pc, #100]	@ (2ffea9f4 <fwu_metadata_load+0x170>)
2ffea990:	2274      	movs	r2, #116	@ 0x74
2ffea992:	2000      	movs	r0, #0
2ffea994:	4631      	mov	r1, r6
2ffea996:	f009 fdb8 	bl	2fff450a <tf_crc32>
2ffea99a:	7862      	ldrb	r2, [r4, #1]
2ffea99c:	f816 3c04 	ldrb.w	r3, [r6, #-4]
2ffea9a0:	ea43 2302 	orr.w	r3, r3, r2, lsl #8
2ffea9a4:	78a2      	ldrb	r2, [r4, #2]
2ffea9a6:	ea43 4302 	orr.w	r3, r3, r2, lsl #16
2ffea9aa:	78e2      	ldrb	r2, [r4, #3]
2ffea9ac:	ea43 6302 	orr.w	r3, r3, r2, lsl #24
2ffea9b0:	4298      	cmp	r0, r3
2ffea9b2:	d090      	beq.n	2ffea8d6 <fwu_metadata_load+0x52>
2ffea9b4:	4909      	ldr	r1, [pc, #36]	@ (2ffea9dc <fwu_metadata_load+0x158>)
2ffea9b6:	4810      	ldr	r0, [pc, #64]	@ (2ffea9f8 <fwu_metadata_load+0x174>)
2ffea9b8:	f7ff fc38 	bl	2ffea22c <tf_log>
2ffea9bc:	e796      	b.n	2ffea8ec <fwu_metadata_load+0x68>
2ffea9be:	bf00      	nop
2ffea9c0:	2fff6913 	.word	0x2fff6913
2ffea9c4:	2fff6941 	.word	0x2fff6941
2ffea9c8:	2fffba9d 	.word	0x2fffba9d
2ffea9cc:	2fff6966 	.word	0x2fff6966
2ffea9d0:	2fff6988 	.word	0x2fff6988
2ffea9d4:	2fff69bb 	.word	0x2fff69bb
2ffea9d8:	2fff69e2 	.word	0x2fff69e2
2ffea9dc:	2fff6b42 	.word	0x2fff6b42
2ffea9e0:	2fff6b5f 	.word	0x2fff6b5f
2ffea9e4:	2fff6a20 	.word	0x2fff6a20
2ffea9e8:	2fff6a67 	.word	0x2fff6a67
2ffea9ec:	2fff6ab4 	.word	0x2fff6ab4
2ffea9f0:	2fff6b02 	.word	0x2fff6b02
2ffea9f4:	2fffbaa1 	.word	0x2fffbaa1
2ffea9f8:	2fff6b6b 	.word	0x2fff6b6b

2ffea9fc <fwu_get_alternate_boot_bank>:
2ffea9fc:	4b22      	ldr	r3, [pc, #136]	@ (2ffeaa88 <fwu_get_alternate_boot_bank+0x8c>)
2ffea9fe:	b510      	push	{r4, lr}
2ffeaa00:	7b5a      	ldrb	r2, [r3, #13]
2ffeaa02:	7b18      	ldrb	r0, [r3, #12]
2ffeaa04:	ea40 2002 	orr.w	r0, r0, r2, lsl #8
2ffeaa08:	7b9a      	ldrb	r2, [r3, #14]
2ffeaa0a:	ea40 4002 	orr.w	r0, r0, r2, lsl #16
2ffeaa0e:	7bda      	ldrb	r2, [r3, #15]
2ffeaa10:	ea40 6002 	orr.w	r0, r0, r2, lsl #24
2ffeaa14:	181a      	adds	r2, r3, r0
2ffeaa16:	7e11      	ldrb	r1, [r2, #24]
2ffeaa18:	29fc      	cmp	r1, #252	@ 0xfc
2ffeaa1a:	d020      	beq.n	2ffeaa5e <fwu_get_alternate_boot_bank+0x62>
2ffeaa1c:	7a5c      	ldrb	r4, [r3, #9]
2ffeaa1e:	7a1a      	ldrb	r2, [r3, #8]
2ffeaa20:	ea42 2204 	orr.w	r2, r2, r4, lsl #8
2ffeaa24:	7a9c      	ldrb	r4, [r3, #10]
2ffeaa26:	ea42 4204 	orr.w	r2, r2, r4, lsl #16
2ffeaa2a:	7adc      	ldrb	r4, [r3, #11]
2ffeaa2c:	ea52 6204 	orrs.w	r2, r2, r4, lsl #24
2ffeaa30:	d005      	beq.n	2ffeaa3e <fwu_get_alternate_boot_bank+0x42>
2ffeaa32:	b1c8      	cbz	r0, 2ffeaa68 <fwu_get_alternate_boot_bank+0x6c>
2ffeaa34:	7e1c      	ldrb	r4, [r3, #24]
2ffeaa36:	2cfc      	cmp	r4, #252	@ 0xfc
2ffeaa38:	d014      	beq.n	2ffeaa64 <fwu_get_alternate_boot_bank+0x68>
2ffeaa3a:	2a01      	cmp	r2, #1
2ffeaa3c:	d016      	beq.n	2ffeaa6c <fwu_get_alternate_boot_bank+0x70>
2ffeaa3e:	2801      	cmp	r0, #1
2ffeaa40:	d002      	beq.n	2ffeaa48 <fwu_get_alternate_boot_bank+0x4c>
2ffeaa42:	7e5c      	ldrb	r4, [r3, #25]
2ffeaa44:	2cfc      	cmp	r4, #252	@ 0xfc
2ffeaa46:	d00b      	beq.n	2ffeaa60 <fwu_get_alternate_boot_bank+0x64>
2ffeaa48:	29fe      	cmp	r1, #254	@ 0xfe
2ffeaa4a:	d008      	beq.n	2ffeaa5e <fwu_get_alternate_boot_bank+0x62>
2ffeaa4c:	b992      	cbnz	r2, 2ffeaa74 <fwu_get_alternate_boot_bank+0x78>
2ffeaa4e:	2801      	cmp	r0, #1
2ffeaa50:	d017      	beq.n	2ffeaa82 <fwu_get_alternate_boot_bank+0x86>
2ffeaa52:	7e5b      	ldrb	r3, [r3, #25]
2ffeaa54:	2bfe      	cmp	r3, #254	@ 0xfe
2ffeaa56:	bf0c      	ite	eq
2ffeaa58:	2001      	moveq	r0, #1
2ffeaa5a:	f04f 30ff 	movne.w	r0, #4294967295	@ 0xffffffff
2ffeaa5e:	bd10      	pop	{r4, pc}
2ffeaa60:	2001      	movs	r0, #1
2ffeaa62:	e7fc      	b.n	2ffeaa5e <fwu_get_alternate_boot_bank+0x62>
2ffeaa64:	2000      	movs	r0, #0
2ffeaa66:	e7fa      	b.n	2ffeaa5e <fwu_get_alternate_boot_bank+0x62>
2ffeaa68:	2a01      	cmp	r2, #1
2ffeaa6a:	d1ea      	bne.n	2ffeaa42 <fwu_get_alternate_boot_bank+0x46>
2ffeaa6c:	29fe      	cmp	r1, #254	@ 0xfe
2ffeaa6e:	d0f6      	beq.n	2ffeaa5e <fwu_get_alternate_boot_bank+0x62>
2ffeaa70:	b910      	cbnz	r0, 2ffeaa78 <fwu_get_alternate_boot_bank+0x7c>
2ffeaa72:	e006      	b.n	2ffeaa82 <fwu_get_alternate_boot_bank+0x86>
2ffeaa74:	2800      	cmp	r0, #0
2ffeaa76:	d0ec      	beq.n	2ffeaa52 <fwu_get_alternate_boot_bank+0x56>
2ffeaa78:	7e19      	ldrb	r1, [r3, #24]
2ffeaa7a:	29fe      	cmp	r1, #254	@ 0xfe
2ffeaa7c:	d0f2      	beq.n	2ffeaa64 <fwu_get_alternate_boot_bank+0x68>
2ffeaa7e:	2a01      	cmp	r2, #1
2ffeaa80:	d1e5      	bne.n	2ffeaa4e <fwu_get_alternate_boot_bank+0x52>
2ffeaa82:	f04f 30ff 	mov.w	r0, #4294967295	@ 0xffffffff
2ffeaa86:	e7ea      	b.n	2ffeaa5e <fwu_get_alternate_boot_bank+0x62>
2ffeaa88:	2fffba9d 	.word	0x2fffba9d

2ffeaa8c <fwu_get_metadata>:
2ffeaa8c:	b508      	push	{r3, lr}
2ffeaa8e:	4b05      	ldr	r3, [pc, #20]	@ (2ffeaaa4 <fwu_get_metadata+0x18>)
2ffeaa90:	781b      	ldrb	r3, [r3, #0]
2ffeaa92:	b923      	cbnz	r3, 2ffeaa9e <fwu_get_metadata+0x12>
2ffeaa94:	4804      	ldr	r0, [pc, #16]	@ (2ffeaaa8 <fwu_get_metadata+0x1c>)
2ffeaa96:	f240 1107 	movw	r1, #263	@ 0x107
2ffeaa9a:	f008 fb7d 	bl	2fff3198 <__assert>
2ffeaa9e:	4803      	ldr	r0, [pc, #12]	@ (2ffeaaac <fwu_get_metadata+0x20>)
2ffeaaa0:	bd08      	pop	{r3, pc}
2ffeaaa2:	bf00      	nop
2ffeaaa4:	2fffba9c 	.word	0x2fffba9c
2ffeaaa8:	2fff6b74 	.word	0x2fff6b74
2ffeaaac:	2fffba9d 	.word	0x2fffba9d

2ffeaab0 <fwu_init>:
2ffeaab0:	b508      	push	{r3, lr}
2ffeaab2:	200c      	movs	r0, #12
2ffeaab4:	f7ff fee6 	bl	2ffea884 <fwu_metadata_load>
2ffeaab8:	b168      	cbz	r0, 2ffeaad6 <fwu_init+0x26>
2ffeaaba:	480b      	ldr	r0, [pc, #44]	@ (2ffeaae8 <fwu_init+0x38>)
2ffeaabc:	f7ff fbb6 	bl	2ffea22c <tf_log>
2ffeaac0:	200d      	movs	r0, #13
2ffeaac2:	f7ff fedf 	bl	2ffea884 <fwu_metadata_load>
2ffeaac6:	b130      	cbz	r0, 2ffeaad6 <fwu_init+0x26>
2ffeaac8:	4808      	ldr	r0, [pc, #32]	@ (2ffeaaec <fwu_init+0x3c>)
2ffeaaca:	f7ff fbaf 	bl	2ffea22c <tf_log>
2ffeaace:	f7ff fe43 	bl	2ffea758 <console_flush>
2ffeaad2:	f7fe ebd0 	blx	2ffe9274 <el3_panic>
2ffeaad6:	4b06      	ldr	r3, [pc, #24]	@ (2ffeaaf0 <fwu_init+0x40>)
2ffeaad8:	2201      	movs	r2, #1
2ffeaada:	4806      	ldr	r0, [pc, #24]	@ (2ffeaaf4 <fwu_init+0x44>)
2ffeaadc:	701a      	strb	r2, [r3, #0]
2ffeaade:	e8bd 4008 	ldmia.w	sp!, {r3, lr}
2ffeaae2:	f006 bc91 	b.w	2fff1408 <plat_fwu_set_images_source>
2ffeaae6:	bf00      	nop
2ffeaae8:	2fff6b86 	.word	0x2fff6b86
2ffeaaec:	2fff6bc0 	.word	0x2fff6bc0
2ffeaaf0:	2fffba9c 	.word	0x2fffba9c
2ffeaaf4:	2fffba9d 	.word	0x2fffba9d

2ffeaaf8 <fip_file_close>:
2ffeaaf8:	b510      	push	{r4, lr}
2ffeaafa:	4604      	mov	r4, r0
2ffeaafc:	4805      	ldr	r0, [pc, #20]	@ (2ffeab14 <fip_file_close+0x1c>)
2ffeaafe:	e9d0 3206 	ldrd	r3, r2, [r0, #24]
2ffeab02:	4313      	orrs	r3, r2
2ffeab04:	d002      	beq.n	2ffeab0c <fip_file_close+0x14>
2ffeab06:	2130      	movs	r1, #48	@ 0x30
2ffeab08:	f7fe ed7e 	blx	2ffe9608 <zero_normalmem>
2ffeab0c:	2000      	movs	r0, #0
2ffeab0e:	6060      	str	r0, [r4, #4]
2ffeab10:	bd10      	pop	{r4, pc}
2ffeab12:	bf00      	nop
2ffeab14:	2fffb200 	.word	0x2fffb200

2ffeab18 <fip_dev_init>:
2ffeab18:	b5f0      	push	{r4, r5, r6, r7, lr}
2ffeab1a:	460c      	mov	r4, r1
2ffeab1c:	b087      	sub	sp, #28
2ffeab1e:	b918      	cbnz	r0, 2ffeab28 <fip_dev_init+0x10>
2ffeab20:	481d      	ldr	r0, [pc, #116]	@ (2ffeab98 <fip_dev_init+0x80>)
2ffeab22:	21e1      	movs	r1, #225	@ 0xe1
2ffeab24:	f008 fb38 	bl	2fff3198 <__assert>
2ffeab28:	4f1c      	ldr	r7, [pc, #112]	@ (2ffeab9c <fip_dev_init+0x84>)
2ffeab2a:	4e1d      	ldr	r6, [pc, #116]	@ (2ffeaba0 <fip_dev_init+0x88>)
2ffeab2c:	6845      	ldr	r5, [r0, #4]
2ffeab2e:	463a      	mov	r2, r7
2ffeab30:	4631      	mov	r1, r6
2ffeab32:	4620      	mov	r0, r4
2ffeab34:	f006 fbf0 	bl	2fff1318 <plat_get_image_source>
2ffeab38:	4602      	mov	r2, r0
2ffeab3a:	b140      	cbz	r0, 2ffeab4e <fip_dev_init+0x36>
2ffeab3c:	4819      	ldr	r0, [pc, #100]	@ (2ffeaba4 <fip_dev_init+0x8c>)
2ffeab3e:	4621      	mov	r1, r4
2ffeab40:	f06f 0401 	mvn.w	r4, #1
2ffeab44:	f7ff fb72 	bl	2ffea22c <tf_log>
2ffeab48:	4620      	mov	r0, r4
2ffeab4a:	b007      	add	sp, #28
2ffeab4c:	bdf0      	pop	{r4, r5, r6, r7, pc}
2ffeab4e:	6839      	ldr	r1, [r7, #0]
2ffeab50:	466a      	mov	r2, sp
2ffeab52:	6830      	ldr	r0, [r6, #0]
2ffeab54:	f000 fafe 	bl	2ffeb154 <io_open>
2ffeab58:	4602      	mov	r2, r0
2ffeab5a:	b110      	cbz	r0, 2ffeab62 <fip_dev_init+0x4a>
2ffeab5c:	4812      	ldr	r0, [pc, #72]	@ (2ffeaba8 <fip_dev_init+0x90>)
2ffeab5e:	4621      	mov	r1, r4
2ffeab60:	e7ee      	b.n	2ffeab40 <fip_dev_init+0x28>
2ffeab62:	9800      	ldr	r0, [sp, #0]
2ffeab64:	ab01      	add	r3, sp, #4
2ffeab66:	2210      	movs	r2, #16
2ffeab68:	a902      	add	r1, sp, #8
2ffeab6a:	f000 fb7d 	bl	2ffeb268 <io_read>
2ffeab6e:	4604      	mov	r4, r0
2ffeab70:	b938      	cbnz	r0, 2ffeab82 <fip_dev_init+0x6a>
2ffeab72:	4b0e      	ldr	r3, [pc, #56]	@ (2ffeabac <fip_dev_init+0x94>)
2ffeab74:	9a02      	ldr	r2, [sp, #8]
2ffeab76:	429a      	cmp	r2, r3
2ffeab78:	d107      	bne.n	2ffeab8a <fip_dev_init+0x72>
2ffeab7a:	9b03      	ldr	r3, [sp, #12]
2ffeab7c:	b12b      	cbz	r3, 2ffeab8a <fip_dev_init+0x72>
2ffeab7e:	9b05      	ldr	r3, [sp, #20]
2ffeab80:	80ab      	strh	r3, [r5, #4]
2ffeab82:	9800      	ldr	r0, [sp, #0]
2ffeab84:	f000 fb94 	bl	2ffeb2b0 <io_close>
2ffeab88:	e7de      	b.n	2ffeab48 <fip_dev_init+0x30>
2ffeab8a:	4809      	ldr	r0, [pc, #36]	@ (2ffeabb0 <fip_dev_init+0x98>)
2ffeab8c:	f06f 0401 	mvn.w	r4, #1
2ffeab90:	f7ff fb4c 	bl	2ffea22c <tf_log>
2ffeab94:	e7f5      	b.n	2ffeab82 <fip_dev_init+0x6a>
2ffeab96:	bf00      	nop
2ffeab98:	2fff6be6 	.word	0x2fff6be6
2ffeab9c:	2fffb3d4 	.word	0x2fffb3d4
2ffeaba0:	2fffb3d8 	.word	0x2fffb3d8
2ffeaba4:	2fff65ae 	.word	0x2fff65ae
2ffeaba8:	2fff65df 	.word	0x2fff65df
2ffeabac:	aa640001 	.word	0xaa640001
2ffeabb0:	2fff6bfa 	.word	0x2fff6bfa

2ffeabb4 <fip_file_read>:
2ffeabb4:	e92d 41f3 	stmdb	sp!, {r0, r1, r4, r5, r6, r7, r8, lr}
2ffeabb8:	460f      	mov	r7, r1
2ffeabba:	4690      	mov	r8, r2
2ffeabbc:	461e      	mov	r6, r3
2ffeabbe:	4604      	mov	r4, r0
2ffeabc0:	b920      	cbnz	r0, 2ffeabcc <fip_file_read+0x18>
2ffeabc2:	f44f 71c2 	mov.w	r1, #388	@ 0x184
2ffeabc6:	4822      	ldr	r0, [pc, #136]	@ (2ffeac50 <fip_file_read+0x9c>)
2ffeabc8:	f008 fae6 	bl	2fff3198 <__assert>
2ffeabcc:	b913      	cbnz	r3, 2ffeabd4 <fip_file_read+0x20>
2ffeabce:	f240 1185 	movw	r1, #389	@ 0x185
2ffeabd2:	e7f8      	b.n	2ffeabc6 <fip_file_read+0x12>
2ffeabd4:	6843      	ldr	r3, [r0, #4]
2ffeabd6:	b913      	cbnz	r3, 2ffeabde <fip_file_read+0x2a>
2ffeabd8:	f44f 71c3 	mov.w	r1, #390	@ 0x186
2ffeabdc:	e7f3      	b.n	2ffeabc6 <fip_file_read+0x12>
2ffeabde:	4b1d      	ldr	r3, [pc, #116]	@ (2ffeac54 <fip_file_read+0xa0>)
2ffeabe0:	aa01      	add	r2, sp, #4
2ffeabe2:	6819      	ldr	r1, [r3, #0]
2ffeabe4:	4b1c      	ldr	r3, [pc, #112]	@ (2ffeac58 <fip_file_read+0xa4>)
2ffeabe6:	6818      	ldr	r0, [r3, #0]
2ffeabe8:	f000 fab4 	bl	2ffeb154 <io_open>
2ffeabec:	4603      	mov	r3, r0
2ffeabee:	b148      	cbz	r0, 2ffeac04 <fip_file_read+0x50>
2ffeabf0:	4601      	mov	r1, r0
2ffeabf2:	f06f 0401 	mvn.w	r4, #1
2ffeabf6:	4819      	ldr	r0, [pc, #100]	@ (2ffeac5c <fip_file_read+0xa8>)
2ffeabf8:	f7ff fb18 	bl	2ffea22c <tf_log>
2ffeabfc:	4620      	mov	r0, r4
2ffeabfe:	b002      	add	sp, #8
2ffeac00:	e8bd 81f0 	ldmia.w	sp!, {r4, r5, r6, r7, r8, pc}
2ffeac04:	6865      	ldr	r5, [r4, #4]
2ffeac06:	9801      	ldr	r0, [sp, #4]
2ffeac08:	69a9      	ldr	r1, [r5, #24]
2ffeac0a:	682a      	ldr	r2, [r5, #0]
2ffeac0c:	440a      	add	r2, r1
2ffeac0e:	2101      	movs	r1, #1
2ffeac10:	f000 faea 	bl	2ffeb1e8 <io_seek>
2ffeac14:	b140      	cbz	r0, 2ffeac28 <fip_file_read+0x74>
2ffeac16:	4812      	ldr	r0, [pc, #72]	@ (2ffeac60 <fip_file_read+0xac>)
2ffeac18:	f7ff fb08 	bl	2ffea22c <tf_log>
2ffeac1c:	f06f 0401 	mvn.w	r4, #1
2ffeac20:	9801      	ldr	r0, [sp, #4]
2ffeac22:	f000 fb45 	bl	2ffeb2b0 <io_close>
2ffeac26:	e7e9      	b.n	2ffeabfc <fip_file_read+0x48>
2ffeac28:	9801      	ldr	r0, [sp, #4]
2ffeac2a:	466b      	mov	r3, sp
2ffeac2c:	4642      	mov	r2, r8
2ffeac2e:	4639      	mov	r1, r7
2ffeac30:	f000 fb1a 	bl	2ffeb268 <io_read>
2ffeac34:	4604      	mov	r4, r0
2ffeac36:	b120      	cbz	r0, 2ffeac42 <fip_file_read+0x8e>
2ffeac38:	4601      	mov	r1, r0
2ffeac3a:	480a      	ldr	r0, [pc, #40]	@ (2ffeac64 <fip_file_read+0xb0>)
2ffeac3c:	f7ff faf6 	bl	2ffea22c <tf_log>
2ffeac40:	e7ec      	b.n	2ffeac1c <fip_file_read+0x68>
2ffeac42:	9a00      	ldr	r2, [sp, #0]
2ffeac44:	6032      	str	r2, [r6, #0]
2ffeac46:	682b      	ldr	r3, [r5, #0]
2ffeac48:	4413      	add	r3, r2
2ffeac4a:	602b      	str	r3, [r5, #0]
2ffeac4c:	e7e8      	b.n	2ffeac20 <fip_file_read+0x6c>
2ffeac4e:	bf00      	nop
2ffeac50:	2fff6be6 	.word	0x2fff6be6
2ffeac54:	2fffb3d4 	.word	0x2fffb3d4
2ffeac58:	2fffb3d8 	.word	0x2fffb3d8
2ffeac5c:	2fff6c28 	.word	0x2fff6c28
2ffeac60:	2fff6c42 	.word	0x2fff6c42
2ffeac64:	2fff6c62 	.word	0x2fff6c62

2ffeac68 <fip_file_len>:
2ffeac68:	b508      	push	{r3, lr}
2ffeac6a:	b920      	cbnz	r0, 2ffeac76 <fip_file_len+0xe>
2ffeac6c:	f240 1171 	movw	r1, #369	@ 0x171
2ffeac70:	4805      	ldr	r0, [pc, #20]	@ (2ffeac88 <fip_file_len+0x20>)
2ffeac72:	f008 fa91 	bl	2fff3198 <__assert>
2ffeac76:	b911      	cbnz	r1, 2ffeac7e <fip_file_len+0x16>
2ffeac78:	f44f 71b9 	mov.w	r1, #370	@ 0x172
2ffeac7c:	e7f8      	b.n	2ffeac70 <fip_file_len+0x8>
2ffeac7e:	6843      	ldr	r3, [r0, #4]
2ffeac80:	2000      	movs	r0, #0
2ffeac82:	6a1b      	ldr	r3, [r3, #32]
2ffeac84:	600b      	str	r3, [r1, #0]
2ffeac86:	bd08      	pop	{r3, pc}
2ffeac88:	2fff6be6 	.word	0x2fff6be6

2ffeac8c <fip_file_open>:
2ffeac8c:	e92d 43f7 	stmdb	sp!, {r0, r1, r2, r4, r5, r6, r7, r8, r9, lr}
2ffeac90:	4616      	mov	r6, r2
2ffeac92:	460f      	mov	r7, r1
2ffeac94:	b921      	cbnz	r1, 2ffeaca0 <fip_file_open+0x14>
2ffeac96:	f44f 7193 	mov.w	r1, #294	@ 0x126
2ffeac9a:	482e      	ldr	r0, [pc, #184]	@ (2ffead54 <fip_file_open+0xc8>)
2ffeac9c:	f008 fa7c 	bl	2fff3198 <__assert>
2ffeaca0:	b912      	cbnz	r2, 2ffeaca8 <fip_file_open+0x1c>
2ffeaca2:	f240 1127 	movw	r1, #295	@ 0x127
2ffeaca6:	e7f8      	b.n	2ffeac9a <fip_file_open+0xe>
2ffeaca8:	4d2b      	ldr	r5, [pc, #172]	@ (2ffead58 <fip_file_open+0xcc>)
2ffeacaa:	e9d5 3206 	ldrd	r3, r2, [r5, #24]
2ffeacae:	4313      	orrs	r3, r2
2ffeacb0:	d008      	beq.n	2ffeacc4 <fip_file_open+0x38>
2ffeacb2:	482a      	ldr	r0, [pc, #168]	@ (2ffead5c <fip_file_open+0xd0>)
2ffeacb4:	f06f 0416 	mvn.w	r4, #22
2ffeacb8:	f7ff fab8 	bl	2ffea22c <tf_log>
2ffeacbc:	4620      	mov	r0, r4
2ffeacbe:	b003      	add	sp, #12
2ffeacc0:	e8bd 83f0 	ldmia.w	sp!, {r4, r5, r6, r7, r8, r9, pc}
2ffeacc4:	4b26      	ldr	r3, [pc, #152]	@ (2ffead60 <fip_file_open+0xd4>)
2ffeacc6:	466a      	mov	r2, sp
2ffeacc8:	6819      	ldr	r1, [r3, #0]
2ffeacca:	4b26      	ldr	r3, [pc, #152]	@ (2ffead64 <fip_file_open+0xd8>)
2ffeaccc:	6818      	ldr	r0, [r3, #0]
2ffeacce:	f000 fa41 	bl	2ffeb154 <io_open>
2ffeacd2:	4601      	mov	r1, r0
2ffeacd4:	b128      	cbz	r0, 2ffeace2 <fip_file_open+0x56>
2ffeacd6:	4824      	ldr	r0, [pc, #144]	@ (2ffead68 <fip_file_open+0xdc>)
2ffeacd8:	f06f 0401 	mvn.w	r4, #1
2ffeacdc:	f7ff faa6 	bl	2ffea22c <tf_log>
2ffeace0:	e7ec      	b.n	2ffeacbc <fip_file_open+0x30>
2ffeace2:	9800      	ldr	r0, [sp, #0]
2ffeace4:	2210      	movs	r2, #16
2ffeace6:	2300      	movs	r3, #0
2ffeace8:	2101      	movs	r1, #1
2ffeacea:	f000 fa7d 	bl	2ffeb1e8 <io_seek>
2ffeacee:	b9b0      	cbnz	r0, 2ffead1e <fip_file_open+0x92>
2ffeacf0:	f8df 9078 	ldr.w	r9, [pc, #120]	@ 2ffead6c <fip_file_open+0xe0>
2ffeacf4:	f105 0808 	add.w	r8, r5, #8
2ffeacf8:	491d      	ldr	r1, [pc, #116]	@ (2ffead70 <fip_file_open+0xe4>)
2ffeacfa:	ab01      	add	r3, sp, #4
2ffeacfc:	9800      	ldr	r0, [sp, #0]
2ffeacfe:	2228      	movs	r2, #40	@ 0x28
2ffead00:	f000 fab2 	bl	2ffeb268 <io_read>
2ffead04:	4604      	mov	r4, r0
2ffead06:	b980      	cbnz	r0, 2ffead2a <fip_file_open+0x9e>
2ffead08:	2210      	movs	r2, #16
2ffead0a:	4639      	mov	r1, r7
2ffead0c:	4640      	mov	r0, r8
2ffead0e:	f00a f8e6 	bl	2fff4ede <memcmp>
2ffead12:	4604      	mov	r4, r0
2ffead14:	b988      	cbnz	r0, 2ffead3a <fip_file_open+0xae>
2ffead16:	f848 0c08 	str.w	r0, [r8, #-8]
2ffead1a:	6075      	str	r5, [r6, #4]
2ffead1c:	e009      	b.n	2ffead32 <fip_file_open+0xa6>
2ffead1e:	4815      	ldr	r0, [pc, #84]	@ (2ffead74 <fip_file_open+0xe8>)
2ffead20:	f7ff fa84 	bl	2ffea22c <tf_log>
2ffead24:	f06f 0401 	mvn.w	r4, #1
2ffead28:	e003      	b.n	2ffead32 <fip_file_open+0xa6>
2ffead2a:	4601      	mov	r1, r0
2ffead2c:	4812      	ldr	r0, [pc, #72]	@ (2ffead78 <fip_file_open+0xec>)
2ffead2e:	f7ff fa7d 	bl	2ffea22c <tf_log>
2ffead32:	9800      	ldr	r0, [sp, #0]
2ffead34:	f000 fabc 	bl	2ffeb2b0 <io_close>
2ffead38:	e7c0      	b.n	2ffeacbc <fip_file_open+0x30>
2ffead3a:	2210      	movs	r2, #16
2ffead3c:	4649      	mov	r1, r9
2ffead3e:	4640      	mov	r0, r8
2ffead40:	f00a f8cd 	bl	2fff4ede <memcmp>
2ffead44:	2800      	cmp	r0, #0
2ffead46:	d1d7      	bne.n	2ffeacf8 <fip_file_open+0x6c>
2ffead48:	2200      	movs	r2, #0
2ffead4a:	2300      	movs	r3, #0
2ffead4c:	e9c5 2306 	strd	r2, r3, [r5, #24]
2ffead50:	e7e8      	b.n	2ffead24 <fip_file_open+0x98>
2ffead52:	bf00      	nop
2ffead54:	2fff6be6 	.word	0x2fff6be6
2ffead58:	2fffb200 	.word	0x2fffb200
2ffead5c:	2fff6c80 	.word	0x2fff6c80
2ffead60:	2fffb3d4 	.word	0x2fffb3d4
2ffead64:	2fffb3d8 	.word	0x2fffb3d8
2ffead68:	2fff6cb0 	.word	0x2fff6cb0
2ffead6c:	2fff8f15 	.word	0x2fff8f15
2ffead70:	2fffb208 	.word	0x2fffb208
2ffead74:	2fff6cdd 	.word	0x2fff6cdd
2ffead78:	2fff6cfd 	.word	0x2fff6cfd

2ffead7c <fip_dev_close>:
2ffead7c:	4b0e      	ldr	r3, [pc, #56]	@ (2ffeadb8 <fip_dev_close+0x3c>)
2ffead7e:	b510      	push	{r4, lr}
2ffead80:	2400      	movs	r4, #0
2ffead82:	601c      	str	r4, [r3, #0]
2ffead84:	4b0d      	ldr	r3, [pc, #52]	@ (2ffeadbc <fip_dev_close+0x40>)
2ffead86:	601c      	str	r4, [r3, #0]
2ffead88:	b918      	cbnz	r0, 2ffead92 <fip_dev_close+0x16>
2ffead8a:	480d      	ldr	r0, [pc, #52]	@ (2ffeadc0 <fip_dev_close+0x44>)
2ffead8c:	21ab      	movs	r1, #171	@ 0xab
2ffead8e:	f008 fa03 	bl	2fff3198 <__assert>
2ffead92:	6840      	ldr	r0, [r0, #4]
2ffead94:	4b0b      	ldr	r3, [pc, #44]	@ (2ffeadc4 <fip_dev_close+0x48>)
2ffead96:	6802      	ldr	r2, [r0, #0]
2ffead98:	681b      	ldr	r3, [r3, #0]
2ffead9a:	429a      	cmp	r2, r3
2ffead9c:	d108      	bne.n	2ffeadb0 <fip_dev_close+0x34>
2ffead9e:	2108      	movs	r1, #8
2ffeada0:	f7fe ec32 	blx	2ffe9608 <zero_normalmem>
2ffeada4:	4a08      	ldr	r2, [pc, #32]	@ (2ffeadc8 <fip_dev_close+0x4c>)
2ffeada6:	4620      	mov	r0, r4
2ffeada8:	6813      	ldr	r3, [r2, #0]
2ffeadaa:	3b01      	subs	r3, #1
2ffeadac:	6013      	str	r3, [r2, #0]
2ffeadae:	bd10      	pop	{r4, pc}
2ffeadb0:	f06f 0001 	mvn.w	r0, #1
2ffeadb4:	e7fb      	b.n	2ffeadae <fip_dev_close+0x32>
2ffeadb6:	bf00      	nop
2ffeadb8:	2fffb3d8 	.word	0x2fffb3d8
2ffeadbc:	2fffb3d4 	.word	0x2fffb3d4
2ffeadc0:	2fff6be6 	.word	0x2fff6be6
2ffeadc4:	2fffb3cc 	.word	0x2fffb3cc
2ffeadc8:	2fffb3c0 	.word	0x2fffb3c0

2ffeadcc <fip_dev_open>:
2ffeadcc:	b570      	push	{r4, r5, r6, lr}
2ffeadce:	4604      	mov	r4, r0
2ffeadd0:	b919      	cbnz	r1, 2ffeadda <fip_dev_open+0xe>
2ffeadd2:	21c4      	movs	r1, #196	@ 0xc4
2ffeadd4:	480b      	ldr	r0, [pc, #44]	@ (2ffeae04 <fip_dev_open+0x38>)
2ffeadd6:	f008 f9df 	bl	2fff3198 <__assert>
2ffeadda:	4d0b      	ldr	r5, [pc, #44]	@ (2ffeae08 <fip_dev_open+0x3c>)
2ffeaddc:	682b      	ldr	r3, [r5, #0]
2ffeadde:	b96b      	cbnz	r3, 2ffeadfc <fip_dev_open+0x30>
2ffeade0:	4a0a      	ldr	r2, [pc, #40]	@ (2ffeae0c <fip_dev_open+0x40>)
2ffeade2:	6810      	ldr	r0, [r2, #0]
2ffeade4:	b940      	cbnz	r0, 2ffeadf8 <fip_dev_open+0x2c>
2ffeade6:	4b0a      	ldr	r3, [pc, #40]	@ (2ffeae10 <fip_dev_open+0x44>)
2ffeade8:	4e0a      	ldr	r6, [pc, #40]	@ (2ffeae14 <fip_dev_open+0x48>)
2ffeadea:	605a      	str	r2, [r3, #4]
2ffeadec:	601e      	str	r6, [r3, #0]
2ffeadee:	2601      	movs	r6, #1
2ffeadf0:	6014      	str	r4, [r2, #0]
2ffeadf2:	602e      	str	r6, [r5, #0]
2ffeadf4:	600b      	str	r3, [r1, #0]
2ffeadf6:	bd70      	pop	{r4, r5, r6, pc}
2ffeadf8:	2198      	movs	r1, #152	@ 0x98
2ffeadfa:	e7eb      	b.n	2ffeadd4 <fip_dev_open+0x8>
2ffeadfc:	f06f 000b 	mvn.w	r0, #11
2ffeae00:	e7f9      	b.n	2ffeadf6 <fip_dev_open+0x2a>
2ffeae02:	bf00      	nop
2ffeae04:	2fff6be6 	.word	0x2fff6be6
2ffeae08:	2fffb3c0 	.word	0x2fffb3c0
2ffeae0c:	2fffb3cc 	.word	0x2fffb3cc
2ffeae10:	2fffb3c4 	.word	0x2fffb3c4
2ffeae14:	2fff5218 	.word	0x2fff5218

2ffeae18 <register_io_dev_fip>:
2ffeae18:	b510      	push	{r4, lr}
2ffeae1a:	4604      	mov	r4, r0
2ffeae1c:	b920      	cbnz	r0, 2ffeae28 <register_io_dev_fip+0x10>
2ffeae1e:	4806      	ldr	r0, [pc, #24]	@ (2ffeae38 <register_io_dev_fip+0x20>)
2ffeae20:	f44f 71e4 	mov.w	r1, #456	@ 0x1c8
2ffeae24:	f008 f9b8 	bl	2fff3198 <__assert>
2ffeae28:	4804      	ldr	r0, [pc, #16]	@ (2ffeae3c <register_io_dev_fip+0x24>)
2ffeae2a:	f000 f939 	bl	2ffeb0a0 <io_register_device>
2ffeae2e:	b908      	cbnz	r0, 2ffeae34 <register_io_dev_fip+0x1c>
2ffeae30:	4b03      	ldr	r3, [pc, #12]	@ (2ffeae40 <register_io_dev_fip+0x28>)
2ffeae32:	6023      	str	r3, [r4, #0]
2ffeae34:	bd10      	pop	{r4, pc}
2ffeae36:	bf00      	nop
2ffeae38:	2fff6be6 	.word	0x2fff6be6
2ffeae3c:	2fffb3c4 	.word	0x2fffb3c4
2ffeae40:	2fff523c 	.word	0x2fff523c

2ffeae44 <mtd_read>:
2ffeae44:	e92d 47f0 	stmdb	sp!, {r4, r5, r6, r7, r8, r9, sl, lr}
2ffeae48:	4615      	mov	r5, r2
2ffeae4a:	6844      	ldr	r4, [r0, #4]
2ffeae4c:	461f      	mov	r7, r3
2ffeae4e:	b91c      	cbnz	r4, 2ffeae58 <mtd_read+0x14>
2ffeae50:	21d2      	movs	r1, #210	@ 0xd2
2ffeae52:	481c      	ldr	r0, [pc, #112]	@ (2ffeaec4 <mtd_read+0x80>)
2ffeae54:	f008 f9a0 	bl	2fff3198 <__assert>
2ffeae58:	b102      	cbz	r2, 2ffeae5c <mtd_read+0x18>
2ffeae5a:	b909      	cbnz	r1, 2ffeae60 <mtd_read+0x1c>
2ffeae5c:	21d3      	movs	r1, #211	@ 0xd3
2ffeae5e:	e7f8      	b.n	2ffeae52 <mtd_read+0xe>
2ffeae60:	6820      	ldr	r0, [r4, #0]
2ffeae62:	f8d0 8014 	ldr.w	r8, [r0, #20]
2ffeae66:	f1b8 0f00 	cmp.w	r8, #0
2ffeae6a:	d101      	bne.n	2ffeae70 <mtd_read+0x2c>
2ffeae6c:	21d7      	movs	r1, #215	@ 0xd7
2ffeae6e:	e7f0      	b.n	2ffeae52 <mtd_read+0xe>
2ffeae70:	e9d4 9602 	ldrd	r9, r6, [r4, #8]
2ffeae74:	f8d4 e004 	ldr.w	lr, [r4, #4]
2ffeae78:	eb19 0c02 	adds.w	ip, r9, r2
2ffeae7c:	e9d0 a000 	ldrd	sl, r0, [r0]
2ffeae80:	f146 0600 	adc.w	r6, r6, #0
2ffeae84:	eb1c 0c0e 	adds.w	ip, ip, lr
2ffeae88:	f146 0600 	adc.w	r6, r6, #0
2ffeae8c:	45e2      	cmp	sl, ip
2ffeae8e:	41b0      	sbcs	r0, r6
2ffeae90:	d314      	bcc.n	2ffeaebc <mtd_read+0x78>
2ffeae92:	69a0      	ldr	r0, [r4, #24]
2ffeae94:	4448      	add	r0, r9
2ffeae96:	4470      	add	r0, lr
2ffeae98:	47c0      	blx	r8
2ffeae9a:	2800      	cmp	r0, #0
2ffeae9c:	db0c      	blt.n	2ffeaeb8 <mtd_read+0x74>
2ffeae9e:	6839      	ldr	r1, [r7, #0]
2ffeaea0:	42a9      	cmp	r1, r5
2ffeaea2:	d001      	beq.n	2ffeaea8 <mtd_read+0x64>
2ffeaea4:	21e5      	movs	r1, #229	@ 0xe5
2ffeaea6:	e7d4      	b.n	2ffeae52 <mtd_read+0xe>
2ffeaea8:	e9d4 3202 	ldrd	r3, r2, [r4, #8]
2ffeaeac:	2000      	movs	r0, #0
2ffeaeae:	185b      	adds	r3, r3, r1
2ffeaeb0:	f142 0200 	adc.w	r2, r2, #0
2ffeaeb4:	e9c4 3202 	strd	r3, r2, [r4, #8]
2ffeaeb8:	e8bd 87f0 	ldmia.w	sp!, {r4, r5, r6, r7, r8, r9, sl, pc}
2ffeaebc:	f06f 0015 	mvn.w	r0, #21
2ffeaec0:	e7fa      	b.n	2ffeaeb8 <mtd_read+0x74>
2ffeaec2:	bf00      	nop
2ffeaec4:	2fff6d17 	.word	0x2fff6d17

2ffeaec8 <mtd_add_extra_offset.constprop.0>:
2ffeaec8:	6803      	ldr	r3, [r0, #0]
2ffeaeca:	460a      	mov	r2, r1
2ffeaecc:	b510      	push	{r4, lr}
2ffeaece:	69dc      	ldr	r4, [r3, #28]
2ffeaed0:	b14c      	cbz	r4, 2ffeaee6 <mtd_add_extra_offset.constprop.0+0x1e>
2ffeaed2:	6881      	ldr	r1, [r0, #8]
2ffeaed4:	6840      	ldr	r0, [r0, #4]
2ffeaed6:	47a0      	blx	r4
2ffeaed8:	4604      	mov	r4, r0
2ffeaeda:	b120      	cbz	r0, 2ffeaee6 <mtd_add_extra_offset.constprop.0+0x1e>
2ffeaedc:	4903      	ldr	r1, [pc, #12]	@ (2ffeaeec <mtd_add_extra_offset.constprop.0+0x24>)
2ffeaede:	4602      	mov	r2, r0
2ffeaee0:	4803      	ldr	r0, [pc, #12]	@ (2ffeaef0 <mtd_add_extra_offset.constprop.0+0x28>)
2ffeaee2:	f7ff f9a3 	bl	2ffea22c <tf_log>
2ffeaee6:	4620      	mov	r0, r4
2ffeaee8:	bd10      	pop	{r4, pc}
2ffeaeea:	bf00      	nop
2ffeaeec:	2fff8f25 	.word	0x2fff8f25
2ffeaef0:	2fff6d2b 	.word	0x2fff6d2b

2ffeaef4 <mtd_open>:
2ffeaef4:	b513      	push	{r0, r1, r4, lr}
2ffeaef6:	2300      	movs	r3, #0
2ffeaef8:	6844      	ldr	r4, [r0, #4]
2ffeaefa:	9301      	str	r3, [sp, #4]
2ffeaefc:	b10c      	cbz	r4, 2ffeaf02 <mtd_open+0xe>
2ffeaefe:	6853      	ldr	r3, [r2, #4]
2ffeaf00:	b11b      	cbz	r3, 2ffeaf0a <mtd_open+0x16>
2ffeaf02:	480c      	ldr	r0, [pc, #48]	@ (2ffeaf34 <mtd_open+0x40>)
2ffeaf04:	218c      	movs	r1, #140	@ 0x8c
2ffeaf06:	f008 f947 	bl	2fff3198 <__assert>
2ffeaf0a:	680b      	ldr	r3, [r1, #0]
2ffeaf0c:	4620      	mov	r0, r4
2ffeaf0e:	6054      	str	r4, [r2, #4]
2ffeaf10:	2200      	movs	r2, #0
2ffeaf12:	6063      	str	r3, [r4, #4]
2ffeaf14:	2300      	movs	r3, #0
2ffeaf16:	a901      	add	r1, sp, #4
2ffeaf18:	e9c4 2302 	strd	r2, r3, [r4, #8]
2ffeaf1c:	e9c4 2306 	strd	r2, r3, [r4, #24]
2ffeaf20:	f7ff ffd2 	bl	2ffeaec8 <mtd_add_extra_offset.constprop.0>
2ffeaf24:	b918      	cbnz	r0, 2ffeaf2e <mtd_open+0x3a>
2ffeaf26:	6863      	ldr	r3, [r4, #4]
2ffeaf28:	9a01      	ldr	r2, [sp, #4]
2ffeaf2a:	4413      	add	r3, r2
2ffeaf2c:	6063      	str	r3, [r4, #4]
2ffeaf2e:	b002      	add	sp, #8
2ffeaf30:	bd10      	pop	{r4, pc}
2ffeaf32:	bf00      	nop
2ffeaf34:	2fff6d17 	.word	0x2fff6d17

2ffeaf38 <mtd_seek>:
2ffeaf38:	e92d 41f3 	stmdb	sp!, {r0, r1, r4, r5, r6, r7, r8, lr}
2ffeaf3c:	2400      	movs	r4, #0
2ffeaf3e:	9401      	str	r4, [sp, #4]
2ffeaf40:	6844      	ldr	r4, [r0, #4]
2ffeaf42:	b10c      	cbz	r4, 2ffeaf48 <mtd_seek+0x10>
2ffeaf44:	2b00      	cmp	r3, #0
2ffeaf46:	da03      	bge.n	2ffeaf50 <mtd_seek+0x18>
2ffeaf48:	481b      	ldr	r0, [pc, #108]	@ (2ffeafb8 <mtd_seek+0x80>)
2ffeaf4a:	21a6      	movs	r1, #166	@ 0xa6
2ffeaf4c:	f008 f924 	bl	2fff3198 <__assert>
2ffeaf50:	2901      	cmp	r1, #1
2ffeaf52:	d004      	beq.n	2ffeaf5e <mtd_seek+0x26>
2ffeaf54:	2903      	cmp	r1, #3
2ffeaf56:	d015      	beq.n	2ffeaf84 <mtd_seek+0x4c>
2ffeaf58:	f06f 0015 	mvn.w	r0, #21
2ffeaf5c:	e00f      	b.n	2ffeaf7e <mtd_seek+0x46>
2ffeaf5e:	e9d4 0104 	ldrd	r0, r1, [r4, #16]
2ffeaf62:	4282      	cmp	r2, r0
2ffeaf64:	eb73 0101 	sbcs.w	r1, r3, r1
2ffeaf68:	d2f6      	bcs.n	2ffeaf58 <mtd_seek+0x20>
2ffeaf6a:	a901      	add	r1, sp, #4
2ffeaf6c:	4620      	mov	r0, r4
2ffeaf6e:	e9c4 2302 	strd	r2, r3, [r4, #8]
2ffeaf72:	f7ff ffa9 	bl	2ffeaec8 <mtd_add_extra_offset.constprop.0>
2ffeaf76:	b910      	cbnz	r0, 2ffeaf7e <mtd_seek+0x46>
2ffeaf78:	9b01      	ldr	r3, [sp, #4]
2ffeaf7a:	e9c4 3006 	strd	r3, r0, [r4, #24]
2ffeaf7e:	b002      	add	sp, #8
2ffeaf80:	e8bd 81f0 	ldmia.w	sp!, {r4, r5, r6, r7, r8, pc}
2ffeaf84:	e9d4 0602 	ldrd	r0, r6, [r4, #8]
2ffeaf88:	6861      	ldr	r1, [r4, #4]
2ffeaf8a:	f04f 0800 	mov.w	r8, #0
2ffeaf8e:	6927      	ldr	r7, [r4, #16]
2ffeaf90:	46c6      	mov	lr, r8
2ffeaf92:	1809      	adds	r1, r1, r0
2ffeaf94:	f146 0500 	adc.w	r5, r6, #0
2ffeaf98:	1889      	adds	r1, r1, r2
2ffeaf9a:	415d      	adcs	r5, r3
2ffeaf9c:	bf28      	it	cs
2ffeaf9e:	f04f 0801 	movcs.w	r8, #1
2ffeafa2:	42b9      	cmp	r1, r7
2ffeafa4:	6961      	ldr	r1, [r4, #20]
2ffeafa6:	418d      	sbcs	r5, r1
2ffeafa8:	d2d6      	bcs.n	2ffeaf58 <mtd_seek+0x20>
2ffeafaa:	ea5e 0e08 	orrs.w	lr, lr, r8
2ffeafae:	d1d3      	bne.n	2ffeaf58 <mtd_seek+0x20>
2ffeafb0:	1882      	adds	r2, r0, r2
2ffeafb2:	eb46 0303 	adc.w	r3, r6, r3
2ffeafb6:	e7d8      	b.n	2ffeaf6a <mtd_seek+0x32>
2ffeafb8:	2fff6d17 	.word	0x2fff6d17

2ffeafbc <mtd_dev_close>:
2ffeafbc:	6843      	ldr	r3, [r0, #4]
2ffeafbe:	b510      	push	{r4, lr}
2ffeafc0:	4604      	mov	r4, r0
2ffeafc2:	681b      	ldr	r3, [r3, #0]
2ffeafc4:	6a1b      	ldr	r3, [r3, #32]
2ffeafc6:	b943      	cbnz	r3, 2ffeafda <mtd_dev_close+0x1e>
2ffeafc8:	6860      	ldr	r0, [r4, #4]
2ffeafca:	4b0a      	ldr	r3, [pc, #40]	@ (2ffeaff4 <mtd_dev_close+0x38>)
2ffeafcc:	6802      	ldr	r2, [r0, #0]
2ffeafce:	681b      	ldr	r3, [r3, #0]
2ffeafd0:	429a      	cmp	r2, r3
2ffeafd2:	d006      	beq.n	2ffeafe2 <mtd_dev_close+0x26>
2ffeafd4:	f06f 0001 	mvn.w	r0, #1
2ffeafd8:	bd10      	pop	{r4, pc}
2ffeafda:	4798      	blx	r3
2ffeafdc:	2800      	cmp	r0, #0
2ffeafde:	d0f3      	beq.n	2ffeafc8 <mtd_dev_close+0xc>
2ffeafe0:	e7fa      	b.n	2ffeafd8 <mtd_dev_close+0x1c>
2ffeafe2:	2120      	movs	r1, #32
2ffeafe4:	f7fe eb10 	blx	2ffe9608 <zero_normalmem>
2ffeafe8:	4620      	mov	r0, r4
2ffeafea:	2108      	movs	r1, #8
2ffeafec:	f7fe eb0c 	blx	2ffe9608 <zero_normalmem>
2ffeaff0:	2000      	movs	r0, #0
2ffeaff2:	e7f1      	b.n	2ffeafd8 <mtd_dev_close+0x1c>
2ffeaff4:	2fffb230 	.word	0x2fffb230

2ffeaff8 <mtd_dev_open>:
2ffeaff8:	b538      	push	{r3, r4, r5, lr}
2ffeaffa:	4c0f      	ldr	r4, [pc, #60]	@ (2ffeb038 <mtd_dev_open+0x40>)
2ffeaffc:	6822      	ldr	r2, [r4, #0]
2ffeaffe:	b9c2      	cbnz	r2, 2ffeb032 <mtd_dev_open+0x3a>
2ffeb000:	4a0e      	ldr	r2, [pc, #56]	@ (2ffeb03c <mtd_dev_open+0x44>)
2ffeb002:	4d0f      	ldr	r5, [pc, #60]	@ (2ffeb040 <mtd_dev_open+0x48>)
2ffeb004:	6054      	str	r4, [r2, #4]
2ffeb006:	6015      	str	r5, [r2, #0]
2ffeb008:	6020      	str	r0, [r4, #0]
2ffeb00a:	600a      	str	r2, [r1, #0]
2ffeb00c:	6902      	ldr	r2, [r0, #16]
2ffeb00e:	b932      	cbnz	r2, 2ffeb01e <mtd_dev_open+0x26>
2ffeb010:	6823      	ldr	r3, [r4, #0]
2ffeb012:	2000      	movs	r0, #0
2ffeb014:	e9d3 2300 	ldrd	r2, r3, [r3]
2ffeb018:	e9c4 2304 	strd	r2, r3, [r4, #16]
2ffeb01c:	bd38      	pop	{r3, r4, r5, pc}
2ffeb01e:	f100 0108 	add.w	r1, r0, #8
2ffeb022:	4790      	blx	r2
2ffeb024:	2800      	cmp	r0, #0
2ffeb026:	d0f3      	beq.n	2ffeb010 <mtd_dev_open+0x18>
2ffeb028:	2200      	movs	r2, #0
2ffeb02a:	2300      	movs	r3, #0
2ffeb02c:	e9c4 2304 	strd	r2, r3, [r4, #16]
2ffeb030:	e7f4      	b.n	2ffeb01c <mtd_dev_open+0x24>
2ffeb032:	f06f 0001 	mvn.w	r0, #1
2ffeb036:	e7f1      	b.n	2ffeb01c <mtd_dev_open+0x24>
2ffeb038:	2fffb230 	.word	0x2fffb230
2ffeb03c:	2fffb3dc 	.word	0x2fffb3dc
2ffeb040:	2fff5240 	.word	0x2fff5240

2ffeb044 <register_io_dev_mtd>:
2ffeb044:	b510      	push	{r4, lr}
2ffeb046:	4604      	mov	r4, r0
2ffeb048:	4803      	ldr	r0, [pc, #12]	@ (2ffeb058 <register_io_dev_mtd+0x14>)
2ffeb04a:	f000 f829 	bl	2ffeb0a0 <io_register_device>
2ffeb04e:	b908      	cbnz	r0, 2ffeb054 <register_io_dev_mtd+0x10>
2ffeb050:	4b02      	ldr	r3, [pc, #8]	@ (2ffeb05c <register_io_dev_mtd+0x18>)
2ffeb052:	6023      	str	r3, [r4, #0]
2ffeb054:	bd10      	pop	{r4, pc}
2ffeb056:	bf00      	nop
2ffeb058:	2fffb3dc 	.word	0x2fffb3dc
2ffeb05c:	2fff5264 	.word	0x2fff5264

2ffeb060 <free_entity.isra.0>:
2ffeb060:	b510      	push	{r4, lr}
2ffeb062:	b918      	cbnz	r0, 2ffeb06c <free_entity.isra.0+0xc>
2ffeb064:	480b      	ldr	r0, [pc, #44]	@ (2ffeb094 <free_entity.isra.0+0x34>)
2ffeb066:	2182      	movs	r1, #130	@ 0x82
2ffeb068:	f008 f896 	bl	2fff3198 <__assert>
2ffeb06c:	4a0a      	ldr	r2, [pc, #40]	@ (2ffeb098 <free_entity.isra.0+0x38>)
2ffeb06e:	2300      	movs	r3, #0
2ffeb070:	4611      	mov	r1, r2
2ffeb072:	f852 4b04 	ldr.w	r4, [r2], #4
2ffeb076:	42a0      	cmp	r0, r4
2ffeb078:	d003      	beq.n	2ffeb082 <free_entity.isra.0+0x22>
2ffeb07a:	3301      	adds	r3, #1
2ffeb07c:	2b04      	cmp	r3, #4
2ffeb07e:	d1f8      	bne.n	2ffeb072 <free_entity.isra.0+0x12>
2ffeb080:	bd10      	pop	{r4, pc}
2ffeb082:	2200      	movs	r2, #0
2ffeb084:	f841 2023 	str.w	r2, [r1, r3, lsl #2]
2ffeb088:	4a04      	ldr	r2, [pc, #16]	@ (2ffeb09c <free_entity.isra.0+0x3c>)
2ffeb08a:	6813      	ldr	r3, [r2, #0]
2ffeb08c:	3b01      	subs	r3, #1
2ffeb08e:	6013      	str	r3, [r2, #0]
2ffeb090:	e7f6      	b.n	2ffeb080 <free_entity.isra.0+0x20>
2ffeb092:	bf00      	nop
2ffeb094:	2fff6d3f 	.word	0x2fff6d3f
2ffeb098:	2fffb3ec 	.word	0x2fffb3ec
2ffeb09c:	2fffb3e8 	.word	0x2fffb3e8

2ffeb0a0 <io_register_device>:
2ffeb0a0:	b508      	push	{r3, lr}
2ffeb0a2:	b918      	cbnz	r0, 2ffeb0ac <io_register_device+0xc>
2ffeb0a4:	4806      	ldr	r0, [pc, #24]	@ (2ffeb0c0 <io_register_device+0x20>)
2ffeb0a6:	2194      	movs	r1, #148	@ 0x94
2ffeb0a8:	f008 f876 	bl	2fff3198 <__assert>
2ffeb0ac:	4a05      	ldr	r2, [pc, #20]	@ (2ffeb0c4 <io_register_device+0x24>)
2ffeb0ae:	6813      	ldr	r3, [r2, #0]
2ffeb0b0:	2b03      	cmp	r3, #3
2ffeb0b2:	bf9d      	ittte	ls
2ffeb0b4:	3301      	addls	r3, #1
2ffeb0b6:	2000      	movls	r0, #0
2ffeb0b8:	6013      	strls	r3, [r2, #0]
2ffeb0ba:	f06f 000b 	mvnhi.w	r0, #11
2ffeb0be:	bd08      	pop	{r3, pc}
2ffeb0c0:	2fff6d3f 	.word	0x2fff6d3f
2ffeb0c4:	2fffb3e4 	.word	0x2fffb3e4

2ffeb0c8 <io_dev_open>:
2ffeb0c8:	4603      	mov	r3, r0
2ffeb0ca:	4608      	mov	r0, r1
2ffeb0cc:	b510      	push	{r4, lr}
2ffeb0ce:	4611      	mov	r1, r2
2ffeb0d0:	b91a      	cbnz	r2, 2ffeb0da <io_dev_open+0x12>
2ffeb0d2:	21a4      	movs	r1, #164	@ 0xa4
2ffeb0d4:	4805      	ldr	r0, [pc, #20]	@ (2ffeb0ec <io_dev_open+0x24>)
2ffeb0d6:	f008 f85f 	bl	2fff3198 <__assert>
2ffeb0da:	b123      	cbz	r3, 2ffeb0e6 <io_dev_open+0x1e>
2ffeb0dc:	681b      	ldr	r3, [r3, #0]
2ffeb0de:	b113      	cbz	r3, 2ffeb0e6 <io_dev_open+0x1e>
2ffeb0e0:	e8bd 4010 	ldmia.w	sp!, {r4, lr}
2ffeb0e4:	4718      	bx	r3
2ffeb0e6:	214d      	movs	r1, #77	@ 0x4d
2ffeb0e8:	e7f4      	b.n	2ffeb0d4 <io_dev_open+0xc>
2ffeb0ea:	bf00      	nop
2ffeb0ec:	2fff6d3f 	.word	0x2fff6d3f

2ffeb0f0 <io_dev_init>:
2ffeb0f0:	b570      	push	{r4, r5, r6, lr}
2ffeb0f2:	460d      	mov	r5, r1
2ffeb0f4:	4604      	mov	r4, r0
2ffeb0f6:	b918      	cbnz	r0, 2ffeb100 <io_dev_init+0x10>
2ffeb0f8:	21ae      	movs	r1, #174	@ 0xae
2ffeb0fa:	4809      	ldr	r0, [pc, #36]	@ (2ffeb120 <io_dev_init+0x30>)
2ffeb0fc:	f008 f84c 	bl	2fff3198 <__assert>
2ffeb100:	f008 fb30 	bl	2fff3764 <is_valid_dev>
2ffeb104:	b908      	cbnz	r0, 2ffeb10a <io_dev_init+0x1a>
2ffeb106:	21af      	movs	r1, #175	@ 0xaf
2ffeb108:	e7f7      	b.n	2ffeb0fa <io_dev_init+0xa>
2ffeb10a:	6823      	ldr	r3, [r4, #0]
2ffeb10c:	69db      	ldr	r3, [r3, #28]
2ffeb10e:	b123      	cbz	r3, 2ffeb11a <io_dev_init+0x2a>
2ffeb110:	4629      	mov	r1, r5
2ffeb112:	4620      	mov	r0, r4
2ffeb114:	e8bd 4070 	ldmia.w	sp!, {r4, r5, r6, lr}
2ffeb118:	4718      	bx	r3
2ffeb11a:	4618      	mov	r0, r3
2ffeb11c:	bd70      	pop	{r4, r5, r6, pc}
2ffeb11e:	bf00      	nop
2ffeb120:	2fff6d3f 	.word	0x2fff6d3f

2ffeb124 <io_dev_close>:
2ffeb124:	b510      	push	{r4, lr}
2ffeb126:	4604      	mov	r4, r0
2ffeb128:	b918      	cbnz	r0, 2ffeb132 <io_dev_close+0xe>
2ffeb12a:	21bf      	movs	r1, #191	@ 0xbf
2ffeb12c:	4808      	ldr	r0, [pc, #32]	@ (2ffeb150 <io_dev_close+0x2c>)
2ffeb12e:	f008 f833 	bl	2fff3198 <__assert>
2ffeb132:	f008 fb17 	bl	2fff3764 <is_valid_dev>
2ffeb136:	b908      	cbnz	r0, 2ffeb13c <io_dev_close+0x18>
2ffeb138:	21c0      	movs	r1, #192	@ 0xc0
2ffeb13a:	e7f7      	b.n	2ffeb12c <io_dev_close+0x8>
2ffeb13c:	6823      	ldr	r3, [r4, #0]
2ffeb13e:	6a1b      	ldr	r3, [r3, #32]
2ffeb140:	b11b      	cbz	r3, 2ffeb14a <io_dev_close+0x26>
2ffeb142:	4620      	mov	r0, r4
2ffeb144:	e8bd 4010 	ldmia.w	sp!, {r4, lr}
2ffeb148:	4718      	bx	r3
2ffeb14a:	4618      	mov	r0, r3
2ffeb14c:	bd10      	pop	{r4, pc}
2ffeb14e:	bf00      	nop
2ffeb150:	2fff6d3f 	.word	0x2fff6d3f

2ffeb154 <io_open>:
2ffeb154:	e92d 43f8 	stmdb	sp!, {r3, r4, r5, r6, r7, r8, r9, lr}
2ffeb158:	4606      	mov	r6, r0
2ffeb15a:	4690      	mov	r8, r2
2ffeb15c:	460d      	mov	r5, r1
2ffeb15e:	b101      	cbz	r1, 2ffeb162 <io_open+0xe>
2ffeb160:	b91a      	cbnz	r2, 2ffeb16a <io_open+0x16>
2ffeb162:	21d4      	movs	r1, #212	@ 0xd4
2ffeb164:	481c      	ldr	r0, [pc, #112]	@ (2ffeb1d8 <io_open+0x84>)
2ffeb166:	f008 f817 	bl	2fff3198 <__assert>
2ffeb16a:	f008 fafb 	bl	2fff3764 <is_valid_dev>
2ffeb16e:	b908      	cbnz	r0, 2ffeb174 <io_open+0x20>
2ffeb170:	21d5      	movs	r1, #213	@ 0xd5
2ffeb172:	e7f7      	b.n	2ffeb164 <io_open+0x10>
2ffeb174:	4919      	ldr	r1, [pc, #100]	@ (2ffeb1dc <io_open+0x88>)
2ffeb176:	680b      	ldr	r3, [r1, #0]
2ffeb178:	2b03      	cmp	r3, #3
2ffeb17a:	d81b      	bhi.n	2ffeb1b4 <io_open+0x60>
2ffeb17c:	4a18      	ldr	r2, [pc, #96]	@ (2ffeb1e0 <io_open+0x8c>)
2ffeb17e:	2400      	movs	r4, #0
2ffeb180:	4610      	mov	r0, r2
2ffeb182:	f852 7b04 	ldr.w	r7, [r2], #4
2ffeb186:	b1c7      	cbz	r7, 2ffeb1ba <io_open+0x66>
2ffeb188:	3401      	adds	r4, #1
2ffeb18a:	2c04      	cmp	r4, #4
2ffeb18c:	d1f9      	bne.n	2ffeb182 <io_open+0x2e>
2ffeb18e:	2173      	movs	r1, #115	@ 0x73
2ffeb190:	e7e8      	b.n	2ffeb164 <io_open+0x10>
2ffeb192:	4629      	mov	r1, r5
2ffeb194:	463a      	mov	r2, r7
2ffeb196:	4630      	mov	r0, r6
2ffeb198:	4798      	blx	r3
2ffeb19a:	4605      	mov	r5, r0
2ffeb19c:	b930      	cbnz	r0, 2ffeb1ac <io_open+0x58>
2ffeb19e:	f849 6034 	str.w	r6, [r9, r4, lsl #3]
2ffeb1a2:	f8c8 7000 	str.w	r7, [r8]
2ffeb1a6:	4628      	mov	r0, r5
2ffeb1a8:	e8bd 83f8 	ldmia.w	sp!, {r3, r4, r5, r6, r7, r8, r9, pc}
2ffeb1ac:	4638      	mov	r0, r7
2ffeb1ae:	f7ff ff57 	bl	2ffeb060 <free_entity.isra.0>
2ffeb1b2:	e7f8      	b.n	2ffeb1a6 <io_open+0x52>
2ffeb1b4:	f06f 050b 	mvn.w	r5, #11
2ffeb1b8:	e7f5      	b.n	2ffeb1a6 <io_open+0x52>
2ffeb1ba:	f8df 9028 	ldr.w	r9, [pc, #40]	@ 2ffeb1e4 <io_open+0x90>
2ffeb1be:	3301      	adds	r3, #1
2ffeb1c0:	600b      	str	r3, [r1, #0]
2ffeb1c2:	6833      	ldr	r3, [r6, #0]
2ffeb1c4:	eb09 07c4 	add.w	r7, r9, r4, lsl #3
2ffeb1c8:	685b      	ldr	r3, [r3, #4]
2ffeb1ca:	f840 7024 	str.w	r7, [r0, r4, lsl #2]
2ffeb1ce:	2b00      	cmp	r3, #0
2ffeb1d0:	d1df      	bne.n	2ffeb192 <io_open+0x3e>
2ffeb1d2:	21dd      	movs	r1, #221	@ 0xdd
2ffeb1d4:	e7c6      	b.n	2ffeb164 <io_open+0x10>
2ffeb1d6:	bf00      	nop
2ffeb1d8:	2fff6d3f 	.word	0x2fff6d3f
2ffeb1dc:	2fffb3e8 	.word	0x2fffb3e8
2ffeb1e0:	2fffb3ec 	.word	0x2fffb3ec
2ffeb1e4:	2fffb3fc 	.word	0x2fffb3fc

2ffeb1e8 <io_seek>:
2ffeb1e8:	e92d 41f0 	stmdb	sp!, {r4, r5, r6, r7, r8, lr}
2ffeb1ec:	4604      	mov	r4, r0
2ffeb1ee:	460d      	mov	r5, r1
2ffeb1f0:	4617      	mov	r7, r2
2ffeb1f2:	461e      	mov	r6, r3
2ffeb1f4:	f008 fac2 	bl	2fff377c <is_valid_entity>
2ffeb1f8:	b110      	cbz	r0, 2ffeb200 <io_seek+0x18>
2ffeb1fa:	1e6b      	subs	r3, r5, #1
2ffeb1fc:	2b02      	cmp	r3, #2
2ffeb1fe:	d903      	bls.n	2ffeb208 <io_seek+0x20>
2ffeb200:	480b      	ldr	r0, [pc, #44]	@ (2ffeb230 <io_seek+0x48>)
2ffeb202:	21ee      	movs	r1, #238	@ 0xee
2ffeb204:	f007 ffc8 	bl	2fff3198 <__assert>
2ffeb208:	6823      	ldr	r3, [r4, #0]
2ffeb20a:	681b      	ldr	r3, [r3, #0]
2ffeb20c:	f8d3 e008 	ldr.w	lr, [r3, #8]
2ffeb210:	f1be 0f00 	cmp.w	lr, #0
2ffeb214:	d007      	beq.n	2ffeb226 <io_seek+0x3e>
2ffeb216:	463a      	mov	r2, r7
2ffeb218:	4633      	mov	r3, r6
2ffeb21a:	4629      	mov	r1, r5
2ffeb21c:	4620      	mov	r0, r4
2ffeb21e:	46f4      	mov	ip, lr
2ffeb220:	e8bd 41f0 	ldmia.w	sp!, {r4, r5, r6, r7, r8, lr}
2ffeb224:	4760      	bx	ip
2ffeb226:	f06f 0012 	mvn.w	r0, #18
2ffeb22a:	e8bd 81f0 	ldmia.w	sp!, {r4, r5, r6, r7, r8, pc}
2ffeb22e:	bf00      	nop
2ffeb230:	2fff6d3f 	.word	0x2fff6d3f

2ffeb234 <io_size>:
2ffeb234:	b570      	push	{r4, r5, r6, lr}
2ffeb236:	4604      	mov	r4, r0
2ffeb238:	460d      	mov	r5, r1
2ffeb23a:	f008 fa9f 	bl	2fff377c <is_valid_entity>
2ffeb23e:	b100      	cbz	r0, 2ffeb242 <io_size+0xe>
2ffeb240:	b91d      	cbnz	r5, 2ffeb24a <io_size+0x16>
2ffeb242:	4808      	ldr	r0, [pc, #32]	@ (2ffeb264 <io_size+0x30>)
2ffeb244:	21ff      	movs	r1, #255	@ 0xff
2ffeb246:	f007 ffa7 	bl	2fff3198 <__assert>
2ffeb24a:	6823      	ldr	r3, [r4, #0]
2ffeb24c:	681b      	ldr	r3, [r3, #0]
2ffeb24e:	68db      	ldr	r3, [r3, #12]
2ffeb250:	b123      	cbz	r3, 2ffeb25c <io_size+0x28>
2ffeb252:	4629      	mov	r1, r5
2ffeb254:	4620      	mov	r0, r4
2ffeb256:	e8bd 4070 	ldmia.w	sp!, {r4, r5, r6, lr}
2ffeb25a:	4718      	bx	r3
2ffeb25c:	f06f 0012 	mvn.w	r0, #18
2ffeb260:	bd70      	pop	{r4, r5, r6, pc}
2ffeb262:	bf00      	nop
2ffeb264:	2fff6d3f 	.word	0x2fff6d3f

2ffeb268 <io_read>:
2ffeb268:	e92d 41f0 	stmdb	sp!, {r4, r5, r6, r7, r8, lr}
2ffeb26c:	4604      	mov	r4, r0
2ffeb26e:	460d      	mov	r5, r1
2ffeb270:	4616      	mov	r6, r2
2ffeb272:	461f      	mov	r7, r3
2ffeb274:	f008 fa82 	bl	2fff377c <is_valid_entity>
2ffeb278:	b920      	cbnz	r0, 2ffeb284 <io_read+0x1c>
2ffeb27a:	480c      	ldr	r0, [pc, #48]	@ (2ffeb2ac <io_read+0x44>)
2ffeb27c:	f240 1113 	movw	r1, #275	@ 0x113
2ffeb280:	f007 ff8a 	bl	2fff3198 <__assert>
2ffeb284:	6823      	ldr	r3, [r4, #0]
2ffeb286:	681b      	ldr	r3, [r3, #0]
2ffeb288:	f8d3 e010 	ldr.w	lr, [r3, #16]
2ffeb28c:	f1be 0f00 	cmp.w	lr, #0
2ffeb290:	d007      	beq.n	2ffeb2a2 <io_read+0x3a>
2ffeb292:	463b      	mov	r3, r7
2ffeb294:	4632      	mov	r2, r6
2ffeb296:	4629      	mov	r1, r5
2ffeb298:	4620      	mov	r0, r4
2ffeb29a:	46f4      	mov	ip, lr
2ffeb29c:	e8bd 41f0 	ldmia.w	sp!, {r4, r5, r6, r7, r8, lr}
2ffeb2a0:	4760      	bx	ip
2ffeb2a2:	f06f 0012 	mvn.w	r0, #18
2ffeb2a6:	e8bd 81f0 	ldmia.w	sp!, {r4, r5, r6, r7, r8, pc}
2ffeb2aa:	bf00      	nop
2ffeb2ac:	2fff6d3f 	.word	0x2fff6d3f

2ffeb2b0 <io_close>:
2ffeb2b0:	b538      	push	{r3, r4, r5, lr}
2ffeb2b2:	4605      	mov	r5, r0
2ffeb2b4:	f008 fa62 	bl	2fff377c <is_valid_entity>
2ffeb2b8:	b920      	cbnz	r0, 2ffeb2c4 <io_close+0x14>
2ffeb2ba:	4808      	ldr	r0, [pc, #32]	@ (2ffeb2dc <io_close+0x2c>)
2ffeb2bc:	f44f 719d 	mov.w	r1, #314	@ 0x13a
2ffeb2c0:	f007 ff6a 	bl	2fff3198 <__assert>
2ffeb2c4:	682b      	ldr	r3, [r5, #0]
2ffeb2c6:	681b      	ldr	r3, [r3, #0]
2ffeb2c8:	699c      	ldr	r4, [r3, #24]
2ffeb2ca:	b114      	cbz	r4, 2ffeb2d2 <io_close+0x22>
2ffeb2cc:	4628      	mov	r0, r5
2ffeb2ce:	47a0      	blx	r4
2ffeb2d0:	4604      	mov	r4, r0
2ffeb2d2:	4628      	mov	r0, r5
2ffeb2d4:	f7ff fec4 	bl	2ffeb060 <free_entity.isra.0>
2ffeb2d8:	4620      	mov	r0, r4
2ffeb2da:	bd38      	pop	{r3, r4, r5, pc}
2ffeb2dc:	2fff6d3f 	.word	0x2fff6d3f

2ffeb2e0 <spi_nor_clean_bar>:
2ffeb2e0:	b510      	push	{r4, lr}
2ffeb2e2:	4c0a      	ldr	r4, [pc, #40]	@ (2ffeb30c <spi_nor_clean_bar+0x2c>)
2ffeb2e4:	f894 0038 	ldrb.w	r0, [r4, #56]	@ 0x38
2ffeb2e8:	b178      	cbz	r0, 2ffeb30a <spi_nor_clean_bar+0x2a>
2ffeb2ea:	2300      	movs	r3, #0
2ffeb2ec:	f884 3038 	strb.w	r3, [r4, #56]	@ 0x38
2ffeb2f0:	f008 fa67 	bl	2fff37c2 <spi_nor_write_en>
2ffeb2f4:	b948      	cbnz	r0, 2ffeb30a <spi_nor_clean_bar+0x2a>
2ffeb2f6:	f894 0039 	ldrb.w	r0, [r4, #57]	@ 0x39
2ffeb2fa:	2301      	movs	r3, #1
2ffeb2fc:	f104 0138 	add.w	r1, r4, #56	@ 0x38
2ffeb300:	461a      	mov	r2, r3
2ffeb302:	e8bd 4010 	ldmia.w	sp!, {r4, lr}
2ffeb306:	f008 ba41 	b.w	2fff378c <spi_nor_reg>
2ffeb30a:	bd10      	pop	{r4, pc}
2ffeb30c:	2fffb250 	.word	0x2fffb250

2ffeb310 <spi_nor_wait_ready>:
2ffeb310:	b5f7      	push	{r0, r1, r2, r4, r5, r6, r7, lr}
2ffeb312:	ee1e 1f10 	mrc	15, 0, r1, cr14, cr0, {0}
2ffeb316:	ec57 6f0e 	mrrc	15, 0, r6, r7, cr14
2ffeb31a:	4a1b      	ldr	r2, [pc, #108]	@ (2ffeb388 <spi_nor_wait_ready+0x78>)
2ffeb31c:	f649 4040 	movw	r0, #40000	@ 0x9c40
2ffeb320:	2300      	movs	r3, #0
2ffeb322:	fba1 0100 	umull	r0, r1, r1, r0
2ffeb326:	f007 edc8 	blx	2fff2eb8 <__aeabi_uldivmod>
2ffeb32a:	1985      	adds	r5, r0, r6
2ffeb32c:	eb41 0407 	adc.w	r4, r1, r7
2ffeb330:	4e16      	ldr	r6, [pc, #88]	@ (2ffeb38c <spi_nor_wait_ready+0x7c>)
2ffeb332:	ec53 2f0e 	mrrc	15, 0, r2, r3, cr14
2ffeb336:	4295      	cmp	r5, r2
2ffeb338:	eb74 0303 	sbcs.w	r3, r4, r3
2ffeb33c:	d202      	bcs.n	2ffeb344 <spi_nor_wait_ready+0x34>
2ffeb33e:	f06f 003b 	mvn.w	r0, #59	@ 0x3b
2ffeb342:	e017      	b.n	2ffeb374 <spi_nor_wait_ready+0x64>
2ffeb344:	f10d 0006 	add.w	r0, sp, #6
2ffeb348:	f008 fa41 	bl	2fff37ce <spi_nor_read_sr>
2ffeb34c:	b9c0      	cbnz	r0, 2ffeb380 <spi_nor_wait_ready+0x70>
2ffeb34e:	6b73      	ldr	r3, [r6, #52]	@ 0x34
2ffeb350:	07da      	lsls	r2, r3, #31
2ffeb352:	d511      	bpl.n	2ffeb378 <spi_nor_wait_ready+0x68>
2ffeb354:	4603      	mov	r3, r0
2ffeb356:	2201      	movs	r2, #1
2ffeb358:	f10d 0107 	add.w	r1, sp, #7
2ffeb35c:	2070      	movs	r0, #112	@ 0x70
2ffeb35e:	f008 fa15 	bl	2fff378c <spi_nor_reg>
2ffeb362:	b968      	cbnz	r0, 2ffeb380 <spi_nor_wait_ready+0x70>
2ffeb364:	f99d 3007 	ldrsb.w	r3, [sp, #7]
2ffeb368:	2b00      	cmp	r3, #0
2ffeb36a:	dae2      	bge.n	2ffeb332 <spi_nor_wait_ready+0x22>
2ffeb36c:	f89d 3006 	ldrb.w	r3, [sp, #6]
2ffeb370:	07db      	lsls	r3, r3, #31
2ffeb372:	d4de      	bmi.n	2ffeb332 <spi_nor_wait_ready+0x22>
2ffeb374:	b003      	add	sp, #12
2ffeb376:	bdf0      	pop	{r4, r5, r6, r7, pc}
2ffeb378:	f89d 0006 	ldrb.w	r0, [sp, #6]
2ffeb37c:	f000 0001 	and.w	r0, r0, #1
2ffeb380:	2800      	cmp	r0, #0
2ffeb382:	dcd6      	bgt.n	2ffeb332 <spi_nor_wait_ready+0x22>
2ffeb384:	e7f6      	b.n	2ffeb374 <spi_nor_wait_ready+0x64>
2ffeb386:	bf00      	nop
2ffeb388:	000f4240 	.word	0x000f4240
2ffeb38c:	2fffb250 	.word	0x2fffb250

2ffeb390 <spi_nor_read>:
2ffeb390:	b5f7      	push	{r0, r1, r2, r4, r5, r6, r7, lr}
2ffeb392:	461f      	mov	r7, r3
2ffeb394:	4c29      	ldr	r4, [pc, #164]	@ (2ffeb43c <spi_nor_read+0xac>)
2ffeb396:	4616      	mov	r6, r2
2ffeb398:	2300      	movs	r3, #0
2ffeb39a:	603b      	str	r3, [r7, #0]
2ffeb39c:	e9c4 0304 	strd	r0, r3, [r4, #16]
2ffeb3a0:	62a1      	str	r1, [r4, #40]	@ 0x28
2ffeb3a2:	6b63      	ldr	r3, [r4, #52]	@ 0x34
2ffeb3a4:	f003 0302 	and.w	r3, r3, #2
2ffeb3a8:	b936      	cbnz	r6, 2ffeb3b8 <spi_nor_read+0x28>
2ffeb3aa:	2b00      	cmp	r3, #0
2ffeb3ac:	d044      	beq.n	2ffeb438 <spi_nor_read+0xa8>
2ffeb3ae:	b003      	add	sp, #12
2ffeb3b0:	e8bd 40f0 	ldmia.w	sp!, {r4, r5, r6, r7, lr}
2ffeb3b4:	f7ff bf94 	b.w	2ffeb2e0 <spi_nor_clean_bar>
2ffeb3b8:	b363      	cbz	r3, 2ffeb414 <spi_nor_read+0x84>
2ffeb3ba:	7ce3      	ldrb	r3, [r4, #19]
2ffeb3bc:	f894 2038 	ldrb.w	r2, [r4, #56]	@ 0x38
2ffeb3c0:	f88d 3007 	strb.w	r3, [sp, #7]
2ffeb3c4:	429a      	cmp	r2, r3
2ffeb3c6:	d011      	beq.n	2ffeb3ec <spi_nor_read+0x5c>
2ffeb3c8:	f008 f9fb 	bl	2fff37c2 <spi_nor_write_en>
2ffeb3cc:	4605      	mov	r5, r0
2ffeb3ce:	b9f0      	cbnz	r0, 2ffeb40e <spi_nor_read+0x7e>
2ffeb3d0:	f894 0039 	ldrb.w	r0, [r4, #57]	@ 0x39
2ffeb3d4:	2301      	movs	r3, #1
2ffeb3d6:	461a      	mov	r2, r3
2ffeb3d8:	f10d 0107 	add.w	r1, sp, #7
2ffeb3dc:	f008 f9d6 	bl	2fff378c <spi_nor_reg>
2ffeb3e0:	4605      	mov	r5, r0
2ffeb3e2:	b9a0      	cbnz	r0, 2ffeb40e <spi_nor_read+0x7e>
2ffeb3e4:	f89d 3007 	ldrb.w	r3, [sp, #7]
2ffeb3e8:	f884 3038 	strb.w	r3, [r4, #56]	@ 0x38
2ffeb3ec:	f894 3038 	ldrb.w	r3, [r4, #56]	@ 0x38
2ffeb3f0:	6922      	ldr	r2, [r4, #16]
2ffeb3f2:	3301      	adds	r3, #1
2ffeb3f4:	ebc2 6203 	rsb	r2, r2, r3, lsl #24
2ffeb3f8:	42b2      	cmp	r2, r6
2ffeb3fa:	bf28      	it	cs
2ffeb3fc:	4632      	movcs	r2, r6
2ffeb3fe:	6262      	str	r2, [r4, #36]	@ 0x24
2ffeb400:	4620      	mov	r0, r4
2ffeb402:	f000 f9f1 	bl	2ffeb7e8 <spi_mem_dirmap_read>
2ffeb406:	4605      	mov	r5, r0
2ffeb408:	b130      	cbz	r0, 2ffeb418 <spi_nor_read+0x88>
2ffeb40a:	f7ff ff69 	bl	2ffeb2e0 <spi_nor_clean_bar>
2ffeb40e:	4628      	mov	r0, r5
2ffeb410:	b003      	add	sp, #12
2ffeb412:	bdf0      	pop	{r4, r5, r6, r7, pc}
2ffeb414:	4632      	mov	r2, r6
2ffeb416:	e7f2      	b.n	2ffeb3fe <spi_nor_read+0x6e>
2ffeb418:	6a63      	ldr	r3, [r4, #36]	@ 0x24
2ffeb41a:	e9d4 2104 	ldrd	r2, r1, [r4, #16]
2ffeb41e:	1af6      	subs	r6, r6, r3
2ffeb420:	18d2      	adds	r2, r2, r3
2ffeb422:	f141 0100 	adc.w	r1, r1, #0
2ffeb426:	e9c4 2104 	strd	r2, r1, [r4, #16]
2ffeb42a:	6aa2      	ldr	r2, [r4, #40]	@ 0x28
2ffeb42c:	441a      	add	r2, r3
2ffeb42e:	62a2      	str	r2, [r4, #40]	@ 0x28
2ffeb430:	683a      	ldr	r2, [r7, #0]
2ffeb432:	441a      	add	r2, r3
2ffeb434:	603a      	str	r2, [r7, #0]
2ffeb436:	e7b4      	b.n	2ffeb3a2 <spi_nor_read+0x12>
2ffeb438:	4635      	mov	r5, r6
2ffeb43a:	e7e8      	b.n	2ffeb40e <spi_nor_read+0x7e>
2ffeb43c:	2fffb250 	.word	0x2fffb250

2ffeb440 <spi_nor_init>:
2ffeb440:	b570      	push	{r4, r5, r6, lr}
2ffeb442:	2303      	movs	r3, #3
2ffeb444:	4d92      	ldr	r5, [pc, #584]	@ (2ffeb690 <spi_nor_init+0x250>)
2ffeb446:	b08e      	sub	sp, #56	@ 0x38
2ffeb448:	4604      	mov	r4, r0
2ffeb44a:	80ab      	strh	r3, [r5, #4]
2ffeb44c:	f240 1301 	movw	r3, #257	@ 0x101
2ffeb450:	802b      	strh	r3, [r5, #0]
2ffeb452:	f240 1303 	movw	r3, #259	@ 0x103
2ffeb456:	812b      	strh	r3, [r5, #8]
2ffeb458:	2301      	movs	r3, #1
2ffeb45a:	772b      	strb	r3, [r5, #28]
2ffeb45c:	4628      	mov	r0, r5
2ffeb45e:	2300      	movs	r3, #0
2ffeb460:	622b      	str	r3, [r5, #32]
2ffeb462:	f009 f8f5 	bl	2fff4650 <plat_get_nor_data>
2ffeb466:	b120      	cbz	r0, 2ffeb472 <spi_nor_init+0x32>
2ffeb468:	f06f 0415 	mvn.w	r4, #21
2ffeb46c:	4620      	mov	r0, r4
2ffeb46e:	b00e      	add	sp, #56	@ 0x38
2ffeb470:	bd70      	pop	{r4, r5, r6, pc}
2ffeb472:	6b2b      	ldr	r3, [r5, #48]	@ 0x30
2ffeb474:	b923      	cbnz	r3, 2ffeb480 <spi_nor_init+0x40>
2ffeb476:	4887      	ldr	r0, [pc, #540]	@ (2ffeb694 <spi_nor_init+0x254>)
2ffeb478:	f44f 71c1 	mov.w	r1, #386	@ 0x182
2ffeb47c:	f007 fe8c 	bl	2fff3198 <__assert>
2ffeb480:	f1b3 7f80 	cmp.w	r3, #16777216	@ 0x1000000
2ffeb484:	d915      	bls.n	2ffeb4b2 <spi_nor_init+0x72>
2ffeb486:	7a2b      	ldrb	r3, [r5, #8]
2ffeb488:	2b03      	cmp	r3, #3
2ffeb48a:	d112      	bne.n	2ffeb4b2 <spi_nor_init+0x72>
2ffeb48c:	6b6b      	ldr	r3, [r5, #52]	@ 0x34
2ffeb48e:	079e      	lsls	r6, r3, #30
2ffeb490:	d40f      	bmi.n	2ffeb4b2 <spi_nor_init+0x72>
2ffeb492:	4981      	ldr	r1, [pc, #516]	@ (2ffeb698 <spi_nor_init+0x258>)
2ffeb494:	4881      	ldr	r0, [pc, #516]	@ (2ffeb69c <spi_nor_init+0x25c>)
2ffeb496:	f7fe fec9 	bl	2ffea22c <tf_log>
2ffeb49a:	497f      	ldr	r1, [pc, #508]	@ (2ffeb698 <spi_nor_init+0x258>)
2ffeb49c:	4880      	ldr	r0, [pc, #512]	@ (2ffeb6a0 <spi_nor_init+0x260>)
2ffeb49e:	f7fe fec5 	bl	2ffea22c <tf_log>
2ffeb4a2:	497d      	ldr	r1, [pc, #500]	@ (2ffeb698 <spi_nor_init+0x258>)
2ffeb4a4:	487f      	ldr	r0, [pc, #508]	@ (2ffeb6a4 <spi_nor_init+0x264>)
2ffeb4a6:	f7fe fec1 	bl	2ffea22c <tf_log>
2ffeb4aa:	497b      	ldr	r1, [pc, #492]	@ (2ffeb698 <spi_nor_init+0x258>)
2ffeb4ac:	487e      	ldr	r0, [pc, #504]	@ (2ffeb6a8 <spi_nor_init+0x268>)
2ffeb4ae:	f7fe febd 	bl	2ffea22c <tf_log>
2ffeb4b2:	6b2a      	ldr	r2, [r5, #48]	@ 0x30
2ffeb4b4:	2300      	movs	r3, #0
2ffeb4b6:	f10d 0106 	add.w	r1, sp, #6
2ffeb4ba:	209f      	movs	r0, #159	@ 0x9f
2ffeb4bc:	e9c4 2300 	strd	r2, r3, [r4]
2ffeb4c0:	2201      	movs	r2, #1
2ffeb4c2:	f008 f963 	bl	2fff378c <spi_nor_reg>
2ffeb4c6:	4604      	mov	r4, r0
2ffeb4c8:	2800      	cmp	r0, #0
2ffeb4ca:	d1cf      	bne.n	2ffeb46c <spi_nor_init+0x2c>
2ffeb4cc:	782e      	ldrb	r6, [r5, #0]
2ffeb4ce:	2e02      	cmp	r6, #2
2ffeb4d0:	d144      	bne.n	2ffeb55c <spi_nor_init+0x11c>
2ffeb4d2:	786b      	ldrb	r3, [r5, #1]
2ffeb4d4:	2b08      	cmp	r3, #8
2ffeb4d6:	f040 80d7 	bne.w	2ffeb688 <spi_nor_init+0x248>
2ffeb4da:	f89d 3006 	ldrb.w	r3, [sp, #6]
2ffeb4de:	2bc2      	cmp	r3, #194	@ 0xc2
2ffeb4e0:	f040 80d2 	bne.w	2ffeb688 <spi_nor_init+0x248>
2ffeb4e4:	4871      	ldr	r0, [pc, #452]	@ (2ffeb6ac <spi_nor_init+0x26c>)
2ffeb4e6:	f7fe fea1 	bl	2ffea22c <tf_log>
2ffeb4ea:	2130      	movs	r1, #48	@ 0x30
2ffeb4ec:	a802      	add	r0, sp, #8
2ffeb4ee:	f7fe e88c 	blx	2ffe9608 <zero_normalmem>
2ffeb4f2:	2372      	movs	r3, #114	@ 0x72
2ffeb4f4:	f8ad 300c 	strh.w	r3, [sp, #12]
2ffeb4f8:	f240 1301 	movw	r3, #257	@ 0x101
2ffeb4fc:	f8ad 3008 	strh.w	r3, [sp, #8]
2ffeb500:	f44f 7382 	mov.w	r3, #260	@ 0x104
2ffeb504:	f8ad 3010 	strh.w	r3, [sp, #16]
2ffeb508:	2301      	movs	r3, #1
2ffeb50a:	f88d 3024 	strb.w	r3, [sp, #36]	@ 0x24
2ffeb50e:	e9cd 330a 	strd	r3, r3, [sp, #40]	@ 0x28
2ffeb512:	f10d 0307 	add.w	r3, sp, #7
2ffeb516:	930c      	str	r3, [sp, #48]	@ 0x30
2ffeb518:	f008 f953 	bl	2fff37c2 <spi_nor_write_en>
2ffeb51c:	4604      	mov	r4, r0
2ffeb51e:	2800      	cmp	r0, #0
2ffeb520:	d1a4      	bne.n	2ffeb46c <spi_nor_init+0x2c>
2ffeb522:	f88d 0007 	strb.w	r0, [sp, #7]
2ffeb526:	f44f 7240 	mov.w	r2, #768	@ 0x300
2ffeb52a:	2300      	movs	r3, #0
2ffeb52c:	a802      	add	r0, sp, #8
2ffeb52e:	e9cd 2306 	strd	r2, r3, [sp, #24]
2ffeb532:	f000 f935 	bl	2ffeb7a0 <spi_mem_exec_op>
2ffeb536:	4604      	mov	r4, r0
2ffeb538:	2800      	cmp	r0, #0
2ffeb53a:	d197      	bne.n	2ffeb46c <spi_nor_init+0x2c>
2ffeb53c:	f008 f941 	bl	2fff37c2 <spi_nor_write_en>
2ffeb540:	4604      	mov	r4, r0
2ffeb542:	2800      	cmp	r0, #0
2ffeb544:	d192      	bne.n	2ffeb46c <spi_nor_init+0x2c>
2ffeb546:	f88d 6007 	strb.w	r6, [sp, #7]
2ffeb54a:	2200      	movs	r2, #0
2ffeb54c:	2300      	movs	r3, #0
2ffeb54e:	a802      	add	r0, sp, #8
2ffeb550:	e9cd 2306 	strd	r2, r3, [sp, #24]
2ffeb554:	f000 f924 	bl	2ffeb7a0 <spi_mem_exec_op>
2ffeb558:	4604      	mov	r4, r0
2ffeb55a:	e787      	b.n	2ffeb46c <spi_nor_init+0x2c>
2ffeb55c:	6b6b      	ldr	r3, [r5, #52]	@ 0x34
2ffeb55e:	0798      	lsls	r0, r3, #30
2ffeb560:	d50e      	bpl.n	2ffeb580 <spi_nor_init+0x140>
2ffeb562:	f89d 3006 	ldrb.w	r3, [sp, #6]
2ffeb566:	2b01      	cmp	r3, #1
2ffeb568:	bf09      	itett	eq
2ffeb56a:	2316      	moveq	r3, #22
2ffeb56c:	23c8      	movne	r3, #200	@ 0xc8
2ffeb56e:	f885 303a 	strbeq.w	r3, [r5, #58]	@ 0x3a
2ffeb572:	2317      	moveq	r3, #23
2ffeb574:	bf1c      	itt	ne
2ffeb576:	f885 303a 	strbne.w	r3, [r5, #58]	@ 0x3a
2ffeb57a:	23c5      	movne	r3, #197	@ 0xc5
2ffeb57c:	f885 3039 	strb.w	r3, [r5, #57]	@ 0x39
2ffeb580:	7f2b      	ldrb	r3, [r5, #28]
2ffeb582:	2b04      	cmp	r3, #4
2ffeb584:	d133      	bne.n	2ffeb5ee <spi_nor_init+0x1ae>
2ffeb586:	f89d 3006 	ldrb.w	r3, [sp, #6]
2ffeb58a:	2b2c      	cmp	r3, #44	@ 0x2c
2ffeb58c:	d02f      	beq.n	2ffeb5ee <spi_nor_init+0x1ae>
2ffeb58e:	2bc2      	cmp	r3, #194	@ 0xc2
2ffeb590:	d143      	bne.n	2ffeb61a <spi_nor_init+0x1da>
2ffeb592:	4847      	ldr	r0, [pc, #284]	@ (2ffeb6b0 <spi_nor_init+0x270>)
2ffeb594:	f7fe fe4a 	bl	2ffea22c <tf_log>
2ffeb598:	a802      	add	r0, sp, #8
2ffeb59a:	f008 f918 	bl	2fff37ce <spi_nor_read_sr>
2ffeb59e:	2800      	cmp	r0, #0
2ffeb5a0:	d1da      	bne.n	2ffeb558 <spi_nor_init+0x118>
2ffeb5a2:	f89d 3008 	ldrb.w	r3, [sp, #8]
2ffeb5a6:	0659      	lsls	r1, r3, #25
2ffeb5a8:	d421      	bmi.n	2ffeb5ee <spi_nor_init+0x1ae>
2ffeb5aa:	f008 f90a 	bl	2fff37c2 <spi_nor_write_en>
2ffeb5ae:	2800      	cmp	r0, #0
2ffeb5b0:	d1d2      	bne.n	2ffeb558 <spi_nor_init+0x118>
2ffeb5b2:	f89d 3008 	ldrb.w	r3, [sp, #8]
2ffeb5b6:	a902      	add	r1, sp, #8
2ffeb5b8:	f043 0340 	orr.w	r3, r3, #64	@ 0x40
2ffeb5bc:	f88d 3008 	strb.w	r3, [sp, #8]
2ffeb5c0:	2301      	movs	r3, #1
2ffeb5c2:	461a      	mov	r2, r3
2ffeb5c4:	4618      	mov	r0, r3
2ffeb5c6:	f008 f8e1 	bl	2fff378c <spi_nor_reg>
2ffeb5ca:	2800      	cmp	r0, #0
2ffeb5cc:	d1c4      	bne.n	2ffeb558 <spi_nor_init+0x118>
2ffeb5ce:	f7ff fe9f 	bl	2ffeb310 <spi_nor_wait_ready>
2ffeb5d2:	2800      	cmp	r0, #0
2ffeb5d4:	d1c0      	bne.n	2ffeb558 <spi_nor_init+0x118>
2ffeb5d6:	a802      	add	r0, sp, #8
2ffeb5d8:	f008 f8f9 	bl	2fff37ce <spi_nor_read_sr>
2ffeb5dc:	2800      	cmp	r0, #0
2ffeb5de:	f47f af43 	bne.w	2ffeb468 <spi_nor_init+0x28>
2ffeb5e2:	f89d 3008 	ldrb.w	r3, [sp, #8]
2ffeb5e6:	f013 0f40 	tst.w	r3, #64	@ 0x40
2ffeb5ea:	f43f af3d 	beq.w	2ffeb468 <spi_nor_init+0x28>
2ffeb5ee:	6b6b      	ldr	r3, [r5, #52]	@ 0x34
2ffeb5f0:	079b      	lsls	r3, r3, #30
2ffeb5f2:	f57f af3b 	bpl.w	2ffeb46c <spi_nor_init+0x2c>
2ffeb5f6:	f895 003a 	ldrb.w	r0, [r5, #58]	@ 0x3a
2ffeb5fa:	2300      	movs	r3, #0
2ffeb5fc:	f88d 3008 	strb.w	r3, [sp, #8]
2ffeb600:	2201      	movs	r2, #1
2ffeb602:	a902      	add	r1, sp, #8
2ffeb604:	f008 f8c2 	bl	2fff378c <spi_nor_reg>
2ffeb608:	4604      	mov	r4, r0
2ffeb60a:	2800      	cmp	r0, #0
2ffeb60c:	f47f af2e 	bne.w	2ffeb46c <spi_nor_init+0x2c>
2ffeb610:	f89d 3008 	ldrb.w	r3, [sp, #8]
2ffeb614:	f885 3038 	strb.w	r3, [r5, #56]	@ 0x38
2ffeb618:	e728      	b.n	2ffeb46c <spi_nor_init+0x2c>
2ffeb61a:	2300      	movs	r3, #0
2ffeb61c:	2201      	movs	r2, #1
2ffeb61e:	f10d 0109 	add.w	r1, sp, #9
2ffeb622:	2035      	movs	r0, #53	@ 0x35
2ffeb624:	f008 f8b2 	bl	2fff378c <spi_nor_reg>
2ffeb628:	2800      	cmp	r0, #0
2ffeb62a:	d195      	bne.n	2ffeb558 <spi_nor_init+0x118>
2ffeb62c:	f89d 3009 	ldrb.w	r3, [sp, #9]
2ffeb630:	079a      	lsls	r2, r3, #30
2ffeb632:	d4dc      	bmi.n	2ffeb5ee <spi_nor_init+0x1ae>
2ffeb634:	f043 0302 	orr.w	r3, r3, #2
2ffeb638:	a802      	add	r0, sp, #8
2ffeb63a:	f88d 3009 	strb.w	r3, [sp, #9]
2ffeb63e:	f008 f8c6 	bl	2fff37ce <spi_nor_read_sr>
2ffeb642:	2800      	cmp	r0, #0
2ffeb644:	d188      	bne.n	2ffeb558 <spi_nor_init+0x118>
2ffeb646:	f008 f8bc 	bl	2fff37c2 <spi_nor_write_en>
2ffeb64a:	2800      	cmp	r0, #0
2ffeb64c:	d184      	bne.n	2ffeb558 <spi_nor_init+0x118>
2ffeb64e:	2301      	movs	r3, #1
2ffeb650:	2202      	movs	r2, #2
2ffeb652:	a902      	add	r1, sp, #8
2ffeb654:	4618      	mov	r0, r3
2ffeb656:	f008 f899 	bl	2fff378c <spi_nor_reg>
2ffeb65a:	b988      	cbnz	r0, 2ffeb680 <spi_nor_init+0x240>
2ffeb65c:	f7ff fe58 	bl	2ffeb310 <spi_nor_wait_ready>
2ffeb660:	4603      	mov	r3, r0
2ffeb662:	b978      	cbnz	r0, 2ffeb684 <spi_nor_init+0x244>
2ffeb664:	2201      	movs	r2, #1
2ffeb666:	f10d 0109 	add.w	r1, sp, #9
2ffeb66a:	2035      	movs	r0, #53	@ 0x35
2ffeb66c:	f008 f88e 	bl	2fff378c <spi_nor_reg>
2ffeb670:	2800      	cmp	r0, #0
2ffeb672:	f47f aef9 	bne.w	2ffeb468 <spi_nor_init+0x28>
2ffeb676:	f89d 3009 	ldrb.w	r3, [sp, #9]
2ffeb67a:	f013 0f02 	tst.w	r3, #2
2ffeb67e:	e7b4      	b.n	2ffeb5ea <spi_nor_init+0x1aa>
2ffeb680:	f06f 0315 	mvn.w	r3, #21
2ffeb684:	461c      	mov	r4, r3
2ffeb686:	e6f1      	b.n	2ffeb46c <spi_nor_init+0x2c>
2ffeb688:	f06f 042c 	mvn.w	r4, #44	@ 0x2c
2ffeb68c:	e6ee      	b.n	2ffeb46c <spi_nor_init+0x2c>
2ffeb68e:	bf00      	nop
2ffeb690:	2fffb250 	.word	0x2fffb250
2ffeb694:	2fff6d57 	.word	0x2fff6d57
2ffeb698:	2fff8f3a 	.word	0x2fff8f3a
2ffeb69c:	2fff6d71 	.word	0x2fff6d71
2ffeb6a0:	2fff6db1 	.word	0x2fff6db1
2ffeb6a4:	2fff6df2 	.word	0x2fff6df2
2ffeb6a8:	2fff6e2d 	.word	0x2fff6e2d
2ffeb6ac:	2fff6e6b 	.word	0x2fff6e6b
2ffeb6b0:	2fff6e8f 	.word	0x2fff6e8f

2ffeb6b4 <spi_nor_reset>:
2ffeb6b4:	4b1f      	ldr	r3, [pc, #124]	@ (2ffeb734 <spi_nor_reset+0x80>)
2ffeb6b6:	b570      	push	{r4, r5, r6, lr}
2ffeb6b8:	b08c      	sub	sp, #48	@ 0x30
2ffeb6ba:	781a      	ldrb	r2, [r3, #0]
2ffeb6bc:	2a02      	cmp	r2, #2
2ffeb6be:	d136      	bne.n	2ffeb72e <spi_nor_reset+0x7a>
2ffeb6c0:	889d      	ldrh	r5, [r3, #4]
2ffeb6c2:	2130      	movs	r1, #48	@ 0x30
2ffeb6c4:	4668      	mov	r0, sp
2ffeb6c6:	0a2e      	lsrs	r6, r5, #8
2ffeb6c8:	f7fd ef9e 	blx	2ffe9608 <zero_normalmem>
2ffeb6cc:	f640 0302 	movw	r3, #2050	@ 0x802
2ffeb6d0:	f246 6266 	movw	r2, #26214	@ 0x6666
2ffeb6d4:	f8ad 3000 	strh.w	r3, [sp]
2ffeb6d8:	2301      	movs	r3, #1
2ffeb6da:	f88d 3002 	strb.w	r3, [sp, #2]
2ffeb6de:	b2ed      	uxtb	r5, r5
2ffeb6e0:	f88d 300a 	strb.w	r3, [sp, #10]
2ffeb6e4:	4668      	mov	r0, sp
2ffeb6e6:	f88d 301a 	strb.w	r3, [sp, #26]
2ffeb6ea:	f88d 301d 	strb.w	r3, [sp, #29]
2ffeb6ee:	9308      	str	r3, [sp, #32]
2ffeb6f0:	f246 6399 	movw	r3, #26265	@ 0x6699
2ffeb6f4:	42ae      	cmp	r6, r5
2ffeb6f6:	bf08      	it	eq
2ffeb6f8:	4613      	moveq	r3, r2
2ffeb6fa:	f8ad 3004 	strh.w	r3, [sp, #4]
2ffeb6fe:	f000 f84f 	bl	2ffeb7a0 <spi_mem_exec_op>
2ffeb702:	4604      	mov	r4, r0
2ffeb704:	b980      	cbnz	r0, 2ffeb728 <spi_nor_reset+0x74>
2ffeb706:	f649 1299 	movw	r2, #39321	@ 0x9999
2ffeb70a:	f649 1366 	movw	r3, #39270	@ 0x9966
2ffeb70e:	4668      	mov	r0, sp
2ffeb710:	42ae      	cmp	r6, r5
2ffeb712:	bf08      	it	eq
2ffeb714:	4613      	moveq	r3, r2
2ffeb716:	f8ad 3004 	strh.w	r3, [sp, #4]
2ffeb71a:	f000 f841 	bl	2ffeb7a0 <spi_mem_exec_op>
2ffeb71e:	4604      	mov	r4, r0
2ffeb720:	b910      	cbnz	r0, 2ffeb728 <spi_nor_reset+0x74>
2ffeb722:	2064      	movs	r0, #100	@ 0x64
2ffeb724:	f7ff f82c 	bl	2ffea780 <udelay>
2ffeb728:	4620      	mov	r0, r4
2ffeb72a:	b00c      	add	sp, #48	@ 0x30
2ffeb72c:	bd70      	pop	{r4, r5, r6, pc}
2ffeb72e:	2400      	movs	r4, #0
2ffeb730:	e7fa      	b.n	2ffeb728 <spi_nor_reset+0x74>
2ffeb732:	bf00      	nop
2ffeb734:	2fffb250 	.word	0x2fffb250

2ffeb738 <spi_mem_check_buswidth_req>:
2ffeb738:	4b13      	ldr	r3, [pc, #76]	@ (2ffeb788 <spi_mem_check_buswidth_req+0x50>)
2ffeb73a:	3801      	subs	r0, #1
2ffeb73c:	689b      	ldr	r3, [r3, #8]
2ffeb73e:	2807      	cmp	r0, #7
2ffeb740:	d805      	bhi.n	2ffeb74e <spi_mem_check_buswidth_req+0x16>
2ffeb742:	e8df f000 	tbb	[pc, r0]
2ffeb746:	061e      	.short	0x061e
2ffeb748:	04041004 	.word	0x04041004
2ffeb74c:	1704      	.short	0x1704
2ffeb74e:	2000      	movs	r0, #0
2ffeb750:	4770      	bx	lr
2ffeb752:	b929      	cbnz	r1, 2ffeb760 <spi_mem_check_buswidth_req+0x28>
2ffeb754:	f413 6f30 	tst.w	r3, #2816	@ 0xb00
2ffeb758:	bf14      	ite	ne
2ffeb75a:	2001      	movne	r0, #1
2ffeb75c:	2000      	moveq	r0, #0
2ffeb75e:	4770      	bx	lr
2ffeb760:	f413 6f98 	tst.w	r3, #1216	@ 0x4c0
2ffeb764:	e7f8      	b.n	2ffeb758 <spi_mem_check_buswidth_req+0x20>
2ffeb766:	b911      	cbnz	r1, 2ffeb76e <spi_mem_check_buswidth_req+0x36>
2ffeb768:	f413 6f20 	tst.w	r3, #2560	@ 0xa00
2ffeb76c:	e7f4      	b.n	2ffeb758 <spi_mem_check_buswidth_req+0x20>
2ffeb76e:	f413 6f90 	tst.w	r3, #1152	@ 0x480
2ffeb772:	e7f1      	b.n	2ffeb758 <spi_mem_check_buswidth_req+0x20>
2ffeb774:	b911      	cbnz	r1, 2ffeb77c <spi_mem_check_buswidth_req+0x44>
2ffeb776:	f3c3 20c0 	ubfx	r0, r3, #11, #1
2ffeb77a:	4770      	bx	lr
2ffeb77c:	f3c3 2080 	ubfx	r0, r3, #10, #1
2ffeb780:	4770      	bx	lr
2ffeb782:	2001      	movs	r0, #1
2ffeb784:	4770      	bx	lr
2ffeb786:	bf00      	nop
2ffeb788:	2fffb41c 	.word	0x2fffb41c

2ffeb78c <spi_mem_supports_op>:
2ffeb78c:	4b03      	ldr	r3, [pc, #12]	@ (2ffeb79c <spi_mem_supports_op+0x10>)
2ffeb78e:	68db      	ldr	r3, [r3, #12]
2ffeb790:	699b      	ldr	r3, [r3, #24]
2ffeb792:	b103      	cbz	r3, 2ffeb796 <spi_mem_supports_op+0xa>
2ffeb794:	4718      	bx	r3
2ffeb796:	f008 b845 	b.w	2fff3824 <spi_mem_default_supports_op>
2ffeb79a:	bf00      	nop
2ffeb79c:	2fffb41c 	.word	0x2fffb41c

2ffeb7a0 <spi_mem_exec_op>:
2ffeb7a0:	b570      	push	{r4, r5, r6, lr}
2ffeb7a2:	4606      	mov	r6, r0
2ffeb7a4:	4c0d      	ldr	r4, [pc, #52]	@ (2ffeb7dc <spi_mem_exec_op+0x3c>)
2ffeb7a6:	68e5      	ldr	r5, [r4, #12]
2ffeb7a8:	f7ff fff0 	bl	2ffeb78c <spi_mem_supports_op>
2ffeb7ac:	b930      	cbnz	r0, 2ffeb7bc <spi_mem_exec_op+0x1c>
2ffeb7ae:	480c      	ldr	r0, [pc, #48]	@ (2ffeb7e0 <spi_mem_exec_op+0x40>)
2ffeb7b0:	f06f 042c 	mvn.w	r4, #44	@ 0x2c
2ffeb7b4:	f7fe fd3a 	bl	2ffea22c <tf_log>
2ffeb7b8:	4620      	mov	r0, r4
2ffeb7ba:	bd70      	pop	{r4, r5, r6, pc}
2ffeb7bc:	6860      	ldr	r0, [r4, #4]
2ffeb7be:	682b      	ldr	r3, [r5, #0]
2ffeb7c0:	4798      	blx	r3
2ffeb7c2:	4604      	mov	r4, r0
2ffeb7c4:	b118      	cbz	r0, 2ffeb7ce <spi_mem_exec_op+0x2e>
2ffeb7c6:	4807      	ldr	r0, [pc, #28]	@ (2ffeb7e4 <spi_mem_exec_op+0x44>)
2ffeb7c8:	f7fe fd30 	bl	2ffea22c <tf_log>
2ffeb7cc:	e7f4      	b.n	2ffeb7b8 <spi_mem_exec_op+0x18>
2ffeb7ce:	692b      	ldr	r3, [r5, #16]
2ffeb7d0:	4630      	mov	r0, r6
2ffeb7d2:	4798      	blx	r3
2ffeb7d4:	686b      	ldr	r3, [r5, #4]
2ffeb7d6:	4604      	mov	r4, r0
2ffeb7d8:	4798      	blx	r3
2ffeb7da:	e7ed      	b.n	2ffeb7b8 <spi_mem_exec_op+0x18>
2ffeb7dc:	2fffb41c 	.word	0x2fffb41c
2ffeb7e0:	2fff6eae 	.word	0x2fff6eae
2ffeb7e4:	2fff6ec9 	.word	0x2fff6ec9

2ffeb7e8 <spi_mem_dirmap_read>:
2ffeb7e8:	6a03      	ldr	r3, [r0, #32]
2ffeb7ea:	b570      	push	{r4, r5, r6, lr}
2ffeb7ec:	4605      	mov	r5, r0
2ffeb7ee:	bb1b      	cbnz	r3, 2ffeb838 <spi_mem_dirmap_read+0x50>
2ffeb7f0:	6a44      	ldr	r4, [r0, #36]	@ 0x24
2ffeb7f2:	b17c      	cbz	r4, 2ffeb814 <spi_mem_dirmap_read+0x2c>
2ffeb7f4:	4c12      	ldr	r4, [pc, #72]	@ (2ffeb840 <spi_mem_dirmap_read+0x58>)
2ffeb7f6:	68e6      	ldr	r6, [r4, #12]
2ffeb7f8:	6973      	ldr	r3, [r6, #20]
2ffeb7fa:	b91b      	cbnz	r3, 2ffeb804 <spi_mem_dirmap_read+0x1c>
2ffeb7fc:	e8bd 4070 	ldmia.w	sp!, {r4, r5, r6, lr}
2ffeb800:	f7ff bfce 	b.w	2ffeb7a0 <spi_mem_exec_op>
2ffeb804:	f7ff ffc2 	bl	2ffeb78c <spi_mem_supports_op>
2ffeb808:	b930      	cbnz	r0, 2ffeb818 <spi_mem_dirmap_read+0x30>
2ffeb80a:	480e      	ldr	r0, [pc, #56]	@ (2ffeb844 <spi_mem_dirmap_read+0x5c>)
2ffeb80c:	f06f 042c 	mvn.w	r4, #44	@ 0x2c
2ffeb810:	f7fe fd0c 	bl	2ffea22c <tf_log>
2ffeb814:	4620      	mov	r0, r4
2ffeb816:	bd70      	pop	{r4, r5, r6, pc}
2ffeb818:	6860      	ldr	r0, [r4, #4]
2ffeb81a:	6833      	ldr	r3, [r6, #0]
2ffeb81c:	4798      	blx	r3
2ffeb81e:	4604      	mov	r4, r0
2ffeb820:	b118      	cbz	r0, 2ffeb82a <spi_mem_dirmap_read+0x42>
2ffeb822:	4809      	ldr	r0, [pc, #36]	@ (2ffeb848 <spi_mem_dirmap_read+0x60>)
2ffeb824:	f7fe fd02 	bl	2ffea22c <tf_log>
2ffeb828:	e7f4      	b.n	2ffeb814 <spi_mem_dirmap_read+0x2c>
2ffeb82a:	6973      	ldr	r3, [r6, #20]
2ffeb82c:	4628      	mov	r0, r5
2ffeb82e:	4798      	blx	r3
2ffeb830:	6873      	ldr	r3, [r6, #4]
2ffeb832:	4604      	mov	r4, r0
2ffeb834:	4798      	blx	r3
2ffeb836:	e7ed      	b.n	2ffeb814 <spi_mem_dirmap_read+0x2c>
2ffeb838:	f06f 0415 	mvn.w	r4, #21
2ffeb83c:	e7ea      	b.n	2ffeb814 <spi_mem_dirmap_read+0x2c>
2ffeb83e:	bf00      	nop
2ffeb840:	2fffb41c 	.word	0x2fffb41c
2ffeb844:	2fff6eae 	.word	0x2fff6eae
2ffeb848:	2fff6ec9 	.word	0x2fff6ec9

2ffeb84c <spi_mem_init_slave>:
2ffeb84c:	6853      	ldr	r3, [r2, #4]
2ffeb84e:	e92d 47f0 	stmdb	sp!, {r4, r5, r6, r7, r8, r9, sl, lr}
2ffeb852:	4606      	mov	r6, r0
2ffeb854:	6814      	ldr	r4, [r2, #0]
2ffeb856:	460d      	mov	r5, r1
2ffeb858:	4617      	mov	r7, r2
2ffeb85a:	b183      	cbz	r3, 2ffeb87e <spi_mem_init_slave+0x32>
2ffeb85c:	fab4 f484 	clz	r4, r4
2ffeb860:	0964      	lsrs	r4, r4, #5
2ffeb862:	693b      	ldr	r3, [r7, #16]
2ffeb864:	2b00      	cmp	r3, #0
2ffeb866:	68bb      	ldr	r3, [r7, #8]
2ffeb868:	bf08      	it	eq
2ffeb86a:	2401      	moveq	r4, #1
2ffeb86c:	2b00      	cmp	r3, #0
2ffeb86e:	68fb      	ldr	r3, [r7, #12]
2ffeb870:	bf08      	it	eq
2ffeb872:	2401      	moveq	r4, #1
2ffeb874:	b92b      	cbnz	r3, 2ffeb882 <spi_mem_init_slave+0x36>
2ffeb876:	f06f 0015 	mvn.w	r0, #21
2ffeb87a:	e8bd 87f0 	ldmia.w	sp!, {r4, r5, r6, r7, r8, r9, sl, pc}
2ffeb87e:	2401      	movs	r4, #1
2ffeb880:	e7ef      	b.n	2ffeb862 <spi_mem_init_slave+0x16>
2ffeb882:	2c00      	cmp	r4, #0
2ffeb884:	d1f7      	bne.n	2ffeb876 <spi_mem_init_slave+0x2a>
2ffeb886:	4629      	mov	r1, r5
2ffeb888:	4630      	mov	r0, r6
2ffeb88a:	f009 f859 	bl	2fff4940 <fdt_first_subnode>
2ffeb88e:	2800      	cmp	r0, #0
2ffeb890:	4601      	mov	r1, r0
2ffeb892:	da05      	bge.n	2ffeb8a0 <spi_mem_init_slave+0x54>
2ffeb894:	2c01      	cmp	r4, #1
2ffeb896:	d008      	beq.n	2ffeb8aa <spi_mem_init_slave+0x5e>
2ffeb898:	4859      	ldr	r0, [pc, #356]	@ (2ffeba00 <spi_mem_init_slave+0x1b4>)
2ffeb89a:	f7fe fcc7 	bl	2ffea22c <tf_log>
2ffeb89e:	e7ea      	b.n	2ffeb876 <spi_mem_init_slave+0x2a>
2ffeb8a0:	4630      	mov	r0, r6
2ffeb8a2:	3401      	adds	r4, #1
2ffeb8a4:	f009 f85f 	bl	2fff4966 <fdt_next_subnode>
2ffeb8a8:	e7f1      	b.n	2ffeb88e <spi_mem_init_slave+0x42>
2ffeb8aa:	f8df 9158 	ldr.w	r9, [pc, #344]	@ 2ffeba04 <spi_mem_init_slave+0x1b8>
2ffeb8ae:	4629      	mov	r1, r5
2ffeb8b0:	f8df 8154 	ldr.w	r8, [pc, #340]	@ 2ffeba08 <spi_mem_init_slave+0x1bc>
2ffeb8b4:	4630      	mov	r0, r6
2ffeb8b6:	2400      	movs	r4, #0
2ffeb8b8:	f009 f842 	bl	2fff4940 <fdt_first_subnode>
2ffeb8bc:	4605      	mov	r5, r0
2ffeb8be:	2d00      	cmp	r5, #0
2ffeb8c0:	da0b      	bge.n	2ffeb8da <spi_mem_init_slave+0x8e>
2ffeb8c2:	4c51      	ldr	r4, [pc, #324]	@ (2ffeba08 <spi_mem_init_slave+0x1bc>)
2ffeb8c4:	68e5      	ldr	r5, [r4, #12]
2ffeb8c6:	6820      	ldr	r0, [r4, #0]
2ffeb8c8:	68ab      	ldr	r3, [r5, #8]
2ffeb8ca:	4798      	blx	r3
2ffeb8cc:	2800      	cmp	r0, #0
2ffeb8ce:	d1d4      	bne.n	2ffeb87a <spi_mem_init_slave+0x2e>
2ffeb8d0:	68eb      	ldr	r3, [r5, #12]
2ffeb8d2:	68a0      	ldr	r0, [r4, #8]
2ffeb8d4:	e8bd 47f0 	ldmia.w	sp!, {r4, r5, r6, r7, r8, r9, sl, lr}
2ffeb8d8:	4718      	bx	r3
2ffeb8da:	2300      	movs	r3, #0
2ffeb8dc:	464a      	mov	r2, r9
2ffeb8de:	4629      	mov	r1, r5
2ffeb8e0:	4630      	mov	r0, r6
2ffeb8e2:	f009 f99e 	bl	2fff4c22 <fdt_getprop>
2ffeb8e6:	b908      	cbnz	r0, 2ffeb8ec <spi_mem_init_slave+0xa0>
2ffeb8e8:	4848      	ldr	r0, [pc, #288]	@ (2ffeba0c <spi_mem_init_slave+0x1c0>)
2ffeb8ea:	e7d6      	b.n	2ffeb89a <spi_mem_init_slave+0x4e>
2ffeb8ec:	4b48      	ldr	r3, [pc, #288]	@ (2ffeba10 <spi_mem_init_slave+0x1c4>)
2ffeb8ee:	4629      	mov	r1, r5
2ffeb8f0:	6800      	ldr	r0, [r0, #0]
2ffeb8f2:	4a48      	ldr	r2, [pc, #288]	@ (2ffeba14 <spi_mem_init_slave+0x1c8>)
2ffeb8f4:	f007 ff71 	bl	2fff37da <fdt32_to_cpu>
2ffeb8f8:	f8c8 0004 	str.w	r0, [r8, #4]
2ffeb8fc:	4630      	mov	r0, r6
2ffeb8fe:	f8c8 3000 	str.w	r3, [r8]
2ffeb902:	2300      	movs	r3, #0
2ffeb904:	f009 f98d 	bl	2fff4c22 <fdt_getprop>
2ffeb908:	b120      	cbz	r0, 2ffeb914 <spi_mem_init_slave+0xc8>
2ffeb90a:	6800      	ldr	r0, [r0, #0]
2ffeb90c:	f007 ff65 	bl	2fff37da <fdt32_to_cpu>
2ffeb910:	f8c8 0000 	str.w	r0, [r8]
2ffeb914:	4a40      	ldr	r2, [pc, #256]	@ (2ffeba18 <spi_mem_init_slave+0x1cc>)
2ffeb916:	2300      	movs	r3, #0
2ffeb918:	4629      	mov	r1, r5
2ffeb91a:	4630      	mov	r0, r6
2ffeb91c:	f009 f981 	bl	2fff4c22 <fdt_getprop>
2ffeb920:	b108      	cbz	r0, 2ffeb926 <spi_mem_init_slave+0xda>
2ffeb922:	f044 0402 	orr.w	r4, r4, #2
2ffeb926:	4a3d      	ldr	r2, [pc, #244]	@ (2ffeba1c <spi_mem_init_slave+0x1d0>)
2ffeb928:	2300      	movs	r3, #0
2ffeb92a:	4629      	mov	r1, r5
2ffeb92c:	4630      	mov	r0, r6
2ffeb92e:	f009 f978 	bl	2fff4c22 <fdt_getprop>
2ffeb932:	b108      	cbz	r0, 2ffeb938 <spi_mem_init_slave+0xec>
2ffeb934:	f044 0401 	orr.w	r4, r4, #1
2ffeb938:	4a39      	ldr	r2, [pc, #228]	@ (2ffeba20 <spi_mem_init_slave+0x1d4>)
2ffeb93a:	2300      	movs	r3, #0
2ffeb93c:	4629      	mov	r1, r5
2ffeb93e:	4630      	mov	r0, r6
2ffeb940:	f009 f96f 	bl	2fff4c22 <fdt_getprop>
2ffeb944:	b108      	cbz	r0, 2ffeb94a <spi_mem_init_slave+0xfe>
2ffeb946:	f044 0404 	orr.w	r4, r4, #4
2ffeb94a:	4a36      	ldr	r2, [pc, #216]	@ (2ffeba24 <spi_mem_init_slave+0x1d8>)
2ffeb94c:	2300      	movs	r3, #0
2ffeb94e:	4629      	mov	r1, r5
2ffeb950:	4630      	mov	r0, r6
2ffeb952:	f009 f966 	bl	2fff4c22 <fdt_getprop>
2ffeb956:	b108      	cbz	r0, 2ffeb95c <spi_mem_init_slave+0x110>
2ffeb958:	f044 0410 	orr.w	r4, r4, #16
2ffeb95c:	4a32      	ldr	r2, [pc, #200]	@ (2ffeba28 <spi_mem_init_slave+0x1dc>)
2ffeb95e:	2300      	movs	r3, #0
2ffeb960:	4629      	mov	r1, r5
2ffeb962:	4630      	mov	r0, r6
2ffeb964:	f009 f95d 	bl	2fff4c22 <fdt_getprop>
2ffeb968:	b108      	cbz	r0, 2ffeb96e <spi_mem_init_slave+0x122>
2ffeb96a:	f044 0420 	orr.w	r4, r4, #32
2ffeb96e:	4a2f      	ldr	r2, [pc, #188]	@ (2ffeba2c <spi_mem_init_slave+0x1e0>)
2ffeb970:	2300      	movs	r3, #0
2ffeb972:	4629      	mov	r1, r5
2ffeb974:	4630      	mov	r0, r6
2ffeb976:	f009 f954 	bl	2fff4c22 <fdt_getprop>
2ffeb97a:	b170      	cbz	r0, 2ffeb99a <spi_mem_init_slave+0x14e>
2ffeb97c:	6800      	ldr	r0, [r0, #0]
2ffeb97e:	f007 ff2c 	bl	2fff37da <fdt32_to_cpu>
2ffeb982:	1e43      	subs	r3, r0, #1
2ffeb984:	4601      	mov	r1, r0
2ffeb986:	2b07      	cmp	r3, #7
2ffeb988:	d821      	bhi.n	2ffeb9ce <spi_mem_init_slave+0x182>
2ffeb98a:	e8df f003 	tbb	[pc, r3]
2ffeb98e:	0406      	.short	0x0406
2ffeb990:	20201a20 	.word	0x20201a20
2ffeb994:	1d20      	.short	0x1d20
2ffeb996:	f044 0440 	orr.w	r4, r4, #64	@ 0x40
2ffeb99a:	4a25      	ldr	r2, [pc, #148]	@ (2ffeba30 <spi_mem_init_slave+0x1e4>)
2ffeb99c:	2300      	movs	r3, #0
2ffeb99e:	4629      	mov	r1, r5
2ffeb9a0:	4630      	mov	r0, r6
2ffeb9a2:	f009 f93e 	bl	2fff4c22 <fdt_getprop>
2ffeb9a6:	b1c0      	cbz	r0, 2ffeb9da <spi_mem_init_slave+0x18e>
2ffeb9a8:	6800      	ldr	r0, [r0, #0]
2ffeb9aa:	f007 ff16 	bl	2fff37da <fdt32_to_cpu>
2ffeb9ae:	1e43      	subs	r3, r0, #1
2ffeb9b0:	4601      	mov	r1, r0
2ffeb9b2:	2b07      	cmp	r3, #7
2ffeb9b4:	d821      	bhi.n	2ffeb9fa <spi_mem_init_slave+0x1ae>
2ffeb9b6:	e8df f003 	tbb	[pc, r3]
2ffeb9ba:	0e10      	.short	0x0e10
2ffeb9bc:	20201a20 	.word	0x20201a20
2ffeb9c0:	1d20      	.short	0x1d20
2ffeb9c2:	f044 0480 	orr.w	r4, r4, #128	@ 0x80
2ffeb9c6:	e7e8      	b.n	2ffeb99a <spi_mem_init_slave+0x14e>
2ffeb9c8:	f444 6480 	orr.w	r4, r4, #1024	@ 0x400
2ffeb9cc:	e7e5      	b.n	2ffeb99a <spi_mem_init_slave+0x14e>
2ffeb9ce:	4819      	ldr	r0, [pc, #100]	@ (2ffeba34 <spi_mem_init_slave+0x1e8>)
2ffeb9d0:	f7fe fc2c 	bl	2ffea22c <tf_log>
2ffeb9d4:	e74f      	b.n	2ffeb876 <spi_mem_init_slave+0x2a>
2ffeb9d6:	f444 7480 	orr.w	r4, r4, #256	@ 0x100
2ffeb9da:	f8c8 4008 	str.w	r4, [r8, #8]
2ffeb9de:	4629      	mov	r1, r5
2ffeb9e0:	f8c8 700c 	str.w	r7, [r8, #12]
2ffeb9e4:	4630      	mov	r0, r6
2ffeb9e6:	f008 ffbe 	bl	2fff4966 <fdt_next_subnode>
2ffeb9ea:	4605      	mov	r5, r0
2ffeb9ec:	e767      	b.n	2ffeb8be <spi_mem_init_slave+0x72>
2ffeb9ee:	f444 7400 	orr.w	r4, r4, #512	@ 0x200
2ffeb9f2:	e7f2      	b.n	2ffeb9da <spi_mem_init_slave+0x18e>
2ffeb9f4:	f444 6400 	orr.w	r4, r4, #2048	@ 0x800
2ffeb9f8:	e7ef      	b.n	2ffeb9da <spi_mem_init_slave+0x18e>
2ffeb9fa:	480f      	ldr	r0, [pc, #60]	@ (2ffeba38 <spi_mem_init_slave+0x1ec>)
2ffeb9fc:	e7e8      	b.n	2ffeb9d0 <spi_mem_init_slave+0x184>
2ffeb9fe:	bf00      	nop
2ffeba00:	2fff6edb 	.word	0x2fff6edb
2ffeba04:	2fff748c 	.word	0x2fff748c
2ffeba08:	2fffb41c 	.word	0x2fffb41c
2ffeba0c:	2fff6f08 	.word	0x2fff6f08
2ffeba10:	000186a0 	.word	0x000186a0
2ffeba14:	2fff6f27 	.word	0x2fff6f27
2ffeba18:	2fff6f39 	.word	0x2fff6f39
2ffeba1c:	2fff6f42 	.word	0x2fff6f42
2ffeba20:	2fff6f4b 	.word	0x2fff6f4b
2ffeba24:	2fff6f57 	.word	0x2fff6f57
2ffeba28:	2fff6f61 	.word	0x2fff6f61
2ffeba2c:	2fff6f71 	.word	0x2fff6f71
2ffeba30:	2fff6fa6 	.word	0x2fff6fa6
2ffeba34:	2fff6f82 	.word	0x2fff6f82
2ffeba38:	2fff6fb7 	.word	0x2fff6fb7

2ffeba3c <is_otp_invalid_mode>:
2ffeba3c:	4b07      	ldr	r3, [pc, #28]	@ (2ffeba5c <is_otp_invalid_mode+0x20>)
2ffeba3e:	b510      	push	{r4, lr}
2ffeba40:	68db      	ldr	r3, [r3, #12]
2ffeba42:	f003 0304 	and.w	r3, r3, #4
2ffeba46:	2b00      	cmp	r3, #0
2ffeba48:	bf14      	ite	ne
2ffeba4a:	2401      	movne	r4, #1
2ffeba4c:	2400      	moveq	r4, #0
2ffeba4e:	d002      	beq.n	2ffeba56 <is_otp_invalid_mode+0x1a>
2ffeba50:	4803      	ldr	r0, [pc, #12]	@ (2ffeba60 <is_otp_invalid_mode+0x24>)
2ffeba52:	f7fe fbeb 	bl	2ffea22c <tf_log>
2ffeba56:	4620      	mov	r0, r4
2ffeba58:	bd10      	pop	{r4, pc}
2ffeba5a:	bf00      	nop
2ffeba5c:	5c005000 	.word	0x5c005000
2ffeba60:	2fff6fdb 	.word	0x2fff6fdb

2ffeba64 <bsec_lock>:
2ffeba64:	b508      	push	{r3, lr}
2ffeba66:	f008 fd89 	bl	2fff457c <stm32mp_lock_available>
2ffeba6a:	b120      	cbz	r0, 2ffeba76 <bsec_lock+0x12>
2ffeba6c:	e8bd 4008 	ldmia.w	sp!, {r3, lr}
2ffeba70:	4801      	ldr	r0, [pc, #4]	@ (2ffeba78 <bsec_lock+0x14>)
2ffeba72:	f00d bd1d 	b.w	2fff94b0 <__spin_lock_from_thumb>
2ffeba76:	bd08      	pop	{r3, pc}
2ffeba78:	2fffb42c 	.word	0x2fffb42c

2ffeba7c <bsec_unlock>:
2ffeba7c:	b508      	push	{r3, lr}
2ffeba7e:	f008 fd7d 	bl	2fff457c <stm32mp_lock_available>
2ffeba82:	b120      	cbz	r0, 2ffeba8e <bsec_unlock+0x12>
2ffeba84:	e8bd 4008 	ldmia.w	sp!, {r3, lr}
2ffeba88:	4801      	ldr	r0, [pc, #4]	@ (2ffeba90 <bsec_unlock+0x14>)
2ffeba8a:	f00d bd21 	b.w	2fff94d0 <__spin_unlock_from_thumb>
2ffeba8e:	bd08      	pop	{r3, pc}
2ffeba90:	2fffb42c 	.word	0x2fffb42c

2ffeba94 <bsec_power_safmem>:
2ffeba94:	b510      	push	{r4, lr}
2ffeba96:	4604      	mov	r4, r0
2ffeba98:	f7ff ffe4 	bl	2ffeba64 <bsec_lock>
2ffeba9c:	4a12      	ldr	r2, [pc, #72]	@ (2ffebae8 <bsec_power_safmem+0x54>)
2ffeba9e:	6813      	ldr	r3, [r2, #0]
2ffebaa0:	b164      	cbz	r4, 2ffebabc <bsec_power_safmem+0x28>
2ffebaa2:	f043 0301 	orr.w	r3, r3, #1
2ffebaa6:	6013      	str	r3, [r2, #0]
2ffebaa8:	b9cc      	cbnz	r4, 2ffebade <bsec_power_safmem+0x4a>
2ffebaaa:	4b0f      	ldr	r3, [pc, #60]	@ (2ffebae8 <bsec_power_safmem+0x54>)
2ffebaac:	f64f 74ff 	movw	r4, #65535	@ 0xffff
2ffebab0:	68da      	ldr	r2, [r3, #12]
2ffebab2:	0692      	lsls	r2, r2, #26
2ffebab4:	d50b      	bpl.n	2ffebace <bsec_power_safmem+0x3a>
2ffebab6:	b154      	cbz	r4, 2ffebace <bsec_power_safmem+0x3a>
2ffebab8:	3c01      	subs	r4, #1
2ffebaba:	e7f9      	b.n	2ffebab0 <bsec_power_safmem+0x1c>
2ffebabc:	f023 0301 	bic.w	r3, r3, #1
2ffebac0:	e7f1      	b.n	2ffebaa6 <bsec_power_safmem+0x12>
2ffebac2:	3c01      	subs	r4, #1
2ffebac4:	68da      	ldr	r2, [r3, #12]
2ffebac6:	0691      	lsls	r1, r2, #26
2ffebac8:	d401      	bmi.n	2ffebace <bsec_power_safmem+0x3a>
2ffebaca:	2c00      	cmp	r4, #0
2ffebacc:	d1f9      	bne.n	2ffebac2 <bsec_power_safmem+0x2e>
2ffebace:	f7ff ffd5 	bl	2ffeba7c <bsec_unlock>
2ffebad2:	2c00      	cmp	r4, #0
2ffebad4:	bf0c      	ite	eq
2ffebad6:	f06f 0006 	mvneq.w	r0, #6
2ffebada:	2000      	movne	r0, #0
2ffebadc:	bd10      	pop	{r4, pc}
2ffebade:	4b02      	ldr	r3, [pc, #8]	@ (2ffebae8 <bsec_power_safmem+0x54>)
2ffebae0:	f64f 74ff 	movw	r4, #65535	@ 0xffff
2ffebae4:	e7ee      	b.n	2ffebac4 <bsec_power_safmem+0x30>
2ffebae6:	bf00      	nop
2ffebae8:	5c005000 	.word	0x5c005000

2ffebaec <otp_bank_offset>:
2ffebaec:	285f      	cmp	r0, #95	@ 0x5f
2ffebaee:	b508      	push	{r3, lr}
2ffebaf0:	d903      	bls.n	2ffebafa <otp_bank_offset+0xe>
2ffebaf2:	4803      	ldr	r0, [pc, #12]	@ (2ffebb00 <otp_bank_offset+0x14>)
2ffebaf4:	21bb      	movs	r1, #187	@ 0xbb
2ffebaf6:	f007 fb4f 	bl	2fff3198 <__assert>
2ffebafa:	0940      	lsrs	r0, r0, #5
2ffebafc:	0080      	lsls	r0, r0, #2
2ffebafe:	bd08      	pop	{r3, pc}
2ffebb00:	2fff6ff5 	.word	0x2fff6ff5

2ffebb04 <bsec_check_error>:
2ffebb04:	b538      	push	{r3, r4, r5, lr}
2ffebb06:	f000 031f 	and.w	r3, r0, #31
2ffebb0a:	2401      	movs	r4, #1
2ffebb0c:	460d      	mov	r5, r1
2ffebb0e:	409c      	lsls	r4, r3
2ffebb10:	f7ff ffec 	bl	2ffebaec <otp_bank_offset>
2ffebb14:	4b07      	ldr	r3, [pc, #28]	@ (2ffebb34 <bsec_check_error+0x30>)
2ffebb16:	4602      	mov	r2, r0
2ffebb18:	58c0      	ldr	r0, [r0, r3]
2ffebb1a:	4020      	ands	r0, r4
2ffebb1c:	d107      	bne.n	2ffebb2e <bsec_check_error+0x2a>
2ffebb1e:	b12d      	cbz	r5, 2ffebb2c <bsec_check_error+0x28>
2ffebb20:	3b18      	subs	r3, #24
2ffebb22:	58d3      	ldr	r3, [r2, r3]
2ffebb24:	421c      	tst	r4, r3
2ffebb26:	bf18      	it	ne
2ffebb28:	f06f 0001 	mvnne.w	r0, #1
2ffebb2c:	bd38      	pop	{r3, r4, r5, pc}
2ffebb2e:	f04f 30ff 	mov.w	r0, #4294967295	@ 0xffffffff
2ffebb32:	e7fb      	b.n	2ffebb2c <bsec_check_error+0x28>
2ffebb34:	5c005034 	.word	0x5c005034

2ffebb38 <bsec_probe>:
2ffebb38:	b508      	push	{r3, lr}
2ffebb3a:	f7ff ff7f 	bl	2ffeba3c <is_otp_invalid_mode>
2ffebb3e:	b980      	cbnz	r0, 2ffebb62 <bsec_probe+0x2a>
2ffebb40:	4a0a      	ldr	r2, [pc, #40]	@ (2ffebb6c <bsec_probe+0x34>)
2ffebb42:	f8d2 3ff4 	ldr.w	r3, [r2, #4084]	@ 0xff4
2ffebb46:	f8d2 2ff8 	ldr.w	r2, [r2, #4088]	@ 0xff8
2ffebb4a:	b2db      	uxtb	r3, r3
2ffebb4c:	2b11      	cmp	r3, #17
2ffebb4e:	d001      	beq.n	2ffebb54 <bsec_probe+0x1c>
2ffebb50:	2b20      	cmp	r3, #32
2ffebb52:	d102      	bne.n	2ffebb5a <bsec_probe+0x22>
2ffebb54:	4b06      	ldr	r3, [pc, #24]	@ (2ffebb70 <bsec_probe+0x38>)
2ffebb56:	429a      	cmp	r2, r3
2ffebb58:	d006      	beq.n	2ffebb68 <bsec_probe+0x30>
2ffebb5a:	f7fe fdfd 	bl	2ffea758 <console_flush>
2ffebb5e:	f7fd eb8a 	blx	2ffe9274 <el3_panic>
2ffebb62:	f04f 30ff 	mov.w	r0, #4294967295	@ 0xffffffff
2ffebb66:	bd08      	pop	{r3, pc}
2ffebb68:	2000      	movs	r0, #0
2ffebb6a:	e7fc      	b.n	2ffebb66 <bsec_probe+0x2e>
2ffebb6c:	5c005000 	.word	0x5c005000
2ffebb70:	00100032 	.word	0x00100032

2ffebb74 <bsec_read_debug_conf>:
2ffebb74:	4b01      	ldr	r3, [pc, #4]	@ (2ffebb7c <bsec_read_debug_conf+0x8>)
2ffebb76:	6958      	ldr	r0, [r3, #20]
2ffebb78:	4770      	bx	lr
2ffebb7a:	bf00      	nop
2ffebb7c:	5c005000 	.word	0x5c005000

2ffebb80 <bsec_read_sr_lock>:
2ffebb80:	b538      	push	{r3, r4, r5, lr}
2ffebb82:	4604      	mov	r4, r0
2ffebb84:	460d      	mov	r5, r1
2ffebb86:	f7ff ffb1 	bl	2ffebaec <otp_bank_offset>
2ffebb8a:	f004 021f 	and.w	r2, r4, #31
2ffebb8e:	2301      	movs	r3, #1
2ffebb90:	2c5f      	cmp	r4, #95	@ 0x5f
2ffebb92:	fa03 f302 	lsl.w	r3, r3, r2
2ffebb96:	d808      	bhi.n	2ffebbaa <bsec_read_sr_lock+0x2a>
2ffebb98:	4a05      	ldr	r2, [pc, #20]	@ (2ffebbb0 <bsec_read_sr_lock+0x30>)
2ffebb9a:	5882      	ldr	r2, [r0, r2]
2ffebb9c:	2000      	movs	r0, #0
2ffebb9e:	4213      	tst	r3, r2
2ffebba0:	bf14      	ite	ne
2ffebba2:	2301      	movne	r3, #1
2ffebba4:	2300      	moveq	r3, #0
2ffebba6:	702b      	strb	r3, [r5, #0]
2ffebba8:	bd38      	pop	{r3, r4, r5, pc}
2ffebbaa:	f06f 0003 	mvn.w	r0, #3
2ffebbae:	e7fb      	b.n	2ffebba8 <bsec_read_sr_lock+0x28>
2ffebbb0:	5c005094 	.word	0x5c005094

2ffebbb4 <bsec_read_sw_lock>:
2ffebbb4:	b538      	push	{r3, r4, r5, lr}
2ffebbb6:	4604      	mov	r4, r0
2ffebbb8:	460d      	mov	r5, r1
2ffebbba:	f7ff ff97 	bl	2ffebaec <otp_bank_offset>
2ffebbbe:	f004 021f 	and.w	r2, r4, #31
2ffebbc2:	2301      	movs	r3, #1
2ffebbc4:	2c5f      	cmp	r4, #95	@ 0x5f
2ffebbc6:	fa03 f302 	lsl.w	r3, r3, r2
2ffebbca:	d808      	bhi.n	2ffebbde <bsec_read_sw_lock+0x2a>
2ffebbcc:	4a05      	ldr	r2, [pc, #20]	@ (2ffebbe4 <bsec_read_sw_lock+0x30>)
2ffebbce:	5882      	ldr	r2, [r0, r2]
2ffebbd0:	2000      	movs	r0, #0
2ffebbd2:	4213      	tst	r3, r2
2ffebbd4:	bf14      	ite	ne
2ffebbd6:	2301      	movne	r3, #1
2ffebbd8:	2300      	moveq	r3, #0
2ffebbda:	702b      	strb	r3, [r5, #0]
2ffebbdc:	bd38      	pop	{r3, r4, r5, pc}
2ffebbde:	f06f 0003 	mvn.w	r0, #3
2ffebbe2:	e7fb      	b.n	2ffebbdc <bsec_read_sw_lock+0x28>
2ffebbe4:	5c00507c 	.word	0x5c00507c

2ffebbe8 <bsec_write_otp>:
2ffebbe8:	b573      	push	{r0, r1, r4, r5, r6, lr}
2ffebbea:	4606      	mov	r6, r0
2ffebbec:	460c      	mov	r4, r1
2ffebbee:	f7ff ff25 	bl	2ffeba3c <is_otp_invalid_mode>
2ffebbf2:	b9c8      	cbnz	r0, 2ffebc28 <bsec_write_otp+0x40>
2ffebbf4:	f10d 0107 	add.w	r1, sp, #7
2ffebbf8:	4620      	mov	r0, r4
2ffebbfa:	f7ff ffdb 	bl	2ffebbb4 <bsec_read_sw_lock>
2ffebbfe:	4605      	mov	r5, r0
2ffebc00:	b138      	cbz	r0, 2ffebc12 <bsec_write_otp+0x2a>
2ffebc02:	4602      	mov	r2, r0
2ffebc04:	4621      	mov	r1, r4
2ffebc06:	480a      	ldr	r0, [pc, #40]	@ (2ffebc30 <bsec_write_otp+0x48>)
2ffebc08:	f7fe fb10 	bl	2ffea22c <tf_log>
2ffebc0c:	4628      	mov	r0, r5
2ffebc0e:	b002      	add	sp, #8
2ffebc10:	bd70      	pop	{r4, r5, r6, pc}
2ffebc12:	f104 54b8 	add.w	r4, r4, #385875968	@ 0x17000000
2ffebc16:	f7ff ff25 	bl	2ffeba64 <bsec_lock>
2ffebc1a:	f504 54a4 	add.w	r4, r4, #5248	@ 0x1480
2ffebc1e:	00a4      	lsls	r4, r4, #2
2ffebc20:	6026      	str	r6, [r4, #0]
2ffebc22:	f7ff ff2b 	bl	2ffeba7c <bsec_unlock>
2ffebc26:	e7f1      	b.n	2ffebc0c <bsec_write_otp+0x24>
2ffebc28:	f04f 35ff 	mov.w	r5, #4294967295	@ 0xffffffff
2ffebc2c:	e7ee      	b.n	2ffebc0c <bsec_write_otp+0x24>
2ffebc2e:	bf00      	nop
2ffebc30:	2fff700d 	.word	0x2fff700d

2ffebc34 <bsec_read_sp_lock>:
2ffebc34:	b538      	push	{r3, r4, r5, lr}
2ffebc36:	4604      	mov	r4, r0
2ffebc38:	460d      	mov	r5, r1
2ffebc3a:	f7ff ff57 	bl	2ffebaec <otp_bank_offset>
2ffebc3e:	f004 021f 	and.w	r2, r4, #31
2ffebc42:	2301      	movs	r3, #1
2ffebc44:	2c5f      	cmp	r4, #95	@ 0x5f
2ffebc46:	fa03 f302 	lsl.w	r3, r3, r2
2ffebc4a:	d808      	bhi.n	2ffebc5e <bsec_read_sp_lock+0x2a>
2ffebc4c:	4a05      	ldr	r2, [pc, #20]	@ (2ffebc64 <bsec_read_sp_lock+0x30>)
2ffebc4e:	5882      	ldr	r2, [r0, r2]
2ffebc50:	2000      	movs	r0, #0
2ffebc52:	4213      	tst	r3, r2
2ffebc54:	bf14      	ite	ne
2ffebc56:	2301      	movne	r3, #1
2ffebc58:	2300      	moveq	r3, #0
2ffebc5a:	702b      	strb	r3, [r5, #0]
2ffebc5c:	bd38      	pop	{r3, r4, r5, pc}
2ffebc5e:	f06f 0003 	mvn.w	r0, #3
2ffebc62:	e7fb      	b.n	2ffebc5c <bsec_read_sp_lock+0x28>
2ffebc64:	5c005064 	.word	0x5c005064

2ffebc68 <bsec_program_otp>:
2ffebc68:	b5f7      	push	{r0, r1, r2, r4, r5, r6, r7, lr}
2ffebc6a:	4606      	mov	r6, r0
2ffebc6c:	460d      	mov	r5, r1
2ffebc6e:	f7ff fee5 	bl	2ffeba3c <is_otp_invalid_mode>
2ffebc72:	2800      	cmp	r0, #0
2ffebc74:	d161      	bne.n	2ffebd3a <bsec_program_otp+0xd2>
2ffebc76:	f10d 0107 	add.w	r1, sp, #7
2ffebc7a:	4628      	mov	r0, r5
2ffebc7c:	f7ff ffda 	bl	2ffebc34 <bsec_read_sp_lock>
2ffebc80:	4604      	mov	r4, r0
2ffebc82:	b138      	cbz	r0, 2ffebc94 <bsec_program_otp+0x2c>
2ffebc84:	4602      	mov	r2, r0
2ffebc86:	4629      	mov	r1, r5
2ffebc88:	482d      	ldr	r0, [pc, #180]	@ (2ffebd40 <bsec_program_otp+0xd8>)
2ffebc8a:	f7fe facf 	bl	2ffea22c <tf_log>
2ffebc8e:	4620      	mov	r0, r4
2ffebc90:	b003      	add	sp, #12
2ffebc92:	bdf0      	pop	{r4, r5, r6, r7, pc}
2ffebc94:	4628      	mov	r0, r5
2ffebc96:	f7ff ff29 	bl	2ffebaec <otp_bank_offset>
2ffebc9a:	f005 021f 	and.w	r2, r5, #31
2ffebc9e:	2301      	movs	r3, #1
2ffebca0:	2d5f      	cmp	r5, #95	@ 0x5f
2ffebca2:	fa03 f302 	lsl.w	r3, r3, r2
2ffebca6:	d908      	bls.n	2ffebcba <bsec_program_otp+0x52>
2ffebca8:	4826      	ldr	r0, [pc, #152]	@ (2ffebd44 <bsec_program_otp+0xdc>)
2ffebcaa:	f06f 0203 	mvn.w	r2, #3
2ffebcae:	4629      	mov	r1, r5
2ffebcb0:	f06f 0403 	mvn.w	r4, #3
2ffebcb4:	f7fe faba 	bl	2ffea22c <tf_log>
2ffebcb8:	e7e9      	b.n	2ffebc8e <bsec_program_otp+0x26>
2ffebcba:	4a23      	ldr	r2, [pc, #140]	@ (2ffebd48 <bsec_program_otp+0xe0>)
2ffebcbc:	f89d 7007 	ldrb.w	r7, [sp, #7]
2ffebcc0:	5882      	ldr	r2, [r0, r2]
2ffebcc2:	4013      	ands	r3, r2
2ffebcc4:	b907      	cbnz	r7, 2ffebcc8 <bsec_program_otp+0x60>
2ffebcc6:	b12b      	cbz	r3, 2ffebcd4 <bsec_program_otp+0x6c>
2ffebcc8:	4820      	ldr	r0, [pc, #128]	@ (2ffebd4c <bsec_program_otp+0xe4>)
2ffebcca:	f06f 0404 	mvn.w	r4, #4
2ffebcce:	f7fe faad 	bl	2ffea22c <tf_log>
2ffebcd2:	e7dc      	b.n	2ffebc8e <bsec_program_otp+0x26>
2ffebcd4:	4c1e      	ldr	r4, [pc, #120]	@ (2ffebd50 <bsec_program_otp+0xe8>)
2ffebcd6:	6923      	ldr	r3, [r4, #16]
2ffebcd8:	06d8      	lsls	r0, r3, #27
2ffebcda:	d502      	bpl.n	2ffebce2 <bsec_program_otp+0x7a>
2ffebcdc:	481d      	ldr	r0, [pc, #116]	@ (2ffebd54 <bsec_program_otp+0xec>)
2ffebcde:	f7fe faa5 	bl	2ffea22c <tf_log>
2ffebce2:	68e3      	ldr	r3, [r4, #12]
2ffebce4:	0699      	lsls	r1, r3, #26
2ffebce6:	d406      	bmi.n	2ffebcf6 <bsec_program_otp+0x8e>
2ffebce8:	2001      	movs	r0, #1
2ffebcea:	f7ff fed3 	bl	2ffeba94 <bsec_power_safmem>
2ffebcee:	4604      	mov	r4, r0
2ffebcf0:	2800      	cmp	r0, #0
2ffebcf2:	d1cc      	bne.n	2ffebc8e <bsec_program_otp+0x26>
2ffebcf4:	2701      	movs	r7, #1
2ffebcf6:	f7ff feb5 	bl	2ffeba64 <bsec_lock>
2ffebcfa:	4b15      	ldr	r3, [pc, #84]	@ (2ffebd50 <bsec_program_otp+0xe8>)
2ffebcfc:	f445 7280 	orr.w	r2, r5, #256	@ 0x100
2ffebd00:	609e      	str	r6, [r3, #8]
2ffebd02:	605a      	str	r2, [r3, #4]
2ffebd04:	68da      	ldr	r2, [r3, #12]
2ffebd06:	0712      	lsls	r2, r2, #28
2ffebd08:	d4fc      	bmi.n	2ffebd04 <bsec_program_otp+0x9c>
2ffebd0a:	68db      	ldr	r3, [r3, #12]
2ffebd0c:	06db      	lsls	r3, r3, #27
2ffebd0e:	d411      	bmi.n	2ffebd34 <bsec_program_otp+0xcc>
2ffebd10:	2101      	movs	r1, #1
2ffebd12:	4628      	mov	r0, r5
2ffebd14:	f7ff fef6 	bl	2ffebb04 <bsec_check_error>
2ffebd18:	4604      	mov	r4, r0
2ffebd1a:	f7ff feaf 	bl	2ffeba7c <bsec_unlock>
2ffebd1e:	2f00      	cmp	r7, #0
2ffebd20:	d0b5      	beq.n	2ffebc8e <bsec_program_otp+0x26>
2ffebd22:	2000      	movs	r0, #0
2ffebd24:	f7ff feb6 	bl	2ffeba94 <bsec_power_safmem>
2ffebd28:	2800      	cmp	r0, #0
2ffebd2a:	d0b0      	beq.n	2ffebc8e <bsec_program_otp+0x26>
2ffebd2c:	f7fe fd14 	bl	2ffea758 <console_flush>
2ffebd30:	f7fd eaa0 	blx	2ffe9274 <el3_panic>
2ffebd34:	f06f 0404 	mvn.w	r4, #4
2ffebd38:	e7ef      	b.n	2ffebd1a <bsec_program_otp+0xb2>
2ffebd3a:	f04f 34ff 	mov.w	r4, #4294967295	@ 0xffffffff
2ffebd3e:	e7a6      	b.n	2ffebc8e <bsec_program_otp+0x26>
2ffebd40:	2fff7037 	.word	0x2fff7037
2ffebd44:	2fff7060 	.word	0x2fff7060
2ffebd48:	5c00504c 	.word	0x5c00504c
2ffebd4c:	2fff7087 	.word	0x2fff7087
2ffebd50:	5c005000 	.word	0x5c005000
2ffebd54:	2fff70b0 	.word	0x2fff70b0

2ffebd58 <bsec_shadow_read_otp>:
2ffebd58:	e92d 41f3 	stmdb	sp!, {r0, r1, r4, r5, r6, r7, r8, lr}
2ffebd5c:	4607      	mov	r7, r0
2ffebd5e:	460d      	mov	r5, r1
2ffebd60:	f7ff fe6c 	bl	2ffeba3c <is_otp_invalid_mode>
2ffebd64:	4606      	mov	r6, r0
2ffebd66:	2800      	cmp	r0, #0
2ffebd68:	d13a      	bne.n	2ffebde0 <bsec_shadow_read_otp+0x88>
2ffebd6a:	f10d 0107 	add.w	r1, sp, #7
2ffebd6e:	4628      	mov	r0, r5
2ffebd70:	f7ff ff06 	bl	2ffebb80 <bsec_read_sr_lock>
2ffebd74:	4604      	mov	r4, r0
2ffebd76:	b168      	cbz	r0, 2ffebd94 <bsec_shadow_read_otp+0x3c>
2ffebd78:	4602      	mov	r2, r0
2ffebd7a:	4629      	mov	r1, r5
2ffebd7c:	4820      	ldr	r0, [pc, #128]	@ (2ffebe00 <bsec_shadow_read_otp+0xa8>)
2ffebd7e:	f7fe fa55 	bl	2ffea22c <tf_log>
2ffebd82:	4820      	ldr	r0, [pc, #128]	@ (2ffebe04 <bsec_shadow_read_otp+0xac>)
2ffebd84:	4622      	mov	r2, r4
2ffebd86:	4629      	mov	r1, r5
2ffebd88:	f7fe fa50 	bl	2ffea22c <tf_log>
2ffebd8c:	4620      	mov	r0, r4
2ffebd8e:	b002      	add	sp, #8
2ffebd90:	e8bd 81f0 	ldmia.w	sp!, {r4, r5, r6, r7, r8, pc}
2ffebd94:	f8df 8070 	ldr.w	r8, [pc, #112]	@ 2ffebe08 <bsec_shadow_read_otp+0xb0>
2ffebd98:	f8d8 300c 	ldr.w	r3, [r8, #12]
2ffebd9c:	069b      	lsls	r3, r3, #26
2ffebd9e:	d406      	bmi.n	2ffebdae <bsec_shadow_read_otp+0x56>
2ffebda0:	2001      	movs	r0, #1
2ffebda2:	f7ff fe77 	bl	2ffeba94 <bsec_power_safmem>
2ffebda6:	4604      	mov	r4, r0
2ffebda8:	2800      	cmp	r0, #0
2ffebdaa:	d1ea      	bne.n	2ffebd82 <bsec_shadow_read_otp+0x2a>
2ffebdac:	2601      	movs	r6, #1
2ffebdae:	f7ff fe59 	bl	2ffeba64 <bsec_lock>
2ffebdb2:	4a15      	ldr	r2, [pc, #84]	@ (2ffebe08 <bsec_shadow_read_otp+0xb0>)
2ffebdb4:	f8c8 5004 	str.w	r5, [r8, #4]
2ffebdb8:	68d3      	ldr	r3, [r2, #12]
2ffebdba:	f013 0808 	ands.w	r8, r3, #8
2ffebdbe:	d1fb      	bne.n	2ffebdb8 <bsec_shadow_read_otp+0x60>
2ffebdc0:	2101      	movs	r1, #1
2ffebdc2:	4628      	mov	r0, r5
2ffebdc4:	f7ff fe9e 	bl	2ffebb04 <bsec_check_error>
2ffebdc8:	4604      	mov	r4, r0
2ffebdca:	f7ff fe57 	bl	2ffeba7c <bsec_unlock>
2ffebdce:	b156      	cbz	r6, 2ffebde6 <bsec_shadow_read_otp+0x8e>
2ffebdd0:	4640      	mov	r0, r8
2ffebdd2:	f7ff fe5f 	bl	2ffeba94 <bsec_power_safmem>
2ffebdd6:	b130      	cbz	r0, 2ffebde6 <bsec_shadow_read_otp+0x8e>
2ffebdd8:	f7fe fcbe 	bl	2ffea758 <console_flush>
2ffebddc:	f7fd ea4a 	blx	2ffe9274 <el3_panic>
2ffebde0:	f04f 34ff 	mov.w	r4, #4294967295	@ 0xffffffff
2ffebde4:	e7cd      	b.n	2ffebd82 <bsec_shadow_read_otp+0x2a>
2ffebde6:	2c00      	cmp	r4, #0
2ffebde8:	d1cb      	bne.n	2ffebd82 <bsec_shadow_read_otp+0x2a>
2ffebdea:	4629      	mov	r1, r5
2ffebdec:	4638      	mov	r0, r7
2ffebdee:	f007 fd28 	bl	2fff3842 <bsec_read_otp>
2ffebdf2:	4604      	mov	r4, r0
2ffebdf4:	2800      	cmp	r0, #0
2ffebdf6:	d0c9      	beq.n	2ffebd8c <bsec_shadow_read_otp+0x34>
2ffebdf8:	4602      	mov	r2, r0
2ffebdfa:	4629      	mov	r1, r5
2ffebdfc:	4803      	ldr	r0, [pc, #12]	@ (2ffebe0c <bsec_shadow_read_otp+0xb4>)
2ffebdfe:	e7c3      	b.n	2ffebd88 <bsec_shadow_read_otp+0x30>
2ffebe00:	2fff70df 	.word	0x2fff70df
2ffebe04:	2fff7108 	.word	0x2fff7108
2ffebe08:	5c005000 	.word	0x5c005000
2ffebe0c:	2fff7126 	.word	0x2fff7126

2ffebe10 <stm32mp1_check_pll_conf>:
2ffebe10:	e92d 43f8 	stmdb	sp!, {r3, r4, r5, r6, r7, r8, r9, lr}
2ffebe14:	4604      	mov	r4, r0
2ffebe16:	4f38      	ldr	r7, [pc, #224]	@ (2ffebef8 <stm32mp1_check_pll_conf+0xe8>)
2ffebe18:	4688      	mov	r8, r1
2ffebe1a:	4615      	mov	r5, r2
2ffebe1c:	461e      	mov	r6, r3
2ffebe1e:	f008 fbaa 	bl	2fff4576 <stm32mp_rcc_base>
2ffebe22:	0163      	lsls	r3, r4, #5
2ffebe24:	4602      	mov	r2, r0
2ffebe26:	eb07 1044 	add.w	r0, r7, r4, lsl #5
2ffebe2a:	8981      	ldrh	r1, [r0, #12]
2ffebe2c:	5889      	ldr	r1, [r1, r2]
2ffebe2e:	2901      	cmp	r1, #1
2ffebe30:	d160      	bne.n	2ffebef4 <stm32mp1_check_pll_conf+0xe4>
2ffebe32:	ea4f 1118 	mov.w	r1, r8, lsr #4
2ffebe36:	5889      	ldr	r1, [r1, r2]
2ffebe38:	ea88 0101 	eor.w	r1, r8, r1
2ffebe3c:	f011 0107 	ands.w	r1, r1, #7
2ffebe40:	d158      	bne.n	2ffebef4 <stm32mp1_check_pll_conf+0xe4>
2ffebe42:	8880      	ldrh	r0, [r0, #4]
2ffebe44:	f857 e003 	ldr.w	lr, [r7, r3]
2ffebe48:	5880      	ldr	r0, [r0, r2]
2ffebe4a:	f8df 90b0 	ldr.w	r9, [pc, #176]	@ 2ffebefc <stm32mp1_check_pll_conf+0xec>
2ffebe4e:	f000 0003 	and.w	r0, r0, #3
2ffebe52:	eb00 00c4 	add.w	r0, r0, r4, lsl #3
2ffebe56:	3004      	adds	r0, #4
2ffebe58:	f857 0020 	ldr.w	r0, [r7, r0, lsl #2]
2ffebe5c:	2805      	cmp	r0, #5
2ffebe5e:	bf8e      	itee	hi
2ffebe60:	4608      	movhi	r0, r1
2ffebe62:	4c27      	ldrls	r4, [pc, #156]	@ (2ffebf00 <stm32mp1_check_pll_conf+0xf0>)
2ffebe64:	f854 0020 	ldrls.w	r0, [r4, r0, lsl #2]
2ffebe68:	682c      	ldr	r4, [r5, #0]
2ffebe6a:	f104 0c01 	add.w	ip, r4, #1
2ffebe6e:	fbb0 f0fc 	udiv	r0, r0, ip
2ffebe72:	f8df c090 	ldr.w	ip, [pc, #144]	@ 2ffebf04 <stm32mp1_check_pll_conf+0xf4>
2ffebe76:	f81c 801e 	ldrb.w	r8, [ip, lr, lsl #1]
2ffebe7a:	fb09 f808 	mul.w	r8, r9, r8
2ffebe7e:	4580      	cmp	r8, r0
2ffebe80:	d838      	bhi.n	2ffebef4 <stm32mp1_check_pll_conf+0xe4>
2ffebe82:	eb0c 0c4e 	add.w	ip, ip, lr, lsl #1
2ffebe86:	f89c c001 	ldrb.w	ip, [ip, #1]
2ffebe8a:	fb09 fc0c 	mul.w	ip, r9, ip
2ffebe8e:	4584      	cmp	ip, r0
2ffebe90:	d330      	bcc.n	2ffebef4 <stm32mp1_check_pll_conf+0xe4>
2ffebe92:	f1be 0f00 	cmp.w	lr, #0
2ffebe96:	d104      	bne.n	2ffebea2 <stm32mp1_check_pll_conf+0x92>
2ffebe98:	491b      	ldr	r1, [pc, #108]	@ (2ffebf08 <stm32mp1_check_pll_conf+0xf8>)
2ffebe9a:	4288      	cmp	r0, r1
2ffebe9c:	bf34      	ite	cc
2ffebe9e:	2100      	movcc	r1, #0
2ffebea0:	2101      	movcs	r1, #1
2ffebea2:	6868      	ldr	r0, [r5, #4]
2ffebea4:	0424      	lsls	r4, r4, #16
2ffebea6:	443b      	add	r3, r7
2ffebea8:	f404 147c 	and.w	r4, r4, #4128768	@ 0x3f0000
2ffebeac:	f3c0 0008 	ubfx	r0, r0, #0, #9
2ffebeb0:	4304      	orrs	r4, r0
2ffebeb2:	88d8      	ldrh	r0, [r3, #6]
2ffebeb4:	ea44 6401 	orr.w	r4, r4, r1, lsl #24
2ffebeb8:	5880      	ldr	r0, [r0, r2]
2ffebeba:	4284      	cmp	r4, r0
2ffebebc:	d11a      	bne.n	2ffebef4 <stm32mp1_check_pll_conf+0xe4>
2ffebebe:	8959      	ldrh	r1, [r3, #10]
2ffebec0:	00f6      	lsls	r6, r6, #3
2ffebec2:	5889      	ldr	r1, [r1, r2]
2ffebec4:	f446 3680 	orr.w	r6, r6, #65536	@ 0x10000
2ffebec8:	428e      	cmp	r6, r1
2ffebeca:	d113      	bne.n	2ffebef4 <stm32mp1_check_pll_conf+0xe4>
2ffebecc:	891b      	ldrh	r3, [r3, #8]
2ffebece:	68a9      	ldr	r1, [r5, #8]
2ffebed0:	589a      	ldr	r2, [r3, r2]
2ffebed2:	68eb      	ldr	r3, [r5, #12]
2ffebed4:	f001 017f 	and.w	r1, r1, #127	@ 0x7f
2ffebed8:	0218      	lsls	r0, r3, #8
2ffebeda:	692b      	ldr	r3, [r5, #16]
2ffebedc:	f400 40fe 	and.w	r0, r0, #32512	@ 0x7f00
2ffebee0:	041b      	lsls	r3, r3, #16
2ffebee2:	f403 03fe 	and.w	r3, r3, #8323072	@ 0x7f0000
2ffebee6:	4318      	orrs	r0, r3
2ffebee8:	4308      	orrs	r0, r1
2ffebeea:	1a83      	subs	r3, r0, r2
2ffebeec:	4258      	negs	r0, r3
2ffebeee:	4158      	adcs	r0, r3
2ffebef0:	e8bd 83f8 	ldmia.w	sp!, {r3, r4, r5, r6, r7, r8, r9, pc}
2ffebef4:	2000      	movs	r0, #0
2ffebef6:	e7fb      	b.n	2ffebef0 <stm32mp1_check_pll_conf+0xe0>
2ffebef8:	2fff527c 	.word	0x2fff527c
2ffebefc:	000f4240 	.word	0x000f4240
2ffebf00:	2fffb708 	.word	0x2fffb708
2ffebf04:	2fff8f84 	.word	0x2fff8f84
2ffebf08:	007a1200 	.word	0x007a1200

2ffebf0c <stm32mp1_pll_config_output>:
2ffebf0c:	b538      	push	{r3, r4, r5, lr}
2ffebf0e:	460c      	mov	r4, r1
2ffebf10:	4605      	mov	r5, r0
2ffebf12:	f008 fb30 	bl	2fff4576 <stm32mp_rcc_base>
2ffebf16:	68a3      	ldr	r3, [r4, #8]
2ffebf18:	6922      	ldr	r2, [r4, #16]
2ffebf1a:	f003 017f 	and.w	r1, r3, #127	@ 0x7f
2ffebf1e:	68e3      	ldr	r3, [r4, #12]
2ffebf20:	0412      	lsls	r2, r2, #16
2ffebf22:	021b      	lsls	r3, r3, #8
2ffebf24:	f402 02fe 	and.w	r2, r2, #8323072	@ 0x7f0000
2ffebf28:	f403 43fe 	and.w	r3, r3, #32512	@ 0x7f00
2ffebf2c:	4313      	orrs	r3, r2
2ffebf2e:	4a03      	ldr	r2, [pc, #12]	@ (2ffebf3c <stm32mp1_pll_config_output+0x30>)
2ffebf30:	430b      	orrs	r3, r1
2ffebf32:	eb02 1245 	add.w	r2, r2, r5, lsl #5
2ffebf36:	8912      	ldrh	r2, [r2, #8]
2ffebf38:	5013      	str	r3, [r2, r0]
2ffebf3a:	bd38      	pop	{r3, r4, r5, pc}
2ffebf3c:	2fff527c 	.word	0x2fff527c

2ffebf40 <stm32mp1_clk_get_gated_id>:
2ffebf40:	b508      	push	{r3, lr}
2ffebf42:	4602      	mov	r2, r0
2ffebf44:	4908      	ldr	r1, [pc, #32]	@ (2ffebf68 <stm32mp1_clk_get_gated_id+0x28>)
2ffebf46:	2300      	movs	r3, #0
2ffebf48:	f811 0033 	ldrb.w	r0, [r1, r3, lsl #3]
2ffebf4c:	4290      	cmp	r0, r2
2ffebf4e:	d101      	bne.n	2ffebf54 <stm32mp1_clk_get_gated_id+0x14>
2ffebf50:	4618      	mov	r0, r3
2ffebf52:	bd08      	pop	{r3, pc}
2ffebf54:	3301      	adds	r3, #1
2ffebf56:	2b3b      	cmp	r3, #59	@ 0x3b
2ffebf58:	d1f6      	bne.n	2ffebf48 <stm32mp1_clk_get_gated_id+0x8>
2ffebf5a:	4804      	ldr	r0, [pc, #16]	@ (2ffebf6c <stm32mp1_clk_get_gated_id+0x2c>)
2ffebf5c:	4904      	ldr	r1, [pc, #16]	@ (2ffebf70 <stm32mp1_clk_get_gated_id+0x30>)
2ffebf5e:	f7fe f965 	bl	2ffea22c <tf_log>
2ffebf62:	f06f 0015 	mvn.w	r0, #21
2ffebf66:	e7f4      	b.n	2ffebf52 <stm32mp1_clk_get_gated_id+0x12>
2ffebf68:	2fff5c7f 	.word	0x2fff5c7f
2ffebf6c:	2fff713f 	.word	0x2fff713f
2ffebf70:	2fff8f47 	.word	0x2fff8f47

2ffebf74 <stm32mp1_clk_get_parent>:
2ffebf74:	b538      	push	{r3, r4, r5, lr}
2ffebf76:	4604      	mov	r4, r0
2ffebf78:	f008 fafd 	bl	2fff4576 <stm32mp_rcc_base>
2ffebf7c:	4b18      	ldr	r3, [pc, #96]	@ (2ffebfe0 <stm32mp1_clk_get_parent+0x6c>)
2ffebf7e:	4605      	mov	r5, r0
2ffebf80:	2000      	movs	r0, #0
2ffebf82:	f813 2b01 	ldrb.w	r2, [r3], #1
2ffebf86:	4294      	cmp	r4, r2
2ffebf88:	d026      	beq.n	2ffebfd8 <stm32mp1_clk_get_parent+0x64>
2ffebf8a:	3001      	adds	r0, #1
2ffebf8c:	2823      	cmp	r0, #35	@ 0x23
2ffebf8e:	d1f8      	bne.n	2ffebf82 <stm32mp1_clk_get_parent+0xe>
2ffebf90:	4620      	mov	r0, r4
2ffebf92:	f7ff ffd5 	bl	2ffebf40 <stm32mp1_clk_get_gated_id>
2ffebf96:	1e03      	subs	r3, r0, #0
2ffebf98:	da03      	bge.n	2ffebfa2 <stm32mp1_clk_get_parent+0x2e>
2ffebf9a:	f7fe fbdd 	bl	2ffea758 <console_flush>
2ffebf9e:	f7fd e96a 	blx	2ffe9274 <el3_panic>
2ffebfa2:	4a10      	ldr	r2, [pc, #64]	@ (2ffebfe4 <stm32mp1_clk_get_parent+0x70>)
2ffebfa4:	eb02 03c3 	add.w	r3, r2, r3, lsl #3
2ffebfa8:	79d8      	ldrb	r0, [r3, #7]
2ffebfaa:	2822      	cmp	r0, #34	@ 0x22
2ffebfac:	d914      	bls.n	2ffebfd8 <stm32mp1_clk_get_parent+0x64>
2ffebfae:	799b      	ldrb	r3, [r3, #6]
2ffebfb0:	2bff      	cmp	r3, #255	@ 0xff
2ffebfb2:	d012      	beq.n	2ffebfda <stm32mp1_clk_get_parent+0x66>
2ffebfb4:	2b15      	cmp	r3, #21
2ffebfb6:	d8f0      	bhi.n	2ffebf9a <stm32mp1_clk_get_parent+0x26>
2ffebfb8:	490b      	ldr	r1, [pc, #44]	@ (2ffebfe8 <stm32mp1_clk_get_parent+0x74>)
2ffebfba:	220c      	movs	r2, #12
2ffebfbc:	4353      	muls	r3, r2
2ffebfbe:	18ca      	adds	r2, r1, r3
2ffebfc0:	5acb      	ldrh	r3, [r1, r3]
2ffebfc2:	7891      	ldrb	r1, [r2, #2]
2ffebfc4:	5958      	ldr	r0, [r3, r5]
2ffebfc6:	78d3      	ldrb	r3, [r2, #3]
2ffebfc8:	408b      	lsls	r3, r1
2ffebfca:	4003      	ands	r3, r0
2ffebfcc:	40cb      	lsrs	r3, r1
2ffebfce:	7911      	ldrb	r1, [r2, #4]
2ffebfd0:	4299      	cmp	r1, r3
2ffebfd2:	d902      	bls.n	2ffebfda <stm32mp1_clk_get_parent+0x66>
2ffebfd4:	6892      	ldr	r2, [r2, #8]
2ffebfd6:	5cd0      	ldrb	r0, [r2, r3]
2ffebfd8:	bd38      	pop	{r3, r4, r5, pc}
2ffebfda:	f06f 0015 	mvn.w	r0, #21
2ffebfde:	e7fb      	b.n	2ffebfd8 <stm32mp1_clk_get_parent+0x64>
2ffebfe0:	2fff8fd7 	.word	0x2fff8fd7
2ffebfe4:	2fff5c7c 	.word	0x2fff5c7c
2ffebfe8:	2fff52fc 	.word	0x2fff52fc

2ffebfec <stm32mp_clk_is_enabled>:
2ffebfec:	b510      	push	{r4, lr}
2ffebfee:	4602      	mov	r2, r0
2ffebff0:	f007 fc3d 	bl	2fff386e <clock_is_always_on>
2ffebff4:	b9b8      	cbnz	r0, 2ffec026 <stm32mp_clk_is_enabled+0x3a>
2ffebff6:	4610      	mov	r0, r2
2ffebff8:	f7ff ffa2 	bl	2ffebf40 <stm32mp1_clk_get_gated_id>
2ffebffc:	1e04      	subs	r4, r0, #0
2ffebffe:	da03      	bge.n	2ffec008 <stm32mp_clk_is_enabled+0x1c>
2ffec000:	f7fe fbaa 	bl	2ffea758 <console_flush>
2ffec004:	f7fd e936 	blx	2ffe9274 <el3_panic>
2ffec008:	f008 fab5 	bl	2fff4576 <stm32mp_rcc_base>
2ffec00c:	4b06      	ldr	r3, [pc, #24]	@ (2ffec028 <stm32mp_clk_is_enabled+0x3c>)
2ffec00e:	f833 2034 	ldrh.w	r2, [r3, r4, lsl #3]
2ffec012:	eb03 03c4 	add.w	r3, r3, r4, lsl #3
2ffec016:	5812      	ldr	r2, [r2, r0]
2ffec018:	7899      	ldrb	r1, [r3, #2]
2ffec01a:	2301      	movs	r3, #1
2ffec01c:	408b      	lsls	r3, r1
2ffec01e:	4213      	tst	r3, r2
2ffec020:	bf14      	ite	ne
2ffec022:	2001      	movne	r0, #1
2ffec024:	2000      	moveq	r0, #0
2ffec026:	bd10      	pop	{r4, pc}
2ffec028:	2fff5c7c 	.word	0x2fff5c7c

2ffec02c <stm32mp_clk_disable>:
2ffec02c:	b538      	push	{r3, r4, r5, lr}
2ffec02e:	4605      	mov	r5, r0
2ffec030:	f007 fc1d 	bl	2fff386e <clock_is_always_on>
2ffec034:	2800      	cmp	r0, #0
2ffec036:	d136      	bne.n	2ffec0a6 <stm32mp_clk_disable+0x7a>
2ffec038:	4628      	mov	r0, r5
2ffec03a:	f7ff ff81 	bl	2ffebf40 <stm32mp1_clk_get_gated_id>
2ffec03e:	1e04      	subs	r4, r0, #0
2ffec040:	da07      	bge.n	2ffec052 <stm32mp_clk_disable+0x26>
2ffec042:	4819      	ldr	r0, [pc, #100]	@ (2ffec0a8 <stm32mp_clk_disable+0x7c>)
2ffec044:	4629      	mov	r1, r5
2ffec046:	f7fe f8f1 	bl	2ffea22c <tf_log>
2ffec04a:	f7fe fb85 	bl	2ffea758 <console_flush>
2ffec04e:	f7fd e912 	blx	2ffe9274 <el3_panic>
2ffec052:	4816      	ldr	r0, [pc, #88]	@ (2ffec0ac <stm32mp_clk_disable+0x80>)
2ffec054:	f007 fc1b 	bl	2fff388e <stm32mp1_clk_lock>
2ffec058:	4a15      	ldr	r2, [pc, #84]	@ (2ffec0b0 <stm32mp_clk_disable+0x84>)
2ffec05a:	f852 3024 	ldr.w	r3, [r2, r4, lsl #2]
2ffec05e:	b913      	cbnz	r3, 2ffec066 <stm32mp_clk_disable+0x3a>
2ffec060:	4814      	ldr	r0, [pc, #80]	@ (2ffec0b4 <stm32mp_clk_disable+0x88>)
2ffec062:	4629      	mov	r1, r5
2ffec064:	e7ef      	b.n	2ffec046 <stm32mp_clk_disable+0x1a>
2ffec066:	3b01      	subs	r3, #1
2ffec068:	f842 3024 	str.w	r3, [r2, r4, lsl #2]
2ffec06c:	b98b      	cbnz	r3, 2ffec092 <stm32mp_clk_disable+0x66>
2ffec06e:	f008 fa82 	bl	2fff4576 <stm32mp_rcc_base>
2ffec072:	f3bf 8f4f 	dsb	sy
2ffec076:	4a10      	ldr	r2, [pc, #64]	@ (2ffec0b8 <stm32mp_clk_disable+0x8c>)
2ffec078:	eb02 03c4 	add.w	r3, r2, r4, lsl #3
2ffec07c:	f832 2034 	ldrh.w	r2, [r2, r4, lsl #3]
2ffec080:	7919      	ldrb	r1, [r3, #4]
2ffec082:	789d      	ldrb	r5, [r3, #2]
2ffec084:	2301      	movs	r3, #1
2ffec086:	b149      	cbz	r1, 2ffec09c <stm32mp_clk_disable+0x70>
2ffec088:	40ab      	lsls	r3, r5
2ffec08a:	3204      	adds	r2, #4
2ffec08c:	5013      	str	r3, [r2, r0]
2ffec08e:	f3bf 8f4f 	dsb	sy
2ffec092:	e8bd 4038 	ldmia.w	sp!, {r3, r4, r5, lr}
2ffec096:	4805      	ldr	r0, [pc, #20]	@ (2ffec0ac <stm32mp_clk_disable+0x80>)
2ffec098:	f007 bc04 	b.w	2fff38a4 <stm32mp1_clk_unlock>
2ffec09c:	5811      	ldr	r1, [r2, r0]
2ffec09e:	40ab      	lsls	r3, r5
2ffec0a0:	ea21 0303 	bic.w	r3, r1, r3
2ffec0a4:	e7f2      	b.n	2ffec08c <stm32mp_clk_disable+0x60>
2ffec0a6:	bd38      	pop	{r3, r4, r5, pc}
2ffec0a8:	2fff715a 	.word	0x2fff715a
2ffec0ac:	2fffb614 	.word	0x2fffb614
2ffec0b0:	2fffb618 	.word	0x2fffb618
2ffec0b4:	2fff7178 	.word	0x2fff7178
2ffec0b8:	2fff5c7c 	.word	0x2fff5c7c

2ffec0bc <stm32mp_clk_enable>:
2ffec0bc:	b5f8      	push	{r3, r4, r5, r6, r7, lr}
2ffec0be:	4605      	mov	r5, r0
2ffec0c0:	f007 fbd5 	bl	2fff386e <clock_is_always_on>
2ffec0c4:	bb98      	cbnz	r0, 2ffec12e <stm32mp_clk_enable+0x72>
2ffec0c6:	4628      	mov	r0, r5
2ffec0c8:	f7ff ff3a 	bl	2ffebf40 <stm32mp1_clk_get_gated_id>
2ffec0cc:	1e04      	subs	r4, r0, #0
2ffec0ce:	da07      	bge.n	2ffec0e0 <stm32mp_clk_enable+0x24>
2ffec0d0:	4818      	ldr	r0, [pc, #96]	@ (2ffec134 <stm32mp_clk_enable+0x78>)
2ffec0d2:	4629      	mov	r1, r5
2ffec0d4:	f7fe f8aa 	bl	2ffea22c <tf_log>
2ffec0d8:	f7fe fb3e 	bl	2ffea758 <console_flush>
2ffec0dc:	f7fd e8ca 	blx	2ffe9274 <el3_panic>
2ffec0e0:	4e15      	ldr	r6, [pc, #84]	@ (2ffec138 <stm32mp_clk_enable+0x7c>)
2ffec0e2:	4816      	ldr	r0, [pc, #88]	@ (2ffec13c <stm32mp_clk_enable+0x80>)
2ffec0e4:	f007 fbd3 	bl	2fff388e <stm32mp1_clk_lock>
2ffec0e8:	f856 3024 	ldr.w	r3, [r6, r4, lsl #2]
2ffec0ec:	b973      	cbnz	r3, 2ffec10c <stm32mp_clk_enable+0x50>
2ffec0ee:	f008 fa42 	bl	2fff4576 <stm32mp_rcc_base>
2ffec0f2:	4a13      	ldr	r2, [pc, #76]	@ (2ffec140 <stm32mp_clk_enable+0x84>)
2ffec0f4:	eb02 03c4 	add.w	r3, r2, r4, lsl #3
2ffec0f8:	f832 2034 	ldrh.w	r2, [r2, r4, lsl #3]
2ffec0fc:	791f      	ldrb	r7, [r3, #4]
2ffec0fe:	7899      	ldrb	r1, [r3, #2]
2ffec100:	2301      	movs	r3, #1
2ffec102:	b16f      	cbz	r7, 2ffec120 <stm32mp_clk_enable+0x64>
2ffec104:	408b      	lsls	r3, r1
2ffec106:	5013      	str	r3, [r2, r0]
2ffec108:	f3bf 8f4f 	dsb	sy
2ffec10c:	f856 3024 	ldr.w	r3, [r6, r4, lsl #2]
2ffec110:	3301      	adds	r3, #1
2ffec112:	f846 3024 	str.w	r3, [r6, r4, lsl #2]
2ffec116:	3301      	adds	r3, #1
2ffec118:	d106      	bne.n	2ffec128 <stm32mp_clk_enable+0x6c>
2ffec11a:	480a      	ldr	r0, [pc, #40]	@ (2ffec144 <stm32mp_clk_enable+0x88>)
2ffec11c:	4629      	mov	r1, r5
2ffec11e:	e7d9      	b.n	2ffec0d4 <stm32mp_clk_enable+0x18>
2ffec120:	5817      	ldr	r7, [r2, r0]
2ffec122:	408b      	lsls	r3, r1
2ffec124:	433b      	orrs	r3, r7
2ffec126:	e7ee      	b.n	2ffec106 <stm32mp_clk_enable+0x4a>
2ffec128:	4804      	ldr	r0, [pc, #16]	@ (2ffec13c <stm32mp_clk_enable+0x80>)
2ffec12a:	f007 fbbb 	bl	2fff38a4 <stm32mp1_clk_unlock>
2ffec12e:	2000      	movs	r0, #0
2ffec130:	bdf8      	pop	{r3, r4, r5, r6, r7, pc}
2ffec132:	bf00      	nop
2ffec134:	2fff7197 	.word	0x2fff7197
2ffec138:	2fffb618 	.word	0x2fffb618
2ffec13c:	2fffb614 	.word	0x2fffb614
2ffec140:	2fff5c7c 	.word	0x2fff5c7c
2ffec144:	2fff71b4 	.word	0x2fff71b4

2ffec148 <stm32_clk_configure_mux>:
2ffec148:	f3c1 1307 	ubfx	r3, r1, #4, #8
2ffec14c:	2206      	movs	r2, #6
2ffec14e:	e92d 41f0 	stmdb	sp!, {r4, r5, r6, r7, r8, lr}
2ffec152:	f001 010f 	and.w	r1, r1, #15
2ffec156:	6844      	ldr	r4, [r0, #4]
2ffec158:	f04f 3cff 	mov.w	ip, #4294967295	@ 0xffffffff
2ffec15c:	4353      	muls	r3, r2
2ffec15e:	6800      	ldr	r0, [r0, #0]
2ffec160:	18e2      	adds	r2, r4, r3
2ffec162:	5ae5      	ldrh	r5, [r4, r3]
2ffec164:	7897      	ldrb	r7, [r2, #2]
2ffec166:	78d3      	ldrb	r3, [r2, #3]
2ffec168:	582e      	ldr	r6, [r5, r0]
2ffec16a:	443b      	add	r3, r7
2ffec16c:	182c      	adds	r4, r5, r0
2ffec16e:	f1c3 0320 	rsb	r3, r3, #32
2ffec172:	40b9      	lsls	r1, r7
2ffec174:	fa2c f303 	lsr.w	r3, ip, r3
2ffec178:	4071      	eors	r1, r6
2ffec17a:	fa0c fc07 	lsl.w	ip, ip, r7
2ffec17e:	400b      	ands	r3, r1
2ffec180:	ea03 030c 	and.w	r3, r3, ip
2ffec184:	4073      	eors	r3, r6
2ffec186:	502b      	str	r3, [r5, r0]
2ffec188:	7915      	ldrb	r5, [r2, #4]
2ffec18a:	2dff      	cmp	r5, #255	@ 0xff
2ffec18c:	d013      	beq.n	2ffec1b6 <stm32_clk_configure_mux+0x6e>
2ffec18e:	ee1e 1f10 	mrc	15, 0, r1, cr14, cr0, {0}
2ffec192:	ec58 7f0e 	mrrc	15, 0, r7, r8, cr14
2ffec196:	480e      	ldr	r0, [pc, #56]	@ (2ffec1d0 <stm32_clk_configure_mux+0x88>)
2ffec198:	2300      	movs	r3, #0
2ffec19a:	4a0e      	ldr	r2, [pc, #56]	@ (2ffec1d4 <stm32_clk_configure_mux+0x8c>)
2ffec19c:	fba1 0100 	umull	r0, r1, r1, r0
2ffec1a0:	f006 ee8a 	blx	2fff2eb8 <__aeabi_uldivmod>
2ffec1a4:	19c0      	adds	r0, r0, r7
2ffec1a6:	f04f 0301 	mov.w	r3, #1
2ffec1aa:	eb41 0108 	adc.w	r1, r1, r8
2ffec1ae:	40ab      	lsls	r3, r5
2ffec1b0:	6822      	ldr	r2, [r4, #0]
2ffec1b2:	4213      	tst	r3, r2
2ffec1b4:	d002      	beq.n	2ffec1bc <stm32_clk_configure_mux+0x74>
2ffec1b6:	2000      	movs	r0, #0
2ffec1b8:	e8bd 81f0 	ldmia.w	sp!, {r4, r5, r6, r7, r8, pc}
2ffec1bc:	ec57 6f0e 	mrrc	15, 0, r6, r7, cr14
2ffec1c0:	42b0      	cmp	r0, r6
2ffec1c2:	eb71 0207 	sbcs.w	r2, r1, r7
2ffec1c6:	d2f3      	bcs.n	2ffec1b0 <stm32_clk_configure_mux+0x68>
2ffec1c8:	f06f 003b 	mvn.w	r0, #59	@ 0x3b
2ffec1cc:	e7f4      	b.n	2ffec1b8 <stm32_clk_configure_mux+0x70>
2ffec1ce:	bf00      	nop
2ffec1d0:	00030d40 	.word	0x00030d40
2ffec1d4:	000f4240 	.word	0x000f4240

2ffec1d8 <stm32mp1_read_pll_freq>:
2ffec1d8:	e92d 43f8 	stmdb	sp!, {r3, r4, r5, r6, r7, r8, r9, lr}
2ffec1dc:	4604      	mov	r4, r0
2ffec1de:	f8df 9098 	ldr.w	r9, [pc, #152]	@ 2ffec278 <stm32mp1_read_pll_freq+0xa0>
2ffec1e2:	460d      	mov	r5, r1
2ffec1e4:	f008 f9c7 	bl	2fff4576 <stm32mp_rcc_base>
2ffec1e8:	eb09 1844 	add.w	r8, r9, r4, lsl #5
2ffec1ec:	f8b8 3008 	ldrh.w	r3, [r8, #8]
2ffec1f0:	581e      	ldr	r6, [r3, r0]
2ffec1f2:	4b22      	ldr	r3, [pc, #136]	@ (2ffec27c <stm32mp1_read_pll_freq+0xa4>)
2ffec1f4:	5d5b      	ldrb	r3, [r3, r5]
2ffec1f6:	40de      	lsrs	r6, r3
2ffec1f8:	f008 f9bd 	bl	2fff4576 <stm32mp_rcc_base>
2ffec1fc:	f8b8 3006 	ldrh.w	r3, [r8, #6]
2ffec200:	f006 067f 	and.w	r6, r6, #127	@ 0x7f
2ffec204:	581f      	ldr	r7, [r3, r0]
2ffec206:	f8b8 300a 	ldrh.w	r3, [r8, #10]
2ffec20a:	581d      	ldr	r5, [r3, r0]
2ffec20c:	f008 f9b3 	bl	2fff4576 <stm32mp_rcc_base>
2ffec210:	f8b8 3004 	ldrh.w	r3, [r8, #4]
2ffec214:	5818      	ldr	r0, [r3, r0]
2ffec216:	f000 0003 	and.w	r0, r0, #3
2ffec21a:	eb00 00c4 	add.w	r0, r0, r4, lsl #3
2ffec21e:	3004      	adds	r0, #4
2ffec220:	f859 3020 	ldr.w	r3, [r9, r0, lsl #2]
2ffec224:	2b05      	cmp	r3, #5
2ffec226:	bf8e      	itee	hi
2ffec228:	2400      	movhi	r4, #0
2ffec22a:	4a15      	ldrls	r2, [pc, #84]	@ (2ffec280 <stm32mp1_read_pll_freq+0xa8>)
2ffec22c:	f852 4023 	ldrls.w	r4, [r2, r3, lsl #2]
2ffec230:	03e9      	lsls	r1, r5, #15
2ffec232:	f3c7 0208 	ubfx	r2, r7, #0, #9
2ffec236:	f3c7 4305 	ubfx	r3, r7, #16, #6
2ffec23a:	f102 0201 	add.w	r2, r2, #1
2ffec23e:	f103 0301 	add.w	r3, r3, #1
2ffec242:	d513      	bpl.n	2ffec26c <stm32mp1_read_pll_freq+0x94>
2ffec244:	f3c5 00cc 	ubfx	r0, r5, #3, #13
2ffec248:	0cd1      	lsrs	r1, r2, #19
2ffec24a:	0352      	lsls	r2, r2, #13
2ffec24c:	1880      	adds	r0, r0, r2
2ffec24e:	fba4 0500 	umull	r0, r5, r4, r0
2ffec252:	f141 0100 	adc.w	r1, r1, #0
2ffec256:	035a      	lsls	r2, r3, #13
2ffec258:	fb04 5101 	mla	r1, r4, r1, r5
2ffec25c:	0cdb      	lsrs	r3, r3, #19
2ffec25e:	f006 ee2c 	blx	2fff2eb8 <__aeabi_uldivmod>
2ffec262:	3601      	adds	r6, #1
2ffec264:	fbb0 f0f6 	udiv	r0, r0, r6
2ffec268:	e8bd 83f8 	ldmia.w	sp!, {r3, r4, r5, r6, r7, r8, r9, pc}
2ffec26c:	fb02 f004 	mul.w	r0, r2, r4
2ffec270:	fbb0 f0f3 	udiv	r0, r0, r3
2ffec274:	e7f5      	b.n	2ffec262 <stm32mp1_read_pll_freq+0x8a>
2ffec276:	bf00      	nop
2ffec278:	2fff527c 	.word	0x2fff527c
2ffec27c:	2fff8f81 	.word	0x2fff8f81
2ffec280:	2fffb708 	.word	0x2fffb708

2ffec284 <stm32mp_clk_get_rate>:
2ffec284:	b5f8      	push	{r3, r4, r5, r6, r7, lr}
2ffec286:	4606      	mov	r6, r0
2ffec288:	f008 f975 	bl	2fff4576 <stm32mp_rcc_base>
2ffec28c:	4604      	mov	r4, r0
2ffec28e:	4630      	mov	r0, r6
2ffec290:	f7ff fe70 	bl	2ffebf74 <stm32mp1_clk_get_parent>
2ffec294:	1e07      	subs	r7, r0, #0
2ffec296:	f2c0 80ea 	blt.w	2ffec46e <stm32mp_clk_get_rate+0x1ea>
2ffec29a:	f008 f96c 	bl	2fff4576 <stm32mp_rcc_base>
2ffec29e:	4605      	mov	r5, r0
2ffec2a0:	2f22      	cmp	r7, #34	@ 0x22
2ffec2a2:	f200 8095 	bhi.w	2ffec3d0 <stm32mp_clk_get_rate+0x14c>
2ffec2a6:	e8df f007 	tbb	[pc, r7]
2ffec2aa:	2623      	.short	0x2623
2ffec2ac:	93a8a595 	.word	0x93a8a595
2ffec2b0:	9c982623 	.word	0x9c982623
2ffec2b4:	b0ab2995 	.word	0xb0ab2995
2ffec2b8:	b9b7b5b2 	.word	0xb9b7b5b2
2ffec2bc:	c3c0bebc 	.word	0xc3c0bebc
2ffec2c0:	5a5a37c5 	.word	0x5a5a37c5
2ffec2c4:	3737375a 	.word	0x3737375a
2ffec2c8:	5a1a8937 	.word	0x5a1a8937
2ffec2cc:	12          	.byte	0x12
2ffec2cd:	00          	.byte	0x00
2ffec2ce:	4869      	ldr	r0, [pc, #420]	@ (2ffec474 <stm32mp_clk_get_rate+0x1f0>)
2ffec2d0:	2ecd      	cmp	r6, #205	@ 0xcd
2ffec2d2:	f200 80b1 	bhi.w	2ffec438 <stm32mp_clk_get_rate+0x1b4>
2ffec2d6:	2ec4      	cmp	r6, #196	@ 0xc4
2ffec2d8:	f200 80ba 	bhi.w	2ffec450 <stm32mp_clk_get_rate+0x1cc>
2ffec2dc:	bdf8      	pop	{r3, r4, r5, r6, r7, pc}
2ffec2de:	6a03      	ldr	r3, [r0, #32]
2ffec2e0:	f003 0307 	and.w	r3, r3, #7
2ffec2e4:	2b03      	cmp	r3, #3
2ffec2e6:	d873      	bhi.n	2ffec3d0 <stm32mp_clk_get_rate+0x14c>
2ffec2e8:	e8df f003 	tbb	[pc, r3]
2ffec2ec:	0b080502 	.word	0x0b080502
2ffec2f0:	4b61      	ldr	r3, [pc, #388]	@ (2ffec478 <stm32mp_clk_get_rate+0x1f4>)
2ffec2f2:	6818      	ldr	r0, [r3, #0]
2ffec2f4:	e7ec      	b.n	2ffec2d0 <stm32mp_clk_get_rate+0x4c>
2ffec2f6:	4b60      	ldr	r3, [pc, #384]	@ (2ffec478 <stm32mp_clk_get_rate+0x1f4>)
2ffec2f8:	6858      	ldr	r0, [r3, #4]
2ffec2fa:	e7e9      	b.n	2ffec2d0 <stm32mp_clk_get_rate+0x4c>
2ffec2fc:	2100      	movs	r1, #0
2ffec2fe:	4608      	mov	r0, r1
2ffec300:	e080      	b.n	2ffec404 <stm32mp_clk_get_rate+0x180>
2ffec302:	2100      	movs	r1, #0
2ffec304:	4608      	mov	r0, r1
2ffec306:	f7ff ff67 	bl	2ffec1d8 <stm32mp1_read_pll_freq>
2ffec30a:	6aeb      	ldr	r3, [r5, #44]	@ 0x2c
2ffec30c:	4a5b      	ldr	r2, [pc, #364]	@ (2ffec47c <stm32mp_clk_get_rate+0x1f8>)
2ffec30e:	f003 0307 	and.w	r3, r3, #7
2ffec312:	5cd3      	ldrb	r3, [r2, r3]
2ffec314:	40d8      	lsrs	r0, r3
2ffec316:	e7db      	b.n	2ffec2d0 <stm32mp_clk_get_rate+0x4c>
2ffec318:	6a43      	ldr	r3, [r0, #36]	@ 0x24
2ffec31a:	f003 0307 	and.w	r3, r3, #7
2ffec31e:	2b01      	cmp	r3, #1
2ffec320:	d011      	beq.n	2ffec346 <stm32mp_clk_get_rate+0xc2>
2ffec322:	2b02      	cmp	r3, #2
2ffec324:	d012      	beq.n	2ffec34c <stm32mp_clk_get_rate+0xc8>
2ffec326:	b9b3      	cbnz	r3, 2ffec356 <stm32mp_clk_get_rate+0xd2>
2ffec328:	4b53      	ldr	r3, [pc, #332]	@ (2ffec478 <stm32mp_clk_get_rate+0x1f4>)
2ffec32a:	6818      	ldr	r0, [r3, #0]
2ffec32c:	6b2b      	ldr	r3, [r5, #48]	@ 0x30
2ffec32e:	2f1b      	cmp	r7, #27
2ffec330:	4a53      	ldr	r2, [pc, #332]	@ (2ffec480 <stm32mp_clk_get_rate+0x1fc>)
2ffec332:	f003 0307 	and.w	r3, r3, #7
2ffec336:	5cd3      	ldrb	r3, [r2, r3]
2ffec338:	fbb0 f0f3 	udiv	r0, r0, r3
2ffec33c:	d00d      	beq.n	2ffec35a <stm32mp_clk_get_rate+0xd6>
2ffec33e:	2f1c      	cmp	r7, #28
2ffec340:	d1c6      	bne.n	2ffec2d0 <stm32mp_clk_get_rate+0x4c>
2ffec342:	6c2b      	ldr	r3, [r5, #64]	@ 0x40
2ffec344:	e7e2      	b.n	2ffec30c <stm32mp_clk_get_rate+0x88>
2ffec346:	4b4c      	ldr	r3, [pc, #304]	@ (2ffec478 <stm32mp_clk_get_rate+0x1f4>)
2ffec348:	6858      	ldr	r0, [r3, #4]
2ffec34a:	e7ef      	b.n	2ffec32c <stm32mp_clk_get_rate+0xa8>
2ffec34c:	2100      	movs	r1, #0
2ffec34e:	2001      	movs	r0, #1
2ffec350:	f7ff ff42 	bl	2ffec1d8 <stm32mp1_read_pll_freq>
2ffec354:	e7ea      	b.n	2ffec32c <stm32mp_clk_get_rate+0xa8>
2ffec356:	2000      	movs	r0, #0
2ffec358:	e7e8      	b.n	2ffec32c <stm32mp_clk_get_rate+0xa8>
2ffec35a:	6beb      	ldr	r3, [r5, #60]	@ 0x3c
2ffec35c:	e7d6      	b.n	2ffec30c <stm32mp_clk_get_rate+0x88>
2ffec35e:	6c83      	ldr	r3, [r0, #72]	@ 0x48
2ffec360:	f003 0307 	and.w	r3, r3, #7
2ffec364:	2b03      	cmp	r3, #3
2ffec366:	d821      	bhi.n	2ffec3ac <stm32mp_clk_get_rate+0x128>
2ffec368:	e8df f003 	tbb	[pc, r3]
2ffec36c:	1b181502 	.word	0x1b181502
2ffec370:	4b41      	ldr	r3, [pc, #260]	@ (2ffec478 <stm32mp_clk_get_rate+0x1f4>)
2ffec372:	6818      	ldr	r0, [r3, #0]
2ffec374:	f8d5 2830 	ldr.w	r2, [r5, #2096]	@ 0x830
2ffec378:	2f19      	cmp	r7, #25
2ffec37a:	4942      	ldr	r1, [pc, #264]	@ (2ffec484 <stm32mp_clk_get_rate+0x200>)
2ffec37c:	f002 020f 	and.w	r2, r2, #15
2ffec380:	5c8a      	ldrb	r2, [r1, r2]
2ffec382:	fa20 f002 	lsr.w	r0, r0, r2
2ffec386:	d013      	beq.n	2ffec3b0 <stm32mp_clk_get_rate+0x12c>
2ffec388:	2f1a      	cmp	r7, #26
2ffec38a:	d014      	beq.n	2ffec3b6 <stm32mp_clk_get_rate+0x132>
2ffec38c:	2f18      	cmp	r7, #24
2ffec38e:	d19f      	bne.n	2ffec2d0 <stm32mp_clk_get_rate+0x4c>
2ffec390:	f8d5 3834 	ldr.w	r3, [r5, #2100]	@ 0x834
2ffec394:	e7ba      	b.n	2ffec30c <stm32mp_clk_get_rate+0x88>
2ffec396:	4b38      	ldr	r3, [pc, #224]	@ (2ffec478 <stm32mp_clk_get_rate+0x1f4>)
2ffec398:	6858      	ldr	r0, [r3, #4]
2ffec39a:	e7eb      	b.n	2ffec374 <stm32mp_clk_get_rate+0xf0>
2ffec39c:	4b36      	ldr	r3, [pc, #216]	@ (2ffec478 <stm32mp_clk_get_rate+0x1f4>)
2ffec39e:	6898      	ldr	r0, [r3, #8]
2ffec3a0:	e7e8      	b.n	2ffec374 <stm32mp_clk_get_rate+0xf0>
2ffec3a2:	2100      	movs	r1, #0
2ffec3a4:	2002      	movs	r0, #2
2ffec3a6:	f7ff ff17 	bl	2ffec1d8 <stm32mp1_read_pll_freq>
2ffec3aa:	e7e3      	b.n	2ffec374 <stm32mp_clk_get_rate+0xf0>
2ffec3ac:	2000      	movs	r0, #0
2ffec3ae:	e7e1      	b.n	2ffec374 <stm32mp_clk_get_rate+0xf0>
2ffec3b0:	f8d5 3838 	ldr.w	r3, [r5, #2104]	@ 0x838
2ffec3b4:	e7aa      	b.n	2ffec30c <stm32mp_clk_get_rate+0x88>
2ffec3b6:	f8d5 383c 	ldr.w	r3, [r5, #2108]	@ 0x83c
2ffec3ba:	e7a7      	b.n	2ffec30c <stm32mp_clk_get_rate+0x88>
2ffec3bc:	f8d0 30d0 	ldr.w	r3, [r0, #208]	@ 0xd0
2ffec3c0:	f003 0307 	and.w	r3, r3, #7
2ffec3c4:	2b01      	cmp	r3, #1
2ffec3c6:	d005      	beq.n	2ffec3d4 <stm32mp_clk_get_rate+0x150>
2ffec3c8:	2b02      	cmp	r3, #2
2ffec3ca:	d094      	beq.n	2ffec2f6 <stm32mp_clk_get_rate+0x72>
2ffec3cc:	2b00      	cmp	r3, #0
2ffec3ce:	d08f      	beq.n	2ffec2f0 <stm32mp_clk_get_rate+0x6c>
2ffec3d0:	2000      	movs	r0, #0
2ffec3d2:	e77d      	b.n	2ffec2d0 <stm32mp_clk_get_rate+0x4c>
2ffec3d4:	4b28      	ldr	r3, [pc, #160]	@ (2ffec478 <stm32mp_clk_get_rate+0x1f4>)
2ffec3d6:	6898      	ldr	r0, [r3, #8]
2ffec3d8:	e77a      	b.n	2ffec2d0 <stm32mp_clk_get_rate+0x4c>
2ffec3da:	4b27      	ldr	r3, [pc, #156]	@ (2ffec478 <stm32mp_clk_get_rate+0x1f4>)
2ffec3dc:	6858      	ldr	r0, [r3, #4]
2ffec3de:	0840      	lsrs	r0, r0, #1
2ffec3e0:	e776      	b.n	2ffec2d0 <stm32mp_clk_get_rate+0x4c>
2ffec3e2:	6c43      	ldr	r3, [r0, #68]	@ 0x44
2ffec3e4:	4a24      	ldr	r2, [pc, #144]	@ (2ffec478 <stm32mp_clk_get_rate+0x1f4>)
2ffec3e6:	f003 033f 	and.w	r3, r3, #63	@ 0x3f
2ffec3ea:	6850      	ldr	r0, [r2, #4]
2ffec3ec:	3301      	adds	r3, #1
2ffec3ee:	fbb0 f0f3 	udiv	r0, r0, r3
2ffec3f2:	e76d      	b.n	2ffec2d0 <stm32mp_clk_get_rate+0x4c>
2ffec3f4:	4b20      	ldr	r3, [pc, #128]	@ (2ffec478 <stm32mp_clk_get_rate+0x1f4>)
2ffec3f6:	68d8      	ldr	r0, [r3, #12]
2ffec3f8:	e76a      	b.n	2ffec2d0 <stm32mp_clk_get_rate+0x4c>
2ffec3fa:	4b1f      	ldr	r3, [pc, #124]	@ (2ffec478 <stm32mp_clk_get_rate+0x1f4>)
2ffec3fc:	6918      	ldr	r0, [r3, #16]
2ffec3fe:	e767      	b.n	2ffec2d0 <stm32mp_clk_get_rate+0x4c>
2ffec400:	2101      	movs	r1, #1
2ffec402:	2000      	movs	r0, #0
2ffec404:	f7ff fee8 	bl	2ffec1d8 <stm32mp1_read_pll_freq>
2ffec408:	e762      	b.n	2ffec2d0 <stm32mp_clk_get_rate+0x4c>
2ffec40a:	2102      	movs	r1, #2
2ffec40c:	e7f9      	b.n	2ffec402 <stm32mp_clk_get_rate+0x17e>
2ffec40e:	2100      	movs	r1, #0
2ffec410:	2001      	movs	r0, #1
2ffec412:	e7f7      	b.n	2ffec404 <stm32mp_clk_get_rate+0x180>
2ffec414:	2101      	movs	r1, #1
2ffec416:	e772      	b.n	2ffec2fe <stm32mp_clk_get_rate+0x7a>
2ffec418:	2102      	movs	r1, #2
2ffec41a:	e7f9      	b.n	2ffec410 <stm32mp_clk_get_rate+0x18c>
2ffec41c:	2100      	movs	r1, #0
2ffec41e:	2002      	movs	r0, #2
2ffec420:	e7f0      	b.n	2ffec404 <stm32mp_clk_get_rate+0x180>
2ffec422:	2101      	movs	r1, #1
2ffec424:	e7fb      	b.n	2ffec41e <stm32mp_clk_get_rate+0x19a>
2ffec426:	2102      	movs	r1, #2
2ffec428:	e7f9      	b.n	2ffec41e <stm32mp_clk_get_rate+0x19a>
2ffec42a:	2100      	movs	r1, #0
2ffec42c:	2003      	movs	r0, #3
2ffec42e:	e7e9      	b.n	2ffec404 <stm32mp_clk_get_rate+0x180>
2ffec430:	2101      	movs	r1, #1
2ffec432:	e7fb      	b.n	2ffec42c <stm32mp_clk_get_rate+0x1a8>
2ffec434:	2102      	movs	r1, #2
2ffec436:	e7f9      	b.n	2ffec42c <stm32mp_clk_get_rate+0x1a8>
2ffec438:	f1a6 03ce 	sub.w	r3, r6, #206	@ 0xce
2ffec43c:	2b04      	cmp	r3, #4
2ffec43e:	f63f af4d 	bhi.w	2ffec2dc <stm32mp_clk_get_rate+0x58>
2ffec442:	f8d4 2838 	ldr.w	r2, [r4, #2104]	@ 0x838
2ffec446:	f8d4 382c 	ldr.w	r3, [r4, #2092]	@ 0x82c
2ffec44a:	f002 0207 	and.w	r2, r2, #7
2ffec44e:	e005      	b.n	2ffec45c <stm32mp_clk_get_rate+0x1d8>
2ffec450:	f8d4 2834 	ldr.w	r2, [r4, #2100]	@ 0x834
2ffec454:	f8d4 3828 	ldr.w	r3, [r4, #2088]	@ 0x828
2ffec458:	f002 0207 	and.w	r2, r2, #7
2ffec45c:	f003 0301 	and.w	r3, r3, #1
2ffec460:	2a00      	cmp	r2, #0
2ffec462:	f43f af3b 	beq.w	2ffec2dc <stm32mp_clk_get_rate+0x58>
2ffec466:	fb03 0300 	mla	r3, r3, r0, r0
2ffec46a:	0058      	lsls	r0, r3, #1
2ffec46c:	e736      	b.n	2ffec2dc <stm32mp_clk_get_rate+0x58>
2ffec46e:	2000      	movs	r0, #0
2ffec470:	e734      	b.n	2ffec2dc <stm32mp_clk_get_rate+0x58>
2ffec472:	bf00      	nop
2ffec474:	02dc6c00 	.word	0x02dc6c00
2ffec478:	2fffb708 	.word	0x2fffb708
2ffec47c:	2fff8f69 	.word	0x2fff8f69
2ffec480:	2fff8f61 	.word	0x2fff8f61
2ffec484:	2fff8f71 	.word	0x2fff8f71

2ffec488 <stm32mp1_osc_wait.isra.0>:
2ffec488:	e92d 43f7 	stmdb	sp!, {r0, r1, r2, r4, r5, r6, r7, r8, r9, lr}
2ffec48c:	4606      	mov	r6, r0
2ffec48e:	460f      	mov	r7, r1
2ffec490:	4614      	mov	r4, r2
2ffec492:	f008 f870 	bl	2fff4576 <stm32mp_rcc_base>
2ffec496:	19c2      	adds	r2, r0, r7
2ffec498:	2e00      	cmp	r6, #0
2ffec49a:	bf14      	ite	ne
2ffec49c:	4621      	movne	r1, r4
2ffec49e:	2100      	moveq	r1, #0
2ffec4a0:	ee1e 5f10 	mrc	15, 0, r5, cr14, cr0, {0}
2ffec4a4:	ec59 8f0e 	mrrc	15, 0, r8, r9, cr14
2ffec4a8:	eb15 0508 	adds.w	r5, r5, r8
2ffec4ac:	f149 0c00 	adc.w	ip, r9, #0
2ffec4b0:	6813      	ldr	r3, [r2, #0]
2ffec4b2:	4023      	ands	r3, r4
2ffec4b4:	428b      	cmp	r3, r1
2ffec4b6:	d00c      	beq.n	2ffec4d2 <stm32mp1_osc_wait.isra.0+0x4a>
2ffec4b8:	ec59 8f0e 	mrrc	15, 0, r8, r9, cr14
2ffec4bc:	4545      	cmp	r5, r8
2ffec4be:	eb7c 0309 	sbcs.w	r3, ip, r9
2ffec4c2:	d2f5      	bcs.n	2ffec4b0 <stm32mp1_osc_wait.isra.0+0x28>
2ffec4c4:	59c3      	ldr	r3, [r0, r7]
2ffec4c6:	4621      	mov	r1, r4
2ffec4c8:	4803      	ldr	r0, [pc, #12]	@ (2ffec4d8 <stm32mp1_osc_wait.isra.0+0x50>)
2ffec4ca:	9300      	str	r3, [sp, #0]
2ffec4cc:	4633      	mov	r3, r6
2ffec4ce:	f7fd fead 	bl	2ffea22c <tf_log>
2ffec4d2:	b003      	add	sp, #12
2ffec4d4:	e8bd 83f0 	ldmia.w	sp!, {r4, r5, r6, r7, r8, r9, pc}
2ffec4d8:	2fff71db 	.word	0x2fff71db

2ffec4dc <clk_stm32_set_div>:
2ffec4dc:	6903      	ldr	r3, [r0, #16]
2ffec4de:	e92d 41f0 	stmdb	sp!, {r4, r5, r6, r7, r8, lr}
2ffec4e2:	428b      	cmp	r3, r1
2ffec4e4:	d803      	bhi.n	2ffec4ee <clk_stm32_set_div+0x12>
2ffec4e6:	f7fe f937 	bl	2ffea758 <console_flush>
2ffec4ea:	f7fc eec4 	blx	2ffe9274 <el3_panic>
2ffec4ee:	2306      	movs	r3, #6
2ffec4f0:	f04f 3cff 	mov.w	ip, #4294967295	@ 0xffffffff
2ffec4f4:	4359      	muls	r1, r3
2ffec4f6:	68c3      	ldr	r3, [r0, #12]
2ffec4f8:	185d      	adds	r5, r3, r1
2ffec4fa:	5a5e      	ldrh	r6, [r3, r1]
2ffec4fc:	78af      	ldrb	r7, [r5, #2]
2ffec4fe:	78eb      	ldrb	r3, [r5, #3]
2ffec500:	6801      	ldr	r1, [r0, #0]
2ffec502:	443b      	add	r3, r7
2ffec504:	5870      	ldr	r0, [r6, r1]
2ffec506:	f1c3 0320 	rsb	r3, r3, #32
2ffec50a:	40ba      	lsls	r2, r7
2ffec50c:	fa2c f303 	lsr.w	r3, ip, r3
2ffec510:	4042      	eors	r2, r0
2ffec512:	1874      	adds	r4, r6, r1
2ffec514:	4013      	ands	r3, r2
2ffec516:	fa0c fc07 	lsl.w	ip, ip, r7
2ffec51a:	ea03 030c 	and.w	r3, r3, ip
2ffec51e:	4043      	eors	r3, r0
2ffec520:	5073      	str	r3, [r6, r1]
2ffec522:	792d      	ldrb	r5, [r5, #4]
2ffec524:	2dff      	cmp	r5, #255	@ 0xff
2ffec526:	d013      	beq.n	2ffec550 <clk_stm32_set_div+0x74>
2ffec528:	ee1e 1f10 	mrc	15, 0, r1, cr14, cr0, {0}
2ffec52c:	ec58 7f0e 	mrrc	15, 0, r7, r8, cr14
2ffec530:	480d      	ldr	r0, [pc, #52]	@ (2ffec568 <clk_stm32_set_div+0x8c>)
2ffec532:	2300      	movs	r3, #0
2ffec534:	4a0d      	ldr	r2, [pc, #52]	@ (2ffec56c <clk_stm32_set_div+0x90>)
2ffec536:	fba1 0100 	umull	r0, r1, r1, r0
2ffec53a:	f006 ecbe 	blx	2fff2eb8 <__aeabi_uldivmod>
2ffec53e:	19c0      	adds	r0, r0, r7
2ffec540:	f04f 0301 	mov.w	r3, #1
2ffec544:	eb41 0108 	adc.w	r1, r1, r8
2ffec548:	40ab      	lsls	r3, r5
2ffec54a:	6822      	ldr	r2, [r4, #0]
2ffec54c:	4213      	tst	r3, r2
2ffec54e:	d002      	beq.n	2ffec556 <clk_stm32_set_div+0x7a>
2ffec550:	2000      	movs	r0, #0
2ffec552:	e8bd 81f0 	ldmia.w	sp!, {r4, r5, r6, r7, r8, pc}
2ffec556:	ec57 6f0e 	mrrc	15, 0, r6, r7, cr14
2ffec55a:	42b0      	cmp	r0, r6
2ffec55c:	eb71 0207 	sbcs.w	r2, r1, r7
2ffec560:	d2f3      	bcs.n	2ffec54a <clk_stm32_set_div+0x6e>
2ffec562:	f06f 003b 	mvn.w	r0, #59	@ 0x3b
2ffec566:	e7f4      	b.n	2ffec552 <clk_stm32_set_div+0x76>
2ffec568:	00030d40 	.word	0x00030d40
2ffec56c:	000f4240 	.word	0x000f4240

2ffec570 <stm32mp1_clk_rcc_regs_lock>:
2ffec570:	4801      	ldr	r0, [pc, #4]	@ (2ffec578 <stm32mp1_clk_rcc_regs_lock+0x8>)
2ffec572:	f007 b98c 	b.w	2fff388e <stm32mp1_clk_lock>
2ffec576:	bf00      	nop
2ffec578:	2fffb704 	.word	0x2fffb704

2ffec57c <stm32mp1_clk_rcc_regs_unlock>:
2ffec57c:	4801      	ldr	r0, [pc, #4]	@ (2ffec584 <stm32mp1_clk_rcc_regs_unlock+0x8>)
2ffec57e:	f007 b991 	b.w	2fff38a4 <stm32mp1_clk_unlock>
2ffec582:	bf00      	nop
2ffec584:	2fffb704 	.word	0x2fffb704

2ffec588 <stm32mp1_clk_init>:
2ffec588:	4bbb      	ldr	r3, [pc, #748]	@ (2ffec878 <stm32mp1_clk_init+0x2f0>)
2ffec58a:	e92d 4ff0 	stmdb	sp!, {r4, r5, r6, r7, r8, r9, sl, fp, lr}
2ffec58e:	b099      	sub	sp, #100	@ 0x64
2ffec590:	f8d3 a000 	ldr.w	sl, [r3]
2ffec594:	4604      	mov	r4, r0
2ffec596:	2080      	movs	r0, #128	@ 0x80
2ffec598:	f8da 3014 	ldr.w	r3, [sl, #20]
2ffec59c:	f8d3 b004 	ldr.w	fp, [r3, #4]
2ffec5a0:	930f      	str	r3, [sp, #60]	@ 0x3c
2ffec5a2:	f7ff fce7 	bl	2ffebf74 <stm32mp1_clk_get_parent>
2ffec5a6:	9010      	str	r0, [sp, #64]	@ 0x40
2ffec5a8:	207f      	movs	r0, #127	@ 0x7f
2ffec5aa:	f7ff fce3 	bl	2ffebf74 <stm32mp1_clk_get_parent>
2ffec5ae:	9011      	str	r0, [sp, #68]	@ 0x44
2ffec5b0:	f89b 0000 	ldrb.w	r0, [fp]
2ffec5b4:	2800      	cmp	r0, #0
2ffec5b6:	f040 80cb 	bne.w	2ffec750 <stm32mp1_clk_init+0x1c8>
2ffec5ba:	2c00      	cmp	r4, #0
2ffec5bc:	f000 80c8 	beq.w	2ffec750 <stm32mp1_clk_init+0x1c8>
2ffec5c0:	f8db 3038 	ldr.w	r3, [fp, #56]	@ 0x38
2ffec5c4:	4aad      	ldr	r2, [pc, #692]	@ (2ffec87c <stm32mp1_clk_init+0x2f4>)
2ffec5c6:	4293      	cmp	r3, r2
2ffec5c8:	d006      	beq.n	2ffec5d8 <stm32mp1_clk_init+0x50>
2ffec5ca:	3201      	adds	r2, #1
2ffec5cc:	4293      	cmp	r3, r2
2ffec5ce:	d004      	beq.n	2ffec5da <stm32mp1_clk_init+0x52>
2ffec5d0:	f7fe f8c2 	bl	2ffea758 <console_flush>
2ffec5d4:	f7fc ee4e 	blx	2ffe9274 <el3_panic>
2ffec5d8:	2004      	movs	r0, #4
2ffec5da:	f7ff fe53 	bl	2ffec284 <stm32mp_clk_get_rate>
2ffec5de:	9001      	str	r0, [sp, #4]
2ffec5e0:	9b01      	ldr	r3, [sp, #4]
2ffec5e2:	2b00      	cmp	r3, #0
2ffec5e4:	d0f4      	beq.n	2ffec5d0 <stm32mp1_clk_init+0x48>
2ffec5e6:	2300      	movs	r3, #0
2ffec5e8:	f04f 39ff 	mov.w	r9, #4294967295	@ 0xffffffff
2ffec5ec:	f8cb 3014 	str.w	r3, [fp, #20]
2ffec5f0:	f8cb 3018 	str.w	r3, [fp, #24]
2ffec5f4:	2301      	movs	r3, #1
2ffec5f6:	f8cb 301c 	str.w	r3, [fp, #28]
2ffec5fa:	f44f 737a 	mov.w	r3, #1000	@ 0x3e8
2ffec5fe:	fba4 3203 	umull	r3, r2, r4, r3
2ffec602:	f8cd 9024 	str.w	r9, [sp, #36]	@ 0x24
2ffec606:	9307      	str	r3, [sp, #28]
2ffec608:	f44f 437a 	mov.w	r3, #64000	@ 0xfa00
2ffec60c:	9208      	str	r2, [sp, #32]
2ffec60e:	fba4 3203 	umull	r3, r2, r4, r3
2ffec612:	930c      	str	r3, [sp, #48]	@ 0x30
2ffec614:	2340      	movs	r3, #64	@ 0x40
2ffec616:	920d      	str	r2, [sp, #52]	@ 0x34
2ffec618:	9304      	str	r3, [sp, #16]
2ffec61a:	9b01      	ldr	r3, [sp, #4]
2ffec61c:	9a04      	ldr	r2, [sp, #16]
2ffec61e:	fbb3 f5f2 	udiv	r5, r3, r2
2ffec622:	4a97      	ldr	r2, [pc, #604]	@ (2ffec880 <stm32mp1_clk_init+0x2f8>)
2ffec624:	f5a5 03f4 	sub.w	r3, r5, #7995392	@ 0x7a0000
2ffec628:	f5a3 5390 	sub.w	r3, r3, #4608	@ 0x1200
2ffec62c:	4293      	cmp	r3, r2
2ffec62e:	f200 8106 	bhi.w	2ffec83e <stm32mp1_clk_init+0x2b6>
2ffec632:	9b0c      	ldr	r3, [sp, #48]	@ 0x30
2ffec634:	9302      	str	r3, [sp, #8]
2ffec636:	9b0d      	ldr	r3, [sp, #52]	@ 0x34
2ffec638:	930a      	str	r3, [sp, #40]	@ 0x28
2ffec63a:	2301      	movs	r3, #1
2ffec63c:	9306      	str	r3, [sp, #24]
2ffec63e:	2300      	movs	r3, #0
2ffec640:	930b      	str	r3, [sp, #44]	@ 0x2c
2ffec642:	9b04      	ldr	r3, [sp, #16]
2ffec644:	3b01      	subs	r3, #1
2ffec646:	9317      	str	r3, [sp, #92]	@ 0x5c
2ffec648:	9a01      	ldr	r2, [sp, #4]
2ffec64a:	2300      	movs	r3, #0
2ffec64c:	9802      	ldr	r0, [sp, #8]
2ffec64e:	990a      	ldr	r1, [sp, #40]	@ 0x28
2ffec650:	f006 ec32 	blx	2fff2eb8 <__aeabi_uldivmod>
2ffec654:	f1b0 0219 	subs.w	r2, r0, #25
2ffec658:	4607      	mov	r7, r0
2ffec65a:	f161 0300 	sbc.w	r3, r1, #0
2ffec65e:	2a4c      	cmp	r2, #76	@ 0x4c
2ffec660:	f173 0300 	sbcs.w	r3, r3, #0
2ffec664:	460e      	mov	r6, r1
2ffec666:	4604      	mov	r4, r0
2ffec668:	f080 80d3 	bcs.w	2ffec812 <stm32mp1_clk_init+0x28a>
2ffec66c:	9b0a      	ldr	r3, [sp, #40]	@ 0x28
2ffec66e:	f8dd c008 	ldr.w	ip, [sp, #8]
2ffec672:	9802      	ldr	r0, [sp, #8]
2ffec674:	0359      	lsls	r1, r3, #13
2ffec676:	2300      	movs	r3, #0
2ffec678:	9a01      	ldr	r2, [sp, #4]
2ffec67a:	0340      	lsls	r0, r0, #13
2ffec67c:	ea41 41dc 	orr.w	r1, r1, ip, lsr #19
2ffec680:	f006 ec1a 	blx	2fff2eb8 <__aeabi_uldivmod>
2ffec684:	0373      	lsls	r3, r6, #13
2ffec686:	ea43 43d7 	orr.w	r3, r3, r7, lsr #19
2ffec68a:	037f      	lsls	r7, r7, #13
2ffec68c:	1bc0      	subs	r0, r0, r7
2ffec68e:	eb61 0103 	sbc.w	r1, r1, r3
2ffec692:	f242 0301 	movw	r3, #8193	@ 0x2001
2ffec696:	4298      	cmp	r0, r3
2ffec698:	f171 0300 	sbcs.w	r3, r1, #0
2ffec69c:	f080 80b9 	bcs.w	2ffec812 <stm32mp1_clk_init+0x28a>
2ffec6a0:	9b06      	ldr	r3, [sp, #24]
2ffec6a2:	fba0 7805 	umull	r7, r8, r0, r5
2ffec6a6:	3b01      	subs	r3, #1
2ffec6a8:	9312      	str	r3, [sp, #72]	@ 0x48
2ffec6aa:	1e63      	subs	r3, r4, #1
2ffec6ac:	9313      	str	r3, [sp, #76]	@ 0x4c
2ffec6ae:	fba4 3205 	umull	r3, r2, r4, r5
2ffec6b2:	fb05 8801 	mla	r8, r5, r1, r8
2ffec6b6:	9314      	str	r3, [sp, #80]	@ 0x50
2ffec6b8:	fb05 2306 	mla	r3, r5, r6, r2
2ffec6bc:	1c46      	adds	r6, r0, #1
2ffec6be:	f141 0400 	adc.w	r4, r1, #0
2ffec6c2:	930e      	str	r3, [sp, #56]	@ 0x38
2ffec6c4:	1c83      	adds	r3, r0, #2
2ffec6c6:	9315      	str	r3, [sp, #84]	@ 0x54
2ffec6c8:	f141 0300 	adc.w	r3, r1, #0
2ffec6cc:	9316      	str	r3, [sp, #88]	@ 0x58
2ffec6ce:	9b14      	ldr	r3, [sp, #80]	@ 0x50
2ffec6d0:	0b78      	lsrs	r0, r7, #13
2ffec6d2:	ea40 40c8 	orr.w	r0, r0, r8, lsl #19
2ffec6d6:	18c0      	adds	r0, r0, r3
2ffec6d8:	9b0e      	ldr	r3, [sp, #56]	@ 0x38
2ffec6da:	f8df c1a8 	ldr.w	ip, [pc, #424]	@ 2ffec884 <stm32mp1_clk_init+0x2fc>
2ffec6de:	eb43 3158 	adc.w	r1, r3, r8, lsr #13
2ffec6e2:	4b69      	ldr	r3, [pc, #420]	@ (2ffec888 <stm32mp1_clk_init+0x300>)
2ffec6e4:	18c2      	adds	r2, r0, r3
2ffec6e6:	f161 0300 	sbc.w	r3, r1, #0
2ffec6ea:	4594      	cmp	ip, r2
2ffec6ec:	f04f 0200 	mov.w	r2, #0
2ffec6f0:	eb72 0303 	sbcs.w	r3, r2, r3
2ffec6f4:	f0c0 8087 	bcc.w	2ffec806 <stm32mp1_clk_init+0x27e>
2ffec6f8:	9a06      	ldr	r2, [sp, #24]
2ffec6fa:	9b0b      	ldr	r3, [sp, #44]	@ 0x2c
2ffec6fc:	f006 ebdc 	blx	2fff2eb8 <__aeabi_uldivmod>
2ffec700:	f8dd c01c 	ldr.w	ip, [sp, #28]
2ffec704:	4603      	mov	r3, r0
2ffec706:	460a      	mov	r2, r1
2ffec708:	4584      	cmp	ip, r0
2ffec70a:	9808      	ldr	r0, [sp, #32]
2ffec70c:	4188      	sbcs	r0, r1
2ffec70e:	d272      	bcs.n	2ffec7f6 <stm32mp1_clk_init+0x26e>
2ffec710:	ebb3 030c 	subs.w	r3, r3, ip
2ffec714:	9a08      	ldr	r2, [sp, #32]
2ffec716:	eb61 0102 	sbc.w	r1, r1, r2
2ffec71a:	9a09      	ldr	r2, [sp, #36]	@ 0x24
2ffec71c:	454b      	cmp	r3, r9
2ffec71e:	eb71 0202 	sbcs.w	r2, r1, r2
2ffec722:	d26c      	bcs.n	2ffec7fe <stm32mp1_clk_init+0x276>
2ffec724:	9a17      	ldr	r2, [sp, #92]	@ 0x5c
2ffec726:	f8cb 2008 	str.w	r2, [fp, #8]
2ffec72a:	9a13      	ldr	r2, [sp, #76]	@ 0x4c
2ffec72c:	f8cb 200c 	str.w	r2, [fp, #12]
2ffec730:	9a12      	ldr	r2, [sp, #72]	@ 0x48
2ffec732:	f8cb 2010 	str.w	r2, [fp, #16]
2ffec736:	1e72      	subs	r2, r6, #1
2ffec738:	f8cb 2020 	str.w	r2, [fp, #32]
2ffec73c:	ea53 0201 	orrs.w	r2, r3, r1
2ffec740:	d15f      	bne.n	2ffec802 <stm32mp1_clk_init+0x27a>
2ffec742:	2301      	movs	r3, #1
2ffec744:	f88b 3000 	strb.w	r3, [fp]
2ffec748:	f8db 3038 	ldr.w	r3, [fp, #56]	@ 0x38
2ffec74c:	f8cb 3004 	str.w	r3, [fp, #4]
2ffec750:	4c4e      	ldr	r4, [pc, #312]	@ (2ffec88c <stm32mp1_clk_init+0x304>)
2ffec752:	68e3      	ldr	r3, [r4, #12]
2ffec754:	b16b      	cbz	r3, 2ffec772 <stm32mp1_clk_init+0x1ea>
2ffec756:	f007 ff0e 	bl	2fff4576 <stm32mp_rcc_base>
2ffec75a:	f8d0 3144 	ldr.w	r3, [r0, #324]	@ 0x144
2ffec75e:	2202      	movs	r2, #2
2ffec760:	f44f 71a2 	mov.w	r1, #324	@ 0x144
2ffec764:	f043 0301 	orr.w	r3, r3, #1
2ffec768:	f8c0 3144 	str.w	r3, [r0, #324]	@ 0x144
2ffec76c:	2001      	movs	r0, #1
2ffec76e:	f7ff fe8b 	bl	2ffec488 <stm32mp1_osc_wait.isra.0>
2ffec772:	6923      	ldr	r3, [r4, #16]
2ffec774:	2b00      	cmp	r3, #0
2ffec776:	f000 80a5 	beq.w	2ffec8c4 <stm32mp1_clk_init+0x33c>
2ffec77a:	4b45      	ldr	r3, [pc, #276]	@ (2ffec890 <stm32mp1_clk_init+0x308>)
2ffec77c:	4945      	ldr	r1, [pc, #276]	@ (2ffec894 <stm32mp1_clk_init+0x30c>)
2ffec77e:	691d      	ldr	r5, [r3, #16]
2ffec780:	4628      	mov	r0, r5
2ffec782:	f000 fcf3 	bl	2ffed16c <fdt_clk_read_bool>
2ffec786:	4944      	ldr	r1, [pc, #272]	@ (2ffec898 <stm32mp1_clk_init+0x310>)
2ffec788:	4606      	mov	r6, r0
2ffec78a:	4628      	mov	r0, r5
2ffec78c:	f000 fcee 	bl	2ffed16c <fdt_clk_read_bool>
2ffec790:	4942      	ldr	r1, [pc, #264]	@ (2ffec89c <stm32mp1_clk_init+0x314>)
2ffec792:	4607      	mov	r7, r0
2ffec794:	4628      	mov	r0, r5
2ffec796:	f000 fce9 	bl	2ffed16c <fdt_clk_read_bool>
2ffec79a:	9b0f      	ldr	r3, [sp, #60]	@ 0x3c
2ffec79c:	2202      	movs	r2, #2
2ffec79e:	4940      	ldr	r1, [pc, #256]	@ (2ffec8a0 <stm32mp1_clk_init+0x318>)
2ffec7a0:	7618      	strb	r0, [r3, #24]
2ffec7a2:	4628      	mov	r0, r5
2ffec7a4:	f000 fd16 	bl	2ffed1d4 <fdt_clk_read_uint32_default>
2ffec7a8:	4605      	mov	r5, r0
2ffec7aa:	f007 fee4 	bl	2fff4576 <stm32mp_rcc_base>
2ffec7ae:	f8d0 3140 	ldr.w	r3, [r0, #320]	@ 0x140
2ffec7b2:	f500 71a0 	add.w	r1, r0, #320	@ 0x140
2ffec7b6:	07db      	lsls	r3, r3, #31
2ffec7b8:	f100 8084 	bmi.w	2ffec8c4 <stm32mp1_clk_init+0x33c>
2ffec7bc:	2f00      	cmp	r7, #0
2ffec7be:	d071      	beq.n	2ffec8a4 <stm32mp1_clk_init+0x31c>
2ffec7c0:	f8d0 3140 	ldr.w	r3, [r0, #320]	@ 0x140
2ffec7c4:	f043 0308 	orr.w	r3, r3, #8
2ffec7c8:	f8c0 3140 	str.w	r3, [r0, #320]	@ 0x140
2ffec7cc:	f8d0 3140 	ldr.w	r3, [r0, #320]	@ 0x140
2ffec7d0:	f043 0302 	orr.w	r3, r3, #2
2ffec7d4:	f8c0 3140 	str.w	r3, [r0, #320]	@ 0x140
2ffec7d8:	e066      	b.n	2ffec8a8 <stm32mp1_clk_init+0x320>
2ffec7da:	19ef      	adds	r7, r5, r7
2ffec7dc:	f148 0800 	adc.w	r8, r8, #0
2ffec7e0:	1c72      	adds	r2, r6, #1
2ffec7e2:	f144 0300 	adc.w	r3, r4, #0
2ffec7e6:	f5a6 5600 	sub.w	r6, r6, #8192	@ 0x2000
2ffec7ea:	3e01      	subs	r6, #1
2ffec7ec:	4326      	orrs	r6, r4
2ffec7ee:	d010      	beq.n	2ffec812 <stm32mp1_clk_init+0x28a>
2ffec7f0:	4616      	mov	r6, r2
2ffec7f2:	461c      	mov	r4, r3
2ffec7f4:	e76b      	b.n	2ffec6ce <stm32mp1_clk_init+0x146>
2ffec7f6:	9907      	ldr	r1, [sp, #28]
2ffec7f8:	1acb      	subs	r3, r1, r3
2ffec7fa:	9908      	ldr	r1, [sp, #32]
2ffec7fc:	e78b      	b.n	2ffec716 <stm32mp1_clk_init+0x18e>
2ffec7fe:	9909      	ldr	r1, [sp, #36]	@ 0x24
2ffec800:	464b      	mov	r3, r9
2ffec802:	9109      	str	r1, [sp, #36]	@ 0x24
2ffec804:	4699      	mov	r9, r3
2ffec806:	9b15      	ldr	r3, [sp, #84]	@ 0x54
2ffec808:	9a16      	ldr	r2, [sp, #88]	@ 0x58
2ffec80a:	4294      	cmp	r4, r2
2ffec80c:	bf08      	it	eq
2ffec80e:	429e      	cmpeq	r6, r3
2ffec810:	d1e3      	bne.n	2ffec7da <stm32mp1_clk_init+0x252>
2ffec812:	9b02      	ldr	r3, [sp, #8]
2ffec814:	9a0c      	ldr	r2, [sp, #48]	@ 0x30
2ffec816:	189b      	adds	r3, r3, r2
2ffec818:	9302      	str	r3, [sp, #8]
2ffec81a:	9a0d      	ldr	r2, [sp, #52]	@ 0x34
2ffec81c:	9b0a      	ldr	r3, [sp, #40]	@ 0x28
2ffec81e:	eb43 0302 	adc.w	r3, r3, r2
2ffec822:	930a      	str	r3, [sp, #40]	@ 0x28
2ffec824:	9b06      	ldr	r3, [sp, #24]
2ffec826:	3301      	adds	r3, #1
2ffec828:	9306      	str	r3, [sp, #24]
2ffec82a:	9b0b      	ldr	r3, [sp, #44]	@ 0x2c
2ffec82c:	f143 0300 	adc.w	r3, r3, #0
2ffec830:	930b      	str	r3, [sp, #44]	@ 0x2c
2ffec832:	9b06      	ldr	r3, [sp, #24]
2ffec834:	9a0b      	ldr	r2, [sp, #44]	@ 0x2c
2ffec836:	3b81      	subs	r3, #129	@ 0x81
2ffec838:	4313      	orrs	r3, r2
2ffec83a:	f47f af05 	bne.w	2ffec648 <stm32mp1_clk_init+0xc0>
2ffec83e:	9b0c      	ldr	r3, [sp, #48]	@ 0x30
2ffec840:	9a07      	ldr	r2, [sp, #28]
2ffec842:	1a9b      	subs	r3, r3, r2
2ffec844:	930c      	str	r3, [sp, #48]	@ 0x30
2ffec846:	9a08      	ldr	r2, [sp, #32]
2ffec848:	9b0d      	ldr	r3, [sp, #52]	@ 0x34
2ffec84a:	eb63 0302 	sbc.w	r3, r3, r2
2ffec84e:	930d      	str	r3, [sp, #52]	@ 0x34
2ffec850:	9b04      	ldr	r3, [sp, #16]
2ffec852:	3b01      	subs	r3, #1
2ffec854:	9304      	str	r3, [sp, #16]
2ffec856:	f47f aee0 	bne.w	2ffec61a <stm32mp1_clk_init+0x92>
2ffec85a:	9b09      	ldr	r3, [sp, #36]	@ 0x24
2ffec85c:	f1b3 3fff 	cmp.w	r3, #4294967295	@ 0xffffffff
2ffec860:	bf08      	it	eq
2ffec862:	f1b9 3fff 	cmpeq.w	r9, #4294967295	@ 0xffffffff
2ffec866:	f47f af6c 	bne.w	2ffec742 <stm32mp1_clk_init+0x1ba>
2ffec86a:	f06f 0415 	mvn.w	r4, #21
2ffec86e:	4620      	mov	r0, r4
2ffec870:	b019      	add	sp, #100	@ 0x64
2ffec872:	e8bd 8ff0 	ldmia.w	sp!, {r4, r5, r6, r7, r8, r9, sl, fp, pc}
2ffec876:	bf00      	nop
2ffec878:	2fffb720 	.word	0x2fffb720
2ffec87c:	04000030 	.word	0x04000030
2ffec880:	007a1200 	.word	0x007a1200
2ffec884:	17d78400 	.word	0x17d78400
2ffec888:	e8287c00 	.word	0xe8287c00
2ffec88c:	2fffb708 	.word	0x2fffb708
2ffec890:	2fffa0a8 	.word	0x2fffa0a8
2ffec894:	2fff7207 	.word	0x2fff7207
2ffec898:	2fff7211 	.word	0x2fff7211
2ffec89c:	2fff721e 	.word	0x2fff721e
2ffec8a0:	2fff7225 	.word	0x2fff7225
2ffec8a4:	2e00      	cmp	r6, #0
2ffec8a6:	d191      	bne.n	2ffec7cc <stm32mp1_clk_init+0x244>
2ffec8a8:	f8d0 3140 	ldr.w	r3, [r0, #320]	@ 0x140
2ffec8ac:	f3c3 1301 	ubfx	r3, r3, #4, #2
2ffec8b0:	429d      	cmp	r5, r3
2ffec8b2:	d125      	bne.n	2ffec900 <stm32mp1_clk_init+0x378>
2ffec8b4:	f007 fe5f 	bl	2fff4576 <stm32mp_rcc_base>
2ffec8b8:	f8d0 3140 	ldr.w	r3, [r0, #320]	@ 0x140
2ffec8bc:	f043 0301 	orr.w	r3, r3, #1
2ffec8c0:	f8c0 3140 	str.w	r3, [r0, #320]	@ 0x140
2ffec8c4:	6863      	ldr	r3, [r4, #4]
2ffec8c6:	2b00      	cmp	r3, #0
2ffec8c8:	d035      	beq.n	2ffec936 <stm32mp1_clk_init+0x3ae>
2ffec8ca:	4b6b      	ldr	r3, [pc, #428]	@ (2ffeca78 <stm32mp1_clk_init+0x4f0>)
2ffec8cc:	496b      	ldr	r1, [pc, #428]	@ (2ffeca7c <stm32mp1_clk_init+0x4f4>)
2ffec8ce:	685c      	ldr	r4, [r3, #4]
2ffec8d0:	4620      	mov	r0, r4
2ffec8d2:	f000 fc4b 	bl	2ffed16c <fdt_clk_read_bool>
2ffec8d6:	496a      	ldr	r1, [pc, #424]	@ (2ffeca80 <stm32mp1_clk_init+0x4f8>)
2ffec8d8:	4606      	mov	r6, r0
2ffec8da:	4620      	mov	r0, r4
2ffec8dc:	f000 fc46 	bl	2ffed16c <fdt_clk_read_bool>
2ffec8e0:	4968      	ldr	r1, [pc, #416]	@ (2ffeca84 <stm32mp1_clk_init+0x4fc>)
2ffec8e2:	4607      	mov	r7, r0
2ffec8e4:	4620      	mov	r0, r4
2ffec8e6:	f000 fc41 	bl	2ffed16c <fdt_clk_read_bool>
2ffec8ea:	4605      	mov	r5, r0
2ffec8ec:	f007 fe43 	bl	2fff4576 <stm32mp_rcc_base>
2ffec8f0:	4604      	mov	r4, r0
2ffec8f2:	b187      	cbz	r7, 2ffec916 <stm32mp1_clk_init+0x38e>
2ffec8f4:	2380      	movs	r3, #128	@ 0x80
2ffec8f6:	60c3      	str	r3, [r0, #12]
2ffec8f8:	f44f 6380 	mov.w	r3, #1024	@ 0x400
2ffec8fc:	60e3      	str	r3, [r4, #12]
2ffec8fe:	e00c      	b.n	2ffec91a <stm32mp1_clk_init+0x392>
2ffec900:	680a      	ldr	r2, [r1, #0]
2ffec902:	bf34      	ite	cc
2ffec904:	f103 33ff 	addcc.w	r3, r3, #4294967295	@ 0xffffffff
2ffec908:	3301      	addcs	r3, #1
2ffec90a:	f022 0230 	bic.w	r2, r2, #48	@ 0x30
2ffec90e:	ea42 1203 	orr.w	r2, r2, r3, lsl #4
2ffec912:	600a      	str	r2, [r1, #0]
2ffec914:	e7cc      	b.n	2ffec8b0 <stm32mp1_clk_init+0x328>
2ffec916:	2e00      	cmp	r6, #0
2ffec918:	d1ee      	bne.n	2ffec8f8 <stm32mp1_clk_init+0x370>
2ffec91a:	f007 fe2c 	bl	2fff4576 <stm32mp_rcc_base>
2ffec91e:	f44f 7280 	mov.w	r2, #256	@ 0x100
2ffec922:	f640 0108 	movw	r1, #2056	@ 0x808
2ffec926:	60c2      	str	r2, [r0, #12]
2ffec928:	2001      	movs	r0, #1
2ffec92a:	f7ff fdad 	bl	2ffec488 <stm32mp1_osc_wait.isra.0>
2ffec92e:	b115      	cbz	r5, 2ffec936 <stm32mp1_clk_init+0x3ae>
2ffec930:	f44f 6300 	mov.w	r3, #2048	@ 0x800
2ffec934:	60e3      	str	r3, [r4, #12]
2ffec936:	f007 fe1e 	bl	2fff4576 <stm32mp_rcc_base>
2ffec93a:	2210      	movs	r2, #16
2ffec93c:	f640 0108 	movw	r1, #2056	@ 0x808
2ffec940:	60c2      	str	r2, [r0, #12]
2ffec942:	2001      	movs	r0, #1
2ffec944:	f7ff fda0 	bl	2ffec488 <stm32mp1_osc_wait.isra.0>
2ffec948:	f04f 6180 	mov.w	r1, #67108864	@ 0x4000000
2ffec94c:	4650      	mov	r0, sl
2ffec94e:	f7ff fbfb 	bl	2ffec148 <stm32_clk_configure_mux>
2ffec952:	4604      	mov	r4, r0
2ffec954:	2800      	cmp	r0, #0
2ffec956:	d18a      	bne.n	2ffec86e <stm32mp1_clk_init+0x2e6>
2ffec958:	494b      	ldr	r1, [pc, #300]	@ (2ffeca88 <stm32mp1_clk_init+0x500>)
2ffec95a:	4650      	mov	r0, sl
2ffec95c:	f7ff fbf4 	bl	2ffec148 <stm32_clk_configure_mux>
2ffec960:	4604      	mov	r4, r0
2ffec962:	2800      	cmp	r0, #0
2ffec964:	d183      	bne.n	2ffec86e <stm32mp1_clk_init+0x2e6>
2ffec966:	4949      	ldr	r1, [pc, #292]	@ (2ffeca8c <stm32mp1_clk_init+0x504>)
2ffec968:	4650      	mov	r0, sl
2ffec96a:	f7ff fbed 	bl	2ffec148 <stm32_clk_configure_mux>
2ffec96e:	4604      	mov	r4, r0
2ffec970:	2800      	cmp	r0, #0
2ffec972:	f47f af7c 	bne.w	2ffec86e <stm32mp1_clk_init+0x2e6>
2ffec976:	f8da 3000 	ldr.w	r3, [sl]
2ffec97a:	f8d3 5408 	ldr.w	r5, [r3, #1032]	@ 0x408
2ffec97e:	f415 5500 	ands.w	r5, r5, #8192	@ 0x2000
2ffec982:	d043      	beq.n	2ffeca0c <stm32mp1_clk_init+0x484>
2ffec984:	f8db 3088 	ldr.w	r3, [fp, #136]	@ 0x88
2ffec988:	f10b 0270 	add.w	r2, fp, #112	@ 0x70
2ffec98c:	f8db 106c 	ldr.w	r1, [fp, #108]	@ 0x6c
2ffec990:	2002      	movs	r0, #2
2ffec992:	f7ff fa3d 	bl	2ffebe10 <stm32mp1_check_pll_conf>
2ffec996:	9002      	str	r0, [sp, #8]
2ffec998:	f10b 02a4 	add.w	r2, fp, #164	@ 0xa4
2ffec99c:	f8db 30bc 	ldr.w	r3, [fp, #188]	@ 0xbc
2ffec9a0:	2003      	movs	r0, #3
2ffec9a2:	f8db 10a0 	ldr.w	r1, [fp, #160]	@ 0xa0
2ffec9a6:	f7ff fa33 	bl	2ffebe10 <stm32mp1_check_pll_conf>
2ffec9aa:	4605      	mov	r5, r0
2ffec9ac:	f004 fe06 	bl	2fff15bc <stm32mp_get_boot_itf_selected>
2ffec9b0:	2806      	cmp	r0, #6
2ffec9b2:	d105      	bne.n	2ffec9c0 <stm32mp1_clk_init+0x438>
2ffec9b4:	9b10      	ldr	r3, [sp, #64]	@ 0x40
2ffec9b6:	2b16      	cmp	r3, #22
2ffec9b8:	d02a      	beq.n	2ffeca10 <stm32mp1_clk_init+0x488>
2ffec9ba:	9b11      	ldr	r3, [sp, #68]	@ 0x44
2ffec9bc:	2b16      	cmp	r3, #22
2ffec9be:	d027      	beq.n	2ffeca10 <stm32mp1_clk_init+0x488>
2ffec9c0:	2300      	movs	r3, #0
2ffec9c2:	9301      	str	r3, [sp, #4]
2ffec9c4:	4b32      	ldr	r3, [pc, #200]	@ (2ffeca90 <stm32mp1_clk_init+0x508>)
2ffec9c6:	2400      	movs	r4, #0
2ffec9c8:	9306      	str	r3, [sp, #24]
2ffec9ca:	4698      	mov	r8, r3
2ffec9cc:	2c02      	cmp	r4, #2
2ffec9ce:	d122      	bne.n	2ffeca16 <stm32mp1_clk_init+0x48e>
2ffec9d0:	9b02      	ldr	r3, [sp, #8]
2ffec9d2:	b323      	cbz	r3, 2ffeca1e <stm32mp1_clk_init+0x496>
2ffec9d4:	3401      	adds	r4, #1
2ffec9d6:	f108 0820 	add.w	r8, r8, #32
2ffec9da:	2c04      	cmp	r4, #4
2ffec9dc:	d1f6      	bne.n	2ffec9cc <stm32mp1_clk_init+0x444>
2ffec9de:	4b2d      	ldr	r3, [pc, #180]	@ (2ffeca94 <stm32mp1_clk_init+0x50c>)
2ffec9e0:	681b      	ldr	r3, [r3, #0]
2ffec9e2:	2b00      	cmp	r3, #0
2ffec9e4:	f000 808b 	beq.w	2ffecafe <stm32mp1_clk_init+0x576>
2ffec9e8:	4a2b      	ldr	r2, [pc, #172]	@ (2ffeca98 <stm32mp1_clk_init+0x510>)
2ffec9ea:	4293      	cmp	r3, r2
2ffec9ec:	f000 8082 	beq.w	2ffecaf4 <stm32mp1_clk_init+0x56c>
2ffec9f0:	4a2a      	ldr	r2, [pc, #168]	@ (2ffeca9c <stm32mp1_clk_init+0x514>)
2ffec9f2:	4293      	cmp	r3, r2
2ffec9f4:	d05c      	beq.n	2ffecab0 <stm32mp1_clk_init+0x528>
2ffec9f6:	4a2a      	ldr	r2, [pc, #168]	@ (2ffecaa0 <stm32mp1_clk_init+0x518>)
2ffec9f8:	4293      	cmp	r3, r2
2ffec9fa:	f000 812e 	beq.w	2ffecc5a <stm32mp1_clk_init+0x6d2>
2ffec9fe:	4a29      	ldr	r2, [pc, #164]	@ (2ffecaa4 <stm32mp1_clk_init+0x51c>)
2ffeca00:	4293      	cmp	r3, r2
2ffeca02:	f000 812c 	beq.w	2ffecc5e <stm32mp1_clk_init+0x6d6>
2ffeca06:	f04f 34ff 	mov.w	r4, #4294967295	@ 0xffffffff
2ffeca0a:	e730      	b.n	2ffec86e <stm32mp1_clk_init+0x2e6>
2ffeca0c:	9502      	str	r5, [sp, #8]
2ffeca0e:	e7cd      	b.n	2ffec9ac <stm32mp1_clk_init+0x424>
2ffeca10:	2501      	movs	r5, #1
2ffeca12:	9501      	str	r5, [sp, #4]
2ffeca14:	e7d6      	b.n	2ffec9c4 <stm32mp1_clk_init+0x43c>
2ffeca16:	2c03      	cmp	r4, #3
2ffeca18:	d101      	bne.n	2ffeca1e <stm32mp1_clk_init+0x496>
2ffeca1a:	2d00      	cmp	r5, #0
2ffeca1c:	d1da      	bne.n	2ffec9d4 <stm32mp1_clk_init+0x44c>
2ffeca1e:	f007 fdaa 	bl	2fff4576 <stm32mp_rcc_base>
2ffeca22:	f8b8 300c 	ldrh.w	r3, [r8, #12]
2ffeca26:	581a      	ldr	r2, [r3, r0]
2ffeca28:	eb03 0900 	add.w	r9, r3, r0
2ffeca2c:	f022 0270 	bic.w	r2, r2, #112	@ 0x70
2ffeca30:	501a      	str	r2, [r3, r0]
2ffeca32:	581a      	ldr	r2, [r3, r0]
2ffeca34:	f022 0201 	bic.w	r2, r2, #1
2ffeca38:	501a      	str	r2, [r3, r0]
2ffeca3a:	ee1e 0f10 	mrc	15, 0, r0, cr14, cr0, {0}
2ffeca3e:	ec53 2f0e 	mrrc	15, 0, r2, r3, cr14
2ffeca42:	4919      	ldr	r1, [pc, #100]	@ (2ffecaa8 <stm32mp1_clk_init+0x520>)
2ffeca44:	e9cd 2304 	strd	r2, r3, [sp, #16]
2ffeca48:	9e04      	ldr	r6, [sp, #16]
2ffeca4a:	2300      	movs	r3, #0
2ffeca4c:	4a17      	ldr	r2, [pc, #92]	@ (2ffecaac <stm32mp1_clk_init+0x524>)
2ffeca4e:	fba0 0101 	umull	r0, r1, r0, r1
2ffeca52:	f006 ea32 	blx	2fff2eb8 <__aeabi_uldivmod>
2ffeca56:	9b05      	ldr	r3, [sp, #20]
2ffeca58:	1980      	adds	r0, r0, r6
2ffeca5a:	eb41 0103 	adc.w	r1, r1, r3
2ffeca5e:	f8d9 3000 	ldr.w	r3, [r9]
2ffeca62:	079f      	lsls	r7, r3, #30
2ffeca64:	d5b6      	bpl.n	2ffec9d4 <stm32mp1_clk_init+0x44c>
2ffeca66:	ec53 2f0e 	mrrc	15, 0, r2, r3, cr14
2ffeca6a:	4290      	cmp	r0, r2
2ffeca6c:	eb71 0303 	sbcs.w	r3, r1, r3
2ffeca70:	d2f5      	bcs.n	2ffeca5e <stm32mp1_clk_init+0x4d6>
2ffeca72:	f06f 043b 	mvn.w	r4, #59	@ 0x3b
2ffeca76:	e6fa      	b.n	2ffec86e <stm32mp1_clk_init+0x2e6>
2ffeca78:	2fffa0a8 	.word	0x2fffa0a8
2ffeca7c:	2fff7207 	.word	0x2fff7207
2ffeca80:	2fff7211 	.word	0x2fff7211
2ffeca84:	2fff721e 	.word	0x2fff721e
2ffeca88:	04000010 	.word	0x04000010
2ffeca8c:	04000020 	.word	0x04000020
2ffeca90:	2fff527c 	.word	0x2fff527c
2ffeca94:	2fffb708 	.word	0x2fffb708
2ffeca98:	03d09000 	.word	0x03d09000
2ffeca9c:	01e84800 	.word	0x01e84800
2ffecaa0:	00f42400 	.word	0x00f42400
2ffecaa4:	007a1200 	.word	0x007a1200
2ffecaa8:	00030d40 	.word	0x00030d40
2ffecaac:	000f4240 	.word	0x000f4240
2ffecab0:	2601      	movs	r6, #1
2ffecab2:	f007 fd60 	bl	2fff4576 <stm32mp_rcc_base>
2ffecab6:	6983      	ldr	r3, [r0, #24]
2ffecab8:	4604      	mov	r4, r0
2ffecaba:	f600 0808 	addw	r8, r0, #2056	@ 0x808
2ffecabe:	f023 0303 	bic.w	r3, r3, #3
2ffecac2:	4333      	orrs	r3, r6
2ffecac4:	6183      	str	r3, [r0, #24]
2ffecac6:	ee1e 1f10 	mrc	15, 0, r1, cr14, cr0, {0}
2ffecaca:	ec53 2f0e 	mrrc	15, 0, r2, r3, cr14
2ffecace:	4882      	ldr	r0, [pc, #520]	@ (2ffeccd8 <stm32mp1_clk_init+0x750>)
2ffecad0:	e9cd 2304 	strd	r2, r3, [sp, #16]
2ffecad4:	9e04      	ldr	r6, [sp, #16]
2ffecad6:	2300      	movs	r3, #0
2ffecad8:	4a80      	ldr	r2, [pc, #512]	@ (2ffeccdc <stm32mp1_clk_init+0x754>)
2ffecada:	fba1 0100 	umull	r0, r1, r1, r0
2ffecade:	f006 e9ec 	blx	2fff2eb8 <__aeabi_uldivmod>
2ffecae2:	9b05      	ldr	r3, [sp, #20]
2ffecae4:	1980      	adds	r0, r0, r6
2ffecae6:	eb41 0103 	adc.w	r1, r1, r3
2ffecaea:	f8d8 3000 	ldr.w	r3, [r8]
2ffecaee:	075e      	lsls	r6, r3, #29
2ffecaf0:	f140 80b7 	bpl.w	2ffecc62 <stm32mp1_clk_init+0x6da>
2ffecaf4:	2080      	movs	r0, #128	@ 0x80
2ffecaf6:	f7ff fbc5 	bl	2ffec284 <stm32mp_clk_get_rate>
2ffecafa:	f000 fbb7 	bl	2ffed26c <stm32mp_stgen_config>
2ffecafe:	f8da 7014 	ldr.w	r7, [sl, #20]
2ffecb02:	2600      	movs	r6, #0
2ffecb04:	693b      	ldr	r3, [r7, #16]
2ffecb06:	429e      	cmp	r6, r3
2ffecb08:	f0c0 80b9 	bcc.w	2ffecc7e <stm32mp1_clk_init+0x6f6>
2ffecb0c:	2100      	movs	r1, #0
2ffecb0e:	4650      	mov	r0, sl
2ffecb10:	f006 feee 	bl	2fff38f0 <stm32mp1_pll_configure_src>
2ffecb14:	4604      	mov	r4, r0
2ffecb16:	2800      	cmp	r0, #0
2ffecb18:	f47f aea9 	bne.w	2ffec86e <stm32mp1_clk_init+0x2e6>
2ffecb1c:	9b02      	ldr	r3, [sp, #8]
2ffecb1e:	2b00      	cmp	r3, #0
2ffecb20:	f000 80bc 	beq.w	2ffecc9c <stm32mp1_clk_init+0x714>
2ffecb24:	b935      	cbnz	r5, 2ffecb34 <stm32mp1_clk_init+0x5ac>
2ffecb26:	2103      	movs	r1, #3
2ffecb28:	4650      	mov	r0, sl
2ffecb2a:	f006 fee1 	bl	2fff38f0 <stm32mp1_pll_configure_src>
2ffecb2e:	2800      	cmp	r0, #0
2ffecb30:	f040 80bb 	bne.w	2ffeccaa <stm32mp1_clk_init+0x722>
2ffecb34:	4e6a      	ldr	r6, [pc, #424]	@ (2ffecce0 <stm32mp1_clk_init+0x758>)
2ffecb36:	f10b 0808 	add.w	r8, fp, #8
2ffecb3a:	2700      	movs	r7, #0
2ffecb3c:	2f02      	cmp	r7, #2
2ffecb3e:	f040 80b6 	bne.w	2ffeccae <stm32mp1_clk_init+0x726>
2ffecb42:	9b02      	ldr	r3, [sp, #8]
2ffecb44:	2b00      	cmp	r3, #0
2ffecb46:	f000 80b9 	beq.w	2ffeccbc <stm32mp1_clk_init+0x734>
2ffecb4a:	3701      	adds	r7, #1
2ffecb4c:	3620      	adds	r6, #32
2ffecb4e:	2f04      	cmp	r7, #4
2ffecb50:	f108 0834 	add.w	r8, r8, #52	@ 0x34
2ffecb54:	d1f2      	bne.n	2ffecb3c <stm32mp1_clk_init+0x5b4>
2ffecb56:	2500      	movs	r5, #0
2ffecb58:	f10b 031c 	add.w	r3, fp, #28
2ffecb5c:	9307      	str	r3, [sp, #28]
2ffecb5e:	f81b 3025 	ldrb.w	r3, [fp, r5, lsl #2]
2ffecb62:	b33b      	cbz	r3, 2ffecbb4 <stm32mp1_clk_init+0x62c>
2ffecb64:	9b07      	ldr	r3, [sp, #28]
2ffecb66:	f853 3025 	ldr.w	r3, [r3, r5, lsl #2]
2ffecb6a:	4699      	mov	r9, r3
2ffecb6c:	f007 fd03 	bl	2fff4576 <stm32mp_rcc_base>
2ffecb70:	9b06      	ldr	r3, [sp, #24]
2ffecb72:	4606      	mov	r6, r0
2ffecb74:	899f      	ldrh	r7, [r3, #12]
2ffecb76:	183b      	adds	r3, r7, r0
2ffecb78:	9304      	str	r3, [sp, #16]
2ffecb7a:	ee1e 0f10 	mrc	15, 0, r0, cr14, cr0, {0}
2ffecb7e:	ec53 2f0e 	mrrc	15, 0, r2, r3, cr14
2ffecb82:	4955      	ldr	r1, [pc, #340]	@ (2ffeccd8 <stm32mp1_clk_init+0x750>)
2ffecb84:	e9cd 2302 	strd	r2, r3, [sp, #8]
2ffecb88:	f8dd 8008 	ldr.w	r8, [sp, #8]
2ffecb8c:	2300      	movs	r3, #0
2ffecb8e:	4a53      	ldr	r2, [pc, #332]	@ (2ffeccdc <stm32mp1_clk_init+0x754>)
2ffecb90:	fba0 0101 	umull	r0, r1, r0, r1
2ffecb94:	f006 e990 	blx	2fff2eb8 <__aeabi_uldivmod>
2ffecb98:	9b03      	ldr	r3, [sp, #12]
2ffecb9a:	eb10 0008 	adds.w	r0, r0, r8
2ffecb9e:	eb41 0103 	adc.w	r1, r1, r3
2ffecba2:	9b04      	ldr	r3, [sp, #16]
2ffecba4:	681b      	ldr	r3, [r3, #0]
2ffecba6:	079a      	lsls	r2, r3, #30
2ffecba8:	f140 811d 	bpl.w	2ffecde6 <stm32mp1_clk_init+0x85e>
2ffecbac:	59bb      	ldr	r3, [r7, r6]
2ffecbae:	ea43 1309 	orr.w	r3, r3, r9, lsl #4
2ffecbb2:	51bb      	str	r3, [r7, r6]
2ffecbb4:	9b06      	ldr	r3, [sp, #24]
2ffecbb6:	350d      	adds	r5, #13
2ffecbb8:	2d34      	cmp	r5, #52	@ 0x34
2ffecbba:	f103 0320 	add.w	r3, r3, #32
2ffecbbe:	9306      	str	r3, [sp, #24]
2ffecbc0:	d1cd      	bne.n	2ffecb5e <stm32mp1_clk_init+0x5d6>
2ffecbc2:	f8df 8120 	ldr.w	r8, [pc, #288]	@ 2ffecce4 <stm32mp1_clk_init+0x75c>
2ffecbc6:	f8d8 3010 	ldr.w	r3, [r8, #16]
2ffecbca:	b12b      	cbz	r3, 2ffecbd8 <stm32mp1_clk_init+0x650>
2ffecbcc:	2204      	movs	r2, #4
2ffecbce:	f44f 71a0 	mov.w	r1, #320	@ 0x140
2ffecbd2:	2001      	movs	r0, #1
2ffecbd4:	f7ff fc58 	bl	2ffec488 <stm32mp1_osc_wait.isra.0>
2ffecbd8:	9b01      	ldr	r3, [sp, #4]
2ffecbda:	2b00      	cmp	r3, #0
2ffecbdc:	f000 810b 	beq.w	2ffecdf6 <stm32mp1_clk_init+0x86e>
2ffecbe0:	f8da 3000 	ldr.w	r3, [sl]
2ffecbe4:	f8d3 791c 	ldr.w	r7, [r3, #2332]	@ 0x91c
2ffecbe8:	f8da 9014 	ldr.w	r9, [sl, #20]
2ffecbec:	f04f 0b00 	mov.w	fp, #0
2ffecbf0:	f8cd b008 	str.w	fp, [sp, #8]
2ffecbf4:	f8d9 2008 	ldr.w	r2, [r9, #8]
2ffecbf8:	4593      	cmp	fp, r2
2ffecbfa:	f0c0 80fe 	bcc.w	2ffecdfa <stm32mp1_clk_init+0x872>
2ffecbfe:	9b02      	ldr	r3, [sp, #8]
2ffecc00:	b133      	cbz	r3, 2ffecc10 <stm32mp1_clk_init+0x688>
2ffecc02:	4939      	ldr	r1, [pc, #228]	@ (2ffecce8 <stm32mp1_clk_init+0x760>)
2ffecc04:	4650      	mov	r0, sl
2ffecc06:	f7ff fa9f 	bl	2ffec148 <stm32_clk_configure_mux>
2ffecc0a:	2800      	cmp	r0, #0
2ffecc0c:	f47f ace0 	bne.w	2ffec5d0 <stm32mp1_clk_init+0x48>
2ffecc10:	9b01      	ldr	r3, [sp, #4]
2ffecc12:	b143      	cbz	r3, 2ffecc26 <stm32mp1_clk_init+0x69e>
2ffecc14:	f8da 3000 	ldr.w	r3, [sl]
2ffecc18:	f8d3 391c 	ldr.w	r3, [r3, #2332]	@ 0x91c
2ffecc1c:	405f      	eors	r7, r3
2ffecc1e:	f017 0f13 	tst.w	r7, #19
2ffecc22:	f040 813f 	bne.w	2ffecea4 <stm32mp1_clk_init+0x91c>
2ffecc26:	f8d8 5000 	ldr.w	r5, [r8]
2ffecc2a:	b945      	cbnz	r5, 2ffecc3e <stm32mp1_clk_init+0x6b6>
2ffecc2c:	f007 fca3 	bl	2fff4576 <stm32mp_rcc_base>
2ffecc30:	2201      	movs	r2, #1
2ffecc32:	f640 0108 	movw	r1, #2056	@ 0x808
2ffecc36:	6102      	str	r2, [r0, #16]
2ffecc38:	4628      	mov	r0, r5
2ffecc3a:	f7ff fc25 	bl	2ffec488 <stm32mp1_osc_wait.isra.0>
2ffecc3e:	2080      	movs	r0, #128	@ 0x80
2ffecc40:	f7ff fb20 	bl	2ffec284 <stm32mp_clk_get_rate>
2ffecc44:	f000 fb12 	bl	2ffed26c <stm32mp_stgen_config>
2ffecc48:	f8da 2000 	ldr.w	r2, [sl]
2ffecc4c:	f8d2 30d8 	ldr.w	r3, [r2, #216]	@ 0xd8
2ffecc50:	f423 03e0 	bic.w	r3, r3, #7340032	@ 0x700000
2ffecc54:	f8c2 30d8 	str.w	r3, [r2, #216]	@ 0xd8
2ffecc58:	e609      	b.n	2ffec86e <stm32mp1_clk_init+0x2e6>
2ffecc5a:	2602      	movs	r6, #2
2ffecc5c:	e729      	b.n	2ffecab2 <stm32mp1_clk_init+0x52a>
2ffecc5e:	2603      	movs	r6, #3
2ffecc60:	e727      	b.n	2ffecab2 <stm32mp1_clk_init+0x52a>
2ffecc62:	ec53 2f0e 	mrrc	15, 0, r2, r3, cr14
2ffecc66:	4290      	cmp	r0, r2
2ffecc68:	eb71 0303 	sbcs.w	r3, r1, r3
2ffecc6c:	f4bf af3d 	bcs.w	2ffecaea <stm32mp1_clk_init+0x562>
2ffecc70:	f8d4 2808 	ldr.w	r2, [r4, #2056]	@ 0x808
2ffecc74:	4641      	mov	r1, r8
2ffecc76:	481d      	ldr	r0, [pc, #116]	@ (2ffeccec <stm32mp1_clk_init+0x764>)
2ffecc78:	f7fd fad8 	bl	2ffea22c <tf_log>
2ffecc7c:	e6f9      	b.n	2ffeca72 <stm32mp1_clk_init+0x4ea>
2ffecc7e:	697b      	ldr	r3, [r7, #20]
2ffecc80:	4650      	mov	r0, sl
2ffecc82:	f853 1026 	ldr.w	r1, [r3, r6, lsl #2]
2ffecc86:	b2ca      	uxtb	r2, r1
2ffecc88:	f3c1 2107 	ubfx	r1, r1, #8, #8
2ffecc8c:	f7ff fc26 	bl	2ffec4dc <clk_stm32_set_div>
2ffecc90:	4604      	mov	r4, r0
2ffecc92:	2800      	cmp	r0, #0
2ffecc94:	f47f adeb 	bne.w	2ffec86e <stm32mp1_clk_init+0x2e6>
2ffecc98:	3601      	adds	r6, #1
2ffecc9a:	e733      	b.n	2ffecb04 <stm32mp1_clk_init+0x57c>
2ffecc9c:	2102      	movs	r1, #2
2ffecc9e:	4650      	mov	r0, sl
2ffecca0:	f006 fe26 	bl	2fff38f0 <stm32mp1_pll_configure_src>
2ffecca4:	2800      	cmp	r0, #0
2ffecca6:	f43f af3d 	beq.w	2ffecb24 <stm32mp1_clk_init+0x59c>
2ffeccaa:	4604      	mov	r4, r0
2ffeccac:	e5df      	b.n	2ffec86e <stm32mp1_clk_init+0x2e6>
2ffeccae:	2f03      	cmp	r7, #3
2ffeccb0:	d104      	bne.n	2ffeccbc <stm32mp1_clk_init+0x734>
2ffeccb2:	b11d      	cbz	r5, 2ffeccbc <stm32mp1_clk_init+0x734>
2ffeccb4:	9b01      	ldr	r3, [sp, #4]
2ffeccb6:	2b00      	cmp	r3, #0
2ffeccb8:	f43f af47 	beq.w	2ffecb4a <stm32mp1_clk_init+0x5c2>
2ffeccbc:	f818 3c08 	ldrb.w	r3, [r8, #-8]
2ffeccc0:	2b00      	cmp	r3, #0
2ffeccc2:	f43f af42 	beq.w	2ffecb4a <stm32mp1_clk_init+0x5c2>
2ffeccc6:	2f03      	cmp	r7, #3
2ffeccc8:	d112      	bne.n	2ffeccf0 <stm32mp1_clk_init+0x768>
2ffeccca:	9b01      	ldr	r3, [sp, #4]
2ffecccc:	b183      	cbz	r3, 2ffeccf0 <stm32mp1_clk_init+0x768>
2ffeccce:	4641      	mov	r1, r8
2ffeccd0:	4638      	mov	r0, r7
2ffeccd2:	f7ff f91b 	bl	2ffebf0c <stm32mp1_pll_config_output>
2ffeccd6:	e738      	b.n	2ffecb4a <stm32mp1_clk_init+0x5c2>
2ffeccd8:	00030d40 	.word	0x00030d40
2ffeccdc:	000f4240 	.word	0x000f4240
2ffecce0:	2fff527c 	.word	0x2fff527c
2ffecce4:	2fffb708 	.word	0x2fffb708
2ffecce8:	04000063 	.word	0x04000063
2ffeccec:	2fff722e 	.word	0x2fff722e
2ffeccf0:	f8d8 3018 	ldr.w	r3, [r8, #24]
2ffeccf4:	f8df 91b4 	ldr.w	r9, [pc, #436]	@ 2ffeceac <stm32mp1_clk_init+0x924>
2ffeccf8:	9304      	str	r3, [sp, #16]
2ffeccfa:	f007 fc3c 	bl	2fff4576 <stm32mp_rcc_base>
2ffeccfe:	88b3      	ldrh	r3, [r6, #4]
2ffecd00:	4a6b      	ldr	r2, [pc, #428]	@ (2ffeceb0 <stm32mp1_clk_init+0x928>)
2ffecd02:	581b      	ldr	r3, [r3, r0]
2ffecd04:	6831      	ldr	r1, [r6, #0]
2ffecd06:	f8df e1ac 	ldr.w	lr, [pc, #428]	@ 2ffeceb4 <stm32mp1_clk_init+0x92c>
2ffecd0a:	f003 0303 	and.w	r3, r3, #3
2ffecd0e:	eb03 03c7 	add.w	r3, r3, r7, lsl #3
2ffecd12:	3304      	adds	r3, #4
2ffecd14:	f852 3023 	ldr.w	r3, [r2, r3, lsl #2]
2ffecd18:	2b05      	cmp	r3, #5
2ffecd1a:	bf8e      	itee	hi
2ffecd1c:	2200      	movhi	r2, #0
2ffecd1e:	4a66      	ldrls	r2, [pc, #408]	@ (2ffeceb8 <stm32mp1_clk_init+0x930>)
2ffecd20:	f852 2023 	ldrls.w	r2, [r2, r3, lsl #2]
2ffecd24:	f8d8 3000 	ldr.w	r3, [r8]
2ffecd28:	f103 0c01 	add.w	ip, r3, #1
2ffecd2c:	fbb2 f2fc 	udiv	r2, r2, ip
2ffecd30:	f81e c011 	ldrb.w	ip, [lr, r1, lsl #1]
2ffecd34:	fb09 fc0c 	mul.w	ip, r9, ip
2ffecd38:	4562      	cmp	r2, ip
2ffecd3a:	f4ff ad96 	bcc.w	2ffec86a <stm32mp1_clk_init+0x2e2>
2ffecd3e:	eb0e 0c41 	add.w	ip, lr, r1, lsl #1
2ffecd42:	f89c c001 	ldrb.w	ip, [ip, #1]
2ffecd46:	fb09 fc0c 	mul.w	ip, r9, ip
2ffecd4a:	4562      	cmp	r2, ip
2ffecd4c:	f63f ad8d 	bhi.w	2ffec86a <stm32mp1_clk_init+0x2e2>
2ffecd50:	2900      	cmp	r1, #0
2ffecd52:	d146      	bne.n	2ffecde2 <stm32mp1_clk_init+0x85a>
2ffecd54:	4959      	ldr	r1, [pc, #356]	@ (2ffecebc <stm32mp1_clk_init+0x934>)
2ffecd56:	428a      	cmp	r2, r1
2ffecd58:	bf34      	ite	cc
2ffecd5a:	2100      	movcc	r1, #0
2ffecd5c:	2101      	movcs	r1, #1
2ffecd5e:	f8d8 2004 	ldr.w	r2, [r8, #4]
2ffecd62:	041b      	lsls	r3, r3, #16
2ffecd64:	f3c2 0208 	ubfx	r2, r2, #0, #9
2ffecd68:	f403 137c 	and.w	r3, r3, #4128768	@ 0x3f0000
2ffecd6c:	4313      	orrs	r3, r2
2ffecd6e:	88f2      	ldrh	r2, [r6, #6]
2ffecd70:	ea43 6301 	orr.w	r3, r3, r1, lsl #24
2ffecd74:	4641      	mov	r1, r8
2ffecd76:	5013      	str	r3, [r2, r0]
2ffecd78:	2300      	movs	r3, #0
2ffecd7a:	8972      	ldrh	r2, [r6, #10]
2ffecd7c:	5013      	str	r3, [r2, r0]
2ffecd7e:	9b04      	ldr	r3, [sp, #16]
2ffecd80:	00db      	lsls	r3, r3, #3
2ffecd82:	5013      	str	r3, [r2, r0]
2ffecd84:	f443 3380 	orr.w	r3, r3, #65536	@ 0x10000
2ffecd88:	5013      	str	r3, [r2, r0]
2ffecd8a:	4638      	mov	r0, r7
2ffecd8c:	f7ff f8be 	bl	2ffebf0c <stm32mp1_pll_config_output>
2ffecd90:	f898 301c 	ldrb.w	r3, [r8, #28]
2ffecd94:	b1db      	cbz	r3, 2ffecdce <stm32mp1_clk_init+0x846>
2ffecd96:	f8d8 2024 	ldr.w	r2, [r8, #36]	@ 0x24
2ffecd9a:	4b49      	ldr	r3, [pc, #292]	@ (2ffecec0 <stm32mp1_clk_init+0x938>)
2ffecd9c:	ea03 4302 	and.w	r3, r3, r2, lsl #16
2ffecda0:	f8d8 2028 	ldr.w	r2, [r8, #40]	@ 0x28
2ffecda4:	03d2      	lsls	r2, r2, #15
2ffecda6:	b292      	uxth	r2, r2
2ffecda8:	4313      	orrs	r3, r2
2ffecdaa:	f8d8 2020 	ldr.w	r2, [r8, #32]
2ffecdae:	f3c2 020c 	ubfx	r2, r2, #0, #13
2ffecdb2:	ea43 0902 	orr.w	r9, r3, r2
2ffecdb6:	f007 fbde 	bl	2fff4576 <stm32mp_rcc_base>
2ffecdba:	89f3      	ldrh	r3, [r6, #14]
2ffecdbc:	f843 9000 	str.w	r9, [r3, r0]
2ffecdc0:	f007 fbd9 	bl	2fff4576 <stm32mp_rcc_base>
2ffecdc4:	89b2      	ldrh	r2, [r6, #12]
2ffecdc6:	5813      	ldr	r3, [r2, r0]
2ffecdc8:	f043 0304 	orr.w	r3, r3, #4
2ffecdcc:	5013      	str	r3, [r2, r0]
2ffecdce:	f007 fbd2 	bl	2fff4576 <stm32mp_rcc_base>
2ffecdd2:	89b2      	ldrh	r2, [r6, #12]
2ffecdd4:	5813      	ldr	r3, [r2, r0]
2ffecdd6:	f023 0370 	bic.w	r3, r3, #112	@ 0x70
2ffecdda:	f043 0301 	orr.w	r3, r3, #1
2ffecdde:	5013      	str	r3, [r2, r0]
2ffecde0:	e6b3      	b.n	2ffecb4a <stm32mp1_clk_init+0x5c2>
2ffecde2:	2100      	movs	r1, #0
2ffecde4:	e7bb      	b.n	2ffecd5e <stm32mp1_clk_init+0x7d6>
2ffecde6:	ec53 2f0e 	mrrc	15, 0, r2, r3, cr14
2ffecdea:	4290      	cmp	r0, r2
2ffecdec:	eb71 0303 	sbcs.w	r3, r1, r3
2ffecdf0:	f4bf aed7 	bcs.w	2ffecba2 <stm32mp1_clk_init+0x61a>
2ffecdf4:	e63d      	b.n	2ffeca72 <stm32mp1_clk_init+0x4ea>
2ffecdf6:	9f01      	ldr	r7, [sp, #4]
2ffecdf8:	e6f6      	b.n	2ffecbe8 <stm32mp1_clk_init+0x660>
2ffecdfa:	f8d9 200c 	ldr.w	r2, [r9, #12]
2ffecdfe:	f852 502b 	ldr.w	r5, [r2, fp, lsl #2]
2ffece02:	2d00      	cmp	r5, #0
2ffece04:	da0a      	bge.n	2ffece1c <stm32mp1_clk_init+0x894>
2ffece06:	f3c5 410e 	ubfx	r1, r5, #16, #15
2ffece0a:	b2ad      	uxth	r5, r5
2ffece0c:	f8da 2000 	ldr.w	r2, [sl]
2ffece10:	5888      	ldr	r0, [r1, r2]
2ffece12:	4305      	orrs	r5, r0
2ffece14:	508d      	str	r5, [r1, r2]
2ffece16:	f10b 0b01 	add.w	fp, fp, #1
2ffece1a:	e6eb      	b.n	2ffecbf4 <stm32mp1_clk_init+0x66c>
2ffece1c:	4b29      	ldr	r3, [pc, #164]	@ (2ffecec4 <stm32mp1_clk_init+0x93c>)
2ffece1e:	429d      	cmp	r5, r3
2ffece20:	d03d      	beq.n	2ffece9e <stm32mp1_clk_init+0x916>
2ffece22:	0eaa      	lsrs	r2, r5, #26
2ffece24:	f025 467c 	bic.w	r6, r5, #4227858432	@ 0xfc000000
2ffece28:	2a01      	cmp	r2, #1
2ffece2a:	d030      	beq.n	2ffece8e <stm32mp1_clk_init+0x906>
2ffece2c:	2a02      	cmp	r2, #2
2ffece2e:	f47f abcf 	bne.w	2ffec5d0 <stm32mp1_clk_init+0x48>
2ffece32:	4a25      	ldr	r2, [pc, #148]	@ (2ffecec8 <stm32mp1_clk_init+0x940>)
2ffece34:	402a      	ands	r2, r5
2ffece36:	f5b2 2fc0 	cmp.w	r2, #393216	@ 0x60000
2ffece3a:	d1ec      	bne.n	2ffece16 <stm32mp1_clk_init+0x88e>
2ffece3c:	f8da 2014 	ldr.w	r2, [sl, #20]
2ffece40:	9206      	str	r2, [sp, #24]
2ffece42:	f007 fb98 	bl	2fff4576 <stm32mp_rcc_base>
2ffece46:	f8d0 1140 	ldr.w	r1, [r0, #320]	@ 0x140
2ffece4a:	9a06      	ldr	r2, [sp, #24]
2ffece4c:	f411 1f80 	tst.w	r1, #1048576	@ 0x100000
2ffece50:	d001      	beq.n	2ffece56 <stm32mp1_clk_init+0x8ce>
2ffece52:	056b      	lsls	r3, r5, #21
2ffece54:	d5df      	bpl.n	2ffece16 <stm32mp1_clk_init+0x88e>
2ffece56:	f8d0 5140 	ldr.w	r5, [r0, #320]	@ 0x140
2ffece5a:	0436      	lsls	r6, r6, #16
2ffece5c:	f425 3540 	bic.w	r5, r5, #196608	@ 0x30000
2ffece60:	f406 26e0 	and.w	r6, r6, #458752	@ 0x70000
2ffece64:	432e      	orrs	r6, r5
2ffece66:	f8c0 6140 	str.w	r6, [r0, #320]	@ 0x140
2ffece6a:	f8d0 1140 	ldr.w	r1, [r0, #320]	@ 0x140
2ffece6e:	7e12      	ldrb	r2, [r2, #24]
2ffece70:	f441 1180 	orr.w	r1, r1, #1048576	@ 0x100000
2ffece74:	f8c0 1140 	str.w	r1, [r0, #320]	@ 0x140
2ffece78:	2a00      	cmp	r2, #0
2ffece7a:	d0cc      	beq.n	2ffece16 <stm32mp1_clk_init+0x88e>
2ffece7c:	f8da 1000 	ldr.w	r1, [sl]
2ffece80:	f8d1 2140 	ldr.w	r2, [r1, #320]	@ 0x140
2ffece84:	f442 7280 	orr.w	r2, r2, #256	@ 0x100
2ffece88:	f8c1 2140 	str.w	r2, [r1, #320]	@ 0x140
2ffece8c:	e7c3      	b.n	2ffece16 <stm32mp1_clk_init+0x88e>
2ffece8e:	4631      	mov	r1, r6
2ffece90:	4650      	mov	r0, sl
2ffece92:	f7ff f959 	bl	2ffec148 <stm32_clk_configure_mux>
2ffece96:	2800      	cmp	r0, #0
2ffece98:	d0bd      	beq.n	2ffece16 <stm32mp1_clk_init+0x88e>
2ffece9a:	f7ff bb99 	b.w	2ffec5d0 <stm32mp1_clk_init+0x48>
2ffece9e:	2301      	movs	r3, #1
2ffecea0:	9302      	str	r3, [sp, #8]
2ffecea2:	e7b8      	b.n	2ffece16 <stm32mp1_clk_init+0x88e>
2ffecea4:	f06f 040e 	mvn.w	r4, #14
2ffecea8:	e4e1      	b.n	2ffec86e <stm32mp1_clk_init+0x2e6>
2ffeceaa:	bf00      	nop
2ffeceac:	000f4240 	.word	0x000f4240
2ffeceb0:	2fff527c 	.word	0x2fff527c
2ffeceb4:	2fff8f84 	.word	0x2fff8f84
2ffeceb8:	2fffb708 	.word	0x2fffb708
2ffecebc:	007a1200 	.word	0x007a1200
2ffecec0:	7fff0000 	.word	0x7fff0000
2ffecec4:	04000063 	.word	0x04000063
2ffecec8:	000ff800 	.word	0x000ff800

2ffececc <stm32mp1_clk_probe>:
2ffececc:	e92d 4ff0 	stmdb	sp!, {r4, r5, r6, r7, r8, r9, sl, fp, lr}
2ffeced0:	2400      	movs	r4, #0
2ffeced2:	4d70      	ldr	r5, [pc, #448]	@ (2ffed094 <stm32mp1_clk_probe+0x1c8>)
2ffeced4:	b099      	sub	sp, #100	@ 0x64
2ffeced6:	4e70      	ldr	r6, [pc, #448]	@ (2ffed098 <stm32mp1_clk_probe+0x1cc>)
2ffeced8:	f855 0b04 	ldr.w	r0, [r5], #4
2ffecedc:	a908      	add	r1, sp, #32
2ffecede:	f000 f8ff 	bl	2ffed0e0 <fdt_osc_read_freq>
2ffecee2:	b910      	cbnz	r0, 2ffeceea <stm32mp1_clk_probe+0x1e>
2ffecee4:	9b08      	ldr	r3, [sp, #32]
2ffecee6:	f846 3024 	str.w	r3, [r6, r4, lsl #2]
2ffeceea:	3401      	adds	r4, #1
2ffeceec:	2c06      	cmp	r4, #6
2ffeceee:	d1f3      	bne.n	2ffeced8 <stm32mp1_clk_probe+0xc>
2ffecef0:	2500      	movs	r5, #0
2ffecef2:	a807      	add	r0, sp, #28
2ffecef4:	9507      	str	r5, [sp, #28]
2ffecef6:	f004 fd55 	bl	2fff19a4 <fdt_get_address>
2ffecefa:	b928      	cbnz	r0, 2ffecf08 <stm32mp1_clk_probe+0x3c>
2ffecefc:	f06f 0601 	mvn.w	r6, #1
2ffecf00:	4630      	mov	r0, r6
2ffecf02:	b019      	add	sp, #100	@ 0x64
2ffecf04:	e8bd 8ff0 	ldmia.w	sp!, {r4, r5, r6, r7, r8, r9, sl, fp, pc}
2ffecf08:	4a64      	ldr	r2, [pc, #400]	@ (2ffed09c <stm32mp1_clk_probe+0x1d0>)
2ffecf0a:	f04f 31ff 	mov.w	r1, #4294967295	@ 0xffffffff
2ffecf0e:	9807      	ldr	r0, [sp, #28]
2ffecf10:	f007 ffbc 	bl	2fff4e8c <fdt_node_offset_by_compatible>
2ffecf14:	f1b0 0800 	subs.w	r8, r0, #0
2ffecf18:	da03      	bge.n	2ffecf22 <stm32mp1_clk_probe+0x56>
2ffecf1a:	f7fd fc1d 	bl	2ffea758 <console_flush>
2ffecf1e:	f7fc e9aa 	blx	2ffe9274 <el3_panic>
2ffecf22:	9c07      	ldr	r4, [sp, #28]
2ffecf24:	f8df a178 	ldr.w	sl, [pc, #376]	@ 2ffed0a0 <stm32mp1_clk_probe+0x1d4>
2ffecf28:	f8da 3000 	ldr.w	r3, [sl]
2ffecf2c:	429d      	cmp	r5, r3
2ffecf2e:	d336      	bcc.n	2ffecf9e <stm32mp1_clk_probe+0xd2>
2ffecf30:	4c5c      	ldr	r4, [pc, #368]	@ (2ffed0a4 <stm32mp1_clk_probe+0x1d8>)
2ffecf32:	4641      	mov	r1, r8
2ffecf34:	4a5c      	ldr	r2, [pc, #368]	@ (2ffed0a8 <stm32mp1_clk_probe+0x1dc>)
2ffecf36:	9400      	str	r4, [sp, #0]
2ffecf38:	9807      	ldr	r0, [sp, #28]
2ffecf3a:	f8da 3014 	ldr.w	r3, [sl, #20]
2ffecf3e:	f006 fcbc 	bl	2fff38ba <stm32_clk_parse_fdt_by_name>
2ffecf42:	4606      	mov	r6, r0
2ffecf44:	2800      	cmp	r0, #0
2ffecf46:	d1db      	bne.n	2ffecf00 <stm32mp1_clk_probe+0x34>
2ffecf48:	4a58      	ldr	r2, [pc, #352]	@ (2ffed0ac <stm32mp1_clk_probe+0x1e0>)
2ffecf4a:	3c08      	subs	r4, #8
2ffecf4c:	9400      	str	r4, [sp, #0]
2ffecf4e:	4641      	mov	r1, r8
2ffecf50:	f8da 300c 	ldr.w	r3, [sl, #12]
2ffecf54:	9807      	ldr	r0, [sp, #28]
2ffecf56:	f006 fcb0 	bl	2fff38ba <stm32_clk_parse_fdt_by_name>
2ffecf5a:	4606      	mov	r6, r0
2ffecf5c:	2800      	cmp	r0, #0
2ffecf5e:	d1cf      	bne.n	2ffecf00 <stm32mp1_clk_probe+0x34>
2ffecf60:	4b53      	ldr	r3, [pc, #332]	@ (2ffed0b0 <stm32mp1_clk_probe+0x1e4>)
2ffecf62:	ac08      	add	r4, sp, #32
2ffecf64:	4a53      	ldr	r2, [pc, #332]	@ (2ffed0b4 <stm32mp1_clk_probe+0x1e8>)
2ffecf66:	4d54      	ldr	r5, [pc, #336]	@ (2ffed0b8 <stm32mp1_clk_probe+0x1ec>)
2ffecf68:	6013      	str	r3, [r2, #0]
2ffecf6a:	f04f 42a0 	mov.w	r2, #1342177280	@ 0x50000000
2ffecf6e:	601a      	str	r2, [r3, #0]
2ffecf70:	cd0f      	ldmia	r5!, {r0, r1, r2, r3}
2ffecf72:	c40f      	stmia	r4!, {r0, r1, r2, r3}
2ffecf74:	cd0f      	ldmia	r5!, {r0, r1, r2, r3}
2ffecf76:	c40f      	stmia	r4!, {r0, r1, r2, r3}
2ffecf78:	cd0f      	ldmia	r5!, {r0, r1, r2, r3}
2ffecf7a:	c40f      	stmia	r4!, {r0, r1, r2, r3}
2ffecf7c:	e895 000f 	ldmia.w	r5, {r0, r1, r2, r3}
2ffecf80:	4635      	mov	r5, r6
2ffecf82:	e884 000f 	stmia.w	r4, {r0, r1, r2, r3}
2ffecf86:	ac08      	add	r4, sp, #32
2ffecf88:	f854 0b04 	ldr.w	r0, [r4], #4
2ffecf8c:	3501      	adds	r5, #1
2ffecf8e:	f7ff f895 	bl	2ffec0bc <stm32mp_clk_enable>
2ffecf92:	2d10      	cmp	r5, #16
2ffecf94:	d1f8      	bne.n	2ffecf88 <stm32mp1_clk_probe+0xbc>
2ffecf96:	4849      	ldr	r0, [pc, #292]	@ (2ffed0bc <stm32mp1_clk_probe+0x1f0>)
2ffecf98:	f7fd fb58 	bl	2ffea64c <clk_register>
2ffecf9c:	e7b0      	b.n	2ffecf00 <stm32mp1_clk_probe+0x34>
2ffecf9e:	f8da 3004 	ldr.w	r3, [sl, #4]
2ffecfa2:	210c      	movs	r1, #12
2ffecfa4:	4a46      	ldr	r2, [pc, #280]	@ (2ffed0c0 <stm32mp1_clk_probe+0x1f4>)
2ffecfa6:	a808      	add	r0, sp, #32
2ffecfa8:	9303      	str	r3, [sp, #12]
2ffecfaa:	462b      	mov	r3, r5
2ffecfac:	f008 f8a2 	bl	2fff50f4 <snprintf>
2ffecfb0:	aa08      	add	r2, sp, #32
2ffecfb2:	4641      	mov	r1, r8
2ffecfb4:	4620      	mov	r0, r4
2ffecfb6:	f007 fdaf 	bl	2fff4b18 <fdt_subnode_offset>
2ffecfba:	4606      	mov	r6, r0
2ffecfbc:	f004 fcfc 	bl	2fff19b8 <fdt_check_node>
2ffecfc0:	4681      	mov	r9, r0
2ffecfc2:	b908      	cbnz	r0, 2ffecfc8 <stm32mp1_clk_probe+0xfc>
2ffecfc4:	3501      	adds	r5, #1
2ffecfc6:	e7af      	b.n	2ffecf28 <stm32mp1_clk_probe+0x5c>
2ffecfc8:	4a3e      	ldr	r2, [pc, #248]	@ (2ffed0c4 <stm32mp1_clk_probe+0x1f8>)
2ffecfca:	2300      	movs	r3, #0
2ffecfcc:	4631      	mov	r1, r6
2ffecfce:	4620      	mov	r0, r4
2ffecfd0:	f007 fe27 	bl	2fff4c22 <fdt_getprop>
2ffecfd4:	2800      	cmp	r0, #0
2ffecfd6:	d0f5      	beq.n	2ffecfc4 <stm32mp1_clk_probe+0xf8>
2ffecfd8:	6801      	ldr	r1, [r0, #0]
2ffecfda:	4620      	mov	r0, r4
2ffecfdc:	ba09      	rev	r1, r1
2ffecfde:	f007 fede 	bl	2fff4d9e <fdt_node_offset_by_phandle>
2ffecfe2:	1e03      	subs	r3, r0, #0
2ffecfe4:	9304      	str	r3, [sp, #16]
2ffecfe6:	db98      	blt.n	2ffecf1a <stm32mp1_clk_probe+0x4e>
2ffecfe8:	4a37      	ldr	r2, [pc, #220]	@ (2ffed0c8 <stm32mp1_clk_probe+0x1fc>)
2ffecfea:	4601      	mov	r1, r0
2ffecfec:	2300      	movs	r3, #0
2ffecfee:	4620      	mov	r0, r4
2ffecff0:	f007 fe17 	bl	2fff4c22 <fdt_getprop>
2ffecff4:	2800      	cmp	r0, #0
2ffecff6:	d090      	beq.n	2ffecf1a <stm32mp1_clk_probe+0x4e>
2ffecff8:	6801      	ldr	r1, [r0, #0]
2ffecffa:	4620      	mov	r0, r4
2ffecffc:	ba09      	rev	r1, r1
2ffecffe:	f007 fece 	bl	2fff4d9e <fdt_node_offset_by_phandle>
2ffed002:	1e07      	subs	r7, r0, #0
2ffed004:	db89      	blt.n	2ffecf1a <stm32mp1_clk_probe+0x4e>
2ffed006:	4a31      	ldr	r2, [pc, #196]	@ (2ffed0cc <stm32mp1_clk_probe+0x200>)
2ffed008:	2334      	movs	r3, #52	@ 0x34
2ffed00a:	fb03 fb05 	mul.w	fp, r3, r5
2ffed00e:	9b03      	ldr	r3, [sp, #12]
2ffed010:	4639      	mov	r1, r7
2ffed012:	4620      	mov	r0, r4
2ffed014:	eb03 060b 	add.w	r6, r3, fp
2ffed018:	f106 0308 	add.w	r3, r6, #8
2ffed01c:	9300      	str	r3, [sp, #0]
2ffed01e:	2302      	movs	r3, #2
2ffed020:	f7fc ffbc 	bl	2ffe9f9c <fdt_read_uint32_array>
2ffed024:	9005      	str	r0, [sp, #20]
2ffed026:	2800      	cmp	r0, #0
2ffed028:	f47f af77 	bne.w	2ffecf1a <stm32mp1_clk_probe+0x4e>
2ffed02c:	4a28      	ldr	r2, [pc, #160]	@ (2ffed0d0 <stm32mp1_clk_probe+0x204>)
2ffed02e:	f106 0328 	add.w	r3, r6, #40	@ 0x28
2ffed032:	9300      	str	r3, [sp, #0]
2ffed034:	4639      	mov	r1, r7
2ffed036:	2303      	movs	r3, #3
2ffed038:	4620      	mov	r0, r4
2ffed03a:	f7fc ffaf 	bl	2ffe9f9c <fdt_read_uint32_array>
2ffed03e:	b120      	cbz	r0, 2ffed04a <stm32mp1_clk_probe+0x17e>
2ffed040:	3001      	adds	r0, #1
2ffed042:	f47f af6a 	bne.w	2ffecf1a <stm32mp1_clk_probe+0x4e>
2ffed046:	f8dd 9014 	ldr.w	r9, [sp, #20]
2ffed04a:	9a03      	ldr	r2, [sp, #12]
2ffed04c:	2301      	movs	r3, #1
2ffed04e:	f886 9024 	strb.w	r9, [r6, #36]	@ 0x24
2ffed052:	4639      	mov	r1, r7
2ffed054:	f802 300b 	strb.w	r3, [r2, fp]
2ffed058:	4620      	mov	r0, r4
2ffed05a:	4a1e      	ldr	r2, [pc, #120]	@ (2ffed0d4 <stm32mp1_clk_probe+0x208>)
2ffed05c:	2300      	movs	r3, #0
2ffed05e:	f006 fb12 	bl	2fff3686 <fdt_read_uint32_default>
2ffed062:	6230      	str	r0, [r6, #32]
2ffed064:	f04f 33ff 	mov.w	r3, #4294967295	@ 0xffffffff
2ffed068:	4a1b      	ldr	r2, [pc, #108]	@ (2ffed0d8 <stm32mp1_clk_probe+0x20c>)
2ffed06a:	4639      	mov	r1, r7
2ffed06c:	4620      	mov	r0, r4
2ffed06e:	f006 fb0a 	bl	2fff3686 <fdt_read_uint32_default>
2ffed072:	6070      	str	r0, [r6, #4]
2ffed074:	f106 0310 	add.w	r3, r6, #16
2ffed078:	9300      	str	r3, [sp, #0]
2ffed07a:	4620      	mov	r0, r4
2ffed07c:	4a17      	ldr	r2, [pc, #92]	@ (2ffed0dc <stm32mp1_clk_probe+0x210>)
2ffed07e:	2303      	movs	r3, #3
2ffed080:	9904      	ldr	r1, [sp, #16]
2ffed082:	f7fc ff8b 	bl	2ffe9f9c <fdt_read_uint32_array>
2ffed086:	2800      	cmp	r0, #0
2ffed088:	f47f af47 	bne.w	2ffecf1a <stm32mp1_clk_probe+0x4e>
2ffed08c:	2307      	movs	r3, #7
2ffed08e:	61f3      	str	r3, [r6, #28]
2ffed090:	e798      	b.n	2ffecfc4 <stm32mp1_clk_probe+0xf8>
2ffed092:	bf00      	nop
2ffed094:	2fffa0a8 	.word	0x2fffa0a8
2ffed098:	2fffb708 	.word	0x2fffb708
2ffed09c:	2fff724c 	.word	0x2fff724c
2ffed0a0:	2fffa08c 	.word	0x2fffa08c
2ffed0a4:	2fffa09c 	.word	0x2fffa09c
2ffed0a8:	2fff7296 	.word	0x2fff7296
2ffed0ac:	2fff72a0 	.word	0x2fff72a0
2ffed0b0:	2fffa074 	.word	0x2fffa074
2ffed0b4:	2fffb720 	.word	0x2fffb720
2ffed0b8:	2fff5404 	.word	0x2fff5404
2ffed0bc:	2fff5268 	.word	0x2fff5268
2ffed0c0:	2fff725c 	.word	0x2fff725c
2ffed0c4:	2fff7266 	.word	0x2fff7266
2ffed0c8:	2fff726d 	.word	0x2fff726d
2ffed0cc:	2fff7278 	.word	0x2fff7278
2ffed0d0:	2fff727e 	.word	0x2fff727e
2ffed0d4:	2fff7282 	.word	0x2fff7282
2ffed0d8:	2fff72a6 	.word	0x2fff72a6
2ffed0dc:	2fff7287 	.word	0x2fff7287

2ffed0e0 <fdt_osc_read_freq>:
2ffed0e0:	b5f7      	push	{r0, r1, r2, r4, r5, r6, r7, lr}
2ffed0e2:	4607      	mov	r7, r0
2ffed0e4:	4668      	mov	r0, sp
2ffed0e6:	460e      	mov	r6, r1
2ffed0e8:	f004 fc5c 	bl	2fff19a4 <fdt_get_address>
2ffed0ec:	2800      	cmp	r0, #0
2ffed0ee:	d033      	beq.n	2ffed158 <fdt_osc_read_freq+0x78>
2ffed0f0:	491c      	ldr	r1, [pc, #112]	@ (2ffed164 <fdt_osc_read_freq+0x84>)
2ffed0f2:	9800      	ldr	r0, [sp, #0]
2ffed0f4:	f007 fdf0 	bl	2fff4cd8 <fdt_path_offset>
2ffed0f8:	1e01      	subs	r1, r0, #0
2ffed0fa:	db30      	blt.n	2ffed15e <fdt_osc_read_freq+0x7e>
2ffed0fc:	9800      	ldr	r0, [sp, #0]
2ffed0fe:	f007 fc1f 	bl	2fff4940 <fdt_first_subnode>
2ffed102:	2800      	cmp	r0, #0
2ffed104:	4605      	mov	r5, r0
2ffed106:	da02      	bge.n	2ffed10e <fdt_osc_read_freq+0x2e>
2ffed108:	2400      	movs	r4, #0
2ffed10a:	6034      	str	r4, [r6, #0]
2ffed10c:	e006      	b.n	2ffed11c <fdt_osc_read_freq+0x3c>
2ffed10e:	9800      	ldr	r0, [sp, #0]
2ffed110:	aa01      	add	r2, sp, #4
2ffed112:	4629      	mov	r1, r5
2ffed114:	f007 fc92 	bl	2fff4a3c <fdt_get_name>
2ffed118:	b918      	cbnz	r0, 2ffed122 <fdt_osc_read_freq+0x42>
2ffed11a:	9c01      	ldr	r4, [sp, #4]
2ffed11c:	4620      	mov	r0, r4
2ffed11e:	b003      	add	sp, #12
2ffed120:	bdf0      	pop	{r4, r5, r6, r7, pc}
2ffed122:	9a01      	ldr	r2, [sp, #4]
2ffed124:	4639      	mov	r1, r7
2ffed126:	f008 f825 	bl	2fff5174 <strncmp>
2ffed12a:	4604      	mov	r4, r0
2ffed12c:	b978      	cbnz	r0, 2ffed14e <fdt_osc_read_freq+0x6e>
2ffed12e:	4628      	mov	r0, r5
2ffed130:	f004 fc52 	bl	2fff19d8 <fdt_get_status>
2ffed134:	b158      	cbz	r0, 2ffed14e <fdt_osc_read_freq+0x6e>
2ffed136:	4a0c      	ldr	r2, [pc, #48]	@ (2ffed168 <fdt_osc_read_freq+0x88>)
2ffed138:	ab01      	add	r3, sp, #4
2ffed13a:	9800      	ldr	r0, [sp, #0]
2ffed13c:	4629      	mov	r1, r5
2ffed13e:	f007 fd70 	bl	2fff4c22 <fdt_getprop>
2ffed142:	2800      	cmp	r0, #0
2ffed144:	d0e9      	beq.n	2ffed11a <fdt_osc_read_freq+0x3a>
2ffed146:	6803      	ldr	r3, [r0, #0]
2ffed148:	ba1b      	rev	r3, r3
2ffed14a:	6033      	str	r3, [r6, #0]
2ffed14c:	e7e6      	b.n	2ffed11c <fdt_osc_read_freq+0x3c>
2ffed14e:	9800      	ldr	r0, [sp, #0]
2ffed150:	4629      	mov	r1, r5
2ffed152:	f007 fc08 	bl	2fff4966 <fdt_next_subnode>
2ffed156:	e7d4      	b.n	2ffed102 <fdt_osc_read_freq+0x22>
2ffed158:	f06f 0401 	mvn.w	r4, #1
2ffed15c:	e7de      	b.n	2ffed11c <fdt_osc_read_freq+0x3c>
2ffed15e:	f04f 34ff 	mov.w	r4, #4294967295	@ 0xffffffff
2ffed162:	e7db      	b.n	2ffed11c <fdt_osc_read_freq+0x3c>
2ffed164:	2fff72db 	.word	0x2fff72db
2ffed168:	2fff72e3 	.word	0x2fff72e3

2ffed16c <fdt_clk_read_bool>:
2ffed16c:	b573      	push	{r0, r1, r4, r5, r6, lr}
2ffed16e:	4605      	mov	r5, r0
2ffed170:	4668      	mov	r0, sp
2ffed172:	460e      	mov	r6, r1
2ffed174:	f004 fc16 	bl	2fff19a4 <fdt_get_address>
2ffed178:	b910      	cbnz	r0, 2ffed180 <fdt_clk_read_bool+0x14>
2ffed17a:	2000      	movs	r0, #0
2ffed17c:	b002      	add	sp, #8
2ffed17e:	bd70      	pop	{r4, r5, r6, pc}
2ffed180:	4913      	ldr	r1, [pc, #76]	@ (2ffed1d0 <fdt_clk_read_bool+0x64>)
2ffed182:	9800      	ldr	r0, [sp, #0]
2ffed184:	f007 fda8 	bl	2fff4cd8 <fdt_path_offset>
2ffed188:	1e01      	subs	r1, r0, #0
2ffed18a:	dbf6      	blt.n	2ffed17a <fdt_clk_read_bool+0xe>
2ffed18c:	9800      	ldr	r0, [sp, #0]
2ffed18e:	f007 fbd7 	bl	2fff4940 <fdt_first_subnode>
2ffed192:	2800      	cmp	r0, #0
2ffed194:	4604      	mov	r4, r0
2ffed196:	dbf0      	blt.n	2ffed17a <fdt_clk_read_bool+0xe>
2ffed198:	9800      	ldr	r0, [sp, #0]
2ffed19a:	aa01      	add	r2, sp, #4
2ffed19c:	4621      	mov	r1, r4
2ffed19e:	f007 fc4d 	bl	2fff4a3c <fdt_get_name>
2ffed1a2:	2800      	cmp	r0, #0
2ffed1a4:	d0e9      	beq.n	2ffed17a <fdt_clk_read_bool+0xe>
2ffed1a6:	9a01      	ldr	r2, [sp, #4]
2ffed1a8:	4629      	mov	r1, r5
2ffed1aa:	f007 ffe3 	bl	2fff5174 <strncmp>
2ffed1ae:	4603      	mov	r3, r0
2ffed1b0:	b120      	cbz	r0, 2ffed1bc <fdt_clk_read_bool+0x50>
2ffed1b2:	9800      	ldr	r0, [sp, #0]
2ffed1b4:	4621      	mov	r1, r4
2ffed1b6:	f007 fbd6 	bl	2fff4966 <fdt_next_subnode>
2ffed1ba:	e7ea      	b.n	2ffed192 <fdt_clk_read_bool+0x26>
2ffed1bc:	9800      	ldr	r0, [sp, #0]
2ffed1be:	4632      	mov	r2, r6
2ffed1c0:	4621      	mov	r1, r4
2ffed1c2:	f007 fd2e 	bl	2fff4c22 <fdt_getprop>
2ffed1c6:	2800      	cmp	r0, #0
2ffed1c8:	d0f3      	beq.n	2ffed1b2 <fdt_clk_read_bool+0x46>
2ffed1ca:	2001      	movs	r0, #1
2ffed1cc:	e7d6      	b.n	2ffed17c <fdt_clk_read_bool+0x10>
2ffed1ce:	bf00      	nop
2ffed1d0:	2fff72db 	.word	0x2fff72db

2ffed1d4 <fdt_clk_read_uint32_default>:
2ffed1d4:	b5f7      	push	{r0, r1, r2, r4, r5, r6, r7, lr}
2ffed1d6:	4606      	mov	r6, r0
2ffed1d8:	4668      	mov	r0, sp
2ffed1da:	460f      	mov	r7, r1
2ffed1dc:	4615      	mov	r5, r2
2ffed1de:	f004 fbe1 	bl	2fff19a4 <fdt_get_address>
2ffed1e2:	b158      	cbz	r0, 2ffed1fc <fdt_clk_read_uint32_default+0x28>
2ffed1e4:	4913      	ldr	r1, [pc, #76]	@ (2ffed234 <fdt_clk_read_uint32_default+0x60>)
2ffed1e6:	9800      	ldr	r0, [sp, #0]
2ffed1e8:	f007 fd76 	bl	2fff4cd8 <fdt_path_offset>
2ffed1ec:	1e01      	subs	r1, r0, #0
2ffed1ee:	db05      	blt.n	2ffed1fc <fdt_clk_read_uint32_default+0x28>
2ffed1f0:	9800      	ldr	r0, [sp, #0]
2ffed1f2:	f007 fba5 	bl	2fff4940 <fdt_first_subnode>
2ffed1f6:	2800      	cmp	r0, #0
2ffed1f8:	4604      	mov	r4, r0
2ffed1fa:	da02      	bge.n	2ffed202 <fdt_clk_read_uint32_default+0x2e>
2ffed1fc:	4628      	mov	r0, r5
2ffed1fe:	b003      	add	sp, #12
2ffed200:	bdf0      	pop	{r4, r5, r6, r7, pc}
2ffed202:	9800      	ldr	r0, [sp, #0]
2ffed204:	aa01      	add	r2, sp, #4
2ffed206:	4621      	mov	r1, r4
2ffed208:	f007 fc18 	bl	2fff4a3c <fdt_get_name>
2ffed20c:	2800      	cmp	r0, #0
2ffed20e:	d0f5      	beq.n	2ffed1fc <fdt_clk_read_uint32_default+0x28>
2ffed210:	9a01      	ldr	r2, [sp, #4]
2ffed212:	4631      	mov	r1, r6
2ffed214:	f007 ffae 	bl	2fff5174 <strncmp>
2ffed218:	b120      	cbz	r0, 2ffed224 <fdt_clk_read_uint32_default+0x50>
2ffed21a:	9800      	ldr	r0, [sp, #0]
2ffed21c:	4621      	mov	r1, r4
2ffed21e:	f007 fba2 	bl	2fff4966 <fdt_next_subnode>
2ffed222:	e7e8      	b.n	2ffed1f6 <fdt_clk_read_uint32_default+0x22>
2ffed224:	9800      	ldr	r0, [sp, #0]
2ffed226:	462b      	mov	r3, r5
2ffed228:	463a      	mov	r2, r7
2ffed22a:	4621      	mov	r1, r4
2ffed22c:	f006 fa2b 	bl	2fff3686 <fdt_read_uint32_default>
2ffed230:	4605      	mov	r5, r0
2ffed232:	e7e3      	b.n	2ffed1fc <fdt_clk_read_uint32_default+0x28>
2ffed234:	2fff72db 	.word	0x2fff72db

2ffed238 <fdt_get_clock_id>:
2ffed238:	b513      	push	{r0, r1, r4, lr}
2ffed23a:	4604      	mov	r4, r0
2ffed23c:	a801      	add	r0, sp, #4
2ffed23e:	f004 fbb1 	bl	2fff19a4 <fdt_get_address>
2ffed242:	b150      	cbz	r0, 2ffed25a <fdt_get_clock_id+0x22>
2ffed244:	4a08      	ldr	r2, [pc, #32]	@ (2ffed268 <fdt_get_clock_id+0x30>)
2ffed246:	2300      	movs	r3, #0
2ffed248:	9801      	ldr	r0, [sp, #4]
2ffed24a:	4621      	mov	r1, r4
2ffed24c:	f007 fce9 	bl	2fff4c22 <fdt_getprop>
2ffed250:	b130      	cbz	r0, 2ffed260 <fdt_get_clock_id+0x28>
2ffed252:	6840      	ldr	r0, [r0, #4]
2ffed254:	ba00      	rev	r0, r0
2ffed256:	b002      	add	sp, #8
2ffed258:	bd10      	pop	{r4, pc}
2ffed25a:	f06f 0001 	mvn.w	r0, #1
2ffed25e:	e7fa      	b.n	2ffed256 <fdt_get_clock_id+0x1e>
2ffed260:	f04f 30ff 	mov.w	r0, #4294967295	@ 0xffffffff
2ffed264:	e7f7      	b.n	2ffed256 <fdt_get_clock_id+0x1e>
2ffed266:	bf00      	nop
2ffed268:	2fff72dc 	.word	0x2fff72dc

2ffed26c <stm32mp_stgen_config>:
2ffed26c:	b570      	push	{r4, r5, r6, lr}
2ffed26e:	4604      	mov	r4, r0
2ffed270:	4d10      	ldr	r5, [pc, #64]	@ (2ffed2b4 <stm32mp_stgen_config+0x48>)
2ffed272:	6a2a      	ldr	r2, [r5, #32]
2ffed274:	4290      	cmp	r0, r2
2ffed276:	d01b      	beq.n	2ffed2b0 <stm32mp_stgen_config+0x44>
2ffed278:	682b      	ldr	r3, [r5, #0]
2ffed27a:	f023 0301 	bic.w	r3, r3, #1
2ffed27e:	602b      	str	r3, [r5, #0]
2ffed280:	b152      	cbz	r2, 2ffed298 <stm32mp_stgen_config+0x2c>
2ffed282:	68ee      	ldr	r6, [r5, #12]
2ffed284:	2300      	movs	r3, #0
2ffed286:	68a8      	ldr	r0, [r5, #8]
2ffed288:	fba0 0104 	umull	r0, r1, r0, r4
2ffed28c:	fb04 1106 	mla	r1, r4, r6, r1
2ffed290:	f005 ee12 	blx	2fff2eb8 <__aeabi_uldivmod>
2ffed294:	60a8      	str	r0, [r5, #8]
2ffed296:	60e9      	str	r1, [r5, #12]
2ffed298:	4b06      	ldr	r3, [pc, #24]	@ (2ffed2b4 <stm32mp_stgen_config+0x48>)
2ffed29a:	621c      	str	r4, [r3, #32]
2ffed29c:	681a      	ldr	r2, [r3, #0]
2ffed29e:	f042 0201 	orr.w	r2, r2, #1
2ffed2a2:	601a      	str	r2, [r3, #0]
2ffed2a4:	ee0e 4f10 	mcr	15, 0, r4, cr14, cr0, {0}
2ffed2a8:	e8bd 4070 	ldmia.w	sp!, {r4, r5, r6, lr}
2ffed2ac:	f7fd bac0 	b.w	2ffea830 <generic_delay_timer_init>
2ffed2b0:	bd70      	pop	{r4, r5, r6, pc}
2ffed2b2:	bf00      	nop
2ffed2b4:	5c008000 	.word	0x5c008000

2ffed2b8 <stm32mp_stgen_restore_rate>:
2ffed2b8:	4b02      	ldr	r3, [pc, #8]	@ (2ffed2c4 <stm32mp_stgen_restore_rate+0xc>)
2ffed2ba:	6a1b      	ldr	r3, [r3, #32]
2ffed2bc:	ee0e 3f10 	mcr	15, 0, r3, cr14, cr0, {0}
2ffed2c0:	4770      	bx	lr
2ffed2c2:	bf00      	nop
2ffed2c4:	5c008000 	.word	0x5c008000

2ffed2c8 <stm32mp1_ddr_init>:
2ffed2c8:	68cb      	ldr	r3, [r1, #12]
2ffed2ca:	e92d 4ff7 	stmdb	sp!, {r0, r1, r2, r4, r5, r6, r7, r8, r9, sl, fp, lr}
2ffed2ce:	4604      	mov	r4, r0
2ffed2d0:	07df      	lsls	r7, r3, #31
2ffed2d2:	460d      	mov	r5, r1
2ffed2d4:	d50a      	bpl.n	2ffed2ec <stm32mp1_ddr_init+0x24>
2ffed2d6:	2000      	movs	r0, #0
2ffed2d8:	f005 f94e 	bl	2fff2578 <stm32mp_board_ddr_power_init>
2ffed2dc:	b1b0      	cbz	r0, 2ffed30c <stm32mp1_ddr_init+0x44>
2ffed2de:	4809      	ldr	r0, [pc, #36]	@ (2ffed304 <stm32mp1_ddr_init+0x3c>)
2ffed2e0:	f7fc ffa4 	bl	2ffea22c <tf_log>
2ffed2e4:	f7fd fa38 	bl	2ffea758 <console_flush>
2ffed2e8:	f7fb efc4 	blx	2ffe9274 <el3_panic>
2ffed2ec:	075e      	lsls	r6, r3, #29
2ffed2ee:	d501      	bpl.n	2ffed2f4 <stm32mp1_ddr_init+0x2c>
2ffed2f0:	2001      	movs	r0, #1
2ffed2f2:	e7f1      	b.n	2ffed2d8 <stm32mp1_ddr_init+0x10>
2ffed2f4:	0718      	lsls	r0, r3, #28
2ffed2f6:	d501      	bpl.n	2ffed2fc <stm32mp1_ddr_init+0x34>
2ffed2f8:	2002      	movs	r0, #2
2ffed2fa:	e7ed      	b.n	2ffed2d8 <stm32mp1_ddr_init+0x10>
2ffed2fc:	4802      	ldr	r0, [pc, #8]	@ (2ffed308 <stm32mp1_ddr_init+0x40>)
2ffed2fe:	f7fc ff95 	bl	2ffea22c <tf_log>
2ffed302:	e7ec      	b.n	2ffed2de <stm32mp1_ddr_init+0x16>
2ffed304:	2fff730c 	.word	0x2fff730c
2ffed308:	2fff72f3 	.word	0x2fff72f3
2ffed30c:	69a3      	ldr	r3, [r4, #24]
2ffed30e:	f895 115c 	ldrb.w	r1, [r5, #348]	@ 0x15c
2ffed312:	68da      	ldr	r2, [r3, #12]
2ffed314:	b119      	cbz	r1, 2ffed31e <stm32mp1_ddr_init+0x56>
2ffed316:	04d1      	lsls	r1, r2, #19
2ffed318:	d409      	bmi.n	2ffed32e <stm32mp1_ddr_init+0x66>
2ffed31a:	f885 015c 	strb.w	r0, [r5, #348]	@ 0x15c
2ffed31e:	68da      	ldr	r2, [r3, #12]
2ffed320:	f442 6200 	orr.w	r2, r2, #2048	@ 0x800
2ffed324:	60da      	str	r2, [r3, #12]
2ffed326:	68da      	ldr	r2, [r3, #12]
2ffed328:	f422 5280 	bic.w	r2, r2, #4096	@ 0x1000
2ffed32c:	60da      	str	r2, [r3, #12]
2ffed32e:	69e3      	ldr	r3, [r4, #28]
2ffed330:	4620      	mov	r0, r4
2ffed332:	f8d3 20d8 	ldr.w	r2, [r3, #216]	@ 0xd8
2ffed336:	f442 4280 	orr.w	r2, r2, #16384	@ 0x4000
2ffed33a:	f8c3 20d8 	str.w	r2, [r3, #216]	@ 0xd8
2ffed33e:	f8d3 20d8 	ldr.w	r2, [r3, #216]	@ 0xd8
2ffed342:	f442 4200 	orr.w	r2, r2, #32768	@ 0x8000
2ffed346:	f8c3 20d8 	str.w	r2, [r3, #216]	@ 0xd8
2ffed34a:	f8d3 20d8 	ldr.w	r2, [r3, #216]	@ 0xd8
2ffed34e:	f442 3280 	orr.w	r2, r2, #65536	@ 0x10000
2ffed352:	f8c3 20d8 	str.w	r2, [r3, #216]	@ 0xd8
2ffed356:	f8d3 20d8 	ldr.w	r2, [r3, #216]	@ 0xd8
2ffed35a:	f442 3200 	orr.w	r2, r2, #131072	@ 0x20000
2ffed35e:	f8c3 20d8 	str.w	r2, [r3, #216]	@ 0xd8
2ffed362:	f8d3 20d8 	ldr.w	r2, [r3, #216]	@ 0xd8
2ffed366:	f442 2280 	orr.w	r2, r2, #262144	@ 0x40000
2ffed36a:	f8c3 20d8 	str.w	r2, [r3, #216]	@ 0xd8
2ffed36e:	f8d3 20d8 	ldr.w	r2, [r3, #216]	@ 0xd8
2ffed372:	f442 2200 	orr.w	r2, r2, #524288	@ 0x80000
2ffed376:	f8c3 20d8 	str.w	r2, [r3, #216]	@ 0xd8
2ffed37a:	6869      	ldr	r1, [r5, #4]
2ffed37c:	f000 fc9e 	bl	2ffedcbc <stm32mp1_ddr_clk_enable>
2ffed380:	4606      	mov	r6, r0
2ffed382:	2800      	cmp	r0, #0
2ffed384:	d1ae      	bne.n	2ffed2e4 <stm32mp1_ddr_init+0x1c>
2ffed386:	69e3      	ldr	r3, [r4, #28]
2ffed388:	2002      	movs	r0, #2
2ffed38a:	f8d3 20d8 	ldr.w	r2, [r3, #216]	@ 0xd8
2ffed38e:	f422 2280 	bic.w	r2, r2, #262144	@ 0x40000
2ffed392:	f8c3 20d8 	str.w	r2, [r3, #216]	@ 0xd8
2ffed396:	f8d3 20d8 	ldr.w	r2, [r3, #216]	@ 0xd8
2ffed39a:	f422 2200 	bic.w	r2, r2, #524288	@ 0x80000
2ffed39e:	f8c3 20d8 	str.w	r2, [r3, #216]	@ 0xd8
2ffed3a2:	f8d3 20d8 	ldr.w	r2, [r3, #216]	@ 0xd8
2ffed3a6:	f422 4280 	bic.w	r2, r2, #16384	@ 0x4000
2ffed3aa:	f8c3 20d8 	str.w	r2, [r3, #216]	@ 0xd8
2ffed3ae:	f7fd f9e7 	bl	2ffea780 <udelay>
2ffed3b2:	6922      	ldr	r2, [r4, #16]
2ffed3b4:	4631      	mov	r1, r6
2ffed3b6:	4620      	mov	r0, r4
2ffed3b8:	f8d2 31b0 	ldr.w	r3, [r2, #432]	@ 0x1b0
2ffed3bc:	f023 0301 	bic.w	r3, r3, #1
2ffed3c0:	f8c2 31b0 	str.w	r3, [r2, #432]	@ 0x1b0
2ffed3c4:	f105 020c 	add.w	r2, r5, #12
2ffed3c8:	4baf      	ldr	r3, [pc, #700]	@ (2ffed688 <stm32mp1_ddr_init+0x3c0>)
2ffed3ca:	f000 fcbf 	bl	2ffedd4c <stm32mp_ddr_set_reg>
2ffed3ce:	68ea      	ldr	r2, [r5, #12]
2ffed3d0:	f248 0301 	movw	r3, #32769	@ 0x8001
2ffed3d4:	2101      	movs	r1, #1
2ffed3d6:	4620      	mov	r0, r4
2ffed3d8:	4393      	bics	r3, r2
2ffed3da:	bf01      	itttt	eq
2ffed3dc:	6922      	ldreq	r2, [r4, #16]
2ffed3de:	6813      	ldreq	r3, [r2, #0]
2ffed3e0:	f423 4300 	biceq.w	r3, r3, #32768	@ 0x8000
2ffed3e4:	6013      	streq	r3, [r2, #0]
2ffed3e6:	f105 0270 	add.w	r2, r5, #112	@ 0x70
2ffed3ea:	4ba7      	ldr	r3, [pc, #668]	@ (2ffed688 <stm32mp1_ddr_init+0x3c0>)
2ffed3ec:	f000 fcae 	bl	2ffedd4c <stm32mp_ddr_set_reg>
2ffed3f0:	4ba5      	ldr	r3, [pc, #660]	@ (2ffed688 <stm32mp1_ddr_init+0x3c0>)
2ffed3f2:	f105 02a0 	add.w	r2, r5, #160	@ 0xa0
2ffed3f6:	2103      	movs	r1, #3
2ffed3f8:	4620      	mov	r0, r4
2ffed3fa:	f000 fca7 	bl	2ffedd4c <stm32mp_ddr_set_reg>
2ffed3fe:	f895 315c 	ldrb.w	r3, [r5, #348]	@ 0x15c
2ffed402:	6922      	ldr	r2, [r4, #16]
2ffed404:	b11b      	cbz	r3, 2ffed40e <stm32mp1_ddr_init+0x146>
2ffed406:	6b13      	ldr	r3, [r2, #48]	@ 0x30
2ffed408:	f043 0320 	orr.w	r3, r3, #32
2ffed40c:	6313      	str	r3, [r2, #48]	@ 0x30
2ffed40e:	f8d2 30d0 	ldr.w	r3, [r2, #208]	@ 0xd0
2ffed412:	2102      	movs	r1, #2
2ffed414:	4620      	mov	r0, r4
2ffed416:	f023 4340 	bic.w	r3, r3, #3221225472	@ 0xc0000000
2ffed41a:	f043 4380 	orr.w	r3, r3, #1073741824	@ 0x40000000
2ffed41e:	f8c2 30d0 	str.w	r3, [r2, #208]	@ 0xd0
2ffed422:	f105 02c4 	add.w	r2, r5, #196	@ 0xc4
2ffed426:	4b98      	ldr	r3, [pc, #608]	@ (2ffed688 <stm32mp1_ddr_init+0x3c0>)
2ffed428:	f000 fc90 	bl	2ffedd4c <stm32mp_ddr_set_reg>
2ffed42c:	69e3      	ldr	r3, [r4, #28]
2ffed42e:	2104      	movs	r1, #4
2ffed430:	4620      	mov	r0, r4
2ffed432:	f8d3 20d8 	ldr.w	r2, [r3, #216]	@ 0xd8
2ffed436:	f422 3280 	bic.w	r2, r2, #65536	@ 0x10000
2ffed43a:	f8c3 20d8 	str.w	r2, [r3, #216]	@ 0xd8
2ffed43e:	f8d3 20d8 	ldr.w	r2, [r3, #216]	@ 0xd8
2ffed442:	f422 4200 	bic.w	r2, r2, #32768	@ 0x8000
2ffed446:	f8c3 20d8 	str.w	r2, [r3, #216]	@ 0xd8
2ffed44a:	f8d3 20d8 	ldr.w	r2, [r3, #216]	@ 0xd8
2ffed44e:	f422 3200 	bic.w	r2, r2, #131072	@ 0x20000
2ffed452:	f8c3 20d8 	str.w	r2, [r3, #216]	@ 0xd8
2ffed456:	f505 7284 	add.w	r2, r5, #264	@ 0x108
2ffed45a:	4b8b      	ldr	r3, [pc, #556]	@ (2ffed688 <stm32mp1_ddr_init+0x3c0>)
2ffed45c:	f000 fc76 	bl	2ffedd4c <stm32mp_ddr_set_reg>
2ffed460:	4b89      	ldr	r3, [pc, #548]	@ (2ffed688 <stm32mp1_ddr_init+0x3c0>)
2ffed462:	2105      	movs	r1, #5
2ffed464:	f505 729a 	add.w	r2, r5, #308	@ 0x134
2ffed468:	4620      	mov	r0, r4
2ffed46a:	f000 fc6f 	bl	2ffedd4c <stm32mp_ddr_set_reg>
2ffed46e:	68ea      	ldr	r2, [r5, #12]
2ffed470:	f248 0301 	movw	r3, #32769	@ 0x8001
2ffed474:	6960      	ldr	r0, [r4, #20]
2ffed476:	4393      	bics	r3, r2
2ffed478:	bf01      	itttt	eq
2ffed47a:	6962      	ldreq	r2, [r4, #20]
2ffed47c:	6c53      	ldreq	r3, [r2, #68]	@ 0x44
2ffed47e:	f023 0301 	biceq.w	r3, r3, #1
2ffed482:	6453      	streq	r3, [r2, #68]	@ 0x44
2ffed484:	f006 fa51 	bl	2fff392a <stm32mp1_ddrphy_idone_wait>
2ffed488:	68eb      	ldr	r3, [r5, #12]
2ffed48a:	200a      	movs	r0, #10
2ffed48c:	4a7f      	ldr	r2, [pc, #508]	@ (2ffed68c <stm32mp1_ddr_init+0x3c4>)
2ffed48e:	6966      	ldr	r6, [r4, #20]
2ffed490:	f013 0f01 	tst.w	r3, #1
2ffed494:	4b7e      	ldr	r3, [pc, #504]	@ (2ffed690 <stm32mp1_ddr_init+0x3c8>)
2ffed496:	bf08      	it	eq
2ffed498:	461a      	moveq	r2, r3
2ffed49a:	f895 315c 	ldrb.w	r3, [r5, #348]	@ 0x15c
2ffed49e:	425b      	negs	r3, r3
2ffed4a0:	f003 4380 	and.w	r3, r3, #1073741824	@ 0x40000000
2ffed4a4:	4313      	orrs	r3, r2
2ffed4a6:	f043 0301 	orr.w	r3, r3, #1
2ffed4aa:	6073      	str	r3, [r6, #4]
2ffed4ac:	f7fd f968 	bl	2ffea780 <udelay>
2ffed4b0:	4630      	mov	r0, r6
2ffed4b2:	f006 fa3a 	bl	2fff392a <stm32mp1_ddrphy_idone_wait>
2ffed4b6:	f895 315c 	ldrb.w	r3, [r5, #348]	@ 0x15c
2ffed4ba:	b333      	cbz	r3, 2ffed50a <stm32mp1_ddr_init+0x242>
2ffed4bc:	6966      	ldr	r6, [r4, #20]
2ffed4be:	200a      	movs	r0, #10
2ffed4c0:	f8d5 2160 	ldr.w	r2, [r5, #352]	@ 0x160
2ffed4c4:	f8d6 3180 	ldr.w	r3, [r6, #384]	@ 0x180
2ffed4c8:	f043 5380 	orr.w	r3, r3, #268435456	@ 0x10000000
2ffed4cc:	f8c6 3180 	str.w	r3, [r6, #384]	@ 0x180
2ffed4d0:	f8d6 3180 	ldr.w	r3, [r6, #384]	@ 0x180
2ffed4d4:	f003 4370 	and.w	r3, r3, #4026531840	@ 0xf0000000
2ffed4d8:	4313      	orrs	r3, r2
2ffed4da:	f8c6 3180 	str.w	r3, [r6, #384]	@ 0x180
2ffed4de:	69a3      	ldr	r3, [r4, #24]
2ffed4e0:	68da      	ldr	r2, [r3, #12]
2ffed4e2:	f442 6200 	orr.w	r2, r2, #2048	@ 0x800
2ffed4e6:	60da      	str	r2, [r3, #12]
2ffed4e8:	68da      	ldr	r2, [r3, #12]
2ffed4ea:	f422 5280 	bic.w	r2, r2, #4096	@ 0x1000
2ffed4ee:	60da      	str	r2, [r3, #12]
2ffed4f0:	f8d6 3180 	ldr.w	r3, [r6, #384]	@ 0x180
2ffed4f4:	f023 5380 	bic.w	r3, r3, #268435456	@ 0x10000000
2ffed4f8:	f8c6 3180 	str.w	r3, [r6, #384]	@ 0x180
2ffed4fc:	2309      	movs	r3, #9
2ffed4fe:	6073      	str	r3, [r6, #4]
2ffed500:	f7fd f93e 	bl	2ffea780 <udelay>
2ffed504:	4630      	mov	r0, r6
2ffed506:	f006 fa10 	bl	2fff392a <stm32mp1_ddrphy_idone_wait>
2ffed50a:	6920      	ldr	r0, [r4, #16]
2ffed50c:	f006 fb35 	bl	2fff3b7a <stm32mp_ddr_start_sw_done>
2ffed510:	6920      	ldr	r0, [r4, #16]
2ffed512:	f8d0 31b0 	ldr.w	r3, [r0, #432]	@ 0x1b0
2ffed516:	f043 0301 	orr.w	r3, r3, #1
2ffed51a:	f8c0 31b0 	str.w	r3, [r0, #432]	@ 0x1b0
2ffed51e:	f006 fb33 	bl	2fff3b88 <stm32mp_ddr_wait_sw_done_ack>
2ffed522:	f895 315c 	ldrb.w	r3, [r5, #348]	@ 0x15c
2ffed526:	b113      	cbz	r3, 2ffed52e <stm32mp1_ddr_init+0x266>
2ffed528:	6920      	ldr	r0, [r4, #16]
2ffed52a:	f006 fba6 	bl	2fff3c7a <stm32mp_ddr_sw_selfref_exit>
2ffed52e:	2101      	movs	r1, #1
2ffed530:	4620      	mov	r0, r4
2ffed532:	f006 fa1f 	bl	2fff3974 <stm32mp1_wait_operating_mode>
2ffed536:	68eb      	ldr	r3, [r5, #12]
2ffed538:	041a      	lsls	r2, r3, #16
2ffed53a:	d565      	bpl.n	2ffed608 <stm32mp1_ddr_init+0x340>
2ffed53c:	6963      	ldr	r3, [r4, #20]
2ffed53e:	6920      	ldr	r0, [r4, #16]
2ffed540:	6c5e      	ldr	r6, [r3, #68]	@ 0x44
2ffed542:	6c9f      	ldr	r7, [r3, #72]	@ 0x48
2ffed544:	f8d0 3304 	ldr.w	r3, [r0, #772]	@ 0x304
2ffed548:	4a52      	ldr	r2, [pc, #328]	@ (2ffed694 <stm32mp1_ddr_init+0x3cc>)
2ffed54a:	f043 0302 	orr.w	r3, r3, #2
2ffed54e:	f8c0 3304 	str.w	r3, [r0, #772]	@ 0x304
2ffed552:	f8d0 3308 	ldr.w	r3, [r0, #776]	@ 0x308
2ffed556:	4013      	ands	r3, r2
2ffed558:	f1b3 5f40 	cmp.w	r3, #805306368	@ 0x30000000
2ffed55c:	d0f9      	beq.n	2ffed552 <stm32mp1_ddr_init+0x28a>
2ffed55e:	f426 7611 	bic.w	r6, r6, #580	@ 0x244
2ffed562:	2101      	movs	r1, #1
2ffed564:	4632      	mov	r2, r6
2ffed566:	f006 f9cf 	bl	2fff3908 <stm32mp1_mode_register_write.isra.0>
2ffed56a:	f427 62c0 	bic.w	r2, r7, #1536	@ 0x600
2ffed56e:	2102      	movs	r1, #2
2ffed570:	f006 f9ca 	bl	2fff3908 <stm32mp1_mode_register_write.isra.0>
2ffed574:	f046 0201 	orr.w	r2, r6, #1
2ffed578:	2101      	movs	r1, #1
2ffed57a:	f006 f9c5 	bl	2fff3908 <stm32mp1_mode_register_write.isra.0>
2ffed57e:	6b03      	ldr	r3, [r0, #48]	@ 0x30
2ffed580:	2103      	movs	r1, #3
2ffed582:	f043 0320 	orr.w	r3, r3, #32
2ffed586:	6303      	str	r3, [r0, #48]	@ 0x30
2ffed588:	4620      	mov	r0, r4
2ffed58a:	f006 f9f3 	bl	2fff3974 <stm32mp1_wait_operating_mode>
2ffed58e:	6920      	ldr	r0, [r4, #16]
2ffed590:	f006 faf3 	bl	2fff3b7a <stm32mp_ddr_start_sw_done>
2ffed594:	6920      	ldr	r0, [r4, #16]
2ffed596:	6803      	ldr	r3, [r0, #0]
2ffed598:	f443 4300 	orr.w	r3, r3, #32768	@ 0x8000
2ffed59c:	6003      	str	r3, [r0, #0]
2ffed59e:	f006 faf3 	bl	2fff3b88 <stm32mp_ddr_wait_sw_done_ack>
2ffed5a2:	20e0      	movs	r0, #224	@ 0xe0
2ffed5a4:	f7fd f82e 	bl	2ffea604 <clk_get_rate>
2ffed5a8:	4b3b      	ldr	r3, [pc, #236]	@ (2ffed698 <stm32mp1_ddr_init+0x3d0>)
2ffed5aa:	4298      	cmp	r0, r3
2ffed5ac:	6963      	ldr	r3, [r4, #20]
2ffed5ae:	6920      	ldr	r0, [r4, #16]
2ffed5b0:	691a      	ldr	r2, [r3, #16]
2ffed5b2:	bf94      	ite	ls
2ffed5b4:	f422 0200 	bicls.w	r2, r2, #8388608	@ 0x800000
2ffed5b8:	f442 0200 	orrhi.w	r2, r2, #8388608	@ 0x800000
2ffed5bc:	611a      	str	r2, [r3, #16]
2ffed5be:	695a      	ldr	r2, [r3, #20]
2ffed5c0:	f042 4200 	orr.w	r2, r2, #2147483648	@ 0x80000000
2ffed5c4:	615a      	str	r2, [r3, #20]
2ffed5c6:	f8d3 21cc 	ldr.w	r2, [r3, #460]	@ 0x1cc
2ffed5ca:	f042 4200 	orr.w	r2, r2, #2147483648	@ 0x80000000
2ffed5ce:	f8c3 21cc 	str.w	r2, [r3, #460]	@ 0x1cc
2ffed5d2:	f8d3 220c 	ldr.w	r2, [r3, #524]	@ 0x20c
2ffed5d6:	f042 4200 	orr.w	r2, r2, #2147483648	@ 0x80000000
2ffed5da:	f8c3 220c 	str.w	r2, [r3, #524]	@ 0x20c
2ffed5de:	f8d3 224c 	ldr.w	r2, [r3, #588]	@ 0x24c
2ffed5e2:	f042 4200 	orr.w	r2, r2, #2147483648	@ 0x80000000
2ffed5e6:	f8c3 224c 	str.w	r2, [r3, #588]	@ 0x24c
2ffed5ea:	f8d3 228c 	ldr.w	r2, [r3, #652]	@ 0x28c
2ffed5ee:	f042 4200 	orr.w	r2, r2, #2147483648	@ 0x80000000
2ffed5f2:	f8c3 228c 	str.w	r2, [r3, #652]	@ 0x28c
2ffed5f6:	f006 fb40 	bl	2fff3c7a <stm32mp_ddr_sw_selfref_exit>
2ffed5fa:	4620      	mov	r0, r4
2ffed5fc:	2101      	movs	r1, #1
2ffed5fe:	f006 f9b9 	bl	2fff3974 <stm32mp1_wait_operating_mode>
2ffed602:	6920      	ldr	r0, [r4, #16]
2ffed604:	f006 fb0d 	bl	2fff3c22 <stm32mp_ddr_enable_host_interface>
2ffed608:	ee1e 3f10 	mrc	15, 0, r3, cr14, cr0, {0}
2ffed60c:	ec51 0f0e 	mrrc	15, 0, r0, r1, cr14
2ffed610:	6926      	ldr	r6, [r4, #16]
2ffed612:	4689      	mov	r9, r1
2ffed614:	9001      	str	r0, [sp, #4]
2ffed616:	4630      	mov	r0, r6
2ffed618:	f006 fb0a 	bl	2fff3c30 <stm32mp_ddr_disable_host_interface>
2ffed61c:	4630      	mov	r0, r6
2ffed61e:	f006 faac 	bl	2fff3b7a <stm32mp_ddr_start_sw_done>
2ffed622:	6e32      	ldr	r2, [r6, #96]	@ 0x60
2ffed624:	4630      	mov	r0, r6
2ffed626:	f042 0201 	orr.w	r2, r2, #1
2ffed62a:	6632      	str	r2, [r6, #96]	@ 0x60
2ffed62c:	f006 fb2a 	bl	2fff3c84 <stm32mp_ddr_wait_refresh_update_done_ack>
2ffed630:	6b32      	ldr	r2, [r6, #48]	@ 0x30
2ffed632:	4630      	mov	r0, r6
2ffed634:	f022 0203 	bic.w	r2, r2, #3
2ffed638:	6332      	str	r2, [r6, #48]	@ 0x30
2ffed63a:	f8d6 21b0 	ldr.w	r2, [r6, #432]	@ 0x1b0
2ffed63e:	f022 0201 	bic.w	r2, r2, #1
2ffed642:	f8c6 21b0 	str.w	r2, [r6, #432]	@ 0x1b0
2ffed646:	f006 fa9f 	bl	2fff3b88 <stm32mp_ddr_wait_sw_done_ack>
2ffed64a:	4630      	mov	r0, r6
2ffed64c:	f006 fae9 	bl	2fff3c22 <stm32mp_ddr_enable_host_interface>
2ffed650:	68ea      	ldr	r2, [r5, #12]
2ffed652:	200a      	movs	r0, #10
2ffed654:	6966      	ldr	r6, [r4, #20]
2ffed656:	f012 0f01 	tst.w	r2, #1
2ffed65a:	bf0c      	ite	eq
2ffed65c:	f44f 72c0 	moveq.w	r2, #384	@ 0x180
2ffed660:	2280      	movne	r2, #128	@ 0x80
2ffed662:	f042 0201 	orr.w	r2, r2, #1
2ffed666:	6072      	str	r2, [r6, #4]
2ffed668:	f7fd f88a 	bl	2ffea780 <udelay>
2ffed66c:	4630      	mov	r0, r6
2ffed66e:	f006 f95c 	bl	2fff392a <stm32mp1_ddrphy_idone_wait>
2ffed672:	6960      	ldr	r0, [r4, #20]
2ffed674:	f006 f959 	bl	2fff392a <stm32mp1_ddrphy_idone_wait>
2ffed678:	f895 215c 	ldrb.w	r2, [r5, #348]	@ 0x15c
2ffed67c:	6926      	ldr	r6, [r4, #16]
2ffed67e:	9b01      	ldr	r3, [sp, #4]
2ffed680:	2a00      	cmp	r2, #0
2ffed682:	d13a      	bne.n	2ffed6fa <stm32mp1_ddr_init+0x432>
2ffed684:	e00a      	b.n	2ffed69c <stm32mp1_ddr_init+0x3d4>
2ffed686:	bf00      	nop
2ffed688:	2fff5444 	.word	0x2fff5444
2ffed68c:	0001007e 	.word	0x0001007e
2ffed690:	0001005e 	.word	0x0001005e
2ffed694:	34001f1f 	.word	0x34001f1f
2ffed698:	05f5e0ff 	.word	0x05f5e0ff
2ffed69c:	6b2f      	ldr	r7, [r5, #48]	@ 0x30
2ffed69e:	4630      	mov	r0, r6
2ffed6a0:	6a2d      	ldr	r5, [r5, #32]
2ffed6a2:	f006 fac5 	bl	2fff3c30 <stm32mp_ddr_disable_host_interface>
2ffed6a6:	4630      	mov	r0, r6
2ffed6a8:	f006 fa67 	bl	2fff3b7a <stm32mp_ddr_start_sw_done>
2ffed6ac:	07fb      	lsls	r3, r7, #31
2ffed6ae:	d406      	bmi.n	2ffed6be <stm32mp1_ddr_init+0x3f6>
2ffed6b0:	6e33      	ldr	r3, [r6, #96]	@ 0x60
2ffed6b2:	4630      	mov	r0, r6
2ffed6b4:	f023 0301 	bic.w	r3, r3, #1
2ffed6b8:	6633      	str	r3, [r6, #96]	@ 0x60
2ffed6ba:	f006 fae3 	bl	2fff3c84 <stm32mp_ddr_wait_refresh_update_done_ack>
2ffed6be:	07aa      	lsls	r2, r5, #30
2ffed6c0:	4630      	mov	r0, r6
2ffed6c2:	bf42      	ittt	mi
2ffed6c4:	6b33      	ldrmi	r3, [r6, #48]	@ 0x30
2ffed6c6:	f043 0302 	orrmi.w	r3, r3, #2
2ffed6ca:	6333      	strmi	r3, [r6, #48]	@ 0x30
2ffed6cc:	07eb      	lsls	r3, r5, #31
2ffed6ce:	bf42      	ittt	mi
2ffed6d0:	6b33      	ldrmi	r3, [r6, #48]	@ 0x30
2ffed6d2:	f043 0301 	orrmi.w	r3, r3, #1
2ffed6d6:	6333      	strmi	r3, [r6, #48]	@ 0x30
2ffed6d8:	f8d6 31b0 	ldr.w	r3, [r6, #432]	@ 0x1b0
2ffed6dc:	f043 0301 	orr.w	r3, r3, #1
2ffed6e0:	f8c6 31b0 	str.w	r3, [r6, #432]	@ 0x1b0
2ffed6e4:	f006 fa50 	bl	2fff3b88 <stm32mp_ddr_wait_sw_done_ack>
2ffed6e8:	4630      	mov	r0, r6
2ffed6ea:	f006 fa9a 	bl	2fff3c22 <stm32mp_ddr_enable_host_interface>
2ffed6ee:	6920      	ldr	r0, [r4, #16]
2ffed6f0:	b003      	add	sp, #12
2ffed6f2:	e8bd 4ff0 	ldmia.w	sp!, {r4, r5, r6, r7, r8, r9, sl, fp, lr}
2ffed6f6:	f006 ba64 	b.w	2fff3bc2 <stm32mp_ddr_enable_axi_port>
2ffed6fa:	ee1e 2f10 	mrc	15, 0, r2, cr14, cr0, {0}
2ffed6fe:	ec5b af0e 	mrrc	15, 0, sl, fp, cr14
2ffed702:	491c      	ldr	r1, [pc, #112]	@ (2ffed774 <stm32mp1_ddr_init+0x4ac>)
2ffed704:	686a      	ldr	r2, [r5, #4]
2ffed706:	428a      	cmp	r2, r1
2ffed708:	d8c8      	bhi.n	2ffed69c <stm32mp1_ddr_init+0x3d4>
2ffed70a:	6e77      	ldr	r7, [r6, #100]	@ 0x64
2ffed70c:	f3c7 470b 	ubfx	r7, r7, #16, #12
2ffed710:	ea4f 1847 	mov.w	r8, r7, lsl #5
2ffed714:	2f00      	cmp	r7, #0
2ffed716:	d0c1      	beq.n	2ffed69c <stm32mp1_ddr_init+0x3d4>
2ffed718:	f8df c05c 	ldr.w	ip, [pc, #92]	@ 2ffed778 <stm32mp1_ddr_init+0x4b0>
2ffed71c:	2700      	movs	r7, #0
2ffed71e:	ebba 0003 	subs.w	r0, sl, r3
2ffed722:	463b      	mov	r3, r7
2ffed724:	fba0 0e0c 	umull	r0, lr, r0, ip
2ffed728:	eb6b 0909 	sbc.w	r9, fp, r9
2ffed72c:	fbb1 f2f2 	udiv	r2, r1, r2
2ffed730:	fb0c e109 	mla	r1, ip, r9, lr
2ffed734:	f005 ebc0 	blx	2fff2eb8 <__aeabi_uldivmod>
2ffed738:	f118 33ff 	adds.w	r3, r8, #4294967295	@ 0xffffffff
2ffed73c:	4642      	mov	r2, r8
2ffed73e:	18c0      	adds	r0, r0, r3
2ffed740:	463b      	mov	r3, r7
2ffed742:	f141 0100 	adc.w	r1, r1, #0
2ffed746:	f005 ebb8 	blx	2fff2eb8 <__aeabi_uldivmod>
2ffed74a:	463b      	mov	r3, r7
2ffed74c:	463a      	mov	r2, r7
2ffed74e:	4291      	cmp	r1, r2
2ffed750:	bf08      	it	eq
2ffed752:	4298      	cmpeq	r0, r3
2ffed754:	d0a2      	beq.n	2ffed69c <stm32mp1_ddr_init+0x3d4>
2ffed756:	f8d6 7310 	ldr.w	r7, [r6, #784]	@ 0x310
2ffed75a:	07ff      	lsls	r7, r7, #31
2ffed75c:	d4fb      	bmi.n	2ffed756 <stm32mp1_ddr_init+0x48e>
2ffed75e:	f8d6 730c 	ldr.w	r7, [r6, #780]	@ 0x30c
2ffed762:	3301      	adds	r3, #1
2ffed764:	f142 0200 	adc.w	r2, r2, #0
2ffed768:	f047 0701 	orr.w	r7, r7, #1
2ffed76c:	f8c6 730c 	str.w	r7, [r6, #780]	@ 0x30c
2ffed770:	e7ed      	b.n	2ffed74e <stm32mp1_ddr_init+0x486>
2ffed772:	bf00      	nop
2ffed774:	3b9aca00 	.word	0x3b9aca00
2ffed778:	000f4240 	.word	0x000f4240

2ffed77c <ddr_sw_self_refresh_exit>:
2ffed77c:	e92d 47f0 	stmdb	sp!, {r4, r5, r6, r7, r8, r9, sl, lr}
2ffed780:	f006 fef9 	bl	2fff4576 <stm32mp_rcc_base>
2ffed784:	4606      	mov	r6, r0
2ffed786:	f003 ff2d 	bl	2fff15e4 <stm32mp_pwr_base>
2ffed78a:	4607      	mov	r7, r0
2ffed78c:	f003 ff22 	bl	2fff15d4 <stm32mp_ddrctrl_base>
2ffed790:	4605      	mov	r5, r0
2ffed792:	f003 ff23 	bl	2fff15dc <stm32mp_ddrphyc_base>
2ffed796:	4604      	mov	r4, r0
2ffed798:	2000      	movs	r0, #0
2ffed79a:	f006 f912 	bl	2fff39c2 <ddr_enable_clock>
2ffed79e:	4628      	mov	r0, r5
2ffed7a0:	f000 fb24 	bl	2ffeddec <stm32mp_ddr_set_qd3_update_conditions>
2ffed7a4:	f8d5 31b0 	ldr.w	r3, [r5, #432]	@ 0x1b0
2ffed7a8:	4628      	mov	r0, r5
2ffed7aa:	f023 0301 	bic.w	r3, r3, #1
2ffed7ae:	f8c5 31b0 	str.w	r3, [r5, #432]	@ 0x1b0
2ffed7b2:	f000 fb41 	bl	2ffede38 <stm32mp_ddr_unset_qd3_update_conditions>
2ffed7b6:	6963      	ldr	r3, [r4, #20]
2ffed7b8:	2032      	movs	r0, #50	@ 0x32
2ffed7ba:	f023 4300 	bic.w	r3, r3, #2147483648	@ 0x80000000
2ffed7be:	6163      	str	r3, [r4, #20]
2ffed7c0:	f8d4 31cc 	ldr.w	r3, [r4, #460]	@ 0x1cc
2ffed7c4:	f023 4300 	bic.w	r3, r3, #2147483648	@ 0x80000000
2ffed7c8:	f8c4 31cc 	str.w	r3, [r4, #460]	@ 0x1cc
2ffed7cc:	f8d4 320c 	ldr.w	r3, [r4, #524]	@ 0x20c
2ffed7d0:	f023 4300 	bic.w	r3, r3, #2147483648	@ 0x80000000
2ffed7d4:	f8c4 320c 	str.w	r3, [r4, #524]	@ 0x20c
2ffed7d8:	f8d4 324c 	ldr.w	r3, [r4, #588]	@ 0x24c
2ffed7dc:	f023 4300 	bic.w	r3, r3, #2147483648	@ 0x80000000
2ffed7e0:	f8c4 324c 	str.w	r3, [r4, #588]	@ 0x24c
2ffed7e4:	f8d4 328c 	ldr.w	r3, [r4, #652]	@ 0x28c
2ffed7e8:	f023 4300 	bic.w	r3, r3, #2147483648	@ 0x80000000
2ffed7ec:	f8c4 328c 	str.w	r3, [r4, #652]	@ 0x28c
2ffed7f0:	f7fc ffc6 	bl	2ffea780 <udelay>
2ffed7f4:	f7fe febc 	bl	2ffec570 <stm32mp1_clk_rcc_regs_lock>
2ffed7f8:	f8d6 30d8 	ldr.w	r3, [r6, #216]	@ 0xd8
2ffed7fc:	f023 7380 	bic.w	r3, r3, #16777216	@ 0x1000000
2ffed800:	f8c6 30d8 	str.w	r3, [r6, #216]	@ 0xd8
2ffed804:	f7fe feba 	bl	2ffec57c <stm32mp1_clk_rcc_regs_unlock>
2ffed808:	6963      	ldr	r3, [r4, #20]
2ffed80a:	200a      	movs	r0, #10
2ffed80c:	f023 4380 	bic.w	r3, r3, #1073741824	@ 0x40000000
2ffed810:	6163      	str	r3, [r4, #20]
2ffed812:	f7fc ffb5 	bl	2ffea780 <udelay>
2ffed816:	f7fe feab 	bl	2ffec570 <stm32mp1_clk_rcc_regs_lock>
2ffed81a:	f006 feac 	bl	2fff4576 <stm32mp_rcc_base>
2ffed81e:	f8d0 30d8 	ldr.w	r3, [r0, #216]	@ 0xd8
2ffed822:	f043 0310 	orr.w	r3, r3, #16
2ffed826:	f8c0 30d8 	str.w	r3, [r0, #216]	@ 0xd8
2ffed82a:	f7fe fea7 	bl	2ffec57c <stm32mp1_clk_rcc_regs_unlock>
2ffed82e:	6963      	ldr	r3, [r4, #20]
2ffed830:	2001      	movs	r0, #1
2ffed832:	f043 4380 	orr.w	r3, r3, #1073741824	@ 0x40000000
2ffed836:	6163      	str	r3, [r4, #20]
2ffed838:	2317      	movs	r3, #23
2ffed83a:	6063      	str	r3, [r4, #4]
2ffed83c:	f7fc ffa0 	bl	2ffea780 <udelay>
2ffed840:	ee1e 1f10 	mrc	15, 0, r1, cr14, cr0, {0}
2ffed844:	ec5a 9f0e 	mrrc	15, 0, r9, sl, cr14
2ffed848:	4a44      	ldr	r2, [pc, #272]	@ (2ffed95c <ddr_sw_self_refresh_exit+0x1e0>)
2ffed84a:	f44f 70fa 	mov.w	r0, #500	@ 0x1f4
2ffed84e:	2300      	movs	r3, #0
2ffed850:	fba1 0100 	umull	r0, r1, r1, r0
2ffed854:	f005 eb30 	blx	2fff2eb8 <__aeabi_uldivmod>
2ffed858:	eb10 0309 	adds.w	r3, r0, r9
2ffed85c:	eb41 020a 	adc.w	r2, r1, sl
2ffed860:	68e1      	ldr	r1, [r4, #12]
2ffed862:	07c9      	lsls	r1, r1, #31
2ffed864:	d568      	bpl.n	2ffed938 <ddr_sw_self_refresh_exit+0x1bc>
2ffed866:	4628      	mov	r0, r5
2ffed868:	f000 fac0 	bl	2ffeddec <stm32mp_ddr_set_qd3_update_conditions>
2ffed86c:	f8d5 31b0 	ldr.w	r3, [r5, #432]	@ 0x1b0
2ffed870:	4628      	mov	r0, r5
2ffed872:	f043 0301 	orr.w	r3, r3, #1
2ffed876:	f8c5 31b0 	str.w	r3, [r5, #432]	@ 0x1b0
2ffed87a:	f000 fadd 	bl	2ffede38 <stm32mp_ddr_unset_qd3_update_conditions>
2ffed87e:	f003 feb5 	bl	2fff15ec <stm32mp_pwr_regs_lock>
2ffed882:	68fb      	ldr	r3, [r7, #12]
2ffed884:	f423 5380 	bic.w	r3, r3, #4096	@ 0x1000
2ffed888:	60fb      	str	r3, [r7, #12]
2ffed88a:	f003 febb 	bl	2fff1604 <stm32mp_pwr_regs_unlock>
2ffed88e:	f8d4 3180 	ldr.w	r3, [r4, #384]	@ 0x180
2ffed892:	4628      	mov	r0, r5
2ffed894:	f023 4300 	bic.w	r3, r3, #2147483648	@ 0x80000000
2ffed898:	f8c4 3180 	str.w	r3, [r4, #384]	@ 0x180
2ffed89c:	6a63      	ldr	r3, [r4, #36]	@ 0x24
2ffed89e:	f023 0308 	bic.w	r3, r3, #8
2ffed8a2:	6263      	str	r3, [r4, #36]	@ 0x24
2ffed8a4:	6a63      	ldr	r3, [r4, #36]	@ 0x24
2ffed8a6:	f043 0302 	orr.w	r3, r3, #2
2ffed8aa:	6263      	str	r3, [r4, #36]	@ 0x24
2ffed8ac:	6a63      	ldr	r3, [r4, #36]	@ 0x24
2ffed8ae:	f423 63e0 	bic.w	r3, r3, #1792	@ 0x700
2ffed8b2:	6263      	str	r3, [r4, #36]	@ 0x24
2ffed8b4:	6a63      	ldr	r3, [r4, #36]	@ 0x24
2ffed8b6:	f423 1370 	bic.w	r3, r3, #3932160	@ 0x3c0000
2ffed8ba:	6263      	str	r3, [r4, #36]	@ 0x24
2ffed8bc:	6aa3      	ldr	r3, [r4, #40]	@ 0x28
2ffed8be:	f023 0304 	bic.w	r3, r3, #4
2ffed8c2:	62a3      	str	r3, [r4, #40]	@ 0x28
2ffed8c4:	6aa3      	ldr	r3, [r4, #40]	@ 0x28
2ffed8c6:	f023 0308 	bic.w	r3, r3, #8
2ffed8ca:	62a3      	str	r3, [r4, #40]	@ 0x28
2ffed8cc:	6ae3      	ldr	r3, [r4, #44]	@ 0x2c
2ffed8ce:	f043 5380 	orr.w	r3, r3, #268435456	@ 0x10000000
2ffed8d2:	62e3      	str	r3, [r4, #44]	@ 0x2c
2ffed8d4:	6ae3      	ldr	r3, [r4, #44]	@ 0x2c
2ffed8d6:	f423 0370 	bic.w	r3, r3, #15728640	@ 0xf00000
2ffed8da:	62e3      	str	r3, [r4, #44]	@ 0x2c
2ffed8dc:	6ae3      	ldr	r3, [r4, #44]	@ 0x2c
2ffed8de:	f023 7380 	bic.w	r3, r3, #16777216	@ 0x1000000
2ffed8e2:	62e3      	str	r3, [r4, #44]	@ 0x2c
2ffed8e4:	6ae3      	ldr	r3, [r4, #44]	@ 0x2c
2ffed8e6:	f423 2370 	bic.w	r3, r3, #983040	@ 0xf0000
2ffed8ea:	62e3      	str	r3, [r4, #44]	@ 0x2c
2ffed8ec:	f006 f9c5 	bl	2fff3c7a <stm32mp_ddr_sw_selfref_exit>
2ffed8f0:	ee1e 1f10 	mrc	15, 0, r1, cr14, cr0, {0}
2ffed8f4:	ec59 8f0e 	mrrc	15, 0, r8, r9, cr14
2ffed8f8:	4a18      	ldr	r2, [pc, #96]	@ (2ffed95c <ddr_sw_self_refresh_exit+0x1e0>)
2ffed8fa:	f44f 70fa 	mov.w	r0, #500	@ 0x1f4
2ffed8fe:	2300      	movs	r3, #0
2ffed900:	4644      	mov	r4, r8
2ffed902:	fba1 0100 	umull	r0, r1, r1, r0
2ffed906:	f005 ead8 	blx	2fff2eb8 <__aeabi_uldivmod>
2ffed90a:	1900      	adds	r0, r0, r4
2ffed90c:	eb41 0109 	adc.w	r1, r1, r9
2ffed910:	686b      	ldr	r3, [r5, #4]
2ffed912:	f003 0307 	and.w	r3, r3, #7
2ffed916:	2b01      	cmp	r3, #1
2ffed918:	d118      	bne.n	2ffed94c <ddr_sw_self_refresh_exit+0x1d0>
2ffed91a:	4628      	mov	r0, r5
2ffed91c:	f006 f951 	bl	2fff3bc2 <stm32mp_ddr_enable_axi_port>
2ffed920:	f7fe fe26 	bl	2ffec570 <stm32mp1_clk_rcc_regs_lock>
2ffed924:	f8d6 30d8 	ldr.w	r3, [r6, #216]	@ 0xd8
2ffed928:	f443 7380 	orr.w	r3, r3, #256	@ 0x100
2ffed92c:	f8c6 30d8 	str.w	r3, [r6, #216]	@ 0xd8
2ffed930:	f7fe fe24 	bl	2ffec57c <stm32mp1_clk_rcc_regs_unlock>
2ffed934:	2000      	movs	r0, #0
2ffed936:	e007      	b.n	2ffed948 <ddr_sw_self_refresh_exit+0x1cc>
2ffed938:	ec51 0f0e 	mrrc	15, 0, r0, r1, cr14
2ffed93c:	4283      	cmp	r3, r0
2ffed93e:	eb72 0101 	sbcs.w	r1, r2, r1
2ffed942:	d28d      	bcs.n	2ffed860 <ddr_sw_self_refresh_exit+0xe4>
2ffed944:	f04f 30ff 	mov.w	r0, #4294967295	@ 0xffffffff
2ffed948:	e8bd 87f0 	ldmia.w	sp!, {r4, r5, r6, r7, r8, r9, sl, pc}
2ffed94c:	ec53 2f0e 	mrrc	15, 0, r2, r3, cr14
2ffed950:	4290      	cmp	r0, r2
2ffed952:	eb71 0303 	sbcs.w	r3, r1, r3
2ffed956:	d2db      	bcs.n	2ffed910 <ddr_sw_self_refresh_exit+0x194>
2ffed958:	e7f4      	b.n	2ffed944 <ddr_sw_self_refresh_exit+0x1c8>
2ffed95a:	bf00      	nop
2ffed95c:	000f4240 	.word	0x000f4240

2ffed960 <ddr_read_sr_mode>:
2ffed960:	b508      	push	{r3, lr}
2ffed962:	f003 fe37 	bl	2fff15d4 <stm32mp_ddrctrl_base>
2ffed966:	6b03      	ldr	r3, [r0, #48]	@ 0x30
2ffed968:	4a02      	ldr	r2, [pc, #8]	@ (2ffed974 <ddr_read_sr_mode+0x14>)
2ffed96a:	f003 0309 	and.w	r3, r3, #9
2ffed96e:	5cd0      	ldrb	r0, [r2, r3]
2ffed970:	bd08      	pop	{r3, pc}
2ffed972:	bf00      	nop
2ffed974:	2fff8ffa 	.word	0x2fff8ffa

2ffed978 <ddr_set_sr_mode>:
2ffed978:	2802      	cmp	r0, #2
2ffed97a:	b538      	push	{r3, r4, r5, lr}
2ffed97c:	d06a      	beq.n	2ffeda54 <ddr_set_sr_mode+0xdc>
2ffed97e:	2803      	cmp	r0, #3
2ffed980:	f000 80a6 	beq.w	2ffedad0 <ddr_set_sr_mode+0x158>
2ffed984:	2801      	cmp	r0, #1
2ffed986:	f040 80e6 	bne.w	2ffedb56 <ddr_set_sr_mode+0x1de>
2ffed98a:	f006 fdf4 	bl	2fff4576 <stm32mp_rcc_base>
2ffed98e:	4604      	mov	r4, r0
2ffed990:	f003 fe20 	bl	2fff15d4 <stm32mp_ddrctrl_base>
2ffed994:	4605      	mov	r5, r0
2ffed996:	f7fe fdeb 	bl	2ffec570 <stm32mp1_clk_rcc_regs_lock>
2ffed99a:	f8d4 30d8 	ldr.w	r3, [r4, #216]	@ 0xd8
2ffed99e:	f043 0302 	orr.w	r3, r3, #2
2ffed9a2:	f8c4 30d8 	str.w	r3, [r4, #216]	@ 0xd8
2ffed9a6:	f8d4 30d8 	ldr.w	r3, [r4, #216]	@ 0xd8
2ffed9aa:	f043 0301 	orr.w	r3, r3, #1
2ffed9ae:	f8c4 30d8 	str.w	r3, [r4, #216]	@ 0xd8
2ffed9b2:	f8d4 30d8 	ldr.w	r3, [r4, #216]	@ 0xd8
2ffed9b6:	f043 0308 	orr.w	r3, r3, #8
2ffed9ba:	f8c4 30d8 	str.w	r3, [r4, #216]	@ 0xd8
2ffed9be:	f8d4 30d8 	ldr.w	r3, [r4, #216]	@ 0xd8
2ffed9c2:	f043 0304 	orr.w	r3, r3, #4
2ffed9c6:	f8c4 30d8 	str.w	r3, [r4, #216]	@ 0xd8
2ffed9ca:	f8d4 30d8 	ldr.w	r3, [r4, #216]	@ 0xd8
2ffed9ce:	f043 0380 	orr.w	r3, r3, #128	@ 0x80
2ffed9d2:	f8c4 30d8 	str.w	r3, [r4, #216]	@ 0xd8
2ffed9d6:	f8d4 30d8 	ldr.w	r3, [r4, #216]	@ 0xd8
2ffed9da:	f443 6380 	orr.w	r3, r3, #1024	@ 0x400
2ffed9de:	f8c4 30d8 	str.w	r3, [r4, #216]	@ 0xd8
2ffed9e2:	f8d4 30d8 	ldr.w	r3, [r4, #216]	@ 0xd8
2ffed9e6:	f043 0340 	orr.w	r3, r3, #64	@ 0x40
2ffed9ea:	f8c4 30d8 	str.w	r3, [r4, #216]	@ 0xd8
2ffed9ee:	f8d4 30d8 	ldr.w	r3, [r4, #216]	@ 0xd8
2ffed9f2:	f443 7300 	orr.w	r3, r3, #512	@ 0x200
2ffed9f6:	f8c4 30d8 	str.w	r3, [r4, #216]	@ 0xd8
2ffed9fa:	f8d4 30d8 	ldr.w	r3, [r4, #216]	@ 0xd8
2ffed9fe:	f043 0310 	orr.w	r3, r3, #16
2ffeda02:	f8c4 30d8 	str.w	r3, [r4, #216]	@ 0xd8
2ffeda06:	f8d4 30d8 	ldr.w	r3, [r4, #216]	@ 0xd8
2ffeda0a:	f423 7380 	bic.w	r3, r3, #256	@ 0x100
2ffeda0e:	f8c4 30d8 	str.w	r3, [r4, #216]	@ 0xd8
2ffeda12:	f8d4 30d8 	ldr.w	r3, [r4, #216]	@ 0xd8
2ffeda16:	f423 03e0 	bic.w	r3, r3, #7340032	@ 0x700000
2ffeda1a:	f8c4 30d8 	str.w	r3, [r4, #216]	@ 0xd8
2ffeda1e:	f7fe fdad 	bl	2ffec57c <stm32mp1_clk_rcc_regs_unlock>
2ffeda22:	4628      	mov	r0, r5
2ffeda24:	f000 f9e2 	bl	2ffeddec <stm32mp_ddr_set_qd3_update_conditions>
2ffeda28:	6bab      	ldr	r3, [r5, #56]	@ 0x38
2ffeda2a:	4628      	mov	r0, r5
2ffeda2c:	f023 0301 	bic.w	r3, r3, #1
2ffeda30:	63ab      	str	r3, [r5, #56]	@ 0x38
2ffeda32:	6b6b      	ldr	r3, [r5, #52]	@ 0x34
2ffeda34:	f423 037f 	bic.w	r3, r3, #16711680	@ 0xff0000
2ffeda38:	f443 3380 	orr.w	r3, r3, #65536	@ 0x10000
2ffeda3c:	636b      	str	r3, [r5, #52]	@ 0x34
2ffeda3e:	f000 f9fb 	bl	2ffede38 <stm32mp_ddr_unset_qd3_update_conditions>
2ffeda42:	6b2b      	ldr	r3, [r5, #48]	@ 0x30
2ffeda44:	f023 0308 	bic.w	r3, r3, #8
2ffeda48:	632b      	str	r3, [r5, #48]	@ 0x30
2ffeda4a:	6b2b      	ldr	r3, [r5, #48]	@ 0x30
2ffeda4c:	f023 0301 	bic.w	r3, r3, #1
2ffeda50:	632b      	str	r3, [r5, #48]	@ 0x30
2ffeda52:	bd38      	pop	{r3, r4, r5, pc}
2ffeda54:	f006 fd8f 	bl	2fff4576 <stm32mp_rcc_base>
2ffeda58:	4604      	mov	r4, r0
2ffeda5a:	f003 fdbb 	bl	2fff15d4 <stm32mp_ddrctrl_base>
2ffeda5e:	4605      	mov	r5, r0
2ffeda60:	f7fe fd86 	bl	2ffec570 <stm32mp1_clk_rcc_regs_lock>
2ffeda64:	f8d4 30d8 	ldr.w	r3, [r4, #216]	@ 0xd8
2ffeda68:	f443 7380 	orr.w	r3, r3, #256	@ 0x100
2ffeda6c:	f8c4 30d8 	str.w	r3, [r4, #216]	@ 0xd8
2ffeda70:	f8d4 30d8 	ldr.w	r3, [r4, #216]	@ 0xd8
2ffeda74:	f023 0302 	bic.w	r3, r3, #2
2ffeda78:	f8c4 30d8 	str.w	r3, [r4, #216]	@ 0xd8
2ffeda7c:	f8d4 30d8 	ldr.w	r3, [r4, #216]	@ 0xd8
2ffeda80:	f023 0308 	bic.w	r3, r3, #8
2ffeda84:	f8c4 30d8 	str.w	r3, [r4, #216]	@ 0xd8
2ffeda88:	f8d4 30d8 	ldr.w	r3, [r4, #216]	@ 0xd8
2ffeda8c:	f043 0320 	orr.w	r3, r3, #32
2ffeda90:	f8c4 30d8 	str.w	r3, [r4, #216]	@ 0xd8
2ffeda94:	f8d4 30d8 	ldr.w	r3, [r4, #216]	@ 0xd8
2ffeda98:	f423 03e0 	bic.w	r3, r3, #7340032	@ 0x700000
2ffeda9c:	f443 1300 	orr.w	r3, r3, #2097152	@ 0x200000
2ffedaa0:	f8c4 30d8 	str.w	r3, [r4, #216]	@ 0xd8
2ffedaa4:	f7fe fd6a 	bl	2ffec57c <stm32mp1_clk_rcc_regs_unlock>
2ffedaa8:	4628      	mov	r0, r5
2ffedaaa:	f000 f99f 	bl	2ffeddec <stm32mp_ddr_set_qd3_update_conditions>
2ffedaae:	6bab      	ldr	r3, [r5, #56]	@ 0x38
2ffedab0:	4628      	mov	r0, r5
2ffedab2:	f043 0301 	orr.w	r3, r3, #1
2ffedab6:	63ab      	str	r3, [r5, #56]	@ 0x38
2ffedab8:	6b6b      	ldr	r3, [r5, #52]	@ 0x34
2ffedaba:	f423 037f 	bic.w	r3, r3, #16711680	@ 0xff0000
2ffedabe:	f443 3380 	orr.w	r3, r3, #65536	@ 0x10000
2ffedac2:	636b      	str	r3, [r5, #52]	@ 0x34
2ffedac4:	f000 f9b8 	bl	2ffede38 <stm32mp_ddr_unset_qd3_update_conditions>
2ffedac8:	6b2b      	ldr	r3, [r5, #48]	@ 0x30
2ffedaca:	f043 0308 	orr.w	r3, r3, #8
2ffedace:	e7bf      	b.n	2ffeda50 <ddr_set_sr_mode+0xd8>
2ffedad0:	f006 fd51 	bl	2fff4576 <stm32mp_rcc_base>
2ffedad4:	4605      	mov	r5, r0
2ffedad6:	f003 fd7d 	bl	2fff15d4 <stm32mp_ddrctrl_base>
2ffedada:	4604      	mov	r4, r0
2ffedadc:	f7fe fd48 	bl	2ffec570 <stm32mp1_clk_rcc_regs_lock>
2ffedae0:	f8d5 30d8 	ldr.w	r3, [r5, #216]	@ 0xd8
2ffedae4:	f443 7380 	orr.w	r3, r3, #256	@ 0x100
2ffedae8:	f8c5 30d8 	str.w	r3, [r5, #216]	@ 0xd8
2ffedaec:	f8d5 30d8 	ldr.w	r3, [r5, #216]	@ 0xd8
2ffedaf0:	f043 0302 	orr.w	r3, r3, #2
2ffedaf4:	f8c5 30d8 	str.w	r3, [r5, #216]	@ 0xd8
2ffedaf8:	f8d5 30d8 	ldr.w	r3, [r5, #216]	@ 0xd8
2ffedafc:	f043 0308 	orr.w	r3, r3, #8
2ffedb00:	f8c5 30d8 	str.w	r3, [r5, #216]	@ 0xd8
2ffedb04:	f8d5 30d8 	ldr.w	r3, [r5, #216]	@ 0xd8
2ffedb08:	f043 0320 	orr.w	r3, r3, #32
2ffedb0c:	f8c5 30d8 	str.w	r3, [r5, #216]	@ 0xd8
2ffedb10:	f8d5 30d8 	ldr.w	r3, [r5, #216]	@ 0xd8
2ffedb14:	f423 03e0 	bic.w	r3, r3, #7340032	@ 0x700000
2ffedb18:	f443 1380 	orr.w	r3, r3, #1048576	@ 0x100000
2ffedb1c:	f8c5 30d8 	str.w	r3, [r5, #216]	@ 0xd8
2ffedb20:	f7fe fd2c 	bl	2ffec57c <stm32mp1_clk_rcc_regs_unlock>
2ffedb24:	4620      	mov	r0, r4
2ffedb26:	f000 f961 	bl	2ffeddec <stm32mp_ddr_set_qd3_update_conditions>
2ffedb2a:	6ba3      	ldr	r3, [r4, #56]	@ 0x38
2ffedb2c:	4620      	mov	r0, r4
2ffedb2e:	f043 0301 	orr.w	r3, r3, #1
2ffedb32:	63a3      	str	r3, [r4, #56]	@ 0x38
2ffedb34:	6b63      	ldr	r3, [r4, #52]	@ 0x34
2ffedb36:	f423 037f 	bic.w	r3, r3, #16711680	@ 0xff0000
2ffedb3a:	f443 3380 	orr.w	r3, r3, #65536	@ 0x10000
2ffedb3e:	6363      	str	r3, [r4, #52]	@ 0x34
2ffedb40:	f000 f97a 	bl	2ffede38 <stm32mp_ddr_unset_qd3_update_conditions>
2ffedb44:	6b23      	ldr	r3, [r4, #48]	@ 0x30
2ffedb46:	f043 0308 	orr.w	r3, r3, #8
2ffedb4a:	6323      	str	r3, [r4, #48]	@ 0x30
2ffedb4c:	6b23      	ldr	r3, [r4, #48]	@ 0x30
2ffedb4e:	f043 0301 	orr.w	r3, r3, #1
2ffedb52:	6323      	str	r3, [r4, #48]	@ 0x30
2ffedb54:	e77d      	b.n	2ffeda52 <ddr_set_sr_mode+0xda>
2ffedb56:	4803      	ldr	r0, [pc, #12]	@ (2ffedb64 <ddr_set_sr_mode+0x1ec>)
2ffedb58:	f7fc fb68 	bl	2ffea22c <tf_log>
2ffedb5c:	f7fc fdfc 	bl	2ffea758 <console_flush>
2ffedb60:	f7fb eb88 	blx	2ffe9274 <el3_panic>
2ffedb64:	2fff732b 	.word	0x2fff732b

2ffedb68 <stm32mp1_ddr_setup>:
2ffedb68:	b570      	push	{r4, r5, r6, lr}
2ffedb6a:	b0ee      	sub	sp, #440	@ 0x1b8
2ffedb6c:	4948      	ldr	r1, [pc, #288]	@ (2ffedc90 <stm32mp1_ddr_setup+0x128>)
2ffedb6e:	2248      	movs	r2, #72	@ 0x48
2ffedb70:	a803      	add	r0, sp, #12
2ffedb72:	f007 f9c2 	bl	2fff4efa <memcpy>
2ffedb76:	a802      	add	r0, sp, #8
2ffedb78:	f003 ff14 	bl	2fff19a4 <fdt_get_address>
2ffedb7c:	2800      	cmp	r0, #0
2ffedb7e:	f000 8084 	beq.w	2ffedc8a <stm32mp1_ddr_setup+0x122>
2ffedb82:	4a44      	ldr	r2, [pc, #272]	@ (2ffedc94 <stm32mp1_ddr_setup+0x12c>)
2ffedb84:	f04f 31ff 	mov.w	r1, #4294967295	@ 0xffffffff
2ffedb88:	9802      	ldr	r0, [sp, #8]
2ffedb8a:	f007 f97f 	bl	2fff4e8c <fdt_node_offset_by_compatible>
2ffedb8e:	1e06      	subs	r6, r0, #0
2ffedb90:	da08      	bge.n	2ffedba4 <stm32mp1_ddr_setup+0x3c>
2ffedb92:	4941      	ldr	r1, [pc, #260]	@ (2ffedc98 <stm32mp1_ddr_setup+0x130>)
2ffedb94:	f06f 0415 	mvn.w	r4, #21
2ffedb98:	4840      	ldr	r0, [pc, #256]	@ (2ffedc9c <stm32mp1_ddr_setup+0x134>)
2ffedb9a:	f7fc fb47 	bl	2ffea22c <tf_log>
2ffedb9e:	4620      	mov	r0, r4
2ffedba0:	b06e      	add	sp, #440	@ 0x1b8
2ffedba2:	bd70      	pop	{r4, r5, r6, pc}
2ffedba4:	9802      	ldr	r0, [sp, #8]
2ffedba6:	ad15      	add	r5, sp, #84	@ 0x54
2ffedba8:	462a      	mov	r2, r5
2ffedbaa:	4631      	mov	r1, r6
2ffedbac:	f000 f960 	bl	2ffede70 <stm32mp_ddr_dt_get_info>
2ffedbb0:	1e04      	subs	r4, r0, #0
2ffedbb2:	dbf4      	blt.n	2ffedb9e <stm32mp1_ddr_setup+0x36>
2ffedbb4:	9802      	ldr	r0, [sp, #8]
2ffedbb6:	2306      	movs	r3, #6
2ffedbb8:	9500      	str	r5, [sp, #0]
2ffedbba:	aa03      	add	r2, sp, #12
2ffedbbc:	4631      	mov	r1, r6
2ffedbbe:	f000 f97f 	bl	2ffedec0 <stm32mp_ddr_dt_get_param>
2ffedbc2:	1e04      	subs	r4, r0, #0
2ffedbc4:	dbeb      	blt.n	2ffedb9e <stm32mp1_ddr_setup+0x36>
2ffedbc6:	2300      	movs	r3, #0
2ffedbc8:	f885 315c 	strb.w	r3, [r5, #348]	@ 0x15c
2ffedbcc:	f006 fd91 	bl	2fff46f2 <stm32mp_is_wakeup_from_standby>
2ffedbd0:	b130      	cbz	r0, 2ffedbe0 <stm32mp1_ddr_setup+0x78>
2ffedbd2:	2301      	movs	r3, #1
2ffedbd4:	f885 315c 	strb.w	r3, [r5, #348]	@ 0x15c
2ffedbd8:	f006 fd66 	bl	2fff46a8 <stm32_get_zdata_from_context>
2ffedbdc:	f8c5 0160 	str.w	r0, [r5, #352]	@ 0x160
2ffedbe0:	4c2f      	ldr	r4, [pc, #188]	@ (2ffedca0 <stm32mp1_ddr_setup+0x138>)
2ffedbe2:	4629      	mov	r1, r5
2ffedbe4:	69e2      	ldr	r2, [r4, #28]
2ffedbe6:	4620      	mov	r0, r4
2ffedbe8:	f8d2 30d8 	ldr.w	r3, [r2, #216]	@ 0xd8
2ffedbec:	f423 7380 	bic.w	r3, r3, #256	@ 0x100
2ffedbf0:	f8c2 30d8 	str.w	r3, [r2, #216]	@ 0xd8
2ffedbf4:	f7ff fb68 	bl	2ffed2c8 <stm32mp1_ddr_init>
2ffedbf8:	69e2      	ldr	r2, [r4, #28]
2ffedbfa:	f8d2 30d8 	ldr.w	r3, [r2, #216]	@ 0xd8
2ffedbfe:	f443 7380 	orr.w	r3, r3, #256	@ 0x100
2ffedc02:	f8c2 30d8 	str.w	r3, [r2, #216]	@ 0xd8
2ffedc06:	68ab      	ldr	r3, [r5, #8]
2ffedc08:	60a3      	str	r3, [r4, #8]
2ffedc0a:	2300      	movs	r3, #0
2ffedc0c:	60e3      	str	r3, [r4, #12]
2ffedc0e:	f006 fcbd 	bl	2fff458c <stm32mp_map_ddr_non_cacheable>
2ffedc12:	b118      	cbz	r0, 2ffedc1c <stm32mp1_ddr_setup+0xb4>
2ffedc14:	f7fc fda0 	bl	2ffea758 <console_flush>
2ffedc18:	f7fb eb2c 	blx	2ffe9274 <el3_panic>
2ffedc1c:	f895 315c 	ldrb.w	r3, [r5, #348]	@ 0x15c
2ffedc20:	b13b      	cbz	r3, 2ffedc32 <stm32mp1_ddr_setup+0xca>
2ffedc22:	f006 f855 	bl	2fff3cd0 <stm32mp_ddr_test_rw_access>
2ffedc26:	4601      	mov	r1, r0
2ffedc28:	b1f0      	cbz	r0, 2ffedc68 <stm32mp1_ddr_setup+0x100>
2ffedc2a:	481e      	ldr	r0, [pc, #120]	@ (2ffedca4 <stm32mp1_ddr_setup+0x13c>)
2ffedc2c:	f7fc fafe 	bl	2ffea22c <tf_log>
2ffedc30:	e7f0      	b.n	2ffedc14 <stm32mp1_ddr_setup+0xac>
2ffedc32:	f006 f85a 	bl	2fff3cea <stm32mp_ddr_test_data_bus>
2ffedc36:	4601      	mov	r1, r0
2ffedc38:	b108      	cbz	r0, 2ffedc3e <stm32mp1_ddr_setup+0xd6>
2ffedc3a:	481b      	ldr	r0, [pc, #108]	@ (2ffedca8 <stm32mp1_ddr_setup+0x140>)
2ffedc3c:	e7f6      	b.n	2ffedc2c <stm32mp1_ddr_setup+0xc4>
2ffedc3e:	68a8      	ldr	r0, [r5, #8]
2ffedc40:	f006 f862 	bl	2fff3d08 <stm32mp_ddr_test_addr_bus>
2ffedc44:	4601      	mov	r1, r0
2ffedc46:	b108      	cbz	r0, 2ffedc4c <stm32mp1_ddr_setup+0xe4>
2ffedc48:	4818      	ldr	r0, [pc, #96]	@ (2ffedcac <stm32mp1_ddr_setup+0x144>)
2ffedc4a:	e7ef      	b.n	2ffedc2c <stm32mp1_ddr_setup+0xc4>
2ffedc4c:	f006 f89f 	bl	2fff3d8e <stm32mp_ddr_check_size>
2ffedc50:	68aa      	ldr	r2, [r5, #8]
2ffedc52:	4601      	mov	r1, r0
2ffedc54:	4282      	cmp	r2, r0
2ffedc56:	d903      	bls.n	2ffedc60 <stm32mp1_ddr_setup+0xf8>
2ffedc58:	4815      	ldr	r0, [pc, #84]	@ (2ffedcb0 <stm32mp1_ddr_setup+0x148>)
2ffedc5a:	f7fc fae7 	bl	2ffea22c <tf_log>
2ffedc5e:	e7d9      	b.n	2ffedc14 <stm32mp1_ddr_setup+0xac>
2ffedc60:	0d02      	lsrs	r2, r0, #20
2ffedc62:	4814      	ldr	r0, [pc, #80]	@ (2ffedcb4 <stm32mp1_ddr_setup+0x14c>)
2ffedc64:	f7fc fae2 	bl	2ffea22c <tf_log>
2ffedc68:	f7ff fe7a 	bl	2ffed960 <ddr_read_sr_mode>
2ffedc6c:	f7ff fe84 	bl	2ffed978 <ddr_set_sr_mode>
2ffedc70:	f006 fc9b 	bl	2fff45aa <stm32mp_unmap_ddr>
2ffedc74:	4604      	mov	r4, r0
2ffedc76:	2800      	cmp	r0, #0
2ffedc78:	d1cc      	bne.n	2ffedc14 <stm32mp1_ddr_setup+0xac>
2ffedc7a:	480f      	ldr	r0, [pc, #60]	@ (2ffedcb8 <stm32mp1_ddr_setup+0x150>)
2ffedc7c:	2101      	movs	r1, #1
2ffedc7e:	f895 315c 	ldrb.w	r3, [r5, #348]	@ 0x15c
2ffedc82:	7003      	strb	r3, [r0, #0]
2ffedc84:	f7fb ebf8 	blx	2ffe9478 <flush_dcache_range>
2ffedc88:	e789      	b.n	2ffedb9e <stm32mp1_ddr_setup+0x36>
2ffedc8a:	f06f 0401 	mvn.w	r4, #1
2ffedc8e:	e786      	b.n	2ffedb9e <stm32mp1_ddr_setup+0x36>
2ffedc90:	2fff54a4 	.word	0x2fff54a4
2ffedc94:	2fff7347 	.word	0x2fff7347
2ffedc98:	2fff9004 	.word	0x2fff9004
2ffedc9c:	2fff7357 	.word	0x2fff7357
2ffedca0:	2fffb290 	.word	0x2fffb290
2ffedca4:	2fff7378 	.word	0x2fff7378
2ffedca8:	2fff73a3 	.word	0x2fff73a3
2ffedcac:	2fff73d4 	.word	0x2fff73d4
2ffedcb0:	2fff7405 	.word	0x2fff7405
2ffedcb4:	2fff7437 	.word	0x2fff7437
2ffedcb8:	2fffbb15 	.word	0x2fffbb15

2ffedcbc <stm32mp1_ddr_clk_enable>:
2ffedcbc:	b510      	push	{r4, lr}
2ffedcbe:	2001      	movs	r0, #1
2ffedcc0:	460c      	mov	r4, r1
2ffedcc2:	f005 fe7e 	bl	2fff39c2 <ddr_enable_clock>
2ffedcc6:	20e0      	movs	r0, #224	@ 0xe0
2ffedcc8:	f7fc fc9c 	bl	2ffea604 <clk_get_rate>
2ffedccc:	f44f 737a 	mov.w	r3, #1000	@ 0x3e8
2ffedcd0:	210a      	movs	r1, #10
2ffedcd2:	4363      	muls	r3, r4
2ffedcd4:	4298      	cmp	r0, r3
2ffedcd6:	bf8c      	ite	hi
2ffedcd8:	1ac2      	subhi	r2, r0, r3
2ffedcda:	1a1a      	subls	r2, r3, r0
2ffedcdc:	fbb3 f3f1 	udiv	r3, r3, r1
2ffedce0:	429a      	cmp	r2, r3
2ffedce2:	d90a      	bls.n	2ffedcfa <stm32mp1_ddr_clk_enable+0x3e>
2ffedce4:	f44f 727a 	mov.w	r2, #1000	@ 0x3e8
2ffedce8:	4621      	mov	r1, r4
2ffedcea:	fbb0 f2f2 	udiv	r2, r0, r2
2ffedcee:	4804      	ldr	r0, [pc, #16]	@ (2ffedd00 <stm32mp1_ddr_clk_enable+0x44>)
2ffedcf0:	f7fc fa9c 	bl	2ffea22c <tf_log>
2ffedcf4:	f04f 30ff 	mov.w	r0, #4294967295	@ 0xffffffff
2ffedcf8:	bd10      	pop	{r4, pc}
2ffedcfa:	2000      	movs	r0, #0
2ffedcfc:	e7fc      	b.n	2ffedcf8 <stm32mp1_ddr_clk_enable+0x3c>
2ffedcfe:	bf00      	nop
2ffedd00:	2fff7456 	.word	0x2fff7456

2ffedd04 <stm32mp1_ddr_is_restored>:
2ffedd04:	4b01      	ldr	r3, [pc, #4]	@ (2ffedd0c <stm32mp1_ddr_is_restored+0x8>)
2ffedd06:	7818      	ldrb	r0, [r3, #0]
2ffedd08:	4770      	bx	lr
2ffedd0a:	bf00      	nop
2ffedd0c:	2fffbb15 	.word	0x2fffbb15

2ffedd10 <stm32mp1_ddr_probe>:
2ffedd10:	b510      	push	{r4, lr}
2ffedd12:	f003 fc5f 	bl	2fff15d4 <stm32mp_ddrctrl_base>
2ffedd16:	4c0c      	ldr	r4, [pc, #48]	@ (2ffedd48 <stm32mp1_ddr_probe+0x38>)
2ffedd18:	6120      	str	r0, [r4, #16]
2ffedd1a:	f003 fc5f 	bl	2fff15dc <stm32mp_ddrphyc_base>
2ffedd1e:	6160      	str	r0, [r4, #20]
2ffedd20:	f003 fc60 	bl	2fff15e4 <stm32mp_pwr_base>
2ffedd24:	61a0      	str	r0, [r4, #24]
2ffedd26:	f006 fc26 	bl	2fff4576 <stm32mp_rcc_base>
2ffedd2a:	61e0      	str	r0, [r4, #28]
2ffedd2c:	f04f 4240 	mov.w	r2, #3221225472	@ 0xc0000000
2ffedd30:	2300      	movs	r3, #0
2ffedd32:	e9c4 2300 	strd	r2, r3, [r4]
2ffedd36:	2200      	movs	r2, #0
2ffedd38:	2300      	movs	r3, #0
2ffedd3a:	e9c4 2302 	strd	r2, r3, [r4, #8]
2ffedd3e:	e8bd 4010 	ldmia.w	sp!, {r4, lr}
2ffedd42:	f7ff bf11 	b.w	2ffedb68 <stm32mp1_ddr_setup>
2ffedd46:	bf00      	nop
2ffedd48:	2fffb290 	.word	0x2fffb290

2ffedd4c <stm32mp_ddr_set_reg>:
2ffedd4c:	b5f8      	push	{r3, r4, r5, r6, r7, lr}
2ffedd4e:	eb03 1301 	add.w	r3, r3, r1, lsl #4
2ffedd52:	68d9      	ldr	r1, [r3, #12]
2ffedd54:	7a1d      	ldrb	r5, [r3, #8]
2ffedd56:	2901      	cmp	r1, #1
2ffedd58:	6859      	ldr	r1, [r3, #4]
2ffedd5a:	f04f 0300 	mov.w	r3, #0
2ffedd5e:	bf0c      	ite	eq
2ffedd60:	6940      	ldreq	r0, [r0, #20]
2ffedd62:	6900      	ldrne	r0, [r0, #16]
2ffedd64:	1c8e      	adds	r6, r1, #2
2ffedd66:	42ab      	cmp	r3, r5
2ffedd68:	d300      	bcc.n	2ffedd6c <stm32mp_ddr_set_reg+0x20>
2ffedd6a:	bdf8      	pop	{r3, r4, r5, r6, r7, pc}
2ffedd6c:	f816 4023 	ldrb.w	r4, [r6, r3, lsl #2]
2ffedd70:	f831 7023 	ldrh.w	r7, [r1, r3, lsl #2]
2ffedd74:	2cff      	cmp	r4, #255	@ 0xff
2ffedd76:	d106      	bne.n	2ffedd86 <stm32mp_ddr_set_reg+0x3a>
2ffedd78:	4805      	ldr	r0, [pc, #20]	@ (2ffedd90 <stm32mp_ddr_set_reg+0x44>)
2ffedd7a:	f7fc fa57 	bl	2ffea22c <tf_log>
2ffedd7e:	f7fc fceb 	bl	2ffea758 <console_flush>
2ffedd82:	f7fb ea78 	blx	2ffe9274 <el3_panic>
2ffedd86:	5914      	ldr	r4, [r2, r4]
2ffedd88:	3301      	adds	r3, #1
2ffedd8a:	503c      	str	r4, [r7, r0]
2ffedd8c:	e7eb      	b.n	2ffedd66 <stm32mp_ddr_set_reg+0x1a>
2ffedd8e:	bf00      	nop
2ffedd90:	2fff74ce 	.word	0x2fff74ce

2ffedd94 <stm32mp_ddr_sw_selfref_entry>:
2ffedd94:	b5f8      	push	{r3, r4, r5, r6, r7, lr}
2ffedd96:	4604      	mov	r4, r0
2ffedd98:	6b03      	ldr	r3, [r0, #48]	@ 0x30
2ffedd9a:	f043 0320 	orr.w	r3, r3, #32
2ffedd9e:	6303      	str	r3, [r0, #48]	@ 0x30
2ffedda0:	ee1e 1f10 	mrc	15, 0, r1, cr14, cr0, {0}
2ffedda4:	ec57 6f0e 	mrrc	15, 0, r6, r7, cr14
2ffedda8:	4a0f      	ldr	r2, [pc, #60]	@ (2ffedde8 <stm32mp_ddr_sw_selfref_entry+0x54>)
2ffeddaa:	f44f 70fa 	mov.w	r0, #500	@ 0x1f4
2ffeddae:	2300      	movs	r3, #0
2ffeddb0:	fba1 0100 	umull	r0, r1, r1, r0
2ffeddb4:	f005 e880 	blx	2fff2eb8 <__aeabi_uldivmod>
2ffeddb8:	1983      	adds	r3, r0, r6
2ffeddba:	eb41 0107 	adc.w	r1, r1, r7
2ffeddbe:	ec57 6f0e 	mrrc	15, 0, r6, r7, cr14
2ffeddc2:	42b3      	cmp	r3, r6
2ffeddc4:	eb71 0207 	sbcs.w	r2, r1, r7
2ffeddc8:	d202      	bcs.n	2ffeddd0 <stm32mp_ddr_sw_selfref_entry+0x3c>
2ffeddca:	f04f 30ff 	mov.w	r0, #4294967295	@ 0xffffffff
2ffeddce:	bdf8      	pop	{r3, r4, r5, r6, r7, pc}
2ffeddd0:	6862      	ldr	r2, [r4, #4]
2ffeddd2:	f002 0007 	and.w	r0, r2, #7
2ffeddd6:	2803      	cmp	r0, #3
2ffeddd8:	d1f1      	bne.n	2ffeddbe <stm32mp_ddr_sw_selfref_entry+0x2a>
2ffeddda:	f002 0230 	and.w	r2, r2, #48	@ 0x30
2ffeddde:	2a20      	cmp	r2, #32
2ffedde0:	d1ed      	bne.n	2ffeddbe <stm32mp_ddr_sw_selfref_entry+0x2a>
2ffedde2:	2000      	movs	r0, #0
2ffedde4:	e7f3      	b.n	2ffeddce <stm32mp_ddr_sw_selfref_entry+0x3a>
2ffedde6:	bf00      	nop
2ffedde8:	000f4240 	.word	0x000f4240

2ffeddec <stm32mp_ddr_set_qd3_update_conditions>:
2ffeddec:	f8d0 3490 	ldr.w	r3, [r0, #1168]	@ 0x490
2ffeddf0:	b510      	push	{r4, lr}
2ffeddf2:	4604      	mov	r4, r0
2ffeddf4:	07da      	lsls	r2, r3, #31
2ffeddf6:	d509      	bpl.n	2ffede0c <stm32mp_ddr_set_qd3_update_conditions+0x20>
2ffeddf8:	f005 fef0 	bl	2fff3bdc <stm32mp_ddr_disable_axi_port>
2ffeddfc:	b118      	cbz	r0, 2ffede06 <stm32mp_ddr_set_qd3_update_conditions+0x1a>
2ffeddfe:	f7fc fcab 	bl	2ffea758 <console_flush>
2ffede02:	f7fb ea38 	blx	2ffe9274 <el3_panic>
2ffede06:	4b0a      	ldr	r3, [pc, #40]	@ (2ffede30 <stm32mp_ddr_set_qd3_update_conditions+0x44>)
2ffede08:	2201      	movs	r2, #1
2ffede0a:	701a      	strb	r2, [r3, #0]
2ffede0c:	f8d4 3304 	ldr.w	r3, [r4, #772]	@ 0x304
2ffede10:	079b      	lsls	r3, r3, #30
2ffede12:	d405      	bmi.n	2ffede20 <stm32mp_ddr_set_qd3_update_conditions+0x34>
2ffede14:	4620      	mov	r0, r4
2ffede16:	f005 ff0b 	bl	2fff3c30 <stm32mp_ddr_disable_host_interface>
2ffede1a:	4b06      	ldr	r3, [pc, #24]	@ (2ffede34 <stm32mp_ddr_set_qd3_update_conditions+0x48>)
2ffede1c:	2201      	movs	r2, #1
2ffede1e:	701a      	strb	r2, [r3, #0]
2ffede20:	f8d4 3320 	ldr.w	r3, [r4, #800]	@ 0x320
2ffede24:	f023 0301 	bic.w	r3, r3, #1
2ffede28:	f8c4 3320 	str.w	r3, [r4, #800]	@ 0x320
2ffede2c:	bd10      	pop	{r4, pc}
2ffede2e:	bf00      	nop
2ffede30:	2fffbb17 	.word	0x2fffbb17
2ffede34:	2fffbb16 	.word	0x2fffbb16

2ffede38 <stm32mp_ddr_unset_qd3_update_conditions>:
2ffede38:	b510      	push	{r4, lr}
2ffede3a:	4604      	mov	r4, r0
2ffede3c:	f005 fea4 	bl	2fff3b88 <stm32mp_ddr_wait_sw_done_ack>
2ffede40:	4a09      	ldr	r2, [pc, #36]	@ (2ffede68 <stm32mp_ddr_unset_qd3_update_conditions+0x30>)
2ffede42:	7813      	ldrb	r3, [r2, #0]
2ffede44:	b13b      	cbz	r3, 2ffede56 <stm32mp_ddr_unset_qd3_update_conditions+0x1e>
2ffede46:	f8d4 3304 	ldr.w	r3, [r4, #772]	@ 0x304
2ffede4a:	f023 0302 	bic.w	r3, r3, #2
2ffede4e:	f8c4 3304 	str.w	r3, [r4, #772]	@ 0x304
2ffede52:	2300      	movs	r3, #0
2ffede54:	7013      	strb	r3, [r2, #0]
2ffede56:	4a05      	ldr	r2, [pc, #20]	@ (2ffede6c <stm32mp_ddr_unset_qd3_update_conditions+0x34>)
2ffede58:	7813      	ldrb	r3, [r2, #0]
2ffede5a:	b123      	cbz	r3, 2ffede66 <stm32mp_ddr_unset_qd3_update_conditions+0x2e>
2ffede5c:	4620      	mov	r0, r4
2ffede5e:	f005 feb0 	bl	2fff3bc2 <stm32mp_ddr_enable_axi_port>
2ffede62:	2300      	movs	r3, #0
2ffede64:	7013      	strb	r3, [r2, #0]
2ffede66:	bd10      	pop	{r4, pc}
2ffede68:	2fffbb16 	.word	0x2fffbb16
2ffede6c:	2fffbb17 	.word	0x2fffbb17

2ffede70 <stm32mp_ddr_dt_get_info>:
2ffede70:	b570      	push	{r4, r5, r6, lr}
2ffede72:	1d13      	adds	r3, r2, #4
2ffede74:	4614      	mov	r4, r2
2ffede76:	4605      	mov	r5, r0
2ffede78:	4a0e      	ldr	r2, [pc, #56]	@ (2ffedeb4 <stm32mp_ddr_dt_get_info+0x44>)
2ffede7a:	460e      	mov	r6, r1
2ffede7c:	f005 fbfb 	bl	2fff3676 <fdt_read_uint32>
2ffede80:	2800      	cmp	r0, #0
2ffede82:	da02      	bge.n	2ffede8a <stm32mp_ddr_dt_get_info+0x1a>
2ffede84:	f06f 0015 	mvn.w	r0, #21
2ffede88:	bd70      	pop	{r4, r5, r6, pc}
2ffede8a:	f003 fe5b 	bl	2fff1b44 <dt_get_ddr_size>
2ffede8e:	60a0      	str	r0, [r4, #8]
2ffede90:	2800      	cmp	r0, #0
2ffede92:	d0f7      	beq.n	2ffede84 <stm32mp_ddr_dt_get_info+0x14>
2ffede94:	4a08      	ldr	r2, [pc, #32]	@ (2ffedeb8 <stm32mp_ddr_dt_get_info+0x48>)
2ffede96:	4631      	mov	r1, r6
2ffede98:	2300      	movs	r3, #0
2ffede9a:	4628      	mov	r0, r5
2ffede9c:	f006 fec1 	bl	2fff4c22 <fdt_getprop>
2ffedea0:	6020      	str	r0, [r4, #0]
2ffedea2:	4601      	mov	r1, r0
2ffedea4:	2800      	cmp	r0, #0
2ffedea6:	d0ed      	beq.n	2ffede84 <stm32mp_ddr_dt_get_info+0x14>
2ffedea8:	4804      	ldr	r0, [pc, #16]	@ (2ffedebc <stm32mp_ddr_dt_get_info+0x4c>)
2ffedeaa:	f7fc f9bf 	bl	2ffea22c <tf_log>
2ffedeae:	2000      	movs	r0, #0
2ffedeb0:	e7ea      	b.n	2ffede88 <stm32mp_ddr_dt_get_info+0x18>
2ffedeb2:	bf00      	nop
2ffedeb4:	2fff74e9 	.word	0x2fff74e9
2ffedeb8:	2fff74f6 	.word	0x2fff74f6
2ffedebc:	2fff7502 	.word	0x2fff7502

2ffedec0 <stm32mp_ddr_dt_get_param>:
2ffedec0:	e92d 47f3 	stmdb	sp!, {r0, r1, r4, r5, r6, r7, r8, r9, sl, lr}
2ffedec4:	4680      	mov	r8, r0
2ffedec6:	9d0a      	ldr	r5, [sp, #40]	@ 0x28
2ffedec8:	468a      	mov	sl, r1
2ffedeca:	461e      	mov	r6, r3
2ffedecc:	4614      	mov	r4, r2
2ffedece:	2700      	movs	r7, #0
2ffeded0:	42b7      	cmp	r7, r6
2ffeded2:	d101      	bne.n	2ffeded8 <stm32mp_ddr_dt_get_param+0x18>
2ffeded4:	2000      	movs	r0, #0
2ffeded6:	e014      	b.n	2ffedf02 <stm32mp_ddr_dt_get_param+0x42>
2ffeded8:	6863      	ldr	r3, [r4, #4]
2ffededa:	46a1      	mov	r9, r4
2ffededc:	4651      	mov	r1, sl
2ffedede:	4640      	mov	r0, r8
2ffedee0:	442b      	add	r3, r5
2ffedee2:	9300      	str	r3, [sp, #0]
2ffedee4:	68a3      	ldr	r3, [r4, #8]
2ffedee6:	f854 2b0c 	ldr.w	r2, [r4], #12
2ffedeea:	f7fc f857 	bl	2ffe9f9c <fdt_read_uint32_array>
2ffedeee:	4603      	mov	r3, r0
2ffedef0:	b150      	cbz	r0, 2ffedf08 <stm32mp_ddr_dt_get_param+0x48>
2ffedef2:	4806      	ldr	r0, [pc, #24]	@ (2ffedf0c <stm32mp_ddr_dt_get_param+0x4c>)
2ffedef4:	f8d9 2000 	ldr.w	r2, [r9]
2ffedef8:	4905      	ldr	r1, [pc, #20]	@ (2ffedf10 <stm32mp_ddr_dt_get_param+0x50>)
2ffedefa:	f7fc f997 	bl	2ffea22c <tf_log>
2ffedefe:	f06f 0015 	mvn.w	r0, #21
2ffedf02:	b002      	add	sp, #8
2ffedf04:	e8bd 87f0 	ldmia.w	sp!, {r4, r5, r6, r7, r8, r9, sl, pc}
2ffedf08:	3701      	adds	r7, #1
2ffedf0a:	e7e1      	b.n	2ffeded0 <stm32mp_ddr_dt_get_param+0x10>
2ffedf0c:	2fff750c 	.word	0x2fff750c
2ffedf10:	2fff9017 	.word	0x2fff9017

2ffedf14 <set_gpio.isra.0>:
2ffedf14:	e92d 4ff7 	stmdb	sp!, {r0, r1, r2, r4, r5, r6, r7, r8, r9, sl, fp, lr}
2ffedf18:	460c      	mov	r4, r1
2ffedf1a:	9001      	str	r0, [sp, #4]
2ffedf1c:	4616      	mov	r6, r2
2ffedf1e:	461d      	mov	r5, r3
2ffedf20:	e9dd 980c 	ldrd	r9, r8, [sp, #48]	@ 0x30
2ffedf24:	e9dd 7a0e 	ldrd	r7, sl, [sp, #56]	@ 0x38
2ffedf28:	f004 fdae 	bl	2fff2a88 <stm32_get_gpio_bank_base>
2ffedf2c:	4683      	mov	fp, r0
2ffedf2e:	9801      	ldr	r0, [sp, #4]
2ffedf30:	f004 fdce 	bl	2fff2ad0 <stm32_get_gpio_bank_clock>
2ffedf34:	9001      	str	r0, [sp, #4]
2ffedf36:	2c0f      	cmp	r4, #15
2ffedf38:	d903      	bls.n	2ffedf42 <set_gpio.isra.0+0x2e>
2ffedf3a:	4831      	ldr	r0, [pc, #196]	@ (2ffee000 <set_gpio.isra.0+0xec>)
2ffedf3c:	21ea      	movs	r1, #234	@ 0xea
2ffedf3e:	f005 f92b 	bl	2fff3198 <__assert>
2ffedf42:	40a5      	lsls	r5, r4
2ffedf44:	f7fc fb3a 	bl	2ffea5bc <clk_enable>
2ffedf48:	ea4f 0c44 	mov.w	ip, r4, lsl #1
2ffedf4c:	2203      	movs	r2, #3
2ffedf4e:	f8db 1000 	ldr.w	r1, [fp]
2ffedf52:	2001      	movs	r0, #1
2ffedf54:	fa02 f20c 	lsl.w	r2, r2, ip
2ffedf58:	2c07      	cmp	r4, #7
2ffedf5a:	ea21 0102 	bic.w	r1, r1, r2
2ffedf5e:	fa06 f60c 	lsl.w	r6, r6, ip
2ffedf62:	ea46 0601 	orr.w	r6, r6, r1
2ffedf66:	f8cb 6000 	str.w	r6, [fp]
2ffedf6a:	f8db 6004 	ldr.w	r6, [fp, #4]
2ffedf6e:	fa00 f004 	lsl.w	r0, r0, r4
2ffedf72:	ea26 0600 	bic.w	r6, r6, r0
2ffedf76:	ea45 0506 	orr.w	r5, r5, r6
2ffedf7a:	f8cb 5004 	str.w	r5, [fp, #4]
2ffedf7e:	ea6f 0100 	mvn.w	r1, r0
2ffedf82:	f8db 0008 	ldr.w	r0, [fp, #8]
2ffedf86:	fa09 f90c 	lsl.w	r9, r9, ip
2ffedf8a:	ea20 0002 	bic.w	r0, r0, r2
2ffedf8e:	ea49 0000 	orr.w	r0, r9, r0
2ffedf92:	f8cb 0008 	str.w	r0, [fp, #8]
2ffedf96:	f8db 000c 	ldr.w	r0, [fp, #12]
2ffedf9a:	fa08 f80c 	lsl.w	r8, r8, ip
2ffedf9e:	ea20 0202 	bic.w	r2, r0, r2
2ffedfa2:	ea48 0202 	orr.w	r2, r8, r2
2ffedfa6:	f8cb 200c 	str.w	r2, [fp, #12]
2ffedfaa:	f04f 020f 	mov.w	r2, #15
2ffedfae:	d817      	bhi.n	2ffedfe0 <set_gpio.isra.0+0xcc>
2ffedfb0:	00a5      	lsls	r5, r4, #2
2ffedfb2:	f8db 0020 	ldr.w	r0, [fp, #32]
2ffedfb6:	40aa      	lsls	r2, r5
2ffedfb8:	ea20 0202 	bic.w	r2, r0, r2
2ffedfbc:	fa0a f505 	lsl.w	r5, sl, r5
2ffedfc0:	432a      	orrs	r2, r5
2ffedfc2:	f8cb 2020 	str.w	r2, [fp, #32]
2ffedfc6:	f8db 2014 	ldr.w	r2, [fp, #20]
2ffedfca:	40a7      	lsls	r7, r4
2ffedfcc:	9801      	ldr	r0, [sp, #4]
2ffedfce:	4011      	ands	r1, r2
2ffedfd0:	430f      	orrs	r7, r1
2ffedfd2:	f8cb 7014 	str.w	r7, [fp, #20]
2ffedfd6:	b003      	add	sp, #12
2ffedfd8:	e8bd 4ff0 	ldmia.w	sp!, {r4, r5, r6, r7, r8, r9, sl, fp, lr}
2ffedfdc:	f7fc bb00 	b.w	2ffea5e0 <clk_disable>
2ffedfe0:	f8db 0024 	ldr.w	r0, [fp, #36]	@ 0x24
2ffedfe4:	f1a4 0508 	sub.w	r5, r4, #8
2ffedfe8:	00ad      	lsls	r5, r5, #2
2ffedfea:	40aa      	lsls	r2, r5
2ffedfec:	ea20 0202 	bic.w	r2, r0, r2
2ffedff0:	fa0a fa05 	lsl.w	sl, sl, r5
2ffedff4:	ea42 020a 	orr.w	r2, r2, sl
2ffedff8:	f8cb 2024 	str.w	r2, [fp, #36]	@ 0x24
2ffedffc:	e7e3      	b.n	2ffedfc6 <set_gpio.isra.0+0xb2>
2ffedffe:	bf00      	nop
2ffee000:	2fff752b 	.word	0x2fff752b

2ffee004 <dt_set_pinctrl_config>:
2ffee004:	e92d 4ff0 	stmdb	sp!, {r4, r5, r6, r7, r8, r9, sl, fp, lr}
2ffee008:	b093      	sub	sp, #76	@ 0x4c
2ffee00a:	4604      	mov	r4, r0
2ffee00c:	a810      	add	r0, sp, #64	@ 0x40
2ffee00e:	f003 fcc9 	bl	2fff19a4 <fdt_get_address>
2ffee012:	b920      	cbnz	r0, 2ffee01e <dt_set_pinctrl_config+0x1a>
2ffee014:	f04f 30ff 	mov.w	r0, #4294967295	@ 0xffffffff
2ffee018:	b013      	add	sp, #76	@ 0x4c
2ffee01a:	e8bd 8ff0 	ldmia.w	sp!, {r4, r5, r6, r7, r8, r9, sl, fp, pc}
2ffee01e:	4620      	mov	r0, r4
2ffee020:	f003 fcda 	bl	2fff19d8 <fdt_get_status>
2ffee024:	2800      	cmp	r0, #0
2ffee026:	d0f5      	beq.n	2ffee014 <dt_set_pinctrl_config+0x10>
2ffee028:	4a7a      	ldr	r2, [pc, #488]	@ (2ffee214 <dt_set_pinctrl_config+0x210>)
2ffee02a:	ab0f      	add	r3, sp, #60	@ 0x3c
2ffee02c:	9810      	ldr	r0, [sp, #64]	@ 0x40
2ffee02e:	4621      	mov	r1, r4
2ffee030:	f006 fdf7 	bl	2fff4c22 <fdt_getprop>
2ffee034:	9006      	str	r0, [sp, #24]
2ffee036:	2800      	cmp	r0, #0
2ffee038:	d0ec      	beq.n	2ffee014 <dt_set_pinctrl_config+0x10>
2ffee03a:	f04f 0a00 	mov.w	sl, #0
2ffee03e:	9b0f      	ldr	r3, [sp, #60]	@ 0x3c
2ffee040:	ebba 0f93 	cmp.w	sl, r3, lsr #2
2ffee044:	d301      	bcc.n	2ffee04a <dt_set_pinctrl_config+0x46>
2ffee046:	2000      	movs	r0, #0
2ffee048:	e7e6      	b.n	2ffee018 <dt_set_pinctrl_config+0x14>
2ffee04a:	9b06      	ldr	r3, [sp, #24]
2ffee04c:	f853 002a 	ldr.w	r0, [r3, sl, lsl #2]
2ffee050:	f005 feb4 	bl	2fff3dbc <fdt32_to_cpu>
2ffee054:	4601      	mov	r1, r0
2ffee056:	9810      	ldr	r0, [sp, #64]	@ 0x40
2ffee058:	f006 fea1 	bl	2fff4d9e <fdt_node_offset_by_phandle>
2ffee05c:	1e01      	subs	r1, r0, #0
2ffee05e:	dbd9      	blt.n	2ffee014 <dt_set_pinctrl_config+0x10>
2ffee060:	9810      	ldr	r0, [sp, #64]	@ 0x40
2ffee062:	f006 fc6d 	bl	2fff4940 <fdt_first_subnode>
2ffee066:	2800      	cmp	r0, #0
2ffee068:	4605      	mov	r5, r0
2ffee06a:	da02      	bge.n	2ffee072 <dt_set_pinctrl_config+0x6e>
2ffee06c:	f10a 0a01 	add.w	sl, sl, #1
2ffee070:	e7e5      	b.n	2ffee03e <dt_set_pinctrl_config+0x3a>
2ffee072:	9e10      	ldr	r6, [sp, #64]	@ 0x40
2ffee074:	ab11      	add	r3, sp, #68	@ 0x44
2ffee076:	4a68      	ldr	r2, [pc, #416]	@ (2ffee218 <dt_set_pinctrl_config+0x214>)
2ffee078:	4629      	mov	r1, r5
2ffee07a:	4630      	mov	r0, r6
2ffee07c:	f006 fdd1 	bl	2fff4c22 <fdt_getprop>
2ffee080:	9007      	str	r0, [sp, #28]
2ffee082:	2800      	cmp	r0, #0
2ffee084:	d0c6      	beq.n	2ffee014 <dt_set_pinctrl_config+0x10>
2ffee086:	4629      	mov	r1, r5
2ffee088:	4630      	mov	r0, r6
2ffee08a:	f006 fe78 	bl	2fff4d7e <fdt_parent_offset>
2ffee08e:	4601      	mov	r1, r0
2ffee090:	4630      	mov	r0, r6
2ffee092:	f006 fe74 	bl	2fff4d7e <fdt_parent_offset>
2ffee096:	1e03      	subs	r3, r0, #0
2ffee098:	930a      	str	r3, [sp, #40]	@ 0x28
2ffee09a:	dbbb      	blt.n	2ffee014 <dt_set_pinctrl_config+0x10>
2ffee09c:	4a5f      	ldr	r2, [pc, #380]	@ (2ffee21c <dt_set_pinctrl_config+0x218>)
2ffee09e:	2300      	movs	r3, #0
2ffee0a0:	4629      	mov	r1, r5
2ffee0a2:	4630      	mov	r0, r6
2ffee0a4:	f006 fdbd 	bl	2fff4c22 <fdt_getprop>
2ffee0a8:	b110      	cbz	r0, 2ffee0b0 <dt_set_pinctrl_config+0xac>
2ffee0aa:	6800      	ldr	r0, [r0, #0]
2ffee0ac:	f005 fe86 	bl	2fff3dbc <fdt32_to_cpu>
2ffee0b0:	9008      	str	r0, [sp, #32]
2ffee0b2:	2300      	movs	r3, #0
2ffee0b4:	4a5a      	ldr	r2, [pc, #360]	@ (2ffee220 <dt_set_pinctrl_config+0x21c>)
2ffee0b6:	4629      	mov	r1, r5
2ffee0b8:	4630      	mov	r0, r6
2ffee0ba:	f006 fdb2 	bl	2fff4c22 <fdt_getprop>
2ffee0be:	4603      	mov	r3, r0
2ffee0c0:	b9a0      	cbnz	r0, 2ffee0ec <dt_set_pinctrl_config+0xe8>
2ffee0c2:	4a58      	ldr	r2, [pc, #352]	@ (2ffee224 <dt_set_pinctrl_config+0x220>)
2ffee0c4:	4629      	mov	r1, r5
2ffee0c6:	4630      	mov	r0, r6
2ffee0c8:	f006 fdab 	bl	2fff4c22 <fdt_getprop>
2ffee0cc:	3800      	subs	r0, #0
2ffee0ce:	bf18      	it	ne
2ffee0d0:	2001      	movne	r0, #1
2ffee0d2:	0043      	lsls	r3, r0, #1
2ffee0d4:	9309      	str	r3, [sp, #36]	@ 0x24
2ffee0d6:	f04f 0b00 	mov.w	fp, #0
2ffee0da:	9b11      	ldr	r3, [sp, #68]	@ 0x44
2ffee0dc:	ebbb 0f93 	cmp.w	fp, r3, lsr #2
2ffee0e0:	d306      	bcc.n	2ffee0f0 <dt_set_pinctrl_config+0xec>
2ffee0e2:	9810      	ldr	r0, [sp, #64]	@ 0x40
2ffee0e4:	4629      	mov	r1, r5
2ffee0e6:	f006 fc3e 	bl	2fff4966 <fdt_next_subnode>
2ffee0ea:	e7bc      	b.n	2ffee066 <dt_set_pinctrl_config+0x62>
2ffee0ec:	2301      	movs	r3, #1
2ffee0ee:	e7f1      	b.n	2ffee0d4 <dt_set_pinctrl_config+0xd0>
2ffee0f0:	9b07      	ldr	r3, [sp, #28]
2ffee0f2:	f853 002b 	ldr.w	r0, [r3, fp, lsl #2]
2ffee0f6:	f005 fe61 	bl	2fff3dbc <fdt32_to_cpu>
2ffee0fa:	f3c0 3304 	ubfx	r3, r0, #12, #5
2ffee0fe:	b2c4      	uxtb	r4, r0
2ffee100:	9305      	str	r3, [sp, #20]
2ffee102:	2c10      	cmp	r4, #16
2ffee104:	f3c0 2303 	ubfx	r3, r0, #8, #4
2ffee108:	930b      	str	r3, [sp, #44]	@ 0x2c
2ffee10a:	d832      	bhi.n	2ffee172 <dt_set_pinctrl_config+0x16e>
2ffee10c:	2c00      	cmp	r4, #0
2ffee10e:	d136      	bne.n	2ffee17e <dt_set_pinctrl_config+0x17a>
2ffee110:	46a0      	mov	r8, r4
2ffee112:	4a45      	ldr	r2, [pc, #276]	@ (2ffee228 <dt_set_pinctrl_config+0x224>)
2ffee114:	2300      	movs	r3, #0
2ffee116:	4629      	mov	r1, r5
2ffee118:	4630      	mov	r0, r6
2ffee11a:	f006 fd82 	bl	2fff4c22 <fdt_getprop>
2ffee11e:	1e03      	subs	r3, r0, #0
2ffee120:	4629      	mov	r1, r5
2ffee122:	4a42      	ldr	r2, [pc, #264]	@ (2ffee22c <dt_set_pinctrl_config+0x228>)
2ffee124:	bf18      	it	ne
2ffee126:	2301      	movne	r3, #1
2ffee128:	930c      	str	r3, [sp, #48]	@ 0x30
2ffee12a:	4630      	mov	r0, r6
2ffee12c:	2300      	movs	r3, #0
2ffee12e:	f006 fd78 	bl	2fff4c22 <fdt_getprop>
2ffee132:	4607      	mov	r7, r0
2ffee134:	b108      	cbz	r0, 2ffee13a <dt_set_pinctrl_config+0x136>
2ffee136:	b344      	cbz	r4, 2ffee18a <dt_set_pinctrl_config+0x186>
2ffee138:	2700      	movs	r7, #0
2ffee13a:	4a3d      	ldr	r2, [pc, #244]	@ (2ffee230 <dt_set_pinctrl_config+0x22c>)
2ffee13c:	2300      	movs	r3, #0
2ffee13e:	4629      	mov	r1, r5
2ffee140:	4630      	mov	r0, r6
2ffee142:	f006 fd6e 	bl	2fff4c22 <fdt_getprop>
2ffee146:	b110      	cbz	r0, 2ffee14e <dt_set_pinctrl_config+0x14a>
2ffee148:	b90c      	cbnz	r4, 2ffee14e <dt_set_pinctrl_config+0x14a>
2ffee14a:	4627      	mov	r7, r4
2ffee14c:	2401      	movs	r4, #1
2ffee14e:	9805      	ldr	r0, [sp, #20]
2ffee150:	f004 fcae 	bl	2fff2ab0 <stm32_get_gpio_bank_offset>
2ffee154:	900d      	str	r0, [sp, #52]	@ 0x34
2ffee156:	4630      	mov	r0, r6
2ffee158:	990a      	ldr	r1, [sp, #40]	@ 0x28
2ffee15a:	f006 fbf1 	bl	2fff4940 <fdt_first_subnode>
2ffee15e:	2800      	cmp	r0, #0
2ffee160:	4681      	mov	r9, r0
2ffee162:	da15      	bge.n	2ffee190 <dt_set_pinctrl_config+0x18c>
2ffee164:	4833      	ldr	r0, [pc, #204]	@ (2ffee234 <dt_set_pinctrl_config+0x230>)
2ffee166:	f7fc f861 	bl	2ffea22c <tf_log>
2ffee16a:	f7fc faf5 	bl	2ffea758 <console_flush>
2ffee16e:	f7fb e882 	blx	2ffe9274 <el3_panic>
2ffee172:	2c11      	cmp	r4, #17
2ffee174:	f04f 0800 	mov.w	r8, #0
2ffee178:	d005      	beq.n	2ffee186 <dt_set_pinctrl_config+0x182>
2ffee17a:	2401      	movs	r4, #1
2ffee17c:	e7c9      	b.n	2ffee112 <dt_set_pinctrl_config+0x10e>
2ffee17e:	f104 38ff 	add.w	r8, r4, #4294967295	@ 0xffffffff
2ffee182:	2402      	movs	r4, #2
2ffee184:	e7c5      	b.n	2ffee112 <dt_set_pinctrl_config+0x10e>
2ffee186:	2403      	movs	r4, #3
2ffee188:	e7c3      	b.n	2ffee112 <dt_set_pinctrl_config+0x10e>
2ffee18a:	2401      	movs	r4, #1
2ffee18c:	4627      	mov	r7, r4
2ffee18e:	e7d4      	b.n	2ffee13a <dt_set_pinctrl_config+0x136>
2ffee190:	4a29      	ldr	r2, [pc, #164]	@ (2ffee238 <dt_set_pinctrl_config+0x234>)
2ffee192:	2300      	movs	r3, #0
2ffee194:	4649      	mov	r1, r9
2ffee196:	4630      	mov	r0, r6
2ffee198:	f006 fd43 	bl	2fff4c22 <fdt_getprop>
2ffee19c:	b920      	cbnz	r0, 2ffee1a8 <dt_set_pinctrl_config+0x1a4>
2ffee19e:	4649      	mov	r1, r9
2ffee1a0:	4630      	mov	r0, r6
2ffee1a2:	f006 fbe0 	bl	2fff4966 <fdt_next_subnode>
2ffee1a6:	e7da      	b.n	2ffee15e <dt_set_pinctrl_config+0x15a>
2ffee1a8:	4a24      	ldr	r2, [pc, #144]	@ (2ffee23c <dt_set_pinctrl_config+0x238>)
2ffee1aa:	2300      	movs	r3, #0
2ffee1ac:	4649      	mov	r1, r9
2ffee1ae:	4630      	mov	r0, r6
2ffee1b0:	f006 fd37 	bl	2fff4c22 <fdt_getprop>
2ffee1b4:	2800      	cmp	r0, #0
2ffee1b6:	d0f2      	beq.n	2ffee19e <dt_set_pinctrl_config+0x19a>
2ffee1b8:	6800      	ldr	r0, [r0, #0]
2ffee1ba:	f005 fdff 	bl	2fff3dbc <fdt32_to_cpu>
2ffee1be:	9b0d      	ldr	r3, [sp, #52]	@ 0x34
2ffee1c0:	4283      	cmp	r3, r0
2ffee1c2:	d1ec      	bne.n	2ffee19e <dt_set_pinctrl_config+0x19a>
2ffee1c4:	4648      	mov	r0, r9
2ffee1c6:	f003 fc07 	bl	2fff19d8 <fdt_get_status>
2ffee1ca:	2800      	cmp	r0, #0
2ffee1cc:	d0e7      	beq.n	2ffee19e <dt_set_pinctrl_config+0x19a>
2ffee1ce:	f1b9 0f00 	cmp.w	r9, #0
2ffee1d2:	d0c7      	beq.n	2ffee164 <dt_set_pinctrl_config+0x160>
2ffee1d4:	4648      	mov	r0, r9
2ffee1d6:	f7ff f82f 	bl	2ffed238 <fdt_get_clock_id>
2ffee1da:	f1b0 0900 	subs.w	r9, r0, #0
2ffee1de:	f6ff af19 	blt.w	2ffee014 <dt_set_pinctrl_config+0x10>
2ffee1e2:	9805      	ldr	r0, [sp, #20]
2ffee1e4:	f004 fc74 	bl	2fff2ad0 <stm32_get_gpio_bank_clock>
2ffee1e8:	4548      	cmp	r0, r9
2ffee1ea:	d003      	beq.n	2ffee1f4 <dt_set_pinctrl_config+0x1f0>
2ffee1ec:	4814      	ldr	r0, [pc, #80]	@ (2ffee240 <dt_set_pinctrl_config+0x23c>)
2ffee1ee:	21aa      	movs	r1, #170	@ 0xaa
2ffee1f0:	f004 ffd2 	bl	2fff3198 <__assert>
2ffee1f4:	9b09      	ldr	r3, [sp, #36]	@ 0x24
2ffee1f6:	4622      	mov	r2, r4
2ffee1f8:	990b      	ldr	r1, [sp, #44]	@ 0x2c
2ffee1fa:	f10b 0b01 	add.w	fp, fp, #1
2ffee1fe:	9301      	str	r3, [sp, #4]
2ffee200:	9b08      	ldr	r3, [sp, #32]
2ffee202:	9805      	ldr	r0, [sp, #20]
2ffee204:	9300      	str	r3, [sp, #0]
2ffee206:	f8cd 800c 	str.w	r8, [sp, #12]
2ffee20a:	9b0c      	ldr	r3, [sp, #48]	@ 0x30
2ffee20c:	9702      	str	r7, [sp, #8]
2ffee20e:	f7ff fe81 	bl	2ffedf14 <set_gpio.isra.0>
2ffee212:	e762      	b.n	2ffee0da <dt_set_pinctrl_config+0xd6>
2ffee214:	2fff7548 	.word	0x2fff7548
2ffee218:	2fff7552 	.word	0x2fff7552
2ffee21c:	2fff7559 	.word	0x2fff7559
2ffee220:	2fff7563 	.word	0x2fff7563
2ffee224:	2fff7570 	.word	0x2fff7570
2ffee228:	2fff757f 	.word	0x2fff757f
2ffee22c:	2fff7590 	.word	0x2fff7590
2ffee230:	2fff759c 	.word	0x2fff759c
2ffee234:	2fff75b7 	.word	0x2fff75b7
2ffee238:	2fff75a7 	.word	0x2fff75a7
2ffee23c:	2fff748c 	.word	0x2fff748c
2ffee240:	2fff752b 	.word	0x2fff752b

2ffee244 <i2c_transfer_config.isra.0>:
2ffee244:	b530      	push	{r4, r5, lr}
2ffee246:	9d03      	ldr	r5, [sp, #12]
2ffee248:	f3c1 0109 	ubfx	r1, r1, #0, #10
2ffee24c:	432b      	orrs	r3, r5
2ffee24e:	0412      	lsls	r2, r2, #16
2ffee250:	430b      	orrs	r3, r1
2ffee252:	f402 027f 	and.w	r2, r2, #16711680	@ 0xff0000
2ffee256:	4313      	orrs	r3, r2
2ffee258:	4a04      	ldr	r2, [pc, #16]	@ (2ffee26c <i2c_transfer_config.isra.0+0x28>)
2ffee25a:	6844      	ldr	r4, [r0, #4]
2ffee25c:	ea42 5255 	orr.w	r2, r2, r5, lsr #21
2ffee260:	ea24 0402 	bic.w	r4, r4, r2
2ffee264:	4323      	orrs	r3, r4
2ffee266:	6043      	str	r3, [r0, #4]
2ffee268:	bd30      	pop	{r4, r5, pc}
2ffee26a:	bf00      	nop
2ffee26c:	03ff63ff 	.word	0x03ff63ff

2ffee270 <i2c_read.isra.0>:
2ffee270:	e92d 4ff0 	stmdb	sp!, {r4, r5, r6, r7, r8, r9, sl, fp, lr}
2ffee274:	b085      	sub	sp, #20
2ffee276:	469a      	mov	sl, r3
2ffee278:	4604      	mov	r4, r0
2ffee27a:	9b10      	ldr	r3, [sp, #64]	@ 0x40
2ffee27c:	4689      	mov	r9, r1
2ffee27e:	f8bd 503c 	ldrh.w	r5, [sp, #60]	@ 0x3c
2ffee282:	4690      	mov	r8, r2
2ffee284:	2b10      	cmp	r3, #16
2ffee286:	d002      	beq.n	2ffee28e <i2c_read.isra.0+0x1e>
2ffee288:	2b40      	cmp	r3, #64	@ 0x40
2ffee28a:	f040 80d9 	bne.w	2ffee440 <i2c_read.isra.0+0x1d0>
2ffee28e:	6923      	ldr	r3, [r4, #16]
2ffee290:	2b20      	cmp	r3, #32
2ffee292:	f040 80d8 	bne.w	2ffee446 <i2c_read.isra.0+0x1d6>
2ffee296:	7b23      	ldrb	r3, [r4, #12]
2ffee298:	2b00      	cmp	r3, #0
2ffee29a:	f040 80d4 	bne.w	2ffee446 <i2c_read.isra.0+0x1d6>
2ffee29e:	9b0e      	ldr	r3, [sp, #56]	@ 0x38
2ffee2a0:	2b00      	cmp	r3, #0
2ffee2a2:	f000 80d3 	beq.w	2ffee44c <i2c_read.isra.0+0x1dc>
2ffee2a6:	2d00      	cmp	r5, #0
2ffee2a8:	f000 80d0 	beq.w	2ffee44c <i2c_read.isra.0+0x1dc>
2ffee2ac:	68a0      	ldr	r0, [r4, #8]
2ffee2ae:	f04f 0b01 	mov.w	fp, #1
2ffee2b2:	f7fc f983 	bl	2ffea5bc <clk_enable>
2ffee2b6:	f884 b00c 	strb.w	fp, [r4, #12]
2ffee2ba:	ee1e 1f10 	mrc	15, 0, r1, cr14, cr0, {0}
2ffee2be:	ec53 2f0e 	mrrc	15, 0, r2, r3, cr14
2ffee2c2:	f246 10a8 	movw	r0, #25000	@ 0x61a8
2ffee2c6:	e9cd 2302 	strd	r2, r3, [sp, #8]
2ffee2ca:	9e02      	ldr	r6, [sp, #8]
2ffee2cc:	2300      	movs	r3, #0
2ffee2ce:	4a61      	ldr	r2, [pc, #388]	@ (2ffee454 <i2c_read.isra.0+0x1e4>)
2ffee2d0:	fba1 0100 	umull	r0, r1, r1, r0
2ffee2d4:	f004 edf0 	blx	2fff2eb8 <__aeabi_uldivmod>
2ffee2d8:	9b03      	ldr	r3, [sp, #12]
2ffee2da:	465a      	mov	r2, fp
2ffee2dc:	1986      	adds	r6, r0, r6
2ffee2de:	4620      	mov	r0, r4
2ffee2e0:	eb41 0703 	adc.w	r7, r1, r3
2ffee2e4:	f44f 4100 	mov.w	r1, #32768	@ 0x8000
2ffee2e8:	e9cd 6700 	strd	r6, r7, [sp]
2ffee2ec:	f005 fd68 	bl	2fff3dc0 <i2c_wait_flag>
2ffee2f0:	4603      	mov	r3, r0
2ffee2f2:	b150      	cbz	r0, 2ffee30a <i2c_read.isra.0+0x9a>
2ffee2f4:	f06f 0604 	mvn.w	r6, #4
2ffee2f8:	68a0      	ldr	r0, [r4, #8]
2ffee2fa:	2300      	movs	r3, #0
2ffee2fc:	7323      	strb	r3, [r4, #12]
2ffee2fe:	f7fc f96f 	bl	2ffea5e0 <clk_disable>
2ffee302:	4630      	mov	r0, r6
2ffee304:	b005      	add	sp, #20
2ffee306:	e8bd 8ff0 	ldmia.w	sp!, {r4, r5, r6, r7, r8, r9, sl, fp, pc}
2ffee30a:	61a0      	str	r0, [r4, #24]
2ffee30c:	2222      	movs	r2, #34	@ 0x22
2ffee30e:	6122      	str	r2, [r4, #16]
2ffee310:	9a10      	ldr	r2, [sp, #64]	@ 0x40
2ffee312:	6820      	ldr	r0, [r4, #0]
2ffee314:	6162      	str	r2, [r4, #20]
2ffee316:	2a40      	cmp	r2, #64	@ 0x40
2ffee318:	d00c      	beq.n	2ffee334 <i2c_read.isra.0+0xc4>
2ffee31a:	6820      	ldr	r0, [r4, #0]
2ffee31c:	2dff      	cmp	r5, #255	@ 0xff
2ffee31e:	4b4e      	ldr	r3, [pc, #312]	@ (2ffee458 <i2c_read.isra.0+0x1e8>)
2ffee320:	d836      	bhi.n	2ffee390 <i2c_read.isra.0+0x120>
2ffee322:	9300      	str	r3, [sp, #0]
2ffee324:	462a      	mov	r2, r5
2ffee326:	f04f 7300 	mov.w	r3, #33554432	@ 0x2000000
2ffee32a:	4649      	mov	r1, r9
2ffee32c:	46a8      	mov	r8, r5
2ffee32e:	f7ff ff89 	bl	2ffee244 <i2c_transfer_config.isra.0>
2ffee332:	e036      	b.n	2ffee3a2 <i2c_read.isra.0+0x132>
2ffee334:	4a49      	ldr	r2, [pc, #292]	@ (2ffee45c <i2c_read.isra.0+0x1ec>)
2ffee336:	4649      	mov	r1, r9
2ffee338:	9200      	str	r2, [sp, #0]
2ffee33a:	4652      	mov	r2, sl
2ffee33c:	f7ff ff82 	bl	2ffee244 <i2c_transfer_config.isra.0>
2ffee340:	4632      	mov	r2, r6
2ffee342:	463b      	mov	r3, r7
2ffee344:	4620      	mov	r0, r4
2ffee346:	f005 fda3 	bl	2fff3e90 <i2c_wait_txis>
2ffee34a:	2800      	cmp	r0, #0
2ffee34c:	d1d2      	bne.n	2ffee2f4 <i2c_read.isra.0+0x84>
2ffee34e:	6823      	ldr	r3, [r4, #0]
2ffee350:	f1ba 0f01 	cmp.w	sl, #1
2ffee354:	d10d      	bne.n	2ffee372 <i2c_read.isra.0+0x102>
2ffee356:	fa5f f888 	uxtb.w	r8, r8
2ffee35a:	f883 8028 	strb.w	r8, [r3, #40]	@ 0x28
2ffee35e:	2200      	movs	r2, #0
2ffee360:	2140      	movs	r1, #64	@ 0x40
2ffee362:	4620      	mov	r0, r4
2ffee364:	e9cd 6700 	strd	r6, r7, [sp]
2ffee368:	f005 fd2a 	bl	2fff3dc0 <i2c_wait_flag>
2ffee36c:	2800      	cmp	r0, #0
2ffee36e:	d0d4      	beq.n	2ffee31a <i2c_read.isra.0+0xaa>
2ffee370:	e7c0      	b.n	2ffee2f4 <i2c_read.isra.0+0x84>
2ffee372:	ea4f 2218 	mov.w	r2, r8, lsr #8
2ffee376:	4620      	mov	r0, r4
2ffee378:	f883 2028 	strb.w	r2, [r3, #40]	@ 0x28
2ffee37c:	4632      	mov	r2, r6
2ffee37e:	463b      	mov	r3, r7
2ffee380:	f005 fd86 	bl	2fff3e90 <i2c_wait_txis>
2ffee384:	2800      	cmp	r0, #0
2ffee386:	d1b5      	bne.n	2ffee2f4 <i2c_read.isra.0+0x84>
2ffee388:	6823      	ldr	r3, [r4, #0]
2ffee38a:	fa5f f888 	uxtb.w	r8, r8
2ffee38e:	e7e4      	b.n	2ffee35a <i2c_read.isra.0+0xea>
2ffee390:	9300      	str	r3, [sp, #0]
2ffee392:	22ff      	movs	r2, #255	@ 0xff
2ffee394:	f04f 7380 	mov.w	r3, #16777216	@ 0x1000000
2ffee398:	4649      	mov	r1, r9
2ffee39a:	f04f 08ff 	mov.w	r8, #255	@ 0xff
2ffee39e:	f7ff ff51 	bl	2ffee244 <i2c_transfer_config.isra.0>
2ffee3a2:	9b0e      	ldr	r3, [sp, #56]	@ 0x38
2ffee3a4:	f103 3aff 	add.w	sl, r3, #4294967295	@ 0xffffffff
2ffee3a8:	2200      	movs	r2, #0
2ffee3aa:	2104      	movs	r1, #4
2ffee3ac:	4620      	mov	r0, r4
2ffee3ae:	e9cd 6700 	strd	r6, r7, [sp]
2ffee3b2:	f005 fd05 	bl	2fff3dc0 <i2c_wait_flag>
2ffee3b6:	2800      	cmp	r0, #0
2ffee3b8:	d19c      	bne.n	2ffee2f4 <i2c_read.isra.0+0x84>
2ffee3ba:	6823      	ldr	r3, [r4, #0]
2ffee3bc:	3d01      	subs	r5, #1
2ffee3be:	f893 3024 	ldrb.w	r3, [r3, #36]	@ 0x24
2ffee3c2:	f80a 3f01 	strb.w	r3, [sl, #1]!
2ffee3c6:	d118      	bne.n	2ffee3fa <i2c_read.isra.0+0x18a>
2ffee3c8:	4632      	mov	r2, r6
2ffee3ca:	463b      	mov	r3, r7
2ffee3cc:	4620      	mov	r0, r4
2ffee3ce:	f005 fd80 	bl	2fff3ed2 <i2c_wait_stop>
2ffee3d2:	4606      	mov	r6, r0
2ffee3d4:	2800      	cmp	r0, #0
2ffee3d6:	d18d      	bne.n	2ffee2f4 <i2c_read.isra.0+0x84>
2ffee3d8:	6823      	ldr	r3, [r4, #0]
2ffee3da:	2220      	movs	r2, #32
2ffee3dc:	61da      	str	r2, [r3, #28]
2ffee3de:	6821      	ldr	r1, [r4, #0]
2ffee3e0:	684b      	ldr	r3, [r1, #4]
2ffee3e2:	f023 73ff 	bic.w	r3, r3, #33423360	@ 0x1fe0000
2ffee3e6:	f423 338b 	bic.w	r3, r3, #71168	@ 0x11600
2ffee3ea:	f423 73ff 	bic.w	r3, r3, #510	@ 0x1fe
2ffee3ee:	f023 0301 	bic.w	r3, r3, #1
2ffee3f2:	604b      	str	r3, [r1, #4]
2ffee3f4:	6122      	str	r2, [r4, #16]
2ffee3f6:	6165      	str	r5, [r4, #20]
2ffee3f8:	e77e      	b.n	2ffee2f8 <i2c_read.isra.0+0x88>
2ffee3fa:	f1b8 0801 	subs.w	r8, r8, #1
2ffee3fe:	d1d3      	bne.n	2ffee3a8 <i2c_read.isra.0+0x138>
2ffee400:	4642      	mov	r2, r8
2ffee402:	2180      	movs	r1, #128	@ 0x80
2ffee404:	4620      	mov	r0, r4
2ffee406:	e9cd 6700 	strd	r6, r7, [sp]
2ffee40a:	f005 fcd9 	bl	2fff3dc0 <i2c_wait_flag>
2ffee40e:	2800      	cmp	r0, #0
2ffee410:	f47f af70 	bne.w	2ffee2f4 <i2c_read.isra.0+0x84>
2ffee414:	6820      	ldr	r0, [r4, #0]
2ffee416:	2dff      	cmp	r5, #255	@ 0xff
2ffee418:	f8cd 8000 	str.w	r8, [sp]
2ffee41c:	d908      	bls.n	2ffee430 <i2c_read.isra.0+0x1c0>
2ffee41e:	f04f 7380 	mov.w	r3, #16777216	@ 0x1000000
2ffee422:	22ff      	movs	r2, #255	@ 0xff
2ffee424:	4649      	mov	r1, r9
2ffee426:	f04f 08ff 	mov.w	r8, #255	@ 0xff
2ffee42a:	f7ff ff0b 	bl	2ffee244 <i2c_transfer_config.isra.0>
2ffee42e:	e7bb      	b.n	2ffee3a8 <i2c_read.isra.0+0x138>
2ffee430:	f04f 7300 	mov.w	r3, #33554432	@ 0x2000000
2ffee434:	b2aa      	uxth	r2, r5
2ffee436:	4649      	mov	r1, r9
2ffee438:	46a8      	mov	r8, r5
2ffee43a:	f7ff ff03 	bl	2ffee244 <i2c_transfer_config.isra.0>
2ffee43e:	e7b3      	b.n	2ffee3a8 <i2c_read.isra.0+0x138>
2ffee440:	f04f 36ff 	mov.w	r6, #4294967295	@ 0xffffffff
2ffee444:	e75d      	b.n	2ffee302 <i2c_read.isra.0+0x92>
2ffee446:	f06f 060f 	mvn.w	r6, #15
2ffee44a:	e75a      	b.n	2ffee302 <i2c_read.isra.0+0x92>
2ffee44c:	f06f 0615 	mvn.w	r6, #21
2ffee450:	e757      	b.n	2ffee302 <i2c_read.isra.0+0x92>
2ffee452:	bf00      	nop
2ffee454:	000f4240 	.word	0x000f4240
2ffee458:	80002400 	.word	0x80002400
2ffee45c:	80002000 	.word	0x80002000

2ffee460 <i2c_write>:
2ffee460:	e92d 4ff0 	stmdb	sp!, {r4, r5, r6, r7, r8, r9, sl, fp, lr}
2ffee464:	b085      	sub	sp, #20
2ffee466:	469a      	mov	sl, r3
2ffee468:	4604      	mov	r4, r0
2ffee46a:	9b11      	ldr	r3, [sp, #68]	@ 0x44
2ffee46c:	460e      	mov	r6, r1
2ffee46e:	f8bd 503c 	ldrh.w	r5, [sp, #60]	@ 0x3c
2ffee472:	4617      	mov	r7, r2
2ffee474:	2b10      	cmp	r3, #16
2ffee476:	d002      	beq.n	2ffee47e <i2c_write+0x1e>
2ffee478:	2b40      	cmp	r3, #64	@ 0x40
2ffee47a:	f040 80ef 	bne.w	2ffee65c <i2c_write+0x1fc>
2ffee47e:	6923      	ldr	r3, [r4, #16]
2ffee480:	2b20      	cmp	r3, #32
2ffee482:	f040 80ee 	bne.w	2ffee662 <i2c_write+0x202>
2ffee486:	7b23      	ldrb	r3, [r4, #12]
2ffee488:	2b00      	cmp	r3, #0
2ffee48a:	f040 80ea 	bne.w	2ffee662 <i2c_write+0x202>
2ffee48e:	9b0e      	ldr	r3, [sp, #56]	@ 0x38
2ffee490:	2b00      	cmp	r3, #0
2ffee492:	f000 80e9 	beq.w	2ffee668 <i2c_write+0x208>
2ffee496:	2d00      	cmp	r5, #0
2ffee498:	f000 80e6 	beq.w	2ffee668 <i2c_write+0x208>
2ffee49c:	68a0      	ldr	r0, [r4, #8]
2ffee49e:	f04f 0b01 	mov.w	fp, #1
2ffee4a2:	f7fc f88b 	bl	2ffea5bc <clk_enable>
2ffee4a6:	f884 b00c 	strb.w	fp, [r4, #12]
2ffee4aa:	ee1e 1f10 	mrc	15, 0, r1, cr14, cr0, {0}
2ffee4ae:	ec53 2f0e 	mrrc	15, 0, r2, r3, cr14
2ffee4b2:	f246 10a8 	movw	r0, #25000	@ 0x61a8
2ffee4b6:	e9cd 2302 	strd	r2, r3, [sp, #8]
2ffee4ba:	f8dd 8008 	ldr.w	r8, [sp, #8]
2ffee4be:	2300      	movs	r3, #0
2ffee4c0:	4a6b      	ldr	r2, [pc, #428]	@ (2ffee670 <i2c_write+0x210>)
2ffee4c2:	fba1 0100 	umull	r0, r1, r1, r0
2ffee4c6:	f004 ecf8 	blx	2fff2eb8 <__aeabi_uldivmod>
2ffee4ca:	9b03      	ldr	r3, [sp, #12]
2ffee4cc:	465a      	mov	r2, fp
2ffee4ce:	eb10 0008 	adds.w	r0, r0, r8
2ffee4d2:	eb41 0103 	adc.w	r1, r1, r3
2ffee4d6:	e9cd 0100 	strd	r0, r1, [sp]
2ffee4da:	f44f 4100 	mov.w	r1, #32768	@ 0x8000
2ffee4de:	4620      	mov	r0, r4
2ffee4e0:	f005 fc6e 	bl	2fff3dc0 <i2c_wait_flag>
2ffee4e4:	b150      	cbz	r0, 2ffee4fc <i2c_write+0x9c>
2ffee4e6:	f06f 0504 	mvn.w	r5, #4
2ffee4ea:	68a0      	ldr	r0, [r4, #8]
2ffee4ec:	2300      	movs	r3, #0
2ffee4ee:	7323      	strb	r3, [r4, #12]
2ffee4f0:	f7fc f876 	bl	2ffea5e0 <clk_disable>
2ffee4f4:	4628      	mov	r0, r5
2ffee4f6:	b005      	add	sp, #20
2ffee4f8:	e8bd 8ff0 	ldmia.w	sp!, {r4, r5, r6, r7, r8, r9, sl, fp, pc}
2ffee4fc:	61a0      	str	r0, [r4, #24]
2ffee4fe:	2321      	movs	r3, #33	@ 0x21
2ffee500:	6123      	str	r3, [r4, #16]
2ffee502:	46ab      	mov	fp, r5
2ffee504:	9b11      	ldr	r3, [sp, #68]	@ 0x44
2ffee506:	6163      	str	r3, [r4, #20]
2ffee508:	ee1e 0f10 	mrc	15, 0, r0, cr14, cr0, {0}
2ffee50c:	ec53 2f0e 	mrrc	15, 0, r2, r3, cr14
2ffee510:	9910      	ldr	r1, [sp, #64]	@ 0x40
2ffee512:	e9cd 2302 	strd	r2, r3, [sp, #8]
2ffee516:	f8dd 8008 	ldr.w	r8, [sp, #8]
2ffee51a:	f44f 737a 	mov.w	r3, #1000	@ 0x3e8
2ffee51e:	4359      	muls	r1, r3
2ffee520:	4a53      	ldr	r2, [pc, #332]	@ (2ffee670 <i2c_write+0x210>)
2ffee522:	2300      	movs	r3, #0
2ffee524:	fba1 0100 	umull	r0, r1, r1, r0
2ffee528:	f004 ecc6 	blx	2fff2eb8 <__aeabi_uldivmod>
2ffee52c:	9b03      	ldr	r3, [sp, #12]
2ffee52e:	eb10 0808 	adds.w	r8, r0, r8
2ffee532:	eb41 0903 	adc.w	r9, r1, r3
2ffee536:	9b11      	ldr	r3, [sp, #68]	@ 0x44
2ffee538:	6820      	ldr	r0, [r4, #0]
2ffee53a:	2b40      	cmp	r3, #64	@ 0x40
2ffee53c:	4b4d      	ldr	r3, [pc, #308]	@ (2ffee674 <i2c_write+0x214>)
2ffee53e:	9300      	str	r3, [sp, #0]
2ffee540:	d168      	bne.n	2ffee614 <i2c_write+0x1b4>
2ffee542:	f04f 7380 	mov.w	r3, #16777216	@ 0x1000000
2ffee546:	4652      	mov	r2, sl
2ffee548:	4631      	mov	r1, r6
2ffee54a:	f7ff fe7b 	bl	2ffee244 <i2c_transfer_config.isra.0>
2ffee54e:	4642      	mov	r2, r8
2ffee550:	464b      	mov	r3, r9
2ffee552:	4620      	mov	r0, r4
2ffee554:	f005 fc9c 	bl	2fff3e90 <i2c_wait_txis>
2ffee558:	2800      	cmp	r0, #0
2ffee55a:	d1c4      	bne.n	2ffee4e6 <i2c_write+0x86>
2ffee55c:	6823      	ldr	r3, [r4, #0]
2ffee55e:	f1ba 0f01 	cmp.w	sl, #1
2ffee562:	d118      	bne.n	2ffee596 <i2c_write+0x136>
2ffee564:	b2ff      	uxtb	r7, r7
2ffee566:	f883 7028 	strb.w	r7, [r3, #40]	@ 0x28
2ffee56a:	2200      	movs	r2, #0
2ffee56c:	2180      	movs	r1, #128	@ 0x80
2ffee56e:	4620      	mov	r0, r4
2ffee570:	e9cd 8900 	strd	r8, r9, [sp]
2ffee574:	f005 fc24 	bl	2fff3dc0 <i2c_wait_flag>
2ffee578:	4603      	mov	r3, r0
2ffee57a:	2800      	cmp	r0, #0
2ffee57c:	d1b3      	bne.n	2ffee4e6 <i2c_write+0x86>
2ffee57e:	6820      	ldr	r0, [r4, #0]
2ffee580:	2dff      	cmp	r5, #255	@ 0xff
2ffee582:	9300      	str	r3, [sp, #0]
2ffee584:	d914      	bls.n	2ffee5b0 <i2c_write+0x150>
2ffee586:	f04f 7380 	mov.w	r3, #16777216	@ 0x1000000
2ffee58a:	22ff      	movs	r2, #255	@ 0xff
2ffee58c:	4631      	mov	r1, r6
2ffee58e:	25ff      	movs	r5, #255	@ 0xff
2ffee590:	f7ff fe58 	bl	2ffee244 <i2c_transfer_config.isra.0>
2ffee594:	e012      	b.n	2ffee5bc <i2c_write+0x15c>
2ffee596:	0a3a      	lsrs	r2, r7, #8
2ffee598:	4620      	mov	r0, r4
2ffee59a:	f883 2028 	strb.w	r2, [r3, #40]	@ 0x28
2ffee59e:	4642      	mov	r2, r8
2ffee5a0:	464b      	mov	r3, r9
2ffee5a2:	f005 fc75 	bl	2fff3e90 <i2c_wait_txis>
2ffee5a6:	2800      	cmp	r0, #0
2ffee5a8:	d19d      	bne.n	2ffee4e6 <i2c_write+0x86>
2ffee5aa:	6823      	ldr	r3, [r4, #0]
2ffee5ac:	b2ff      	uxtb	r7, r7
2ffee5ae:	e7da      	b.n	2ffee566 <i2c_write+0x106>
2ffee5b0:	f04f 7300 	mov.w	r3, #33554432	@ 0x2000000
2ffee5b4:	462a      	mov	r2, r5
2ffee5b6:	4631      	mov	r1, r6
2ffee5b8:	f7ff fe44 	bl	2ffee244 <i2c_transfer_config.isra.0>
2ffee5bc:	9b0e      	ldr	r3, [sp, #56]	@ 0x38
2ffee5be:	1e5f      	subs	r7, r3, #1
2ffee5c0:	4642      	mov	r2, r8
2ffee5c2:	464b      	mov	r3, r9
2ffee5c4:	4620      	mov	r0, r4
2ffee5c6:	f005 fc63 	bl	2fff3e90 <i2c_wait_txis>
2ffee5ca:	2800      	cmp	r0, #0
2ffee5cc:	d18b      	bne.n	2ffee4e6 <i2c_write+0x86>
2ffee5ce:	f817 2f01 	ldrb.w	r2, [r7, #1]!
2ffee5d2:	f1bb 0b01 	subs.w	fp, fp, #1
2ffee5d6:	6823      	ldr	r3, [r4, #0]
2ffee5d8:	f883 2028 	strb.w	r2, [r3, #40]	@ 0x28
2ffee5dc:	d11c      	bne.n	2ffee618 <i2c_write+0x1b8>
2ffee5de:	4642      	mov	r2, r8
2ffee5e0:	464b      	mov	r3, r9
2ffee5e2:	4620      	mov	r0, r4
2ffee5e4:	f005 fc75 	bl	2fff3ed2 <i2c_wait_stop>
2ffee5e8:	4605      	mov	r5, r0
2ffee5ea:	2800      	cmp	r0, #0
2ffee5ec:	f47f af7b 	bne.w	2ffee4e6 <i2c_write+0x86>
2ffee5f0:	6823      	ldr	r3, [r4, #0]
2ffee5f2:	2220      	movs	r2, #32
2ffee5f4:	61da      	str	r2, [r3, #28]
2ffee5f6:	6821      	ldr	r1, [r4, #0]
2ffee5f8:	684b      	ldr	r3, [r1, #4]
2ffee5fa:	f023 73ff 	bic.w	r3, r3, #33423360	@ 0x1fe0000
2ffee5fe:	f423 338b 	bic.w	r3, r3, #71168	@ 0x11600
2ffee602:	f423 73ff 	bic.w	r3, r3, #510	@ 0x1fe
2ffee606:	f023 0301 	bic.w	r3, r3, #1
2ffee60a:	604b      	str	r3, [r1, #4]
2ffee60c:	6122      	str	r2, [r4, #16]
2ffee60e:	f8c4 b014 	str.w	fp, [r4, #20]
2ffee612:	e76a      	b.n	2ffee4ea <i2c_write+0x8a>
2ffee614:	2dff      	cmp	r5, #255	@ 0xff
2ffee616:	e7b5      	b.n	2ffee584 <i2c_write+0x124>
2ffee618:	3d01      	subs	r5, #1
2ffee61a:	d1d1      	bne.n	2ffee5c0 <i2c_write+0x160>
2ffee61c:	462a      	mov	r2, r5
2ffee61e:	2180      	movs	r1, #128	@ 0x80
2ffee620:	4620      	mov	r0, r4
2ffee622:	e9cd 8900 	strd	r8, r9, [sp]
2ffee626:	f005 fbcb 	bl	2fff3dc0 <i2c_wait_flag>
2ffee62a:	2800      	cmp	r0, #0
2ffee62c:	f47f af5b 	bne.w	2ffee4e6 <i2c_write+0x86>
2ffee630:	6820      	ldr	r0, [r4, #0]
2ffee632:	f1bb 0fff 	cmp.w	fp, #255	@ 0xff
2ffee636:	9500      	str	r5, [sp, #0]
2ffee638:	d907      	bls.n	2ffee64a <i2c_write+0x1ea>
2ffee63a:	f04f 7380 	mov.w	r3, #16777216	@ 0x1000000
2ffee63e:	22ff      	movs	r2, #255	@ 0xff
2ffee640:	4631      	mov	r1, r6
2ffee642:	25ff      	movs	r5, #255	@ 0xff
2ffee644:	f7ff fdfe 	bl	2ffee244 <i2c_transfer_config.isra.0>
2ffee648:	e7ba      	b.n	2ffee5c0 <i2c_write+0x160>
2ffee64a:	f04f 7300 	mov.w	r3, #33554432	@ 0x2000000
2ffee64e:	fa1f f28b 	uxth.w	r2, fp
2ffee652:	4631      	mov	r1, r6
2ffee654:	465d      	mov	r5, fp
2ffee656:	f7ff fdf5 	bl	2ffee244 <i2c_transfer_config.isra.0>
2ffee65a:	e7b1      	b.n	2ffee5c0 <i2c_write+0x160>
2ffee65c:	f04f 35ff 	mov.w	r5, #4294967295	@ 0xffffffff
2ffee660:	e748      	b.n	2ffee4f4 <i2c_write+0x94>
2ffee662:	f06f 050f 	mvn.w	r5, #15
2ffee666:	e745      	b.n	2ffee4f4 <i2c_write+0x94>
2ffee668:	f06f 0515 	mvn.w	r5, #21
2ffee66c:	e742      	b.n	2ffee4f4 <i2c_write+0x94>
2ffee66e:	bf00      	nop
2ffee670:	000f4240 	.word	0x000f4240
2ffee674:	80002000 	.word	0x80002000

2ffee678 <stm32_i2c_get_setup_from_fdt>:
2ffee678:	b570      	push	{r4, r5, r6, lr}
2ffee67a:	2319      	movs	r3, #25
2ffee67c:	4615      	mov	r5, r2
2ffee67e:	4606      	mov	r6, r0
2ffee680:	4a10      	ldr	r2, [pc, #64]	@ (2ffee6c4 <stm32_i2c_get_setup_from_fdt+0x4c>)
2ffee682:	460c      	mov	r4, r1
2ffee684:	f004 ffff 	bl	2fff3686 <fdt_read_uint32_default>
2ffee688:	61e8      	str	r0, [r5, #28]
2ffee68a:	230a      	movs	r3, #10
2ffee68c:	4a0e      	ldr	r2, [pc, #56]	@ (2ffee6c8 <stm32_i2c_get_setup_from_fdt+0x50>)
2ffee68e:	4621      	mov	r1, r4
2ffee690:	4630      	mov	r0, r6
2ffee692:	f004 fff8 	bl	2fff3686 <fdt_read_uint32_default>
2ffee696:	6228      	str	r0, [r5, #32]
2ffee698:	4621      	mov	r1, r4
2ffee69a:	4a0c      	ldr	r2, [pc, #48]	@ (2ffee6cc <stm32_i2c_get_setup_from_fdt+0x54>)
2ffee69c:	4630      	mov	r0, r6
2ffee69e:	4b0c      	ldr	r3, [pc, #48]	@ (2ffee6d0 <stm32_i2c_get_setup_from_fdt+0x58>)
2ffee6a0:	f004 fff1 	bl	2fff3686 <fdt_read_uint32_default>
2ffee6a4:	4a0b      	ldr	r2, [pc, #44]	@ (2ffee6d4 <stm32_i2c_get_setup_from_fdt+0x5c>)
2ffee6a6:	4601      	mov	r1, r0
2ffee6a8:	4290      	cmp	r0, r2
2ffee6aa:	d805      	bhi.n	2ffee6b8 <stm32_i2c_get_setup_from_fdt+0x40>
2ffee6ac:	6268      	str	r0, [r5, #36]	@ 0x24
2ffee6ae:	4620      	mov	r0, r4
2ffee6b0:	e8bd 4070 	ldmia.w	sp!, {r4, r5, r6, lr}
2ffee6b4:	f7ff bca6 	b.w	2ffee004 <dt_set_pinctrl_config>
2ffee6b8:	4807      	ldr	r0, [pc, #28]	@ (2ffee6d8 <stm32_i2c_get_setup_from_fdt+0x60>)
2ffee6ba:	f7fb fdb7 	bl	2ffea22c <tf_log>
2ffee6be:	f06f 000e 	mvn.w	r0, #14
2ffee6c2:	bd70      	pop	{r4, r5, r6, pc}
2ffee6c4:	2fff75d4 	.word	0x2fff75d4
2ffee6c8:	2fff75eb 	.word	0x2fff75eb
2ffee6cc:	2fff72e3 	.word	0x2fff72e3
2ffee6d0:	000186a0 	.word	0x000186a0
2ffee6d4:	000f4240 	.word	0x000f4240
2ffee6d8:	2fff7603 	.word	0x2fff7603

2ffee6dc <stm32_i2c_init>:
2ffee6dc:	e92d 4ff0 	stmdb	sp!, {r4, r5, r6, r7, r8, r9, sl, fp, lr}
2ffee6e0:	460d      	mov	r5, r1
2ffee6e2:	b0a3      	sub	sp, #140	@ 0x8c
2ffee6e4:	4604      	mov	r4, r0
2ffee6e6:	2800      	cmp	r0, #0
2ffee6e8:	f000 8207 	beq.w	2ffeeafa <stm32_i2c_init+0x41e>
2ffee6ec:	6903      	ldr	r3, [r0, #16]
2ffee6ee:	b903      	cbnz	r3, 2ffee6f2 <stm32_i2c_init+0x16>
2ffee6f0:	7303      	strb	r3, [r0, #12]
2ffee6f2:	68a0      	ldr	r0, [r4, #8]
2ffee6f4:	2324      	movs	r3, #36	@ 0x24
2ffee6f6:	6123      	str	r3, [r4, #16]
2ffee6f8:	f7fb ff84 	bl	2ffea604 <clk_get_rate>
2ffee6fc:	9002      	str	r0, [sp, #8]
2ffee6fe:	b940      	cbnz	r0, 2ffee712 <stm32_i2c_init+0x36>
2ffee700:	4897      	ldr	r0, [pc, #604]	@ (2ffee960 <stm32_i2c_init+0x284>)
2ffee702:	f06f 0715 	mvn.w	r7, #21
2ffee706:	f7fb fd91 	bl	2ffea22c <tf_log>
2ffee70a:	4638      	mov	r0, r7
2ffee70c:	b023      	add	sp, #140	@ 0x8c
2ffee70e:	e8bd 8ff0 	ldmia.w	sp!, {r4, r5, r6, r7, r8, r9, sl, fp, pc}
2ffee712:	6a23      	ldr	r3, [r4, #32]
2ffee714:	9a02      	ldr	r2, [sp, #8]
2ffee716:	429a      	cmp	r2, r3
2ffee718:	d02c      	beq.n	2ffee774 <stm32_i2c_init+0x98>
2ffee71a:	4b92      	ldr	r3, [pc, #584]	@ (2ffee964 <stm32_i2c_init+0x288>)
2ffee71c:	eb03 0652 	add.w	r6, r3, r2, lsr #1
2ffee720:	fbb6 f6f2 	udiv	r6, r6, r2
2ffee724:	0073      	lsls	r3, r6, #1
2ffee726:	9309      	str	r3, [sp, #36]	@ 0x24
2ffee728:	6a69      	ldr	r1, [r5, #36]	@ 0x24
2ffee72a:	4b8f      	ldr	r3, [pc, #572]	@ (2ffee968 <stm32_i2c_init+0x28c>)
2ffee72c:	4299      	cmp	r1, r3
2ffee72e:	d97f      	bls.n	2ffee830 <stm32_i2c_init+0x154>
2ffee730:	4b8e      	ldr	r3, [pc, #568]	@ (2ffee96c <stm32_i2c_init+0x290>)
2ffee732:	4299      	cmp	r1, r3
2ffee734:	d97f      	bls.n	2ffee836 <stm32_i2c_init+0x15a>
2ffee736:	4b8e      	ldr	r3, [pc, #568]	@ (2ffee970 <stm32_i2c_init+0x294>)
2ffee738:	4299      	cmp	r1, r3
2ffee73a:	d87f      	bhi.n	2ffee83c <stm32_i2c_init+0x160>
2ffee73c:	f04f 0902 	mov.w	r9, #2
2ffee740:	4a8c      	ldr	r2, [pc, #560]	@ (2ffee974 <stm32_i2c_init+0x298>)
2ffee742:	ea4f 1349 	mov.w	r3, r9, lsl #5
2ffee746:	eb02 1149 	add.w	r1, r2, r9, lsl #5
2ffee74a:	f852 8003 	ldr.w	r8, [r2, r3]
2ffee74e:	4b85      	ldr	r3, [pc, #532]	@ (2ffee964 <stm32_i2c_init+0x288>)
2ffee750:	688a      	ldr	r2, [r1, #8]
2ffee752:	eb03 0358 	add.w	r3, r3, r8, lsr #1
2ffee756:	69e8      	ldr	r0, [r5, #28]
2ffee758:	fbb3 f3f8 	udiv	r3, r3, r8
2ffee75c:	4290      	cmp	r0, r2
2ffee75e:	9307      	str	r3, [sp, #28]
2ffee760:	6849      	ldr	r1, [r1, #4]
2ffee762:	6a2b      	ldr	r3, [r5, #32]
2ffee764:	f240 8084 	bls.w	2ffee870 <stm32_i2c_init+0x194>
2ffee768:	9100      	str	r1, [sp, #0]
2ffee76a:	4601      	mov	r1, r0
2ffee76c:	4882      	ldr	r0, [pc, #520]	@ (2ffee978 <stm32_i2c_init+0x29c>)
2ffee76e:	f7fb fd5d 	bl	2ffea22c <tf_log>
2ffee772:	e066      	b.n	2ffee842 <stm32_i2c_init+0x166>
2ffee774:	69e6      	ldr	r6, [r4, #28]
2ffee776:	68a0      	ldr	r0, [r4, #8]
2ffee778:	f026 6670 	bic.w	r6, r6, #251658240	@ 0xf000000
2ffee77c:	f7fb ff1e 	bl	2ffea5bc <clk_enable>
2ffee780:	6822      	ldr	r2, [r4, #0]
2ffee782:	2120      	movs	r1, #32
2ffee784:	6813      	ldr	r3, [r2, #0]
2ffee786:	f023 0301 	bic.w	r3, r3, #1
2ffee78a:	6013      	str	r3, [r2, #0]
2ffee78c:	6823      	ldr	r3, [r4, #0]
2ffee78e:	611e      	str	r6, [r3, #16]
2ffee790:	6822      	ldr	r2, [r4, #0]
2ffee792:	6893      	ldr	r3, [r2, #8]
2ffee794:	f423 4300 	bic.w	r3, r3, #32768	@ 0x8000
2ffee798:	6093      	str	r3, [r2, #8]
2ffee79a:	686b      	ldr	r3, [r5, #4]
2ffee79c:	6822      	ldr	r2, [r4, #0]
2ffee79e:	2b01      	cmp	r3, #1
2ffee7a0:	682b      	ldr	r3, [r5, #0]
2ffee7a2:	bf0c      	ite	eq
2ffee7a4:	f443 4300 	orreq.w	r3, r3, #32768	@ 0x8000
2ffee7a8:	f443 4304 	orrne.w	r3, r3, #33792	@ 0x8400
2ffee7ac:	6093      	str	r3, [r2, #8]
2ffee7ae:	2200      	movs	r2, #0
2ffee7b0:	6823      	ldr	r3, [r4, #0]
2ffee7b2:	605a      	str	r2, [r3, #4]
2ffee7b4:	686b      	ldr	r3, [r5, #4]
2ffee7b6:	2b02      	cmp	r3, #2
2ffee7b8:	bf01      	itttt	eq
2ffee7ba:	6822      	ldreq	r2, [r4, #0]
2ffee7bc:	6853      	ldreq	r3, [r2, #4]
2ffee7be:	f443 6300 	orreq.w	r3, r3, #2048	@ 0x800
2ffee7c2:	6053      	streq	r3, [r2, #4]
2ffee7c4:	6822      	ldr	r2, [r4, #0]
2ffee7c6:	6853      	ldr	r3, [r2, #4]
2ffee7c8:	f043 7300 	orr.w	r3, r3, #33554432	@ 0x2000000
2ffee7cc:	f443 4300 	orr.w	r3, r3, #32768	@ 0x8000
2ffee7d0:	6053      	str	r3, [r2, #4]
2ffee7d2:	6822      	ldr	r2, [r4, #0]
2ffee7d4:	68d3      	ldr	r3, [r2, #12]
2ffee7d6:	f423 4300 	bic.w	r3, r3, #32768	@ 0x8000
2ffee7da:	60d3      	str	r3, [r2, #12]
2ffee7dc:	68ea      	ldr	r2, [r5, #12]
2ffee7de:	68ab      	ldr	r3, [r5, #8]
2ffee7e0:	4313      	orrs	r3, r2
2ffee7e2:	692a      	ldr	r2, [r5, #16]
2ffee7e4:	ea43 2302 	orr.w	r3, r3, r2, lsl #8
2ffee7e8:	6822      	ldr	r2, [r4, #0]
2ffee7ea:	60d3      	str	r3, [r2, #12]
2ffee7ec:	69aa      	ldr	r2, [r5, #24]
2ffee7ee:	696b      	ldr	r3, [r5, #20]
2ffee7f0:	4313      	orrs	r3, r2
2ffee7f2:	6822      	ldr	r2, [r4, #0]
2ffee7f4:	6013      	str	r3, [r2, #0]
2ffee7f6:	6822      	ldr	r2, [r4, #0]
2ffee7f8:	6813      	ldr	r3, [r2, #0]
2ffee7fa:	f043 0301 	orr.w	r3, r3, #1
2ffee7fe:	6013      	str	r3, [r2, #0]
2ffee800:	2300      	movs	r3, #0
2ffee802:	61a3      	str	r3, [r4, #24]
2ffee804:	6163      	str	r3, [r4, #20]
2ffee806:	6aab      	ldr	r3, [r5, #40]	@ 0x28
2ffee808:	7b27      	ldrb	r7, [r4, #12]
2ffee80a:	fab3 f383 	clz	r3, r3
2ffee80e:	6121      	str	r1, [r4, #16]
2ffee810:	095b      	lsrs	r3, r3, #5
2ffee812:	031b      	lsls	r3, r3, #12
2ffee814:	2f00      	cmp	r7, #0
2ffee816:	f000 8155 	beq.w	2ffeeac4 <stm32_i2c_init+0x3e8>
2ffee81a:	4858      	ldr	r0, [pc, #352]	@ (2ffee97c <stm32_i2c_init+0x2a0>)
2ffee81c:	f06f 010f 	mvn.w	r1, #15
2ffee820:	f06f 070f 	mvn.w	r7, #15
2ffee824:	f7fb fd02 	bl	2ffea22c <tf_log>
2ffee828:	68a0      	ldr	r0, [r4, #8]
2ffee82a:	f7fb fed9 	bl	2ffea5e0 <clk_disable>
2ffee82e:	e76c      	b.n	2ffee70a <stm32_i2c_init+0x2e>
2ffee830:	f04f 0900 	mov.w	r9, #0
2ffee834:	e784      	b.n	2ffee740 <stm32_i2c_init+0x64>
2ffee836:	f04f 0901 	mov.w	r9, #1
2ffee83a:	e781      	b.n	2ffee740 <stm32_i2c_init+0x64>
2ffee83c:	4850      	ldr	r0, [pc, #320]	@ (2ffee980 <stm32_i2c_init+0x2a4>)
2ffee83e:	f7fb fcf5 	bl	2ffea22c <tf_log>
2ffee842:	f06f 0715 	mvn.w	r7, #21
2ffee846:	484f      	ldr	r0, [pc, #316]	@ (2ffee984 <stm32_i2c_init+0x2a8>)
2ffee848:	f7fb fcf0 	bl	2ffea22c <tf_log>
2ffee84c:	6a6b      	ldr	r3, [r5, #36]	@ 0x24
2ffee84e:	4846      	ldr	r0, [pc, #280]	@ (2ffee968 <stm32_i2c_init+0x28c>)
2ffee850:	4283      	cmp	r3, r0
2ffee852:	f240 8133 	bls.w	2ffeeabc <stm32_i2c_init+0x3e0>
2ffee856:	4946      	ldr	r1, [pc, #280]	@ (2ffee970 <stm32_i2c_init+0x294>)
2ffee858:	428b      	cmp	r3, r1
2ffee85a:	d804      	bhi.n	2ffee866 <stm32_i2c_init+0x18a>
2ffee85c:	4a43      	ldr	r2, [pc, #268]	@ (2ffee96c <stm32_i2c_init+0x290>)
2ffee85e:	4293      	cmp	r3, r2
2ffee860:	bf94      	ite	ls
2ffee862:	4601      	movls	r1, r0
2ffee864:	4611      	movhi	r1, r2
2ffee866:	4848      	ldr	r0, [pc, #288]	@ (2ffee988 <stm32_i2c_init+0x2ac>)
2ffee868:	6269      	str	r1, [r5, #36]	@ 0x24
2ffee86a:	f7fb fcdf 	bl	2ffea22c <tf_log>
2ffee86e:	e75b      	b.n	2ffee728 <stm32_i2c_init+0x4c>
2ffee870:	428b      	cmp	r3, r1
2ffee872:	f63f af79 	bhi.w	2ffee768 <stm32_i2c_init+0x8c>
2ffee876:	f895 102c 	ldrb.w	r1, [r5, #44]	@ 0x2c
2ffee87a:	2910      	cmp	r1, #16
2ffee87c:	d904      	bls.n	2ffee888 <stm32_i2c_init+0x1ac>
2ffee87e:	4843      	ldr	r0, [pc, #268]	@ (2ffee98c <stm32_i2c_init+0x2b0>)
2ffee880:	2210      	movs	r2, #16
2ffee882:	f7fb fcd3 	bl	2ffea22c <tf_log>
2ffee886:	e7dc      	b.n	2ffee842 <stm32_i2c_init+0x166>
2ffee888:	6aaf      	ldr	r7, [r5, #40]	@ 0x28
2ffee88a:	bb6f      	cbnz	r7, 2ffee8e8 <stm32_i2c_init+0x20c>
2ffee88c:	46be      	mov	lr, r7
2ffee88e:	fb06 f201 	mul.w	r2, r6, r1
2ffee892:	3103      	adds	r1, #3
2ffee894:	9205      	str	r2, [sp, #20]
2ffee896:	4a37      	ldr	r2, [pc, #220]	@ (2ffee974 <stm32_i2c_init+0x298>)
2ffee898:	4371      	muls	r1, r6
2ffee89a:	eb02 1c49 	add.w	ip, r2, r9, lsl #5
2ffee89e:	1a5b      	subs	r3, r3, r1
2ffee8a0:	f8dc 200c 	ldr.w	r2, [ip, #12]
2ffee8a4:	4431      	add	r1, r6
2ffee8a6:	4413      	add	r3, r2
2ffee8a8:	1bdb      	subs	r3, r3, r7
2ffee8aa:	9303      	str	r3, [sp, #12]
2ffee8ac:	f8dc 3010 	ldr.w	r3, [ip, #16]
2ffee8b0:	4401      	add	r1, r0
2ffee8b2:	1a5b      	subs	r3, r3, r1
2ffee8b4:	2150      	movs	r1, #80	@ 0x50
2ffee8b6:	eba3 030e 	sub.w	r3, r3, lr
2ffee8ba:	9304      	str	r3, [sp, #16]
2ffee8bc:	f8dc 3014 	ldr.w	r3, [ip, #20]
2ffee8c0:	18c3      	adds	r3, r0, r3
2ffee8c2:	a80e      	add	r0, sp, #56	@ 0x38
2ffee8c4:	9308      	str	r3, [sp, #32]
2ffee8c6:	9b03      	ldr	r3, [sp, #12]
2ffee8c8:	ea23 73e3 	bic.w	r3, r3, r3, asr #31
2ffee8cc:	9303      	str	r3, [sp, #12]
2ffee8ce:	9b04      	ldr	r3, [sp, #16]
2ffee8d0:	ea23 73e3 	bic.w	r3, r3, r3, asr #31
2ffee8d4:	9304      	str	r3, [sp, #16]
2ffee8d6:	f7fa ee98 	blx	2ffe9608 <zero_normalmem>
2ffee8da:	4630      	mov	r0, r6
2ffee8dc:	2300      	movs	r3, #0
2ffee8de:	f04f 0c10 	mov.w	ip, #16
2ffee8e2:	4682      	mov	sl, r0
2ffee8e4:	2100      	movs	r1, #0
2ffee8e6:	e00d      	b.n	2ffee904 <stm32_i2c_init+0x228>
2ffee8e8:	2732      	movs	r7, #50	@ 0x32
2ffee8ea:	f44f 7e82 	mov.w	lr, #260	@ 0x104
2ffee8ee:	e7ce      	b.n	2ffee88e <stm32_i2c_init+0x1b2>
2ffee8f0:	4486      	add	lr, r0
2ffee8f2:	3201      	adds	r2, #1
2ffee8f4:	b292      	uxth	r2, r2
2ffee8f6:	2a10      	cmp	r2, #16
2ffee8f8:	d10c      	bne.n	2ffee914 <stm32_i2c_init+0x238>
2ffee8fa:	459c      	cmp	ip, r3
2ffee8fc:	d022      	beq.n	2ffee944 <stm32_i2c_init+0x268>
2ffee8fe:	4482      	add	sl, r0
2ffee900:	2910      	cmp	r1, #16
2ffee902:	d020      	beq.n	2ffee946 <stm32_i2c_init+0x26a>
2ffee904:	9a08      	ldr	r2, [sp, #32]
2ffee906:	9106      	str	r1, [sp, #24]
2ffee908:	3101      	adds	r1, #1
2ffee90a:	4552      	cmp	r2, sl
2ffee90c:	b289      	uxth	r1, r1
2ffee90e:	d8f6      	bhi.n	2ffee8fe <stm32_i2c_init+0x222>
2ffee910:	46b6      	mov	lr, r6
2ffee912:	2200      	movs	r2, #0
2ffee914:	f8dd b00c 	ldr.w	fp, [sp, #12]
2ffee918:	45f3      	cmp	fp, lr
2ffee91a:	d8e9      	bhi.n	2ffee8f0 <stm32_i2c_init+0x214>
2ffee91c:	f8dd b010 	ldr.w	fp, [sp, #16]
2ffee920:	45f3      	cmp	fp, lr
2ffee922:	d3e5      	bcc.n	2ffee8f0 <stm32_i2c_init+0x214>
2ffee924:	459c      	cmp	ip, r3
2ffee926:	d0e3      	beq.n	2ffee8f0 <stm32_i2c_init+0x214>
2ffee928:	eb03 0183 	add.w	r1, r3, r3, lsl #2
2ffee92c:	f8dd c018 	ldr.w	ip, [sp, #24]
2ffee930:	3188      	adds	r1, #136	@ 0x88
2ffee932:	4469      	add	r1, sp
2ffee934:	f801 2c4f 	strb.w	r2, [r1, #-79]
2ffee938:	f04f 0201 	mov.w	r2, #1
2ffee93c:	f801 cc50 	strb.w	ip, [r1, #-80]
2ffee940:	f801 2c4c 	strb.w	r2, [r1, #-76]
2ffee944:	469c      	mov	ip, r3
2ffee946:	4430      	add	r0, r6
2ffee948:	3301      	adds	r3, #1
2ffee94a:	2b10      	cmp	r3, #16
2ffee94c:	d1c9      	bne.n	2ffee8e2 <stm32_i2c_init+0x206>
2ffee94e:	f1bc 0f10 	cmp.w	ip, #16
2ffee952:	d11f      	bne.n	2ffee994 <stm32_i2c_init+0x2b8>
2ffee954:	480e      	ldr	r0, [pc, #56]	@ (2ffee990 <stm32_i2c_init+0x2b4>)
2ffee956:	f04f 37ff 	mov.w	r7, #4294967295	@ 0xffffffff
2ffee95a:	f7fb fc67 	bl	2ffea22c <tf_log>
2ffee95e:	e772      	b.n	2ffee846 <stm32_i2c_init+0x16a>
2ffee960:	2fff7621 	.word	0x2fff7621
2ffee964:	3b9aca00 	.word	0x3b9aca00
2ffee968:	000186a0 	.word	0x000186a0
2ffee96c:	00061a80 	.word	0x00061a80
2ffee970:	000f4240 	.word	0x000f4240
2ffee974:	2fff54ec 	.word	0x2fff54ec
2ffee978:	2fff7655 	.word	0x2fff7655
2ffee97c:	2fff773c 	.word	0x2fff773c
2ffee980:	2fff7637 	.word	0x2fff7637
2ffee984:	2fff76d9 	.word	0x2fff76d9
2ffee988:	2fff76f9 	.word	0x2fff76f9
2ffee98c:	2fff7689 	.word	0x2fff7689
2ffee990:	2fff76a2 	.word	0x2fff76a2
2ffee994:	9a09      	ldr	r2, [sp, #36]	@ 0x24
2ffee996:	f10d 0c38 	add.w	ip, sp, #56	@ 0x38
2ffee99a:	9b05      	ldr	r3, [sp, #20]
2ffee99c:	4630      	mov	r0, r6
2ffee99e:	f04f 31ff 	mov.w	r1, #4294967295	@ 0xffffffff
2ffee9a2:	4413      	add	r3, r2
2ffee9a4:	2250      	movs	r2, #80	@ 0x50
2ffee9a6:	443b      	add	r3, r7
2ffee9a8:	9308      	str	r3, [sp, #32]
2ffee9aa:	2364      	movs	r3, #100	@ 0x64
2ffee9ac:	fbb8 f3f3 	udiv	r3, r8, r3
2ffee9b0:	4353      	muls	r3, r2
2ffee9b2:	4a53      	ldr	r2, [pc, #332]	@ (2ffeeb00 <stm32_i2c_init+0x424>)
2ffee9b4:	fbb2 f3f3 	udiv	r3, r2, r3
2ffee9b8:	930a      	str	r3, [sp, #40]	@ 0x28
2ffee9ba:	fbb2 f3f8 	udiv	r3, r2, r8
2ffee9be:	930b      	str	r3, [sp, #44]	@ 0x2c
2ffee9c0:	f06f 4300 	mvn.w	r3, #2147483648	@ 0x80000000
2ffee9c4:	9303      	str	r3, [sp, #12]
2ffee9c6:	f04f 0800 	mov.w	r8, #0
2ffee9ca:	4b4e      	ldr	r3, [pc, #312]	@ (2ffeeb04 <stm32_i2c_init+0x428>)
2ffee9cc:	eb03 1349 	add.w	r3, r3, r9, lsl #5
2ffee9d0:	9306      	str	r3, [sp, #24]
2ffee9d2:	9b05      	ldr	r3, [sp, #20]
2ffee9d4:	443b      	add	r3, r7
2ffee9d6:	930d      	str	r3, [sp, #52]	@ 0x34
2ffee9d8:	f89c 3004 	ldrb.w	r3, [ip, #4]
2ffee9dc:	2b00      	cmp	r3, #0
2ffee9de:	d045      	beq.n	2ffeea6c <stm32_i2c_init+0x390>
2ffee9e0:	9b06      	ldr	r3, [sp, #24]
2ffee9e2:	f04f 0900 	mov.w	r9, #0
2ffee9e6:	699b      	ldr	r3, [r3, #24]
2ffee9e8:	9305      	str	r3, [sp, #20]
2ffee9ea:	9b08      	ldr	r3, [sp, #32]
2ffee9ec:	4403      	add	r3, r0
2ffee9ee:	9304      	str	r3, [sp, #16]
2ffee9f0:	469e      	mov	lr, r3
2ffee9f2:	9b05      	ldr	r3, [sp, #20]
2ffee9f4:	4573      	cmp	r3, lr
2ffee9f6:	d833      	bhi.n	2ffeea60 <stm32_i2c_init+0x384>
2ffee9f8:	9b0d      	ldr	r3, [sp, #52]	@ 0x34
2ffee9fa:	ebae 0303 	sub.w	r3, lr, r3
2ffee9fe:	ebb6 0f93 	cmp.w	r6, r3, lsr #2
2ffeea02:	d22d      	bcs.n	2ffeea60 <stm32_i2c_init+0x384>
2ffeea04:	6a2b      	ldr	r3, [r5, #32]
2ffeea06:	f04f 0a00 	mov.w	sl, #0
2ffeea0a:	69ea      	ldr	r2, [r5, #28]
2ffeea0c:	9f07      	ldr	r7, [sp, #28]
2ffeea0e:	441a      	add	r2, r3
2ffeea10:	4472      	add	r2, lr
2ffeea12:	9b04      	ldr	r3, [sp, #16]
2ffeea14:	1bd7      	subs	r7, r2, r7
2ffeea16:	970c      	str	r7, [sp, #48]	@ 0x30
2ffeea18:	f8dd b02c 	ldr.w	fp, [sp, #44]	@ 0x2c
2ffeea1c:	18d7      	adds	r7, r2, r3
2ffeea1e:	45bb      	cmp	fp, r7
2ffeea20:	d818      	bhi.n	2ffeea54 <stm32_i2c_init+0x378>
2ffeea22:	f8dd b028 	ldr.w	fp, [sp, #40]	@ 0x28
2ffeea26:	45bb      	cmp	fp, r7
2ffeea28:	d314      	bcc.n	2ffeea54 <stm32_i2c_init+0x378>
2ffeea2a:	9f06      	ldr	r7, [sp, #24]
2ffeea2c:	69ff      	ldr	r7, [r7, #28]
2ffeea2e:	429f      	cmp	r7, r3
2ffeea30:	d810      	bhi.n	2ffeea54 <stm32_i2c_init+0x378>
2ffeea32:	429e      	cmp	r6, r3
2ffeea34:	d20e      	bcs.n	2ffeea54 <stm32_i2c_init+0x378>
2ffeea36:	9f0c      	ldr	r7, [sp, #48]	@ 0x30
2ffeea38:	f8dd b00c 	ldr.w	fp, [sp, #12]
2ffeea3c:	441f      	add	r7, r3
2ffeea3e:	2f00      	cmp	r7, #0
2ffeea40:	bfb8      	it	lt
2ffeea42:	427f      	neglt	r7, r7
2ffeea44:	455f      	cmp	r7, fp
2ffeea46:	bfbf      	itttt	lt
2ffeea48:	f88c 9003 	strblt.w	r9, [ip, #3]
2ffeea4c:	4641      	movlt	r1, r8
2ffeea4e:	f88c a002 	strblt.w	sl, [ip, #2]
2ffeea52:	9703      	strlt	r7, [sp, #12]
2ffeea54:	4403      	add	r3, r0
2ffeea56:	f10a 0a01 	add.w	sl, sl, #1
2ffeea5a:	f5ba 7f80 	cmp.w	sl, #256	@ 0x100
2ffeea5e:	d1db      	bne.n	2ffeea18 <stm32_i2c_init+0x33c>
2ffeea60:	4486      	add	lr, r0
2ffeea62:	f109 0901 	add.w	r9, r9, #1
2ffeea66:	f5b9 7f80 	cmp.w	r9, #256	@ 0x100
2ffeea6a:	d1c2      	bne.n	2ffee9f2 <stm32_i2c_init+0x316>
2ffeea6c:	4430      	add	r0, r6
2ffeea6e:	f108 0801 	add.w	r8, r8, #1
2ffeea72:	f1b8 0f10 	cmp.w	r8, #16
2ffeea76:	f10c 0c05 	add.w	ip, ip, #5
2ffeea7a:	d1ad      	bne.n	2ffee9d8 <stm32_i2c_init+0x2fc>
2ffeea7c:	2900      	cmp	r1, #0
2ffeea7e:	da01      	bge.n	2ffeea84 <stm32_i2c_init+0x3a8>
2ffeea80:	4821      	ldr	r0, [pc, #132]	@ (2ffeeb08 <stm32_i2c_init+0x42c>)
2ffeea82:	e768      	b.n	2ffee956 <stm32_i2c_init+0x27a>
2ffeea84:	eb01 0381 	add.w	r3, r1, r1, lsl #2
2ffeea88:	3388      	adds	r3, #136	@ 0x88
2ffeea8a:	446b      	add	r3, sp
2ffeea8c:	f813 6c4d 	ldrb.w	r6, [r3, #-77]
2ffeea90:	f813 2c4e 	ldrb.w	r2, [r3, #-78]
2ffeea94:	ea46 7601 	orr.w	r6, r6, r1, lsl #28
2ffeea98:	ea46 2602 	orr.w	r6, r6, r2, lsl #8
2ffeea9c:	f813 2c50 	ldrb.w	r2, [r3, #-80]
2ffeeaa0:	f813 3c4f 	ldrb.w	r3, [r3, #-79]
2ffeeaa4:	0512      	lsls	r2, r2, #20
2ffeeaa6:	041b      	lsls	r3, r3, #16
2ffeeaa8:	f402 0270 	and.w	r2, r2, #15728640	@ 0xf00000
2ffeeaac:	4316      	orrs	r6, r2
2ffeeaae:	f403 2370 	and.w	r3, r3, #983040	@ 0xf0000
2ffeeab2:	431e      	orrs	r6, r3
2ffeeab4:	9b02      	ldr	r3, [sp, #8]
2ffeeab6:	61e6      	str	r6, [r4, #28]
2ffeeab8:	6223      	str	r3, [r4, #32]
2ffeeaba:	e65c      	b.n	2ffee776 <stm32_i2c_init+0x9a>
2ffeeabc:	4813      	ldr	r0, [pc, #76]	@ (2ffeeb0c <stm32_i2c_init+0x430>)
2ffeeabe:	f7fb fbb5 	bl	2ffea22c <tf_log>
2ffeeac2:	e622      	b.n	2ffee70a <stm32_i2c_init+0x2e>
2ffeeac4:	6820      	ldr	r0, [r4, #0]
2ffeeac6:	2224      	movs	r2, #36	@ 0x24
2ffeeac8:	6122      	str	r2, [r4, #16]
2ffeeaca:	6802      	ldr	r2, [r0, #0]
2ffeeacc:	f022 0201 	bic.w	r2, r2, #1
2ffeead0:	6002      	str	r2, [r0, #0]
2ffeead2:	6820      	ldr	r0, [r4, #0]
2ffeead4:	6802      	ldr	r2, [r0, #0]
2ffeead6:	f422 5280 	bic.w	r2, r2, #4096	@ 0x1000
2ffeeada:	6002      	str	r2, [r0, #0]
2ffeeadc:	6820      	ldr	r0, [r4, #0]
2ffeeade:	6802      	ldr	r2, [r0, #0]
2ffeeae0:	4313      	orrs	r3, r2
2ffeeae2:	6003      	str	r3, [r0, #0]
2ffeeae4:	6822      	ldr	r2, [r4, #0]
2ffeeae6:	6813      	ldr	r3, [r2, #0]
2ffeeae8:	f043 0301 	orr.w	r3, r3, #1
2ffeeaec:	6013      	str	r3, [r2, #0]
2ffeeaee:	6121      	str	r1, [r4, #16]
2ffeeaf0:	68a0      	ldr	r0, [r4, #8]
2ffeeaf2:	7327      	strb	r7, [r4, #12]
2ffeeaf4:	f7fb fd74 	bl	2ffea5e0 <clk_disable>
2ffeeaf8:	e607      	b.n	2ffee70a <stm32_i2c_init+0x2e>
2ffeeafa:	f06f 0701 	mvn.w	r7, #1
2ffeeafe:	e604      	b.n	2ffee70a <stm32_i2c_init+0x2e>
2ffeeb00:	3b9aca00 	.word	0x3b9aca00
2ffeeb04:	2fff54ec 	.word	0x2fff54ec
2ffeeb08:	2fff76bf 	.word	0x2fff76bf
2ffeeb0c:	2fff7718 	.word	0x2fff7718

2ffeeb10 <stm32_i2c_is_device_ready>:
2ffeeb10:	e92d 4ff7 	stmdb	sp!, {r0, r1, r2, r4, r5, r6, r7, r8, r9, sl, fp, lr}
2ffeeb14:	461f      	mov	r7, r3
2ffeeb16:	6903      	ldr	r3, [r0, #16]
2ffeeb18:	4604      	mov	r4, r0
2ffeeb1a:	468a      	mov	sl, r1
2ffeeb1c:	4693      	mov	fp, r2
2ffeeb1e:	2b20      	cmp	r3, #32
2ffeeb20:	f040 808a 	bne.w	2ffeec38 <stm32_i2c_is_device_ready+0x128>
2ffeeb24:	7b05      	ldrb	r5, [r0, #12]
2ffeeb26:	2d00      	cmp	r5, #0
2ffeeb28:	f040 8086 	bne.w	2ffeec38 <stm32_i2c_is_device_ready+0x128>
2ffeeb2c:	6880      	ldr	r0, [r0, #8]
2ffeeb2e:	f7fb fd45 	bl	2ffea5bc <clk_enable>
2ffeeb32:	6165      	str	r5, [r4, #20]
2ffeeb34:	2301      	movs	r3, #1
2ffeeb36:	7323      	strb	r3, [r4, #12]
2ffeeb38:	6823      	ldr	r3, [r4, #0]
2ffeeb3a:	699d      	ldr	r5, [r3, #24]
2ffeeb3c:	f415 4500 	ands.w	r5, r5, #32768	@ 0x8000
2ffeeb40:	d136      	bne.n	2ffeebb0 <stm32_i2c_is_device_ready+0xa0>
2ffeeb42:	f3ca 0a09 	ubfx	sl, sl, #0, #10
2ffeeb46:	2324      	movs	r3, #36	@ 0x24
2ffeeb48:	6123      	str	r3, [r4, #16]
2ffeeb4a:	f44f 737a 	mov.w	r3, #1000	@ 0x3e8
2ffeeb4e:	435f      	muls	r7, r3
2ffeeb50:	61a5      	str	r5, [r4, #24]
2ffeeb52:	6823      	ldr	r3, [r4, #0]
2ffeeb54:	689a      	ldr	r2, [r3, #8]
2ffeeb56:	0552      	lsls	r2, r2, #21
2ffeeb58:	bf56      	itet	pl
2ffeeb5a:	f04a 7200 	orrpl.w	r2, sl, #33554432	@ 0x2000000
2ffeeb5e:	f44a 5220 	orrmi.w	r2, sl, #10240	@ 0x2800
2ffeeb62:	f442 5200 	orrpl.w	r2, r2, #8192	@ 0x2000
2ffeeb66:	605a      	str	r2, [r3, #4]
2ffeeb68:	ee1e 0f10 	mrc	15, 0, r0, cr14, cr0, {0}
2ffeeb6c:	ec59 8f0e 	mrrc	15, 0, r8, r9, cr14
2ffeeb70:	4a32      	ldr	r2, [pc, #200]	@ (2ffeec3c <stm32_i2c_is_device_ready+0x12c>)
2ffeeb72:	2300      	movs	r3, #0
2ffeeb74:	fba7 0100 	umull	r0, r1, r7, r0
2ffeeb78:	4646      	mov	r6, r8
2ffeeb7a:	f004 e99e 	blx	2fff2eb8 <__aeabi_uldivmod>
2ffeeb7e:	1986      	adds	r6, r0, r6
2ffeeb80:	eb41 0809 	adc.w	r8, r1, r9
2ffeeb84:	f8d4 9000 	ldr.w	r9, [r4]
2ffeeb88:	f109 0c18 	add.w	ip, r9, #24
2ffeeb8c:	f8dc 2000 	ldr.w	r2, [ip]
2ffeeb90:	f012 0230 	ands.w	r2, r2, #48	@ 0x30
2ffeeb94:	d116      	bne.n	2ffeebc4 <stm32_i2c_is_device_ready+0xb4>
2ffeeb96:	ec51 0f0e 	mrrc	15, 0, r0, r1, cr14
2ffeeb9a:	4286      	cmp	r6, r0
2ffeeb9c:	eb78 0301 	sbcs.w	r3, r8, r1
2ffeeba0:	d2f4      	bcs.n	2ffeeb8c <stm32_i2c_is_device_ready+0x7c>
2ffeeba2:	69a3      	ldr	r3, [r4, #24]
2ffeeba4:	6162      	str	r2, [r4, #20]
2ffeeba6:	f043 0320 	orr.w	r3, r3, #32
2ffeebaa:	61a3      	str	r3, [r4, #24]
2ffeebac:	2320      	movs	r3, #32
2ffeebae:	6123      	str	r3, [r4, #16]
2ffeebb0:	2500      	movs	r5, #0
2ffeebb2:	68a0      	ldr	r0, [r4, #8]
2ffeebb4:	2300      	movs	r3, #0
2ffeebb6:	7323      	strb	r3, [r4, #12]
2ffeebb8:	f7fb fd12 	bl	2ffea5e0 <clk_disable>
2ffeebbc:	4628      	mov	r0, r5
2ffeebbe:	b003      	add	sp, #12
2ffeebc0:	e8bd 8ff0 	ldmia.w	sp!, {r4, r5, r6, r7, r8, r9, sl, fp, pc}
2ffeebc4:	f8d9 2018 	ldr.w	r2, [r9, #24]
2ffeebc8:	e9cd 6800 	strd	r6, r8, [sp]
2ffeebcc:	f012 0210 	ands.w	r2, r2, #16
2ffeebd0:	d10a      	bne.n	2ffeebe8 <stm32_i2c_is_device_ready+0xd8>
2ffeebd2:	2120      	movs	r1, #32
2ffeebd4:	4620      	mov	r0, r4
2ffeebd6:	f005 f8f3 	bl	2fff3dc0 <i2c_wait_flag>
2ffeebda:	2800      	cmp	r0, #0
2ffeebdc:	d1e8      	bne.n	2ffeebb0 <stm32_i2c_is_device_ready+0xa0>
2ffeebde:	f8c9 101c 	str.w	r1, [r9, #28]
2ffeebe2:	2501      	movs	r5, #1
2ffeebe4:	6121      	str	r1, [r4, #16]
2ffeebe6:	e7e4      	b.n	2ffeebb2 <stm32_i2c_is_device_ready+0xa2>
2ffeebe8:	2200      	movs	r2, #0
2ffeebea:	2120      	movs	r1, #32
2ffeebec:	4620      	mov	r0, r4
2ffeebee:	f005 f8e7 	bl	2fff3dc0 <i2c_wait_flag>
2ffeebf2:	4602      	mov	r2, r0
2ffeebf4:	2800      	cmp	r0, #0
2ffeebf6:	d1db      	bne.n	2ffeebb0 <stm32_i2c_is_device_ready+0xa0>
2ffeebf8:	455d      	cmp	r5, fp
2ffeebfa:	f04f 0310 	mov.w	r3, #16
2ffeebfe:	f8c9 301c 	str.w	r3, [r9, #28]
2ffeec02:	6823      	ldr	r3, [r4, #0]
2ffeec04:	61d9      	str	r1, [r3, #28]
2ffeec06:	d10d      	bne.n	2ffeec24 <stm32_i2c_is_device_ready+0x114>
2ffeec08:	6820      	ldr	r0, [r4, #0]
2ffeec0a:	6843      	ldr	r3, [r0, #4]
2ffeec0c:	f443 4380 	orr.w	r3, r3, #16384	@ 0x4000
2ffeec10:	6043      	str	r3, [r0, #4]
2ffeec12:	4620      	mov	r0, r4
2ffeec14:	e9cd 6800 	strd	r6, r8, [sp]
2ffeec18:	f005 f8d2 	bl	2fff3dc0 <i2c_wait_flag>
2ffeec1c:	2800      	cmp	r0, #0
2ffeec1e:	d1c7      	bne.n	2ffeebb0 <stm32_i2c_is_device_ready+0xa0>
2ffeec20:	6823      	ldr	r3, [r4, #0]
2ffeec22:	61d9      	str	r1, [r3, #28]
2ffeec24:	3501      	adds	r5, #1
2ffeec26:	45ab      	cmp	fp, r5
2ffeec28:	d893      	bhi.n	2ffeeb52 <stm32_i2c_is_device_ready+0x42>
2ffeec2a:	69a3      	ldr	r3, [r4, #24]
2ffeec2c:	f043 0320 	orr.w	r3, r3, #32
2ffeec30:	61a3      	str	r3, [r4, #24]
2ffeec32:	2300      	movs	r3, #0
2ffeec34:	6163      	str	r3, [r4, #20]
2ffeec36:	e7b9      	b.n	2ffeebac <stm32_i2c_is_device_ready+0x9c>
2ffeec38:	2500      	movs	r5, #0
2ffeec3a:	e7bf      	b.n	2ffeebbc <stm32_i2c_is_device_ready+0xac>
2ffeec3c:	000f4240 	.word	0x000f4240

2ffeec40 <fdt_get_clk_by_name>:
2ffeec40:	b5f7      	push	{r0, r1, r2, r4, r5, r6, r7, lr}
2ffeec42:	461d      	mov	r5, r3
2ffeec44:	4613      	mov	r3, r2
2ffeec46:	4606      	mov	r6, r0
2ffeec48:	4a0e      	ldr	r2, [pc, #56]	@ (2ffeec84 <fdt_get_clk_by_name+0x44>)
2ffeec4a:	460f      	mov	r7, r1
2ffeec4c:	f006 f8eb 	bl	2fff4e26 <fdt_stringlist_search>
2ffeec50:	1e04      	subs	r4, r0, #0
2ffeec52:	db11      	blt.n	2ffeec78 <fdt_get_clk_by_name+0x38>
2ffeec54:	4a0c      	ldr	r2, [pc, #48]	@ (2ffeec88 <fdt_get_clk_by_name+0x48>)
2ffeec56:	ab01      	add	r3, sp, #4
2ffeec58:	4639      	mov	r1, r7
2ffeec5a:	4630      	mov	r0, r6
2ffeec5c:	f005 ffe1 	bl	2fff4c22 <fdt_getprop>
2ffeec60:	b168      	cbz	r0, 2ffeec7e <fdt_get_clk_by_name+0x3e>
2ffeec62:	9a01      	ldr	r2, [sp, #4]
2ffeec64:	1c63      	adds	r3, r4, #1
2ffeec66:	ebb2 0fc3 	cmp.w	r2, r3, lsl #3
2ffeec6a:	db08      	blt.n	2ffeec7e <fdt_get_clk_by_name+0x3e>
2ffeec6c:	eb00 00c4 	add.w	r0, r0, r4, lsl #3
2ffeec70:	2400      	movs	r4, #0
2ffeec72:	6843      	ldr	r3, [r0, #4]
2ffeec74:	ba1b      	rev	r3, r3
2ffeec76:	602b      	str	r3, [r5, #0]
2ffeec78:	4620      	mov	r0, r4
2ffeec7a:	b003      	add	sp, #12
2ffeec7c:	bdf0      	pop	{r4, r5, r6, r7, pc}
2ffeec7e:	f04f 34ff 	mov.w	r4, #4294967295	@ 0xffffffff
2ffeec82:	e7f9      	b.n	2ffeec78 <fdt_get_clk_by_name+0x38>
2ffeec84:	2fff7767 	.word	0x2fff7767
2ffeec88:	2fff72dc 	.word	0x2fff72dc

2ffeec8c <stm32_iwdg_refresh>:
2ffeec8c:	b510      	push	{r4, lr}
2ffeec8e:	4c0e      	ldr	r4, [pc, #56]	@ (2ffeecc8 <stm32_iwdg_refresh+0x3c>)
2ffeec90:	6823      	ldr	r3, [r4, #0]
2ffeec92:	b14b      	cbz	r3, 2ffeeca8 <stm32_iwdg_refresh+0x1c>
2ffeec94:	68a0      	ldr	r0, [r4, #8]
2ffeec96:	f7fb fc91 	bl	2ffea5bc <clk_enable>
2ffeec9a:	6823      	ldr	r3, [r4, #0]
2ffeec9c:	f64a 22aa 	movw	r2, #43690	@ 0xaaaa
2ffeeca0:	68a0      	ldr	r0, [r4, #8]
2ffeeca2:	601a      	str	r2, [r3, #0]
2ffeeca4:	f7fb fc9c 	bl	2ffea5e0 <clk_disable>
2ffeeca8:	6923      	ldr	r3, [r4, #16]
2ffeecaa:	b15b      	cbz	r3, 2ffeecc4 <stm32_iwdg_refresh+0x38>
2ffeecac:	69a0      	ldr	r0, [r4, #24]
2ffeecae:	f7fb fc85 	bl	2ffea5bc <clk_enable>
2ffeecb2:	6923      	ldr	r3, [r4, #16]
2ffeecb4:	f64a 22aa 	movw	r2, #43690	@ 0xaaaa
2ffeecb8:	69a0      	ldr	r0, [r4, #24]
2ffeecba:	601a      	str	r2, [r3, #0]
2ffeecbc:	e8bd 4010 	ldmia.w	sp!, {r4, lr}
2ffeecc0:	f7fb bc8e 	b.w	2ffea5e0 <clk_disable>
2ffeecc4:	bd10      	pop	{r4, pc}
2ffeecc6:	bf00      	nop
2ffeecc8:	2fffb724 	.word	0x2fffb724

2ffeeccc <stm32_iwdg_init>:
2ffeeccc:	e92d 47f0 	stmdb	sp!, {r4, r5, r6, r7, r8, r9, sl, lr}
2ffeecd0:	b086      	sub	sp, #24
2ffeecd2:	a801      	add	r0, sp, #4
2ffeecd4:	f002 fe66 	bl	2fff19a4 <fdt_get_address>
2ffeecd8:	b918      	cbnz	r0, 2ffeece2 <stm32_iwdg_init+0x16>
2ffeecda:	f7fb fd3d 	bl	2ffea758 <console_flush>
2ffeecde:	f7fa eaca 	blx	2ffe9274 <el3_panic>
2ffeece2:	4a54      	ldr	r2, [pc, #336]	@ (2ffeee34 <stm32_iwdg_init+0x168>)
2ffeece4:	f04f 31ff 	mov.w	r1, #4294967295	@ 0xffffffff
2ffeece8:	4e53      	ldr	r6, [pc, #332]	@ (2ffeee38 <stm32_iwdg_init+0x16c>)
2ffeecea:	a802      	add	r0, sp, #8
2ffeecec:	f8df 814c 	ldr.w	r8, [pc, #332]	@ 2ffeee3c <stm32_iwdg_init+0x170>
2ffeecf0:	f002 ff00 	bl	2fff1af4 <dt_get_node>
2ffeecf4:	ea40 75e0 	orr.w	r5, r0, r0, asr #31
2ffeecf8:	1c6b      	adds	r3, r5, #1
2ffeecfa:	d105      	bne.n	2ffeed08 <stm32_iwdg_init+0x3c>
2ffeecfc:	f04f 0900 	mov.w	r9, #0
2ffeed00:	4648      	mov	r0, r9
2ffeed02:	b006      	add	sp, #24
2ffeed04:	e8bd 87f0 	ldmia.w	sp!, {r4, r5, r6, r7, r8, r9, sl, pc}
2ffeed08:	9802      	ldr	r0, [sp, #8]
2ffeed0a:	f004 f809 	bl	2fff2d20 <stm32_iwdg_get_instance>
2ffeed0e:	0107      	lsls	r7, r0, #4
2ffeed10:	4604      	mov	r4, r0
2ffeed12:	9b02      	ldr	r3, [sp, #8]
2ffeed14:	eb06 1900 	add.w	r9, r6, r0, lsl #4
2ffeed18:	51f3      	str	r3, [r6, r7]
2ffeed1a:	f004 f815 	bl	2fff2d48 <stm32_iwdg_get_otp_config>
2ffeed1e:	9b05      	ldr	r3, [sp, #20]
2ffeed20:	f010 0f01 	tst.w	r0, #1
2ffeed24:	d005      	beq.n	2ffeed32 <stm32_iwdg_init+0x66>
2ffeed26:	b98b      	cbnz	r3, 2ffeed4c <stm32_iwdg_init+0x80>
2ffeed28:	4845      	ldr	r0, [pc, #276]	@ (2ffeee40 <stm32_iwdg_init+0x174>)
2ffeed2a:	1c61      	adds	r1, r4, #1
2ffeed2c:	f7fb fa7e 	bl	2ffea22c <tf_log>
2ffeed30:	e7d3      	b.n	2ffeecda <stm32_iwdg_init+0xe>
2ffeed32:	b95b      	cbnz	r3, 2ffeed4c <stm32_iwdg_init+0x80>
2ffeed34:	2110      	movs	r1, #16
2ffeed36:	4648      	mov	r0, r9
2ffeed38:	f7fa ec66 	blx	2ffe9608 <zero_normalmem>
2ffeed3c:	4a3d      	ldr	r2, [pc, #244]	@ (2ffeee34 <stm32_iwdg_init+0x168>)
2ffeed3e:	4629      	mov	r1, r5
2ffeed40:	a802      	add	r0, sp, #8
2ffeed42:	f002 fed7 	bl	2fff1af4 <dt_get_node>
2ffeed46:	ea40 75e0 	orr.w	r5, r0, r0, asr #31
2ffeed4a:	e7d5      	b.n	2ffeecf8 <stm32_iwdg_init+0x2c>
2ffeed4c:	9801      	ldr	r0, [sp, #4]
2ffeed4e:	f107 0308 	add.w	r3, r7, #8
2ffeed52:	4433      	add	r3, r6
2ffeed54:	4642      	mov	r2, r8
2ffeed56:	4629      	mov	r1, r5
2ffeed58:	f7ff ff72 	bl	2ffeec40 <fdt_get_clk_by_name>
2ffeed5c:	4681      	mov	r9, r0
2ffeed5e:	2800      	cmp	r0, #0
2ffeed60:	d1ce      	bne.n	2ffeed00 <stm32_iwdg_init+0x34>
2ffeed62:	4a38      	ldr	r2, [pc, #224]	@ (2ffeee44 <stm32_iwdg_init+0x178>)
2ffeed64:	1d3b      	adds	r3, r7, #4
2ffeed66:	4433      	add	r3, r6
2ffeed68:	4629      	mov	r1, r5
2ffeed6a:	9801      	ldr	r0, [sp, #4]
2ffeed6c:	f7ff ff68 	bl	2ffeec40 <fdt_get_clk_by_name>
2ffeed70:	4681      	mov	r9, r0
2ffeed72:	2800      	cmp	r0, #0
2ffeed74:	d1c4      	bne.n	2ffeed00 <stm32_iwdg_init+0x34>
2ffeed76:	4a34      	ldr	r2, [pc, #208]	@ (2ffeee48 <stm32_iwdg_init+0x17c>)
2ffeed78:	4603      	mov	r3, r0
2ffeed7a:	9801      	ldr	r0, [sp, #4]
2ffeed7c:	4629      	mov	r1, r5
2ffeed7e:	f005 ff50 	bl	2fff4c22 <fdt_getprop>
2ffeed82:	b910      	cbnz	r0, 2ffeed8a <stm32_iwdg_init+0xbe>
2ffeed84:	4831      	ldr	r0, [pc, #196]	@ (2ffeee4c <stm32_iwdg_init+0x180>)
2ffeed86:	1c61      	adds	r1, r4, #1
2ffeed88:	e7d0      	b.n	2ffeed2c <stm32_iwdg_init+0x60>
2ffeed8a:	6803      	ldr	r3, [r0, #0]
2ffeed8c:	19f4      	adds	r4, r6, r7
2ffeed8e:	ba1b      	rev	r3, r3
2ffeed90:	6860      	ldr	r0, [r4, #4]
2ffeed92:	60e3      	str	r3, [r4, #12]
2ffeed94:	f7fb fc12 	bl	2ffea5bc <clk_enable>
2ffeed98:	59f3      	ldr	r3, [r6, r7]
2ffeed9a:	2b00      	cmp	r3, #0
2ffeed9c:	d09d      	beq.n	2ffeecda <stm32_iwdg_init+0xe>
2ffeed9e:	6860      	ldr	r0, [r4, #4]
2ffeeda0:	f7fb fc30 	bl	2ffea604 <clk_get_rate>
2ffeeda4:	2800      	cmp	r0, #0
2ffeeda6:	d098      	beq.n	2ffeecda <stm32_iwdg_init+0xe>
2ffeeda8:	68e1      	ldr	r1, [r4, #12]
2ffeedaa:	fba0 2101 	umull	r2, r1, r0, r1
2ffeedae:	0d93      	lsrs	r3, r2, #22
2ffeedb0:	ea53 53b1 	orrs.w	r3, r3, r1, ror #22
2ffeedb4:	d139      	bne.n	2ffeee2a <stm32_iwdg_init+0x15e>
2ffeedb6:	0890      	lsrs	r0, r2, #2
2ffeedb8:	ea40 7081 	orr.w	r0, r0, r1, lsl #30
2ffeedbc:	088b      	lsrs	r3, r1, #2
2ffeedbe:	2803      	cmp	r0, #3
2ffeedc0:	f173 0300 	sbcs.w	r3, r3, #0
2ffeedc4:	d389      	bcc.n	2ffeecda <stm32_iwdg_init+0xe>
2ffeedc6:	4613      	mov	r3, r2
2ffeedc8:	085b      	lsrs	r3, r3, #1
2ffeedca:	4648      	mov	r0, r9
2ffeedcc:	2b01      	cmp	r3, #1
2ffeedce:	f109 0901 	add.w	r9, r9, #1
2ffeedd2:	d1f9      	bne.n	2ffeedc8 <stm32_iwdg_init+0xfc>
2ffeedd4:	1c83      	adds	r3, r0, #2
2ffeedd6:	2b0d      	cmp	r3, #13
2ffeedd8:	bf8c      	ite	hi
2ffeedda:	f1a0 090c 	subhi.w	r9, r0, #12
2ffeedde:	f04f 0900 	movls.w	r9, #0
2ffeede2:	f109 0302 	add.w	r3, r9, #2
2ffeede6:	f1c9 041e 	rsb	r4, r9, #30
2ffeedea:	f1a9 001e 	sub.w	r0, r9, #30
2ffeedee:	fa01 f404 	lsl.w	r4, r1, r4
2ffeedf2:	fa22 f303 	lsr.w	r3, r2, r3
2ffeedf6:	4323      	orrs	r3, r4
2ffeedf8:	fa21 f000 	lsr.w	r0, r1, r0
2ffeedfc:	4303      	orrs	r3, r0
2ffeedfe:	1e5c      	subs	r4, r3, #1
2ffeee00:	eb06 0a07 	add.w	sl, r6, r7
2ffeee04:	f8da 0008 	ldr.w	r0, [sl, #8]
2ffeee08:	f7fb fbd8 	bl	2ffea5bc <clk_enable>
2ffeee0c:	59f3      	ldr	r3, [r6, r7]
2ffeee0e:	f245 5255 	movw	r2, #21845	@ 0x5555
2ffeee12:	f8da 0008 	ldr.w	r0, [sl, #8]
2ffeee16:	601a      	str	r2, [r3, #0]
2ffeee18:	f64c 42cc 	movw	r2, #52428	@ 0xcccc
2ffeee1c:	f8c3 9004 	str.w	r9, [r3, #4]
2ffeee20:	609c      	str	r4, [r3, #8]
2ffeee22:	601a      	str	r2, [r3, #0]
2ffeee24:	f7fb fbdc 	bl	2ffea5e0 <clk_disable>
2ffeee28:	e788      	b.n	2ffeed3c <stm32_iwdg_init+0x70>
2ffeee2a:	f04f 0908 	mov.w	r9, #8
2ffeee2e:	f640 74ff 	movw	r4, #4095	@ 0xfff
2ffeee32:	e7e5      	b.n	2ffeee00 <stm32_iwdg_init+0x134>
2ffeee34:	2fff7773 	.word	0x2fff7773
2ffeee38:	2fffb724 	.word	0x2fffb724
2ffeee3c:	2fff77a9 	.word	0x2fff77a9
2ffeee40:	2fff7784 	.word	0x2fff7784
2ffeee44:	2fff72c6 	.word	0x2fff72c6
2ffeee48:	2fff77ae 	.word	0x2fff77ae
2ffeee4c:	2fff77ba 	.word	0x2fff77ba

2ffeee50 <nvmem_driver_register>:
2ffeee50:	4b06      	ldr	r3, [pc, #24]	@ (2ffeee6c <nvmem_driver_register+0x1c>)
2ffeee52:	b510      	push	{r4, lr}
2ffeee54:	4604      	mov	r4, r0
2ffeee56:	6858      	ldr	r0, [r3, #4]
2ffeee58:	b128      	cbz	r0, 2ffeee66 <nvmem_driver_register+0x16>
2ffeee5a:	4805      	ldr	r0, [pc, #20]	@ (2ffeee70 <nvmem_driver_register+0x20>)
2ffeee5c:	f7fb f9e6 	bl	2ffea22c <tf_log>
2ffeee60:	f06f 000b 	mvn.w	r0, #11
2ffeee64:	bd10      	pop	{r4, pc}
2ffeee66:	e883 0016 	stmia.w	r3, {r1, r2, r4}
2ffeee6a:	e7fb      	b.n	2ffeee64 <nvmem_driver_register+0x14>
2ffeee6c:	2fffb744 	.word	0x2fffb744
2ffeee70:	2fff77e0 	.word	0x2fff77e0

2ffeee74 <nvmem_get_cell_by_index>:
2ffeee74:	b5f7      	push	{r0, r1, r2, r4, r5, r6, r7, lr}
2ffeee76:	4617      	mov	r7, r2
2ffeee78:	4a1c      	ldr	r2, [pc, #112]	@ (2ffeeeec <nvmem_get_cell_by_index+0x78>)
2ffeee7a:	461d      	mov	r5, r3
2ffeee7c:	2400      	movs	r4, #0
2ffeee7e:	ab01      	add	r3, sp, #4
2ffeee80:	9401      	str	r4, [sp, #4]
2ffeee82:	4606      	mov	r6, r0
2ffeee84:	f005 fecd 	bl	2fff4c22 <fdt_getprop>
2ffeee88:	b928      	cbnz	r0, 2ffeee96 <nvmem_get_cell_by_index+0x22>
2ffeee8a:	4819      	ldr	r0, [pc, #100]	@ (2ffeeef0 <nvmem_get_cell_by_index+0x7c>)
2ffeee8c:	f7fb f9ce 	bl	2ffea22c <tf_log>
2ffeee90:	9801      	ldr	r0, [sp, #4]
2ffeee92:	b003      	add	sp, #12
2ffeee94:	bdf0      	pop	{r4, r5, r6, r7, pc}
2ffeee96:	f850 1027 	ldr.w	r1, [r0, r7, lsl #2]
2ffeee9a:	4630      	mov	r0, r6
2ffeee9c:	ba09      	rev	r1, r1
2ffeee9e:	f005 ff7e 	bl	2fff4d9e <fdt_node_offset_by_phandle>
2ffeeea2:	4a14      	ldr	r2, [pc, #80]	@ (2ffeeef4 <nvmem_get_cell_by_index+0x80>)
2ffeeea4:	4607      	mov	r7, r0
2ffeeea6:	4601      	mov	r1, r0
2ffeeea8:	ab01      	add	r3, sp, #4
2ffeeeaa:	4630      	mov	r0, r6
2ffeeeac:	f005 feb9 	bl	2fff4c22 <fdt_getprop>
2ffeeeb0:	b1c0      	cbz	r0, 2ffeeee4 <nvmem_get_cell_by_index+0x70>
2ffeeeb2:	9b01      	ldr	r3, [sp, #4]
2ffeeeb4:	2b08      	cmp	r3, #8
2ffeeeb6:	d115      	bne.n	2ffeeee4 <nvmem_get_cell_by_index+0x70>
2ffeeeb8:	6803      	ldr	r3, [r0, #0]
2ffeeeba:	4639      	mov	r1, r7
2ffeeebc:	ba1b      	rev	r3, r3
2ffeeebe:	602b      	str	r3, [r5, #0]
2ffeeec0:	6843      	ldr	r3, [r0, #4]
2ffeeec2:	4630      	mov	r0, r6
2ffeeec4:	ba1b      	rev	r3, r3
2ffeeec6:	606b      	str	r3, [r5, #4]
2ffeeec8:	f005 ff59 	bl	2fff4d7e <fdt_parent_offset>
2ffeeecc:	4b0a      	ldr	r3, [pc, #40]	@ (2ffeeef8 <nvmem_get_cell_by_index+0x84>)
2ffeeece:	4602      	mov	r2, r0
2ffeeed0:	6899      	ldr	r1, [r3, #8]
2ffeeed2:	4281      	cmp	r1, r0
2ffeeed4:	d102      	bne.n	2ffeeedc <nvmem_get_cell_by_index+0x68>
2ffeeed6:	60ab      	str	r3, [r5, #8]
2ffeeed8:	4620      	mov	r0, r4
2ffeeeda:	e7da      	b.n	2ffeee92 <nvmem_get_cell_by_index+0x1e>
2ffeeedc:	4907      	ldr	r1, [pc, #28]	@ (2ffeeefc <nvmem_get_cell_by_index+0x88>)
2ffeeede:	4808      	ldr	r0, [pc, #32]	@ (2ffeef00 <nvmem_get_cell_by_index+0x8c>)
2ffeeee0:	f7fb f9a4 	bl	2ffea22c <tf_log>
2ffeeee4:	f04f 30ff 	mov.w	r0, #4294967295	@ 0xffffffff
2ffeeee8:	e7d3      	b.n	2ffeee92 <nvmem_get_cell_by_index+0x1e>
2ffeeeea:	bf00      	nop
2ffeeeec:	2fff782a 	.word	0x2fff782a
2ffeeef0:	2fff7836 	.word	0x2fff7836
2ffeeef4:	2fff748c 	.word	0x2fff748c
2ffeeef8:	2fffb744 	.word	0x2fffb744
2ffeeefc:	2fff9030 	.word	0x2fff9030
2ffeef00:	2fff784d 	.word	0x2fff784d

2ffeef04 <nvmem_get_cell_by_name>:
2ffeef04:	b570      	push	{r4, r5, r6, lr}
2ffeef06:	461e      	mov	r6, r3
2ffeef08:	4613      	mov	r3, r2
2ffeef0a:	4604      	mov	r4, r0
2ffeef0c:	4a07      	ldr	r2, [pc, #28]	@ (2ffeef2c <nvmem_get_cell_by_name+0x28>)
2ffeef0e:	460d      	mov	r5, r1
2ffeef10:	f005 ff89 	bl	2fff4e26 <fdt_stringlist_search>
2ffeef14:	1e02      	subs	r2, r0, #0
2ffeef16:	db06      	blt.n	2ffeef26 <nvmem_get_cell_by_name+0x22>
2ffeef18:	4633      	mov	r3, r6
2ffeef1a:	4629      	mov	r1, r5
2ffeef1c:	4620      	mov	r0, r4
2ffeef1e:	e8bd 4070 	ldmia.w	sp!, {r4, r5, r6, lr}
2ffeef22:	f7ff bfa7 	b.w	2ffeee74 <nvmem_get_cell_by_index>
2ffeef26:	f04f 30ff 	mov.w	r0, #4294967295	@ 0xffffffff
2ffeef2a:	bd70      	pop	{r4, r5, r6, pc}
2ffeef2c:	2fff7865 	.word	0x2fff7865

2ffeef30 <stm32_tamp_nvram_write_bkp>:
2ffeef30:	e92d 41f0 	stmdb	sp!, {r4, r5, r6, r7, r8, lr}
2ffeef34:	460d      	mov	r5, r1
2ffeef36:	ea4f 0891 	mov.w	r8, r1, lsr #2
2ffeef3a:	4606      	mov	r6, r0
2ffeef3c:	4641      	mov	r1, r8
2ffeef3e:	4617      	mov	r7, r2
2ffeef40:	f005 f815 	bl	2fff3f6e <stm32_tamp_nvram_reg_get_zone>
2ffeef44:	1e04      	subs	r4, r0, #0
2ffeef46:	db21      	blt.n	2ffeef8c <stm32_tamp_nvram_write_bkp+0x5c>
2ffeef48:	2041      	movs	r0, #65	@ 0x41
2ffeef4a:	f7fb fb6d 	bl	2ffea628 <clk_is_enabled>
2ffeef4e:	6a33      	ldr	r3, [r6, #32]
2ffeef50:	f853 3024 	ldr.w	r3, [r3, r4, lsl #2]
2ffeef54:	2b03      	cmp	r3, #3
2ffeef56:	d80f      	bhi.n	2ffeef78 <stm32_tamp_nvram_write_bkp+0x48>
2ffeef58:	b183      	cbz	r3, 2ffeef7c <stm32_tamp_nvram_write_bkp+0x4c>
2ffeef5a:	f080 0301 	eor.w	r3, r0, #1
2ffeef5e:	f013 04ff 	ands.w	r4, r3, #255	@ 0xff
2ffeef62:	d002      	beq.n	2ffeef6a <stm32_tamp_nvram_write_bkp+0x3a>
2ffeef64:	2041      	movs	r0, #65	@ 0x41
2ffeef66:	f7fb fb29 	bl	2ffea5bc <clk_enable>
2ffeef6a:	6833      	ldr	r3, [r6, #0]
2ffeef6c:	50ef      	str	r7, [r5, r3]
2ffeef6e:	b12c      	cbz	r4, 2ffeef7c <stm32_tamp_nvram_write_bkp+0x4c>
2ffeef70:	2041      	movs	r0, #65	@ 0x41
2ffeef72:	f7fb fb35 	bl	2ffea5e0 <clk_disable>
2ffeef76:	e001      	b.n	2ffeef7c <stm32_tamp_nvram_write_bkp+0x4c>
2ffeef78:	2b04      	cmp	r3, #4
2ffeef7a:	d102      	bne.n	2ffeef82 <stm32_tamp_nvram_write_bkp+0x52>
2ffeef7c:	2000      	movs	r0, #0
2ffeef7e:	e8bd 81f0 	ldmia.w	sp!, {r4, r5, r6, r7, r8, pc}
2ffeef82:	4804      	ldr	r0, [pc, #16]	@ (2ffeef94 <stm32_tamp_nvram_write_bkp+0x64>)
2ffeef84:	4642      	mov	r2, r8
2ffeef86:	4621      	mov	r1, r4
2ffeef88:	f7fb f950 	bl	2ffea22c <tf_log>
2ffeef8c:	f04f 30ff 	mov.w	r0, #4294967295	@ 0xffffffff
2ffeef90:	e7f5      	b.n	2ffeef7e <stm32_tamp_nvram_write_bkp+0x4e>
2ffeef92:	bf00      	nop
2ffeef94:	2fff7876 	.word	0x2fff7876

2ffeef98 <stm32_tamp_nvram_read_bkp.constprop.0.isra.0>:
2ffeef98:	e92d 41f0 	stmdb	sp!, {r4, r5, r6, r7, r8, lr}
2ffeef9c:	460e      	mov	r6, r1
2ffeef9e:	ea4f 0891 	mov.w	r8, r1, lsr #2
2ffeefa2:	4607      	mov	r7, r0
2ffeefa4:	4641      	mov	r1, r8
2ffeefa6:	4615      	mov	r5, r2
2ffeefa8:	f004 ffe1 	bl	2fff3f6e <stm32_tamp_nvram_reg_get_zone>
2ffeefac:	1e04      	subs	r4, r0, #0
2ffeefae:	db23      	blt.n	2ffeeff8 <stm32_tamp_nvram_read_bkp.constprop.0.isra.0+0x60>
2ffeefb0:	2041      	movs	r0, #65	@ 0x41
2ffeefb2:	f7fb fb39 	bl	2ffea628 <clk_is_enabled>
2ffeefb6:	6a3b      	ldr	r3, [r7, #32]
2ffeefb8:	f853 3024 	ldr.w	r3, [r3, r4, lsl #2]
2ffeefbc:	2b03      	cmp	r3, #3
2ffeefbe:	d908      	bls.n	2ffeefd2 <stm32_tamp_nvram_read_bkp.constprop.0.isra.0+0x3a>
2ffeefc0:	2b04      	cmp	r3, #4
2ffeefc2:	d017      	beq.n	2ffeeff4 <stm32_tamp_nvram_read_bkp.constprop.0.isra.0+0x5c>
2ffeefc4:	480d      	ldr	r0, [pc, #52]	@ (2ffeeffc <stm32_tamp_nvram_read_bkp.constprop.0.isra.0+0x64>)
2ffeefc6:	4642      	mov	r2, r8
2ffeefc8:	4621      	mov	r1, r4
2ffeefca:	e8bd 41f0 	ldmia.w	sp!, {r4, r5, r6, r7, r8, lr}
2ffeefce:	f7fb b92d 	b.w	2ffea22c <tf_log>
2ffeefd2:	f080 0301 	eor.w	r3, r0, #1
2ffeefd6:	f013 04ff 	ands.w	r4, r3, #255	@ 0xff
2ffeefda:	d002      	beq.n	2ffeefe2 <stm32_tamp_nvram_read_bkp.constprop.0.isra.0+0x4a>
2ffeefdc:	2041      	movs	r0, #65	@ 0x41
2ffeefde:	f7fb faed 	bl	2ffea5bc <clk_enable>
2ffeefe2:	683b      	ldr	r3, [r7, #0]
2ffeefe4:	58f3      	ldr	r3, [r6, r3]
2ffeefe6:	602b      	str	r3, [r5, #0]
2ffeefe8:	b134      	cbz	r4, 2ffeeff8 <stm32_tamp_nvram_read_bkp.constprop.0.isra.0+0x60>
2ffeefea:	e8bd 41f0 	ldmia.w	sp!, {r4, r5, r6, r7, r8, lr}
2ffeefee:	2041      	movs	r0, #65	@ 0x41
2ffeeff0:	f7fb baf6 	b.w	2ffea5e0 <clk_disable>
2ffeeff4:	2300      	movs	r3, #0
2ffeeff6:	602b      	str	r3, [r5, #0]
2ffeeff8:	e8bd 81f0 	ldmia.w	sp!, {r4, r5, r6, r7, r8, pc}
2ffeeffc:	2fff7876 	.word	0x2fff7876

2ffef000 <stm32_tamp_nvram_read_cell>:
2ffef000:	e92d 4ff7 	stmdb	sp!, {r0, r1, r2, r4, r5, r6, r7, r8, r9, sl, fp, lr}
2ffef004:	460e      	mov	r6, r1
2ffef006:	6881      	ldr	r1, [r0, #8]
2ffef008:	f8d1 8004 	ldr.w	r8, [r1, #4]
2ffef00c:	6841      	ldr	r1, [r0, #4]
2ffef00e:	4291      	cmp	r1, r2
2ffef010:	d904      	bls.n	2ffef01c <stm32_tamp_nvram_read_cell+0x1c>
2ffef012:	f04f 30ff 	mov.w	r0, #4294967295	@ 0xffffffff
2ffef016:	b003      	add	sp, #12
2ffef018:	e8bd 8ff0 	ldmia.w	sp!, {r4, r5, r6, r7, r8, r9, sl, fp, pc}
2ffef01c:	b103      	cbz	r3, 2ffef020 <stm32_tamp_nvram_read_cell+0x20>
2ffef01e:	6019      	str	r1, [r3, #0]
2ffef020:	6807      	ldr	r7, [r0, #0]
2ffef022:	f04f 0900 	mov.w	r9, #0
2ffef026:	6845      	ldr	r5, [r0, #4]
2ffef028:	463c      	mov	r4, r7
2ffef02a:	443d      	add	r5, r7
2ffef02c:	42a5      	cmp	r5, r4
2ffef02e:	d801      	bhi.n	2ffef034 <stm32_tamp_nvram_read_cell+0x34>
2ffef030:	2000      	movs	r0, #0
2ffef032:	e7f0      	b.n	2ffef016 <stm32_tamp_nvram_read_cell+0x16>
2ffef034:	f024 0103 	bic.w	r1, r4, #3
2ffef038:	f104 0a04 	add.w	sl, r4, #4
2ffef03c:	4555      	cmp	r5, sl
2ffef03e:	d31c      	bcc.n	2ffef07a <stm32_tamp_nvram_read_cell+0x7a>
2ffef040:	1e63      	subs	r3, r4, #1
2ffef042:	f043 0303 	orr.w	r3, r3, #3
2ffef046:	3301      	adds	r3, #1
2ffef048:	428b      	cmp	r3, r1
2ffef04a:	d116      	bne.n	2ffef07a <stm32_tamp_nvram_read_cell+0x7a>
2ffef04c:	eba4 0b07 	sub.w	fp, r4, r7
2ffef050:	aa01      	add	r2, sp, #4
2ffef052:	44b3      	add	fp, r6
2ffef054:	4621      	mov	r1, r4
2ffef056:	f8cd 9004 	str.w	r9, [sp, #4]
2ffef05a:	4640      	mov	r0, r8
2ffef05c:	f7ff ff9c 	bl	2ffeef98 <stm32_tamp_nvram_read_bkp.constprop.0.isra.0>
2ffef060:	2204      	movs	r2, #4
2ffef062:	4658      	mov	r0, fp
2ffef064:	eb0d 0102 	add.w	r1, sp, r2
2ffef068:	f005 ff47 	bl	2fff4efa <memcpy>
2ffef06c:	4583      	cmp	fp, r0
2ffef06e:	d014      	beq.n	2ffef09a <stm32_tamp_nvram_read_cell+0x9a>
2ffef070:	08a1      	lsrs	r1, r4, #2
2ffef072:	480b      	ldr	r0, [pc, #44]	@ (2ffef0a0 <stm32_tamp_nvram_read_cell+0xa0>)
2ffef074:	f7fb f8da 	bl	2ffea22c <tf_log>
2ffef078:	e7cb      	b.n	2ffef012 <stm32_tamp_nvram_read_cell+0x12>
2ffef07a:	eba4 0a01 	sub.w	sl, r4, r1
2ffef07e:	aa01      	add	r2, sp, #4
2ffef080:	f8cd 9004 	str.w	r9, [sp, #4]
2ffef084:	4640      	mov	r0, r8
2ffef086:	ea4f 0aca 	mov.w	sl, sl, lsl #3
2ffef08a:	f7ff ff85 	bl	2ffeef98 <stm32_tamp_nvram_read_bkp.constprop.0.isra.0>
2ffef08e:	9b01      	ldr	r3, [sp, #4]
2ffef090:	fa23 f30a 	lsr.w	r3, r3, sl
2ffef094:	f104 0a01 	add.w	sl, r4, #1
2ffef098:	5533      	strb	r3, [r6, r4]
2ffef09a:	4654      	mov	r4, sl
2ffef09c:	e7c6      	b.n	2ffef02c <stm32_tamp_nvram_read_cell+0x2c>
2ffef09e:	bf00      	nop
2ffef0a0:	2fff789d 	.word	0x2fff789d

2ffef0a4 <stm32_tamp_nvram_write_cell>:
2ffef0a4:	e92d 4ff0 	stmdb	sp!, {r4, r5, r6, r7, r8, r9, sl, fp, lr}
2ffef0a8:	460e      	mov	r6, r1
2ffef0aa:	6845      	ldr	r5, [r0, #4]
2ffef0ac:	b085      	sub	sp, #20
2ffef0ae:	6883      	ldr	r3, [r0, #8]
2ffef0b0:	4295      	cmp	r5, r2
2ffef0b2:	f8d3 9004 	ldr.w	r9, [r3, #4]
2ffef0b6:	d327      	bcc.n	2ffef108 <stm32_tamp_nvram_write_cell+0x64>
2ffef0b8:	f8d0 8000 	ldr.w	r8, [r0]
2ffef0bc:	f10d 0a0c 	add.w	sl, sp, #12
2ffef0c0:	4445      	add	r5, r8
2ffef0c2:	4644      	mov	r4, r8
2ffef0c4:	42a5      	cmp	r5, r4
2ffef0c6:	d801      	bhi.n	2ffef0cc <stm32_tamp_nvram_write_cell+0x28>
2ffef0c8:	2400      	movs	r4, #0
2ffef0ca:	e02b      	b.n	2ffef124 <stm32_tamp_nvram_write_cell+0x80>
2ffef0cc:	eba4 0708 	sub.w	r7, r4, r8
2ffef0d0:	f104 0b04 	add.w	fp, r4, #4
2ffef0d4:	455d      	cmp	r5, fp
2ffef0d6:	f024 0103 	bic.w	r1, r4, #3
2ffef0da:	eb06 0007 	add.w	r0, r6, r7
2ffef0de:	d325      	bcc.n	2ffef12c <stm32_tamp_nvram_write_cell+0x88>
2ffef0e0:	1e62      	subs	r2, r4, #1
2ffef0e2:	f042 0203 	orr.w	r2, r2, #3
2ffef0e6:	3201      	adds	r2, #1
2ffef0e8:	428a      	cmp	r2, r1
2ffef0ea:	d11f      	bne.n	2ffef12c <stm32_tamp_nvram_write_cell+0x88>
2ffef0ec:	2300      	movs	r3, #0
2ffef0ee:	4601      	mov	r1, r0
2ffef0f0:	9303      	str	r3, [sp, #12]
2ffef0f2:	2204      	movs	r2, #4
2ffef0f4:	08a7      	lsrs	r7, r4, #2
2ffef0f6:	4650      	mov	r0, sl
2ffef0f8:	f005 feff 	bl	2fff4efa <memcpy>
2ffef0fc:	4582      	cmp	sl, r0
2ffef0fe:	d006      	beq.n	2ffef10e <stm32_tamp_nvram_write_cell+0x6a>
2ffef100:	4818      	ldr	r0, [pc, #96]	@ (2ffef164 <stm32_tamp_nvram_write_cell+0xc0>)
2ffef102:	4639      	mov	r1, r7
2ffef104:	f7fb f892 	bl	2ffea22c <tf_log>
2ffef108:	f04f 34ff 	mov.w	r4, #4294967295	@ 0xffffffff
2ffef10c:	e00a      	b.n	2ffef124 <stm32_tamp_nvram_write_cell+0x80>
2ffef10e:	9a03      	ldr	r2, [sp, #12]
2ffef110:	4621      	mov	r1, r4
2ffef112:	4648      	mov	r0, r9
2ffef114:	f7ff ff0c 	bl	2ffeef30 <stm32_tamp_nvram_write_bkp>
2ffef118:	4604      	mov	r4, r0
2ffef11a:	b308      	cbz	r0, 2ffef160 <stm32_tamp_nvram_write_cell+0xbc>
2ffef11c:	4811      	ldr	r0, [pc, #68]	@ (2ffef164 <stm32_tamp_nvram_write_cell+0xc0>)
2ffef11e:	4639      	mov	r1, r7
2ffef120:	f7fb f884 	bl	2ffea22c <tf_log>
2ffef124:	4620      	mov	r0, r4
2ffef126:	b005      	add	sp, #20
2ffef128:	e8bd 8ff0 	ldmia.w	sp!, {r4, r5, r6, r7, r8, r9, sl, fp, pc}
2ffef12c:	f816 b007 	ldrb.w	fp, [r6, r7]
2ffef130:	2300      	movs	r3, #0
2ffef132:	1a67      	subs	r7, r4, r1
2ffef134:	4652      	mov	r2, sl
2ffef136:	9303      	str	r3, [sp, #12]
2ffef138:	4648      	mov	r0, r9
2ffef13a:	00ff      	lsls	r7, r7, #3
2ffef13c:	9101      	str	r1, [sp, #4]
2ffef13e:	f7ff ff2b 	bl	2ffeef98 <stm32_tamp_nvram_read_bkp.constprop.0.isra.0>
2ffef142:	9a03      	ldr	r2, [sp, #12]
2ffef144:	23ff      	movs	r3, #255	@ 0xff
2ffef146:	9901      	ldr	r1, [sp, #4]
2ffef148:	fa03 f007 	lsl.w	r0, r3, r7
2ffef14c:	ea22 0200 	bic.w	r2, r2, r0
2ffef150:	4648      	mov	r0, r9
2ffef152:	fa0b f307 	lsl.w	r3, fp, r7
2ffef156:	f104 0b01 	add.w	fp, r4, #1
2ffef15a:	431a      	orrs	r2, r3
2ffef15c:	f7ff fee8 	bl	2ffeef30 <stm32_tamp_nvram_write_bkp>
2ffef160:	465c      	mov	r4, fp
2ffef162:	e7af      	b.n	2ffef0c4 <stm32_tamp_nvram_write_cell+0x20>
2ffef164:	2fff789d 	.word	0x2fff789d

2ffef168 <stm32_tamp_nvram_update_rights>:
2ffef168:	e92d 4ff0 	stmdb	sp!, {r4, r5, r6, r7, r8, r9, sl, fp, lr}
2ffef16c:	2041      	movs	r0, #65	@ 0x41
2ffef16e:	b089      	sub	sp, #36	@ 0x24
2ffef170:	f7fb fa5a 	bl	2ffea628 <clk_is_enabled>
2ffef174:	f080 0001 	eor.w	r0, r0, #1
2ffef178:	f010 03ff 	ands.w	r3, r0, #255	@ 0xff
2ffef17c:	9303      	str	r3, [sp, #12]
2ffef17e:	d002      	beq.n	2ffef186 <stm32_tamp_nvram_update_rights+0x1e>
2ffef180:	2041      	movs	r0, #65	@ 0x41
2ffef182:	f7fb fa1b 	bl	2ffea5bc <clk_enable>
2ffef186:	4d24      	ldr	r5, [pc, #144]	@ (2ffef218 <stm32_tamp_nvram_update_rights+0xb0>)
2ffef188:	f04f 0b0c 	mov.w	fp, #12
2ffef18c:	f8df 808c 	ldr.w	r8, [pc, #140]	@ 2ffef21c <stm32_tamp_nvram_update_rights+0xb4>
2ffef190:	ae05      	add	r6, sp, #20
2ffef192:	f8d5 a024 	ldr.w	sl, [r5, #36]	@ 0x24
2ffef196:	2400      	movs	r4, #0
2ffef198:	9404      	str	r4, [sp, #16]
2ffef19a:	46c1      	mov	r9, r8
2ffef19c:	f8da 7000 	ldr.w	r7, [sl]
2ffef1a0:	3f01      	subs	r7, #1
2ffef1a2:	42bc      	cmp	r4, r7
2ffef1a4:	d30c      	bcc.n	2ffef1c0 <stm32_tamp_nvram_update_rights+0x58>
2ffef1a6:	69ab      	ldr	r3, [r5, #24]
2ffef1a8:	481b      	ldr	r0, [pc, #108]	@ (2ffef218 <stm32_tamp_nvram_update_rights+0xb0>)
2ffef1aa:	f8c5 901c 	str.w	r9, [r5, #28]
2ffef1ae:	3b01      	subs	r3, #1
2ffef1b0:	f849 3024 	str.w	r3, [r9, r4, lsl #2]
2ffef1b4:	f000 f8a0 	bl	2ffef2f8 <stm32_tamp_nvram_get_access_rights>
2ffef1b8:	6228      	str	r0, [r5, #32]
2ffef1ba:	bb20      	cbnz	r0, 2ffef206 <stm32_tamp_nvram_update_rights+0x9e>
2ffef1bc:	4818      	ldr	r0, [pc, #96]	@ (2ffef220 <stm32_tamp_nvram_update_rights+0xb8>)
2ffef1be:	e015      	b.n	2ffef1ec <stm32_tamp_nvram_update_rights+0x84>
2ffef1c0:	f8da 3004 	ldr.w	r3, [sl, #4]
2ffef1c4:	fb0b 3304 	mla	r3, fp, r4, r3
2ffef1c8:	e893 0007 	ldmia.w	r3, {r0, r1, r2}
2ffef1cc:	ab04      	add	r3, sp, #16
2ffef1ce:	e886 0007 	stmia.w	r6, {r0, r1, r2}
2ffef1d2:	9300      	str	r3, [sp, #0]
2ffef1d4:	e896 000e 	ldmia.w	r6, {r1, r2, r3}
2ffef1d8:	6868      	ldr	r0, [r5, #4]
2ffef1da:	f004 fedd 	bl	2fff3f98 <stm32_tamp_nvram_reg_field_read>
2ffef1de:	b160      	cbz	r0, 2ffef1fa <stm32_tamp_nvram_update_rights+0x92>
2ffef1e0:	4810      	ldr	r0, [pc, #64]	@ (2ffef224 <stm32_tamp_nvram_update_rights+0xbc>)
2ffef1e2:	f7fb f823 	bl	2ffea22c <tf_log>
2ffef1e6:	4810      	ldr	r0, [pc, #64]	@ (2ffef228 <stm32_tamp_nvram_update_rights+0xc0>)
2ffef1e8:	2300      	movs	r3, #0
2ffef1ea:	61eb      	str	r3, [r5, #28]
2ffef1ec:	f7fb f81e 	bl	2ffea22c <tf_log>
2ffef1f0:	f06f 000b 	mvn.w	r0, #11
2ffef1f4:	b009      	add	sp, #36	@ 0x24
2ffef1f6:	e8bd 8ff0 	ldmia.w	sp!, {r4, r5, r6, r7, r8, r9, sl, fp, pc}
2ffef1fa:	9b04      	ldr	r3, [sp, #16]
2ffef1fc:	3401      	adds	r4, #1
2ffef1fe:	3b01      	subs	r3, #1
2ffef200:	f848 3b04 	str.w	r3, [r8], #4
2ffef204:	e7cd      	b.n	2ffef1a2 <stm32_tamp_nvram_update_rights+0x3a>
2ffef206:	9b03      	ldr	r3, [sp, #12]
2ffef208:	b90b      	cbnz	r3, 2ffef20e <stm32_tamp_nvram_update_rights+0xa6>
2ffef20a:	2000      	movs	r0, #0
2ffef20c:	e7f2      	b.n	2ffef1f4 <stm32_tamp_nvram_update_rights+0x8c>
2ffef20e:	2041      	movs	r0, #65	@ 0x41
2ffef210:	f7fb f9e6 	bl	2ffea5e0 <clk_disable>
2ffef214:	e7f9      	b.n	2ffef20a <stm32_tamp_nvram_update_rights+0xa2>
2ffef216:	bf00      	nop
2ffef218:	2fffb75c 	.word	0x2fffb75c
2ffef21c:	2fffb750 	.word	0x2fffb750
2ffef220:	2fff790d 	.word	0x2fff790d
2ffef224:	2fff78b6 	.word	0x2fff78b6
2ffef228:	2fff78dd 	.word	0x2fff78dd

2ffef22c <stm32_tamp_nvram_init>:
2ffef22c:	b573      	push	{r0, r1, r4, r5, r6, lr}
2ffef22e:	2300      	movs	r3, #0
2ffef230:	4668      	mov	r0, sp
2ffef232:	e9cd 3300 	strd	r3, r3, [sp]
2ffef236:	f002 fbb5 	bl	2fff19a4 <fdt_get_address>
2ffef23a:	b920      	cbnz	r0, 2ffef246 <stm32_tamp_nvram_init+0x1a>
2ffef23c:	f06f 0612 	mvn.w	r6, #18
2ffef240:	4630      	mov	r0, r6
2ffef242:	b002      	add	sp, #8
2ffef244:	bd70      	pop	{r4, r5, r6, pc}
2ffef246:	4a26      	ldr	r2, [pc, #152]	@ (2ffef2e0 <stm32_tamp_nvram_init+0xb4>)
2ffef248:	f04f 31ff 	mov.w	r1, #4294967295	@ 0xffffffff
2ffef24c:	9800      	ldr	r0, [sp, #0]
2ffef24e:	f005 fe1d 	bl	2fff4e8c <fdt_node_offset_by_compatible>
2ffef252:	1e05      	subs	r5, r0, #0
2ffef254:	dbf2      	blt.n	2ffef23c <stm32_tamp_nvram_init+0x10>
2ffef256:	4c23      	ldr	r4, [pc, #140]	@ (2ffef2e4 <stm32_tamp_nvram_init+0xb8>)
2ffef258:	f000 f84a 	bl	2ffef2f0 <stm32_tamp_nvram_get_cdata>
2ffef25c:	4a22      	ldr	r2, [pc, #136]	@ (2ffef2e8 <stm32_tamp_nvram_init+0xbc>)
2ffef25e:	ab01      	add	r3, sp, #4
2ffef260:	6260      	str	r0, [r4, #36]	@ 0x24
2ffef262:	4629      	mov	r1, r5
2ffef264:	9800      	ldr	r0, [sp, #0]
2ffef266:	f005 fcdc 	bl	2fff4c22 <fdt_getprop>
2ffef26a:	4603      	mov	r3, r0
2ffef26c:	b910      	cbnz	r0, 2ffef274 <stm32_tamp_nvram_init+0x48>
2ffef26e:	f06f 0615 	mvn.w	r6, #21
2ffef272:	e7e5      	b.n	2ffef240 <stm32_tamp_nvram_init+0x14>
2ffef274:	9a01      	ldr	r2, [sp, #4]
2ffef276:	2a08      	cmp	r2, #8
2ffef278:	d1f9      	bne.n	2ffef26e <stm32_tamp_nvram_init+0x42>
2ffef27a:	6800      	ldr	r0, [r0, #0]
2ffef27c:	4629      	mov	r1, r5
2ffef27e:	f004 fe74 	bl	2fff3f6a <fdt32_to_cpu>
2ffef282:	6020      	str	r0, [r4, #0]
2ffef284:	6858      	ldr	r0, [r3, #4]
2ffef286:	f004 fe70 	bl	2fff3f6a <fdt32_to_cpu>
2ffef28a:	60a0      	str	r0, [r4, #8]
2ffef28c:	9800      	ldr	r0, [sp, #0]
2ffef28e:	f005 fd76 	bl	2fff4d7e <fdt_parent_offset>
2ffef292:	1e01      	subs	r1, r0, #0
2ffef294:	dbeb      	blt.n	2ffef26e <stm32_tamp_nvram_init+0x42>
2ffef296:	4a14      	ldr	r2, [pc, #80]	@ (2ffef2e8 <stm32_tamp_nvram_init+0xbc>)
2ffef298:	ab01      	add	r3, sp, #4
2ffef29a:	9800      	ldr	r0, [sp, #0]
2ffef29c:	f005 fcc1 	bl	2fff4c22 <fdt_getprop>
2ffef2a0:	4603      	mov	r3, r0
2ffef2a2:	2800      	cmp	r0, #0
2ffef2a4:	d0e3      	beq.n	2ffef26e <stm32_tamp_nvram_init+0x42>
2ffef2a6:	9a01      	ldr	r2, [sp, #4]
2ffef2a8:	2a08      	cmp	r2, #8
2ffef2aa:	d1e0      	bne.n	2ffef26e <stm32_tamp_nvram_init+0x42>
2ffef2ac:	6800      	ldr	r0, [r0, #0]
2ffef2ae:	f004 fe5c 	bl	2fff3f6a <fdt32_to_cpu>
2ffef2b2:	6060      	str	r0, [r4, #4]
2ffef2b4:	6858      	ldr	r0, [r3, #4]
2ffef2b6:	f004 fe58 	bl	2fff3f6a <fdt32_to_cpu>
2ffef2ba:	68a3      	ldr	r3, [r4, #8]
2ffef2bc:	60e0      	str	r0, [r4, #12]
2ffef2be:	089b      	lsrs	r3, r3, #2
2ffef2c0:	61a3      	str	r3, [r4, #24]
2ffef2c2:	f7ff ff51 	bl	2ffef168 <stm32_tamp_nvram_update_rights>
2ffef2c6:	4606      	mov	r6, r0
2ffef2c8:	2800      	cmp	r0, #0
2ffef2ca:	d1b9      	bne.n	2ffef240 <stm32_tamp_nvram_init+0x14>
2ffef2cc:	9b00      	ldr	r3, [sp, #0]
2ffef2ce:	4622      	mov	r2, r4
2ffef2d0:	4906      	ldr	r1, [pc, #24]	@ (2ffef2ec <stm32_tamp_nvram_init+0xc0>)
2ffef2d2:	4628      	mov	r0, r5
2ffef2d4:	6165      	str	r5, [r4, #20]
2ffef2d6:	6123      	str	r3, [r4, #16]
2ffef2d8:	f7ff fdba 	bl	2ffeee50 <nvmem_driver_register>
2ffef2dc:	e7b0      	b.n	2ffef240 <stm32_tamp_nvram_init+0x14>
2ffef2de:	bf00      	nop
2ffef2e0:	2fff793c 	.word	0x2fff793c
2ffef2e4:	2fffb75c 	.word	0x2fffb75c
2ffef2e8:	2fff748c 	.word	0x2fff748c
2ffef2ec:	2fff554c 	.word	0x2fff554c

2ffef2f0 <stm32_tamp_nvram_get_cdata>:
2ffef2f0:	4800      	ldr	r0, [pc, #0]	@ (2ffef2f4 <stm32_tamp_nvram_get_cdata+0x4>)
2ffef2f2:	4770      	bx	lr
2ffef2f4:	2fff5554 	.word	0x2fff5554

2ffef2f8 <stm32_tamp_nvram_get_access_rights>:
2ffef2f8:	4800      	ldr	r0, [pc, #0]	@ (2ffef2fc <stm32_tamp_nvram_get_access_rights+0x4>)
2ffef2fa:	4770      	bx	lr
2ffef2fc:	2fffa0c0 	.word	0x2fffa0c0

2ffef300 <dt_get_pmic_node>:
2ffef300:	b510      	push	{r4, lr}
2ffef302:	4c06      	ldr	r4, [pc, #24]	@ (2ffef31c <dt_get_pmic_node+0x1c>)
2ffef304:	6823      	ldr	r3, [r4, #0]
2ffef306:	3304      	adds	r3, #4
2ffef308:	d105      	bne.n	2ffef316 <dt_get_pmic_node+0x16>
2ffef30a:	4a05      	ldr	r2, [pc, #20]	@ (2ffef320 <dt_get_pmic_node+0x20>)
2ffef30c:	f04f 31ff 	mov.w	r1, #4294967295	@ 0xffffffff
2ffef310:	f005 fdbc 	bl	2fff4e8c <fdt_node_offset_by_compatible>
2ffef314:	6020      	str	r0, [r4, #0]
2ffef316:	6820      	ldr	r0, [r4, #0]
2ffef318:	bd10      	pop	{r4, pc}
2ffef31a:	bf00      	nop
2ffef31c:	2fffa0d0 	.word	0x2fffa0d0
2ffef320:	2fff7954 	.word	0x2fff7954

2ffef324 <handle_pmic_property>:
2ffef324:	b570      	push	{r4, r5, r6, lr}
2ffef326:	461d      	mov	r5, r3
2ffef328:	4616      	mov	r6, r2
2ffef32a:	2300      	movs	r3, #0
2ffef32c:	462a      	mov	r2, r5
2ffef32e:	f005 fc78 	bl	2fff4c22 <fdt_getprop>
2ffef332:	4604      	mov	r4, r0
2ffef334:	b150      	cbz	r0, 2ffef34c <handle_pmic_property+0x28>
2ffef336:	f8bd 1010 	ldrh.w	r1, [sp, #16]
2ffef33a:	4630      	mov	r0, r6
2ffef33c:	f004 fe44 	bl	2fff3fc8 <pmic_set_flag>
2ffef340:	4604      	mov	r4, r0
2ffef342:	b118      	cbz	r0, 2ffef34c <handle_pmic_property+0x28>
2ffef344:	4802      	ldr	r0, [pc, #8]	@ (2ffef350 <handle_pmic_property+0x2c>)
2ffef346:	4629      	mov	r1, r5
2ffef348:	f7fa ff70 	bl	2ffea22c <tf_log>
2ffef34c:	4620      	mov	r0, r4
2ffef34e:	bd70      	pop	{r4, r5, r6, pc}
2ffef350:	2fff795f 	.word	0x2fff795f

2ffef354 <dt_pmic_status>:
2ffef354:	b513      	push	{r0, r1, r4, lr}
2ffef356:	4c0b      	ldr	r4, [pc, #44]	@ (2ffef384 <dt_pmic_status+0x30>)
2ffef358:	6820      	ldr	r0, [r4, #0]
2ffef35a:	f110 0f0f 	cmn.w	r0, #15
2ffef35e:	d10c      	bne.n	2ffef37a <dt_pmic_status+0x26>
2ffef360:	a801      	add	r0, sp, #4
2ffef362:	f002 fb1f 	bl	2fff19a4 <fdt_get_address>
2ffef366:	b150      	cbz	r0, 2ffef37e <dt_pmic_status+0x2a>
2ffef368:	9801      	ldr	r0, [sp, #4]
2ffef36a:	f7ff ffc9 	bl	2ffef300 <dt_get_pmic_node>
2ffef36e:	2800      	cmp	r0, #0
2ffef370:	bfd4      	ite	le
2ffef372:	f04f 30ff 	movle.w	r0, #4294967295	@ 0xffffffff
2ffef376:	2002      	movgt	r0, #2
2ffef378:	6020      	str	r0, [r4, #0]
2ffef37a:	b002      	add	sp, #8
2ffef37c:	bd10      	pop	{r4, pc}
2ffef37e:	f06f 0001 	mvn.w	r0, #1
2ffef382:	e7fa      	b.n	2ffef37a <dt_pmic_status+0x26>
2ffef384:	2fffa0d4 	.word	0x2fffa0d4

2ffef388 <initialize_pmic_i2c>:
2ffef388:	b570      	push	{r4, r5, r6, lr}
2ffef38a:	b092      	sub	sp, #72	@ 0x48
2ffef38c:	a801      	add	r0, sp, #4
2ffef38e:	f002 fb09 	bl	2fff19a4 <fdt_get_address>
2ffef392:	b940      	cbnz	r0, 2ffef3a6 <initialize_pmic_i2c+0x1e>
2ffef394:	f04f 31ff 	mov.w	r1, #4294967295	@ 0xffffffff
2ffef398:	4837      	ldr	r0, [pc, #220]	@ (2ffef478 <initialize_pmic_i2c+0xf0>)
2ffef39a:	f7fa ff47 	bl	2ffea22c <tf_log>
2ffef39e:	f7fb f9db 	bl	2ffea758 <console_flush>
2ffef3a2:	f7f9 ef68 	blx	2ffe9274 <el3_panic>
2ffef3a6:	4d35      	ldr	r5, [pc, #212]	@ (2ffef47c <initialize_pmic_i2c+0xf4>)
2ffef3a8:	682b      	ldr	r3, [r5, #0]
2ffef3aa:	3301      	adds	r3, #1
2ffef3ac:	d11e      	bne.n	2ffef3ec <initialize_pmic_i2c+0x64>
2ffef3ae:	9801      	ldr	r0, [sp, #4]
2ffef3b0:	f7ff ffa6 	bl	2ffef300 <dt_get_pmic_node>
2ffef3b4:	1e04      	subs	r4, r0, #0
2ffef3b6:	db2a      	blt.n	2ffef40e <initialize_pmic_i2c+0x86>
2ffef3b8:	4a31      	ldr	r2, [pc, #196]	@ (2ffef480 <initialize_pmic_i2c+0xf8>)
2ffef3ba:	2300      	movs	r3, #0
2ffef3bc:	9801      	ldr	r0, [sp, #4]
2ffef3be:	4621      	mov	r1, r4
2ffef3c0:	f005 fc2f 	bl	2fff4c22 <fdt_getprop>
2ffef3c4:	2800      	cmp	r0, #0
2ffef3c6:	d0e5      	beq.n	2ffef394 <initialize_pmic_i2c+0xc>
2ffef3c8:	6803      	ldr	r3, [r0, #0]
2ffef3ca:	4a2e      	ldr	r2, [pc, #184]	@ (2ffef484 <initialize_pmic_i2c+0xfc>)
2ffef3cc:	ba1b      	rev	r3, r3
2ffef3ce:	005b      	lsls	r3, r3, #1
2ffef3d0:	6013      	str	r3, [r2, #0]
2ffef3d2:	f5b3 3f80 	cmp.w	r3, #65536	@ 0x10000
2ffef3d6:	d302      	bcc.n	2ffef3de <initialize_pmic_i2c+0x56>
2ffef3d8:	f06f 010e 	mvn.w	r1, #14
2ffef3dc:	e7dc      	b.n	2ffef398 <initialize_pmic_i2c+0x10>
2ffef3de:	9801      	ldr	r0, [sp, #4]
2ffef3e0:	4621      	mov	r1, r4
2ffef3e2:	f005 fccc 	bl	2fff4d7e <fdt_parent_offset>
2ffef3e6:	6028      	str	r0, [r5, #0]
2ffef3e8:	2800      	cmp	r0, #0
2ffef3ea:	dbd3      	blt.n	2ffef394 <initialize_pmic_i2c+0xc>
2ffef3ec:	6829      	ldr	r1, [r5, #0]
2ffef3ee:	a802      	add	r0, sp, #8
2ffef3f0:	f002 fb3c 	bl	2fff1a6c <dt_fill_device_info>
2ffef3f4:	9b02      	ldr	r3, [sp, #8]
2ffef3f6:	2b00      	cmp	r3, #0
2ffef3f8:	d0cc      	beq.n	2ffef394 <initialize_pmic_i2c+0xc>
2ffef3fa:	6829      	ldr	r1, [r5, #0]
2ffef3fc:	2302      	movs	r3, #2
2ffef3fe:	9801      	ldr	r0, [sp, #4]
2ffef400:	aa06      	add	r2, sp, #24
2ffef402:	9305      	str	r3, [sp, #20]
2ffef404:	f7ff f938 	bl	2ffee678 <stm32_i2c_get_setup_from_fdt>
2ffef408:	1e01      	subs	r1, r0, #0
2ffef40a:	dbc5      	blt.n	2ffef398 <initialize_pmic_i2c+0x10>
2ffef40c:	d003      	beq.n	2ffef416 <initialize_pmic_i2c+0x8e>
2ffef40e:	2500      	movs	r5, #0
2ffef410:	4628      	mov	r0, r5
2ffef412:	b012      	add	sp, #72	@ 0x48
2ffef414:	bd70      	pop	{r4, r5, r6, pc}
2ffef416:	4c1c      	ldr	r4, [pc, #112]	@ (2ffef488 <initialize_pmic_i2c+0x100>)
2ffef418:	2501      	movs	r5, #1
2ffef41a:	9b02      	ldr	r3, [sp, #8]
2ffef41c:	4e19      	ldr	r6, [pc, #100]	@ (2ffef484 <initialize_pmic_i2c+0xfc>)
2ffef41e:	4620      	mov	r0, r4
2ffef420:	6023      	str	r3, [r4, #0]
2ffef422:	9b05      	ldr	r3, [sp, #20]
2ffef424:	6121      	str	r1, [r4, #16]
2ffef426:	6063      	str	r3, [r4, #4]
2ffef428:	9b03      	ldr	r3, [sp, #12]
2ffef42a:	e9cd 1108 	strd	r1, r1, [sp, #32]
2ffef42e:	60a3      	str	r3, [r4, #8]
2ffef430:	6833      	ldr	r3, [r6, #0]
2ffef432:	e9cd 110a 	strd	r1, r1, [sp, #40]	@ 0x28
2ffef436:	910c      	str	r1, [sp, #48]	@ 0x30
2ffef438:	f88d 1044 	strb.w	r1, [sp, #68]	@ 0x44
2ffef43c:	a906      	add	r1, sp, #24
2ffef43e:	9306      	str	r3, [sp, #24]
2ffef440:	9507      	str	r5, [sp, #28]
2ffef442:	9510      	str	r5, [sp, #64]	@ 0x40
2ffef444:	f7ff f94a 	bl	2ffee6dc <stm32_i2c_init>
2ffef448:	4602      	mov	r2, r0
2ffef44a:	b120      	cbz	r0, 2ffef456 <initialize_pmic_i2c+0xce>
2ffef44c:	6821      	ldr	r1, [r4, #0]
2ffef44e:	480f      	ldr	r0, [pc, #60]	@ (2ffef48c <initialize_pmic_i2c+0x104>)
2ffef450:	f7fa feec 	bl	2ffea22c <tf_log>
2ffef454:	e7a3      	b.n	2ffef39e <initialize_pmic_i2c+0x16>
2ffef456:	8831      	ldrh	r1, [r6, #0]
2ffef458:	462a      	mov	r2, r5
2ffef45a:	2319      	movs	r3, #25
2ffef45c:	4620      	mov	r0, r4
2ffef45e:	f7ff fb57 	bl	2ffeeb10 <stm32_i2c_is_device_ready>
2ffef462:	4605      	mov	r5, r0
2ffef464:	b918      	cbnz	r0, 2ffef46e <initialize_pmic_i2c+0xe6>
2ffef466:	480a      	ldr	r0, [pc, #40]	@ (2ffef490 <initialize_pmic_i2c+0x108>)
2ffef468:	f7fa fee0 	bl	2ffea22c <tf_log>
2ffef46c:	e797      	b.n	2ffef39e <initialize_pmic_i2c+0x16>
2ffef46e:	8831      	ldrh	r1, [r6, #0]
2ffef470:	4620      	mov	r0, r4
2ffef472:	f000 fa19 	bl	2ffef8a8 <stpmic1_bind_i2c>
2ffef476:	e7cb      	b.n	2ffef410 <initialize_pmic_i2c+0x88>
2ffef478:	2fff796f 	.word	0x2fff796f
2ffef47c:	2fffa0cc 	.word	0x2fffa0cc
2ffef480:	2fff748c 	.word	0x2fff748c
2ffef484:	2fffb788 	.word	0x2fffb788
2ffef488:	2fffb78c 	.word	0x2fffb78c
2ffef48c:	2fff798d 	.word	0x2fff798d
2ffef490:	2fff79ad 	.word	0x2fff79ad

2ffef494 <initialize_pmic>:
2ffef494:	e92d 43f0 	stmdb	sp!, {r4, r5, r6, r7, r8, r9, lr}
2ffef498:	b085      	sub	sp, #20
2ffef49a:	f7ff ff75 	bl	2ffef388 <initialize_pmic_i2c>
2ffef49e:	b1e8      	cbz	r0, 2ffef4dc <initialize_pmic+0x48>
2ffef4a0:	f7ff ff58 	bl	2ffef354 <dt_pmic_status>
2ffef4a4:	a803      	add	r0, sp, #12
2ffef4a6:	f002 fa7d 	bl	2fff19a4 <fdt_get_address>
2ffef4aa:	2800      	cmp	r0, #0
2ffef4ac:	d040      	beq.n	2ffef530 <initialize_pmic+0x9c>
2ffef4ae:	9803      	ldr	r0, [sp, #12]
2ffef4b0:	f7ff ff26 	bl	2ffef300 <dt_get_pmic_node>
2ffef4b4:	1e01      	subs	r1, r0, #0
2ffef4b6:	db3b      	blt.n	2ffef530 <initialize_pmic+0x9c>
2ffef4b8:	4a33      	ldr	r2, [pc, #204]	@ (2ffef588 <initialize_pmic+0xf4>)
2ffef4ba:	9803      	ldr	r0, [sp, #12]
2ffef4bc:	f005 fb2c 	bl	2fff4b18 <fdt_subnode_offset>
2ffef4c0:	1e01      	subs	r1, r0, #0
2ffef4c2:	db35      	blt.n	2ffef530 <initialize_pmic+0x9c>
2ffef4c4:	9803      	ldr	r0, [sp, #12]
2ffef4c6:	2714      	movs	r7, #20
2ffef4c8:	4e30      	ldr	r6, [pc, #192]	@ (2ffef58c <initialize_pmic+0xf8>)
2ffef4ca:	f005 fa39 	bl	2fff4940 <fdt_first_subnode>
2ffef4ce:	4605      	mov	r5, r0
2ffef4d0:	2d00      	cmp	r5, #0
2ffef4d2:	da06      	bge.n	2ffef4e2 <initialize_pmic+0x4e>
2ffef4d4:	f004 fde9 	bl	2fff40aa <stpmic1_powerctrl_on>
2ffef4d8:	2800      	cmp	r0, #0
2ffef4da:	db29      	blt.n	2ffef530 <initialize_pmic+0x9c>
2ffef4dc:	b005      	add	sp, #20
2ffef4de:	e8bd 83f0 	ldmia.w	sp!, {r4, r5, r6, r7, r8, r9, pc}
2ffef4e2:	9803      	ldr	r0, [sp, #12]
2ffef4e4:	2200      	movs	r2, #0
2ffef4e6:	4629      	mov	r1, r5
2ffef4e8:	2400      	movs	r4, #0
2ffef4ea:	f005 faa7 	bl	2fff4a3c <fdt_get_name>
2ffef4ee:	4681      	mov	r9, r0
2ffef4f0:	fb07 f304 	mul.w	r3, r7, r4
2ffef4f4:	4649      	mov	r1, r9
2ffef4f6:	58f0      	ldr	r0, [r6, r3]
2ffef4f8:	eb03 0806 	add.w	r8, r3, r6
2ffef4fc:	f005 fe12 	bl	2fff5124 <strcmp>
2ffef500:	b138      	cbz	r0, 2ffef512 <initialize_pmic+0x7e>
2ffef502:	3401      	adds	r4, #1
2ffef504:	2c0e      	cmp	r4, #14
2ffef506:	d1f3      	bne.n	2ffef4f0 <initialize_pmic+0x5c>
2ffef508:	4821      	ldr	r0, [pc, #132]	@ (2ffef590 <initialize_pmic+0xfc>)
2ffef50a:	f44f 71da 	mov.w	r1, #436	@ 0x1b4
2ffef50e:	f003 fe43 	bl	2fff3198 <__assert>
2ffef512:	4629      	mov	r1, r5
2ffef514:	4640      	mov	r0, r8
2ffef516:	f000 faff 	bl	2ffefb18 <regulator_register>
2ffef51a:	4604      	mov	r4, r0
2ffef51c:	b160      	cbz	r0, 2ffef538 <initialize_pmic+0xa4>
2ffef51e:	491d      	ldr	r1, [pc, #116]	@ (2ffef594 <initialize_pmic+0x100>)
2ffef520:	464b      	mov	r3, r9
2ffef522:	481d      	ldr	r0, [pc, #116]	@ (2ffef598 <initialize_pmic+0x104>)
2ffef524:	f240 12b9 	movw	r2, #441	@ 0x1b9
2ffef528:	f7fa fe80 	bl	2ffea22c <tf_log>
2ffef52c:	2c00      	cmp	r4, #0
2ffef52e:	dad1      	bge.n	2ffef4d4 <initialize_pmic+0x40>
2ffef530:	f7fb f912 	bl	2ffea758 <console_flush>
2ffef534:	f7f9 ee9e 	blx	2ffe9274 <el3_panic>
2ffef538:	9803      	ldr	r0, [sp, #12]
2ffef53a:	2320      	movs	r3, #32
2ffef53c:	9300      	str	r3, [sp, #0]
2ffef53e:	4642      	mov	r2, r8
2ffef540:	4b16      	ldr	r3, [pc, #88]	@ (2ffef59c <initialize_pmic+0x108>)
2ffef542:	4629      	mov	r1, r5
2ffef544:	f7ff feee 	bl	2ffef324 <handle_pmic_property>
2ffef548:	4604      	mov	r4, r0
2ffef54a:	2800      	cmp	r0, #0
2ffef54c:	d1ee      	bne.n	2ffef52c <initialize_pmic+0x98>
2ffef54e:	9803      	ldr	r0, [sp, #12]
2ffef550:	2340      	movs	r3, #64	@ 0x40
2ffef552:	9300      	str	r3, [sp, #0]
2ffef554:	4642      	mov	r2, r8
2ffef556:	4b12      	ldr	r3, [pc, #72]	@ (2ffef5a0 <initialize_pmic+0x10c>)
2ffef558:	4629      	mov	r1, r5
2ffef55a:	f7ff fee3 	bl	2ffef324 <handle_pmic_property>
2ffef55e:	4604      	mov	r4, r0
2ffef560:	2800      	cmp	r0, #0
2ffef562:	d1e3      	bne.n	2ffef52c <initialize_pmic+0x98>
2ffef564:	9803      	ldr	r0, [sp, #12]
2ffef566:	2380      	movs	r3, #128	@ 0x80
2ffef568:	9300      	str	r3, [sp, #0]
2ffef56a:	4642      	mov	r2, r8
2ffef56c:	4b0d      	ldr	r3, [pc, #52]	@ (2ffef5a4 <initialize_pmic+0x110>)
2ffef56e:	4629      	mov	r1, r5
2ffef570:	f7ff fed8 	bl	2ffef324 <handle_pmic_property>
2ffef574:	4604      	mov	r4, r0
2ffef576:	2800      	cmp	r0, #0
2ffef578:	d1d8      	bne.n	2ffef52c <initialize_pmic+0x98>
2ffef57a:	9803      	ldr	r0, [sp, #12]
2ffef57c:	4629      	mov	r1, r5
2ffef57e:	f005 f9f2 	bl	2fff4966 <fdt_next_subnode>
2ffef582:	4605      	mov	r5, r0
2ffef584:	e7a4      	b.n	2ffef4d0 <initialize_pmic+0x3c>
2ffef586:	bf00      	nop
2ffef588:	2fff79c4 	.word	0x2fff79c4
2ffef58c:	2fff5574 	.word	0x2fff5574
2ffef590:	2fff79cf 	.word	0x2fff79cf
2ffef594:	2fff9042 	.word	0x2fff9042
2ffef598:	2fff79ee 	.word	0x2fff79ee
2ffef59c:	2fff7a0c 	.word	0x2fff7a0c
2ffef5a0:	2fff7a1a 	.word	0x2fff7a1a
2ffef5a4:	2fff7a33 	.word	0x2fff7a33

2ffef5a8 <print_pmic_info_and_debug>:
2ffef5a8:	b507      	push	{r0, r1, r2, lr}
2ffef5aa:	a801      	add	r0, sp, #4
2ffef5ac:	f004 fdd1 	bl	2fff4152 <stpmic1_get_version>
2ffef5b0:	b130      	cbz	r0, 2ffef5c0 <print_pmic_info_and_debug+0x18>
2ffef5b2:	4807      	ldr	r0, [pc, #28]	@ (2ffef5d0 <print_pmic_info_and_debug+0x28>)
2ffef5b4:	f7fa fe3a 	bl	2ffea22c <tf_log>
2ffef5b8:	f7fb f8ce 	bl	2ffea758 <console_flush>
2ffef5bc:	f7f9 ee5a 	blx	2ffe9274 <el3_panic>
2ffef5c0:	9901      	ldr	r1, [sp, #4]
2ffef5c2:	4804      	ldr	r0, [pc, #16]	@ (2ffef5d4 <print_pmic_info_and_debug+0x2c>)
2ffef5c4:	f7fa fe32 	bl	2ffea22c <tf_log>
2ffef5c8:	b003      	add	sp, #12
2ffef5ca:	f85d fb04 	ldr.w	pc, [sp], #4
2ffef5ce:	bf00      	nop
2ffef5d0:	2fff7a47 	.word	0x2fff7a47
2ffef5d4:	2fff7a5f 	.word	0x2fff7a5f

2ffef5d8 <get_regulator_data>:
2ffef5d8:	e92d 43f8 	stmdb	sp!, {r3, r4, r5, r6, r7, r8, r9, lr}
2ffef5dc:	4605      	mov	r5, r0
2ffef5de:	4e0e      	ldr	r6, [pc, #56]	@ (2ffef618 <get_regulator_data+0x40>)
2ffef5e0:	2400      	movs	r4, #0
2ffef5e2:	f04f 0914 	mov.w	r9, #20
2ffef5e6:	fb09 f304 	mul.w	r3, r9, r4
2ffef5ea:	58f7      	ldr	r7, [r6, r3]
2ffef5ec:	eb03 0806 	add.w	r8, r3, r6
2ffef5f0:	4638      	mov	r0, r7
2ffef5f2:	f005 fdb7 	bl	2fff5164 <strlen>
2ffef5f6:	4602      	mov	r2, r0
2ffef5f8:	4639      	mov	r1, r7
2ffef5fa:	4628      	mov	r0, r5
2ffef5fc:	f005 fdba 	bl	2fff5174 <strncmp>
2ffef600:	b130      	cbz	r0, 2ffef610 <get_regulator_data+0x38>
2ffef602:	3401      	adds	r4, #1
2ffef604:	2c0e      	cmp	r4, #14
2ffef606:	d1ee      	bne.n	2ffef5e6 <get_regulator_data+0xe>
2ffef608:	f7fb f8a6 	bl	2ffea758 <console_flush>
2ffef60c:	f7f9 ee32 	blx	2ffe9274 <el3_panic>
2ffef610:	4640      	mov	r0, r8
2ffef612:	e8bd 83f8 	ldmia.w	sp!, {r3, r4, r5, r6, r7, r8, r9, pc}
2ffef616:	bf00      	nop
2ffef618:	2fff56ac 	.word	0x2fff56ac

2ffef61c <stpmic1_regulator_levels_mv>:
2ffef61c:	b5f8      	push	{r3, r4, r5, r6, r7, lr}
2ffef61e:	4607      	mov	r7, r0
2ffef620:	460e      	mov	r6, r1
2ffef622:	4615      	mov	r5, r2
2ffef624:	f7ff ffd8 	bl	2ffef5d8 <get_regulator_data>
2ffef628:	4909      	ldr	r1, [pc, #36]	@ (2ffef650 <stpmic1_regulator_levels_mv+0x34>)
2ffef62a:	4604      	mov	r4, r0
2ffef62c:	2205      	movs	r2, #5
2ffef62e:	4638      	mov	r0, r7
2ffef630:	f005 fda0 	bl	2fff5174 <strncmp>
2ffef634:	b940      	cbnz	r0, 2ffef648 <stpmic1_regulator_levels_mv+0x2c>
2ffef636:	4b07      	ldr	r3, [pc, #28]	@ (2ffef654 <stpmic1_regulator_levels_mv+0x38>)
2ffef638:	781b      	ldrb	r3, [r3, #0]
2ffef63a:	b12b      	cbz	r3, 2ffef648 <stpmic1_regulator_levels_mv+0x2c>
2ffef63c:	2301      	movs	r3, #1
2ffef63e:	602b      	str	r3, [r5, #0]
2ffef640:	4b05      	ldr	r3, [pc, #20]	@ (2ffef658 <stpmic1_regulator_levels_mv+0x3c>)
2ffef642:	6033      	str	r3, [r6, #0]
2ffef644:	2000      	movs	r0, #0
2ffef646:	bdf8      	pop	{r3, r4, r5, r6, r7, pc}
2ffef648:	7a23      	ldrb	r3, [r4, #8]
2ffef64a:	602b      	str	r3, [r5, #0]
2ffef64c:	6863      	ldr	r3, [r4, #4]
2ffef64e:	e7f8      	b.n	2ffef642 <stpmic1_regulator_levels_mv+0x26>
2ffef650:	2fff7a9a 	.word	0x2fff7a9a
2ffef654:	2fffbb18 	.word	0x2fffbb18
2ffef658:	2fff61b8 	.word	0x2fff61b8

2ffef65c <stpmic1_register_read>:
2ffef65c:	b51f      	push	{r0, r1, r2, r3, r4, lr}
2ffef65e:	2319      	movs	r3, #25
2ffef660:	9302      	str	r3, [sp, #8]
2ffef662:	2301      	movs	r3, #1
2ffef664:	e9cd 1300 	strd	r1, r3, [sp]
2ffef668:	4904      	ldr	r1, [pc, #16]	@ (2ffef67c <stpmic1_register_read+0x20>)
2ffef66a:	4602      	mov	r2, r0
2ffef66c:	4804      	ldr	r0, [pc, #16]	@ (2ffef680 <stpmic1_register_read+0x24>)
2ffef66e:	8809      	ldrh	r1, [r1, #0]
2ffef670:	6800      	ldr	r0, [r0, #0]
2ffef672:	f004 fc5d 	bl	2fff3f30 <stm32_i2c_mem_read>
2ffef676:	b005      	add	sp, #20
2ffef678:	f85d fb04 	ldr.w	pc, [sp], #4
2ffef67c:	2fffba98 	.word	0x2fffba98
2ffef680:	2fffb7b0 	.word	0x2fffb7b0

2ffef684 <stpmic1_regulator_voltage_get>:
2ffef684:	b537      	push	{r0, r1, r2, r4, r5, lr}
2ffef686:	4604      	mov	r4, r0
2ffef688:	f7ff ffa6 	bl	2ffef5d8 <get_regulator_data>
2ffef68c:	491c      	ldr	r1, [pc, #112]	@ (2ffef700 <stpmic1_regulator_voltage_get+0x7c>)
2ffef68e:	4605      	mov	r5, r0
2ffef690:	2205      	movs	r2, #5
2ffef692:	4620      	mov	r0, r4
2ffef694:	f005 fd6e 	bl	2fff5174 <strncmp>
2ffef698:	b928      	cbnz	r0, 2ffef6a6 <stpmic1_regulator_voltage_get+0x22>
2ffef69a:	4b1a      	ldr	r3, [pc, #104]	@ (2ffef704 <stpmic1_regulator_voltage_get+0x80>)
2ffef69c:	781b      	ldrb	r3, [r3, #0]
2ffef69e:	b113      	cbz	r3, 2ffef6a6 <stpmic1_regulator_voltage_get+0x22>
2ffef6a0:	2000      	movs	r0, #0
2ffef6a2:	b003      	add	sp, #12
2ffef6a4:	bd30      	pop	{r4, r5, pc}
2ffef6a6:	4918      	ldr	r1, [pc, #96]	@ (2ffef708 <stpmic1_regulator_voltage_get+0x84>)
2ffef6a8:	2204      	movs	r2, #4
2ffef6aa:	4620      	mov	r0, r4
2ffef6ac:	f005 fd62 	bl	2fff5174 <strncmp>
2ffef6b0:	b318      	cbz	r0, 2ffef6fa <stpmic1_regulator_voltage_get+0x76>
2ffef6b2:	4916      	ldr	r1, [pc, #88]	@ (2ffef70c <stpmic1_regulator_voltage_get+0x88>)
2ffef6b4:	2203      	movs	r2, #3
2ffef6b6:	4620      	mov	r0, r4
2ffef6b8:	f005 fd5c 	bl	2fff5174 <strncmp>
2ffef6bc:	2800      	cmp	r0, #0
2ffef6be:	d1ef      	bne.n	2ffef6a0 <stpmic1_regulator_voltage_get+0x1c>
2ffef6c0:	4913      	ldr	r1, [pc, #76]	@ (2ffef710 <stpmic1_regulator_voltage_get+0x8c>)
2ffef6c2:	2205      	movs	r2, #5
2ffef6c4:	4620      	mov	r0, r4
2ffef6c6:	f005 fd55 	bl	2fff5174 <strncmp>
2ffef6ca:	2800      	cmp	r0, #0
2ffef6cc:	d0e8      	beq.n	2ffef6a0 <stpmic1_regulator_voltage_get+0x1c>
2ffef6ce:	247c      	movs	r4, #124	@ 0x7c
2ffef6d0:	7a68      	ldrb	r0, [r5, #9]
2ffef6d2:	f10d 0107 	add.w	r1, sp, #7
2ffef6d6:	f7ff ffc1 	bl	2ffef65c <stpmic1_register_read>
2ffef6da:	2800      	cmp	r0, #0
2ffef6dc:	dbe1      	blt.n	2ffef6a2 <stpmic1_regulator_voltage_get+0x1e>
2ffef6de:	f89d 3007 	ldrb.w	r3, [sp, #7]
2ffef6e2:	401c      	ands	r4, r3
2ffef6e4:	7a2b      	ldrb	r3, [r5, #8]
2ffef6e6:	08a2      	lsrs	r2, r4, #2
2ffef6e8:	ebb3 0f94 	cmp.w	r3, r4, lsr #2
2ffef6ec:	bf32      	itee	cc
2ffef6ee:	f06f 0021 	mvncc.w	r0, #33	@ 0x21
2ffef6f2:	686b      	ldrcs	r3, [r5, #4]
2ffef6f4:	f833 0012 	ldrhcs.w	r0, [r3, r2, lsl #1]
2ffef6f8:	e7d3      	b.n	2ffef6a2 <stpmic1_regulator_voltage_get+0x1e>
2ffef6fa:	24fc      	movs	r4, #252	@ 0xfc
2ffef6fc:	e7e8      	b.n	2ffef6d0 <stpmic1_regulator_voltage_get+0x4c>
2ffef6fe:	bf00      	nop
2ffef700:	2fff7a9a 	.word	0x2fff7a9a
2ffef704:	2fffbb18 	.word	0x2fffbb18
2ffef708:	2fff7acd 	.word	0x2fff7acd
2ffef70c:	2fff7ad2 	.word	0x2fff7ad2
2ffef710:	2fff7a9f 	.word	0x2fff7a9f

2ffef714 <stpmic1_register_write>:
2ffef714:	b530      	push	{r4, r5, lr}
2ffef716:	b089      	sub	sp, #36	@ 0x24
2ffef718:	f10d 0217 	add.w	r2, sp, #23
2ffef71c:	2319      	movs	r3, #25
2ffef71e:	9200      	str	r2, [sp, #0]
2ffef720:	4604      	mov	r4, r0
2ffef722:	f88d 1017 	strb.w	r1, [sp, #23]
2ffef726:	4602      	mov	r2, r0
2ffef728:	4910      	ldr	r1, [pc, #64]	@ (2ffef76c <stpmic1_register_write+0x58>)
2ffef72a:	4811      	ldr	r0, [pc, #68]	@ (2ffef770 <stpmic1_register_write+0x5c>)
2ffef72c:	9302      	str	r3, [sp, #8]
2ffef72e:	2301      	movs	r3, #1
2ffef730:	9301      	str	r3, [sp, #4]
2ffef732:	8809      	ldrh	r1, [r1, #0]
2ffef734:	6800      	ldr	r0, [r0, #0]
2ffef736:	f004 fbed 	bl	2fff3f14 <stm32_i2c_mem_write>
2ffef73a:	4605      	mov	r5, r0
2ffef73c:	b990      	cbnz	r0, 2ffef764 <stpmic1_register_write+0x50>
2ffef73e:	2c1b      	cmp	r4, #27
2ffef740:	d010      	beq.n	2ffef764 <stpmic1_register_write+0x50>
2ffef742:	2c40      	cmp	r4, #64	@ 0x40
2ffef744:	d80e      	bhi.n	2ffef764 <stpmic1_register_write+0x50>
2ffef746:	f10d 011f 	add.w	r1, sp, #31
2ffef74a:	4620      	mov	r0, r4
2ffef74c:	f7ff ff86 	bl	2ffef65c <stpmic1_register_read>
2ffef750:	b938      	cbnz	r0, 2ffef762 <stpmic1_register_write+0x4e>
2ffef752:	f89d 201f 	ldrb.w	r2, [sp, #31]
2ffef756:	f89d 3017 	ldrb.w	r3, [sp, #23]
2ffef75a:	429a      	cmp	r2, r3
2ffef75c:	d002      	beq.n	2ffef764 <stpmic1_register_write+0x50>
2ffef75e:	f06f 0004 	mvn.w	r0, #4
2ffef762:	4605      	mov	r5, r0
2ffef764:	4628      	mov	r0, r5
2ffef766:	b009      	add	sp, #36	@ 0x24
2ffef768:	bd30      	pop	{r4, r5, pc}
2ffef76a:	bf00      	nop
2ffef76c:	2fffba98 	.word	0x2fffba98
2ffef770:	2fffb7b0 	.word	0x2fffb7b0

2ffef774 <stpmic1_regulator_voltage_set>:
2ffef774:	b570      	push	{r4, r5, r6, lr}
2ffef776:	4604      	mov	r4, r0
2ffef778:	460e      	mov	r6, r1
2ffef77a:	f7ff ff2d 	bl	2ffef5d8 <get_regulator_data>
2ffef77e:	7a02      	ldrb	r2, [r0, #8]
2ffef780:	2300      	movs	r3, #0
2ffef782:	b2dd      	uxtb	r5, r3
2ffef784:	4295      	cmp	r5, r2
2ffef786:	d303      	bcc.n	2ffef790 <stpmic1_regulator_voltage_set+0x1c>
2ffef788:	f7fa ffe6 	bl	2ffea758 <console_flush>
2ffef78c:	f7f9 ed72 	blx	2ffe9274 <el3_panic>
2ffef790:	6841      	ldr	r1, [r0, #4]
2ffef792:	f831 1013 	ldrh.w	r1, [r1, r3, lsl #1]
2ffef796:	3301      	adds	r3, #1
2ffef798:	428e      	cmp	r6, r1
2ffef79a:	d1f2      	bne.n	2ffef782 <stpmic1_regulator_voltage_set+0xe>
2ffef79c:	4620      	mov	r0, r4
2ffef79e:	f7ff ff1b 	bl	2ffef5d8 <get_regulator_data>
2ffef7a2:	4915      	ldr	r1, [pc, #84]	@ (2ffef7f8 <stpmic1_regulator_voltage_set+0x84>)
2ffef7a4:	4606      	mov	r6, r0
2ffef7a6:	2205      	movs	r2, #5
2ffef7a8:	4620      	mov	r0, r4
2ffef7aa:	f005 fce3 	bl	2fff5174 <strncmp>
2ffef7ae:	b1d0      	cbz	r0, 2ffef7e6 <stpmic1_regulator_voltage_set+0x72>
2ffef7b0:	4912      	ldr	r1, [pc, #72]	@ (2ffef7fc <stpmic1_regulator_voltage_set+0x88>)
2ffef7b2:	2204      	movs	r2, #4
2ffef7b4:	4620      	mov	r0, r4
2ffef7b6:	f005 fcdd 	bl	2fff5174 <strncmp>
2ffef7ba:	b1d0      	cbz	r0, 2ffef7f2 <stpmic1_regulator_voltage_set+0x7e>
2ffef7bc:	4910      	ldr	r1, [pc, #64]	@ (2ffef800 <stpmic1_regulator_voltage_set+0x8c>)
2ffef7be:	2203      	movs	r2, #3
2ffef7c0:	4620      	mov	r0, r4
2ffef7c2:	f005 fcd7 	bl	2fff5174 <strncmp>
2ffef7c6:	b990      	cbnz	r0, 2ffef7ee <stpmic1_regulator_voltage_set+0x7a>
2ffef7c8:	490e      	ldr	r1, [pc, #56]	@ (2ffef804 <stpmic1_regulator_voltage_set+0x90>)
2ffef7ca:	2205      	movs	r2, #5
2ffef7cc:	4620      	mov	r0, r4
2ffef7ce:	f005 fcd1 	bl	2fff5174 <strncmp>
2ffef7d2:	b160      	cbz	r0, 2ffef7ee <stpmic1_regulator_voltage_set+0x7a>
2ffef7d4:	227c      	movs	r2, #124	@ 0x7c
2ffef7d6:	00a9      	lsls	r1, r5, #2
2ffef7d8:	7a70      	ldrb	r0, [r6, #9]
2ffef7da:	f001 01fc 	and.w	r1, r1, #252	@ 0xfc
2ffef7de:	e8bd 4070 	ldmia.w	sp!, {r4, r5, r6, lr}
2ffef7e2:	f004 bc4b 	b.w	2fff407c <stpmic1_register_update>
2ffef7e6:	4b08      	ldr	r3, [pc, #32]	@ (2ffef808 <stpmic1_regulator_voltage_set+0x94>)
2ffef7e8:	781b      	ldrb	r3, [r3, #0]
2ffef7ea:	2b00      	cmp	r3, #0
2ffef7ec:	d0e0      	beq.n	2ffef7b0 <stpmic1_regulator_voltage_set+0x3c>
2ffef7ee:	2000      	movs	r0, #0
2ffef7f0:	bd70      	pop	{r4, r5, r6, pc}
2ffef7f2:	22fc      	movs	r2, #252	@ 0xfc
2ffef7f4:	e7ef      	b.n	2ffef7d6 <stpmic1_regulator_voltage_set+0x62>
2ffef7f6:	bf00      	nop
2ffef7f8:	2fff7a9a 	.word	0x2fff7a9a
2ffef7fc:	2fff7acd 	.word	0x2fff7acd
2ffef800:	2fff7ad2 	.word	0x2fff7ad2
2ffef804:	2fff7a9f 	.word	0x2fff7a9f
2ffef808:	2fffbb18 	.word	0x2fffbb18

2ffef80c <stpmic1_regulator_sink_mode_set>:
2ffef80c:	b508      	push	{r3, lr}
2ffef80e:	2205      	movs	r2, #5
2ffef810:	4908      	ldr	r1, [pc, #32]	@ (2ffef834 <stpmic1_regulator_sink_mode_set+0x28>)
2ffef812:	f005 fcaf 	bl	2fff5174 <strncmp>
2ffef816:	b948      	cbnz	r0, 2ffef82c <stpmic1_regulator_sink_mode_set+0x20>
2ffef818:	4b07      	ldr	r3, [pc, #28]	@ (2ffef838 <stpmic1_regulator_sink_mode_set+0x2c>)
2ffef81a:	2201      	movs	r2, #1
2ffef81c:	217c      	movs	r1, #124	@ 0x7c
2ffef81e:	2027      	movs	r0, #39	@ 0x27
2ffef820:	701a      	strb	r2, [r3, #0]
2ffef822:	22fc      	movs	r2, #252	@ 0xfc
2ffef824:	e8bd 4008 	ldmia.w	sp!, {r3, lr}
2ffef828:	f004 bc28 	b.w	2fff407c <stpmic1_register_update>
2ffef82c:	f04f 30ff 	mov.w	r0, #4294967295	@ 0xffffffff
2ffef830:	bd08      	pop	{r3, pc}
2ffef832:	bf00      	nop
2ffef834:	2fff7a9a 	.word	0x2fff7a9a
2ffef838:	2fffbb18 	.word	0x2fffbb18

2ffef83c <stpmic1_regulator_bypass_mode_set>:
2ffef83c:	b508      	push	{r3, lr}
2ffef83e:	2205      	movs	r2, #5
2ffef840:	4908      	ldr	r1, [pc, #32]	@ (2ffef864 <stpmic1_regulator_bypass_mode_set+0x28>)
2ffef842:	f005 fc97 	bl	2fff5174 <strncmp>
2ffef846:	b948      	cbnz	r0, 2ffef85c <stpmic1_regulator_bypass_mode_set+0x20>
2ffef848:	4b07      	ldr	r3, [pc, #28]	@ (2ffef868 <stpmic1_regulator_bypass_mode_set+0x2c>)
2ffef84a:	2201      	movs	r2, #1
2ffef84c:	2180      	movs	r1, #128	@ 0x80
2ffef84e:	2027      	movs	r0, #39	@ 0x27
2ffef850:	701a      	strb	r2, [r3, #0]
2ffef852:	22fc      	movs	r2, #252	@ 0xfc
2ffef854:	e8bd 4008 	ldmia.w	sp!, {r3, lr}
2ffef858:	f004 bc10 	b.w	2fff407c <stpmic1_register_update>
2ffef85c:	f04f 30ff 	mov.w	r0, #4294967295	@ 0xffffffff
2ffef860:	bd08      	pop	{r3, pc}
2ffef862:	bf00      	nop
2ffef864:	2fff7a9a 	.word	0x2fff7a9a
2ffef868:	2fffbb18 	.word	0x2fffbb18

2ffef86c <stpmic1_active_discharge_mode_set>:
2ffef86c:	b510      	push	{r4, lr}
2ffef86e:	2208      	movs	r2, #8
2ffef870:	490b      	ldr	r1, [pc, #44]	@ (2ffef8a0 <stpmic1_active_discharge_mode_set+0x34>)
2ffef872:	4604      	mov	r4, r0
2ffef874:	f005 fc7e 	bl	2fff5174 <strncmp>
2ffef878:	b930      	cbnz	r0, 2ffef888 <stpmic1_active_discharge_mode_set+0x1c>
2ffef87a:	2210      	movs	r2, #16
2ffef87c:	e8bd 4010 	ldmia.w	sp!, {r4, lr}
2ffef880:	4611      	mov	r1, r2
2ffef882:	2040      	movs	r0, #64	@ 0x40
2ffef884:	f004 bbfa 	b.w	2fff407c <stpmic1_register_update>
2ffef888:	4906      	ldr	r1, [pc, #24]	@ (2ffef8a4 <stpmic1_active_discharge_mode_set+0x38>)
2ffef88a:	2208      	movs	r2, #8
2ffef88c:	4620      	mov	r0, r4
2ffef88e:	f005 fc71 	bl	2fff5174 <strncmp>
2ffef892:	b908      	cbnz	r0, 2ffef898 <stpmic1_active_discharge_mode_set+0x2c>
2ffef894:	2220      	movs	r2, #32
2ffef896:	e7f1      	b.n	2ffef87c <stpmic1_active_discharge_mode_set+0x10>
2ffef898:	f04f 30ff 	mov.w	r0, #4294967295	@ 0xffffffff
2ffef89c:	bd10      	pop	{r4, pc}
2ffef89e:	bf00      	nop
2ffef8a0:	2fff7abd 	.word	0x2fff7abd
2ffef8a4:	2fff7ac5 	.word	0x2fff7ac5

2ffef8a8 <stpmic1_bind_i2c>:
2ffef8a8:	4b02      	ldr	r3, [pc, #8]	@ (2ffef8b4 <stpmic1_bind_i2c+0xc>)
2ffef8aa:	6018      	str	r0, [r3, #0]
2ffef8ac:	4b02      	ldr	r3, [pc, #8]	@ (2ffef8b8 <stpmic1_bind_i2c+0x10>)
2ffef8ae:	8019      	strh	r1, [r3, #0]
2ffef8b0:	4770      	bx	lr
2ffef8b2:	bf00      	nop
2ffef8b4:	2fffb7b0 	.word	0x2fffb7b0
2ffef8b8:	2fffba98 	.word	0x2fffba98

2ffef8bc <regulator_get_by_supply_name>:
2ffef8bc:	b530      	push	{r4, r5, lr}
2ffef8be:	b091      	sub	sp, #68	@ 0x44
2ffef8c0:	4613      	mov	r3, r2
2ffef8c2:	4604      	mov	r4, r0
2ffef8c4:	4a15      	ldr	r2, [pc, #84]	@ (2ffef91c <regulator_get_by_supply_name+0x60>)
2ffef8c6:	460d      	mov	r5, r1
2ffef8c8:	4668      	mov	r0, sp
2ffef8ca:	213f      	movs	r1, #63	@ 0x3f
2ffef8cc:	f005 fc12 	bl	2fff50f4 <snprintf>
2ffef8d0:	283e      	cmp	r0, #62	@ 0x3e
2ffef8d2:	d903      	bls.n	2ffef8dc <regulator_get_by_supply_name+0x20>
2ffef8d4:	4812      	ldr	r0, [pc, #72]	@ (2ffef920 <regulator_get_by_supply_name+0x64>)
2ffef8d6:	215b      	movs	r1, #91	@ 0x5b
2ffef8d8:	f003 fc5e 	bl	2fff3198 <__assert>
2ffef8dc:	2300      	movs	r3, #0
2ffef8de:	466a      	mov	r2, sp
2ffef8e0:	4629      	mov	r1, r5
2ffef8e2:	4620      	mov	r0, r4
2ffef8e4:	f005 f99d 	bl	2fff4c22 <fdt_getprop>
2ffef8e8:	b120      	cbz	r0, 2ffef8f4 <regulator_get_by_supply_name+0x38>
2ffef8ea:	6800      	ldr	r0, [r0, #0]
2ffef8ec:	f004 fc40 	bl	2fff4170 <fdt32_to_cpu>
2ffef8f0:	1e02      	subs	r2, r0, #0
2ffef8f2:	da10      	bge.n	2ffef916 <regulator_get_by_supply_name+0x5a>
2ffef8f4:	2000      	movs	r0, #0
2ffef8f6:	b011      	add	sp, #68	@ 0x44
2ffef8f8:	bd30      	pop	{r4, r5, pc}
2ffef8fa:	6841      	ldr	r1, [r0, #4]
2ffef8fc:	428a      	cmp	r2, r1
2ffef8fe:	d0fa      	beq.n	2ffef8f6 <regulator_get_by_supply_name+0x3a>
2ffef900:	3014      	adds	r0, #20
2ffef902:	3b01      	subs	r3, #1
2ffef904:	d002      	beq.n	2ffef90c <regulator_get_by_supply_name+0x50>
2ffef906:	6801      	ldr	r1, [r0, #0]
2ffef908:	2900      	cmp	r1, #0
2ffef90a:	d1f6      	bne.n	2ffef8fa <regulator_get_by_supply_name+0x3e>
2ffef90c:	4905      	ldr	r1, [pc, #20]	@ (2ffef924 <regulator_get_by_supply_name+0x68>)
2ffef90e:	4806      	ldr	r0, [pc, #24]	@ (2ffef928 <regulator_get_by_supply_name+0x6c>)
2ffef910:	f7fa fc8c 	bl	2ffea22c <tf_log>
2ffef914:	e7ee      	b.n	2ffef8f4 <regulator_get_by_supply_name+0x38>
2ffef916:	4805      	ldr	r0, [pc, #20]	@ (2ffef92c <regulator_get_by_supply_name+0x70>)
2ffef918:	2314      	movs	r3, #20
2ffef91a:	e7f2      	b.n	2ffef902 <regulator_get_by_supply_name+0x46>
2ffef91c:	2fff7b0f 	.word	0x2fff7b0f
2ffef920:	2fff7ad6 	.word	0x2fff7ad6
2ffef924:	2fff9050 	.word	0x2fff9050
2ffef928:	2fff7b19 	.word	0x2fff7b19
2ffef92c:	2fffb7b4 	.word	0x2fffb7b4

2ffef930 <regulator_enable>:
2ffef930:	b538      	push	{r3, r4, r5, lr}
2ffef932:	4604      	mov	r4, r0
2ffef934:	b918      	cbnz	r0, 2ffef93e <regulator_enable+0xe>
2ffef936:	4809      	ldr	r0, [pc, #36]	@ (2ffef95c <regulator_enable+0x2c>)
2ffef938:	218c      	movs	r1, #140	@ 0x8c
2ffef93a:	f003 fc2d 	bl	2fff3198 <__assert>
2ffef93e:	6800      	ldr	r0, [r0, #0]
2ffef940:	6843      	ldr	r3, [r0, #4]
2ffef942:	681b      	ldr	r3, [r3, #0]
2ffef944:	b13b      	cbz	r3, 2ffef956 <regulator_enable+0x26>
2ffef946:	2101      	movs	r1, #1
2ffef948:	4798      	blx	r3
2ffef94a:	4605      	mov	r5, r0
2ffef94c:	6920      	ldr	r0, [r4, #16]
2ffef94e:	f7fa ff17 	bl	2ffea780 <udelay>
2ffef952:	4628      	mov	r0, r5
2ffef954:	bd38      	pop	{r3, r4, r5, pc}
2ffef956:	f06f 0512 	mvn.w	r5, #18
2ffef95a:	e7f7      	b.n	2ffef94c <regulator_enable+0x1c>
2ffef95c:	2fff7ad6 	.word	0x2fff7ad6

2ffef960 <regulator_get_voltage>:
2ffef960:	b538      	push	{r3, r4, r5, lr}
2ffef962:	4604      	mov	r4, r0
2ffef964:	b920      	cbnz	r0, 2ffef970 <regulator_get_voltage+0x10>
2ffef966:	480f      	ldr	r0, [pc, #60]	@ (2ffef9a4 <regulator_get_voltage+0x44>)
2ffef968:	f44f 7184 	mov.w	r1, #264	@ 0x108
2ffef96c:	f003 fc14 	bl	2fff3198 <__assert>
2ffef970:	6800      	ldr	r0, [r0, #0]
2ffef972:	6843      	ldr	r3, [r0, #4]
2ffef974:	68db      	ldr	r3, [r3, #12]
2ffef976:	b913      	cbnz	r3, 2ffef97e <regulator_get_voltage+0x1e>
2ffef978:	8925      	ldrh	r5, [r4, #8]
2ffef97a:	4628      	mov	r0, r5
2ffef97c:	bd38      	pop	{r3, r4, r5, pc}
2ffef97e:	f004 fbfe 	bl	2fff417e <lock_driver.isra.0>
2ffef982:	6820      	ldr	r0, [r4, #0]
2ffef984:	6843      	ldr	r3, [r0, #4]
2ffef986:	68db      	ldr	r3, [r3, #12]
2ffef988:	4798      	blx	r3
2ffef98a:	1e05      	subs	r5, r0, #0
2ffef98c:	da05      	bge.n	2ffef99a <regulator_get_voltage+0x3a>
2ffef98e:	6823      	ldr	r3, [r4, #0]
2ffef990:	462a      	mov	r2, r5
2ffef992:	4805      	ldr	r0, [pc, #20]	@ (2ffef9a8 <regulator_get_voltage+0x48>)
2ffef994:	6819      	ldr	r1, [r3, #0]
2ffef996:	f7fa fc49 	bl	2ffea22c <tf_log>
2ffef99a:	6820      	ldr	r0, [r4, #0]
2ffef99c:	f004 fbea 	bl	2fff4174 <unlock_driver.isra.0>
2ffef9a0:	e7eb      	b.n	2ffef97a <regulator_get_voltage+0x1a>
2ffef9a2:	bf00      	nop
2ffef9a4:	2fff7ad6 	.word	0x2fff7ad6
2ffef9a8:	2fff7b34 	.word	0x2fff7b34

2ffef9ac <regulator_set_voltage>:
2ffef9ac:	b538      	push	{r3, r4, r5, lr}
2ffef9ae:	460c      	mov	r4, r1
2ffef9b0:	4605      	mov	r5, r0
2ffef9b2:	b918      	cbnz	r0, 2ffef9bc <regulator_set_voltage+0x10>
2ffef9b4:	4816      	ldr	r0, [pc, #88]	@ (2ffefa10 <regulator_set_voltage+0x64>)
2ffef9b6:	21d6      	movs	r1, #214	@ 0xd6
2ffef9b8:	f003 fbee 	bl	2fff3198 <__assert>
2ffef9bc:	8903      	ldrh	r3, [r0, #8]
2ffef9be:	428b      	cmp	r3, r1
2ffef9c0:	d81e      	bhi.n	2ffefa00 <regulator_set_voltage+0x54>
2ffef9c2:	8943      	ldrh	r3, [r0, #10]
2ffef9c4:	428b      	cmp	r3, r1
2ffef9c6:	d31b      	bcc.n	2ffefa00 <regulator_set_voltage+0x54>
2ffef9c8:	f7ff ffca 	bl	2ffef960 <regulator_get_voltage>
2ffef9cc:	42a0      	cmp	r0, r4
2ffef9ce:	d01a      	beq.n	2ffefa06 <regulator_set_voltage+0x5a>
2ffef9d0:	6828      	ldr	r0, [r5, #0]
2ffef9d2:	6843      	ldr	r3, [r0, #4]
2ffef9d4:	689b      	ldr	r3, [r3, #8]
2ffef9d6:	b1c3      	cbz	r3, 2ffefa0a <regulator_set_voltage+0x5e>
2ffef9d8:	f004 fbd1 	bl	2fff417e <lock_driver.isra.0>
2ffef9dc:	6828      	ldr	r0, [r5, #0]
2ffef9de:	4621      	mov	r1, r4
2ffef9e0:	6843      	ldr	r3, [r0, #4]
2ffef9e2:	689b      	ldr	r3, [r3, #8]
2ffef9e4:	4798      	blx	r3
2ffef9e6:	1e04      	subs	r4, r0, #0
2ffef9e8:	da05      	bge.n	2ffef9f6 <regulator_set_voltage+0x4a>
2ffef9ea:	682b      	ldr	r3, [r5, #0]
2ffef9ec:	4622      	mov	r2, r4
2ffef9ee:	4809      	ldr	r0, [pc, #36]	@ (2ffefa14 <regulator_set_voltage+0x68>)
2ffef9f0:	6819      	ldr	r1, [r3, #0]
2ffef9f2:	f7fa fc1b 	bl	2ffea22c <tf_log>
2ffef9f6:	6828      	ldr	r0, [r5, #0]
2ffef9f8:	f004 fbbc 	bl	2fff4174 <unlock_driver.isra.0>
2ffef9fc:	4620      	mov	r0, r4
2ffef9fe:	bd38      	pop	{r3, r4, r5, pc}
2ffefa00:	f04f 34ff 	mov.w	r4, #4294967295	@ 0xffffffff
2ffefa04:	e7fa      	b.n	2ffef9fc <regulator_set_voltage+0x50>
2ffefa06:	2400      	movs	r4, #0
2ffefa08:	e7f8      	b.n	2ffef9fc <regulator_set_voltage+0x50>
2ffefa0a:	f06f 0412 	mvn.w	r4, #18
2ffefa0e:	e7f5      	b.n	2ffef9fc <regulator_set_voltage+0x50>
2ffefa10:	2fff7ad6 	.word	0x2fff7ad6
2ffefa14:	2fff7b5a 	.word	0x2fff7b5a

2ffefa18 <regulator_list_voltages>:
2ffefa18:	b5f8      	push	{r3, r4, r5, r6, r7, lr}
2ffefa1a:	460e      	mov	r6, r1
2ffefa1c:	4617      	mov	r7, r2
2ffefa1e:	4604      	mov	r4, r0
2ffefa20:	b920      	cbnz	r0, 2ffefa2c <regulator_list_voltages+0x14>
2ffefa22:	f44f 7195 	mov.w	r1, #298	@ 0x12a
2ffefa26:	482f      	ldr	r0, [pc, #188]	@ (2ffefae4 <regulator_list_voltages+0xcc>)
2ffefa28:	f003 fbb6 	bl	2fff3198 <__assert>
2ffefa2c:	b911      	cbnz	r1, 2ffefa34 <regulator_list_voltages+0x1c>
2ffefa2e:	f240 112b 	movw	r1, #299	@ 0x12b
2ffefa32:	e7f8      	b.n	2ffefa26 <regulator_list_voltages+0xe>
2ffefa34:	b912      	cbnz	r2, 2ffefa3c <regulator_list_voltages+0x24>
2ffefa36:	f44f 7196 	mov.w	r1, #300	@ 0x12c
2ffefa3a:	e7f4      	b.n	2ffefa26 <regulator_list_voltages+0xe>
2ffefa3c:	6800      	ldr	r0, [r0, #0]
2ffefa3e:	6843      	ldr	r3, [r0, #4]
2ffefa40:	691b      	ldr	r3, [r3, #16]
2ffefa42:	2b00      	cmp	r3, #0
2ffefa44:	d03f      	beq.n	2ffefac6 <regulator_list_voltages+0xae>
2ffefa46:	f004 fb9a 	bl	2fff417e <lock_driver.isra.0>
2ffefa4a:	6820      	ldr	r0, [r4, #0]
2ffefa4c:	463a      	mov	r2, r7
2ffefa4e:	4631      	mov	r1, r6
2ffefa50:	6843      	ldr	r3, [r0, #4]
2ffefa52:	691b      	ldr	r3, [r3, #16]
2ffefa54:	4798      	blx	r3
2ffefa56:	4605      	mov	r5, r0
2ffefa58:	6820      	ldr	r0, [r4, #0]
2ffefa5a:	f004 fb8b 	bl	2fff4174 <unlock_driver.isra.0>
2ffefa5e:	2d00      	cmp	r5, #0
2ffefa60:	da07      	bge.n	2ffefa72 <regulator_list_voltages+0x5a>
2ffefa62:	6823      	ldr	r3, [r4, #0]
2ffefa64:	462a      	mov	r2, r5
2ffefa66:	4820      	ldr	r0, [pc, #128]	@ (2ffefae8 <regulator_list_voltages+0xd0>)
2ffefa68:	6819      	ldr	r1, [r3, #0]
2ffefa6a:	f7fa fbdf 	bl	2ffea22c <tf_log>
2ffefa6e:	4628      	mov	r0, r5
2ffefa70:	bdf8      	pop	{r3, r4, r5, r6, r7, pc}
2ffefa72:	683b      	ldr	r3, [r7, #0]
2ffefa74:	6830      	ldr	r0, [r6, #0]
2ffefa76:	8962      	ldrh	r2, [r4, #10]
2ffefa78:	eb00 0143 	add.w	r1, r0, r3, lsl #1
2ffefa7c:	2b01      	cmp	r3, #1
2ffefa7e:	f831 1c02 	ldrh.w	r1, [r1, #-2]
2ffefa82:	d923      	bls.n	2ffefacc <regulator_list_voltages+0xb4>
2ffefa84:	4291      	cmp	r1, r2
2ffefa86:	d806      	bhi.n	2ffefa96 <regulator_list_voltages+0x7e>
2ffefa88:	d00a      	beq.n	2ffefaa0 <regulator_list_voltages+0x88>
2ffefa8a:	6823      	ldr	r3, [r4, #0]
2ffefa8c:	4817      	ldr	r0, [pc, #92]	@ (2ffefaec <regulator_list_voltages+0xd4>)
2ffefa8e:	6819      	ldr	r1, [r3, #0]
2ffefa90:	f7fa fbcc 	bl	2ffea22c <tf_log>
2ffefa94:	e023      	b.n	2ffefade <regulator_list_voltages+0xc6>
2ffefa96:	3b01      	subs	r3, #1
2ffefa98:	e7ee      	b.n	2ffefa78 <regulator_list_voltages+0x60>
2ffefa9a:	3b01      	subs	r3, #1
2ffefa9c:	3202      	adds	r2, #2
2ffefa9e:	6032      	str	r2, [r6, #0]
2ffefaa0:	2b01      	cmp	r3, #1
2ffefaa2:	d004      	beq.n	2ffefaae <regulator_list_voltages+0x96>
2ffefaa4:	6832      	ldr	r2, [r6, #0]
2ffefaa6:	8921      	ldrh	r1, [r4, #8]
2ffefaa8:	8810      	ldrh	r0, [r2, #0]
2ffefaaa:	4288      	cmp	r0, r1
2ffefaac:	d3f5      	bcc.n	2ffefa9a <regulator_list_voltages+0x82>
2ffefaae:	6831      	ldr	r1, [r6, #0]
2ffefab0:	8922      	ldrh	r2, [r4, #8]
2ffefab2:	8809      	ldrh	r1, [r1, #0]
2ffefab4:	4291      	cmp	r1, r2
2ffefab6:	d003      	beq.n	2ffefac0 <regulator_list_voltages+0xa8>
2ffefab8:	6823      	ldr	r3, [r4, #0]
2ffefaba:	480d      	ldr	r0, [pc, #52]	@ (2ffefaf0 <regulator_list_voltages+0xd8>)
2ffefabc:	6819      	ldr	r1, [r3, #0]
2ffefabe:	e7e7      	b.n	2ffefa90 <regulator_list_voltages+0x78>
2ffefac0:	603b      	str	r3, [r7, #0]
2ffefac2:	2500      	movs	r5, #0
2ffefac4:	e7d3      	b.n	2ffefa6e <regulator_list_voltages+0x56>
2ffefac6:	f06f 0512 	mvn.w	r5, #18
2ffefaca:	e7d0      	b.n	2ffefa6e <regulator_list_voltages+0x56>
2ffefacc:	4291      	cmp	r1, r2
2ffeface:	d1dc      	bne.n	2ffefa8a <regulator_list_voltages+0x72>
2ffefad0:	2b00      	cmp	r3, #0
2ffefad2:	d1ec      	bne.n	2ffefaae <regulator_list_voltages+0x96>
2ffefad4:	6823      	ldr	r3, [r4, #0]
2ffefad6:	4807      	ldr	r0, [pc, #28]	@ (2ffefaf4 <regulator_list_voltages+0xdc>)
2ffefad8:	6819      	ldr	r1, [r3, #0]
2ffefada:	f7fa fba7 	bl	2ffea22c <tf_log>
2ffefade:	f06f 0515 	mvn.w	r5, #21
2ffefae2:	e7c4      	b.n	2ffefa6e <regulator_list_voltages+0x56>
2ffefae4:	2fff7ad6 	.word	0x2fff7ad6
2ffefae8:	2fff7b7d 	.word	0x2fff7b7d
2ffefaec:	2fff7ba6 	.word	0x2fff7ba6
2ffefaf0:	2fff7bf1 	.word	0x2fff7bf1
2ffefaf4:	2fff7bca 	.word	0x2fff7bca

2ffefaf8 <regulator_get_range>:
2ffefaf8:	b508      	push	{r3, lr}
2ffefafa:	b920      	cbnz	r0, 2ffefb06 <regulator_get_range+0xe>
2ffefafc:	4805      	ldr	r0, [pc, #20]	@ (2ffefb14 <regulator_get_range+0x1c>)
2ffefafe:	f240 1173 	movw	r1, #371	@ 0x173
2ffefb02:	f003 fb49 	bl	2fff3198 <__assert>
2ffefb06:	b109      	cbz	r1, 2ffefb0c <regulator_get_range+0x14>
2ffefb08:	8903      	ldrh	r3, [r0, #8]
2ffefb0a:	800b      	strh	r3, [r1, #0]
2ffefb0c:	b10a      	cbz	r2, 2ffefb12 <regulator_get_range+0x1a>
2ffefb0e:	8943      	ldrh	r3, [r0, #10]
2ffefb10:	8013      	strh	r3, [r2, #0]
2ffefb12:	bd08      	pop	{r3, pc}
2ffefb14:	2fff7ad6 	.word	0x2fff7ad6

2ffefb18 <regulator_register>:
2ffefb18:	b57f      	push	{r0, r1, r2, r3, r4, r5, r6, lr}
2ffefb1a:	460e      	mov	r6, r1
2ffefb1c:	b9a8      	cbnz	r0, 2ffefb4a <regulator_register+0x32>
2ffefb1e:	4853      	ldr	r0, [pc, #332]	@ (2ffefc6c <regulator_register+0x154>)
2ffefb20:	f44f 7105 	mov.w	r1, #532	@ 0x214
2ffefb24:	f003 fb38 	bl	2fff3198 <__assert>
2ffefb28:	3414      	adds	r4, #20
2ffefb2a:	3b01      	subs	r3, #1
2ffefb2c:	d002      	beq.n	2ffefb34 <regulator_register+0x1c>
2ffefb2e:	6822      	ldr	r2, [r4, #0]
2ffefb30:	2a00      	cmp	r2, #0
2ffefb32:	d1f9      	bne.n	2ffefb28 <regulator_register+0x10>
2ffefb34:	4b4e      	ldr	r3, [pc, #312]	@ (2ffefc70 <regulator_register+0x158>)
2ffefb36:	429c      	cmp	r4, r3
2ffefb38:	d90a      	bls.n	2ffefb50 <regulator_register+0x38>
2ffefb3a:	484e      	ldr	r0, [pc, #312]	@ (2ffefc74 <regulator_register+0x15c>)
2ffefb3c:	f06f 050b 	mvn.w	r5, #11
2ffefb40:	f7fa fb74 	bl	2ffea22c <tf_log>
2ffefb44:	4628      	mov	r0, r5
2ffefb46:	b004      	add	sp, #16
2ffefb48:	bd70      	pop	{r4, r5, r6, pc}
2ffefb4a:	4c4b      	ldr	r4, [pc, #300]	@ (2ffefc78 <regulator_register+0x160>)
2ffefb4c:	2314      	movs	r3, #20
2ffefb4e:	e7ec      	b.n	2ffefb2a <regulator_register+0x12>
2ffefb50:	6903      	ldr	r3, [r0, #16]
2ffefb52:	6020      	str	r0, [r4, #0]
2ffefb54:	6123      	str	r3, [r4, #16]
2ffefb56:	6843      	ldr	r3, [r0, #4]
2ffefb58:	691b      	ldr	r3, [r3, #16]
2ffefb5a:	2b00      	cmp	r3, #0
2ffefb5c:	d071      	beq.n	2ffefc42 <regulator_register+0x12a>
2ffefb5e:	f004 fb0e 	bl	2fff417e <lock_driver.isra.0>
2ffefb62:	6820      	ldr	r0, [r4, #0]
2ffefb64:	aa03      	add	r2, sp, #12
2ffefb66:	a902      	add	r1, sp, #8
2ffefb68:	6843      	ldr	r3, [r0, #4]
2ffefb6a:	691b      	ldr	r3, [r3, #16]
2ffefb6c:	4798      	blx	r3
2ffefb6e:	4605      	mov	r5, r0
2ffefb70:	6820      	ldr	r0, [r4, #0]
2ffefb72:	f004 faff 	bl	2fff4174 <unlock_driver.isra.0>
2ffefb76:	2d00      	cmp	r5, #0
2ffefb78:	da06      	bge.n	2ffefb88 <regulator_register+0x70>
2ffefb7a:	6823      	ldr	r3, [r4, #0]
2ffefb7c:	462a      	mov	r2, r5
2ffefb7e:	483f      	ldr	r0, [pc, #252]	@ (2ffefc7c <regulator_register+0x164>)
2ffefb80:	6819      	ldr	r1, [r3, #0]
2ffefb82:	f7fa fb53 	bl	2ffea22c <tf_log>
2ffefb86:	e7dd      	b.n	2ffefb44 <regulator_register+0x2c>
2ffefb88:	9a02      	ldr	r2, [sp, #8]
2ffefb8a:	8813      	ldrh	r3, [r2, #0]
2ffefb8c:	8123      	strh	r3, [r4, #8]
2ffefb8e:	9b03      	ldr	r3, [sp, #12]
2ffefb90:	f103 4300 	add.w	r3, r3, #2147483648	@ 0x80000000
2ffefb94:	3b01      	subs	r3, #1
2ffefb96:	f832 3013 	ldrh.w	r3, [r2, r3, lsl #1]
2ffefb9a:	8163      	strh	r3, [r4, #10]
2ffefb9c:	a801      	add	r0, sp, #4
2ffefb9e:	f001 ff01 	bl	2fff19a4 <fdt_get_address>
2ffefba2:	2800      	cmp	r0, #0
2ffefba4:	d05e      	beq.n	2ffefc64 <regulator_register+0x14c>
2ffefba6:	9801      	ldr	r0, [sp, #4]
2ffefba8:	4631      	mov	r1, r6
2ffefbaa:	f003 faa9 	bl	2fff3100 <fdt_get_phandle>
2ffefbae:	6060      	str	r0, [r4, #4]
2ffefbb0:	2300      	movs	r3, #0
2ffefbb2:	4a33      	ldr	r2, [pc, #204]	@ (2ffefc80 <regulator_register+0x168>)
2ffefbb4:	4631      	mov	r1, r6
2ffefbb6:	9801      	ldr	r0, [sp, #4]
2ffefbb8:	f005 f833 	bl	2fff4c22 <fdt_getprop>
2ffefbbc:	b158      	cbz	r0, 2ffefbd6 <regulator_register+0xbe>
2ffefbbe:	6800      	ldr	r0, [r0, #0]
2ffefbc0:	f44f 737a 	mov.w	r3, #1000	@ 0x3e8
2ffefbc4:	f004 fad4 	bl	2fff4170 <fdt32_to_cpu>
2ffefbc8:	fbb0 f2f3 	udiv	r2, r0, r3
2ffefbcc:	8961      	ldrh	r1, [r4, #10]
2ffefbce:	b293      	uxth	r3, r2
2ffefbd0:	4299      	cmp	r1, r3
2ffefbd2:	d339      	bcc.n	2ffefc48 <regulator_register+0x130>
2ffefbd4:	8123      	strh	r3, [r4, #8]
2ffefbd6:	4a2b      	ldr	r2, [pc, #172]	@ (2ffefc84 <regulator_register+0x16c>)
2ffefbd8:	2300      	movs	r3, #0
2ffefbda:	9801      	ldr	r0, [sp, #4]
2ffefbdc:	4631      	mov	r1, r6
2ffefbde:	f005 f820 	bl	2fff4c22 <fdt_getprop>
2ffefbe2:	b158      	cbz	r0, 2ffefbfc <regulator_register+0xe4>
2ffefbe4:	6800      	ldr	r0, [r0, #0]
2ffefbe6:	f44f 737a 	mov.w	r3, #1000	@ 0x3e8
2ffefbea:	f004 fac1 	bl	2fff4170 <fdt32_to_cpu>
2ffefbee:	fbb0 f2f3 	udiv	r2, r0, r3
2ffefbf2:	8921      	ldrh	r1, [r4, #8]
2ffefbf4:	b293      	uxth	r3, r2
2ffefbf6:	4299      	cmp	r1, r3
2ffefbf8:	d82f      	bhi.n	2ffefc5a <regulator_register+0x142>
2ffefbfa:	8163      	strh	r3, [r4, #10]
2ffefbfc:	aa03      	add	r2, sp, #12
2ffefbfe:	a902      	add	r1, sp, #8
2ffefc00:	4620      	mov	r0, r4
2ffefc02:	f7ff ff09 	bl	2ffefa18 <regulator_list_voltages>
2ffefc06:	4605      	mov	r5, r0
2ffefc08:	b110      	cbz	r0, 2ffefc10 <regulator_register+0xf8>
2ffefc0a:	f110 0f13 	cmn.w	r0, #19
2ffefc0e:	d199      	bne.n	2ffefb44 <regulator_register+0x2c>
2ffefc10:	9d01      	ldr	r5, [sp, #4]
2ffefc12:	2300      	movs	r3, #0
2ffefc14:	4a1c      	ldr	r2, [pc, #112]	@ (2ffefc88 <regulator_register+0x170>)
2ffefc16:	4631      	mov	r1, r6
2ffefc18:	4628      	mov	r0, r5
2ffefc1a:	f005 f802 	bl	2fff4c22 <fdt_getprop>
2ffefc1e:	b118      	cbz	r0, 2ffefc28 <regulator_register+0x110>
2ffefc20:	89a3      	ldrh	r3, [r4, #12]
2ffefc22:	f043 0301 	orr.w	r3, r3, #1
2ffefc26:	81a3      	strh	r3, [r4, #12]
2ffefc28:	4a18      	ldr	r2, [pc, #96]	@ (2ffefc8c <regulator_register+0x174>)
2ffefc2a:	2300      	movs	r3, #0
2ffefc2c:	4631      	mov	r1, r6
2ffefc2e:	4628      	mov	r0, r5
2ffefc30:	f004 fff7 	bl	2fff4c22 <fdt_getprop>
2ffefc34:	b118      	cbz	r0, 2ffefc3e <regulator_register+0x126>
2ffefc36:	6800      	ldr	r0, [r0, #0]
2ffefc38:	f004 fa9a 	bl	2fff4170 <fdt32_to_cpu>
2ffefc3c:	6120      	str	r0, [r4, #16]
2ffefc3e:	2500      	movs	r5, #0
2ffefc40:	e780      	b.n	2ffefb44 <regulator_register+0x2c>
2ffefc42:	f64f 73ff 	movw	r3, #65535	@ 0xffff
2ffefc46:	e7a8      	b.n	2ffefb9a <regulator_register+0x82>
2ffefc48:	6823      	ldr	r3, [r4, #0]
2ffefc4a:	b292      	uxth	r2, r2
2ffefc4c:	4810      	ldr	r0, [pc, #64]	@ (2ffefc90 <regulator_register+0x178>)
2ffefc4e:	6819      	ldr	r1, [r3, #0]
2ffefc50:	f06f 0515 	mvn.w	r5, #21
2ffefc54:	f7fa faea 	bl	2ffea22c <tf_log>
2ffefc58:	e774      	b.n	2ffefb44 <regulator_register+0x2c>
2ffefc5a:	6823      	ldr	r3, [r4, #0]
2ffefc5c:	b292      	uxth	r2, r2
2ffefc5e:	480d      	ldr	r0, [pc, #52]	@ (2ffefc94 <regulator_register+0x17c>)
2ffefc60:	6819      	ldr	r1, [r3, #0]
2ffefc62:	e7f5      	b.n	2ffefc50 <regulator_register+0x138>
2ffefc64:	f06f 0501 	mvn.w	r5, #1
2ffefc68:	e76c      	b.n	2ffefb44 <regulator_register+0x2c>
2ffefc6a:	bf00      	nop
2ffefc6c:	2fff7ad6 	.word	0x2fff7ad6
2ffefc70:	2fffb91c 	.word	0x2fffb91c
2ffefc74:	2fff7c15 	.word	0x2fff7c15
2ffefc78:	2fffb7b4 	.word	0x2fffb7b4
2ffefc7c:	2fff7c5b 	.word	0x2fff7c5b
2ffefc80:	2fff7c7f 	.word	0x2fff7c7f
2ffefc84:	2fff7cb3 	.word	0x2fff7cb3
2ffefc88:	2fff7ce6 	.word	0x2fff7ce6
2ffefc8c:	2fff7cfa 	.word	0x2fff7cfa
2ffefc90:	2fff7c97 	.word	0x2fff7c97
2ffefc94:	2fff7ccb 	.word	0x2fff7ccb

2ffefc98 <fixed_regulator_register>:
2ffefc98:	e92d 4ff7 	stmdb	sp!, {r0, r1, r2, r4, r5, r6, r7, r8, r9, sl, fp, lr}
2ffefc9c:	a801      	add	r0, sp, #4
2ffefc9e:	f001 fe81 	bl	2fff19a4 <fdt_get_address>
2ffefca2:	2800      	cmp	r0, #0
2ffefca4:	d04a      	beq.n	2ffefd3c <fixed_regulator_register+0xa4>
2ffefca6:	4a27      	ldr	r2, [pc, #156]	@ (2ffefd44 <fixed_regulator_register+0xac>)
2ffefca8:	f04f 31ff 	mov.w	r1, #4294967295	@ 0xffffffff
2ffefcac:	9801      	ldr	r0, [sp, #4]
2ffefcae:	f04f 0800 	mov.w	r8, #0
2ffefcb2:	4d25      	ldr	r5, [pc, #148]	@ (2ffefd48 <fixed_regulator_register+0xb0>)
2ffefcb4:	f005 f8ea 	bl	2fff4e8c <fdt_node_offset_by_compatible>
2ffefcb8:	f8df 9090 	ldr.w	r9, [pc, #144]	@ 2ffefd4c <fixed_regulator_register+0xb4>
2ffefcbc:	4604      	mov	r4, r0
2ffefcbe:	f8df a090 	ldr.w	sl, [pc, #144]	@ 2ffefd50 <fixed_regulator_register+0xb8>
2ffefcc2:	f8df b080 	ldr.w	fp, [pc, #128]	@ 2ffefd44 <fixed_regulator_register+0xac>
2ffefcc6:	2c00      	cmp	r4, #0
2ffefcc8:	da01      	bge.n	2ffefcce <fixed_regulator_register+0x36>
2ffefcca:	2600      	movs	r6, #0
2ffefccc:	e023      	b.n	2ffefd16 <fixed_regulator_register+0x7e>
2ffefcce:	9801      	ldr	r0, [sp, #4]
2ffefcd0:	2200      	movs	r2, #0
2ffefcd2:	4621      	mov	r1, r4
2ffefcd4:	f004 feb2 	bl	2fff4a3c <fdt_get_name>
2ffefcd8:	4603      	mov	r3, r0
2ffefcda:	4607      	mov	r7, r0
2ffefcdc:	464a      	mov	r2, r9
2ffefcde:	211f      	movs	r1, #31
2ffefce0:	4628      	mov	r0, r5
2ffefce2:	f005 fa07 	bl	2fff50f4 <snprintf>
2ffefce6:	3801      	subs	r0, #1
2ffefce8:	281d      	cmp	r0, #29
2ffefcea:	d903      	bls.n	2ffefcf4 <fixed_regulator_register+0x5c>
2ffefcec:	2143      	movs	r1, #67	@ 0x43
2ffefcee:	4819      	ldr	r0, [pc, #100]	@ (2ffefd54 <fixed_regulator_register+0xbc>)
2ffefcf0:	f003 fa52 	bl	2fff3198 <__assert>
2ffefcf4:	622d      	str	r5, [r5, #32]
2ffefcf6:	4621      	mov	r1, r4
2ffefcf8:	62ad      	str	r5, [r5, #40]	@ 0x28
2ffefcfa:	f105 0020 	add.w	r0, r5, #32
2ffefcfe:	f8c5 a024 	str.w	sl, [r5, #36]	@ 0x24
2ffefd02:	f7ff ff09 	bl	2ffefb18 <regulator_register>
2ffefd06:	4606      	mov	r6, r0
2ffefd08:	b148      	cbz	r0, 2ffefd1e <fixed_regulator_register+0x86>
2ffefd0a:	4913      	ldr	r1, [pc, #76]	@ (2ffefd58 <fixed_regulator_register+0xc0>)
2ffefd0c:	463b      	mov	r3, r7
2ffefd0e:	4813      	ldr	r0, [pc, #76]	@ (2ffefd5c <fixed_regulator_register+0xc4>)
2ffefd10:	224c      	movs	r2, #76	@ 0x4c
2ffefd12:	f7fa fa8b 	bl	2ffea22c <tf_log>
2ffefd16:	4630      	mov	r0, r6
2ffefd18:	b003      	add	sp, #12
2ffefd1a:	e8bd 8ff0 	ldmia.w	sp!, {r4, r5, r6, r7, r8, r9, sl, fp, pc}
2ffefd1e:	f108 0801 	add.w	r8, r8, #1
2ffefd22:	f1b8 0f03 	cmp.w	r8, #3
2ffefd26:	d101      	bne.n	2ffefd2c <fixed_regulator_register+0x94>
2ffefd28:	2151      	movs	r1, #81	@ 0x51
2ffefd2a:	e7e0      	b.n	2ffefcee <fixed_regulator_register+0x56>
2ffefd2c:	9801      	ldr	r0, [sp, #4]
2ffefd2e:	4621      	mov	r1, r4
2ffefd30:	465a      	mov	r2, fp
2ffefd32:	3534      	adds	r5, #52	@ 0x34
2ffefd34:	f005 f8aa 	bl	2fff4e8c <fdt_node_offset_by_compatible>
2ffefd38:	4604      	mov	r4, r0
2ffefd3a:	e7c4      	b.n	2ffefcc6 <fixed_regulator_register+0x2e>
2ffefd3c:	f04f 36ff 	mov.w	r6, #4294967295	@ 0xffffffff
2ffefd40:	e7e9      	b.n	2ffefd16 <fixed_regulator_register+0x7e>
2ffefd42:	bf00      	nop
2ffefd44:	2fff7d16 	.word	0x2fff7d16
2ffefd48:	2fffb930 	.word	0x2fffb930
2ffefd4c:	2fff88d8 	.word	0x2fff88d8
2ffefd50:	2fffa0d8 	.word	0x2fffa0d8
2ffefd54:	2fff7d26 	.word	0x2fff7d26
2ffefd58:	2fff9069 	.word	0x2fff9069
2ffefd5c:	2fff79ee 	.word	0x2fff79ee

2ffefd60 <stm32mp_reset_assert>:
2ffefd60:	e92d 43f8 	stmdb	sp!, {r3, r4, r5, r6, r7, r8, r9, lr}
2ffefd64:	4605      	mov	r5, r0
2ffefd66:	f000 031f 	and.w	r3, r0, #31
2ffefd6a:	2601      	movs	r6, #1
2ffefd6c:	096d      	lsrs	r5, r5, #5
2ffefd6e:	460c      	mov	r4, r1
2ffefd70:	409e      	lsls	r6, r3
2ffefd72:	f004 fc00 	bl	2fff4576 <stm32mp_rcc_base>
2ffefd76:	eb00 0785 	add.w	r7, r0, r5, lsl #2
2ffefd7a:	f840 6025 	str.w	r6, [r0, r5, lsl #2]
2ffefd7e:	b184      	cbz	r4, 2ffefda2 <stm32mp_reset_assert+0x42>
2ffefd80:	ee1e 0f10 	mrc	15, 0, r0, cr14, cr0, {0}
2ffefd84:	ec59 8f0e 	mrrc	15, 0, r8, r9, cr14
2ffefd88:	4a0c      	ldr	r2, [pc, #48]	@ (2ffefdbc <stm32mp_reset_assert+0x5c>)
2ffefd8a:	2300      	movs	r3, #0
2ffefd8c:	fba4 0100 	umull	r0, r1, r4, r0
2ffefd90:	4645      	mov	r5, r8
2ffefd92:	f003 e892 	blx	2fff2eb8 <__aeabi_uldivmod>
2ffefd96:	1940      	adds	r0, r0, r5
2ffefd98:	eb41 0109 	adc.w	r1, r1, r9
2ffefd9c:	683b      	ldr	r3, [r7, #0]
2ffefd9e:	421e      	tst	r6, r3
2ffefda0:	d002      	beq.n	2ffefda8 <stm32mp_reset_assert+0x48>
2ffefda2:	2000      	movs	r0, #0
2ffefda4:	e8bd 83f8 	ldmia.w	sp!, {r3, r4, r5, r6, r7, r8, r9, pc}
2ffefda8:	ec53 2f0e 	mrrc	15, 0, r2, r3, cr14
2ffefdac:	4290      	cmp	r0, r2
2ffefdae:	eb71 0303 	sbcs.w	r3, r1, r3
2ffefdb2:	d2f3      	bcs.n	2ffefd9c <stm32mp_reset_assert+0x3c>
2ffefdb4:	f06f 003b 	mvn.w	r0, #59	@ 0x3b
2ffefdb8:	e7f4      	b.n	2ffefda4 <stm32mp_reset_assert+0x44>
2ffefdba:	bf00      	nop
2ffefdbc:	000f4240 	.word	0x000f4240

2ffefdc0 <stm32mp_reset_deassert>:
2ffefdc0:	e92d 43f8 	stmdb	sp!, {r3, r4, r5, r6, r7, r8, r9, lr}
2ffefdc4:	4605      	mov	r5, r0
2ffefdc6:	f000 031f 	and.w	r3, r0, #31
2ffefdca:	2601      	movs	r6, #1
2ffefdcc:	096d      	lsrs	r5, r5, #5
2ffefdce:	460c      	mov	r4, r1
2ffefdd0:	409e      	lsls	r6, r3
2ffefdd2:	3501      	adds	r5, #1
2ffefdd4:	f004 fbcf 	bl	2fff4576 <stm32mp_rcc_base>
2ffefdd8:	eb00 0785 	add.w	r7, r0, r5, lsl #2
2ffefddc:	f840 6025 	str.w	r6, [r0, r5, lsl #2]
2ffefde0:	b184      	cbz	r4, 2ffefe04 <stm32mp_reset_deassert+0x44>
2ffefde2:	ee1e 0f10 	mrc	15, 0, r0, cr14, cr0, {0}
2ffefde6:	ec59 8f0e 	mrrc	15, 0, r8, r9, cr14
2ffefdea:	4a0c      	ldr	r2, [pc, #48]	@ (2ffefe1c <stm32mp_reset_deassert+0x5c>)
2ffefdec:	2300      	movs	r3, #0
2ffefdee:	fba4 0100 	umull	r0, r1, r4, r0
2ffefdf2:	4645      	mov	r5, r8
2ffefdf4:	f003 e860 	blx	2fff2eb8 <__aeabi_uldivmod>
2ffefdf8:	1940      	adds	r0, r0, r5
2ffefdfa:	eb41 0109 	adc.w	r1, r1, r9
2ffefdfe:	683c      	ldr	r4, [r7, #0]
2ffefe00:	4034      	ands	r4, r6
2ffefe02:	d102      	bne.n	2ffefe0a <stm32mp_reset_deassert+0x4a>
2ffefe04:	4620      	mov	r0, r4
2ffefe06:	e8bd 83f8 	ldmia.w	sp!, {r3, r4, r5, r6, r7, r8, r9, pc}
2ffefe0a:	ec53 2f0e 	mrrc	15, 0, r2, r3, cr14
2ffefe0e:	4290      	cmp	r0, r2
2ffefe10:	eb71 0303 	sbcs.w	r3, r1, r3
2ffefe14:	d2f3      	bcs.n	2ffefdfe <stm32mp_reset_deassert+0x3e>
2ffefe16:	f06f 003b 	mvn.w	r0, #59	@ 0x3b
2ffefe1a:	e7f4      	b.n	2ffefe06 <stm32mp_reset_deassert+0x46>
2ffefe1c:	000f4240 	.word	0x000f4240

2ffefe20 <stm32_qspi_claim_bus>:
2ffefe20:	2801      	cmp	r0, #1
2ffefe22:	d80b      	bhi.n	2ffefe3c <stm32_qspi_claim_bus+0x1c>
2ffefe24:	4b07      	ldr	r3, [pc, #28]	@ (2ffefe44 <stm32_qspi_claim_bus+0x24>)
2ffefe26:	bf14      	ite	ne
2ffefe28:	2101      	movne	r1, #1
2ffefe2a:	2181      	moveq	r1, #129	@ 0x81
2ffefe2c:	2000      	movs	r0, #0
2ffefe2e:	681a      	ldr	r2, [r3, #0]
2ffefe30:	6813      	ldr	r3, [r2, #0]
2ffefe32:	f023 0380 	bic.w	r3, r3, #128	@ 0x80
2ffefe36:	430b      	orrs	r3, r1
2ffefe38:	6013      	str	r3, [r2, #0]
2ffefe3a:	4770      	bx	lr
2ffefe3c:	f06f 0012 	mvn.w	r0, #18
2ffefe40:	4770      	bx	lr
2ffefe42:	bf00      	nop
2ffefe44:	2fffb998 	.word	0x2fffb998

2ffefe48 <stm32_qspi_release_bus>:
2ffefe48:	4b03      	ldr	r3, [pc, #12]	@ (2ffefe58 <stm32_qspi_release_bus+0x10>)
2ffefe4a:	681a      	ldr	r2, [r3, #0]
2ffefe4c:	6813      	ldr	r3, [r2, #0]
2ffefe4e:	f023 0301 	bic.w	r3, r3, #1
2ffefe52:	6013      	str	r3, [r2, #0]
2ffefe54:	4770      	bx	lr
2ffefe56:	bf00      	nop
2ffefe58:	2fffb998 	.word	0x2fffb998

2ffefe5c <stm32_qspi_wait_for_not_busy>:
2ffefe5c:	b570      	push	{r4, r5, r6, lr}
2ffefe5e:	ee1e 1f10 	mrc	15, 0, r1, cr14, cr0, {0}
2ffefe62:	ec56 5f0e 	mrrc	15, 0, r5, r6, cr14
2ffefe66:	4a0f      	ldr	r2, [pc, #60]	@ (2ffefea4 <stm32_qspi_wait_for_not_busy+0x48>)
2ffefe68:	2064      	movs	r0, #100	@ 0x64
2ffefe6a:	2300      	movs	r3, #0
2ffefe6c:	fba1 0100 	umull	r0, r1, r1, r0
2ffefe70:	f003 e822 	blx	2fff2eb8 <__aeabi_uldivmod>
2ffefe74:	4a0c      	ldr	r2, [pc, #48]	@ (2ffefea8 <stm32_qspi_wait_for_not_busy+0x4c>)
2ffefe76:	1943      	adds	r3, r0, r5
2ffefe78:	6812      	ldr	r2, [r2, #0]
2ffefe7a:	eb41 0106 	adc.w	r1, r1, r6
2ffefe7e:	3208      	adds	r2, #8
2ffefe80:	6810      	ldr	r0, [r2, #0]
2ffefe82:	f010 0020 	ands.w	r0, r0, #32
2ffefe86:	d00b      	beq.n	2ffefea0 <stm32_qspi_wait_for_not_busy+0x44>
2ffefe88:	ec55 4f0e 	mrrc	15, 0, r4, r5, cr14
2ffefe8c:	42a3      	cmp	r3, r4
2ffefe8e:	eb71 0005 	sbcs.w	r0, r1, r5
2ffefe92:	d2f5      	bcs.n	2ffefe80 <stm32_qspi_wait_for_not_busy+0x24>
2ffefe94:	4805      	ldr	r0, [pc, #20]	@ (2ffefeac <stm32_qspi_wait_for_not_busy+0x50>)
2ffefe96:	4906      	ldr	r1, [pc, #24]	@ (2ffefeb0 <stm32_qspi_wait_for_not_busy+0x54>)
2ffefe98:	f7fa f9c8 	bl	2ffea22c <tf_log>
2ffefe9c:	f06f 003b 	mvn.w	r0, #59	@ 0x3b
2ffefea0:	bd70      	pop	{r4, r5, r6, pc}
2ffefea2:	bf00      	nop
2ffefea4:	000f4240 	.word	0x000f4240
2ffefea8:	2fffb998 	.word	0x2fffb998
2ffefeac:	2fff7d4d 	.word	0x2fff7d4d
2ffefeb0:	2fff9082 	.word	0x2fff9082

2ffefeb4 <stm32_qspi_set_mode>:
2ffefeb4:	b510      	push	{r4, lr}
2ffefeb6:	4604      	mov	r4, r0
2ffefeb8:	f7ff ffd0 	bl	2ffefe5c <stm32_qspi_wait_for_not_busy>
2ffefebc:	b958      	cbnz	r0, 2ffefed6 <stm32_qspi_set_mode+0x22>
2ffefebe:	0763      	lsls	r3, r4, #29
2ffefec0:	d411      	bmi.n	2ffefee6 <stm32_qspi_set_mode+0x32>
2ffefec2:	f004 0403 	and.w	r4, r4, #3
2ffefec6:	2c03      	cmp	r4, #3
2ffefec8:	d106      	bne.n	2ffefed8 <stm32_qspi_set_mode+0x24>
2ffefeca:	4b08      	ldr	r3, [pc, #32]	@ (2ffefeec <stm32_qspi_set_mode+0x38>)
2ffefecc:	681a      	ldr	r2, [r3, #0]
2ffefece:	6853      	ldr	r3, [r2, #4]
2ffefed0:	f043 0301 	orr.w	r3, r3, #1
2ffefed4:	6053      	str	r3, [r2, #4]
2ffefed6:	bd10      	pop	{r4, pc}
2ffefed8:	b92c      	cbnz	r4, 2ffefee6 <stm32_qspi_set_mode+0x32>
2ffefeda:	4b04      	ldr	r3, [pc, #16]	@ (2ffefeec <stm32_qspi_set_mode+0x38>)
2ffefedc:	681a      	ldr	r2, [r3, #0]
2ffefede:	6853      	ldr	r3, [r2, #4]
2ffefee0:	f023 0301 	bic.w	r3, r3, #1
2ffefee4:	e7f6      	b.n	2ffefed4 <stm32_qspi_set_mode+0x20>
2ffefee6:	f06f 0012 	mvn.w	r0, #18
2ffefeea:	e7f4      	b.n	2ffefed6 <stm32_qspi_set_mode+0x22>
2ffefeec:	2fffb998 	.word	0x2fffb998

2ffefef0 <stm32_qspi_set_speed>:
2ffefef0:	b5f8      	push	{r3, r4, r5, r6, r7, lr}
2ffefef2:	4606      	mov	r6, r0
2ffefef4:	4f16      	ldr	r7, [pc, #88]	@ (2ffeff50 <stm32_qspi_set_speed+0x60>)
2ffefef6:	68f8      	ldr	r0, [r7, #12]
2ffefef8:	f7fa fb84 	bl	2ffea604 <clk_get_rate>
2ffefefc:	4605      	mov	r5, r0
2ffefefe:	b320      	cbz	r0, 2ffeff4a <stm32_qspi_set_speed+0x5a>
2ffeff00:	b30e      	cbz	r6, 2ffeff46 <stm32_qspi_set_speed+0x56>
2ffeff02:	1e74      	subs	r4, r6, #1
2ffeff04:	4404      	add	r4, r0
2ffeff06:	fbb4 f4f6 	udiv	r4, r4, r6
2ffeff0a:	3c01      	subs	r4, #1
2ffeff0c:	2cff      	cmp	r4, #255	@ 0xff
2ffeff0e:	bf28      	it	cs
2ffeff10:	24ff      	movcs	r4, #255	@ 0xff
2ffeff12:	f7ff ffa3 	bl	2ffefe5c <stm32_qspi_wait_for_not_busy>
2ffeff16:	b9a8      	cbnz	r0, 2ffeff44 <stm32_qspi_set_speed+0x54>
2ffeff18:	683a      	ldr	r2, [r7, #0]
2ffeff1a:	eb05 0585 	add.w	r5, r5, r5, lsl #2
2ffeff1e:	6813      	ldr	r3, [r2, #0]
2ffeff20:	f023 437f 	bic.w	r3, r3, #4278190080	@ 0xff000000
2ffeff24:	ea43 6304 	orr.w	r3, r3, r4, lsl #24
2ffeff28:	3401      	adds	r4, #1
2ffeff2a:	6013      	str	r3, [r2, #0]
2ffeff2c:	fbb5 f5f4 	udiv	r5, r5, r4
2ffeff30:	4b08      	ldr	r3, [pc, #32]	@ (2ffeff54 <stm32_qspi_set_speed+0x64>)
2ffeff32:	4c09      	ldr	r4, [pc, #36]	@ (2ffeff58 <stm32_qspi_set_speed+0x68>)
2ffeff34:	442b      	add	r3, r5
2ffeff36:	6851      	ldr	r1, [r2, #4]
2ffeff38:	fbb3 f3f4 	udiv	r3, r3, r4
2ffeff3c:	3b01      	subs	r3, #1
2ffeff3e:	f363 210a 	bfi	r1, r3, #8, #3
2ffeff42:	6051      	str	r1, [r2, #4]
2ffeff44:	bdf8      	pop	{r3, r4, r5, r6, r7, pc}
2ffeff46:	24ff      	movs	r4, #255	@ 0xff
2ffeff48:	e7e3      	b.n	2ffeff12 <stm32_qspi_set_speed+0x22>
2ffeff4a:	f06f 0015 	mvn.w	r0, #21
2ffeff4e:	e7f9      	b.n	2ffeff44 <stm32_qspi_set_speed+0x54>
2ffeff50:	2fffb998 	.word	0x2fffb998
2ffeff54:	05f5e0ff 	.word	0x05f5e0ff
2ffeff58:	05f5e100 	.word	0x05f5e100

2ffeff5c <stm32_qspi_exec_op>:
2ffeff5c:	e92d 4ff7 	stmdb	sp!, {r0, r1, r2, r4, r5, r6, r7, r8, r9, sl, fp, lr}
2ffeff60:	e9d0 2308 	ldrd	r2, r3, [r0, #32]
2ffeff64:	6901      	ldr	r1, [r0, #16]
2ffeff66:	4c7a      	ldr	r4, [pc, #488]	@ (2fff0150 <stm32_qspi_exec_op+0x1f4>)
2ffeff68:	2a00      	cmp	r2, #0
2ffeff6a:	d15f      	bne.n	2fff002c <stm32_qspi_exec_op+0xd0>
2ffeff6c:	2b00      	cmp	r3, #0
2ffeff6e:	d062      	beq.n	2fff0036 <stm32_qspi_exec_op+0xda>
2ffeff70:	68a5      	ldr	r5, [r4, #8]
2ffeff72:	1c5a      	adds	r2, r3, #1
2ffeff74:	440a      	add	r2, r1
2ffeff76:	4295      	cmp	r5, r2
2ffeff78:	d95b      	bls.n	2fff0032 <stm32_qspi_exec_op+0xd6>
2ffeff7a:	7a42      	ldrb	r2, [r0, #9]
2ffeff7c:	2a00      	cmp	r2, #0
2ffeff7e:	bf14      	ite	ne
2ffeff80:	2203      	movne	r2, #3
2ffeff82:	2201      	moveq	r2, #1
2ffeff84:	6825      	ldr	r5, [r4, #0]
2ffeff86:	3b01      	subs	r3, #1
2ffeff88:	612b      	str	r3, [r5, #16]
2ffeff8a:	7845      	ldrb	r5, [r0, #1]
2ffeff8c:	8883      	ldrh	r3, [r0, #4]
2ffeff8e:	7a06      	ldrb	r6, [r0, #8]
2ffeff90:	2d04      	cmp	r5, #4
2ffeff92:	ea43 6382 	orr.w	r3, r3, r2, lsl #26
2ffeff96:	bf08      	it	eq
2ffeff98:	2503      	moveq	r5, #3
2ffeff9a:	ea43 2305 	orr.w	r3, r3, r5, lsl #8
2ffeff9e:	b146      	cbz	r6, 2ffeffb2 <stm32_qspi_exec_op+0x56>
2ffeffa0:	1e75      	subs	r5, r6, #1
2ffeffa2:	ea43 3305 	orr.w	r3, r3, r5, lsl #12
2ffeffa6:	7a45      	ldrb	r5, [r0, #9]
2ffeffa8:	2d04      	cmp	r5, #4
2ffeffaa:	bf08      	it	eq
2ffeffac:	2503      	moveq	r5, #3
2ffeffae:	ea43 2385 	orr.w	r3, r3, r5, lsl #10
2ffeffb2:	7e47      	ldrb	r7, [r0, #25]
2ffeffb4:	b137      	cbz	r7, 2ffeffc4 <stm32_qspi_exec_op+0x68>
2ffeffb6:	7e05      	ldrb	r5, [r0, #24]
2ffeffb8:	b125      	cbz	r5, 2ffeffc4 <stm32_qspi_exec_op+0x68>
2ffeffba:	00ed      	lsls	r5, r5, #3
2ffeffbc:	fbb5 f5f7 	udiv	r5, r5, r7
2ffeffc0:	ea43 4385 	orr.w	r3, r3, r5, lsl #18
2ffeffc4:	6a45      	ldr	r5, [r0, #36]	@ 0x24
2ffeffc6:	b12d      	cbz	r5, 2ffeffd4 <stm32_qspi_exec_op+0x78>
2ffeffc8:	7f05      	ldrb	r5, [r0, #28]
2ffeffca:	2d04      	cmp	r5, #4
2ffeffcc:	bf08      	it	eq
2ffeffce:	2503      	moveq	r5, #3
2ffeffd0:	ea43 6305 	orr.w	r3, r3, r5, lsl #24
2ffeffd4:	6825      	ldr	r5, [r4, #0]
2ffeffd6:	616b      	str	r3, [r5, #20]
2ffeffd8:	b116      	cbz	r6, 2ffeffe0 <stm32_qspi_exec_op+0x84>
2ffeffda:	2a03      	cmp	r2, #3
2ffeffdc:	bf18      	it	ne
2ffeffde:	61a9      	strne	r1, [r5, #24]
2ffeffe0:	6a45      	ldr	r5, [r0, #36]	@ 0x24
2ffeffe2:	bb55      	cbnz	r5, 2fff003a <stm32_qspi_exec_op+0xde>
2ffeffe4:	6825      	ldr	r5, [r4, #0]
2ffeffe6:	2a03      	cmp	r2, #3
2ffeffe8:	d15e      	bne.n	2fff00a8 <stm32_qspi_exec_op+0x14c>
2ffeffea:	2500      	movs	r5, #0
2ffeffec:	6824      	ldr	r4, [r4, #0]
2ffeffee:	6823      	ldr	r3, [r4, #0]
2ffefff0:	f043 0302 	orr.w	r3, r3, #2
2ffefff4:	6023      	str	r3, [r4, #0]
2ffefff6:	ee1e 1f10 	mrc	15, 0, r1, cr14, cr0, {0}
2ffefffa:	ec58 7f0e 	mrrc	15, 0, r7, r8, cr14
2ffefffe:	4a55      	ldr	r2, [pc, #340]	@ (2fff0154 <stm32_qspi_exec_op+0x1f8>)
2fff0000:	2064      	movs	r0, #100	@ 0x64
2fff0002:	2300      	movs	r3, #0
2fff0004:	fba1 0100 	umull	r0, r1, r1, r0
2fff0008:	f002 ef56 	blx	2fff2eb8 <__aeabi_uldivmod>
2fff000c:	19c0      	adds	r0, r0, r7
2fff000e:	eb41 0108 	adc.w	r1, r1, r8
2fff0012:	6823      	ldr	r3, [r4, #0]
2fff0014:	079b      	lsls	r3, r3, #30
2fff0016:	f100 8090 	bmi.w	2fff013a <stm32_qspi_exec_op+0x1de>
2fff001a:	2302      	movs	r3, #2
2fff001c:	60e3      	str	r3, [r4, #12]
2fff001e:	2d00      	cmp	r5, #0
2fff0020:	d06b      	beq.n	2fff00fa <stm32_qspi_exec_op+0x19e>
2fff0022:	494d      	ldr	r1, [pc, #308]	@ (2fff0158 <stm32_qspi_exec_op+0x1fc>)
2fff0024:	484d      	ldr	r0, [pc, #308]	@ (2fff015c <stm32_qspi_exec_op+0x200>)
2fff0026:	f7fa f901 	bl	2ffea22c <tf_log>
2fff002a:	e066      	b.n	2fff00fa <stm32_qspi_exec_op+0x19e>
2fff002c:	b11b      	cbz	r3, 2fff0036 <stm32_qspi_exec_op+0xda>
2fff002e:	2200      	movs	r2, #0
2fff0030:	e7a8      	b.n	2ffeff84 <stm32_qspi_exec_op+0x28>
2fff0032:	2201      	movs	r2, #1
2fff0034:	e7a6      	b.n	2ffeff84 <stm32_qspi_exec_op+0x28>
2fff0036:	461a      	mov	r2, r3
2fff0038:	e7a7      	b.n	2ffeff8a <stm32_qspi_exec_op+0x2e>
2fff003a:	6a86      	ldr	r6, [r0, #40]	@ 0x28
2fff003c:	2a03      	cmp	r2, #3
2fff003e:	d106      	bne.n	2fff004e <stm32_qspi_exec_op+0xf2>
2fff0040:	6863      	ldr	r3, [r4, #4]
2fff0042:	462a      	mov	r2, r5
2fff0044:	4630      	mov	r0, r6
2fff0046:	4419      	add	r1, r3
2fff0048:	f004 ff57 	bl	2fff4efa <memcpy>
2fff004c:	e7cd      	b.n	2ffeffea <stm32_qspi_exec_op+0x8e>
2fff004e:	6a02      	ldr	r2, [r0, #32]
2fff0050:	46b2      	mov	sl, r6
2fff0052:	4f43      	ldr	r7, [pc, #268]	@ (2fff0160 <stm32_qspi_exec_op+0x204>)
2fff0054:	f04f 0b1e 	mov.w	fp, #30
2fff0058:	4b42      	ldr	r3, [pc, #264]	@ (2fff0164 <stm32_qspi_exec_op+0x208>)
2fff005a:	2a00      	cmp	r2, #0
2fff005c:	bf08      	it	eq
2fff005e:	461f      	moveq	r7, r3
2fff0060:	ee1e 0f10 	mrc	15, 0, r0, cr14, cr0, {0}
2fff0064:	ec53 2f0e 	mrrc	15, 0, r2, r3, cr14
2fff0068:	e9cd 2300 	strd	r2, r3, [sp]
2fff006c:	f8dd 8000 	ldr.w	r8, [sp]
2fff0070:	2300      	movs	r3, #0
2fff0072:	4a38      	ldr	r2, [pc, #224]	@ (2fff0154 <stm32_qspi_exec_op+0x1f8>)
2fff0074:	fba0 010b 	umull	r0, r1, r0, fp
2fff0078:	f002 ef1e 	blx	2fff2eb8 <__aeabi_uldivmod>
2fff007c:	9b01      	ldr	r3, [sp, #4]
2fff007e:	eb10 0008 	adds.w	r0, r0, r8
2fff0082:	eb41 0303 	adc.w	r3, r1, r3
2fff0086:	6821      	ldr	r1, [r4, #0]
2fff0088:	f101 0208 	add.w	r2, r1, #8
2fff008c:	f8d2 c000 	ldr.w	ip, [r2]
2fff0090:	f01c 0f04 	tst.w	ip, #4
2fff0094:	d037      	beq.n	2fff0106 <stm32_qspi_exec_op+0x1aa>
2fff0096:	3120      	adds	r1, #32
2fff0098:	4650      	mov	r0, sl
2fff009a:	f10a 0801 	add.w	r8, sl, #1
2fff009e:	47b8      	blx	r7
2fff00a0:	1973      	adds	r3, r6, r5
2fff00a2:	4598      	cmp	r8, r3
2fff00a4:	d12d      	bne.n	2fff0102 <stm32_qspi_exec_op+0x1a6>
2fff00a6:	6825      	ldr	r5, [r4, #0]
2fff00a8:	ee1e 1f10 	mrc	15, 0, r1, cr14, cr0, {0}
2fff00ac:	ec58 7f0e 	mrrc	15, 0, r7, r8, cr14
2fff00b0:	4a28      	ldr	r2, [pc, #160]	@ (2fff0154 <stm32_qspi_exec_op+0x1f8>)
2fff00b2:	f44f 707a 	mov.w	r0, #1000	@ 0x3e8
2fff00b6:	2300      	movs	r3, #0
2fff00b8:	3508      	adds	r5, #8
2fff00ba:	fba1 0100 	umull	r0, r1, r1, r0
2fff00be:	f002 eefc 	blx	2fff2eb8 <__aeabi_uldivmod>
2fff00c2:	19c0      	adds	r0, r0, r7
2fff00c4:	eb41 0108 	adc.w	r1, r1, r8
2fff00c8:	682b      	ldr	r3, [r5, #0]
2fff00ca:	079a      	lsls	r2, r3, #30
2fff00cc:	d528      	bpl.n	2fff0120 <stm32_qspi_exec_op+0x1c4>
2fff00ce:	682d      	ldr	r5, [r5, #0]
2fff00d0:	f015 0501 	ands.w	r5, r5, #1
2fff00d4:	d005      	beq.n	2fff00e2 <stm32_qspi_exec_op+0x186>
2fff00d6:	4924      	ldr	r1, [pc, #144]	@ (2fff0168 <stm32_qspi_exec_op+0x20c>)
2fff00d8:	f06f 0504 	mvn.w	r5, #4
2fff00dc:	4823      	ldr	r0, [pc, #140]	@ (2fff016c <stm32_qspi_exec_op+0x210>)
2fff00de:	f7fa f8a5 	bl	2ffea22c <tf_log>
2fff00e2:	6823      	ldr	r3, [r4, #0]
2fff00e4:	2203      	movs	r2, #3
2fff00e6:	60da      	str	r2, [r3, #12]
2fff00e8:	2d00      	cmp	r5, #0
2fff00ea:	f47f af7f 	bne.w	2ffeffec <stm32_qspi_exec_op+0x90>
2fff00ee:	f7ff feb5 	bl	2ffefe5c <stm32_qspi_wait_for_not_busy>
2fff00f2:	4605      	mov	r5, r0
2fff00f4:	2800      	cmp	r0, #0
2fff00f6:	f47f af79 	bne.w	2ffeffec <stm32_qspi_exec_op+0x90>
2fff00fa:	4628      	mov	r0, r5
2fff00fc:	b003      	add	sp, #12
2fff00fe:	e8bd 8ff0 	ldmia.w	sp!, {r4, r5, r6, r7, r8, r9, sl, fp, pc}
2fff0102:	46c2      	mov	sl, r8
2fff0104:	e7ac      	b.n	2fff0060 <stm32_qspi_exec_op+0x104>
2fff0106:	ec59 8f0e 	mrrc	15, 0, r8, r9, cr14
2fff010a:	4540      	cmp	r0, r8
2fff010c:	eb73 0c09 	sbcs.w	ip, r3, r9
2fff0110:	d2bc      	bcs.n	2fff008c <stm32_qspi_exec_op+0x130>
2fff0112:	4917      	ldr	r1, [pc, #92]	@ (2fff0170 <stm32_qspi_exec_op+0x214>)
2fff0114:	f06f 053b 	mvn.w	r5, #59	@ 0x3b
2fff0118:	4816      	ldr	r0, [pc, #88]	@ (2fff0174 <stm32_qspi_exec_op+0x218>)
2fff011a:	f7fa f887 	bl	2ffea22c <tf_log>
2fff011e:	e765      	b.n	2ffeffec <stm32_qspi_exec_op+0x90>
2fff0120:	ec53 2f0e 	mrrc	15, 0, r2, r3, cr14
2fff0124:	4290      	cmp	r0, r2
2fff0126:	eb71 0303 	sbcs.w	r3, r1, r3
2fff012a:	d2cd      	bcs.n	2fff00c8 <stm32_qspi_exec_op+0x16c>
2fff012c:	490e      	ldr	r1, [pc, #56]	@ (2fff0168 <stm32_qspi_exec_op+0x20c>)
2fff012e:	f06f 053b 	mvn.w	r5, #59	@ 0x3b
2fff0132:	4811      	ldr	r0, [pc, #68]	@ (2fff0178 <stm32_qspi_exec_op+0x21c>)
2fff0134:	f7fa f87a 	bl	2ffea22c <tf_log>
2fff0138:	e7d3      	b.n	2fff00e2 <stm32_qspi_exec_op+0x186>
2fff013a:	ec53 2f0e 	mrrc	15, 0, r2, r3, cr14
2fff013e:	4290      	cmp	r0, r2
2fff0140:	eb71 0303 	sbcs.w	r3, r1, r3
2fff0144:	f4bf af65 	bcs.w	2fff0012 <stm32_qspi_exec_op+0xb6>
2fff0148:	f06f 053b 	mvn.w	r5, #59	@ 0x3b
2fff014c:	e765      	b.n	2fff001a <stm32_qspi_exec_op+0xbe>
2fff014e:	bf00      	nop
2fff0150:	2fffb998 	.word	0x2fffb998
2fff0154:	000f4240 	.word	0x000f4240
2fff0158:	2fff90c3 	.word	0x2fff90c3
2fff015c:	2fff7d88 	.word	0x2fff7d88
2fff0160:	2fff41b1 	.word	0x2fff41b1
2fff0164:	2fff41ab 	.word	0x2fff41ab
2fff0168:	2fff909f 	.word	0x2fff909f
2fff016c:	2fff7d73 	.word	0x2fff7d73
2fff0170:	2fff90b3 	.word	0x2fff90b3
2fff0174:	2fff7d60 	.word	0x2fff7d60
2fff0178:	2fff7d9c 	.word	0x2fff7d9c

2fff017c <stm32_qspi_init>:
2fff017c:	b530      	push	{r4, r5, lr}
2fff017e:	b089      	sub	sp, #36	@ 0x24
2fff0180:	2300      	movs	r3, #0
2fff0182:	a803      	add	r0, sp, #12
2fff0184:	9303      	str	r3, [sp, #12]
2fff0186:	f001 fc0d 	bl	2fff19a4 <fdt_get_address>
2fff018a:	b150      	cbz	r0, 2fff01a2 <stm32_qspi_init+0x26>
2fff018c:	4a2a      	ldr	r2, [pc, #168]	@ (2fff0238 <stm32_qspi_init+0xbc>)
2fff018e:	f04f 31ff 	mov.w	r1, #4294967295	@ 0xffffffff
2fff0192:	a804      	add	r0, sp, #16
2fff0194:	f001 fcae 	bl	2fff1af4 <dt_get_node>
2fff0198:	1e05      	subs	r5, r0, #0
2fff019a:	da06      	bge.n	2fff01aa <stm32_qspi_init+0x2e>
2fff019c:	4827      	ldr	r0, [pc, #156]	@ (2fff023c <stm32_qspi_init+0xc0>)
2fff019e:	f7fa f845 	bl	2ffea22c <tf_log>
2fff01a2:	f04f 30ff 	mov.w	r0, #4294967295	@ 0xffffffff
2fff01a6:	b009      	add	sp, #36	@ 0x24
2fff01a8:	bd30      	pop	{r4, r5, pc}
2fff01aa:	9b07      	ldr	r3, [sp, #28]
2fff01ac:	2b00      	cmp	r3, #0
2fff01ae:	d0f8      	beq.n	2fff01a2 <stm32_qspi_init+0x26>
2fff01b0:	4c23      	ldr	r4, [pc, #140]	@ (2fff0240 <stm32_qspi_init+0xc4>)
2fff01b2:	ab02      	add	r3, sp, #8
2fff01b4:	9300      	str	r3, [sp, #0]
2fff01b6:	4629      	mov	r1, r5
2fff01b8:	4a22      	ldr	r2, [pc, #136]	@ (2fff0244 <stm32_qspi_init+0xc8>)
2fff01ba:	4623      	mov	r3, r4
2fff01bc:	9803      	ldr	r0, [sp, #12]
2fff01be:	f7f9 ffe3 	bl	2ffea188 <fdt_get_reg_props_by_name>
2fff01c2:	2800      	cmp	r0, #0
2fff01c4:	d1ef      	bne.n	2fff01a6 <stm32_qspi_init+0x2a>
2fff01c6:	4a20      	ldr	r2, [pc, #128]	@ (2fff0248 <stm32_qspi_init+0xcc>)
2fff01c8:	f104 0308 	add.w	r3, r4, #8
2fff01cc:	9300      	str	r3, [sp, #0]
2fff01ce:	4629      	mov	r1, r5
2fff01d0:	9803      	ldr	r0, [sp, #12]
2fff01d2:	1d23      	adds	r3, r4, #4
2fff01d4:	f7f9 ffd8 	bl	2ffea188 <fdt_get_reg_props_by_name>
2fff01d8:	2800      	cmp	r0, #0
2fff01da:	d1e4      	bne.n	2fff01a6 <stm32_qspi_init+0x2a>
2fff01dc:	4628      	mov	r0, r5
2fff01de:	f7fd ff11 	bl	2ffee004 <dt_set_pinctrl_config>
2fff01e2:	bb30      	cbnz	r0, 2fff0232 <stm32_qspi_init+0xb6>
2fff01e4:	9805      	ldr	r0, [sp, #20]
2fff01e6:	2800      	cmp	r0, #0
2fff01e8:	db23      	blt.n	2fff0232 <stm32_qspi_init+0xb6>
2fff01ea:	9b06      	ldr	r3, [sp, #24]
2fff01ec:	2b00      	cmp	r3, #0
2fff01ee:	db20      	blt.n	2fff0232 <stm32_qspi_init+0xb6>
2fff01f0:	60e0      	str	r0, [r4, #12]
2fff01f2:	6123      	str	r3, [r4, #16]
2fff01f4:	f7fa f9e2 	bl	2ffea5bc <clk_enable>
2fff01f8:	6920      	ldr	r0, [r4, #16]
2fff01fa:	f44f 717a 	mov.w	r1, #1000	@ 0x3e8
2fff01fe:	f7ff fdaf 	bl	2ffefd60 <stm32mp_reset_assert>
2fff0202:	b118      	cbz	r0, 2fff020c <stm32_qspi_init+0x90>
2fff0204:	f7fa faa8 	bl	2ffea758 <console_flush>
2fff0208:	f7f9 e834 	blx	2ffe9274 <el3_panic>
2fff020c:	6920      	ldr	r0, [r4, #16]
2fff020e:	f44f 717a 	mov.w	r1, #1000	@ 0x3e8
2fff0212:	f7ff fdd5 	bl	2ffefdc0 <stm32mp_reset_deassert>
2fff0216:	2800      	cmp	r0, #0
2fff0218:	d1f4      	bne.n	2fff0204 <stm32_qspi_init+0x88>
2fff021a:	6823      	ldr	r3, [r4, #0]
2fff021c:	2210      	movs	r2, #16
2fff021e:	9803      	ldr	r0, [sp, #12]
2fff0220:	4629      	mov	r1, r5
2fff0222:	601a      	str	r2, [r3, #0]
2fff0224:	f44f 12f8 	mov.w	r2, #2031616	@ 0x1f0000
2fff0228:	605a      	str	r2, [r3, #4]
2fff022a:	4a08      	ldr	r2, [pc, #32]	@ (2fff024c <stm32_qspi_init+0xd0>)
2fff022c:	f7fb fb0e 	bl	2ffeb84c <spi_mem_init_slave>
2fff0230:	e7b9      	b.n	2fff01a6 <stm32_qspi_init+0x2a>
2fff0232:	f06f 000e 	mvn.w	r0, #14
2fff0236:	e7b6      	b.n	2fff01a6 <stm32_qspi_init+0x2a>
2fff0238:	2fff7dae 	.word	0x2fff7dae
2fff023c:	2fff7dc0 	.word	0x2fff7dc0
2fff0240:	2fffb998 	.word	0x2fffb998
2fff0244:	2fff7dbb 	.word	0x2fff7dbb
2fff0248:	2fff7dd5 	.word	0x2fff7dd5
2fff024c:	2fff57c4 	.word	0x2fff57c4

2fff0250 <fconf_populate>:
2fff0250:	e92d 41f0 	stmdb	sp!, {r4, r5, r6, r7, r8, lr}
2fff0254:	4606      	mov	r6, r0
2fff0256:	460d      	mov	r5, r1
2fff0258:	b919      	cbnz	r1, 2fff0262 <fconf_populate+0x12>
2fff025a:	2134      	movs	r1, #52	@ 0x34
2fff025c:	4818      	ldr	r0, [pc, #96]	@ (2fff02c0 <fconf_populate+0x70>)
2fff025e:	f002 ff9b 	bl	2fff3198 <__assert>
2fff0262:	4608      	mov	r0, r1
2fff0264:	f002 fe74 	bl	2fff2f50 <fdt_check_header>
2fff0268:	b138      	cbz	r0, 2fff027a <fconf_populate+0x2a>
2fff026a:	4816      	ldr	r0, [pc, #88]	@ (2fff02c4 <fconf_populate+0x74>)
2fff026c:	4631      	mov	r1, r6
2fff026e:	f7f9 ffdd 	bl	2ffea22c <tf_log>
2fff0272:	f7fa fa71 	bl	2ffea758 <console_flush>
2fff0276:	f7f8 effe 	blx	2ffe9274 <el3_panic>
2fff027a:	4813      	ldr	r0, [pc, #76]	@ (2fff02c8 <fconf_populate+0x78>)
2fff027c:	462a      	mov	r2, r5
2fff027e:	4c13      	ldr	r4, [pc, #76]	@ (2fff02cc <fconf_populate+0x7c>)
2fff0280:	4631      	mov	r1, r6
2fff0282:	4f13      	ldr	r7, [pc, #76]	@ (2fff02d0 <fconf_populate+0x80>)
2fff0284:	f7f9 ffd2 	bl	2ffea22c <tf_log>
2fff0288:	f8df 8048 	ldr.w	r8, [pc, #72]	@ 2fff02d4 <fconf_populate+0x84>
2fff028c:	42bc      	cmp	r4, r7
2fff028e:	d101      	bne.n	2fff0294 <fconf_populate+0x44>
2fff0290:	e8bd 81f0 	ldmia.w	sp!, {r4, r5, r6, r7, r8, pc}
2fff0294:	6863      	ldr	r3, [r4, #4]
2fff0296:	b10b      	cbz	r3, 2fff029c <fconf_populate+0x4c>
2fff0298:	68a3      	ldr	r3, [r4, #8]
2fff029a:	b90b      	cbnz	r3, 2fff02a0 <fconf_populate+0x50>
2fff029c:	2144      	movs	r1, #68	@ 0x44
2fff029e:	e7dd      	b.n	2fff025c <fconf_populate+0xc>
2fff02a0:	6820      	ldr	r0, [r4, #0]
2fff02a2:	4631      	mov	r1, r6
2fff02a4:	f004 ff3e 	bl	2fff5124 <strcmp>
2fff02a8:	b940      	cbnz	r0, 2fff02bc <fconf_populate+0x6c>
2fff02aa:	6861      	ldr	r1, [r4, #4]
2fff02ac:	4640      	mov	r0, r8
2fff02ae:	f7f9 ffbd 	bl	2ffea22c <tf_log>
2fff02b2:	68a3      	ldr	r3, [r4, #8]
2fff02b4:	4628      	mov	r0, r5
2fff02b6:	4798      	blx	r3
2fff02b8:	2800      	cmp	r0, #0
2fff02ba:	d1da      	bne.n	2fff0272 <fconf_populate+0x22>
2fff02bc:	340c      	adds	r4, #12
2fff02be:	e7e5      	b.n	2fff028c <fconf_populate+0x3c>
2fff02c0:	2fff7ddd 	.word	0x2fff7ddd
2fff02c4:	2fff7e2f 	.word	0x2fff7e2f
2fff02c8:	2fff7e57 	.word	0x2fff7e57
2fff02cc:	2fff9438 	.word	0x2fff9438
2fff02d0:	2fff9468 	.word	0x2fff9468
2fff02d4:	2fff7e93 	.word	0x2fff7e93

2fff02d8 <set_config_info>:
2fff02d8:	b5f8      	push	{r3, r4, r5, r6, r7, lr}
2fff02da:	4d0d      	ldr	r5, [pc, #52]	@ (2fff0310 <set_config_info+0x38>)
2fff02dc:	68ec      	ldr	r4, [r5, #12]
2fff02de:	686e      	ldr	r6, [r5, #4]
2fff02e0:	f104 0c01 	add.w	ip, r4, #1
2fff02e4:	45b4      	cmp	ip, r6
2fff02e6:	d908      	bls.n	2fff02fa <set_config_info+0x22>
2fff02e8:	1b32      	subs	r2, r6, r4
2fff02ea:	2101      	movs	r1, #1
2fff02ec:	4809      	ldr	r0, [pc, #36]	@ (2fff0314 <set_config_info+0x3c>)
2fff02ee:	f7f9 ff9d 	bl	2ffea22c <tf_log>
2fff02f2:	f7fa fa31 	bl	2ffea758 <console_flush>
2fff02f6:	f7f8 efbe 	blx	2ffe9274 <el3_panic>
2fff02fa:	682e      	ldr	r6, [r5, #0]
2fff02fc:	68af      	ldr	r7, [r5, #8]
2fff02fe:	4374      	muls	r4, r6
2fff0300:	f8c5 c00c 	str.w	ip, [r5, #12]
2fff0304:	193e      	adds	r6, r7, r4
2fff0306:	5138      	str	r0, [r7, r4]
2fff0308:	60f1      	str	r1, [r6, #12]
2fff030a:	6072      	str	r2, [r6, #4]
2fff030c:	60b3      	str	r3, [r6, #8]
2fff030e:	bdf8      	pop	{r3, r4, r5, r6, r7, pc}
2fff0310:	2fffa0f8 	.word	0x2fffa0f8
2fff0314:	2fff7ecf 	.word	0x2fff7ecf

2fff0318 <fconf_populate_dtb_registry>:
2fff0318:	4b39      	ldr	r3, [pc, #228]	@ (2fff0400 <fconf_populate_dtb_registry+0xe8>)
2fff031a:	e92d 4ff0 	stmdb	sp!, {r4, r5, r6, r7, r8, r9, sl, fp, lr}
2fff031e:	4605      	mov	r5, r0
2fff0320:	689b      	ldr	r3, [r3, #8]
2fff0322:	b085      	sub	sp, #20
2fff0324:	b97b      	cbnz	r3, 2fff0346 <fconf_populate_dtb_registry+0x2e>
2fff0326:	7943      	ldrb	r3, [r0, #5]
2fff0328:	f04f 31ff 	mov.w	r1, #4294967295	@ 0xffffffff
2fff032c:	7902      	ldrb	r2, [r0, #4]
2fff032e:	ea42 2203 	orr.w	r2, r2, r3, lsl #8
2fff0332:	7983      	ldrb	r3, [r0, #6]
2fff0334:	ea42 4203 	orr.w	r2, r2, r3, lsl #16
2fff0338:	79c3      	ldrb	r3, [r0, #7]
2fff033a:	ea42 6203 	orr.w	r2, r2, r3, lsl #24
2fff033e:	2301      	movs	r3, #1
2fff0340:	ba12      	rev	r2, r2
2fff0342:	f7ff ffc9 	bl	2fff02d8 <set_config_info>
2fff0346:	4a2f      	ldr	r2, [pc, #188]	@ (2fff0404 <fconf_populate_dtb_registry+0xec>)
2fff0348:	f04f 31ff 	mov.w	r1, #4294967295	@ 0xffffffff
2fff034c:	4628      	mov	r0, r5
2fff034e:	f004 fd9d 	bl	2fff4e8c <fdt_node_offset_by_compatible>
2fff0352:	1e07      	subs	r7, r0, #0
2fff0354:	da08      	bge.n	2fff0368 <fconf_populate_dtb_registry+0x50>
2fff0356:	492b      	ldr	r1, [pc, #172]	@ (2fff0404 <fconf_populate_dtb_registry+0xec>)
2fff0358:	463c      	mov	r4, r7
2fff035a:	482b      	ldr	r0, [pc, #172]	@ (2fff0408 <fconf_populate_dtb_registry+0xf0>)
2fff035c:	f7f9 ff66 	bl	2ffea22c <tf_log>
2fff0360:	4620      	mov	r0, r4
2fff0362:	b005      	add	sp, #20
2fff0364:	e8bd 8ff0 	ldmia.w	sp!, {r4, r5, r6, r7, r8, r9, sl, fp, pc}
2fff0368:	f8df 80a0 	ldr.w	r8, [pc, #160]	@ 2fff040c <fconf_populate_dtb_registry+0xf4>
2fff036c:	4639      	mov	r1, r7
2fff036e:	f8df 90a0 	ldr.w	r9, [pc, #160]	@ 2fff0410 <fconf_populate_dtb_registry+0xf8>
2fff0372:	4628      	mov	r0, r5
2fff0374:	f8df a09c 	ldr.w	sl, [pc, #156]	@ 2fff0414 <fconf_populate_dtb_registry+0xfc>
2fff0378:	f004 fae2 	bl	2fff4940 <fdt_first_subnode>
2fff037c:	4604      	mov	r4, r0
2fff037e:	2c00      	cmp	r4, #0
2fff0380:	da07      	bge.n	2fff0392 <fconf_populate_dtb_registry+0x7a>
2fff0382:	1c63      	adds	r3, r4, #1
2fff0384:	d03a      	beq.n	2fff03fc <fconf_populate_dtb_registry+0xe4>
2fff0386:	4824      	ldr	r0, [pc, #144]	@ (2fff0418 <fconf_populate_dtb_registry+0x100>)
2fff0388:	463a      	mov	r2, r7
2fff038a:	2196      	movs	r1, #150	@ 0x96
2fff038c:	f7f9 ff4e 	bl	2ffea22c <tf_log>
2fff0390:	e7e6      	b.n	2fff0360 <fconf_populate_dtb_registry+0x48>
2fff0392:	ab02      	add	r3, sp, #8
2fff0394:	4642      	mov	r2, r8
2fff0396:	4621      	mov	r1, r4
2fff0398:	4628      	mov	r0, r5
2fff039a:	f003 f980 	bl	2fff369e <fdt_read_uint64>
2fff039e:	1e06      	subs	r6, r0, #0
2fff03a0:	da04      	bge.n	2fff03ac <fconf_populate_dtb_registry+0x94>
2fff03a2:	481e      	ldr	r0, [pc, #120]	@ (2fff041c <fconf_populate_dtb_registry+0x104>)
2fff03a4:	4634      	mov	r4, r6
2fff03a6:	f7f9 ff41 	bl	2ffea22c <tf_log>
2fff03aa:	e7d9      	b.n	2fff0360 <fconf_populate_dtb_registry+0x48>
2fff03ac:	f8dd b008 	ldr.w	fp, [sp, #8]
2fff03b0:	466b      	mov	r3, sp
2fff03b2:	464a      	mov	r2, r9
2fff03b4:	4621      	mov	r1, r4
2fff03b6:	4628      	mov	r0, r5
2fff03b8:	f003 f95d 	bl	2fff3676 <fdt_read_uint32>
2fff03bc:	1e06      	subs	r6, r0, #0
2fff03be:	dbf0      	blt.n	2fff03a2 <fconf_populate_dtb_registry+0x8a>
2fff03c0:	ab01      	add	r3, sp, #4
2fff03c2:	4652      	mov	r2, sl
2fff03c4:	4621      	mov	r1, r4
2fff03c6:	4628      	mov	r0, r5
2fff03c8:	f003 f955 	bl	2fff3676 <fdt_read_uint32>
2fff03cc:	1e06      	subs	r6, r0, #0
2fff03ce:	dbe8      	blt.n	2fff03a2 <fconf_populate_dtb_registry+0x8a>
2fff03d0:	4a13      	ldr	r2, [pc, #76]	@ (2fff0420 <fconf_populate_dtb_registry+0x108>)
2fff03d2:	ab02      	add	r3, sp, #8
2fff03d4:	4621      	mov	r1, r4
2fff03d6:	4628      	mov	r0, r5
2fff03d8:	f003 f961 	bl	2fff369e <fdt_read_uint64>
2fff03dc:	b958      	cbnz	r0, 2fff03f6 <fconf_populate_dtb_registry+0xde>
2fff03de:	9902      	ldr	r1, [sp, #8]
2fff03e0:	e9dd 2300 	ldrd	r2, r3, [sp]
2fff03e4:	4658      	mov	r0, fp
2fff03e6:	f7ff ff77 	bl	2fff02d8 <set_config_info>
2fff03ea:	4621      	mov	r1, r4
2fff03ec:	4628      	mov	r0, r5
2fff03ee:	f004 faba 	bl	2fff4966 <fdt_next_subnode>
2fff03f2:	4604      	mov	r4, r0
2fff03f4:	e7c3      	b.n	2fff037e <fconf_populate_dtb_registry+0x66>
2fff03f6:	f04f 31ff 	mov.w	r1, #4294967295	@ 0xffffffff
2fff03fa:	e7f1      	b.n	2fff03e0 <fconf_populate_dtb_registry+0xc8>
2fff03fc:	2400      	movs	r4, #0
2fff03fe:	e7af      	b.n	2fff0360 <fconf_populate_dtb_registry+0x48>
2fff0400:	2fffb9ac 	.word	0x2fffb9ac
2fff0404:	2fff7f0d 	.word	0x2fff7f0d
2fff0408:	2fff7f28 	.word	0x2fff7f28
2fff040c:	2fff7fa0 	.word	0x2fff7fa0
2fff0410:	2fff7f8d 	.word	0x2fff7f8d
2fff0414:	2fff8ddd 	.word	0x2fff8ddd
2fff0418:	2fff7fad 	.word	0x2fff7fad
2fff041c:	2fff7f51 	.word	0x2fff7f51
2fff0420:	2fff7f96 	.word	0x2fff7f96

2fff0424 <dyn_cfg_dtb_info_get_index>:
2fff0424:	4b06      	ldr	r3, [pc, #24]	@ (2fff0440 <dyn_cfg_dtb_info_get_index+0x1c>)
2fff0426:	4602      	mov	r2, r0
2fff0428:	2000      	movs	r0, #0
2fff042a:	6899      	ldr	r1, [r3, #8]
2fff042c:	4291      	cmp	r1, r2
2fff042e:	d005      	beq.n	2fff043c <dyn_cfg_dtb_info_get_index+0x18>
2fff0430:	3001      	adds	r0, #1
2fff0432:	3310      	adds	r3, #16
2fff0434:	2806      	cmp	r0, #6
2fff0436:	d1f8      	bne.n	2fff042a <dyn_cfg_dtb_info_get_index+0x6>
2fff0438:	f04f 30ff 	mov.w	r0, #4294967295	@ 0xffffffff
2fff043c:	4770      	bx	lr
2fff043e:	bf00      	nop
2fff0440:	2fffb9ac 	.word	0x2fffb9ac

2fff0444 <dyn_cfg_dtb_info_getter>:
2fff0444:	b510      	push	{r4, lr}
2fff0446:	4604      	mov	r4, r0
2fff0448:	f7ff ffec 	bl	2fff0424 <dyn_cfg_dtb_info_get_index>
2fff044c:	2805      	cmp	r0, #5
2fff044e:	d803      	bhi.n	2fff0458 <dyn_cfg_dtb_info_getter+0x14>
2fff0450:	4b04      	ldr	r3, [pc, #16]	@ (2fff0464 <dyn_cfg_dtb_info_getter+0x20>)
2fff0452:	eb03 1000 	add.w	r0, r3, r0, lsl #4
2fff0456:	bd10      	pop	{r4, pc}
2fff0458:	4803      	ldr	r0, [pc, #12]	@ (2fff0468 <dyn_cfg_dtb_info_getter+0x24>)
2fff045a:	4621      	mov	r1, r4
2fff045c:	f7f9 fee6 	bl	2ffea22c <tf_log>
2fff0460:	2000      	movs	r0, #0
2fff0462:	e7f8      	b.n	2fff0456 <dyn_cfg_dtb_info_getter+0x12>
2fff0464:	2fffb9ac 	.word	0x2fffb9ac
2fff0468:	2fff7fce 	.word	0x2fff7fce

2fff046c <parse_optee_image>:
2fff046c:	b5f7      	push	{r0, r1, r2, r4, r5, r6, r7, lr}
2fff046e:	460a      	mov	r2, r1
2fff0470:	6849      	ldr	r1, [r1, #4]
2fff0472:	68d5      	ldr	r5, [r2, #12]
2fff0474:	6812      	ldr	r2, [r2, #0]
2fff0476:	6883      	ldr	r3, [r0, #8]
2fff0478:	6904      	ldr	r4, [r0, #16]
2fff047a:	400a      	ands	r2, r1
2fff047c:	f1b2 3fff 	cmp.w	r2, #4294967295	@ 0xffffffff
2fff0480:	bf08      	it	eq
2fff0482:	4619      	moveq	r1, r3
2fff0484:	4262      	negs	r2, r4
2fff0486:	429a      	cmp	r2, r3
2fff0488:	d311      	bcc.n	2fff04ae <parse_optee_image+0x42>
2fff048a:	441c      	add	r4, r3
2fff048c:	426a      	negs	r2, r5
2fff048e:	428a      	cmp	r2, r1
2fff0490:	f104 37ff 	add.w	r7, r4, #4294967295	@ 0xffffffff
2fff0494:	d30b      	bcc.n	2fff04ae <parse_optee_image+0x42>
2fff0496:	4299      	cmp	r1, r3
2fff0498:	eb01 0205 	add.w	r2, r1, r5
2fff049c:	f102 36ff 	add.w	r6, r2, #4294967295	@ 0xffffffff
2fff04a0:	d301      	bcc.n	2fff04a6 <parse_optee_image+0x3a>
2fff04a2:	42b7      	cmp	r7, r6
2fff04a4:	d207      	bcs.n	2fff04b6 <parse_optee_image+0x4a>
2fff04a6:	4808      	ldr	r0, [pc, #32]	@ (2fff04c8 <parse_optee_image+0x5c>)
2fff04a8:	9400      	str	r4, [sp, #0]
2fff04aa:	f7f9 febf 	bl	2ffea22c <tf_log>
2fff04ae:	f04f 30ff 	mov.w	r0, #4294967295	@ 0xffffffff
2fff04b2:	b003      	add	sp, #12
2fff04b4:	bdf0      	pop	{r4, r5, r6, r7, pc}
2fff04b6:	6843      	ldr	r3, [r0, #4]
2fff04b8:	6081      	str	r1, [r0, #8]
2fff04ba:	f023 0302 	bic.w	r3, r3, #2
2fff04be:	6043      	str	r3, [r0, #4]
2fff04c0:	60c5      	str	r5, [r0, #12]
2fff04c2:	2000      	movs	r0, #0
2fff04c4:	e7f5      	b.n	2fff04b2 <parse_optee_image+0x46>
2fff04c6:	bf00      	nop
2fff04c8:	2fff7ffe 	.word	0x2fff7ffe

2fff04cc <optee_header_is_valid>:
2fff04cc:	6802      	ldr	r2, [r0, #0]
2fff04ce:	4b07      	ldr	r3, [pc, #28]	@ (2fff04ec <optee_header_is_valid+0x20>)
2fff04d0:	429a      	cmp	r2, r3
2fff04d2:	d109      	bne.n	2fff04e8 <optee_header_is_valid+0x1c>
2fff04d4:	7903      	ldrb	r3, [r0, #4]
2fff04d6:	2b02      	cmp	r3, #2
2fff04d8:	d106      	bne.n	2fff04e8 <optee_header_is_valid+0x1c>
2fff04da:	6880      	ldr	r0, [r0, #8]
2fff04dc:	3801      	subs	r0, #1
2fff04de:	2801      	cmp	r0, #1
2fff04e0:	bf8c      	ite	hi
2fff04e2:	2000      	movhi	r0, #0
2fff04e4:	2001      	movls	r0, #1
2fff04e6:	4770      	bx	lr
2fff04e8:	2000      	movs	r0, #0
2fff04ea:	4770      	bx	lr
2fff04ec:	4554504f 	.word	0x4554504f

2fff04f0 <parse_optee_header>:
2fff04f0:	e92d 47f0 	stmdb	sp!, {r4, r5, r6, r7, r8, r9, sl, lr}
2fff04f4:	460f      	mov	r7, r1
2fff04f6:	4616      	mov	r6, r2
2fff04f8:	4605      	mov	r5, r0
2fff04fa:	b918      	cbnz	r0, 2fff0504 <parse_optee_header+0x14>
2fff04fc:	2171      	movs	r1, #113	@ 0x71
2fff04fe:	4834      	ldr	r0, [pc, #208]	@ (2fff05d0 <parse_optee_header+0xe0>)
2fff0500:	f002 fe4a 	bl	2fff3198 <__assert>
2fff0504:	6884      	ldr	r4, [r0, #8]
2fff0506:	46a0      	mov	r8, r4
2fff0508:	b90c      	cbnz	r4, 2fff050e <parse_optee_header+0x1e>
2fff050a:	2173      	movs	r1, #115	@ 0x73
2fff050c:	e7f7      	b.n	2fff04fe <parse_optee_header+0xe>
2fff050e:	4831      	ldr	r0, [pc, #196]	@ (2fff05d4 <parse_optee_header+0xe4>)
2fff0510:	4621      	mov	r1, r4
2fff0512:	f7f9 fe8b 	bl	2ffea22c <tf_log>
2fff0516:	4830      	ldr	r0, [pc, #192]	@ (2fff05d8 <parse_optee_header+0xe8>)
2fff0518:	f7f9 fe88 	bl	2ffea22c <tf_log>
2fff051c:	6821      	ldr	r1, [r4, #0]
2fff051e:	482f      	ldr	r0, [pc, #188]	@ (2fff05dc <parse_optee_header+0xec>)
2fff0520:	f7f9 fe84 	bl	2ffea22c <tf_log>
2fff0524:	7921      	ldrb	r1, [r4, #4]
2fff0526:	482e      	ldr	r0, [pc, #184]	@ (2fff05e0 <parse_optee_header+0xf0>)
2fff0528:	f7f9 fe80 	bl	2ffea22c <tf_log>
2fff052c:	7961      	ldrb	r1, [r4, #5]
2fff052e:	482d      	ldr	r0, [pc, #180]	@ (2fff05e4 <parse_optee_header+0xf4>)
2fff0530:	f7f9 fe7c 	bl	2ffea22c <tf_log>
2fff0534:	88e1      	ldrh	r1, [r4, #6]
2fff0536:	482c      	ldr	r0, [pc, #176]	@ (2fff05e8 <parse_optee_header+0xf8>)
2fff0538:	f7f9 fe78 	bl	2ffea22c <tf_log>
2fff053c:	68a1      	ldr	r1, [r4, #8]
2fff053e:	482b      	ldr	r0, [pc, #172]	@ (2fff05ec <parse_optee_header+0xfc>)
2fff0540:	f7f9 fe74 	bl	2ffea22c <tf_log>
2fff0544:	6822      	ldr	r2, [r4, #0]
2fff0546:	4b2a      	ldr	r3, [pc, #168]	@ (2fff05f0 <parse_optee_header+0x100>)
2fff0548:	429a      	cmp	r2, r3
2fff054a:	d11a      	bne.n	2fff0582 <parse_optee_header+0x92>
2fff054c:	7923      	ldrb	r3, [r4, #4]
2fff054e:	2b02      	cmp	r3, #2
2fff0550:	d117      	bne.n	2fff0582 <parse_optee_header+0x92>
2fff0552:	68a3      	ldr	r3, [r4, #8]
2fff0554:	3b01      	subs	r3, #1
2fff0556:	2b01      	cmp	r3, #1
2fff0558:	d813      	bhi.n	2fff0582 <parse_optee_header+0x92>
2fff055a:	f104 090c 	add.w	r9, r4, #12
2fff055e:	f04f 0a00 	mov.w	sl, #0
2fff0562:	f8d8 3008 	ldr.w	r3, [r8, #8]
2fff0566:	4553      	cmp	r3, sl
2fff0568:	d813      	bhi.n	2fff0592 <parse_optee_header+0xa2>
2fff056a:	68bb      	ldr	r3, [r7, #8]
2fff056c:	60ab      	str	r3, [r5, #8]
2fff056e:	b11e      	cbz	r6, 2fff0578 <parse_optee_header+0x88>
2fff0570:	68b3      	ldr	r3, [r6, #8]
2fff0572:	61ab      	str	r3, [r5, #24]
2fff0574:	68f3      	ldr	r3, [r6, #12]
2fff0576:	61eb      	str	r3, [r5, #28]
2fff0578:	f898 3005 	ldrb.w	r3, [r8, #5]
2fff057c:	b123      	cbz	r3, 2fff0588 <parse_optee_header+0x98>
2fff057e:	481d      	ldr	r0, [pc, #116]	@ (2fff05f4 <parse_optee_header+0x104>)
2fff0580:	e01d      	b.n	2fff05be <parse_optee_header+0xce>
2fff0582:	481d      	ldr	r0, [pc, #116]	@ (2fff05f8 <parse_optee_header+0x108>)
2fff0584:	f7f9 fe52 	bl	2ffea22c <tf_log>
2fff0588:	2000      	movs	r0, #0
2fff058a:	2301      	movs	r3, #1
2fff058c:	616b      	str	r3, [r5, #20]
2fff058e:	e8bd 87f0 	ldmia.w	sp!, {r4, r5, r6, r7, r8, r9, sl, pc}
2fff0592:	6963      	ldr	r3, [r4, #20]
2fff0594:	b93b      	cbnz	r3, 2fff05a6 <parse_optee_header+0xb6>
2fff0596:	4649      	mov	r1, r9
2fff0598:	4638      	mov	r0, r7
2fff059a:	f7ff ff67 	bl	2fff046c <parse_optee_image>
2fff059e:	b138      	cbz	r0, 2fff05b0 <parse_optee_header+0xc0>
2fff05a0:	f04f 30ff 	mov.w	r0, #4294967295	@ 0xffffffff
2fff05a4:	e7f3      	b.n	2fff058e <parse_optee_header+0x9e>
2fff05a6:	2b01      	cmp	r3, #1
2fff05a8:	d10f      	bne.n	2fff05ca <parse_optee_header+0xda>
2fff05aa:	b95e      	cbnz	r6, 2fff05c4 <parse_optee_header+0xd4>
2fff05ac:	69a3      	ldr	r3, [r4, #24]
2fff05ae:	b92b      	cbnz	r3, 2fff05bc <parse_optee_header+0xcc>
2fff05b0:	f10a 0a01 	add.w	sl, sl, #1
2fff05b4:	3410      	adds	r4, #16
2fff05b6:	f109 0910 	add.w	r9, r9, #16
2fff05ba:	e7d2      	b.n	2fff0562 <parse_optee_header+0x72>
2fff05bc:	480f      	ldr	r0, [pc, #60]	@ (2fff05fc <parse_optee_header+0x10c>)
2fff05be:	f7f9 fe35 	bl	2ffea22c <tf_log>
2fff05c2:	e7ed      	b.n	2fff05a0 <parse_optee_header+0xb0>
2fff05c4:	4649      	mov	r1, r9
2fff05c6:	4630      	mov	r0, r6
2fff05c8:	e7e7      	b.n	2fff059a <parse_optee_header+0xaa>
2fff05ca:	480d      	ldr	r0, [pc, #52]	@ (2fff0600 <parse_optee_header+0x110>)
2fff05cc:	e7f7      	b.n	2fff05be <parse_optee_header+0xce>
2fff05ce:	bf00      	nop
2fff05d0:	2fff804b 	.word	0x2fff804b
2fff05d4:	2fff8063 	.word	0x2fff8063
2fff05d8:	2fff8073 	.word	0x2fff8073
2fff05dc:	2fff8088 	.word	0x2fff8088
2fff05e0:	2fff809b 	.word	0x2fff809b
2fff05e4:	2fff80b0 	.word	0x2fff80b0
2fff05e8:	2fff80c2 	.word	0x2fff80c2
2fff05ec:	2fff80d5 	.word	0x2fff80d5
2fff05f0:	4554504f 	.word	0x4554504f
2fff05f4:	2fff8150 	.word	0x2fff8150
2fff05f8:	2fff80ec 	.word	0x2fff80ec
2fff05fc:	2fff8115 	.word	0x2fff8115
2fff0600:	2fff8134 	.word	0x2fff8134

2fff0604 <xlat_arch_regime_get_xn_desc>:
2fff0604:	2801      	cmp	r0, #1
2fff0606:	b508      	push	{r3, lr}
2fff0608:	d005      	beq.n	2fff0616 <xlat_arch_regime_get_xn_desc+0x12>
2fff060a:	2802      	cmp	r0, #2
2fff060c:	d007      	beq.n	2fff061e <xlat_arch_regime_get_xn_desc+0x1a>
2fff060e:	4806      	ldr	r0, [pc, #24]	@ (2fff0628 <xlat_arch_regime_get_xn_desc+0x24>)
2fff0610:	2165      	movs	r1, #101	@ 0x65
2fff0612:	f002 fdc1 	bl	2fff3198 <__assert>
2fff0616:	2000      	movs	r0, #0
2fff0618:	f44f 01c0 	mov.w	r1, #6291456	@ 0x600000
2fff061c:	bd08      	pop	{r3, pc}
2fff061e:	2000      	movs	r0, #0
2fff0620:	f44f 0180 	mov.w	r1, #4194304	@ 0x400000
2fff0624:	e7fa      	b.n	2fff061c <xlat_arch_regime_get_xn_desc+0x18>
2fff0626:	bf00      	nop
2fff0628:	2fff8170 	.word	0x2fff8170

2fff062c <xlat_arch_tlbi_va>:
2fff062c:	b508      	push	{r3, lr}
2fff062e:	f3bf 8f4a 	dsb	ishst
2fff0632:	f36f 000b 	bfc	r0, #0, #12
2fff0636:	2901      	cmp	r1, #1
2fff0638:	d102      	bne.n	2fff0640 <xlat_arch_tlbi_va+0x14>
2fff063a:	ee08 0f73 	mcr	15, 0, r0, cr8, cr3, {3}
2fff063e:	bd08      	pop	{r3, pc}
2fff0640:	2902      	cmp	r1, #2
2fff0642:	d003      	beq.n	2fff064c <xlat_arch_tlbi_va+0x20>
2fff0644:	4803      	ldr	r0, [pc, #12]	@ (2fff0654 <xlat_arch_tlbi_va+0x28>)
2fff0646:	2175      	movs	r1, #117	@ 0x75
2fff0648:	f002 fda6 	bl	2fff3198 <__assert>
2fff064c:	ee88 0f33 	mcr	15, 4, r0, cr8, cr3, {1}
2fff0650:	e7f5      	b.n	2fff063e <xlat_arch_tlbi_va+0x12>
2fff0652:	bf00      	nop
2fff0654:	2fff8170 	.word	0x2fff8170

2fff0658 <xlat_arch_current_el>:
2fff0658:	b508      	push	{r3, lr}
2fff065a:	f3ef 8300 	mrs	r3, CPSR
2fff065e:	f003 031f 	and.w	r3, r3, #31
2fff0662:	2b1a      	cmp	r3, #26
2fff0664:	d00f      	beq.n	2fff0686 <xlat_arch_current_el+0x2e>
2fff0666:	f3ef 8300 	mrs	r3, CPSR
2fff066a:	f003 031f 	and.w	r3, r3, #31
2fff066e:	2b13      	cmp	r3, #19
2fff0670:	d00b      	beq.n	2fff068a <xlat_arch_current_el+0x32>
2fff0672:	f3ef 8300 	mrs	r3, CPSR
2fff0676:	f003 031f 	and.w	r3, r3, #31
2fff067a:	2b16      	cmp	r3, #22
2fff067c:	d005      	beq.n	2fff068a <xlat_arch_current_el+0x32>
2fff067e:	4804      	ldr	r0, [pc, #16]	@ (2fff0690 <xlat_arch_current_el+0x38>)
2fff0680:	2199      	movs	r1, #153	@ 0x99
2fff0682:	f002 fd89 	bl	2fff3198 <__assert>
2fff0686:	2002      	movs	r0, #2
2fff0688:	bd08      	pop	{r3, pc}
2fff068a:	2001      	movs	r0, #1
2fff068c:	e7fc      	b.n	2fff0688 <xlat_arch_current_el+0x30>
2fff068e:	bf00      	nop
2fff0690:	2fff8170 	.word	0x2fff8170

2fff0694 <is_mmu_enabled_ctx>:
2fff0694:	b508      	push	{r3, lr}
2fff0696:	6c43      	ldr	r3, [r0, #68]	@ 0x44
2fff0698:	2b01      	cmp	r3, #1
2fff069a:	d10c      	bne.n	2fff06b6 <is_mmu_enabled_ctx+0x22>
2fff069c:	f7ff ffdc 	bl	2fff0658 <xlat_arch_current_el>
2fff06a0:	2801      	cmp	r0, #1
2fff06a2:	d003      	beq.n	2fff06ac <is_mmu_enabled_ctx+0x18>
2fff06a4:	214e      	movs	r1, #78	@ 0x4e
2fff06a6:	480a      	ldr	r0, [pc, #40]	@ (2fff06d0 <is_mmu_enabled_ctx+0x3c>)
2fff06a8:	f002 fd76 	bl	2fff3198 <__assert>
2fff06ac:	ee11 0f10 	mrc	15, 0, r0, cr1, cr0, {0}
2fff06b0:	f000 0001 	and.w	r0, r0, #1
2fff06b4:	bd08      	pop	{r3, pc}
2fff06b6:	2b02      	cmp	r3, #2
2fff06b8:	d001      	beq.n	2fff06be <is_mmu_enabled_ctx+0x2a>
2fff06ba:	2151      	movs	r1, #81	@ 0x51
2fff06bc:	e7f3      	b.n	2fff06a6 <is_mmu_enabled_ctx+0x12>
2fff06be:	f7ff ffcb 	bl	2fff0658 <xlat_arch_current_el>
2fff06c2:	2802      	cmp	r0, #2
2fff06c4:	d001      	beq.n	2fff06ca <is_mmu_enabled_ctx+0x36>
2fff06c6:	2152      	movs	r1, #82	@ 0x52
2fff06c8:	e7ed      	b.n	2fff06a6 <is_mmu_enabled_ctx+0x12>
2fff06ca:	ee91 0f10 	mrc	15, 4, r0, cr1, cr0, {0}
2fff06ce:	e7ef      	b.n	2fff06b0 <is_mmu_enabled_ctx+0x1c>
2fff06d0:	2fff8170 	.word	0x2fff8170

2fff06d4 <setup_mmu_cfg>:
2fff06d4:	b5f8      	push	{r3, r4, r5, r6, r7, lr}
2fff06d6:	460f      	mov	r7, r1
2fff06d8:	4616      	mov	r6, r2
2fff06da:	4604      	mov	r4, r0
2fff06dc:	e9dd 1208 	ldrd	r1, r2, [sp, #32]
2fff06e0:	2a01      	cmp	r2, #1
2fff06e2:	d10f      	bne.n	2fff0704 <setup_mmu_cfg+0x30>
2fff06e4:	f3ef 8200 	mrs	r2, CPSR
2fff06e8:	f002 021f 	and.w	r2, r2, #31
2fff06ec:	2a13      	cmp	r2, #19
2fff06ee:	d015      	beq.n	2fff071c <setup_mmu_cfg+0x48>
2fff06f0:	f3ef 8200 	mrs	r2, CPSR
2fff06f4:	f002 021f 	and.w	r2, r2, #31
2fff06f8:	2a16      	cmp	r2, #22
2fff06fa:	d00f      	beq.n	2fff071c <setup_mmu_cfg+0x48>
2fff06fc:	21c2      	movs	r1, #194	@ 0xc2
2fff06fe:	481c      	ldr	r0, [pc, #112]	@ (2fff0770 <setup_mmu_cfg+0x9c>)
2fff0700:	f002 fd4a 	bl	2fff3198 <__assert>
2fff0704:	2a02      	cmp	r2, #2
2fff0706:	d001      	beq.n	2fff070c <setup_mmu_cfg+0x38>
2fff0708:	21c9      	movs	r1, #201	@ 0xc9
2fff070a:	e7f8      	b.n	2fff06fe <setup_mmu_cfg+0x2a>
2fff070c:	f3ef 8200 	mrs	r2, CPSR
2fff0710:	f002 021f 	and.w	r2, r2, #31
2fff0714:	2a1a      	cmp	r2, #26
2fff0716:	d00a      	beq.n	2fff072e <setup_mmu_cfg+0x5a>
2fff0718:	21ca      	movs	r1, #202	@ 0xca
2fff071a:	e7f0      	b.n	2fff06fe <setup_mmu_cfg+0x2a>
2fff071c:	4d15      	ldr	r5, [pc, #84]	@ (2fff0774 <setup_mmu_cfg+0xa0>)
2fff071e:	1c4a      	adds	r2, r1, #1
2fff0720:	d010      	beq.n	2fff0744 <setup_mmu_cfg+0x70>
2fff0722:	1c48      	adds	r0, r1, #1
2fff0724:	f1b0 7f00 	cmp.w	r0, #33554432	@ 0x2000000
2fff0728:	d203      	bcs.n	2fff0732 <setup_mmu_cfg+0x5e>
2fff072a:	21dd      	movs	r1, #221	@ 0xdd
2fff072c:	e7e7      	b.n	2fff06fe <setup_mmu_cfg+0x2a>
2fff072e:	4d12      	ldr	r5, [pc, #72]	@ (2fff0778 <setup_mmu_cfg+0xa4>)
2fff0730:	e7f5      	b.n	2fff071e <setup_mmu_cfg+0x4a>
2fff0732:	4001      	ands	r1, r0
2fff0734:	d001      	beq.n	2fff073a <setup_mmu_cfg+0x66>
2fff0736:	21df      	movs	r1, #223	@ 0xdf
2fff0738:	e7e1      	b.n	2fff06fe <setup_mmu_cfg+0x2a>
2fff073a:	f003 fd3c 	bl	2fff41b6 <__ctzdi2>
2fff073e:	f1c0 0020 	rsb	r0, r0, #32
2fff0742:	4305      	orrs	r5, r0
2fff0744:	07bb      	lsls	r3, r7, #30
2fff0746:	bf58      	it	pl
2fff0748:	f445 5554 	orrpl.w	r5, r5, #13568	@ 0x3500
2fff074c:	ee10 3fd2 	mrc	15, 0, r3, cr0, cr2, {6}
2fff0750:	480a      	ldr	r0, [pc, #40]	@ (2fff077c <setup_mmu_cfg+0xa8>)
2fff0752:	f413 4f70 	tst.w	r3, #61440	@ 0xf000
2fff0756:	bf18      	it	ne
2fff0758:	f046 0601 	orrne.w	r6, r6, #1
2fff075c:	2300      	movs	r3, #0
2fff075e:	2100      	movs	r1, #0
2fff0760:	e9c4 0100 	strd	r0, r1, [r4]
2fff0764:	e9c4 5302 	strd	r5, r3, [r4, #8]
2fff0768:	e9c4 6304 	strd	r6, r3, [r4, #16]
2fff076c:	bdf8      	pop	{r3, r4, r5, r6, r7, pc}
2fff076e:	bf00      	nop
2fff0770:	2fff8170 	.word	0x2fff8170
2fff0774:	80800000 	.word	0x80800000
2fff0778:	80803500 	.word	0x80803500
2fff077c:	004404ff 	.word	0x004404ff

2fff0780 <mmap_add_region>:
2fff0780:	b57f      	push	{r0, r1, r2, r3, r4, r5, r6, lr}
2fff0782:	e9cd 2302 	strd	r2, r3, [sp, #8]
2fff0786:	9b08      	ldr	r3, [sp, #32]
2fff0788:	e9cd 0100 	strd	r0, r1, [sp]
2fff078c:	9304      	str	r3, [sp, #16]
2fff078e:	4669      	mov	r1, sp
2fff0790:	4804      	ldr	r0, [pc, #16]	@ (2fff07a4 <mmap_add_region+0x24>)
2fff0792:	f04f 4380 	mov.w	r3, #1073741824	@ 0x40000000
2fff0796:	9305      	str	r3, [sp, #20]
2fff0798:	f000 fa48 	bl	2fff0c2c <mmap_add_region_ctx>
2fff079c:	b007      	add	sp, #28
2fff079e:	f85d fb04 	ldr.w	pc, [sp], #4
2fff07a2:	bf00      	nop
2fff07a4:	2fffa000 	.word	0x2fffa000

2fff07a8 <mmap_add>:
2fff07a8:	4601      	mov	r1, r0
2fff07aa:	4801      	ldr	r0, [pc, #4]	@ (2fff07b0 <mmap_add+0x8>)
2fff07ac:	f003 be9d 	b.w	2fff44ea <mmap_add_ctx>
2fff07b0:	2fffa000 	.word	0x2fffa000

2fff07b4 <mmap_add_dynamic_region>:
2fff07b4:	b57f      	push	{r0, r1, r2, r3, r4, r5, r6, lr}
2fff07b6:	e9cd 2302 	strd	r2, r3, [sp, #8]
2fff07ba:	9b08      	ldr	r3, [sp, #32]
2fff07bc:	e9cd 0100 	strd	r0, r1, [sp]
2fff07c0:	9304      	str	r3, [sp, #16]
2fff07c2:	4669      	mov	r1, sp
2fff07c4:	4804      	ldr	r0, [pc, #16]	@ (2fff07d8 <mmap_add_dynamic_region+0x24>)
2fff07c6:	f04f 4380 	mov.w	r3, #1073741824	@ 0x40000000
2fff07ca:	9305      	str	r3, [sp, #20]
2fff07cc:	f000 faa6 	bl	2fff0d1c <mmap_add_dynamic_region_ctx>
2fff07d0:	b007      	add	sp, #28
2fff07d2:	f85d fb04 	ldr.w	pc, [sp], #4
2fff07d6:	bf00      	nop
2fff07d8:	2fffa000 	.word	0x2fffa000

2fff07dc <mmap_remove_dynamic_region>:
2fff07dc:	460a      	mov	r2, r1
2fff07de:	4601      	mov	r1, r0
2fff07e0:	4801      	ldr	r0, [pc, #4]	@ (2fff07e8 <mmap_remove_dynamic_region+0xc>)
2fff07e2:	f000 bb45 	b.w	2fff0e70 <mmap_remove_dynamic_region_ctx>
2fff07e6:	bf00      	nop
2fff07e8:	2fffa000 	.word	0x2fffa000

2fff07ec <init_xlat_tables>:
2fff07ec:	b510      	push	{r4, lr}
2fff07ee:	4c0c      	ldr	r4, [pc, #48]	@ (2fff0820 <init_xlat_tables+0x34>)
2fff07f0:	6c63      	ldr	r3, [r4, #68]	@ 0x44
2fff07f2:	3301      	adds	r3, #1
2fff07f4:	d003      	beq.n	2fff07fe <init_xlat_tables+0x12>
2fff07f6:	2161      	movs	r1, #97	@ 0x61
2fff07f8:	480a      	ldr	r0, [pc, #40]	@ (2fff0824 <init_xlat_tables+0x38>)
2fff07fa:	f002 fccd 	bl	2fff3198 <__assert>
2fff07fe:	f7ff ff2b 	bl	2fff0658 <xlat_arch_current_el>
2fff0802:	2801      	cmp	r0, #1
2fff0804:	d005      	beq.n	2fff0812 <init_xlat_tables+0x26>
2fff0806:	2802      	cmp	r0, #2
2fff0808:	d003      	beq.n	2fff0812 <init_xlat_tables+0x26>
2fff080a:	2803      	cmp	r0, #3
2fff080c:	d001      	beq.n	2fff0812 <init_xlat_tables+0x26>
2fff080e:	216a      	movs	r1, #106	@ 0x6a
2fff0810:	e7f2      	b.n	2fff07f8 <init_xlat_tables+0xc>
2fff0812:	6460      	str	r0, [r4, #68]	@ 0x44
2fff0814:	e8bd 4010 	ldmia.w	sp!, {r4, lr}
2fff0818:	4801      	ldr	r0, [pc, #4]	@ (2fff0820 <init_xlat_tables+0x34>)
2fff081a:	f000 bbad 	b.w	2fff0f78 <init_xlat_tables_ctx>
2fff081e:	bf00      	nop
2fff0820:	2fffa000 	.word	0x2fffa000
2fff0824:	2fff819e 	.word	0x2fff819e

2fff0828 <enable_mmu_svc_mon>:
2fff0828:	b51f      	push	{r0, r1, r2, r3, r4, lr}
2fff082a:	2201      	movs	r2, #1
2fff082c:	4b09      	ldr	r3, [pc, #36]	@ (2fff0854 <enable_mmu_svc_mon+0x2c>)
2fff082e:	4604      	mov	r4, r0
2fff0830:	9203      	str	r2, [sp, #12]
2fff0832:	689a      	ldr	r2, [r3, #8]
2fff0834:	9202      	str	r2, [sp, #8]
2fff0836:	e9d3 0100 	ldrd	r0, r1, [r3]
2fff083a:	e9cd 0100 	strd	r0, r1, [sp]
2fff083e:	4806      	ldr	r0, [pc, #24]	@ (2fff0858 <enable_mmu_svc_mon+0x30>)
2fff0840:	4621      	mov	r1, r4
2fff0842:	6a5a      	ldr	r2, [r3, #36]	@ 0x24
2fff0844:	f7ff ff46 	bl	2fff06d4 <setup_mmu_cfg>
2fff0848:	4620      	mov	r0, r4
2fff084a:	b004      	add	sp, #16
2fff084c:	e8bd 4010 	ldmia.w	sp!, {r4, lr}
2fff0850:	f008 be2a 	b.w	2fff94a8 <__enable_mmu_direct_svc_mon_from_thumb>
2fff0854:	2fffa000 	.word	0x2fffa000
2fff0858:	2fffb370 	.word	0x2fffb370

2fff085c <xlat_table_get_index>:
2fff085c:	4603      	mov	r3, r0
2fff085e:	b510      	push	{r4, lr}
2fff0860:	6984      	ldr	r4, [r0, #24]
2fff0862:	2000      	movs	r0, #0
2fff0864:	4284      	cmp	r4, r0
2fff0866:	dc03      	bgt.n	2fff0870 <xlat_table_get_index+0x14>
2fff0868:	4805      	ldr	r0, [pc, #20]	@ (2fff0880 <xlat_table_get_index+0x24>)
2fff086a:	2135      	movs	r1, #53	@ 0x35
2fff086c:	f002 fc94 	bl	2fff3198 <__assert>
2fff0870:	695a      	ldr	r2, [r3, #20]
2fff0872:	eb02 3200 	add.w	r2, r2, r0, lsl #12
2fff0876:	4291      	cmp	r1, r2
2fff0878:	d001      	beq.n	2fff087e <xlat_table_get_index+0x22>
2fff087a:	3001      	adds	r0, #1
2fff087c:	e7f2      	b.n	2fff0864 <xlat_table_get_index+0x8>
2fff087e:	bd10      	pop	{r4, pc}
2fff0880:	2fff81c7 	.word	0x2fff81c7

2fff0884 <xlat_tables_unmap_region>:
2fff0884:	e92d 4ff0 	stmdb	sp!, {r4, r5, r6, r7, r8, r9, sl, fp, lr}
2fff0888:	b087      	sub	sp, #28
2fff088a:	4605      	mov	r5, r0
2fff088c:	460f      	mov	r7, r1
2fff088e:	9e11      	ldr	r6, [sp, #68]	@ 0x44
2fff0890:	4614      	mov	r4, r2
2fff0892:	9302      	str	r3, [sp, #8]
2fff0894:	6bc3      	ldr	r3, [r0, #60]	@ 0x3c
2fff0896:	42b3      	cmp	r3, r6
2fff0898:	d801      	bhi.n	2fff089e <xlat_tables_unmap_region+0x1a>
2fff089a:	2e03      	cmp	r6, #3
2fff089c:	d904      	bls.n	2fff08a8 <xlat_tables_unmap_region+0x24>
2fff089e:	f240 116b 	movw	r1, #363	@ 0x16b
2fff08a2:	4845      	ldr	r0, [pc, #276]	@ (2fff09b8 <xlat_tables_unmap_region+0x134>)
2fff08a4:	f002 fc78 	bl	2fff3198 <__assert>
2fff08a8:	e9d1 1302 	ldrd	r1, r3, [r1, #8]
2fff08ac:	2201      	movs	r2, #1
2fff08ae:	440b      	add	r3, r1
2fff08b0:	42a1      	cmp	r1, r4
2fff08b2:	f103 33ff 	add.w	r3, r3, #4294967295	@ 0xffffffff
2fff08b6:	9303      	str	r3, [sp, #12]
2fff08b8:	f06f 0308 	mvn.w	r3, #8
2fff08bc:	fb06 f303 	mul.w	r3, r6, r3
2fff08c0:	f103 0327 	add.w	r3, r3, #39	@ 0x27
2fff08c4:	fa02 fa03 	lsl.w	sl, r2, r3
2fff08c8:	bf92      	itee	ls
2fff08ca:	4622      	movls	r2, r4
2fff08cc:	f1ca 0200 	rsbhi	r2, sl, #0
2fff08d0:	400a      	andhi	r2, r1
2fff08d2:	1b14      	subs	r4, r2, r4
2fff08d4:	40dc      	lsrs	r4, r3
2fff08d6:	9b02      	ldr	r3, [sp, #8]
2fff08d8:	eb03 09c4 	add.w	r9, r3, r4, lsl #3
2fff08dc:	9b10      	ldr	r3, [sp, #64]	@ 0x40
2fff08de:	429c      	cmp	r4, r3
2fff08e0:	d257      	bcs.n	2fff0992 <xlat_tables_unmap_region+0x10e>
2fff08e2:	e9d7 0302 	ldrd	r0, r3, [r7, #8]
2fff08e6:	f8d9 8000 	ldr.w	r8, [r9]
2fff08ea:	4282      	cmp	r2, r0
2fff08ec:	eb02 0b0a 	add.w	fp, r2, sl
2fff08f0:	f008 0103 	and.w	r1, r8, #3
2fff08f4:	4403      	add	r3, r0
2fff08f6:	f10b 3cff 	add.w	ip, fp, #4294967295	@ 0xffffffff
2fff08fa:	f103 33ff 	add.w	r3, r3, #4294967295	@ 0xffffffff
2fff08fe:	d30f      	bcc.n	2fff0920 <xlat_tables_unmap_region+0x9c>
2fff0900:	4563      	cmp	r3, ip
2fff0902:	d30d      	bcc.n	2fff0920 <xlat_tables_unmap_region+0x9c>
2fff0904:	2e03      	cmp	r6, #3
2fff0906:	f1a1 0303 	sub.w	r3, r1, #3
2fff090a:	d103      	bne.n	2fff0914 <xlat_tables_unmap_region+0x90>
2fff090c:	b39b      	cbz	r3, 2fff0976 <xlat_tables_unmap_region+0xf2>
2fff090e:	f44f 719c 	mov.w	r1, #312	@ 0x138
2fff0912:	e7c6      	b.n	2fff08a2 <xlat_tables_unmap_region+0x1e>
2fff0914:	b193      	cbz	r3, 2fff093c <xlat_tables_unmap_region+0xb8>
2fff0916:	2901      	cmp	r1, #1
2fff0918:	d02d      	beq.n	2fff0976 <xlat_tables_unmap_region+0xf2>
2fff091a:	f240 1147 	movw	r1, #327	@ 0x147
2fff091e:	e7c0      	b.n	2fff08a2 <xlat_tables_unmap_region+0x1e>
2fff0920:	4560      	cmp	r0, ip
2fff0922:	d901      	bls.n	2fff0928 <xlat_tables_unmap_region+0xa4>
2fff0924:	429a      	cmp	r2, r3
2fff0926:	d82e      	bhi.n	2fff0986 <xlat_tables_unmap_region+0x102>
2fff0928:	2e03      	cmp	r6, #3
2fff092a:	d102      	bne.n	2fff0932 <xlat_tables_unmap_region+0xae>
2fff092c:	f44f 71ab 	mov.w	r1, #342	@ 0x156
2fff0930:	e7b7      	b.n	2fff08a2 <xlat_tables_unmap_region+0x1e>
2fff0932:	2903      	cmp	r1, #3
2fff0934:	d002      	beq.n	2fff093c <xlat_tables_unmap_region+0xb8>
2fff0936:	f240 1157 	movw	r1, #343	@ 0x157
2fff093a:	e7b2      	b.n	2fff08a2 <xlat_tables_unmap_region+0x1e>
2fff093c:	f36f 080b 	bfc	r8, #0, #12
2fff0940:	1c73      	adds	r3, r6, #1
2fff0942:	9301      	str	r3, [sp, #4]
2fff0944:	f44f 7300 	mov.w	r3, #512	@ 0x200
2fff0948:	9300      	str	r3, [sp, #0]
2fff094a:	4639      	mov	r1, r7
2fff094c:	9205      	str	r2, [sp, #20]
2fff094e:	4643      	mov	r3, r8
2fff0950:	4628      	mov	r0, r5
2fff0952:	f7ff ff97 	bl	2fff0884 <xlat_tables_unmap_region>
2fff0956:	f44f 5180 	mov.w	r1, #4096	@ 0x1000
2fff095a:	4640      	mov	r0, r8
2fff095c:	f003 fdb8 	bl	2fff44d0 <xlat_clean_dcache_range>
2fff0960:	69eb      	ldr	r3, [r5, #28]
2fff0962:	4641      	mov	r1, r8
2fff0964:	4628      	mov	r0, r5
2fff0966:	9304      	str	r3, [sp, #16]
2fff0968:	f7ff ff78 	bl	2fff085c <xlat_table_get_index>
2fff096c:	9b04      	ldr	r3, [sp, #16]
2fff096e:	9a05      	ldr	r2, [sp, #20]
2fff0970:	f853 3020 	ldr.w	r3, [r3, r0, lsl #2]
2fff0974:	b93b      	cbnz	r3, 2fff0986 <xlat_tables_unmap_region+0x102>
2fff0976:	2000      	movs	r0, #0
2fff0978:	2100      	movs	r1, #0
2fff097a:	e9c9 0100 	strd	r0, r1, [r9]
2fff097e:	6c69      	ldr	r1, [r5, #68]	@ 0x44
2fff0980:	4610      	mov	r0, r2
2fff0982:	f7ff fe53 	bl	2fff062c <xlat_arch_tlbi_va>
2fff0986:	9b03      	ldr	r3, [sp, #12]
2fff0988:	3401      	adds	r4, #1
2fff098a:	f109 0908 	add.w	r9, r9, #8
2fff098e:	459b      	cmp	fp, r3
2fff0990:	d30f      	bcc.n	2fff09b2 <xlat_tables_unmap_region+0x12e>
2fff0992:	6beb      	ldr	r3, [r5, #60]	@ 0x3c
2fff0994:	42b3      	cmp	r3, r6
2fff0996:	d209      	bcs.n	2fff09ac <xlat_tables_unmap_region+0x128>
2fff0998:	9902      	ldr	r1, [sp, #8]
2fff099a:	4628      	mov	r0, r5
2fff099c:	f7ff ff5e 	bl	2fff085c <xlat_table_get_index>
2fff09a0:	69ea      	ldr	r2, [r5, #28]
2fff09a2:	f852 3020 	ldr.w	r3, [r2, r0, lsl #2]
2fff09a6:	3b01      	subs	r3, #1
2fff09a8:	f842 3020 	str.w	r3, [r2, r0, lsl #2]
2fff09ac:	b007      	add	sp, #28
2fff09ae:	e8bd 8ff0 	ldmia.w	sp!, {r4, r5, r6, r7, r8, r9, sl, fp, pc}
2fff09b2:	465a      	mov	r2, fp
2fff09b4:	e792      	b.n	2fff08dc <xlat_tables_unmap_region+0x58>
2fff09b6:	bf00      	nop
2fff09b8:	2fff81c7 	.word	0x2fff81c7

2fff09bc <xlat_desc>:
2fff09bc:	e92d 41f0 	stmdb	sp!, {r4, r5, r6, r7, r8, lr}
2fff09c0:	461e      	mov	r6, r3
2fff09c2:	9b06      	ldr	r3, [sp, #24]
2fff09c4:	460d      	mov	r5, r1
2fff09c6:	f06f 0108 	mvn.w	r1, #8
2fff09ca:	4614      	mov	r4, r2
2fff09cc:	4359      	muls	r1, r3
2fff09ce:	2201      	movs	r2, #1
2fff09d0:	4607      	mov	r7, r0
2fff09d2:	3127      	adds	r1, #39	@ 0x27
2fff09d4:	408a      	lsls	r2, r1
2fff09d6:	3a01      	subs	r2, #1
2fff09d8:	4222      	tst	r2, r4
2fff09da:	d003      	beq.n	2fff09e4 <xlat_desc+0x28>
2fff09dc:	2173      	movs	r1, #115	@ 0x73
2fff09de:	4827      	ldr	r0, [pc, #156]	@ (2fff0a7c <xlat_desc+0xc0>)
2fff09e0:	f002 fbda 	bl	2fff3198 <__assert>
2fff09e4:	2b03      	cmp	r3, #3
2fff09e6:	4628      	mov	r0, r5
2fff09e8:	bf14      	ite	ne
2fff09ea:	f04f 0801 	movne.w	r8, #1
2fff09ee:	f04f 0803 	moveq.w	r8, #3
2fff09f2:	f003 fcb1 	bl	2fff4358 <xlat_arch_get_pas>
2fff09f6:	f085 0308 	eor.w	r3, r5, #8
2fff09fa:	f3c3 03c0 	ubfx	r3, r3, #3, #1
2fff09fe:	ea44 14c3 	orr.w	r4, r4, r3, lsl #7
2fff0a02:	ea44 0408 	orr.w	r4, r4, r8
2fff0a06:	4304      	orrs	r4, r0
2fff0a08:	6c78      	ldr	r0, [r7, #68]	@ 0x44
2fff0a0a:	2801      	cmp	r0, #1
2fff0a0c:	d110      	bne.n	2fff0a30 <xlat_desc+0x74>
2fff0a0e:	062b      	lsls	r3, r5, #24
2fff0a10:	d413      	bmi.n	2fff0a3a <xlat_desc+0x7e>
2fff0a12:	f444 6480 	orr.w	r4, r4, #1024	@ 0x400
2fff0a16:	f015 0707 	ands.w	r7, r5, #7
2fff0a1a:	4631      	mov	r1, r6
2fff0a1c:	d110      	bne.n	2fff0a40 <xlat_desc+0x84>
2fff0a1e:	f7ff fdf1 	bl	2fff0604 <xlat_arch_regime_get_xn_desc>
2fff0a22:	4320      	orrs	r0, r4
2fff0a24:	4331      	orrs	r1, r6
2fff0a26:	f440 7401 	orr.w	r4, r0, #516	@ 0x204
2fff0a2a:	4620      	mov	r0, r4
2fff0a2c:	e8bd 81f0 	ldmia.w	sp!, {r4, r5, r6, r7, r8, pc}
2fff0a30:	1e83      	subs	r3, r0, #2
2fff0a32:	2b01      	cmp	r3, #1
2fff0a34:	d901      	bls.n	2fff0a3a <xlat_desc+0x7e>
2fff0a36:	2198      	movs	r1, #152	@ 0x98
2fff0a38:	e7d1      	b.n	2fff09de <xlat_desc+0x22>
2fff0a3a:	f444 6488 	orr.w	r4, r4, #1088	@ 0x440
2fff0a3e:	e7ea      	b.n	2fff0a16 <xlat_desc+0x5a>
2fff0a40:	f015 0f48 	tst.w	r5, #72	@ 0x48
2fff0a44:	d003      	beq.n	2fff0a4e <xlat_desc+0x92>
2fff0a46:	f7ff fddd 	bl	2fff0604 <xlat_arch_regime_get_xn_desc>
2fff0a4a:	4304      	orrs	r4, r0
2fff0a4c:	4331      	orrs	r1, r6
2fff0a4e:	2f02      	cmp	r7, #2
2fff0a50:	d10c      	bne.n	2fff0a6c <xlat_desc+0xb0>
2fff0a52:	f405 7040 	and.w	r0, r5, #768	@ 0x300
2fff0a56:	f5b0 7f40 	cmp.w	r0, #768	@ 0x300
2fff0a5a:	d0e6      	beq.n	2fff0a2a <xlat_desc+0x6e>
2fff0a5c:	f5b0 7f00 	cmp.w	r0, #512	@ 0x200
2fff0a60:	bf0c      	ite	eq
2fff0a62:	f444 7400 	orreq.w	r4, r4, #512	@ 0x200
2fff0a66:	f444 7440 	orrne.w	r4, r4, #768	@ 0x300
2fff0a6a:	e7de      	b.n	2fff0a2a <xlat_desc+0x6e>
2fff0a6c:	2f01      	cmp	r7, #1
2fff0a6e:	d001      	beq.n	2fff0a74 <xlat_desc+0xb8>
2fff0a70:	21e0      	movs	r1, #224	@ 0xe0
2fff0a72:	e7b4      	b.n	2fff09de <xlat_desc+0x22>
2fff0a74:	f444 7402 	orr.w	r4, r4, #520	@ 0x208
2fff0a78:	e7d7      	b.n	2fff0a2a <xlat_desc+0x6e>
2fff0a7a:	bf00      	nop
2fff0a7c:	2fff81c7 	.word	0x2fff81c7

2fff0a80 <xlat_tables_map_region>:
2fff0a80:	e92d 4ff0 	stmdb	sp!, {r4, r5, r6, r7, r8, r9, sl, fp, lr}
2fff0a84:	b087      	sub	sp, #28
2fff0a86:	460d      	mov	r5, r1
2fff0a88:	4607      	mov	r7, r0
2fff0a8a:	f8dd 8044 	ldr.w	r8, [sp, #68]	@ 0x44
2fff0a8e:	4614      	mov	r4, r2
2fff0a90:	6bc1      	ldr	r1, [r0, #60]	@ 0x3c
2fff0a92:	461e      	mov	r6, r3
2fff0a94:	4541      	cmp	r1, r8
2fff0a96:	d802      	bhi.n	2fff0a9e <xlat_tables_map_region+0x1e>
2fff0a98:	f1b8 0f03 	cmp.w	r8, #3
2fff0a9c:	d904      	bls.n	2fff0aa8 <xlat_tables_map_region+0x28>
2fff0a9e:	f44f 7110 	mov.w	r1, #576	@ 0x240
2fff0aa2:	4861      	ldr	r0, [pc, #388]	@ (2fff0c28 <xlat_tables_map_region+0x1a8>)
2fff0aa4:	f002 fb78 	bl	2fff3198 <__assert>
2fff0aa8:	e9d5 0302 	ldrd	r0, r3, [r5, #8]
2fff0aac:	f06f 0908 	mvn.w	r9, #8
2fff0ab0:	f04f 0b01 	mov.w	fp, #1
2fff0ab4:	fb09 f908 	mul.w	r9, r9, r8
2fff0ab8:	4403      	add	r3, r0
2fff0aba:	4290      	cmp	r0, r2
2fff0abc:	f103 33ff 	add.w	r3, r3, #4294967295	@ 0xffffffff
2fff0ac0:	9304      	str	r3, [sp, #16]
2fff0ac2:	f109 0327 	add.w	r3, r9, #39	@ 0x27
2fff0ac6:	9303      	str	r3, [sp, #12]
2fff0ac8:	bf98      	it	ls
2fff0aca:	46a1      	movls	r9, r4
2fff0acc:	fa0b fb03 	lsl.w	fp, fp, r3
2fff0ad0:	9b03      	ldr	r3, [sp, #12]
2fff0ad2:	bf84      	itt	hi
2fff0ad4:	f1cb 0200 	rsbhi	r2, fp, #0
2fff0ad8:	ea02 0900 	andhi.w	r9, r2, r0
2fff0adc:	eba9 0404 	sub.w	r4, r9, r4
2fff0ae0:	4541      	cmp	r1, r8
2fff0ae2:	fa24 f403 	lsr.w	r4, r4, r3
2fff0ae6:	d209      	bcs.n	2fff0afc <xlat_tables_map_region+0x7c>
2fff0ae8:	4631      	mov	r1, r6
2fff0aea:	4638      	mov	r0, r7
2fff0aec:	f7ff feb6 	bl	2fff085c <xlat_table_get_index>
2fff0af0:	69f9      	ldr	r1, [r7, #28]
2fff0af2:	f851 3020 	ldr.w	r3, [r1, r0, lsl #2]
2fff0af6:	3301      	adds	r3, #1
2fff0af8:	f841 3020 	str.w	r3, [r1, r0, lsl #2]
2fff0afc:	eb06 06c4 	add.w	r6, r6, r4, lsl #3
2fff0b00:	e069      	b.n	2fff0bd6 <xlat_tables_map_region+0x156>
2fff0b02:	e9d5 3200 	ldrd	r3, r2, [r5]
2fff0b06:	f8d5 c008 	ldr.w	ip, [r5, #8]
2fff0b0a:	68e8      	ldr	r0, [r5, #12]
2fff0b0c:	9205      	str	r2, [sp, #20]
2fff0b0e:	45cc      	cmp	ip, r9
2fff0b10:	6832      	ldr	r2, [r6, #0]
2fff0b12:	4460      	add	r0, ip
2fff0b14:	eb09 0a0b 	add.w	sl, r9, fp
2fff0b18:	f002 0103 	and.w	r1, r2, #3
2fff0b1c:	f100 30ff 	add.w	r0, r0, #4294967295	@ 0xffffffff
2fff0b20:	f10a 3eff 	add.w	lr, sl, #4294967295	@ 0xffffffff
2fff0b24:	d837      	bhi.n	2fff0b96 <xlat_tables_map_region+0x116>
2fff0b26:	4586      	cmp	lr, r0
2fff0b28:	d835      	bhi.n	2fff0b96 <xlat_tables_map_region+0x116>
2fff0b2a:	9805      	ldr	r0, [sp, #20]
2fff0b2c:	ebb3 030c 	subs.w	r3, r3, ip
2fff0b30:	f160 0c00 	sbc.w	ip, r0, #0
2fff0b34:	eb13 0009 	adds.w	r0, r3, r9
2fff0b38:	f14c 0300 	adc.w	r3, ip, #0
2fff0b3c:	f1b8 0f03 	cmp.w	r8, #3
2fff0b40:	d106      	bne.n	2fff0b50 <xlat_tables_map_region+0xd0>
2fff0b42:	2903      	cmp	r1, #3
2fff0b44:	d041      	beq.n	2fff0bca <xlat_tables_map_region+0x14a>
2fff0b46:	2900      	cmp	r1, #0
2fff0b48:	d036      	beq.n	2fff0bb8 <xlat_tables_map_region+0x138>
2fff0b4a:	f240 11d7 	movw	r1, #471	@ 0x1d7
2fff0b4e:	e7a8      	b.n	2fff0aa2 <xlat_tables_map_region+0x22>
2fff0b50:	2903      	cmp	r1, #3
2fff0b52:	d064      	beq.n	2fff0c1e <xlat_tables_map_region+0x19e>
2fff0b54:	b9d1      	cbnz	r1, 2fff0b8c <xlat_tables_map_region+0x10c>
2fff0b56:	f10b 31ff 	add.w	r1, fp, #4294967295	@ 0xffffffff
2fff0b5a:	4201      	tst	r1, r0
2fff0b5c:	d106      	bne.n	2fff0b6c <xlat_tables_map_region+0xec>
2fff0b5e:	f1b8 0f00 	cmp.w	r8, #0
2fff0b62:	d003      	beq.n	2fff0b6c <xlat_tables_map_region+0xec>
2fff0b64:	6969      	ldr	r1, [r5, #20]
2fff0b66:	9a03      	ldr	r2, [sp, #12]
2fff0b68:	40d1      	lsrs	r1, r2
2fff0b6a:	d125      	bne.n	2fff0bb8 <xlat_tables_map_region+0x138>
2fff0b6c:	69b8      	ldr	r0, [r7, #24]
2fff0b6e:	2300      	movs	r3, #0
2fff0b70:	4283      	cmp	r3, r0
2fff0b72:	da07      	bge.n	2fff0b84 <xlat_tables_map_region+0x104>
2fff0b74:	69f9      	ldr	r1, [r7, #28]
2fff0b76:	f851 1023 	ldr.w	r1, [r1, r3, lsl #2]
2fff0b7a:	bb91      	cbnz	r1, 2fff0be2 <xlat_tables_map_region+0x162>
2fff0b7c:	6978      	ldr	r0, [r7, #20]
2fff0b7e:	eb10 3303 	adds.w	r3, r0, r3, lsl #12
2fff0b82:	d130      	bne.n	2fff0be6 <xlat_tables_map_region+0x166>
2fff0b84:	4648      	mov	r0, r9
2fff0b86:	b007      	add	sp, #28
2fff0b88:	e8bd 8ff0 	ldmia.w	sp!, {r4, r5, r6, r7, r8, r9, sl, fp, pc}
2fff0b8c:	2901      	cmp	r1, #1
2fff0b8e:	d01c      	beq.n	2fff0bca <xlat_tables_map_region+0x14a>
2fff0b90:	f44f 71ff 	mov.w	r1, #510	@ 0x1fe
2fff0b94:	e785      	b.n	2fff0aa2 <xlat_tables_map_region+0x22>
2fff0b96:	45f4      	cmp	ip, lr
2fff0b98:	d901      	bls.n	2fff0b9e <xlat_tables_map_region+0x11e>
2fff0b9a:	4581      	cmp	r9, r0
2fff0b9c:	d815      	bhi.n	2fff0bca <xlat_tables_map_region+0x14a>
2fff0b9e:	f1b8 0f03 	cmp.w	r8, #3
2fff0ba2:	d102      	bne.n	2fff0baa <xlat_tables_map_region+0x12a>
2fff0ba4:	f240 2113 	movw	r1, #531	@ 0x213
2fff0ba8:	e77b      	b.n	2fff0aa2 <xlat_tables_map_region+0x22>
2fff0baa:	2900      	cmp	r1, #0
2fff0bac:	d0de      	beq.n	2fff0b6c <xlat_tables_map_region+0xec>
2fff0bae:	2903      	cmp	r1, #3
2fff0bb0:	d035      	beq.n	2fff0c1e <xlat_tables_map_region+0x19e>
2fff0bb2:	f240 211e 	movw	r1, #542	@ 0x21e
2fff0bb6:	e774      	b.n	2fff0aa2 <xlat_tables_map_region+0x22>
2fff0bb8:	f8cd 8000 	str.w	r8, [sp]
2fff0bbc:	4602      	mov	r2, r0
2fff0bbe:	6929      	ldr	r1, [r5, #16]
2fff0bc0:	4638      	mov	r0, r7
2fff0bc2:	f7ff fefb 	bl	2fff09bc <xlat_desc>
2fff0bc6:	e9c6 0100 	strd	r0, r1, [r6]
2fff0bca:	9b04      	ldr	r3, [sp, #16]
2fff0bcc:	3401      	adds	r4, #1
2fff0bce:	3608      	adds	r6, #8
2fff0bd0:	46d1      	mov	r9, sl
2fff0bd2:	4553      	cmp	r3, sl
2fff0bd4:	d902      	bls.n	2fff0bdc <xlat_tables_map_region+0x15c>
2fff0bd6:	9b10      	ldr	r3, [sp, #64]	@ 0x40
2fff0bd8:	429c      	cmp	r4, r3
2fff0bda:	d392      	bcc.n	2fff0b02 <xlat_tables_map_region+0x82>
2fff0bdc:	f109 39ff 	add.w	r9, r9, #4294967295	@ 0xffffffff
2fff0be0:	e7d0      	b.n	2fff0b84 <xlat_tables_map_region+0x104>
2fff0be2:	3301      	adds	r3, #1
2fff0be4:	e7c4      	b.n	2fff0b70 <xlat_tables_map_region+0xf0>
2fff0be6:	f043 0003 	orr.w	r0, r3, #3
2fff0bea:	e9c6 0100 	strd	r0, r1, [r6]
2fff0bee:	9305      	str	r3, [sp, #20]
2fff0bf0:	f108 0101 	add.w	r1, r8, #1
2fff0bf4:	9101      	str	r1, [sp, #4]
2fff0bf6:	f44f 7100 	mov.w	r1, #512	@ 0x200
2fff0bfa:	9100      	str	r1, [sp, #0]
2fff0bfc:	464a      	mov	r2, r9
2fff0bfe:	4629      	mov	r1, r5
2fff0c00:	4638      	mov	r0, r7
2fff0c02:	f7ff ff3d 	bl	2fff0a80 <xlat_tables_map_region>
2fff0c06:	9b05      	ldr	r3, [sp, #20]
2fff0c08:	4681      	mov	r9, r0
2fff0c0a:	f44f 5180 	mov.w	r1, #4096	@ 0x1000
2fff0c0e:	4618      	mov	r0, r3
2fff0c10:	f003 fc5e 	bl	2fff44d0 <xlat_clean_dcache_range>
2fff0c14:	f10a 33ff 	add.w	r3, sl, #4294967295	@ 0xffffffff
2fff0c18:	4599      	cmp	r9, r3
2fff0c1a:	d0d6      	beq.n	2fff0bca <xlat_tables_map_region+0x14a>
2fff0c1c:	e7b2      	b.n	2fff0b84 <xlat_tables_map_region+0x104>
2fff0c1e:	f422 637f 	bic.w	r3, r2, #4080	@ 0xff0
2fff0c22:	f023 030f 	bic.w	r3, r3, #15
2fff0c26:	e7e2      	b.n	2fff0bee <xlat_tables_map_region+0x16e>
2fff0c28:	2fff81c7 	.word	0x2fff81c7

2fff0c2c <mmap_add_region_ctx>:
2fff0c2c:	e92d 4ff7 	stmdb	sp!, {r0, r1, r2, r4, r5, r6, r7, r8, r9, sl, fp, lr}
2fff0c30:	4606      	mov	r6, r0
2fff0c32:	e9d1 7300 	ldrd	r7, r3, [r1]
2fff0c36:	e9d1 4902 	ldrd	r4, r9, [r1, #8]
2fff0c3a:	f8d0 800c 	ldr.w	r8, [r0, #12]
2fff0c3e:	460d      	mov	r5, r1
2fff0c40:	f8d0 b010 	ldr.w	fp, [r0, #16]
2fff0c44:	9301      	str	r3, [sp, #4]
2fff0c46:	f1b9 0f00 	cmp.w	r9, #0
2fff0c4a:	d05f      	beq.n	2fff0d0c <mmap_add_region_ctx+0xe0>
2fff0c4c:	f890 3040 	ldrb.w	r3, [r0, #64]	@ 0x40
2fff0c50:	b123      	cbz	r3, 2fff0c5c <mmap_add_region_ctx+0x30>
2fff0c52:	f44f 7145 	mov.w	r1, #788	@ 0x314
2fff0c56:	482f      	ldr	r0, [pc, #188]	@ (2fff0d14 <mmap_add_region_ctx+0xe8>)
2fff0c58:	f002 fa9e 	bl	2fff3198 <__assert>
2fff0c5c:	f003 fba1 	bl	2fff43a2 <mmap_add_region_check>
2fff0c60:	4601      	mov	r1, r0
2fff0c62:	b9b8      	cbnz	r0, 2fff0c94 <mmap_add_region_ctx+0x68>
2fff0c64:	eb09 0204 	add.w	r2, r9, r4
2fff0c68:	4644      	mov	r4, r8
2fff0c6a:	f102 3aff 	add.w	sl, r2, #4294967295	@ 0xffffffff
2fff0c6e:	e9d4 3102 	ldrd	r3, r1, [r4, #8]
2fff0c72:	440b      	add	r3, r1
2fff0c74:	3b01      	subs	r3, #1
2fff0c76:	4553      	cmp	r3, sl
2fff0c78:	d200      	bcs.n	2fff0c7c <mmap_add_region_ctx+0x50>
2fff0c7a:	b989      	cbnz	r1, 2fff0ca0 <mmap_add_region_ctx+0x74>
2fff0c7c:	e9d4 3102 	ldrd	r3, r1, [r4, #8]
2fff0c80:	440b      	add	r3, r1
2fff0c82:	429a      	cmp	r2, r3
2fff0c84:	d102      	bne.n	2fff0c8c <mmap_add_region_ctx+0x60>
2fff0c86:	b109      	cbz	r1, 2fff0c8c <mmap_add_region_ctx+0x60>
2fff0c88:	4589      	cmp	r9, r1
2fff0c8a:	d80b      	bhi.n	2fff0ca4 <mmap_add_region_ctx+0x78>
2fff0c8c:	2318      	movs	r3, #24
2fff0c8e:	fb03 8b0b 	mla	fp, r3, fp, r8
2fff0c92:	e00b      	b.n	2fff0cac <mmap_add_region_ctx+0x80>
2fff0c94:	4820      	ldr	r0, [pc, #128]	@ (2fff0d18 <mmap_add_region_ctx+0xec>)
2fff0c96:	f7f9 fac9 	bl	2ffea22c <tf_log>
2fff0c9a:	f240 3119 	movw	r1, #793	@ 0x319
2fff0c9e:	e7da      	b.n	2fff0c56 <mmap_add_region_ctx+0x2a>
2fff0ca0:	3418      	adds	r4, #24
2fff0ca2:	e7e4      	b.n	2fff0c6e <mmap_add_region_ctx+0x42>
2fff0ca4:	3418      	adds	r4, #24
2fff0ca6:	e7e9      	b.n	2fff0c7c <mmap_add_region_ctx+0x50>
2fff0ca8:	f108 0818 	add.w	r8, r8, #24
2fff0cac:	f8d8 300c 	ldr.w	r3, [r8, #12]
2fff0cb0:	b123      	cbz	r3, 2fff0cbc <mmap_add_region_ctx+0x90>
2fff0cb2:	45d8      	cmp	r8, fp
2fff0cb4:	d3f8      	bcc.n	2fff0ca8 <mmap_add_region_ctx+0x7c>
2fff0cb6:	f44f 7153 	mov.w	r1, #844	@ 0x34c
2fff0cba:	e7cc      	b.n	2fff0c56 <mmap_add_region_ctx+0x2a>
2fff0cbc:	eba8 0204 	sub.w	r2, r8, r4
2fff0cc0:	4621      	mov	r1, r4
2fff0cc2:	f104 0018 	add.w	r0, r4, #24
2fff0cc6:	f004 f923 	bl	2fff4f10 <memmove>
2fff0cca:	f8db 300c 	ldr.w	r3, [fp, #12]
2fff0cce:	b113      	cbz	r3, 2fff0cd6 <mmap_add_region_ctx+0xaa>
2fff0cd0:	f44f 7156 	mov.w	r1, #856	@ 0x358
2fff0cd4:	e7bf      	b.n	2fff0c56 <mmap_add_region_ctx+0x2a>
2fff0cd6:	9b01      	ldr	r3, [sp, #4]
2fff0cd8:	3f01      	subs	r7, #1
2fff0cda:	f143 3cff 	adc.w	ip, r3, #4294967295	@ 0xffffffff
2fff0cde:	cd0f      	ldmia	r5!, {r0, r1, r2, r3}
2fff0ce0:	eb17 0709 	adds.w	r7, r7, r9
2fff0ce4:	c40f      	stmia	r4!, {r0, r1, r2, r3}
2fff0ce6:	e9d6 230c 	ldrd	r2, r3, [r6, #48]	@ 0x30
2fff0cea:	f14c 0c00 	adc.w	ip, ip, #0
2fff0cee:	42ba      	cmp	r2, r7
2fff0cf0:	e895 0003 	ldmia.w	r5, {r0, r1}
2fff0cf4:	eb73 030c 	sbcs.w	r3, r3, ip
2fff0cf8:	6bb3      	ldr	r3, [r6, #56]	@ 0x38
2fff0cfa:	e884 0003 	stmia.w	r4, {r0, r1}
2fff0cfe:	bf38      	it	cc
2fff0d00:	e9c6 7c0c 	strdcc	r7, ip, [r6, #48]	@ 0x30
2fff0d04:	4553      	cmp	r3, sl
2fff0d06:	bf38      	it	cc
2fff0d08:	f8c6 a038 	strcc.w	sl, [r6, #56]	@ 0x38
2fff0d0c:	b003      	add	sp, #12
2fff0d0e:	e8bd 8ff0 	ldmia.w	sp!, {r4, r5, r6, r7, r8, r9, sl, fp, pc}
2fff0d12:	bf00      	nop
2fff0d14:	2fff81c7 	.word	0x2fff81c7
2fff0d18:	2fff81ed 	.word	0x2fff81ed

2fff0d1c <mmap_add_dynamic_region_ctx>:
2fff0d1c:	e92d 4ff0 	stmdb	sp!, {r4, r5, r6, r7, r8, r9, sl, fp, lr}
2fff0d20:	b08b      	sub	sp, #44	@ 0x2c
2fff0d22:	680b      	ldr	r3, [r1, #0]
2fff0d24:	4604      	mov	r4, r0
2fff0d26:	e9d1 6902 	ldrd	r6, r9, [r1, #8]
2fff0d2a:	9302      	str	r3, [sp, #8]
2fff0d2c:	460d      	mov	r5, r1
2fff0d2e:	684b      	ldr	r3, [r1, #4]
2fff0d30:	f8d0 a00c 	ldr.w	sl, [r0, #12]
2fff0d34:	f8d0 b010 	ldr.w	fp, [r0, #16]
2fff0d38:	9303      	str	r3, [sp, #12]
2fff0d3a:	f1b9 0f00 	cmp.w	r9, #0
2fff0d3e:	f000 8093 	beq.w	2fff0e68 <mmap_add_dynamic_region_ctx+0x14c>
2fff0d42:	690b      	ldr	r3, [r1, #16]
2fff0d44:	f043 4300 	orr.w	r3, r3, #2147483648	@ 0x80000000
2fff0d48:	610b      	str	r3, [r1, #16]
2fff0d4a:	f003 fb2a 	bl	2fff43a2 <mmap_add_region_check>
2fff0d4e:	2800      	cmp	r0, #0
2fff0d50:	d171      	bne.n	2fff0e36 <mmap_add_dynamic_region_ctx+0x11a>
2fff0d52:	eb09 0106 	add.w	r1, r9, r6
2fff0d56:	4653      	mov	r3, sl
2fff0d58:	1e4e      	subs	r6, r1, #1
2fff0d5a:	e9d3 2002 	ldrd	r2, r0, [r3, #8]
2fff0d5e:	4698      	mov	r8, r3
2fff0d60:	3318      	adds	r3, #24
2fff0d62:	4402      	add	r2, r0
2fff0d64:	3a01      	subs	r2, #1
2fff0d66:	42b2      	cmp	r2, r6
2fff0d68:	d201      	bcs.n	2fff0d6e <mmap_add_dynamic_region_ctx+0x52>
2fff0d6a:	2800      	cmp	r0, #0
2fff0d6c:	d1f5      	bne.n	2fff0d5a <mmap_add_dynamic_region_ctx+0x3e>
2fff0d6e:	e9d8 3202 	ldrd	r3, r2, [r8, #8]
2fff0d72:	4647      	mov	r7, r8
2fff0d74:	f108 0818 	add.w	r8, r8, #24
2fff0d78:	4413      	add	r3, r2
2fff0d7a:	4299      	cmp	r1, r3
2fff0d7c:	d102      	bne.n	2fff0d84 <mmap_add_dynamic_region_ctx+0x68>
2fff0d7e:	b10a      	cbz	r2, 2fff0d84 <mmap_add_dynamic_region_ctx+0x68>
2fff0d80:	4591      	cmp	r9, r2
2fff0d82:	d8f4      	bhi.n	2fff0d6e <mmap_add_dynamic_region_ctx+0x52>
2fff0d84:	2318      	movs	r3, #24
2fff0d86:	4639      	mov	r1, r7
2fff0d88:	fb03 aa0b 	mla	sl, r3, fp, sl
2fff0d8c:	4640      	mov	r0, r8
2fff0d8e:	ebaa 0b07 	sub.w	fp, sl, r7
2fff0d92:	465a      	mov	r2, fp
2fff0d94:	f004 f8bc 	bl	2fff4f10 <memmove>
2fff0d98:	f8da a00c 	ldr.w	sl, [sl, #12]
2fff0d9c:	f1ba 0f00 	cmp.w	sl, #0
2fff0da0:	d004      	beq.n	2fff0dac <mmap_add_dynamic_region_ctx+0x90>
2fff0da2:	4832      	ldr	r0, [pc, #200]	@ (2fff0e6c <mmap_add_dynamic_region_ctx+0x150>)
2fff0da4:	f240 31e3 	movw	r1, #995	@ 0x3e3
2fff0da8:	f002 f9f6 	bl	2fff3198 <__assert>
2fff0dac:	46ae      	mov	lr, r5
2fff0dae:	46bc      	mov	ip, r7
2fff0db0:	e8be 000f 	ldmia.w	lr!, {r0, r1, r2, r3}
2fff0db4:	e8ac 000f 	stmia.w	ip!, {r0, r1, r2, r3}
2fff0db8:	f894 3040 	ldrb.w	r3, [r4, #64]	@ 0x40
2fff0dbc:	e89e 0003 	ldmia.w	lr, {r0, r1}
2fff0dc0:	e88c 0003 	stmia.w	ip, {r0, r1}
2fff0dc4:	2b00      	cmp	r3, #0
2fff0dc6:	d03b      	beq.n	2fff0e40 <mmap_add_dynamic_region_ctx+0x124>
2fff0dc8:	6be3      	ldr	r3, [r4, #60]	@ 0x3c
2fff0dca:	4652      	mov	r2, sl
2fff0dcc:	4639      	mov	r1, r7
2fff0dce:	4620      	mov	r0, r4
2fff0dd0:	9301      	str	r3, [sp, #4]
2fff0dd2:	6aa3      	ldr	r3, [r4, #40]	@ 0x28
2fff0dd4:	9300      	str	r3, [sp, #0]
2fff0dd6:	6a63      	ldr	r3, [r4, #36]	@ 0x24
2fff0dd8:	f7ff fe52 	bl	2fff0a80 <xlat_tables_map_region>
2fff0ddc:	6aa1      	ldr	r1, [r4, #40]	@ 0x28
2fff0dde:	4606      	mov	r6, r0
2fff0de0:	6a60      	ldr	r0, [r4, #36]	@ 0x24
2fff0de2:	00c9      	lsls	r1, r1, #3
2fff0de4:	f003 fb74 	bl	2fff44d0 <xlat_clean_dcache_range>
2fff0de8:	e9d7 3202 	ldrd	r3, r2, [r7, #8]
2fff0dec:	4413      	add	r3, r2
2fff0dee:	3b01      	subs	r3, #1
2fff0df0:	42b3      	cmp	r3, r6
2fff0df2:	d023      	beq.n	2fff0e3c <mmap_add_dynamic_region_ctx+0x120>
2fff0df4:	465a      	mov	r2, fp
2fff0df6:	4641      	mov	r1, r8
2fff0df8:	4638      	mov	r0, r7
2fff0dfa:	f004 f889 	bl	2fff4f10 <memmove>
2fff0dfe:	68ad      	ldr	r5, [r5, #8]
2fff0e00:	42b5      	cmp	r5, r6
2fff0e02:	d216      	bcs.n	2fff0e32 <mmap_add_dynamic_region_ctx+0x116>
2fff0e04:	2218      	movs	r2, #24
2fff0e06:	4651      	mov	r1, sl
2fff0e08:	a804      	add	r0, sp, #16
2fff0e0a:	f004 f897 	bl	2fff4f3c <memset>
2fff0e0e:	6be3      	ldr	r3, [r4, #60]	@ 0x3c
2fff0e10:	a904      	add	r1, sp, #16
2fff0e12:	9506      	str	r5, [sp, #24]
2fff0e14:	4620      	mov	r0, r4
2fff0e16:	9301      	str	r3, [sp, #4]
2fff0e18:	4652      	mov	r2, sl
2fff0e1a:	6aa3      	ldr	r3, [r4, #40]	@ 0x28
2fff0e1c:	1b75      	subs	r5, r6, r5
2fff0e1e:	9300      	str	r3, [sp, #0]
2fff0e20:	6a63      	ldr	r3, [r4, #36]	@ 0x24
2fff0e22:	9507      	str	r5, [sp, #28]
2fff0e24:	f7ff fd2e 	bl	2fff0884 <xlat_tables_unmap_region>
2fff0e28:	6aa1      	ldr	r1, [r4, #40]	@ 0x28
2fff0e2a:	6a60      	ldr	r0, [r4, #36]	@ 0x24
2fff0e2c:	00c9      	lsls	r1, r1, #3
2fff0e2e:	f003 fb4f 	bl	2fff44d0 <xlat_clean_dcache_range>
2fff0e32:	f06f 000b 	mvn.w	r0, #11
2fff0e36:	b00b      	add	sp, #44	@ 0x2c
2fff0e38:	e8bd 8ff0 	ldmia.w	sp!, {r4, r5, r6, r7, r8, r9, sl, fp, pc}
2fff0e3c:	f3bf 8f4a 	dsb	ishst
2fff0e40:	9b02      	ldr	r3, [sp, #8]
2fff0e42:	9a03      	ldr	r2, [sp, #12]
2fff0e44:	e9d4 010c 	ldrd	r0, r1, [r4, #48]	@ 0x30
2fff0e48:	3b01      	subs	r3, #1
2fff0e4a:	f142 32ff 	adc.w	r2, r2, #4294967295	@ 0xffffffff
2fff0e4e:	eb13 0309 	adds.w	r3, r3, r9
2fff0e52:	f142 0200 	adc.w	r2, r2, #0
2fff0e56:	4298      	cmp	r0, r3
2fff0e58:	4191      	sbcs	r1, r2
2fff0e5a:	bf38      	it	cc
2fff0e5c:	e9c4 320c 	strdcc	r3, r2, [r4, #48]	@ 0x30
2fff0e60:	6ba3      	ldr	r3, [r4, #56]	@ 0x38
2fff0e62:	42b3      	cmp	r3, r6
2fff0e64:	bf38      	it	cc
2fff0e66:	63a6      	strcc	r6, [r4, #56]	@ 0x38
2fff0e68:	2000      	movs	r0, #0
2fff0e6a:	e7e4      	b.n	2fff0e36 <mmap_add_dynamic_region_ctx+0x11a>
2fff0e6c:	2fff81c7 	.word	0x2fff81c7

2fff0e70 <mmap_remove_dynamic_region_ctx>:
2fff0e70:	e92d 4ff0 	stmdb	sp!, {r4, r5, r6, r7, r8, r9, sl, fp, lr}
2fff0e74:	4604      	mov	r4, r0
2fff0e76:	6903      	ldr	r3, [r0, #16]
2fff0e78:	b085      	sub	sp, #20
2fff0e7a:	68c5      	ldr	r5, [r0, #12]
2fff0e7c:	2018      	movs	r0, #24
2fff0e7e:	fb00 5803 	mla	r8, r0, r3, r5
2fff0e82:	f8d8 300c 	ldr.w	r3, [r8, #12]
2fff0e86:	b153      	cbz	r3, 2fff0e9e <mmap_remove_dynamic_region_ctx+0x2e>
2fff0e88:	483a      	ldr	r0, [pc, #232]	@ (2fff0f74 <mmap_remove_dynamic_region_ctx+0x104>)
2fff0e8a:	f240 4147 	movw	r1, #1095	@ 0x447
2fff0e8e:	f002 f983 	bl	2fff3198 <__assert>
2fff0e92:	68a8      	ldr	r0, [r5, #8]
2fff0e94:	4288      	cmp	r0, r1
2fff0e96:	d101      	bne.n	2fff0e9c <mmap_remove_dynamic_region_ctx+0x2c>
2fff0e98:	4293      	cmp	r3, r2
2fff0e9a:	d064      	beq.n	2fff0f66 <mmap_remove_dynamic_region_ctx+0xf6>
2fff0e9c:	3518      	adds	r5, #24
2fff0e9e:	68eb      	ldr	r3, [r5, #12]
2fff0ea0:	2b00      	cmp	r3, #0
2fff0ea2:	d1f6      	bne.n	2fff0e92 <mmap_remove_dynamic_region_ctx+0x22>
2fff0ea4:	f06f 0015 	mvn.w	r0, #21
2fff0ea8:	b005      	add	sp, #20
2fff0eaa:	e8bd 8ff0 	ldmia.w	sp!, {r4, r5, r6, r7, r8, r9, sl, fp, pc}
2fff0eae:	f8d4 b038 	ldr.w	fp, [r4, #56]	@ 0x38
2fff0eb2:	1e53      	subs	r3, r2, #1
2fff0eb4:	185e      	adds	r6, r3, r1
2fff0eb6:	e9d5 3700 	ldrd	r3, r7, [r5]
2fff0eba:	f8d4 a034 	ldr.w	sl, [r4, #52]	@ 0x34
2fff0ebe:	18d3      	adds	r3, r2, r3
2fff0ec0:	f147 0700 	adc.w	r7, r7, #0
2fff0ec4:	f113 39ff 	adds.w	r9, r3, #4294967295	@ 0xffffffff
2fff0ec8:	6b23      	ldr	r3, [r4, #48]	@ 0x30
2fff0eca:	f147 37ff 	adc.w	r7, r7, #4294967295	@ 0xffffffff
2fff0ece:	9303      	str	r3, [sp, #12]
2fff0ed0:	f894 3040 	ldrb.w	r3, [r4, #64]	@ 0x40
2fff0ed4:	b183      	cbz	r3, 2fff0ef8 <mmap_remove_dynamic_region_ctx+0x88>
2fff0ed6:	6be3      	ldr	r3, [r4, #60]	@ 0x3c
2fff0ed8:	2200      	movs	r2, #0
2fff0eda:	4629      	mov	r1, r5
2fff0edc:	4620      	mov	r0, r4
2fff0ede:	9301      	str	r3, [sp, #4]
2fff0ee0:	6aa3      	ldr	r3, [r4, #40]	@ 0x28
2fff0ee2:	9300      	str	r3, [sp, #0]
2fff0ee4:	6a63      	ldr	r3, [r4, #36]	@ 0x24
2fff0ee6:	f7ff fccd 	bl	2fff0884 <xlat_tables_unmap_region>
2fff0eea:	6aa1      	ldr	r1, [r4, #40]	@ 0x28
2fff0eec:	6a60      	ldr	r0, [r4, #36]	@ 0x24
2fff0eee:	00c9      	lsls	r1, r1, #3
2fff0ef0:	f003 faee 	bl	2fff44d0 <xlat_clean_dcache_range>
2fff0ef4:	f003 fa4d 	bl	2fff4392 <xlat_arch_tlbi_va_sync>
2fff0ef8:	eba8 0205 	sub.w	r2, r8, r5
2fff0efc:	f105 0118 	add.w	r1, r5, #24
2fff0f00:	4628      	mov	r0, r5
2fff0f02:	f004 f805 	bl	2fff4f10 <memmove>
2fff0f06:	455e      	cmp	r6, fp
2fff0f08:	d00e      	beq.n	2fff0f28 <mmap_remove_dynamic_region_ctx+0xb8>
2fff0f0a:	9b03      	ldr	r3, [sp, #12]
2fff0f0c:	4557      	cmp	r7, sl
2fff0f0e:	bf08      	it	eq
2fff0f10:	4599      	cmpeq	r9, r3
2fff0f12:	d107      	bne.n	2fff0f24 <mmap_remove_dynamic_region_ctx+0xb4>
2fff0f14:	2200      	movs	r2, #0
2fff0f16:	2300      	movs	r3, #0
2fff0f18:	e9c4 230c 	strd	r2, r3, [r4, #48]	@ 0x30
2fff0f1c:	68e2      	ldr	r2, [r4, #12]
2fff0f1e:	68d0      	ldr	r0, [r2, #12]
2fff0f20:	3218      	adds	r2, #24
2fff0f22:	b980      	cbnz	r0, 2fff0f46 <mmap_remove_dynamic_region_ctx+0xd6>
2fff0f24:	2000      	movs	r0, #0
2fff0f26:	e7bf      	b.n	2fff0ea8 <mmap_remove_dynamic_region_ctx+0x38>
2fff0f28:	68e2      	ldr	r2, [r4, #12]
2fff0f2a:	2300      	movs	r3, #0
2fff0f2c:	63a3      	str	r3, [r4, #56]	@ 0x38
2fff0f2e:	68d3      	ldr	r3, [r2, #12]
2fff0f30:	2b00      	cmp	r3, #0
2fff0f32:	d0ea      	beq.n	2fff0f0a <mmap_remove_dynamic_region_ctx+0x9a>
2fff0f34:	6891      	ldr	r1, [r2, #8]
2fff0f36:	3218      	adds	r2, #24
2fff0f38:	440b      	add	r3, r1
2fff0f3a:	6ba1      	ldr	r1, [r4, #56]	@ 0x38
2fff0f3c:	3b01      	subs	r3, #1
2fff0f3e:	428b      	cmp	r3, r1
2fff0f40:	bf88      	it	hi
2fff0f42:	63a3      	strhi	r3, [r4, #56]	@ 0x38
2fff0f44:	e7f3      	b.n	2fff0f2e <mmap_remove_dynamic_region_ctx+0xbe>
2fff0f46:	e952 3106 	ldrd	r3, r1, [r2, #-24]
2fff0f4a:	3b01      	subs	r3, #1
2fff0f4c:	f141 31ff 	adc.w	r1, r1, #4294967295	@ 0xffffffff
2fff0f50:	181b      	adds	r3, r3, r0
2fff0f52:	e9d4 500c 	ldrd	r5, r0, [r4, #48]	@ 0x30
2fff0f56:	f141 0100 	adc.w	r1, r1, #0
2fff0f5a:	429d      	cmp	r5, r3
2fff0f5c:	4188      	sbcs	r0, r1
2fff0f5e:	bf38      	it	cc
2fff0f60:	e9c4 310c 	strdcc	r3, r1, [r4, #48]	@ 0x30
2fff0f64:	e7db      	b.n	2fff0f1e <mmap_remove_dynamic_region_ctx+0xae>
2fff0f66:	692b      	ldr	r3, [r5, #16]
2fff0f68:	2b00      	cmp	r3, #0
2fff0f6a:	dba0      	blt.n	2fff0eae <mmap_remove_dynamic_region_ctx+0x3e>
2fff0f6c:	f04f 30ff 	mov.w	r0, #4294967295	@ 0xffffffff
2fff0f70:	e79a      	b.n	2fff0ea8 <mmap_remove_dynamic_region_ctx+0x38>
2fff0f72:	bf00      	nop
2fff0f74:	2fff81c7 	.word	0x2fff81c7

2fff0f78 <init_xlat_tables_ctx>:
2fff0f78:	b5f7      	push	{r0, r1, r2, r4, r5, r6, r7, lr}
2fff0f7a:	4604      	mov	r4, r0
2fff0f7c:	b920      	cbnz	r0, 2fff0f88 <init_xlat_tables_ctx+0x10>
2fff0f7e:	f240 41a6 	movw	r1, #1190	@ 0x4a6
2fff0f82:	484b      	ldr	r0, [pc, #300]	@ (2fff10b0 <init_xlat_tables_ctx+0x138>)
2fff0f84:	f002 f908 	bl	2fff3198 <__assert>
2fff0f88:	f890 3040 	ldrb.w	r3, [r0, #64]	@ 0x40
2fff0f8c:	b113      	cbz	r3, 2fff0f94 <init_xlat_tables_ctx+0x1c>
2fff0f8e:	f240 41a7 	movw	r1, #1191	@ 0x4a7
2fff0f92:	e7f6      	b.n	2fff0f82 <init_xlat_tables_ctx+0xa>
2fff0f94:	6c43      	ldr	r3, [r0, #68]	@ 0x44
2fff0f96:	3b01      	subs	r3, #1
2fff0f98:	2b02      	cmp	r3, #2
2fff0f9a:	d902      	bls.n	2fff0fa2 <init_xlat_tables_ctx+0x2a>
2fff0f9c:	f44f 6195 	mov.w	r1, #1192	@ 0x4a8
2fff0fa0:	e7ef      	b.n	2fff0f82 <init_xlat_tables_ctx+0xa>
2fff0fa2:	f7ff fb77 	bl	2fff0694 <is_mmu_enabled_ctx>
2fff0fa6:	b110      	cbz	r0, 2fff0fae <init_xlat_tables_ctx+0x36>
2fff0fa8:	f240 41ab 	movw	r1, #1195	@ 0x4ab
2fff0fac:	e7e9      	b.n	2fff0f82 <init_xlat_tables_ctx+0xa>
2fff0fae:	e9d4 6502 	ldrd	r6, r5, [r4, #8]
2fff0fb2:	f003 f9dd 	bl	2fff4370 <xlat_get_min_virt_addr_space_size>
2fff0fb6:	3801      	subs	r0, #1
2fff0fb8:	4286      	cmp	r6, r0
2fff0fba:	d202      	bcs.n	2fff0fc2 <init_xlat_tables_ctx+0x4a>
2fff0fbc:	f240 41af 	movw	r1, #1199	@ 0x4af
2fff0fc0:	e7df      	b.n	2fff0f82 <init_xlat_tables_ctx+0xa>
2fff0fc2:	68a3      	ldr	r3, [r4, #8]
2fff0fc4:	1c5e      	adds	r6, r3, #1
2fff0fc6:	401e      	ands	r6, r3
2fff0fc8:	d002      	beq.n	2fff0fd0 <init_xlat_tables_ctx+0x58>
2fff0fca:	f240 41b2 	movw	r1, #1202	@ 0x4b2
2fff0fce:	e7d8      	b.n	2fff0f82 <init_xlat_tables_ctx+0xa>
2fff0fd0:	4628      	mov	r0, r5
2fff0fd2:	f003 fa96 	bl	2fff4502 <xlat_mmap_print>
2fff0fd6:	6aa2      	ldr	r2, [r4, #40]	@ 0x28
2fff0fd8:	2000      	movs	r0, #0
2fff0fda:	2100      	movs	r1, #0
2fff0fdc:	42b2      	cmp	r2, r6
2fff0fde:	d112      	bne.n	2fff1006 <init_xlat_tables_ctx+0x8e>
2fff0fe0:	2300      	movs	r3, #0
2fff0fe2:	2000      	movs	r0, #0
2fff0fe4:	461f      	mov	r7, r3
2fff0fe6:	2100      	movs	r1, #0
2fff0fe8:	69a2      	ldr	r2, [r4, #24]
2fff0fea:	429a      	cmp	r2, r3
2fff0fec:	dc12      	bgt.n	2fff1014 <init_xlat_tables_ctx+0x9c>
2fff0fee:	68eb      	ldr	r3, [r5, #12]
2fff0ff0:	bb03      	cbnz	r3, 2fff1034 <init_xlat_tables_ctx+0xbc>
2fff0ff2:	e9d4 6500 	ldrd	r6, r5, [r4]
2fff0ff6:	f003 f9b7 	bl	2fff4368 <xlat_arch_get_max_supported_pa>
2fff0ffa:	42b0      	cmp	r0, r6
2fff0ffc:	41a9      	sbcs	r1, r5
2fff0ffe:	d23d      	bcs.n	2fff107c <init_xlat_tables_ctx+0x104>
2fff1000:	f240 41d5 	movw	r1, #1237	@ 0x4d5
2fff1004:	e7bd      	b.n	2fff0f82 <init_xlat_tables_ctx+0xa>
2fff1006:	6a63      	ldr	r3, [r4, #36]	@ 0x24
2fff1008:	eb03 03c6 	add.w	r3, r3, r6, lsl #3
2fff100c:	3601      	adds	r6, #1
2fff100e:	e9c3 0100 	strd	r0, r1, [r3]
2fff1012:	e7e3      	b.n	2fff0fdc <init_xlat_tables_ctx+0x64>
2fff1014:	69e2      	ldr	r2, [r4, #28]
2fff1016:	f842 7023 	str.w	r7, [r2, r3, lsl #2]
2fff101a:	6962      	ldr	r2, [r4, #20]
2fff101c:	eb02 3203 	add.w	r2, r2, r3, lsl #12
2fff1020:	f1a2 0608 	sub.w	r6, r2, #8
2fff1024:	f602 72f8 	addw	r2, r2, #4088	@ 0xff8
2fff1028:	e9e6 0102 	strd	r0, r1, [r6, #8]!
2fff102c:	4296      	cmp	r6, r2
2fff102e:	d1fb      	bne.n	2fff1028 <init_xlat_tables_ctx+0xb0>
2fff1030:	3301      	adds	r3, #1
2fff1032:	e7d9      	b.n	2fff0fe8 <init_xlat_tables_ctx+0x70>
2fff1034:	6be3      	ldr	r3, [r4, #60]	@ 0x3c
2fff1036:	2200      	movs	r2, #0
2fff1038:	4629      	mov	r1, r5
2fff103a:	4620      	mov	r0, r4
2fff103c:	9301      	str	r3, [sp, #4]
2fff103e:	6aa3      	ldr	r3, [r4, #40]	@ 0x28
2fff1040:	9300      	str	r3, [sp, #0]
2fff1042:	6a63      	ldr	r3, [r4, #36]	@ 0x24
2fff1044:	f7ff fd1c 	bl	2fff0a80 <xlat_tables_map_region>
2fff1048:	6aa1      	ldr	r1, [r4, #40]	@ 0x28
2fff104a:	4606      	mov	r6, r0
2fff104c:	6a60      	ldr	r0, [r4, #36]	@ 0x24
2fff104e:	00c9      	lsls	r1, r1, #3
2fff1050:	f003 fa3e 	bl	2fff44d0 <xlat_clean_dcache_range>
2fff1054:	e9d5 1202 	ldrd	r1, r2, [r5, #8]
2fff1058:	188b      	adds	r3, r1, r2
2fff105a:	3b01      	subs	r3, #1
2fff105c:	42b3      	cmp	r3, r6
2fff105e:	d00b      	beq.n	2fff1078 <init_xlat_tables_ctx+0x100>
2fff1060:	692b      	ldr	r3, [r5, #16]
2fff1062:	4814      	ldr	r0, [pc, #80]	@ (2fff10b4 <init_xlat_tables_ctx+0x13c>)
2fff1064:	e9cd 2300 	strd	r2, r3, [sp]
2fff1068:	e9d5 2300 	ldrd	r2, r3, [r5]
2fff106c:	f7f9 f8de 	bl	2ffea22c <tf_log>
2fff1070:	f7f9 fb72 	bl	2ffea758 <console_flush>
2fff1074:	f7f8 e8fe 	blx	2ffe9274 <el3_panic>
2fff1078:	3518      	adds	r5, #24
2fff107a:	e7b8      	b.n	2fff0fee <init_xlat_tables_ctx+0x76>
2fff107c:	6ba2      	ldr	r2, [r4, #56]	@ 0x38
2fff107e:	68a3      	ldr	r3, [r4, #8]
2fff1080:	429a      	cmp	r2, r3
2fff1082:	d902      	bls.n	2fff108a <init_xlat_tables_ctx+0x112>
2fff1084:	f240 41d6 	movw	r1, #1238	@ 0x4d6
2fff1088:	e77b      	b.n	2fff0f82 <init_xlat_tables_ctx+0xa>
2fff108a:	e9d4 120c 	ldrd	r1, r2, [r4, #48]	@ 0x30
2fff108e:	e9d4 0300 	ldrd	r0, r3, [r4]
2fff1092:	4288      	cmp	r0, r1
2fff1094:	4193      	sbcs	r3, r2
2fff1096:	d202      	bcs.n	2fff109e <init_xlat_tables_ctx+0x126>
2fff1098:	f240 41d7 	movw	r1, #1239	@ 0x4d7
2fff109c:	e771      	b.n	2fff0f82 <init_xlat_tables_ctx+0xa>
2fff109e:	2301      	movs	r3, #1
2fff10a0:	4620      	mov	r0, r4
2fff10a2:	f884 3040 	strb.w	r3, [r4, #64]	@ 0x40
2fff10a6:	b003      	add	sp, #12
2fff10a8:	e8bd 40f0 	ldmia.w	sp!, {r4, r5, r6, r7, lr}
2fff10ac:	f003 ba2a 	b.w	2fff4504 <xlat_tables_print>
2fff10b0:	2fff81c7 	.word	0x2fff81c7
2fff10b4:	2fff8218 	.word	0x2fff8218

2fff10b8 <crc32_z>:
2fff10b8:	b5f0      	push	{r4, r5, r6, r7, lr}
2fff10ba:	2900      	cmp	r1, #0
2fff10bc:	d05b      	beq.n	2fff1176 <crc32_z+0xbe>
2fff10be:	43c3      	mvns	r3, r0
2fff10c0:	4615      	mov	r5, r2
2fff10c2:	4c2e      	ldr	r4, [pc, #184]	@ (2fff117c <crc32_z+0xc4>)
2fff10c4:	4608      	mov	r0, r1
2fff10c6:	2d07      	cmp	r5, #7
2fff10c8:	f100 0008 	add.w	r0, r0, #8
2fff10cc:	d808      	bhi.n	2fff10e0 <crc32_z+0x28>
2fff10ce:	08d0      	lsrs	r0, r2, #3
2fff10d0:	4c2a      	ldr	r4, [pc, #168]	@ (2fff117c <crc32_z+0xc4>)
2fff10d2:	eb01 00c0 	add.w	r0, r1, r0, lsl #3
2fff10d6:	440a      	add	r2, r1
2fff10d8:	4290      	cmp	r0, r2
2fff10da:	d143      	bne.n	2fff1164 <crc32_z+0xac>
2fff10dc:	43d8      	mvns	r0, r3
2fff10de:	bdf0      	pop	{r4, r5, r6, r7, pc}
2fff10e0:	f810 6c08 	ldrb.w	r6, [r0, #-8]
2fff10e4:	3d08      	subs	r5, #8
2fff10e6:	405e      	eors	r6, r3
2fff10e8:	b2f6      	uxtb	r6, r6
2fff10ea:	f854 6026 	ldr.w	r6, [r4, r6, lsl #2]
2fff10ee:	ea86 2613 	eor.w	r6, r6, r3, lsr #8
2fff10f2:	f810 3c07 	ldrb.w	r3, [r0, #-7]
2fff10f6:	4073      	eors	r3, r6
2fff10f8:	b2db      	uxtb	r3, r3
2fff10fa:	f854 7023 	ldr.w	r7, [r4, r3, lsl #2]
2fff10fe:	f810 3c06 	ldrb.w	r3, [r0, #-6]
2fff1102:	ea87 2716 	eor.w	r7, r7, r6, lsr #8
2fff1106:	407b      	eors	r3, r7
2fff1108:	b2db      	uxtb	r3, r3
2fff110a:	f854 6023 	ldr.w	r6, [r4, r3, lsl #2]
2fff110e:	f810 3c05 	ldrb.w	r3, [r0, #-5]
2fff1112:	ea86 2617 	eor.w	r6, r6, r7, lsr #8
2fff1116:	4073      	eors	r3, r6
2fff1118:	b2db      	uxtb	r3, r3
2fff111a:	f854 7023 	ldr.w	r7, [r4, r3, lsl #2]
2fff111e:	f810 3c04 	ldrb.w	r3, [r0, #-4]
2fff1122:	ea87 2716 	eor.w	r7, r7, r6, lsr #8
2fff1126:	407b      	eors	r3, r7
2fff1128:	b2db      	uxtb	r3, r3
2fff112a:	f854 6023 	ldr.w	r6, [r4, r3, lsl #2]
2fff112e:	f810 3c03 	ldrb.w	r3, [r0, #-3]
2fff1132:	ea86 2617 	eor.w	r6, r6, r7, lsr #8
2fff1136:	4073      	eors	r3, r6
2fff1138:	b2db      	uxtb	r3, r3
2fff113a:	f854 7023 	ldr.w	r7, [r4, r3, lsl #2]
2fff113e:	f810 3c02 	ldrb.w	r3, [r0, #-2]
2fff1142:	ea87 2716 	eor.w	r7, r7, r6, lsr #8
2fff1146:	407b      	eors	r3, r7
2fff1148:	b2db      	uxtb	r3, r3
2fff114a:	f854 6023 	ldr.w	r6, [r4, r3, lsl #2]
2fff114e:	f810 3c01 	ldrb.w	r3, [r0, #-1]
2fff1152:	ea86 2617 	eor.w	r6, r6, r7, lsr #8
2fff1156:	4073      	eors	r3, r6
2fff1158:	b2db      	uxtb	r3, r3
2fff115a:	f854 3023 	ldr.w	r3, [r4, r3, lsl #2]
2fff115e:	ea83 2316 	eor.w	r3, r3, r6, lsr #8
2fff1162:	e7b0      	b.n	2fff10c6 <crc32_z+0xe>
2fff1164:	f810 1b01 	ldrb.w	r1, [r0], #1
2fff1168:	4059      	eors	r1, r3
2fff116a:	b2c9      	uxtb	r1, r1
2fff116c:	f854 1021 	ldr.w	r1, [r4, r1, lsl #2]
2fff1170:	ea81 2313 	eor.w	r3, r1, r3, lsr #8
2fff1174:	e7b0      	b.n	2fff10d8 <crc32_z+0x20>
2fff1176:	4608      	mov	r0, r1
2fff1178:	e7b1      	b.n	2fff10de <crc32_z+0x26>
2fff117a:	bf00      	nop
2fff117c:	2fff57e0 	.word	0x2fff57e0

2fff1180 <plat_log_get_prefix>:
2fff1180:	2832      	cmp	r0, #50	@ 0x32
2fff1182:	f04f 030a 	mov.w	r3, #10
2fff1186:	bf28      	it	cs
2fff1188:	2032      	movcs	r0, #50	@ 0x32
2fff118a:	280a      	cmp	r0, #10
2fff118c:	bf38      	it	cc
2fff118e:	200a      	movcc	r0, #10
2fff1190:	fbb0 f0f3 	udiv	r0, r0, r3
2fff1194:	4b02      	ldr	r3, [pc, #8]	@ (2fff11a0 <plat_log_get_prefix+0x20>)
2fff1196:	3801      	subs	r0, #1
2fff1198:	f853 0020 	ldr.w	r0, [r3, r0, lsl #2]
2fff119c:	4770      	bx	lr
2fff119e:	bf00      	nop
2fff11a0:	2fff5be0 	.word	0x2fff5be0

2fff11a4 <open_fip>:
2fff11a4:	4b02      	ldr	r3, [pc, #8]	@ (2fff11b0 <open_fip+0xc>)
2fff11a6:	2100      	movs	r1, #0
2fff11a8:	6818      	ldr	r0, [r3, #0]
2fff11aa:	f7f9 bfa1 	b.w	2ffeb0f0 <io_dev_init>
2fff11ae:	bf00      	nop
2fff11b0:	2fffba28 	.word	0x2fffba28

2fff11b4 <open_storage>:
2fff11b4:	4b02      	ldr	r3, [pc, #8]	@ (2fff11c0 <open_storage+0xc>)
2fff11b6:	2100      	movs	r1, #0
2fff11b8:	6818      	ldr	r0, [r3, #0]
2fff11ba:	f7f9 bf99 	b.w	2ffeb0f0 <io_dev_init>
2fff11be:	bf00      	nop
2fff11c0:	2fffba24 	.word	0x2fffba24

2fff11c4 <stm32mp_io_setup>:
2fff11c4:	b538      	push	{r3, r4, r5, lr}
2fff11c6:	f000 f9f3 	bl	2fff15b0 <stm32mp_get_boot_ctx_address>
2fff11ca:	7843      	ldrb	r3, [r0, #1]
2fff11cc:	4604      	mov	r4, r0
2fff11ce:	7801      	ldrb	r1, [r0, #0]
2fff11d0:	ea41 2103 	orr.w	r1, r1, r3, lsl #8
2fff11d4:	1e4b      	subs	r3, r1, #1
2fff11d6:	2b06      	cmp	r3, #6
2fff11d8:	d83b      	bhi.n	2fff1252 <stm32mp_io_setup+0x8e>
2fff11da:	e8df f003 	tbb	[pc, r3]
2fff11de:	2e04      	.short	0x2e04
2fff11e0:	38363032 	.word	0x38363032
2fff11e4:	34          	.byte	0x34
2fff11e5:	00          	.byte	0x00
2fff11e6:	4831      	ldr	r0, [pc, #196]	@ (2fff12ac <stm32mp_io_setup+0xe8>)
2fff11e8:	f7f9 f820 	bl	2ffea22c <tf_log>
2fff11ec:	78a1      	ldrb	r1, [r4, #2]
2fff11ee:	78e3      	ldrb	r3, [r4, #3]
2fff11f0:	ea51 2103 	orrs.w	r1, r1, r3, lsl #8
2fff11f4:	d002      	beq.n	2fff11fc <stm32mp_io_setup+0x38>
2fff11f6:	482e      	ldr	r0, [pc, #184]	@ (2fff12b0 <stm32mp_io_setup+0xec>)
2fff11f8:	f7f9 f818 	bl	2ffea22c <tf_log>
2fff11fc:	f894 3091 	ldrb.w	r3, [r4, #145]	@ 0x91
2fff1200:	f894 1090 	ldrb.w	r1, [r4, #144]	@ 0x90
2fff1204:	ea41 2103 	orr.w	r1, r1, r3, lsl #8
2fff1208:	f894 3092 	ldrb.w	r3, [r4, #146]	@ 0x92
2fff120c:	ea41 4103 	orr.w	r1, r1, r3, lsl #16
2fff1210:	f894 3093 	ldrb.w	r3, [r4, #147]	@ 0x93
2fff1214:	ea41 6103 	orr.w	r1, r1, r3, lsl #24
2fff1218:	1e4b      	subs	r3, r1, #1
2fff121a:	2b01      	cmp	r3, #1
2fff121c:	d802      	bhi.n	2fff1224 <stm32mp_io_setup+0x60>
2fff121e:	4825      	ldr	r0, [pc, #148]	@ (2fff12b4 <stm32mp_io_setup+0xf0>)
2fff1220:	f7f9 f804 	bl	2ffea22c <tf_log>
2fff1224:	4d24      	ldr	r5, [pc, #144]	@ (2fff12b8 <stm32mp_io_setup+0xf4>)
2fff1226:	4628      	mov	r0, r5
2fff1228:	f7f9 fdf6 	bl	2ffeae18 <register_io_dev_fip>
2fff122c:	4601      	mov	r1, r0
2fff122e:	b1b8      	cbz	r0, 2fff1260 <stm32mp_io_setup+0x9c>
2fff1230:	f240 11d7 	movw	r1, #471	@ 0x1d7
2fff1234:	4821      	ldr	r0, [pc, #132]	@ (2fff12bc <stm32mp_io_setup+0xf8>)
2fff1236:	f001 ffaf 	bl	2fff3198 <__assert>
2fff123a:	4821      	ldr	r0, [pc, #132]	@ (2fff12c0 <stm32mp_io_setup+0xfc>)
2fff123c:	e7d4      	b.n	2fff11e8 <stm32mp_io_setup+0x24>
2fff123e:	4821      	ldr	r0, [pc, #132]	@ (2fff12c4 <stm32mp_io_setup+0x100>)
2fff1240:	e7d2      	b.n	2fff11e8 <stm32mp_io_setup+0x24>
2fff1242:	4821      	ldr	r0, [pc, #132]	@ (2fff12c8 <stm32mp_io_setup+0x104>)
2fff1244:	e7d0      	b.n	2fff11e8 <stm32mp_io_setup+0x24>
2fff1246:	4821      	ldr	r0, [pc, #132]	@ (2fff12cc <stm32mp_io_setup+0x108>)
2fff1248:	e7ce      	b.n	2fff11e8 <stm32mp_io_setup+0x24>
2fff124a:	4821      	ldr	r0, [pc, #132]	@ (2fff12d0 <stm32mp_io_setup+0x10c>)
2fff124c:	e7cc      	b.n	2fff11e8 <stm32mp_io_setup+0x24>
2fff124e:	4821      	ldr	r0, [pc, #132]	@ (2fff12d4 <stm32mp_io_setup+0x110>)
2fff1250:	e7ca      	b.n	2fff11e8 <stm32mp_io_setup+0x24>
2fff1252:	4821      	ldr	r0, [pc, #132]	@ (2fff12d8 <stm32mp_io_setup+0x114>)
2fff1254:	f7f8 ffea 	bl	2ffea22c <tf_log>
2fff1258:	f7f9 fa7e 	bl	2ffea758 <console_flush>
2fff125c:	f7f8 e80a 	blx	2ffe9274 <el3_panic>
2fff1260:	4a1e      	ldr	r2, [pc, #120]	@ (2fff12dc <stm32mp_io_setup+0x118>)
2fff1262:	6828      	ldr	r0, [r5, #0]
2fff1264:	f7f9 ff30 	bl	2ffeb0c8 <io_dev_open>
2fff1268:	7821      	ldrb	r1, [r4, #0]
2fff126a:	7863      	ldrb	r3, [r4, #1]
2fff126c:	ea41 2103 	orr.w	r1, r1, r3, lsl #8
2fff1270:	2904      	cmp	r1, #4
2fff1272:	d118      	bne.n	2fff12a6 <stm32mp_io_setup+0xe2>
2fff1274:	f3bf 8f5f 	dmb	sy
2fff1278:	f7fe ff80 	bl	2fff017c <stm32_qspi_init>
2fff127c:	b110      	cbz	r0, 2fff1284 <stm32mp_io_setup+0xc0>
2fff127e:	f240 114d 	movw	r1, #333	@ 0x14d
2fff1282:	e7d7      	b.n	2fff1234 <stm32mp_io_setup+0x70>
2fff1284:	4c16      	ldr	r4, [pc, #88]	@ (2fff12e0 <stm32mp_io_setup+0x11c>)
2fff1286:	4620      	mov	r0, r4
2fff1288:	f7f9 fedc 	bl	2ffeb044 <register_io_dev_mtd>
2fff128c:	b110      	cbz	r0, 2fff1294 <stm32mp_io_setup+0xd0>
2fff128e:	f44f 71a8 	mov.w	r1, #336	@ 0x150
2fff1292:	e7cf      	b.n	2fff1234 <stm32mp_io_setup+0x70>
2fff1294:	4a13      	ldr	r2, [pc, #76]	@ (2fff12e4 <stm32mp_io_setup+0x120>)
2fff1296:	4914      	ldr	r1, [pc, #80]	@ (2fff12e8 <stm32mp_io_setup+0x124>)
2fff1298:	6820      	ldr	r0, [r4, #0]
2fff129a:	f7f9 ff15 	bl	2ffeb0c8 <io_dev_open>
2fff129e:	b120      	cbz	r0, 2fff12aa <stm32mp_io_setup+0xe6>
2fff12a0:	f44f 71ab 	mov.w	r1, #342	@ 0x156
2fff12a4:	e7c6      	b.n	2fff1234 <stm32mp_io_setup+0x70>
2fff12a6:	4811      	ldr	r0, [pc, #68]	@ (2fff12ec <stm32mp_io_setup+0x128>)
2fff12a8:	e7d4      	b.n	2fff1254 <stm32mp_io_setup+0x90>
2fff12aa:	bd38      	pop	{r3, r4, r5, pc}
2fff12ac:	2fff8299 	.word	0x2fff8299
2fff12b0:	2fff831d 	.word	0x2fff831d
2fff12b4:	2fff832d 	.word	0x2fff832d
2fff12b8:	2fffba20 	.word	0x2fffba20
2fff12bc:	2fff834a 	.word	0x2fff834a
2fff12c0:	2fff82a7 	.word	0x2fff82a7
2fff12c4:	2fff82b4 	.word	0x2fff82b4
2fff12c8:	2fff82c4 	.word	0x2fff82c4
2fff12cc:	2fff82d5 	.word	0x2fff82d5
2fff12d0:	2fff82e6 	.word	0x2fff82e6
2fff12d4:	2fff82f3 	.word	0x2fff82f3
2fff12d8:	2fff82ff 	.word	0x2fff82ff
2fff12dc:	2fffba28 	.word	0x2fffba28
2fff12e0:	2fffba1c 	.word	0x2fffba1c
2fff12e4:	2fffba24 	.word	0x2fffba24
2fff12e8:	2fffa048 	.word	0x2fffa048
2fff12ec:	2fff836a 	.word	0x2fff836a

2fff12f0 <bl2_plat_handle_pre_image_load>:
2fff12f0:	b510      	push	{r4, lr}
2fff12f2:	f000 f963 	bl	2fff15bc <stm32mp_get_boot_itf_selected>
2fff12f6:	4604      	mov	r4, r0
2fff12f8:	f001 fd3e 	bl	2fff2d78 <stm32mp_skip_boot_device_after_standby>
2fff12fc:	b940      	cbnz	r0, 2fff1310 <bl2_plat_handle_pre_image_load+0x20>
2fff12fe:	2c04      	cmp	r4, #4
2fff1300:	d006      	beq.n	2fff1310 <bl2_plat_handle_pre_image_load+0x20>
2fff1302:	4804      	ldr	r0, [pc, #16]	@ (2fff1314 <bl2_plat_handle_pre_image_load+0x24>)
2fff1304:	f7f8 ff92 	bl	2ffea22c <tf_log>
2fff1308:	f7f9 fa26 	bl	2ffea758 <console_flush>
2fff130c:	f7f7 efb2 	blx	2ffe9274 <el3_panic>
2fff1310:	2000      	movs	r0, #0
2fff1312:	bd10      	pop	{r4, pc}
2fff1314:	2fff838c 	.word	0x2fff838c

2fff1318 <plat_get_image_source>:
2fff1318:	2812      	cmp	r0, #18
2fff131a:	e92d 41f0 	stmdb	sp!, {r4, r5, r6, r7, r8, lr}
2fff131e:	460d      	mov	r5, r1
2fff1320:	4616      	mov	r6, r2
2fff1322:	d904      	bls.n	2fff132e <plat_get_image_source+0x16>
2fff1324:	480b      	ldr	r0, [pc, #44]	@ (2fff1354 <plat_get_image_source+0x3c>)
2fff1326:	f240 21d9 	movw	r1, #729	@ 0x2d9
2fff132a:	f001 ff35 	bl	2fff3198 <__assert>
2fff132e:	f8df 8028 	ldr.w	r8, [pc, #40]	@ 2fff1358 <plat_get_image_source+0x40>
2fff1332:	231c      	movs	r3, #28
2fff1334:	fb03 f400 	mul.w	r4, r3, r0
2fff1338:	eb08 0704 	add.w	r7, r8, r4
2fff133c:	69bb      	ldr	r3, [r7, #24]
2fff133e:	6878      	ldr	r0, [r7, #4]
2fff1340:	4798      	blx	r3
2fff1342:	b928      	cbnz	r0, 2fff1350 <plat_get_image_source+0x38>
2fff1344:	687b      	ldr	r3, [r7, #4]
2fff1346:	6033      	str	r3, [r6, #0]
2fff1348:	f858 3004 	ldr.w	r3, [r8, r4]
2fff134c:	681b      	ldr	r3, [r3, #0]
2fff134e:	602b      	str	r3, [r5, #0]
2fff1350:	e8bd 81f0 	ldmia.w	sp!, {r4, r5, r6, r7, r8, pc}
2fff1354:	2fff834a 	.word	0x2fff834a
2fff1358:	2fffa11c 	.word	0x2fffa11c

2fff135c <plat_fwu_get_boot_idx>:
2fff135c:	b537      	push	{r0, r1, r2, r4, r5, lr}
2fff135e:	4d24      	ldr	r5, [pc, #144]	@ (2fff13f0 <plat_fwu_get_boot_idx+0x94>)
2fff1360:	682b      	ldr	r3, [r5, #0]
2fff1362:	3301      	adds	r3, #1
2fff1364:	d137      	bne.n	2fff13d6 <plat_fwu_get_boot_idx+0x7a>
2fff1366:	f7f9 fb91 	bl	2ffeaa8c <fwu_get_metadata>
2fff136a:	2300      	movs	r3, #0
2fff136c:	4604      	mov	r4, r0
2fff136e:	9301      	str	r3, [sp, #4]
2fff1370:	7a43      	ldrb	r3, [r0, #9]
2fff1372:	7a01      	ldrb	r1, [r0, #8]
2fff1374:	ea41 2103 	orr.w	r1, r1, r3, lsl #8
2fff1378:	7a83      	ldrb	r3, [r0, #10]
2fff137a:	ea41 4103 	orr.w	r1, r1, r3, lsl #16
2fff137e:	7ac3      	ldrb	r3, [r0, #11]
2fff1380:	ea41 6103 	orr.w	r1, r1, r3, lsl #24
2fff1384:	1843      	adds	r3, r0, r1
2fff1386:	6029      	str	r1, [r5, #0]
2fff1388:	7e1b      	ldrb	r3, [r3, #24]
2fff138a:	2bfc      	cmp	r3, #252	@ 0xfc
2fff138c:	d02b      	beq.n	2fff13e6 <plat_fwu_get_boot_idx+0x8a>
2fff138e:	2bfe      	cmp	r3, #254	@ 0xfe
2fff1390:	d008      	beq.n	2fff13a4 <plat_fwu_get_boot_idx+0x48>
2fff1392:	4818      	ldr	r0, [pc, #96]	@ (2fff13f4 <plat_fwu_get_boot_idx+0x98>)
2fff1394:	f7f8 ff4a 	bl	2ffea22c <tf_log>
2fff1398:	f7f9 fb30 	bl	2ffea9fc <fwu_get_alternate_boot_bank>
2fff139c:	6028      	str	r0, [r5, #0]
2fff139e:	f003 f92f 	bl	2fff4600 <stm32_clear_fwu_trial_boot_cnt>
2fff13a2:	e022      	b.n	2fff13ea <plat_fwu_get_boot_idx+0x8e>
2fff13a4:	a801      	add	r0, sp, #4
2fff13a6:	f000 fab1 	bl	2fff190c <stm32_get_and_dec_fwu_trial_boot_cnt>
2fff13aa:	b150      	cbz	r0, 2fff13c2 <plat_fwu_get_boot_idx+0x66>
2fff13ac:	682b      	ldr	r3, [r5, #0]
2fff13ae:	4912      	ldr	r1, [pc, #72]	@ (2fff13f8 <plat_fwu_get_boot_idx+0x9c>)
2fff13b0:	4423      	add	r3, r4
2fff13b2:	4812      	ldr	r0, [pc, #72]	@ (2fff13fc <plat_fwu_get_boot_idx+0xa0>)
2fff13b4:	7e1a      	ldrb	r2, [r3, #24]
2fff13b6:	f7f8 ff39 	bl	2ffea22c <tf_log>
2fff13ba:	f7f9 f9cd 	bl	2ffea758 <console_flush>
2fff13be:	f7f7 ef5a 	blx	2ffe9274 <el3_panic>
2fff13c2:	9b01      	ldr	r3, [sp, #4]
2fff13c4:	2b01      	cmp	r3, #1
2fff13c6:	d109      	bne.n	2fff13dc <plat_fwu_get_boot_idx+0x80>
2fff13c8:	480d      	ldr	r0, [pc, #52]	@ (2fff1400 <plat_fwu_get_boot_idx+0xa4>)
2fff13ca:	2103      	movs	r1, #3
2fff13cc:	f7f8 ff2e 	bl	2ffea22c <tf_log>
2fff13d0:	f7f9 fb14 	bl	2ffea9fc <fwu_get_alternate_boot_bank>
2fff13d4:	6028      	str	r0, [r5, #0]
2fff13d6:	6828      	ldr	r0, [r5, #0]
2fff13d8:	b003      	add	sp, #12
2fff13da:	bd30      	pop	{r4, r5, pc}
2fff13dc:	2b00      	cmp	r3, #0
2fff13de:	d1fa      	bne.n	2fff13d6 <plat_fwu_get_boot_idx+0x7a>
2fff13e0:	4808      	ldr	r0, [pc, #32]	@ (2fff1404 <plat_fwu_get_boot_idx+0xa8>)
2fff13e2:	f7f8 ff23 	bl	2ffea22c <tf_log>
2fff13e6:	f003 f8fa 	bl	2fff45de <stm32_set_max_fwu_trial_boot_cnt>
2fff13ea:	2800      	cmp	r0, #0
2fff13ec:	d0f3      	beq.n	2fff13d6 <plat_fwu_get_boot_idx+0x7a>
2fff13ee:	e7dd      	b.n	2fff13ac <plat_fwu_get_boot_idx+0x50>
2fff13f0:	2fffa108 	.word	0x2fffa108
2fff13f4:	2fff841b 	.word	0x2fff841b
2fff13f8:	2fff90d6 	.word	0x2fff90d6
2fff13fc:	2fff839c 	.word	0x2fff839c
2fff1400:	2fff83cd 	.word	0x2fff83cd
2fff1404:	2fff83e8 	.word	0x2fff83e8

2fff1408 <plat_fwu_set_images_source>:
2fff1408:	e92d 41f0 	stmdb	sp!, {r4, r5, r6, r7, r8, lr}
2fff140c:	b088      	sub	sp, #32
2fff140e:	4604      	mov	r4, r0
2fff1410:	f000 f8d4 	bl	2fff15bc <stm32mp_get_boot_itf_selected>
2fff1414:	4607      	mov	r7, r0
2fff1416:	f7ff ffa1 	bl	2fff135c <plat_fwu_get_boot_idx>
2fff141a:	2801      	cmp	r0, #1
2fff141c:	d946      	bls.n	2fff14ac <plat_fwu_set_images_source+0xa4>
2fff141e:	4828      	ldr	r0, [pc, #160]	@ (2fff14c0 <plat_fwu_set_images_source+0xb8>)
2fff1420:	f240 3165 	movw	r1, #869	@ 0x365
2fff1424:	f001 feb8 	bl	2fff3198 <__assert>
2fff1428:	3601      	adds	r6, #1
2fff142a:	f108 081c 	add.w	r8, r8, #28
2fff142e:	2e13      	cmp	r6, #19
2fff1430:	d00f      	beq.n	2fff1452 <plat_fwu_set_images_source+0x4a>
2fff1432:	2210      	movs	r2, #16
2fff1434:	4621      	mov	r1, r4
2fff1436:	4640      	mov	r0, r8
2fff1438:	f003 fd51 	bl	2fff4ede <memcmp>
2fff143c:	2800      	cmp	r0, #0
2fff143e:	d1f3      	bne.n	2fff1428 <plat_fwu_set_images_source+0x20>
2fff1440:	4b20      	ldr	r3, [pc, #128]	@ (2fff14c4 <plat_fwu_set_images_source+0xbc>)
2fff1442:	221c      	movs	r2, #28
2fff1444:	fb02 3306 	mla	r3, r2, r6, r3
2fff1448:	f8d3 8004 	ldr.w	r8, [r3, #4]
2fff144c:	f1b8 0f00 	cmp.w	r8, #0
2fff1450:	d106      	bne.n	2fff1460 <plat_fwu_set_images_source+0x58>
2fff1452:	481d      	ldr	r0, [pc, #116]	@ (2fff14c8 <plat_fwu_set_images_source+0xc0>)
2fff1454:	f7f8 feea 	bl	2ffea22c <tf_log>
2fff1458:	f7f9 f97e 	bl	2ffea758 <console_flush>
2fff145c:	f7f7 ef0a 	blx	2ffe9274 <el3_panic>
2fff1460:	2f04      	cmp	r7, #4
2fff1462:	d1f9      	bne.n	2fff1458 <plat_fwu_set_images_source+0x50>
2fff1464:	4c19      	ldr	r4, [pc, #100]	@ (2fff14cc <plat_fwu_set_images_source+0xc4>)
2fff1466:	466e      	mov	r6, sp
2fff1468:	e894 000f 	ldmia.w	r4, {r0, r1, r2, r3}
2fff146c:	e886 000f 	stmia.w	r6, {r0, r1, r2, r3}
2fff1470:	2210      	movs	r2, #16
2fff1472:	4631      	mov	r1, r6
2fff1474:	4628      	mov	r0, r5
2fff1476:	f003 fd32 	bl	2fff4ede <memcmp>
2fff147a:	b930      	cbnz	r0, 2fff148a <plat_fwu_set_images_source+0x82>
2fff147c:	f44f 1380 	mov.w	r3, #1048576	@ 0x100000
2fff1480:	f8c8 3000 	str.w	r3, [r8]
2fff1484:	b008      	add	sp, #32
2fff1486:	e8bd 81f0 	ldmia.w	sp!, {r4, r5, r6, r7, r8, pc}
2fff148a:	3410      	adds	r4, #16
2fff148c:	ae04      	add	r6, sp, #16
2fff148e:	e894 000f 	ldmia.w	r4, {r0, r1, r2, r3}
2fff1492:	e886 000f 	stmia.w	r6, {r0, r1, r2, r3}
2fff1496:	2210      	movs	r2, #16
2fff1498:	4631      	mov	r1, r6
2fff149a:	4628      	mov	r0, r5
2fff149c:	f003 fd1f 	bl	2fff4ede <memcmp>
2fff14a0:	b910      	cbnz	r0, 2fff14a8 <plat_fwu_set_images_source+0xa0>
2fff14a2:	f44f 03a0 	mov.w	r3, #5242880	@ 0x500000
2fff14a6:	e7eb      	b.n	2fff1480 <plat_fwu_set_images_source+0x78>
2fff14a8:	4809      	ldr	r0, [pc, #36]	@ (2fff14d0 <plat_fwu_set_images_source+0xc8>)
2fff14aa:	e7d3      	b.n	2fff1454 <plat_fwu_set_images_source+0x4c>
2fff14ac:	f8df 8024 	ldr.w	r8, [pc, #36]	@ 2fff14d4 <plat_fwu_set_images_source+0xcc>
2fff14b0:	3428      	adds	r4, #40	@ 0x28
2fff14b2:	2318      	movs	r3, #24
2fff14b4:	2600      	movs	r6, #0
2fff14b6:	fb03 4500 	mla	r5, r3, r0, r4
2fff14ba:	3520      	adds	r5, #32
2fff14bc:	e7b9      	b.n	2fff1432 <plat_fwu_set_images_source+0x2a>
2fff14be:	bf00      	nop
2fff14c0:	2fff834a 	.word	0x2fff834a
2fff14c4:	2fffa11c 	.word	0x2fffa11c
2fff14c8:	2fff8456 	.word	0x2fff8456
2fff14cc:	2fff5bf4 	.word	0x2fff5bf4
2fff14d0:	2fff848f 	.word	0x2fff848f
2fff14d4:	2fffa124 	.word	0x2fffa124

2fff14d8 <plat_fwu_set_metadata_image_source>:
2fff14d8:	f1a0 030c 	sub.w	r3, r0, #12
2fff14dc:	2b01      	cmp	r3, #1
2fff14de:	b570      	push	{r4, r5, r6, lr}
2fff14e0:	4604      	mov	r4, r0
2fff14e2:	460d      	mov	r5, r1
2fff14e4:	4616      	mov	r6, r2
2fff14e6:	d904      	bls.n	2fff14f2 <plat_fwu_set_metadata_image_source+0x1a>
2fff14e8:	4810      	ldr	r0, [pc, #64]	@ (2fff152c <plat_fwu_set_metadata_image_source+0x54>)
2fff14ea:	f240 4106 	movw	r1, #1030	@ 0x406
2fff14ee:	f001 fe53 	bl	2fff3198 <__assert>
2fff14f2:	f000 f863 	bl	2fff15bc <stm32mp_get_boot_itf_selected>
2fff14f6:	490e      	ldr	r1, [pc, #56]	@ (2fff1530 <plat_fwu_set_metadata_image_source+0x58>)
2fff14f8:	231c      	movs	r3, #28
2fff14fa:	4363      	muls	r3, r4
2fff14fc:	2804      	cmp	r0, #4
2fff14fe:	eb01 0203 	add.w	r2, r1, r3
2fff1502:	6852      	ldr	r2, [r2, #4]
2fff1504:	d003      	beq.n	2fff150e <plat_fwu_set_metadata_image_source+0x36>
2fff1506:	f7f9 f927 	bl	2ffea758 <console_flush>
2fff150a:	f7f7 eeb4 	blx	2ffe9274 <el3_panic>
2fff150e:	2c0c      	cmp	r4, #12
2fff1510:	bf14      	ite	ne
2fff1512:	f44f 2040 	movne.w	r0, #786432	@ 0xc0000
2fff1516:	f44f 2000 	moveq.w	r0, #524288	@ 0x80000
2fff151a:	6010      	str	r0, [r2, #0]
2fff151c:	2078      	movs	r0, #120	@ 0x78
2fff151e:	6050      	str	r0, [r2, #4]
2fff1520:	2000      	movs	r0, #0
2fff1522:	6032      	str	r2, [r6, #0]
2fff1524:	58cb      	ldr	r3, [r1, r3]
2fff1526:	681b      	ldr	r3, [r3, #0]
2fff1528:	602b      	str	r3, [r5, #0]
2fff152a:	bd70      	pop	{r4, r5, r6, pc}
2fff152c:	2fff834a 	.word	0x2fff834a
2fff1530:	2fffa11c 	.word	0x2fffa11c

2fff1534 <stm32_get_bootinfo_cell>:
2fff1534:	b537      	push	{r0, r1, r2, r4, r5, lr}
2fff1536:	2300      	movs	r3, #0
2fff1538:	9301      	str	r3, [sp, #4]
2fff153a:	4604      	mov	r4, r0
2fff153c:	a801      	add	r0, sp, #4
2fff153e:	460d      	mov	r5, r1
2fff1540:	f000 fa30 	bl	2fff19a4 <fdt_get_address>
2fff1544:	b918      	cbnz	r0, 2fff154e <stm32_get_bootinfo_cell+0x1a>
2fff1546:	f06f 0012 	mvn.w	r0, #18
2fff154a:	b003      	add	sp, #12
2fff154c:	bd30      	pop	{r4, r5, pc}
2fff154e:	4a07      	ldr	r2, [pc, #28]	@ (2fff156c <stm32_get_bootinfo_cell+0x38>)
2fff1550:	f04f 31ff 	mov.w	r1, #4294967295	@ 0xffffffff
2fff1554:	9801      	ldr	r0, [sp, #4]
2fff1556:	f003 fc99 	bl	2fff4e8c <fdt_node_offset_by_compatible>
2fff155a:	1e01      	subs	r1, r0, #0
2fff155c:	dbf3      	blt.n	2fff1546 <stm32_get_bootinfo_cell+0x12>
2fff155e:	9801      	ldr	r0, [sp, #4]
2fff1560:	462b      	mov	r3, r5
2fff1562:	4622      	mov	r2, r4
2fff1564:	f7fd fcce 	bl	2ffeef04 <nvmem_get_cell_by_name>
2fff1568:	e7ef      	b.n	2fff154a <stm32_get_bootinfo_cell+0x16>
2fff156a:	bf00      	nop
2fff156c:	2fff84b4 	.word	0x2fff84b4

2fff1570 <stm32mp_save_boot_ctx_address>:
2fff1570:	4b0c      	ldr	r3, [pc, #48]	@ (2fff15a4 <stm32mp_save_boot_ctx_address+0x34>)
2fff1572:	7842      	ldrb	r2, [r0, #1]
2fff1574:	6018      	str	r0, [r3, #0]
2fff1576:	7803      	ldrb	r3, [r0, #0]
2fff1578:	ea43 2302 	orr.w	r3, r3, r2, lsl #8
2fff157c:	4a0a      	ldr	r2, [pc, #40]	@ (2fff15a8 <stm32mp_save_boot_ctx_address+0x38>)
2fff157e:	8013      	strh	r3, [r2, #0]
2fff1580:	f890 204d 	ldrb.w	r2, [r0, #77]	@ 0x4d
2fff1584:	f890 304c 	ldrb.w	r3, [r0, #76]	@ 0x4c
2fff1588:	ea43 2302 	orr.w	r3, r3, r2, lsl #8
2fff158c:	f890 204e 	ldrb.w	r2, [r0, #78]	@ 0x4e
2fff1590:	ea43 4302 	orr.w	r3, r3, r2, lsl #16
2fff1594:	f890 204f 	ldrb.w	r2, [r0, #79]	@ 0x4f
2fff1598:	ea43 6302 	orr.w	r3, r3, r2, lsl #24
2fff159c:	4a03      	ldr	r2, [pc, #12]	@ (2fff15ac <stm32mp_save_boot_ctx_address+0x3c>)
2fff159e:	6013      	str	r3, [r2, #0]
2fff15a0:	4770      	bx	lr
2fff15a2:	bf00      	nop
2fff15a4:	2fffba60 	.word	0x2fffba60
2fff15a8:	2fffba9a 	.word	0x2fffba9a
2fff15ac:	2fffba5c 	.word	0x2fffba5c

2fff15b0 <stm32mp_get_boot_ctx_address>:
2fff15b0:	4b01      	ldr	r3, [pc, #4]	@ (2fff15b8 <stm32mp_get_boot_ctx_address+0x8>)
2fff15b2:	6818      	ldr	r0, [r3, #0]
2fff15b4:	4770      	bx	lr
2fff15b6:	bf00      	nop
2fff15b8:	2fffba60 	.word	0x2fffba60

2fff15bc <stm32mp_get_boot_itf_selected>:
2fff15bc:	4b01      	ldr	r3, [pc, #4]	@ (2fff15c4 <stm32mp_get_boot_itf_selected+0x8>)
2fff15be:	8818      	ldrh	r0, [r3, #0]
2fff15c0:	4770      	bx	lr
2fff15c2:	bf00      	nop
2fff15c4:	2fffba9a 	.word	0x2fffba9a

2fff15c8 <stm32mp_get_boot_action>:
2fff15c8:	4b01      	ldr	r3, [pc, #4]	@ (2fff15d0 <stm32mp_get_boot_action+0x8>)
2fff15ca:	6818      	ldr	r0, [r3, #0]
2fff15cc:	4770      	bx	lr
2fff15ce:	bf00      	nop
2fff15d0:	2fffba5c 	.word	0x2fffba5c

2fff15d4 <stm32mp_ddrctrl_base>:
2fff15d4:	4800      	ldr	r0, [pc, #0]	@ (2fff15d8 <stm32mp_ddrctrl_base+0x4>)
2fff15d6:	4770      	bx	lr
2fff15d8:	5a003000 	.word	0x5a003000

2fff15dc <stm32mp_ddrphyc_base>:
2fff15dc:	4800      	ldr	r0, [pc, #0]	@ (2fff15e0 <stm32mp_ddrphyc_base+0x4>)
2fff15de:	4770      	bx	lr
2fff15e0:	5a004000 	.word	0x5a004000

2fff15e4 <stm32mp_pwr_base>:
2fff15e4:	4800      	ldr	r0, [pc, #0]	@ (2fff15e8 <stm32mp_pwr_base+0x4>)
2fff15e6:	4770      	bx	lr
2fff15e8:	50001000 	.word	0x50001000

2fff15ec <stm32mp_pwr_regs_lock>:
2fff15ec:	b508      	push	{r3, lr}
2fff15ee:	f002 ffc5 	bl	2fff457c <stm32mp_lock_available>
2fff15f2:	b120      	cbz	r0, 2fff15fe <stm32mp_pwr_regs_lock+0x12>
2fff15f4:	e8bd 4008 	ldmia.w	sp!, {r3, lr}
2fff15f8:	4801      	ldr	r0, [pc, #4]	@ (2fff1600 <stm32mp_pwr_regs_lock+0x14>)
2fff15fa:	f007 bf59 	b.w	2fff94b0 <__spin_lock_from_thumb>
2fff15fe:	bd08      	pop	{r3, pc}
2fff1600:	2fffba64 	.word	0x2fffba64

2fff1604 <stm32mp_pwr_regs_unlock>:
2fff1604:	b508      	push	{r3, lr}
2fff1606:	f002 ffb9 	bl	2fff457c <stm32mp_lock_available>
2fff160a:	b120      	cbz	r0, 2fff1616 <stm32mp_pwr_regs_unlock+0x12>
2fff160c:	e8bd 4008 	ldmia.w	sp!, {r3, lr}
2fff1610:	4801      	ldr	r0, [pc, #4]	@ (2fff1618 <stm32mp_pwr_regs_unlock+0x14>)
2fff1612:	f007 bf5d 	b.w	2fff94d0 <__spin_unlock_from_thumb>
2fff1616:	bd08      	pop	{r3, pc}
2fff1618:	2fffba64 	.word	0x2fffba64

2fff161c <stm32_get_otp_index>:
2fff161c:	b508      	push	{r3, lr}
2fff161e:	b918      	cbnz	r0, 2fff1628 <stm32_get_otp_index+0xc>
2fff1620:	21b1      	movs	r1, #177	@ 0xb1
2fff1622:	4805      	ldr	r0, [pc, #20]	@ (2fff1638 <stm32_get_otp_index+0x1c>)
2fff1624:	f001 fdb8 	bl	2fff3198 <__assert>
2fff1628:	b909      	cbnz	r1, 2fff162e <stm32_get_otp_index+0x12>
2fff162a:	21b2      	movs	r1, #178	@ 0xb2
2fff162c:	e7f9      	b.n	2fff1622 <stm32_get_otp_index+0x6>
2fff162e:	e8bd 4008 	ldmia.w	sp!, {r3, lr}
2fff1632:	f000 bae3 	b.w	2fff1bfc <dt_find_otp_name>
2fff1636:	bf00      	nop
2fff1638:	2fff84c8 	.word	0x2fff84c8

2fff163c <stm32_get_otp_value_from_idx>:
2fff163c:	b510      	push	{r4, lr}
2fff163e:	4604      	mov	r4, r0
2fff1640:	4608      	mov	r0, r1
2fff1642:	b919      	cbnz	r1, 2fff164c <stm32_get_otp_value_from_idx+0x10>
2fff1644:	4807      	ldr	r0, [pc, #28]	@ (2fff1664 <stm32_get_otp_value_from_idx+0x28>)
2fff1646:	21ce      	movs	r1, #206	@ 0xce
2fff1648:	f001 fda6 	bl	2fff3198 <__assert>
2fff164c:	4621      	mov	r1, r4
2fff164e:	f7fa fb83 	bl	2ffebd58 <bsec_shadow_read_otp>
2fff1652:	b128      	cbz	r0, 2fff1660 <stm32_get_otp_value_from_idx+0x24>
2fff1654:	4804      	ldr	r0, [pc, #16]	@ (2fff1668 <stm32_get_otp_value_from_idx+0x2c>)
2fff1656:	4621      	mov	r1, r4
2fff1658:	f7f8 fde8 	bl	2ffea22c <tf_log>
2fff165c:	f04f 30ff 	mov.w	r0, #4294967295	@ 0xffffffff
2fff1660:	bd10      	pop	{r4, pc}
2fff1662:	bf00      	nop
2fff1664:	2fff84c8 	.word	0x2fff84c8
2fff1668:	2fff84e8 	.word	0x2fff84e8

2fff166c <stm32_get_otp_value>:
2fff166c:	b537      	push	{r0, r1, r2, r4, r5, lr}
2fff166e:	460d      	mov	r5, r1
2fff1670:	4604      	mov	r4, r0
2fff1672:	b918      	cbnz	r0, 2fff167c <stm32_get_otp_value+0x10>
2fff1674:	21bb      	movs	r1, #187	@ 0xbb
2fff1676:	480c      	ldr	r0, [pc, #48]	@ (2fff16a8 <stm32_get_otp_value+0x3c>)
2fff1678:	f001 fd8e 	bl	2fff3198 <__assert>
2fff167c:	b909      	cbnz	r1, 2fff1682 <stm32_get_otp_value+0x16>
2fff167e:	21bc      	movs	r1, #188	@ 0xbc
2fff1680:	e7f9      	b.n	2fff1676 <stm32_get_otp_value+0xa>
2fff1682:	2200      	movs	r2, #0
2fff1684:	a901      	add	r1, sp, #4
2fff1686:	f7ff ffc9 	bl	2fff161c <stm32_get_otp_index>
2fff168a:	b940      	cbnz	r0, 2fff169e <stm32_get_otp_value+0x32>
2fff168c:	9801      	ldr	r0, [sp, #4]
2fff168e:	4629      	mov	r1, r5
2fff1690:	f7ff ffd4 	bl	2fff163c <stm32_get_otp_value_from_idx>
2fff1694:	b128      	cbz	r0, 2fff16a2 <stm32_get_otp_value+0x36>
2fff1696:	4805      	ldr	r0, [pc, #20]	@ (2fff16ac <stm32_get_otp_value+0x40>)
2fff1698:	4621      	mov	r1, r4
2fff169a:	f7f8 fdc7 	bl	2ffea22c <tf_log>
2fff169e:	f04f 30ff 	mov.w	r0, #4294967295	@ 0xffffffff
2fff16a2:	b003      	add	sp, #12
2fff16a4:	bd30      	pop	{r4, r5, pc}
2fff16a6:	bf00      	nop
2fff16a8:	2fff84c8 	.word	0x2fff84c8
2fff16ac:	2fff8502 	.word	0x2fff8502

2fff16b0 <stm32mp_uart_console_setup>:
2fff16b0:	b51f      	push	{r0, r1, r2, r3, r4, lr}
2fff16b2:	4668      	mov	r0, sp
2fff16b4:	f000 fa32 	bl	2fff1b1c <dt_get_stdout_uart_info>
2fff16b8:	2800      	cmp	r0, #0
2fff16ba:	dc04      	bgt.n	2fff16c6 <stm32mp_uart_console_setup+0x16>
2fff16bc:	f06f 0412 	mvn.w	r4, #18
2fff16c0:	4620      	mov	r0, r4
2fff16c2:	b004      	add	sp, #16
2fff16c4:	bd10      	pop	{r4, pc}
2fff16c6:	9b03      	ldr	r3, [sp, #12]
2fff16c8:	2b00      	cmp	r3, #0
2fff16ca:	d0f7      	beq.n	2fff16bc <stm32mp_uart_console_setup+0xc>
2fff16cc:	9b01      	ldr	r3, [sp, #4]
2fff16ce:	9a02      	ldr	r2, [sp, #8]
2fff16d0:	431a      	orrs	r2, r3
2fff16d2:	d4f3      	bmi.n	2fff16bc <stm32mp_uart_console_setup+0xc>
2fff16d4:	4a19      	ldr	r2, [pc, #100]	@ (2fff173c <stm32mp_uart_console_setup+0x8c>)
2fff16d6:	6013      	str	r3, [r2, #0]
2fff16d8:	f000 f9b8 	bl	2fff1a4c <dt_set_stdout_pinctrl>
2fff16dc:	2800      	cmp	r0, #0
2fff16de:	d1ed      	bne.n	2fff16bc <stm32mp_uart_console_setup+0xc>
2fff16e0:	9801      	ldr	r0, [sp, #4]
2fff16e2:	f7f8 ff6b 	bl	2ffea5bc <clk_enable>
2fff16e6:	9c02      	ldr	r4, [sp, #8]
2fff16e8:	f44f 717a 	mov.w	r1, #1000	@ 0x3e8
2fff16ec:	4620      	mov	r0, r4
2fff16ee:	f7fe fb37 	bl	2ffefd60 <stm32mp_reset_assert>
2fff16f2:	b118      	cbz	r0, 2fff16fc <stm32mp_uart_console_setup+0x4c>
2fff16f4:	f7f9 f830 	bl	2ffea758 <console_flush>
2fff16f8:	f7f7 edbc 	blx	2ffe9274 <el3_panic>
2fff16fc:	2002      	movs	r0, #2
2fff16fe:	f7f9 f83f 	bl	2ffea780 <udelay>
2fff1702:	4620      	mov	r0, r4
2fff1704:	f44f 717a 	mov.w	r1, #1000	@ 0x3e8
2fff1708:	f7fe fb5a 	bl	2ffefdc0 <stm32mp_reset_deassert>
2fff170c:	4604      	mov	r4, r0
2fff170e:	2800      	cmp	r0, #0
2fff1710:	d1f0      	bne.n	2fff16f4 <stm32mp_uart_console_setup+0x44>
2fff1712:	2001      	movs	r0, #1
2fff1714:	f002 f815 	bl	2fff3742 <mdelay>
2fff1718:	9801      	ldr	r0, [sp, #4]
2fff171a:	f7f8 ff73 	bl	2ffea604 <clk_get_rate>
2fff171e:	4b08      	ldr	r3, [pc, #32]	@ (2fff1740 <stm32mp_uart_console_setup+0x90>)
2fff1720:	4601      	mov	r1, r0
2fff1722:	9800      	ldr	r0, [sp, #0]
2fff1724:	f44f 32e1 	mov.w	r2, #115200	@ 0x1c200
2fff1728:	f7f7 ee32 	blx	2ffe9390 <console_stm32_register>
2fff172c:	2800      	cmp	r0, #0
2fff172e:	d0e1      	beq.n	2fff16f4 <stm32mp_uart_console_setup+0x44>
2fff1730:	4803      	ldr	r0, [pc, #12]	@ (2fff1740 <stm32mp_uart_console_setup+0x90>)
2fff1732:	f240 1105 	movw	r1, #261	@ 0x105
2fff1736:	f7f8 ffd5 	bl	2ffea6e4 <console_set_scope>
2fff173a:	e7c1      	b.n	2fff16c0 <stm32mp_uart_console_setup+0x10>
2fff173c:	2fffba68 	.word	0x2fffba68
2fff1740:	2fffba6c 	.word	0x2fffba6c

2fff1744 <stm32_display_board_info>:
2fff1744:	f000 030f 	and.w	r3, r0, #15
2fff1748:	b507      	push	{r0, r1, r2, lr}
2fff174a:	9301      	str	r3, [sp, #4]
2fff174c:	f3c0 2303 	ubfx	r3, r0, #8, #4
2fff1750:	f3c0 3203 	ubfx	r2, r0, #12, #4
2fff1754:	3340      	adds	r3, #64	@ 0x40
2fff1756:	0c01      	lsrs	r1, r0, #16
2fff1758:	9300      	str	r3, [sp, #0]
2fff175a:	f3c0 1303 	ubfx	r3, r0, #4, #4
2fff175e:	4803      	ldr	r0, [pc, #12]	@ (2fff176c <stm32_display_board_info+0x28>)
2fff1760:	f7f8 fd64 	bl	2ffea22c <tf_log>
2fff1764:	b003      	add	sp, #12
2fff1766:	f85d fb04 	ldr.w	pc, [sp], #4
2fff176a:	bf00      	nop
2fff176c:	2fff8518 	.word	0x2fff8518

2fff1770 <stm32_get_magic_number_cell>:
2fff1770:	b538      	push	{r3, r4, r5, lr}
2fff1772:	4604      	mov	r4, r0
2fff1774:	4d08      	ldr	r5, [pc, #32]	@ (2fff1798 <stm32_get_magic_number_cell+0x28>)
2fff1776:	782b      	ldrb	r3, [r5, #0]
2fff1778:	b933      	cbnz	r3, 2fff1788 <stm32_get_magic_number_cell+0x18>
2fff177a:	4908      	ldr	r1, [pc, #32]	@ (2fff179c <stm32_get_magic_number_cell+0x2c>)
2fff177c:	4808      	ldr	r0, [pc, #32]	@ (2fff17a0 <stm32_get_magic_number_cell+0x30>)
2fff177e:	f7ff fed9 	bl	2fff1534 <stm32_get_bootinfo_cell>
2fff1782:	b938      	cbnz	r0, 2fff1794 <stm32_get_magic_number_cell+0x24>
2fff1784:	2301      	movs	r3, #1
2fff1786:	702b      	strb	r3, [r5, #0]
2fff1788:	4904      	ldr	r1, [pc, #16]	@ (2fff179c <stm32_get_magic_number_cell+0x2c>)
2fff178a:	220c      	movs	r2, #12
2fff178c:	4620      	mov	r0, r4
2fff178e:	f003 fbb4 	bl	2fff4efa <memcpy>
2fff1792:	2000      	movs	r0, #0
2fff1794:	bd38      	pop	{r3, r4, r5, pc}
2fff1796:	bf00      	nop
2fff1798:	2fffbb1c 	.word	0x2fffbb1c
2fff179c:	2fffba50 	.word	0x2fffba50
2fff17a0:	2fff853d 	.word	0x2fff853d

2fff17a4 <stm32_get_core1_branch_address_cell>:
2fff17a4:	b538      	push	{r3, r4, r5, lr}
2fff17a6:	4604      	mov	r4, r0
2fff17a8:	4d08      	ldr	r5, [pc, #32]	@ (2fff17cc <stm32_get_core1_branch_address_cell+0x28>)
2fff17aa:	782b      	ldrb	r3, [r5, #0]
2fff17ac:	b933      	cbnz	r3, 2fff17bc <stm32_get_core1_branch_address_cell+0x18>
2fff17ae:	4908      	ldr	r1, [pc, #32]	@ (2fff17d0 <stm32_get_core1_branch_address_cell+0x2c>)
2fff17b0:	4808      	ldr	r0, [pc, #32]	@ (2fff17d4 <stm32_get_core1_branch_address_cell+0x30>)
2fff17b2:	f7ff febf 	bl	2fff1534 <stm32_get_bootinfo_cell>
2fff17b6:	b938      	cbnz	r0, 2fff17c8 <stm32_get_core1_branch_address_cell+0x24>
2fff17b8:	2301      	movs	r3, #1
2fff17ba:	702b      	strb	r3, [r5, #0]
2fff17bc:	4904      	ldr	r1, [pc, #16]	@ (2fff17d0 <stm32_get_core1_branch_address_cell+0x2c>)
2fff17be:	220c      	movs	r2, #12
2fff17c0:	4620      	mov	r0, r4
2fff17c2:	f003 fb9a 	bl	2fff4efa <memcpy>
2fff17c6:	2000      	movs	r0, #0
2fff17c8:	bd38      	pop	{r3, r4, r5, pc}
2fff17ca:	bf00      	nop
2fff17cc:	2fffbb1b 	.word	0x2fffbb1b
2fff17d0:	2fffba44 	.word	0x2fffba44
2fff17d4:	2fff854a 	.word	0x2fff854a

2fff17d8 <stm32_get_fwu_info_cell>:
2fff17d8:	b538      	push	{r3, r4, r5, lr}
2fff17da:	4604      	mov	r4, r0
2fff17dc:	4d08      	ldr	r5, [pc, #32]	@ (2fff1800 <stm32_get_fwu_info_cell+0x28>)
2fff17de:	782b      	ldrb	r3, [r5, #0]
2fff17e0:	b933      	cbnz	r3, 2fff17f0 <stm32_get_fwu_info_cell+0x18>
2fff17e2:	4908      	ldr	r1, [pc, #32]	@ (2fff1804 <stm32_get_fwu_info_cell+0x2c>)
2fff17e4:	4808      	ldr	r0, [pc, #32]	@ (2fff1808 <stm32_get_fwu_info_cell+0x30>)
2fff17e6:	f7ff fea5 	bl	2fff1534 <stm32_get_bootinfo_cell>
2fff17ea:	b938      	cbnz	r0, 2fff17fc <stm32_get_fwu_info_cell+0x24>
2fff17ec:	2301      	movs	r3, #1
2fff17ee:	702b      	strb	r3, [r5, #0]
2fff17f0:	4904      	ldr	r1, [pc, #16]	@ (2fff1804 <stm32_get_fwu_info_cell+0x2c>)
2fff17f2:	220c      	movs	r2, #12
2fff17f4:	4620      	mov	r0, r4
2fff17f6:	f003 fb80 	bl	2fff4efa <memcpy>
2fff17fa:	2000      	movs	r0, #0
2fff17fc:	bd38      	pop	{r3, r4, r5, pc}
2fff17fe:	bf00      	nop
2fff1800:	2fffbb1a 	.word	0x2fffbb1a
2fff1804:	2fffba38 	.word	0x2fffba38
2fff1808:	2fff855f 	.word	0x2fff855f

2fff180c <stm32_get_boot_mode_cell>:
2fff180c:	b538      	push	{r3, r4, r5, lr}
2fff180e:	4604      	mov	r4, r0
2fff1810:	4d08      	ldr	r5, [pc, #32]	@ (2fff1834 <stm32_get_boot_mode_cell+0x28>)
2fff1812:	782b      	ldrb	r3, [r5, #0]
2fff1814:	b933      	cbnz	r3, 2fff1824 <stm32_get_boot_mode_cell+0x18>
2fff1816:	4908      	ldr	r1, [pc, #32]	@ (2fff1838 <stm32_get_boot_mode_cell+0x2c>)
2fff1818:	4808      	ldr	r0, [pc, #32]	@ (2fff183c <stm32_get_boot_mode_cell+0x30>)
2fff181a:	f7ff fe8b 	bl	2fff1534 <stm32_get_bootinfo_cell>
2fff181e:	b938      	cbnz	r0, 2fff1830 <stm32_get_boot_mode_cell+0x24>
2fff1820:	2301      	movs	r3, #1
2fff1822:	702b      	strb	r3, [r5, #0]
2fff1824:	4904      	ldr	r1, [pc, #16]	@ (2fff1838 <stm32_get_boot_mode_cell+0x2c>)
2fff1826:	220c      	movs	r2, #12
2fff1828:	4620      	mov	r0, r4
2fff182a:	f003 fb66 	bl	2fff4efa <memcpy>
2fff182e:	2000      	movs	r0, #0
2fff1830:	bd38      	pop	{r3, r4, r5, pc}
2fff1832:	bf00      	nop
2fff1834:	2fffbb19 	.word	0x2fffbb19
2fff1838:	2fffba2c 	.word	0x2fffba2c
2fff183c:	2fff8568 	.word	0x2fff8568

2fff1840 <stm32_save_boot_info>:
2fff1840:	e92d 41ff 	stmdb	sp!, {r0, r1, r2, r3, r4, r5, r6, r7, r8, lr}
2fff1844:	2300      	movs	r3, #0
2fff1846:	9301      	str	r3, [sp, #4]
2fff1848:	9302      	str	r3, [sp, #8]
2fff184a:	9303      	str	r3, [sp, #12]
2fff184c:	9300      	str	r3, [sp, #0]
2fff184e:	7887      	ldrb	r7, [r0, #2]
2fff1850:	78c3      	ldrb	r3, [r0, #3]
2fff1852:	ea47 2703 	orr.w	r7, r7, r3, lsl #8
2fff1856:	2f0f      	cmp	r7, #15
2fff1858:	d904      	bls.n	2fff1864 <stm32_save_boot_info+0x24>
2fff185a:	f44f 71e7 	mov.w	r1, #462	@ 0x1ce
2fff185e:	482a      	ldr	r0, [pc, #168]	@ (2fff1908 <stm32_save_boot_info+0xc8>)
2fff1860:	f001 fc9a 	bl	2fff3198 <__assert>
2fff1864:	7805      	ldrb	r5, [r0, #0]
2fff1866:	7843      	ldrb	r3, [r0, #1]
2fff1868:	ea45 2503 	orr.w	r5, r5, r3, lsl #8
2fff186c:	2d0f      	cmp	r5, #15
2fff186e:	d902      	bls.n	2fff1876 <stm32_save_boot_info+0x36>
2fff1870:	f240 11cf 	movw	r1, #463	@ 0x1cf
2fff1874:	e7f3      	b.n	2fff185e <stm32_save_boot_info+0x1e>
2fff1876:	f890 3091 	ldrb.w	r3, [r0, #145]	@ 0x91
2fff187a:	f890 8090 	ldrb.w	r8, [r0, #144]	@ 0x90
2fff187e:	ea48 2803 	orr.w	r8, r8, r3, lsl #8
2fff1882:	f890 3092 	ldrb.w	r3, [r0, #146]	@ 0x92
2fff1886:	ea48 4803 	orr.w	r8, r8, r3, lsl #16
2fff188a:	f890 3093 	ldrb.w	r3, [r0, #147]	@ 0x93
2fff188e:	ea48 6803 	orr.w	r8, r8, r3, lsl #24
2fff1892:	f1b8 0f0f 	cmp.w	r8, #15
2fff1896:	d902      	bls.n	2fff189e <stm32_save_boot_info+0x5e>
2fff1898:	f44f 71e8 	mov.w	r1, #464	@ 0x1d0
2fff189c:	e7df      	b.n	2fff185e <stm32_save_boot_info+0x1e>
2fff189e:	f890 3059 	ldrb.w	r3, [r0, #89]	@ 0x59
2fff18a2:	f890 4058 	ldrb.w	r4, [r0, #88]	@ 0x58
2fff18a6:	ea44 2403 	orr.w	r4, r4, r3, lsl #8
2fff18aa:	f890 305a 	ldrb.w	r3, [r0, #90]	@ 0x5a
2fff18ae:	ea44 4403 	orr.w	r4, r4, r3, lsl #16
2fff18b2:	f890 305b 	ldrb.w	r3, [r0, #91]	@ 0x5b
2fff18b6:	ea54 6403 	orrs.w	r4, r4, r3, lsl #24
2fff18ba:	d002      	beq.n	2fff18c2 <stm32_save_boot_info+0x82>
2fff18bc:	2c02      	cmp	r4, #2
2fff18be:	bf18      	it	ne
2fff18c0:	2401      	movne	r4, #1
2fff18c2:	a801      	add	r0, sp, #4
2fff18c4:	f7ff ffa2 	bl	2fff180c <stm32_get_boot_mode_cell>
2fff18c8:	4606      	mov	r6, r0
2fff18ca:	b9c0      	cbnz	r0, 2fff18fe <stm32_save_boot_info+0xbe>
2fff18cc:	2204      	movs	r2, #4
2fff18ce:	4603      	mov	r3, r0
2fff18d0:	eb0d 0002 	add.w	r0, sp, r2
2fff18d4:	4669      	mov	r1, sp
2fff18d6:	032d      	lsls	r5, r5, #12
2fff18d8:	f002 fb33 	bl	2fff3f42 <nvmem_cell_read>
2fff18dc:	9a00      	ldr	r2, [sp, #0]
2fff18de:	4669      	mov	r1, sp
2fff18e0:	ea45 2507 	orr.w	r5, r5, r7, lsl #8
2fff18e4:	f36f 2217 	bfc	r2, #8, #16
2fff18e8:	ea42 4208 	orr.w	r2, r2, r8, lsl #16
2fff18ec:	432a      	orrs	r2, r5
2fff18ee:	ea42 5204 	orr.w	r2, r2, r4, lsl #20
2fff18f2:	9200      	str	r2, [sp, #0]
2fff18f4:	2204      	movs	r2, #4
2fff18f6:	eb0d 0002 	add.w	r0, sp, r2
2fff18fa:	f002 fb2e 	bl	2fff3f5a <nvmem_cell_write>
2fff18fe:	4630      	mov	r0, r6
2fff1900:	b004      	add	sp, #16
2fff1902:	e8bd 81f0 	ldmia.w	sp!, {r4, r5, r6, r7, r8, pc}
2fff1906:	bf00      	nop
2fff1908:	2fff84c8 	.word	0x2fff84c8

2fff190c <stm32_get_and_dec_fwu_trial_boot_cnt>:
2fff190c:	b57f      	push	{r0, r1, r2, r3, r4, r5, r6, lr}
2fff190e:	2300      	movs	r3, #0
2fff1910:	9301      	str	r3, [sp, #4]
2fff1912:	4606      	mov	r6, r0
2fff1914:	9302      	str	r3, [sp, #8]
2fff1916:	a801      	add	r0, sp, #4
2fff1918:	9303      	str	r3, [sp, #12]
2fff191a:	9300      	str	r3, [sp, #0]
2fff191c:	f7ff ff5c 	bl	2fff17d8 <stm32_get_fwu_info_cell>
2fff1920:	4604      	mov	r4, r0
2fff1922:	b9a0      	cbnz	r0, 2fff194e <stm32_get_and_dec_fwu_trial_boot_cnt+0x42>
2fff1924:	2204      	movs	r2, #4
2fff1926:	4603      	mov	r3, r0
2fff1928:	eb0d 0002 	add.w	r0, sp, r2
2fff192c:	4669      	mov	r1, sp
2fff192e:	f002 fb08 	bl	2fff3f42 <nvmem_cell_read>
2fff1932:	4604      	mov	r4, r0
2fff1934:	b958      	cbnz	r0, 2fff194e <stm32_get_and_dec_fwu_trial_boot_cnt+0x42>
2fff1936:	9d00      	ldr	r5, [sp, #0]
2fff1938:	f3c5 1503 	ubfx	r5, r5, #4, #4
2fff193c:	2d04      	cmp	r5, #4
2fff193e:	d904      	bls.n	2fff194a <stm32_get_and_dec_fwu_trial_boot_cnt+0x3e>
2fff1940:	4809      	ldr	r0, [pc, #36]	@ (2fff1968 <stm32_get_and_dec_fwu_trial_boot_cnt+0x5c>)
2fff1942:	f240 21be 	movw	r1, #702	@ 0x2be
2fff1946:	f001 fc27 	bl	2fff3198 <__assert>
2fff194a:	b91d      	cbnz	r5, 2fff1954 <stm32_get_and_dec_fwu_trial_boot_cnt+0x48>
2fff194c:	6035      	str	r5, [r6, #0]
2fff194e:	4620      	mov	r0, r4
2fff1950:	b004      	add	sp, #16
2fff1952:	bd70      	pop	{r4, r5, r6, pc}
2fff1954:	1e6a      	subs	r2, r5, #1
2fff1956:	21f0      	movs	r1, #240	@ 0xf0
2fff1958:	a801      	add	r0, sp, #4
2fff195a:	0112      	lsls	r2, r2, #4
2fff195c:	f002 fdef 	bl	2fff453e <stm32_nvmem_cell_clrset>
2fff1960:	2800      	cmp	r0, #0
2fff1962:	d0f3      	beq.n	2fff194c <stm32_get_and_dec_fwu_trial_boot_cnt+0x40>
2fff1964:	4604      	mov	r4, r0
2fff1966:	e7f2      	b.n	2fff194e <stm32_get_and_dec_fwu_trial_boot_cnt+0x42>
2fff1968:	2fff84c8 	.word	0x2fff84c8

2fff196c <fdt_get_node_parent_address_cells>:
2fff196c:	b510      	push	{r4, lr}
2fff196e:	4601      	mov	r1, r0
2fff1970:	4c06      	ldr	r4, [pc, #24]	@ (2fff198c <fdt_get_node_parent_address_cells+0x20>)
2fff1972:	6820      	ldr	r0, [r4, #0]
2fff1974:	f003 fa03 	bl	2fff4d7e <fdt_parent_offset>
2fff1978:	1e01      	subs	r1, r0, #0
2fff197a:	db04      	blt.n	2fff1986 <fdt_get_node_parent_address_cells+0x1a>
2fff197c:	6820      	ldr	r0, [r4, #0]
2fff197e:	e8bd 4010 	ldmia.w	sp!, {r4, lr}
2fff1982:	f001 bb4d 	b.w	2fff3020 <fdt_address_cells>
2fff1986:	f04f 30ff 	mov.w	r0, #4294967295	@ 0xffffffff
2fff198a:	bd10      	pop	{r4, pc}
2fff198c:	2fffba84 	.word	0x2fffba84

2fff1990 <dt_open_and_check>:
2fff1990:	b510      	push	{r4, lr}
2fff1992:	4604      	mov	r4, r0
2fff1994:	f001 fadc 	bl	2fff2f50 <fdt_check_header>
2fff1998:	b908      	cbnz	r0, 2fff199e <dt_open_and_check+0xe>
2fff199a:	4b01      	ldr	r3, [pc, #4]	@ (2fff19a0 <dt_open_and_check+0x10>)
2fff199c:	601c      	str	r4, [r3, #0]
2fff199e:	bd10      	pop	{r4, pc}
2fff19a0:	2fffba84 	.word	0x2fffba84

2fff19a4 <fdt_get_address>:
2fff19a4:	4b03      	ldr	r3, [pc, #12]	@ (2fff19b4 <fdt_get_address+0x10>)
2fff19a6:	681b      	ldr	r3, [r3, #0]
2fff19a8:	b113      	cbz	r3, 2fff19b0 <fdt_get_address+0xc>
2fff19aa:	6003      	str	r3, [r0, #0]
2fff19ac:	2001      	movs	r0, #1
2fff19ae:	4770      	bx	lr
2fff19b0:	4618      	mov	r0, r3
2fff19b2:	4770      	bx	lr
2fff19b4:	2fffba84 	.word	0x2fffba84

2fff19b8 <fdt_check_node>:
2fff19b8:	4b06      	ldr	r3, [pc, #24]	@ (2fff19d4 <fdt_check_node+0x1c>)
2fff19ba:	b507      	push	{r0, r1, r2, lr}
2fff19bc:	4601      	mov	r1, r0
2fff19be:	6818      	ldr	r0, [r3, #0]
2fff19c0:	aa01      	add	r2, sp, #4
2fff19c2:	f003 f83b 	bl	2fff4a3c <fdt_get_name>
2fff19c6:	b110      	cbz	r0, 2fff19ce <fdt_check_node+0x16>
2fff19c8:	9801      	ldr	r0, [sp, #4]
2fff19ca:	43c0      	mvns	r0, r0
2fff19cc:	0fc0      	lsrs	r0, r0, #31
2fff19ce:	b003      	add	sp, #12
2fff19d0:	f85d fb04 	ldr.w	pc, [sp], #4
2fff19d4:	2fffba84 	.word	0x2fffba84

2fff19d8 <fdt_get_status>:
2fff19d8:	b570      	push	{r4, r5, r6, lr}
2fff19da:	4601      	mov	r1, r0
2fff19dc:	4e17      	ldr	r6, [pc, #92]	@ (2fff1a3c <fdt_get_status+0x64>)
2fff19de:	4605      	mov	r5, r0
2fff19e0:	4a17      	ldr	r2, [pc, #92]	@ (2fff1a40 <fdt_get_status+0x68>)
2fff19e2:	2300      	movs	r3, #0
2fff19e4:	6830      	ldr	r0, [r6, #0]
2fff19e6:	f003 f91c 	bl	2fff4c22 <fdt_getprop>
2fff19ea:	4604      	mov	r4, r0
2fff19ec:	b1c0      	cbz	r0, 2fff1a20 <fdt_get_status+0x48>
2fff19ee:	4815      	ldr	r0, [pc, #84]	@ (2fff1a44 <fdt_get_status+0x6c>)
2fff19f0:	f003 fbb8 	bl	2fff5164 <strlen>
2fff19f4:	4913      	ldr	r1, [pc, #76]	@ (2fff1a44 <fdt_get_status+0x6c>)
2fff19f6:	4602      	mov	r2, r0
2fff19f8:	4620      	mov	r0, r4
2fff19fa:	f003 fbbb 	bl	2fff5174 <strncmp>
2fff19fe:	fab0 f480 	clz	r4, r0
2fff1a02:	0964      	lsrs	r4, r4, #5
2fff1a04:	4a10      	ldr	r2, [pc, #64]	@ (2fff1a48 <fdt_get_status+0x70>)
2fff1a06:	4629      	mov	r1, r5
2fff1a08:	6830      	ldr	r0, [r6, #0]
2fff1a0a:	2300      	movs	r3, #0
2fff1a0c:	f003 f909 	bl	2fff4c22 <fdt_getprop>
2fff1a10:	4605      	mov	r5, r0
2fff1a12:	b938      	cbnz	r0, 2fff1a24 <fdt_get_status+0x4c>
2fff1a14:	2c01      	cmp	r4, #1
2fff1a16:	d101      	bne.n	2fff1a1c <fdt_get_status+0x44>
2fff1a18:	f044 0402 	orr.w	r4, r4, #2
2fff1a1c:	4620      	mov	r0, r4
2fff1a1e:	bd70      	pop	{r4, r5, r6, pc}
2fff1a20:	2401      	movs	r4, #1
2fff1a22:	e7ef      	b.n	2fff1a04 <fdt_get_status+0x2c>
2fff1a24:	4807      	ldr	r0, [pc, #28]	@ (2fff1a44 <fdt_get_status+0x6c>)
2fff1a26:	f003 fb9d 	bl	2fff5164 <strlen>
2fff1a2a:	4906      	ldr	r1, [pc, #24]	@ (2fff1a44 <fdt_get_status+0x6c>)
2fff1a2c:	4602      	mov	r2, r0
2fff1a2e:	4628      	mov	r0, r5
2fff1a30:	f003 fba0 	bl	2fff5174 <strncmp>
2fff1a34:	2800      	cmp	r0, #0
2fff1a36:	d0ef      	beq.n	2fff1a18 <fdt_get_status+0x40>
2fff1a38:	e7f0      	b.n	2fff1a1c <fdt_get_status+0x44>
2fff1a3a:	bf00      	nop
2fff1a3c:	2fffba84 	.word	0x2fffba84
2fff1a40:	2fff857e 	.word	0x2fff857e
2fff1a44:	2fff8572 	.word	0x2fff8572
2fff1a48:	2fff8577 	.word	0x2fff8577

2fff1a4c <dt_set_stdout_pinctrl>:
2fff1a4c:	b508      	push	{r3, lr}
2fff1a4e:	4b06      	ldr	r3, [pc, #24]	@ (2fff1a68 <dt_set_stdout_pinctrl+0x1c>)
2fff1a50:	6818      	ldr	r0, [r3, #0]
2fff1a52:	f7f8 fbb1 	bl	2ffea1b8 <fdt_get_stdout_node_offset>
2fff1a56:	2800      	cmp	r0, #0
2fff1a58:	db03      	blt.n	2fff1a62 <dt_set_stdout_pinctrl+0x16>
2fff1a5a:	e8bd 4008 	ldmia.w	sp!, {r3, lr}
2fff1a5e:	f7fc bad1 	b.w	2ffee004 <dt_set_pinctrl_config>
2fff1a62:	f04f 30ff 	mov.w	r0, #4294967295	@ 0xffffffff
2fff1a66:	bd08      	pop	{r3, pc}
2fff1a68:	2fffba84 	.word	0x2fffba84

2fff1a6c <dt_fill_device_info>:
2fff1a6c:	b570      	push	{r4, r5, r6, lr}
2fff1a6e:	4605      	mov	r5, r0
2fff1a70:	4608      	mov	r0, r1
2fff1a72:	460c      	mov	r4, r1
2fff1a74:	f7ff ff7a 	bl	2fff196c <fdt_get_node_parent_address_cells>
2fff1a78:	2801      	cmp	r0, #1
2fff1a7a:	d003      	beq.n	2fff1a84 <dt_fill_device_info+0x18>
2fff1a7c:	4818      	ldr	r0, [pc, #96]	@ (2fff1ae0 <dt_fill_device_info+0x74>)
2fff1a7e:	2188      	movs	r1, #136	@ 0x88
2fff1a80:	f001 fb8a 	bl	2fff3198 <__assert>
2fff1a84:	4e17      	ldr	r6, [pc, #92]	@ (2fff1ae4 <dt_fill_device_info+0x78>)
2fff1a86:	2300      	movs	r3, #0
2fff1a88:	4a17      	ldr	r2, [pc, #92]	@ (2fff1ae8 <dt_fill_device_info+0x7c>)
2fff1a8a:	4621      	mov	r1, r4
2fff1a8c:	6830      	ldr	r0, [r6, #0]
2fff1a8e:	f003 f8c8 	bl	2fff4c22 <fdt_getprop>
2fff1a92:	b110      	cbz	r0, 2fff1a9a <dt_fill_device_info+0x2e>
2fff1a94:	6800      	ldr	r0, [r0, #0]
2fff1a96:	f002 fdc4 	bl	2fff4622 <fdt32_to_cpu>
2fff1a9a:	6028      	str	r0, [r5, #0]
2fff1a9c:	2300      	movs	r3, #0
2fff1a9e:	4a13      	ldr	r2, [pc, #76]	@ (2fff1aec <dt_fill_device_info+0x80>)
2fff1aa0:	4621      	mov	r1, r4
2fff1aa2:	6830      	ldr	r0, [r6, #0]
2fff1aa4:	f003 f8bd 	bl	2fff4c22 <fdt_getprop>
2fff1aa8:	b198      	cbz	r0, 2fff1ad2 <dt_fill_device_info+0x66>
2fff1aaa:	6840      	ldr	r0, [r0, #4]
2fff1aac:	f002 fdb9 	bl	2fff4622 <fdt32_to_cpu>
2fff1ab0:	6068      	str	r0, [r5, #4]
2fff1ab2:	2300      	movs	r3, #0
2fff1ab4:	4a0e      	ldr	r2, [pc, #56]	@ (2fff1af0 <dt_fill_device_info+0x84>)
2fff1ab6:	4621      	mov	r1, r4
2fff1ab8:	6830      	ldr	r0, [r6, #0]
2fff1aba:	f003 f8b2 	bl	2fff4c22 <fdt_getprop>
2fff1abe:	b158      	cbz	r0, 2fff1ad8 <dt_fill_device_info+0x6c>
2fff1ac0:	6840      	ldr	r0, [r0, #4]
2fff1ac2:	f002 fdae 	bl	2fff4622 <fdt32_to_cpu>
2fff1ac6:	60a8      	str	r0, [r5, #8]
2fff1ac8:	4620      	mov	r0, r4
2fff1aca:	f7ff ff85 	bl	2fff19d8 <fdt_get_status>
2fff1ace:	60e8      	str	r0, [r5, #12]
2fff1ad0:	bd70      	pop	{r4, r5, r6, pc}
2fff1ad2:	f04f 30ff 	mov.w	r0, #4294967295	@ 0xffffffff
2fff1ad6:	e7eb      	b.n	2fff1ab0 <dt_fill_device_info+0x44>
2fff1ad8:	f04f 30ff 	mov.w	r0, #4294967295	@ 0xffffffff
2fff1adc:	e7f3      	b.n	2fff1ac6 <dt_fill_device_info+0x5a>
2fff1ade:	bf00      	nop
2fff1ae0:	2fff8585 	.word	0x2fff8585
2fff1ae4:	2fffba84 	.word	0x2fffba84
2fff1ae8:	2fff748c 	.word	0x2fff748c
2fff1aec:	2fff72dc 	.word	0x2fff72dc
2fff1af0:	2fff85a1 	.word	0x2fff85a1

2fff1af4 <dt_get_node>:
2fff1af4:	b538      	push	{r3, r4, r5, lr}
2fff1af6:	4605      	mov	r5, r0
2fff1af8:	4b07      	ldr	r3, [pc, #28]	@ (2fff1b18 <dt_get_node+0x24>)
2fff1afa:	6818      	ldr	r0, [r3, #0]
2fff1afc:	f003 f9c6 	bl	2fff4e8c <fdt_node_offset_by_compatible>
2fff1b00:	1e04      	subs	r4, r0, #0
2fff1b02:	db05      	blt.n	2fff1b10 <dt_get_node+0x1c>
2fff1b04:	4621      	mov	r1, r4
2fff1b06:	4628      	mov	r0, r5
2fff1b08:	f7ff ffb0 	bl	2fff1a6c <dt_fill_device_info>
2fff1b0c:	4620      	mov	r0, r4
2fff1b0e:	bd38      	pop	{r3, r4, r5, pc}
2fff1b10:	f04f 34ff 	mov.w	r4, #4294967295	@ 0xffffffff
2fff1b14:	e7fa      	b.n	2fff1b0c <dt_get_node+0x18>
2fff1b16:	bf00      	nop
2fff1b18:	2fffba84 	.word	0x2fffba84

2fff1b1c <dt_get_stdout_uart_info>:
2fff1b1c:	b538      	push	{r3, r4, r5, lr}
2fff1b1e:	4605      	mov	r5, r0
2fff1b20:	4b07      	ldr	r3, [pc, #28]	@ (2fff1b40 <dt_get_stdout_uart_info+0x24>)
2fff1b22:	6818      	ldr	r0, [r3, #0]
2fff1b24:	f7f8 fb48 	bl	2ffea1b8 <fdt_get_stdout_node_offset>
2fff1b28:	1e04      	subs	r4, r0, #0
2fff1b2a:	db05      	blt.n	2fff1b38 <dt_get_stdout_uart_info+0x1c>
2fff1b2c:	4621      	mov	r1, r4
2fff1b2e:	4628      	mov	r0, r5
2fff1b30:	f7ff ff9c 	bl	2fff1a6c <dt_fill_device_info>
2fff1b34:	4620      	mov	r0, r4
2fff1b36:	bd38      	pop	{r3, r4, r5, pc}
2fff1b38:	f04f 34ff 	mov.w	r4, #4294967295	@ 0xffffffff
2fff1b3c:	e7fa      	b.n	2fff1b34 <dt_get_stdout_uart_info+0x18>
2fff1b3e:	bf00      	nop
2fff1b40:	2fffba84 	.word	0x2fffba84

2fff1b44 <dt_get_ddr_size>:
2fff1b44:	b570      	push	{r4, r5, r6, lr}
2fff1b46:	4d0f      	ldr	r5, [pc, #60]	@ (2fff1b84 <dt_get_ddr_size+0x40>)
2fff1b48:	682c      	ldr	r4, [r5, #0]
2fff1b4a:	b964      	cbnz	r4, 2fff1b66 <dt_get_ddr_size+0x22>
2fff1b4c:	4e0e      	ldr	r6, [pc, #56]	@ (2fff1b88 <dt_get_ddr_size+0x44>)
2fff1b4e:	f04f 31ff 	mov.w	r1, #4294967295	@ 0xffffffff
2fff1b52:	4a0e      	ldr	r2, [pc, #56]	@ (2fff1b8c <dt_get_ddr_size+0x48>)
2fff1b54:	6830      	ldr	r0, [r6, #0]
2fff1b56:	f003 f999 	bl	2fff4e8c <fdt_node_offset_by_compatible>
2fff1b5a:	1e01      	subs	r1, r0, #0
2fff1b5c:	da05      	bge.n	2fff1b6a <dt_get_ddr_size+0x26>
2fff1b5e:	490c      	ldr	r1, [pc, #48]	@ (2fff1b90 <dt_get_ddr_size+0x4c>)
2fff1b60:	480c      	ldr	r0, [pc, #48]	@ (2fff1b94 <dt_get_ddr_size+0x50>)
2fff1b62:	f7f8 fb63 	bl	2ffea22c <tf_log>
2fff1b66:	4620      	mov	r0, r4
2fff1b68:	bd70      	pop	{r4, r5, r6, pc}
2fff1b6a:	4a0b      	ldr	r2, [pc, #44]	@ (2fff1b98 <dt_get_ddr_size+0x54>)
2fff1b6c:	4623      	mov	r3, r4
2fff1b6e:	6830      	ldr	r0, [r6, #0]
2fff1b70:	f001 fd89 	bl	2fff3686 <fdt_read_uint32_default>
2fff1b74:	6028      	str	r0, [r5, #0]
2fff1b76:	2104      	movs	r1, #4
2fff1b78:	4628      	mov	r0, r5
2fff1b7a:	f7f7 ec7e 	blx	2ffe9478 <flush_dcache_range>
2fff1b7e:	682c      	ldr	r4, [r5, #0]
2fff1b80:	e7f1      	b.n	2fff1b66 <dt_get_ddr_size+0x22>
2fff1b82:	bf00      	nop
2fff1b84:	2fffba80 	.word	0x2fffba80
2fff1b88:	2fffba84 	.word	0x2fffba84
2fff1b8c:	2fff7347 	.word	0x2fff7347
2fff1b90:	2fff90ec 	.word	0x2fff90ec
2fff1b94:	2fff85a8 	.word	0x2fff85a8
2fff1b98:	2fff85c9 	.word	0x2fff85c9

2fff1b9c <dt_get_vdd_regulator>:
2fff1b9c:	b510      	push	{r4, lr}
2fff1b9e:	f04f 31ff 	mov.w	r1, #4294967295	@ 0xffffffff
2fff1ba2:	4c07      	ldr	r4, [pc, #28]	@ (2fff1bc0 <dt_get_vdd_regulator+0x24>)
2fff1ba4:	4a07      	ldr	r2, [pc, #28]	@ (2fff1bc4 <dt_get_vdd_regulator+0x28>)
2fff1ba6:	6820      	ldr	r0, [r4, #0]
2fff1ba8:	f003 f970 	bl	2fff4e8c <fdt_node_offset_by_compatible>
2fff1bac:	1e01      	subs	r1, r0, #0
2fff1bae:	db05      	blt.n	2fff1bbc <dt_get_vdd_regulator+0x20>
2fff1bb0:	6820      	ldr	r0, [r4, #0]
2fff1bb2:	4a05      	ldr	r2, [pc, #20]	@ (2fff1bc8 <dt_get_vdd_regulator+0x2c>)
2fff1bb4:	e8bd 4010 	ldmia.w	sp!, {r4, lr}
2fff1bb8:	f7fd be80 	b.w	2ffef8bc <regulator_get_by_supply_name>
2fff1bbc:	2000      	movs	r0, #0
2fff1bbe:	bd10      	pop	{r4, pc}
2fff1bc0:	2fffba84 	.word	0x2fffba84
2fff1bc4:	2fff85d5 	.word	0x2fff85d5
2fff1bc8:	2fff85e9 	.word	0x2fff85e9

2fff1bcc <dt_get_board_model>:
2fff1bcc:	b510      	push	{r4, lr}
2fff1bce:	4c08      	ldr	r4, [pc, #32]	@ (2fff1bf0 <dt_get_board_model+0x24>)
2fff1bd0:	4908      	ldr	r1, [pc, #32]	@ (2fff1bf4 <dt_get_board_model+0x28>)
2fff1bd2:	6820      	ldr	r0, [r4, #0]
2fff1bd4:	f003 f880 	bl	2fff4cd8 <fdt_path_offset>
2fff1bd8:	1e01      	subs	r1, r0, #0
2fff1bda:	db06      	blt.n	2fff1bea <dt_get_board_model+0x1e>
2fff1bdc:	6820      	ldr	r0, [r4, #0]
2fff1bde:	2300      	movs	r3, #0
2fff1be0:	e8bd 4010 	ldmia.w	sp!, {r4, lr}
2fff1be4:	4a04      	ldr	r2, [pc, #16]	@ (2fff1bf8 <dt_get_board_model+0x2c>)
2fff1be6:	f003 b81c 	b.w	2fff4c22 <fdt_getprop>
2fff1bea:	2000      	movs	r0, #0
2fff1bec:	bd10      	pop	{r4, pc}
2fff1bee:	bf00      	nop
2fff1bf0:	2fffba84 	.word	0x2fffba84
2fff1bf4:	2fff85ed 	.word	0x2fff85ed
2fff1bf8:	2fff85ef 	.word	0x2fff85ef

2fff1bfc <dt_find_otp_name>:
2fff1bfc:	e92d 41f3 	stmdb	sp!, {r0, r1, r4, r5, r6, r7, r8, lr}
2fff1c00:	460f      	mov	r7, r1
2fff1c02:	4616      	mov	r6, r2
2fff1c04:	4605      	mov	r5, r0
2fff1c06:	b358      	cbz	r0, 2fff1c60 <dt_find_otp_name+0x64>
2fff1c08:	b351      	cbz	r1, 2fff1c60 <dt_find_otp_name+0x64>
2fff1c0a:	f8df 8080 	ldr.w	r8, [pc, #128]	@ 2fff1c8c <dt_find_otp_name+0x90>
2fff1c0e:	f04f 31ff 	mov.w	r1, #4294967295	@ 0xffffffff
2fff1c12:	4a1f      	ldr	r2, [pc, #124]	@ (2fff1c90 <dt_find_otp_name+0x94>)
2fff1c14:	f8d8 0000 	ldr.w	r0, [r8]
2fff1c18:	f003 f938 	bl	2fff4e8c <fdt_node_offset_by_compatible>
2fff1c1c:	1e04      	subs	r4, r0, #0
2fff1c1e:	db0b      	blt.n	2fff1c38 <dt_find_otp_name+0x3c>
2fff1c20:	f8d8 0000 	ldr.w	r0, [r8]
2fff1c24:	4621      	mov	r1, r4
2fff1c26:	462a      	mov	r2, r5
2fff1c28:	f002 ff76 	bl	2fff4b18 <fdt_subnode_offset>
2fff1c2c:	1e04      	subs	r4, r0, #0
2fff1c2e:	da07      	bge.n	2fff1c40 <dt_find_otp_name+0x44>
2fff1c30:	4818      	ldr	r0, [pc, #96]	@ (2fff1c94 <dt_find_otp_name+0x98>)
2fff1c32:	4629      	mov	r1, r5
2fff1c34:	f7f8 fafa 	bl	2ffea22c <tf_log>
2fff1c38:	4620      	mov	r0, r4
2fff1c3a:	b002      	add	sp, #8
2fff1c3c:	e8bd 81f0 	ldmia.w	sp!, {r4, r5, r6, r7, r8, pc}
2fff1c40:	4a15      	ldr	r2, [pc, #84]	@ (2fff1c98 <dt_find_otp_name+0x9c>)
2fff1c42:	ab01      	add	r3, sp, #4
2fff1c44:	f8d8 0000 	ldr.w	r0, [r8]
2fff1c48:	4621      	mov	r1, r4
2fff1c4a:	f002 ffea 	bl	2fff4c22 <fdt_getprop>
2fff1c4e:	4602      	mov	r2, r0
2fff1c50:	b110      	cbz	r0, 2fff1c58 <dt_find_otp_name+0x5c>
2fff1c52:	9b01      	ldr	r3, [sp, #4]
2fff1c54:	2b08      	cmp	r3, #8
2fff1c56:	d006      	beq.n	2fff1c66 <dt_find_otp_name+0x6a>
2fff1c58:	4810      	ldr	r0, [pc, #64]	@ (2fff1c9c <dt_find_otp_name+0xa0>)
2fff1c5a:	4629      	mov	r1, r5
2fff1c5c:	f7f8 fae6 	bl	2ffea22c <tf_log>
2fff1c60:	f06f 040e 	mvn.w	r4, #14
2fff1c64:	e7e8      	b.n	2fff1c38 <dt_find_otp_name+0x3c>
2fff1c66:	6800      	ldr	r0, [r0, #0]
2fff1c68:	f002 fcdb 	bl	2fff4622 <fdt32_to_cpu>
2fff1c6c:	0783      	lsls	r3, r0, #30
2fff1c6e:	d002      	beq.n	2fff1c76 <dt_find_otp_name+0x7a>
2fff1c70:	480b      	ldr	r0, [pc, #44]	@ (2fff1ca0 <dt_find_otp_name+0xa4>)
2fff1c72:	4629      	mov	r1, r5
2fff1c74:	e7f2      	b.n	2fff1c5c <dt_find_otp_name+0x60>
2fff1c76:	0880      	lsrs	r0, r0, #2
2fff1c78:	6038      	str	r0, [r7, #0]
2fff1c7a:	b90e      	cbnz	r6, 2fff1c80 <dt_find_otp_name+0x84>
2fff1c7c:	2400      	movs	r4, #0
2fff1c7e:	e7db      	b.n	2fff1c38 <dt_find_otp_name+0x3c>
2fff1c80:	6850      	ldr	r0, [r2, #4]
2fff1c82:	f002 fcce 	bl	2fff4622 <fdt32_to_cpu>
2fff1c86:	00c0      	lsls	r0, r0, #3
2fff1c88:	6030      	str	r0, [r6, #0]
2fff1c8a:	e7f7      	b.n	2fff1c7c <dt_find_otp_name+0x80>
2fff1c8c:	2fffba84 	.word	0x2fffba84
2fff1c90:	2fff85f5 	.word	0x2fff85f5
2fff1c94:	2fff8607 	.word	0x2fff8607
2fff1c98:	2fff748c 	.word	0x2fff748c
2fff1c9c:	2fff8621 	.word	0x2fff8621
2fff1ca0:	2fff8644 	.word	0x2fff8644

2fff1ca4 <dt_get_otp_by_phandle>:
2fff1ca4:	e92d 41f0 	stmdb	sp!, {r4, r5, r6, r7, r8, lr}
2fff1ca8:	4680      	mov	r8, r0
2fff1caa:	4d1d      	ldr	r5, [pc, #116]	@ (2fff1d20 <dt_get_otp_by_phandle+0x7c>)
2fff1cac:	460e      	mov	r6, r1
2fff1cae:	4617      	mov	r7, r2
2fff1cb0:	f04f 31ff 	mov.w	r1, #4294967295	@ 0xffffffff
2fff1cb4:	4a1b      	ldr	r2, [pc, #108]	@ (2fff1d24 <dt_get_otp_by_phandle+0x80>)
2fff1cb6:	6828      	ldr	r0, [r5, #0]
2fff1cb8:	f003 f8e8 	bl	2fff4e8c <fdt_node_offset_by_compatible>
2fff1cbc:	2800      	cmp	r0, #0
2fff1cbe:	db08      	blt.n	2fff1cd2 <dt_get_otp_by_phandle+0x2e>
2fff1cc0:	4601      	mov	r1, r0
2fff1cc2:	6828      	ldr	r0, [r5, #0]
2fff1cc4:	f002 fe3c 	bl	2fff4940 <fdt_first_subnode>
2fff1cc8:	2800      	cmp	r0, #0
2fff1cca:	4604      	mov	r4, r0
2fff1ccc:	da03      	bge.n	2fff1cd6 <dt_get_otp_by_phandle+0x32>
2fff1cce:	f04f 30ff 	mov.w	r0, #4294967295	@ 0xffffffff
2fff1cd2:	e8bd 81f0 	ldmia.w	sp!, {r4, r5, r6, r7, r8, pc}
2fff1cd6:	6828      	ldr	r0, [r5, #0]
2fff1cd8:	4621      	mov	r1, r4
2fff1cda:	f001 fa11 	bl	2fff3100 <fdt_get_phandle>
2fff1cde:	4540      	cmp	r0, r8
2fff1ce0:	d010      	beq.n	2fff1d04 <dt_get_otp_by_phandle+0x60>
2fff1ce2:	6828      	ldr	r0, [r5, #0]
2fff1ce4:	4621      	mov	r1, r4
2fff1ce6:	f002 fe3e 	bl	2fff4966 <fdt_next_subnode>
2fff1cea:	e7ed      	b.n	2fff1cc8 <dt_get_otp_by_phandle+0x24>
2fff1cec:	6818      	ldr	r0, [r3, #0]
2fff1cee:	f002 fc98 	bl	2fff4622 <fdt32_to_cpu>
2fff1cf2:	4602      	mov	r2, r0
2fff1cf4:	6858      	ldr	r0, [r3, #4]
2fff1cf6:	0892      	lsrs	r2, r2, #2
2fff1cf8:	f002 fc93 	bl	2fff4622 <fdt32_to_cpu>
2fff1cfc:	6038      	str	r0, [r7, #0]
2fff1cfe:	2000      	movs	r0, #0
2fff1d00:	6032      	str	r2, [r6, #0]
2fff1d02:	e7e6      	b.n	2fff1cd2 <dt_get_otp_by_phandle+0x2e>
2fff1d04:	4a08      	ldr	r2, [pc, #32]	@ (2fff1d28 <dt_get_otp_by_phandle+0x84>)
2fff1d06:	2300      	movs	r3, #0
2fff1d08:	6828      	ldr	r0, [r5, #0]
2fff1d0a:	4621      	mov	r1, r4
2fff1d0c:	f002 ff89 	bl	2fff4c22 <fdt_getprop>
2fff1d10:	4603      	mov	r3, r0
2fff1d12:	2800      	cmp	r0, #0
2fff1d14:	d1ea      	bne.n	2fff1cec <dt_get_otp_by_phandle+0x48>
2fff1d16:	f7f8 fd1f 	bl	2ffea758 <console_flush>
2fff1d1a:	f7f7 eaac 	blx	2ffe9274 <el3_panic>
2fff1d1e:	bf00      	nop
2fff1d20:	2fffba84 	.word	0x2fffba84
2fff1d24:	2fff85f5 	.word	0x2fff85f5
2fff1d28:	2fff748c 	.word	0x2fff748c

2fff1d2c <fconf_populate_stm32mp_fuse_provisioning>:
2fff1d2c:	e92d 4ff0 	stmdb	sp!, {r4, r5, r6, r7, r8, r9, sl, fp, lr}
2fff1d30:	f04f 31ff 	mov.w	r1, #4294967295	@ 0xffffffff
2fff1d34:	4a40      	ldr	r2, [pc, #256]	@ (2fff1e38 <fconf_populate_stm32mp_fuse_provisioning+0x10c>)
2fff1d36:	b089      	sub	sp, #36	@ 0x24
2fff1d38:	4606      	mov	r6, r0
2fff1d3a:	f003 f8a7 	bl	2fff4e8c <fdt_node_offset_by_compatible>
2fff1d3e:	1e01      	subs	r1, r0, #0
2fff1d40:	db05      	blt.n	2fff1d4e <fconf_populate_stm32mp_fuse_provisioning+0x22>
2fff1d42:	4630      	mov	r0, r6
2fff1d44:	f002 fdfc 	bl	2fff4940 <fdt_first_subnode>
2fff1d48:	2800      	cmp	r0, #0
2fff1d4a:	4605      	mov	r5, r0
2fff1d4c:	da03      	bge.n	2fff1d56 <fconf_populate_stm32mp_fuse_provisioning+0x2a>
2fff1d4e:	2000      	movs	r0, #0
2fff1d50:	b009      	add	sp, #36	@ 0x24
2fff1d52:	e8bd 8ff0 	ldmia.w	sp!, {r4, r5, r6, r7, r8, r9, sl, fp, pc}
2fff1d56:	4a39      	ldr	r2, [pc, #228]	@ (2fff1e3c <fconf_populate_stm32mp_fuse_provisioning+0x110>)
2fff1d58:	2300      	movs	r3, #0
2fff1d5a:	4629      	mov	r1, r5
2fff1d5c:	4630      	mov	r0, r6
2fff1d5e:	f002 ff60 	bl	2fff4c22 <fdt_getprop>
2fff1d62:	b918      	cbnz	r0, 2fff1d6c <fconf_populate_stm32mp_fuse_provisioning+0x40>
2fff1d64:	f7f8 fcf8 	bl	2ffea758 <console_flush>
2fff1d68:	f7f7 ea84 	blx	2ffe9274 <el3_panic>
2fff1d6c:	6800      	ldr	r0, [r0, #0]
2fff1d6e:	aa06      	add	r2, sp, #24
2fff1d70:	a905      	add	r1, sp, #20
2fff1d72:	ba00      	rev	r0, r0
2fff1d74:	f7ff ff96 	bl	2fff1ca4 <dt_get_otp_by_phandle>
2fff1d78:	b118      	cbz	r0, 2fff1d82 <fconf_populate_stm32mp_fuse_provisioning+0x56>
2fff1d7a:	4831      	ldr	r0, [pc, #196]	@ (2fff1e40 <fconf_populate_stm32mp_fuse_provisioning+0x114>)
2fff1d7c:	f7f8 fa56 	bl	2ffea22c <tf_log>
2fff1d80:	e7f0      	b.n	2fff1d64 <fconf_populate_stm32mp_fuse_provisioning+0x38>
2fff1d82:	4a30      	ldr	r2, [pc, #192]	@ (2fff1e44 <fconf_populate_stm32mp_fuse_provisioning+0x118>)
2fff1d84:	ab04      	add	r3, sp, #16
2fff1d86:	4629      	mov	r1, r5
2fff1d88:	4630      	mov	r0, r6
2fff1d8a:	f002 ff4a 	bl	2fff4c22 <fdt_getprop>
2fff1d8e:	4680      	mov	r8, r0
2fff1d90:	2800      	cmp	r0, #0
2fff1d92:	d0e7      	beq.n	2fff1d64 <fconf_populate_stm32mp_fuse_provisioning+0x38>
2fff1d94:	9b04      	ldr	r3, [sp, #16]
2fff1d96:	2b00      	cmp	r3, #0
2fff1d98:	dbe4      	blt.n	2fff1d64 <fconf_populate_stm32mp_fuse_provisioning+0x38>
2fff1d9a:	0799      	lsls	r1, r3, #30
2fff1d9c:	d1e2      	bne.n	2fff1d64 <fconf_populate_stm32mp_fuse_provisioning+0x38>
2fff1d9e:	9a06      	ldr	r2, [sp, #24]
2fff1da0:	0897      	lsrs	r7, r2, #2
2fff1da2:	0792      	lsls	r2, r2, #30
2fff1da4:	bf18      	it	ne
2fff1da6:	3701      	addne	r7, #1
2fff1da8:	ebb7 0f93 	cmp.w	r7, r3, lsr #2
2fff1dac:	d040      	beq.n	2fff1e30 <fconf_populate_stm32mp_fuse_provisioning+0x104>
2fff1dae:	4826      	ldr	r0, [pc, #152]	@ (2fff1e48 <fconf_populate_stm32mp_fuse_provisioning+0x11c>)
2fff1db0:	e7e4      	b.n	2fff1d7c <fconf_populate_stm32mp_fuse_provisioning+0x50>
2fff1db2:	9805      	ldr	r0, [sp, #20]
2fff1db4:	f10d 010f 	add.w	r1, sp, #15
2fff1db8:	4458      	add	r0, fp
2fff1dba:	f7f9 fefb 	bl	2ffebbb4 <bsec_read_sw_lock>
2fff1dbe:	2800      	cmp	r0, #0
2fff1dc0:	d1d0      	bne.n	2fff1d64 <fconf_populate_stm32mp_fuse_provisioning+0x38>
2fff1dc2:	f89d 200f 	ldrb.w	r2, [sp, #15]
2fff1dc6:	b10a      	cbz	r2, 2fff1dcc <fconf_populate_stm32mp_fuse_provisioning+0xa0>
2fff1dc8:	4820      	ldr	r0, [pc, #128]	@ (2fff1e4c <fconf_populate_stm32mp_fuse_provisioning+0x120>)
2fff1dca:	e7d7      	b.n	2fff1d7c <fconf_populate_stm32mp_fuse_provisioning+0x50>
2fff1dcc:	f858 402b 	ldr.w	r4, [r8, fp, lsl #2]
2fff1dd0:	a807      	add	r0, sp, #28
2fff1dd2:	9905      	ldr	r1, [sp, #20]
2fff1dd4:	f3c4 2a07 	ubfx	sl, r4, #8, #8
2fff1dd8:	f3c4 4907 	ubfx	r9, r4, #16, #8
2fff1ddc:	0623      	lsls	r3, r4, #24
2fff1dde:	4459      	add	r1, fp
2fff1de0:	ea4f 4a0a 	mov.w	sl, sl, lsl #16
2fff1de4:	ea4f 2909 	mov.w	r9, r9, lsl #8
2fff1de8:	0e24      	lsrs	r4, r4, #24
2fff1dea:	9301      	str	r3, [sp, #4]
2fff1dec:	f7f9 ffb4 	bl	2ffebd58 <bsec_shadow_read_otp>
2fff1df0:	2800      	cmp	r0, #0
2fff1df2:	d1b7      	bne.n	2fff1d64 <fconf_populate_stm32mp_fuse_provisioning+0x38>
2fff1df4:	9a07      	ldr	r2, [sp, #28]
2fff1df6:	b11a      	cbz	r2, 2fff1e00 <fconf_populate_stm32mp_fuse_provisioning+0xd4>
2fff1df8:	9905      	ldr	r1, [sp, #20]
2fff1dfa:	4815      	ldr	r0, [pc, #84]	@ (2fff1e50 <fconf_populate_stm32mp_fuse_provisioning+0x124>)
2fff1dfc:	f7f8 fa16 	bl	2ffea22c <tf_log>
2fff1e00:	9a07      	ldr	r2, [sp, #28]
2fff1e02:	9b01      	ldr	r3, [sp, #4]
2fff1e04:	ea44 0002 	orr.w	r0, r4, r2
2fff1e08:	4318      	orrs	r0, r3
2fff1e0a:	9905      	ldr	r1, [sp, #20]
2fff1e0c:	ea40 000a 	orr.w	r0, r0, sl
2fff1e10:	4459      	add	r1, fp
2fff1e12:	ea40 0009 	orr.w	r0, r0, r9
2fff1e16:	f7f9 fee7 	bl	2ffebbe8 <bsec_write_otp>
2fff1e1a:	2800      	cmp	r0, #0
2fff1e1c:	d1a2      	bne.n	2fff1d64 <fconf_populate_stm32mp_fuse_provisioning+0x38>
2fff1e1e:	f10b 0b01 	add.w	fp, fp, #1
2fff1e22:	455f      	cmp	r7, fp
2fff1e24:	d1c5      	bne.n	2fff1db2 <fconf_populate_stm32mp_fuse_provisioning+0x86>
2fff1e26:	4629      	mov	r1, r5
2fff1e28:	4630      	mov	r0, r6
2fff1e2a:	f002 fd9c 	bl	2fff4966 <fdt_next_subnode>
2fff1e2e:	e78b      	b.n	2fff1d48 <fconf_populate_stm32mp_fuse_provisioning+0x1c>
2fff1e30:	f04f 0b00 	mov.w	fp, #0
2fff1e34:	e7f5      	b.n	2fff1e22 <fconf_populate_stm32mp_fuse_provisioning+0xf6>
2fff1e36:	bf00      	nop
2fff1e38:	2fff866b 	.word	0x2fff866b
2fff1e3c:	2fff782a 	.word	0x2fff782a
2fff1e40:	2fff867b 	.word	0x2fff867b
2fff1e44:	2fff868f 	.word	0x2fff868f
2fff1e48:	2fff869f 	.word	0x2fff869f
2fff1e4c:	2fff86b2 	.word	0x2fff86b2
2fff1e50:	2fff86c6 	.word	0x2fff86c6

2fff1e54 <fconf_populate_stm32mp_io_policies>:
2fff1e54:	e92d 4ff0 	stmdb	sp!, {r4, r5, r6, r7, r8, r9, sl, fp, lr}
2fff1e58:	b089      	sub	sp, #36	@ 0x24
2fff1e5a:	4a2b      	ldr	r2, [pc, #172]	@ (2fff1f08 <fconf_populate_stm32mp_io_policies+0xb4>)
2fff1e5c:	f04f 31ff 	mov.w	r1, #4294967295	@ 0xffffffff
2fff1e60:	9002      	str	r0, [sp, #8]
2fff1e62:	f003 f813 	bl	2fff4e8c <fdt_node_offset_by_compatible>
2fff1e66:	1e04      	subs	r4, r0, #0
2fff1e68:	da07      	bge.n	2fff1e7a <fconf_populate_stm32mp_io_policies+0x26>
2fff1e6a:	4927      	ldr	r1, [pc, #156]	@ (2fff1f08 <fconf_populate_stm32mp_io_policies+0xb4>)
2fff1e6c:	4827      	ldr	r0, [pc, #156]	@ (2fff1f0c <fconf_populate_stm32mp_io_policies+0xb8>)
2fff1e6e:	f7f8 f9dd 	bl	2ffea22c <tf_log>
2fff1e72:	4620      	mov	r0, r4
2fff1e74:	b009      	add	sp, #36	@ 0x24
2fff1e76:	e8bd 8ff0 	ldmia.w	sp!, {r4, r5, r6, r7, r8, r9, sl, fp, pc}
2fff1e7a:	f8df 8094 	ldr.w	r8, [pc, #148]	@ 2fff1f10 <fconf_populate_stm32mp_io_policies+0xbc>
2fff1e7e:	2700      	movs	r7, #0
2fff1e80:	4d24      	ldr	r5, [pc, #144]	@ (2fff1f14 <fconf_populate_stm32mp_io_policies+0xc0>)
2fff1e82:	f8df 9094 	ldr.w	r9, [pc, #148]	@ 2fff1f18 <fconf_populate_stm32mp_io_policies+0xc4>
2fff1e86:	68eb      	ldr	r3, [r5, #12]
2fff1e88:	686a      	ldr	r2, [r5, #4]
2fff1e8a:	1c59      	adds	r1, r3, #1
2fff1e8c:	4291      	cmp	r1, r2
2fff1e8e:	d908      	bls.n	2fff1ea2 <fconf_populate_stm32mp_io_policies+0x4e>
2fff1e90:	1ad2      	subs	r2, r2, r3
2fff1e92:	2101      	movs	r1, #1
2fff1e94:	4821      	ldr	r0, [pc, #132]	@ (2fff1f1c <fconf_populate_stm32mp_io_policies+0xc8>)
2fff1e96:	f7f8 f9c9 	bl	2ffea22c <tf_log>
2fff1e9a:	f7f8 fc5d 	bl	2ffea758 <console_flush>
2fff1e9e:	f7f7 e9ea 	blx	2ffe9274 <el3_panic>
2fff1ea2:	682a      	ldr	r2, [r5, #0]
2fff1ea4:	f10d 0a10 	add.w	sl, sp, #16
2fff1ea8:	68ae      	ldr	r6, [r5, #8]
2fff1eaa:	60e9      	str	r1, [r5, #12]
2fff1eac:	4621      	mov	r1, r4
2fff1eae:	fb02 6603 	mla	r6, r2, r3, r6
2fff1eb2:	f8d8 2004 	ldr.w	r2, [r8, #4]
2fff1eb6:	2310      	movs	r3, #16
2fff1eb8:	9802      	ldr	r0, [sp, #8]
2fff1eba:	f8cd a000 	str.w	sl, [sp]
2fff1ebe:	9203      	str	r2, [sp, #12]
2fff1ec0:	f7f8 f8e8 	bl	2ffea094 <fdtw_read_uuid>
2fff1ec4:	9a03      	ldr	r2, [sp, #12]
2fff1ec6:	f1b0 0b00 	subs.w	fp, r0, #0
2fff1eca:	da05      	bge.n	2fff1ed8 <fconf_populate_stm32mp_io_policies+0x84>
2fff1ecc:	4814      	ldr	r0, [pc, #80]	@ (2fff1f20 <fconf_populate_stm32mp_io_policies+0xcc>)
2fff1ece:	4611      	mov	r1, r2
2fff1ed0:	465c      	mov	r4, fp
2fff1ed2:	f7f8 f9ab 	bl	2ffea22c <tf_log>
2fff1ed6:	e7cc      	b.n	2fff1e72 <fconf_populate_stm32mp_io_policies+0x1e>
2fff1ed8:	2210      	movs	r2, #16
2fff1eda:	4651      	mov	r1, sl
2fff1edc:	4630      	mov	r0, r6
2fff1ede:	3701      	adds	r7, #1
2fff1ee0:	f003 f80b 	bl	2fff4efa <memcpy>
2fff1ee4:	f858 3b08 	ldr.w	r3, [r8], #8
2fff1ee8:	221c      	movs	r2, #28
2fff1eea:	490e      	ldr	r1, [pc, #56]	@ (2fff1f24 <fconf_populate_stm32mp_io_policies+0xd0>)
2fff1eec:	2f07      	cmp	r7, #7
2fff1eee:	fb02 f303 	mul.w	r3, r2, r3
2fff1ef2:	eb09 0203 	add.w	r2, r9, r3
2fff1ef6:	f849 1003 	str.w	r1, [r9, r3]
2fff1efa:	4b0b      	ldr	r3, [pc, #44]	@ (2fff1f28 <fconf_populate_stm32mp_io_policies+0xd4>)
2fff1efc:	6056      	str	r6, [r2, #4]
2fff1efe:	6193      	str	r3, [r2, #24]
2fff1f00:	d1c1      	bne.n	2fff1e86 <fconf_populate_stm32mp_io_policies+0x32>
2fff1f02:	2400      	movs	r4, #0
2fff1f04:	e7b5      	b.n	2fff1e72 <fconf_populate_stm32mp_io_policies+0x1e>
2fff1f06:	bf00      	nop
2fff1f08:	2fff86fd 	.word	0x2fff86fd
2fff1f0c:	2fff7f28 	.word	0x2fff7f28
2fff1f10:	2fff5c14 	.word	0x2fff5c14
2fff1f14:	2fffa10c 	.word	0x2fffa10c
2fff1f18:	2fffa11c 	.word	0x2fffa11c
2fff1f1c:	2fff7ecf 	.word	0x2fff7ecf
2fff1f20:	2fff870e 	.word	0x2fff870e
2fff1f24:	2fffba28 	.word	0x2fffba28
2fff1f28:	2fff11a5 	.word	0x2fff11a5

2fff1f2c <bl2_platform_setup>:
2fff1f2c:	b500      	push	{lr}
2fff1f2e:	b08b      	sub	sp, #44	@ 0x2c
2fff1f30:	f7fb feee 	bl	2ffedd10 <stm32mp1_ddr_probe>
2fff1f34:	1e01      	subs	r1, r0, #0
2fff1f36:	da06      	bge.n	2fff1f46 <bl2_platform_setup+0x1a>
2fff1f38:	4817      	ldr	r0, [pc, #92]	@ (2fff1f98 <bl2_platform_setup+0x6c>)
2fff1f3a:	f7f8 f977 	bl	2ffea22c <tf_log>
2fff1f3e:	f7f8 fc0b 	bl	2ffea758 <console_flush>
2fff1f42:	f7f7 e998 	blx	2ffe9274 <el3_panic>
2fff1f46:	f7fb fedd 	bl	2ffedd04 <stm32mp1_ddr_is_restored>
2fff1f4a:	b990      	cbnz	r0, 2fff1f72 <bl2_platform_setup+0x46>
2fff1f4c:	9003      	str	r0, [sp, #12]
2fff1f4e:	a804      	add	r0, sp, #16
2fff1f50:	f7ff fc0e 	bl	2fff1770 <stm32_get_magic_number_cell>
2fff1f54:	a807      	add	r0, sp, #28
2fff1f56:	f7ff fc25 	bl	2fff17a4 <stm32_get_core1_branch_address_cell>
2fff1f5a:	2204      	movs	r2, #4
2fff1f5c:	a903      	add	r1, sp, #12
2fff1f5e:	a807      	add	r0, sp, #28
2fff1f60:	f001 fffb 	bl	2fff3f5a <nvmem_cell_write>
2fff1f64:	2204      	movs	r2, #4
2fff1f66:	a903      	add	r1, sp, #12
2fff1f68:	a804      	add	r0, sp, #16
2fff1f6a:	f001 fff6 	bl	2fff3f5a <nvmem_cell_write>
2fff1f6e:	f002 fb89 	bl	2fff4684 <stm32_clean_context>
2fff1f72:	230a      	movs	r3, #10
2fff1f74:	2100      	movs	r1, #0
2fff1f76:	9300      	str	r3, [sp, #0]
2fff1f78:	f04f 4240 	mov.w	r2, #3221225472	@ 0xc0000000
2fff1f7c:	f04f 4380 	mov.w	r3, #1073741824	@ 0x40000000
2fff1f80:	f04f 4040 	mov.w	r0, #3221225472	@ 0xc0000000
2fff1f84:	f7fe fc16 	bl	2fff07b4 <mmap_add_dynamic_region>
2fff1f88:	1e01      	subs	r1, r0, #0
2fff1f8a:	da01      	bge.n	2fff1f90 <bl2_platform_setup+0x64>
2fff1f8c:	4803      	ldr	r0, [pc, #12]	@ (2fff1f9c <bl2_platform_setup+0x70>)
2fff1f8e:	e7d4      	b.n	2fff1f3a <bl2_platform_setup+0xe>
2fff1f90:	b00b      	add	sp, #44	@ 0x2c
2fff1f92:	f85d fb04 	ldr.w	pc, [sp], #4
2fff1f96:	bf00      	nop
2fff1f98:	2fff878c 	.word	0x2fff878c
2fff1f9c:	2fff87a9 	.word	0x2fff87a9

2fff1fa0 <bl2_el3_plat_arch_setup>:
2fff1fa0:	e92d 41ff 	stmdb	sp!, {r0, r1, r2, r3, r4, r5, r6, r7, r8, lr}
2fff1fa4:	f7ff fb04 	bl	2fff15b0 <stm32mp_get_boot_ctx_address>
2fff1fa8:	4605      	mov	r5, r0
2fff1faa:	f7f9 fdc5 	bl	2ffebb38 <bsec_probe>
2fff1fae:	4601      	mov	r1, r0
2fff1fb0:	b118      	cbz	r0, 2fff1fba <bl2_el3_plat_arch_setup+0x1a>
2fff1fb2:	f7f8 fbd1 	bl	2ffea758 <console_flush>
2fff1fb6:	f7f7 e95e 	blx	2ffe9274 <el3_panic>
2fff1fba:	4aab      	ldr	r2, [pc, #684]	@ (2fff2268 <bl2_el3_plat_arch_setup+0x2c8>)
2fff1fbc:	2302      	movs	r3, #2
2fff1fbe:	9300      	str	r3, [sp, #0]
2fff1fc0:	4baa      	ldr	r3, [pc, #680]	@ (2fff226c <bl2_el3_plat_arch_setup+0x2cc>)
2fff1fc2:	4610      	mov	r0, r2
2fff1fc4:	1a9b      	subs	r3, r3, r2
2fff1fc6:	f7fe fbdb 	bl	2fff0780 <mmap_add_region>
2fff1fca:	4aa9      	ldr	r2, [pc, #676]	@ (2fff2270 <bl2_el3_plat_arch_setup+0x2d0>)
2fff1fcc:	2342      	movs	r3, #66	@ 0x42
2fff1fce:	48a8      	ldr	r0, [pc, #672]	@ (2fff2270 <bl2_el3_plat_arch_setup+0x2d0>)
2fff1fd0:	2100      	movs	r1, #0
2fff1fd2:	9300      	str	r3, [sp, #0]
2fff1fd4:	f44f 43e0 	mov.w	r3, #28672	@ 0x7000
2fff1fd8:	f7fe fbd2 	bl	2fff0780 <mmap_add_region>
2fff1fdc:	f000 fd46 	bl	2fff2a6c <configure_mmu>
2fff1fe0:	48a3      	ldr	r0, [pc, #652]	@ (2fff2270 <bl2_el3_plat_arch_setup+0x2d0>)
2fff1fe2:	f7ff fcd5 	bl	2fff1990 <dt_open_and_check>
2fff1fe6:	2800      	cmp	r0, #0
2fff1fe8:	dbe3      	blt.n	2fff1fb2 <bl2_el3_plat_arch_setup+0x12>
2fff1fea:	f7ff fafb 	bl	2fff15e4 <stm32mp_pwr_base>
2fff1fee:	4604      	mov	r4, r0
2fff1ff0:	f002 fac1 	bl	2fff4576 <stm32mp_rcc_base>
2fff1ff4:	4603      	mov	r3, r0
2fff1ff6:	6822      	ldr	r2, [r4, #0]
2fff1ff8:	f442 7280 	orr.w	r2, r2, #256	@ 0x100
2fff1ffc:	6022      	str	r2, [r4, #0]
2fff1ffe:	6822      	ldr	r2, [r4, #0]
2fff2000:	05d6      	lsls	r6, r2, #23
2fff2002:	d5fc      	bpl.n	2fff1ffe <bl2_el3_plat_arch_setup+0x5e>
2fff2004:	f8d3 2140 	ldr.w	r2, [r3, #320]	@ 0x140
2fff2008:	f503 71a0 	add.w	r1, r3, #320	@ 0x140
2fff200c:	02d0      	lsls	r0, r2, #11
2fff200e:	d40e      	bmi.n	2fff202e <bl2_el3_plat_arch_setup+0x8e>
2fff2010:	f8d3 2140 	ldr.w	r2, [r3, #320]	@ 0x140
2fff2014:	f042 4200 	orr.w	r2, r2, #2147483648	@ 0x80000000
2fff2018:	f8c3 2140 	str.w	r2, [r3, #320]	@ 0x140
2fff201c:	680a      	ldr	r2, [r1, #0]
2fff201e:	2a00      	cmp	r2, #0
2fff2020:	dafc      	bge.n	2fff201c <bl2_el3_plat_arch_setup+0x7c>
2fff2022:	f8d3 2140 	ldr.w	r2, [r3, #320]	@ 0x140
2fff2026:	f022 4200 	bic.w	r2, r2, #2147483648	@ 0x80000000
2fff202a:	f8c3 2140 	str.w	r2, [r3, #320]	@ 0x140
2fff202e:	4b91      	ldr	r3, [pc, #580]	@ (2fff2274 <bl2_el3_plat_arch_setup+0x2d4>)
2fff2030:	6b1c      	ldr	r4, [r3, #48]	@ 0x30
2fff2032:	f414 2480 	ands.w	r4, r4, #262144	@ 0x40000
2fff2036:	d014      	beq.n	2fff2062 <bl2_el3_plat_arch_setup+0xc2>
2fff2038:	f04f 43a0 	mov.w	r3, #1342177280	@ 0x50000000
2fff203c:	2401      	movs	r4, #1
2fff203e:	f8d3 2140 	ldr.w	r2, [r3, #320]	@ 0x140
2fff2042:	f422 7280 	bic.w	r2, r2, #256	@ 0x100
2fff2046:	f8c3 2140 	str.w	r2, [r3, #320]	@ 0x140
2fff204a:	f8d3 2140 	ldr.w	r2, [r3, #320]	@ 0x140
2fff204e:	f022 0201 	bic.w	r2, r2, #1
2fff2052:	f8c3 2140 	str.w	r2, [r3, #320]	@ 0x140
2fff2056:	f8d3 2418 	ldr.w	r2, [r3, #1048]	@ 0x418
2fff205a:	f442 3280 	orr.w	r2, r2, #65536	@ 0x10000
2fff205e:	f8c3 2418 	str.w	r2, [r3, #1048]	@ 0x418
2fff2062:	f7fd f977 	bl	2ffef354 <dt_pmic_status>
2fff2066:	2800      	cmp	r0, #0
2fff2068:	dc07      	bgt.n	2fff207a <bl2_el3_plat_arch_setup+0xda>
2fff206a:	f002 fa84 	bl	2fff4576 <stm32mp_rcc_base>
2fff206e:	f8d0 3144 	ldr.w	r3, [r0, #324]	@ 0x144
2fff2072:	f443 13f8 	orr.w	r3, r3, #2031616	@ 0x1f0000
2fff2076:	f8c0 3144 	str.w	r3, [r0, #324]	@ 0x144
2fff207a:	f7f8 fbd9 	bl	2ffea830 <generic_delay_timer_init>
2fff207e:	f7fa ff25 	bl	2ffececc <stm32mp1_clk_probe>
2fff2082:	2800      	cmp	r0, #0
2fff2084:	db95      	blt.n	2fff1fb2 <bl2_el3_plat_arch_setup+0x12>
2fff2086:	487c      	ldr	r0, [pc, #496]	@ (2fff2278 <bl2_el3_plat_arch_setup+0x2d8>)
2fff2088:	f7fa fa7e 	bl	2ffec588 <stm32mp1_clk_init>
2fff208c:	2800      	cmp	r0, #0
2fff208e:	db90      	blt.n	2fff1fb2 <bl2_el3_plat_arch_setup+0x12>
2fff2090:	f7fd f8cc 	bl	2ffef22c <stm32_tamp_nvram_init>
2fff2094:	2800      	cmp	r0, #0
2fff2096:	db8c      	blt.n	2fff1fb2 <bl2_el3_plat_arch_setup+0x12>
2fff2098:	4628      	mov	r0, r5
2fff209a:	f7ff fbd1 	bl	2fff1840 <stm32_save_boot_info>
2fff209e:	2800      	cmp	r0, #0
2fff20a0:	d187      	bne.n	2fff1fb2 <bl2_el3_plat_arch_setup+0x12>
2fff20a2:	f7ff fb05 	bl	2fff16b0 <stm32mp_uart_console_setup>
2fff20a6:	bb10      	cbnz	r0, 2fff20ee <bl2_el3_plat_arch_setup+0x14e>
2fff20a8:	f000 fe04 	bl	2fff2cb4 <stm32mp_print_cpuinfo>
2fff20ac:	f7ff fd8e 	bl	2fff1bcc <dt_get_board_model>
2fff20b0:	4601      	mov	r1, r0
2fff20b2:	b110      	cbz	r0, 2fff20ba <bl2_el3_plat_arch_setup+0x11a>
2fff20b4:	4871      	ldr	r0, [pc, #452]	@ (2fff227c <bl2_el3_plat_arch_setup+0x2dc>)
2fff20b6:	f7f8 f8b9 	bl	2ffea22c <tf_log>
2fff20ba:	f000 fe09 	bl	2fff2cd0 <stm32mp_print_boardinfo>
2fff20be:	f895 3059 	ldrb.w	r3, [r5, #89]	@ 0x59
2fff20c2:	f895 1058 	ldrb.w	r1, [r5, #88]	@ 0x58
2fff20c6:	ea41 2103 	orr.w	r1, r1, r3, lsl #8
2fff20ca:	f895 305a 	ldrb.w	r3, [r5, #90]	@ 0x5a
2fff20ce:	ea41 4103 	orr.w	r1, r1, r3, lsl #16
2fff20d2:	f895 305b 	ldrb.w	r3, [r5, #91]	@ 0x5b
2fff20d6:	ea51 6103 	orrs.w	r1, r1, r3, lsl #24
2fff20da:	d008      	beq.n	2fff20ee <bl2_el3_plat_arch_setup+0x14e>
2fff20dc:	4a68      	ldr	r2, [pc, #416]	@ (2fff2280 <bl2_el3_plat_arch_setup+0x2e0>)
2fff20de:	4b69      	ldr	r3, [pc, #420]	@ (2fff2284 <bl2_el3_plat_arch_setup+0x2e4>)
2fff20e0:	4869      	ldr	r0, [pc, #420]	@ (2fff2288 <bl2_el3_plat_arch_setup+0x2e8>)
2fff20e2:	2901      	cmp	r1, #1
2fff20e4:	bf14      	ite	ne
2fff20e6:	4611      	movne	r1, r2
2fff20e8:	4619      	moveq	r1, r3
2fff20ea:	f7f8 f89f 	bl	2ffea22c <tf_log>
2fff20ee:	4b61      	ldr	r3, [pc, #388]	@ (2fff2274 <bl2_el3_plat_arch_setup+0x2d4>)
2fff20f0:	6b1d      	ldr	r5, [r3, #48]	@ 0x30
2fff20f2:	b1e5      	cbz	r5, 2fff212e <bl2_el3_plat_arch_setup+0x18e>
2fff20f4:	4865      	ldr	r0, [pc, #404]	@ (2fff228c <bl2_el3_plat_arch_setup+0x2ec>)
2fff20f6:	f7f8 f899 	bl	2ffea22c <tf_log>
2fff20fa:	bb0c      	cbnz	r4, 2fff2140 <bl2_el3_plat_arch_setup+0x1a0>
2fff20fc:	4f64      	ldr	r7, [pc, #400]	@ (2fff2290 <bl2_el3_plat_arch_setup+0x2f0>)
2fff20fe:	f8df 8194 	ldr.w	r8, [pc, #404]	@ 2fff2294 <bl2_el3_plat_arch_setup+0x2f4>
2fff2102:	4e65      	ldr	r6, [pc, #404]	@ (2fff2298 <bl2_el3_plat_arch_setup+0x2f8>)
2fff2104:	fa95 f4a5 	rbit	r4, r5
2fff2108:	4630      	mov	r0, r6
2fff210a:	fab4 f484 	clz	r4, r4
2fff210e:	2c0f      	cmp	r4, #15
2fff2110:	bfc7      	ittee	gt
2fff2112:	f1a4 020f 	subgt.w	r2, r4, #15
2fff2116:	4641      	movgt	r1, r8
2fff2118:	1c62      	addle	r2, r4, #1
2fff211a:	4639      	movle	r1, r7
2fff211c:	f7f8 f886 	bl	2ffea22c <tf_log>
2fff2120:	2301      	movs	r3, #1
2fff2122:	40a3      	lsls	r3, r4
2fff2124:	439d      	bics	r5, r3
2fff2126:	d1ed      	bne.n	2fff2104 <bl2_el3_plat_arch_setup+0x164>
2fff2128:	4858      	ldr	r0, [pc, #352]	@ (2fff228c <bl2_el3_plat_arch_setup+0x2ec>)
2fff212a:	f7f8 f87f 	bl	2ffea22c <tf_log>
2fff212e:	4d5b      	ldr	r5, [pc, #364]	@ (2fff229c <bl2_el3_plat_arch_setup+0x2fc>)
2fff2130:	f000 fde0 	bl	2fff2cf4 <stm32mp_check_closed_device>
2fff2134:	42a8      	cmp	r0, r5
2fff2136:	d116      	bne.n	2fff2166 <bl2_el3_plat_arch_setup+0x1c6>
2fff2138:	4859      	ldr	r0, [pc, #356]	@ (2fff22a0 <bl2_el3_plat_arch_setup+0x300>)
2fff213a:	f7f8 f877 	bl	2ffea22c <tf_log>
2fff213e:	e738      	b.n	2fff1fb2 <bl2_el3_plat_arch_setup+0x12>
2fff2140:	4858      	ldr	r0, [pc, #352]	@ (2fff22a4 <bl2_el3_plat_arch_setup+0x304>)
2fff2142:	f7f8 f873 	bl	2ffea22c <tf_log>
2fff2146:	4851      	ldr	r0, [pc, #324]	@ (2fff228c <bl2_el3_plat_arch_setup+0x2ec>)
2fff2148:	f7f8 f870 	bl	2ffea22c <tf_log>
2fff214c:	4856      	ldr	r0, [pc, #344]	@ (2fff22a8 <bl2_el3_plat_arch_setup+0x308>)
2fff214e:	f04f 42a0 	mov.w	r2, #1342177280	@ 0x50000000
2fff2152:	f8d2 3140 	ldr.w	r3, [r2, #320]	@ 0x140
2fff2156:	f423 1380 	bic.w	r3, r3, #1048576	@ 0x100000
2fff215a:	f8c2 3140 	str.w	r3, [r2, #320]	@ 0x140
2fff215e:	f7f8 f865 	bl	2ffea22c <tf_log>
2fff2162:	f002 f818 	bl	2fff4196 <stm32mp_system_reset>
2fff2166:	f7fd fd97 	bl	2ffefc98 <fixed_regulator_register>
2fff216a:	2800      	cmp	r0, #0
2fff216c:	f47f af21 	bne.w	2fff1fb2 <bl2_el3_plat_arch_setup+0x12>
2fff2170:	f7fd f8f0 	bl	2ffef354 <dt_pmic_status>
2fff2174:	2800      	cmp	r0, #0
2fff2176:	dd0b      	ble.n	2fff2190 <bl2_el3_plat_arch_setup+0x1f0>
2fff2178:	f7fd f98c 	bl	2ffef494 <initialize_pmic>
2fff217c:	f002 fab9 	bl	2fff46f2 <stm32mp_is_wakeup_from_standby>
2fff2180:	b920      	cbnz	r0, 2fff218c <bl2_el3_plat_arch_setup+0x1ec>
2fff2182:	f001 ff57 	bl	2fff4034 <pmic_voltages_init>
2fff2186:	b108      	cbz	r0, 2fff218c <bl2_el3_plat_arch_setup+0x1ec>
2fff2188:	4848      	ldr	r0, [pc, #288]	@ (2fff22ac <bl2_el3_plat_arch_setup+0x30c>)
2fff218a:	e7d6      	b.n	2fff213a <bl2_el3_plat_arch_setup+0x19a>
2fff218c:	f7fd fa0c 	bl	2ffef5a8 <print_pmic_info_and_debug>
2fff2190:	f000 fe24 	bl	2fff2ddc <stm32mp_syscfg_init>
2fff2194:	f7fc fd9a 	bl	2ffeeccc <stm32_iwdg_init>
2fff2198:	2800      	cmp	r0, #0
2fff219a:	f6ff af0a 	blt.w	2fff1fb2 <bl2_el3_plat_arch_setup+0x12>
2fff219e:	f7fc fd75 	bl	2ffeec8c <stm32_iwdg_refresh>
2fff21a2:	f7f9 fce7 	bl	2ffebb74 <bsec_read_debug_conf>
2fff21a6:	b138      	cbz	r0, 2fff21b8 <bl2_el3_plat_arch_setup+0x218>
2fff21a8:	f000 fda4 	bl	2fff2cf4 <stm32mp_check_closed_device>
2fff21ac:	42a8      	cmp	r0, r5
2fff21ae:	d103      	bne.n	2fff21b8 <bl2_el3_plat_arch_setup+0x218>
2fff21b0:	493f      	ldr	r1, [pc, #252]	@ (2fff22b0 <bl2_el3_plat_arch_setup+0x310>)
2fff21b2:	4840      	ldr	r0, [pc, #256]	@ (2fff22b4 <bl2_el3_plat_arch_setup+0x314>)
2fff21b4:	f7f8 f83a 	bl	2ffea22c <tf_log>
2fff21b8:	f000 fc10 	bl	2fff29dc <stm32mp1_arch_security_setup>
2fff21bc:	f002 f9db 	bl	2fff4576 <stm32mp_rcc_base>
2fff21c0:	f8d0 4408 	ldr.w	r4, [r0, #1032]	@ 0x408
2fff21c4:	bb34      	cbnz	r4, 2fff2214 <bl2_el3_plat_arch_setup+0x274>
2fff21c6:	483c      	ldr	r0, [pc, #240]	@ (2fff22b8 <bl2_el3_plat_arch_setup+0x318>)
2fff21c8:	f7f8 f830 	bl	2ffea22c <tf_log>
2fff21cc:	f000 fd92 	bl	2fff2cf4 <stm32mp_check_closed_device>
2fff21d0:	42a8      	cmp	r0, r5
2fff21d2:	f040 80a3 	bne.w	2fff231c <bl2_el3_plat_arch_setup+0x37c>
2fff21d6:	4839      	ldr	r0, [pc, #228]	@ (2fff22bc <bl2_el3_plat_arch_setup+0x31c>)
2fff21d8:	2200      	movs	r2, #0
2fff21da:	a903      	add	r1, sp, #12
2fff21dc:	f7ff fa1e 	bl	2fff161c <stm32_get_otp_index>
2fff21e0:	2800      	cmp	r0, #0
2fff21e2:	f47f aee6 	bne.w	2fff1fb2 <bl2_el3_plat_arch_setup+0x12>
2fff21e6:	9803      	ldr	r0, [sp, #12]
2fff21e8:	a902      	add	r1, sp, #8
2fff21ea:	f7ff fa27 	bl	2fff163c <stm32_get_otp_value_from_idx>
2fff21ee:	2800      	cmp	r0, #0
2fff21f0:	f47f aedf 	bne.w	2fff1fb2 <bl2_el3_plat_arch_setup+0x12>
2fff21f4:	9a02      	ldr	r2, [sp, #8]
2fff21f6:	3201      	adds	r2, #1
2fff21f8:	f040 8090 	bne.w	2fff231c <bl2_el3_plat_arch_setup+0x37c>
2fff21fc:	9903      	ldr	r1, [sp, #12]
2fff21fe:	9002      	str	r0, [sp, #8]
2fff2200:	f7f9 fd32 	bl	2ffebc68 <bsec_program_otp>
2fff2204:	4601      	mov	r1, r0
2fff2206:	2800      	cmp	r0, #0
2fff2208:	f000 8084 	beq.w	2fff2314 <bl2_el3_plat_arch_setup+0x374>
2fff220c:	482c      	ldr	r0, [pc, #176]	@ (2fff22c0 <bl2_el3_plat_arch_setup+0x320>)
2fff220e:	f7f8 f80d 	bl	2ffea22c <tf_log>
2fff2212:	e6ce      	b.n	2fff1fb2 <bl2_el3_plat_arch_setup+0x12>
2fff2214:	482b      	ldr	r0, [pc, #172]	@ (2fff22c4 <bl2_el3_plat_arch_setup+0x324>)
2fff2216:	4621      	mov	r1, r4
2fff2218:	f7f8 f808 	bl	2ffea22c <tf_log>
2fff221c:	f014 0304 	ands.w	r3, r4, #4
2fff2220:	d107      	bne.n	2fff2232 <bl2_el3_plat_arch_setup+0x292>
2fff2222:	0522      	lsls	r2, r4, #20
2fff2224:	d501      	bpl.n	2fff222a <bl2_el3_plat_arch_setup+0x28a>
2fff2226:	4828      	ldr	r0, [pc, #160]	@ (2fff22c8 <bl2_el3_plat_arch_setup+0x328>)
2fff2228:	e7ce      	b.n	2fff21c8 <bl2_el3_plat_arch_setup+0x228>
2fff222a:	04e7      	lsls	r7, r4, #19
2fff222c:	d501      	bpl.n	2fff2232 <bl2_el3_plat_arch_setup+0x292>
2fff222e:	4827      	ldr	r0, [pc, #156]	@ (2fff22cc <bl2_el3_plat_arch_setup+0x32c>)
2fff2230:	e7ca      	b.n	2fff21c8 <bl2_el3_plat_arch_setup+0x228>
2fff2232:	07e6      	lsls	r6, r4, #31
2fff2234:	d501      	bpl.n	2fff223a <bl2_el3_plat_arch_setup+0x29a>
2fff2236:	4826      	ldr	r0, [pc, #152]	@ (2fff22d0 <bl2_el3_plat_arch_setup+0x330>)
2fff2238:	e7c6      	b.n	2fff21c8 <bl2_el3_plat_arch_setup+0x228>
2fff223a:	07a0      	lsls	r0, r4, #30
2fff223c:	d501      	bpl.n	2fff2242 <bl2_el3_plat_arch_setup+0x2a2>
2fff223e:	4825      	ldr	r0, [pc, #148]	@ (2fff22d4 <bl2_el3_plat_arch_setup+0x334>)
2fff2240:	e7c2      	b.n	2fff21c8 <bl2_el3_plat_arch_setup+0x228>
2fff2242:	0621      	lsls	r1, r4, #24
2fff2244:	d504      	bpl.n	2fff2250 <bl2_el3_plat_arch_setup+0x2b0>
2fff2246:	b10b      	cbz	r3, 2fff224c <bl2_el3_plat_arch_setup+0x2ac>
2fff2248:	4823      	ldr	r0, [pc, #140]	@ (2fff22d8 <bl2_el3_plat_arch_setup+0x338>)
2fff224a:	e7bd      	b.n	2fff21c8 <bl2_el3_plat_arch_setup+0x228>
2fff224c:	4823      	ldr	r0, [pc, #140]	@ (2fff22dc <bl2_el3_plat_arch_setup+0x33c>)
2fff224e:	e7bb      	b.n	2fff21c8 <bl2_el3_plat_arch_setup+0x228>
2fff2250:	0662      	lsls	r2, r4, #25
2fff2252:	d501      	bpl.n	2fff2258 <bl2_el3_plat_arch_setup+0x2b8>
2fff2254:	4822      	ldr	r0, [pc, #136]	@ (2fff22e0 <bl2_el3_plat_arch_setup+0x340>)
2fff2256:	e7b7      	b.n	2fff21c8 <bl2_el3_plat_arch_setup+0x228>
2fff2258:	0727      	lsls	r7, r4, #28
2fff225a:	d501      	bpl.n	2fff2260 <bl2_el3_plat_arch_setup+0x2c0>
2fff225c:	4821      	ldr	r0, [pc, #132]	@ (2fff22e4 <bl2_el3_plat_arch_setup+0x344>)
2fff225e:	e7b3      	b.n	2fff21c8 <bl2_el3_plat_arch_setup+0x228>
2fff2260:	05e6      	lsls	r6, r4, #23
2fff2262:	d543      	bpl.n	2fff22ec <bl2_el3_plat_arch_setup+0x34c>
2fff2264:	4820      	ldr	r0, [pc, #128]	@ (2fff22e8 <bl2_el3_plat_arch_setup+0x348>)
2fff2266:	e7af      	b.n	2fff21c8 <bl2_el3_plat_arch_setup+0x228>
2fff2268:	2ffe9000 	.word	0x2ffe9000
2fff226c:	2fffa000 	.word	0x2fffa000
2fff2270:	2ffe2000 	.word	0x2ffe2000
2fff2274:	5c00a000 	.word	0x5c00a000
2fff2278:	0009eb10 	.word	0x0009eb10
2fff227c:	2fff87e4 	.word	0x2fff87e4
2fff2280:	2fff87c8 	.word	0x2fff87c8
2fff2284:	2fff87c1 	.word	0x2fff87c1
2fff2288:	2fff87f0 	.word	0x2fff87f0
2fff228c:	2fff790a 	.word	0x2fff790a
2fff2290:	2fff87db 	.word	0x2fff87db
2fff2294:	2fff87d2 	.word	0x2fff87d2
2fff2298:	2fff8859 	.word	0x2fff8859
2fff229c:	34d9ccc5 	.word	0x34d9ccc5
2fff22a0:	2fff8888 	.word	0x2fff8888
2fff22a4:	2fff880c 	.word	0x2fff880c
2fff22a8:	2fff8844 	.word	0x2fff8844
2fff22ac:	2fff88ba 	.word	0x2fff88ba
2fff22b0:	2fff90fc 	.word	0x2fff90fc
2fff22b4:	2fff88d6 	.word	0x2fff88d6
2fff22b8:	2fff88db 	.word	0x2fff88db
2fff22bc:	2fff8af0 	.word	0x2fff8af0
2fff22c0:	2fff8afe 	.word	0x2fff8afe
2fff22c4:	2fff88f2 	.word	0x2fff88f2
2fff22c8:	2fff8909 	.word	0x2fff8909
2fff22cc:	2fff8925 	.word	0x2fff8925
2fff22d0:	2fff893f 	.word	0x2fff893f
2fff22d4:	2fff895c 	.word	0x2fff895c
2fff22d8:	2fff8979 	.word	0x2fff8979
2fff22dc:	2fff89a6 	.word	0x2fff89a6
2fff22e0:	2fff89d2 	.word	0x2fff89d2
2fff22e4:	2fff89ff 	.word	0x2fff89ff
2fff22e8:	2fff8a27 	.word	0x2fff8a27
2fff22ec:	05a0      	lsls	r0, r4, #22
2fff22ee:	d501      	bpl.n	2fff22f4 <bl2_el3_plat_arch_setup+0x354>
2fff22f0:	4819      	ldr	r0, [pc, #100]	@ (2fff2358 <bl2_el3_plat_arch_setup+0x3b8>)
2fff22f2:	e769      	b.n	2fff21c8 <bl2_el3_plat_arch_setup+0x228>
2fff22f4:	04a1      	lsls	r1, r4, #18
2fff22f6:	d501      	bpl.n	2fff22fc <bl2_el3_plat_arch_setup+0x35c>
2fff22f8:	4818      	ldr	r0, [pc, #96]	@ (2fff235c <bl2_el3_plat_arch_setup+0x3bc>)
2fff22fa:	e765      	b.n	2fff21c8 <bl2_el3_plat_arch_setup+0x228>
2fff22fc:	0462      	lsls	r2, r4, #17
2fff22fe:	d501      	bpl.n	2fff2304 <bl2_el3_plat_arch_setup+0x364>
2fff2300:	4817      	ldr	r0, [pc, #92]	@ (2fff2360 <bl2_el3_plat_arch_setup+0x3c0>)
2fff2302:	e761      	b.n	2fff21c8 <bl2_el3_plat_arch_setup+0x228>
2fff2304:	b10b      	cbz	r3, 2fff230a <bl2_el3_plat_arch_setup+0x36a>
2fff2306:	4817      	ldr	r0, [pc, #92]	@ (2fff2364 <bl2_el3_plat_arch_setup+0x3c4>)
2fff2308:	e75e      	b.n	2fff21c8 <bl2_el3_plat_arch_setup+0x228>
2fff230a:	06e3      	lsls	r3, r4, #27
2fff230c:	bf4c      	ite	mi
2fff230e:	4816      	ldrmi	r0, [pc, #88]	@ (2fff2368 <bl2_el3_plat_arch_setup+0x3c8>)
2fff2310:	4816      	ldrpl	r0, [pc, #88]	@ (2fff236c <bl2_el3_plat_arch_setup+0x3cc>)
2fff2312:	e759      	b.n	2fff21c8 <bl2_el3_plat_arch_setup+0x228>
2fff2314:	9902      	ldr	r1, [sp, #8]
2fff2316:	4816      	ldr	r0, [pc, #88]	@ (2fff2370 <bl2_el3_plat_arch_setup+0x3d0>)
2fff2318:	f7f7 ff88 	bl	2ffea22c <tf_log>
2fff231c:	f000 fda4 	bl	2fff2e68 <stm32mp_syscfg_enable_io_compensation_finish>
2fff2320:	4914      	ldr	r1, [pc, #80]	@ (2fff2374 <bl2_el3_plat_arch_setup+0x3d4>)
2fff2322:	4815      	ldr	r0, [pc, #84]	@ (2fff2378 <bl2_el3_plat_arch_setup+0x3d8>)
2fff2324:	f7fd ff94 	bl	2fff0250 <fconf_populate>
2fff2328:	f000 fd26 	bl	2fff2d78 <stm32mp_skip_boot_device_after_standby>
2fff232c:	b178      	cbz	r0, 2fff234e <bl2_el3_plat_arch_setup+0x3ae>
2fff232e:	2001      	movs	r0, #1
2fff2330:	f7f7 fd60 	bl	2ffe9df4 <get_bl_mem_params_node>
2fff2334:	b920      	cbnz	r0, 2fff2340 <bl2_el3_plat_arch_setup+0x3a0>
2fff2336:	4811      	ldr	r0, [pc, #68]	@ (2fff237c <bl2_el3_plat_arch_setup+0x3dc>)
2fff2338:	f240 2103 	movw	r1, #515	@ 0x203
2fff233c:	f000 ff2c 	bl	2fff3198 <__assert>
2fff2340:	6883      	ldr	r3, [r0, #8]
2fff2342:	f043 0302 	orr.w	r3, r3, #2
2fff2346:	6083      	str	r3, [r0, #8]
2fff2348:	b004      	add	sp, #16
2fff234a:	e8bd 81f0 	ldmia.w	sp!, {r4, r5, r6, r7, r8, pc}
2fff234e:	b004      	add	sp, #16
2fff2350:	e8bd 41f0 	ldmia.w	sp!, {r4, r5, r6, r7, r8, lr}
2fff2354:	f7fe bf36 	b.w	2fff11c4 <stm32mp_io_setup>
2fff2358:	2fff8a43 	.word	0x2fff8a43
2fff235c:	2fff8a5f 	.word	0x2fff8a5f
2fff2360:	2fff8a79 	.word	0x2fff8a79
2fff2364:	2fff8a93 	.word	0x2fff8a93
2fff2368:	2fff8aab 	.word	0x2fff8aab
2fff236c:	2fff8ad2 	.word	0x2fff8ad2
2fff2370:	2fff8b25 	.word	0x2fff8b25
2fff2374:	2ffe2000 	.word	0x2ffe2000
2fff2378:	2fff86ea 	.word	0x2fff86ea
2fff237c:	2fff8b5b 	.word	0x2fff8b5b

2fff2380 <bl2_plat_handle_post_image_load>:
2fff2380:	e92d 47ff 	stmdb	sp!, {r0, r1, r2, r3, r4, r5, r6, r7, r8, r9, sl, lr}
2fff2384:	4605      	mov	r5, r0
2fff2386:	466f      	mov	r7, sp
2fff2388:	f7f7 fd34 	bl	2ffe9df4 <get_bl_mem_params_node>
2fff238c:	4604      	mov	r4, r0
2fff238e:	f7fb fcb9 	bl	2ffedd04 <stm32mp1_ddr_is_restored>
2fff2392:	4b74      	ldr	r3, [pc, #464]	@ (2fff2564 <bl2_plat_handle_post_image_load+0x1e4>)
2fff2394:	4681      	mov	r9, r0
2fff2396:	cb0f      	ldmia	r3, {r0, r1, r2, r3}
2fff2398:	e887 000f 	stmia.w	r7, {r0, r1, r2, r3}
2fff239c:	b924      	cbnz	r4, 2fff23a8 <bl2_plat_handle_post_image_load+0x28>
2fff239e:	f44f 7112 	mov.w	r1, #584	@ 0x248
2fff23a2:	4871      	ldr	r0, [pc, #452]	@ (2fff2568 <bl2_plat_handle_post_image_load+0x1e8>)
2fff23a4:	f000 fef8 	bl	2fff3198 <__assert>
2fff23a8:	2d04      	cmp	r5, #4
2fff23aa:	d078      	beq.n	2fff249e <bl2_plat_handle_post_image_load+0x11e>
2fff23ac:	2d05      	cmp	r5, #5
2fff23ae:	f000 80c2 	beq.w	2fff2536 <bl2_plat_handle_post_image_load+0x1b6>
2fff23b2:	2d01      	cmp	r5, #1
2fff23b4:	d169      	bne.n	2fff248a <bl2_plat_handle_post_image_load+0x10a>
2fff23b6:	f1b9 0f00 	cmp.w	r9, #0
2fff23ba:	d001      	beq.n	2fff23c0 <bl2_plat_handle_post_image_load+0x40>
2fff23bc:	f000 fa04 	bl	2fff27c8 <stm32_restore_ddr_training_area>
2fff23c0:	f000 fcda 	bl	2fff2d78 <stm32mp_skip_boot_device_after_standby>
2fff23c4:	4606      	mov	r6, r0
2fff23c6:	2800      	cmp	r0, #0
2fff23c8:	d15f      	bne.n	2fff248a <bl2_plat_handle_post_image_load+0x10a>
2fff23ca:	4868      	ldr	r0, [pc, #416]	@ (2fff256c <bl2_plat_handle_post_image_load+0x1ec>)
2fff23cc:	2301      	movs	r3, #1
2fff23ce:	f44f 5280 	mov.w	r2, #4096	@ 0x1000
2fff23d2:	f04f 31ff 	mov.w	r1, #4294967295	@ 0xffffffff
2fff23d6:	f7fd ff7f 	bl	2fff02d8 <set_config_info>
2fff23da:	4964      	ldr	r1, [pc, #400]	@ (2fff256c <bl2_plat_handle_post_image_load+0x1ec>)
2fff23dc:	4864      	ldr	r0, [pc, #400]	@ (2fff2570 <bl2_plat_handle_post_image_load+0x1f0>)
2fff23de:	f7fd ff37 	bl	2fff0250 <fconf_populate>
2fff23e2:	2010      	movs	r0, #16
2fff23e4:	f7fe f81e 	bl	2fff0424 <dyn_cfg_dtb_info_get_index>
2fff23e8:	4682      	mov	sl, r0
2fff23ea:	f857 4b04 	ldr.w	r4, [r7], #4
2fff23ee:	2c10      	cmp	r4, #16
2fff23f0:	d102      	bne.n	2fff23f8 <bl2_plat_handle_post_image_load+0x78>
2fff23f2:	f1ba 3fff 	cmp.w	sl, #4294967295	@ 0xffffffff
2fff23f6:	d045      	beq.n	2fff2484 <bl2_plat_handle_post_image_load+0x104>
2fff23f8:	4620      	mov	r0, r4
2fff23fa:	f7f7 fcfb 	bl	2ffe9df4 <get_bl_mem_params_node>
2fff23fe:	4605      	mov	r5, r0
2fff2400:	b910      	cbnz	r0, 2fff2408 <bl2_plat_handle_post_image_load+0x88>
2fff2402:	f240 216a 	movw	r1, #618	@ 0x26a
2fff2406:	e7cc      	b.n	2fff23a2 <bl2_plat_handle_post_image_load+0x22>
2fff2408:	4620      	mov	r0, r4
2fff240a:	f7fe f81b 	bl	2fff0444 <dyn_cfg_dtb_info_getter>
2fff240e:	4680      	mov	r8, r0
2fff2410:	2800      	cmp	r0, #0
2fff2412:	d037      	beq.n	2fff2484 <bl2_plat_handle_post_image_load+0x104>
2fff2414:	6802      	ldr	r2, [r0, #0]
2fff2416:	6843      	ldr	r3, [r0, #4]
2fff2418:	60ea      	str	r2, [r5, #12]
2fff241a:	616b      	str	r3, [r5, #20]
2fff241c:	f1b9 0f00 	cmp.w	r9, #0
2fff2420:	d003      	beq.n	2fff242a <bl2_plat_handle_post_image_load+0xaa>
2fff2422:	f1b2 4f40 	cmp.w	r2, #3221225472	@ 0xc0000000
2fff2426:	f080 8098 	bcs.w	2fff255a <bl2_plat_handle_post_image_load+0x1da>
2fff242a:	68ab      	ldr	r3, [r5, #8]
2fff242c:	2c05      	cmp	r4, #5
2fff242e:	f023 0302 	bic.w	r3, r3, #2
2fff2432:	60ab      	str	r3, [r5, #8]
2fff2434:	d02b      	beq.n	2fff248e <bl2_plat_handle_post_image_load+0x10e>
2fff2436:	d80b      	bhi.n	2fff2450 <bl2_plat_handle_post_image_load+0xd0>
2fff2438:	2c02      	cmp	r4, #2
2fff243a:	d023      	beq.n	2fff2484 <bl2_plat_handle_post_image_load+0x104>
2fff243c:	2c04      	cmp	r4, #4
2fff243e:	d109      	bne.n	2fff2454 <bl2_plat_handle_post_image_load+0xd4>
2fff2440:	622a      	str	r2, [r5, #32]
2fff2442:	2008      	movs	r0, #8
2fff2444:	f7f7 fcd6 	bl	2ffe9df4 <get_bl_mem_params_node>
2fff2448:	b948      	cbnz	r0, 2fff245e <bl2_plat_handle_post_image_load+0xde>
2fff244a:	f240 2182 	movw	r1, #642	@ 0x282
2fff244e:	e7a8      	b.n	2fff23a2 <bl2_plat_handle_post_image_load+0x22>
2fff2450:	2c10      	cmp	r4, #16
2fff2452:	d017      	beq.n	2fff2484 <bl2_plat_handle_post_image_load+0x104>
2fff2454:	f06f 0015 	mvn.w	r0, #21
2fff2458:	b004      	add	sp, #16
2fff245a:	e8bd 87f0 	ldmia.w	sp!, {r4, r5, r6, r7, r8, r9, sl, pc}
2fff245e:	f8d8 3000 	ldr.w	r3, [r8]
2fff2462:	60c3      	str	r3, [r0, #12]
2fff2464:	f8d8 3004 	ldr.w	r3, [r8, #4]
2fff2468:	6143      	str	r3, [r0, #20]
2fff246a:	2009      	movs	r0, #9
2fff246c:	f7f7 fcc2 	bl	2ffe9df4 <get_bl_mem_params_node>
2fff2470:	4604      	mov	r4, r0
2fff2472:	b138      	cbz	r0, 2fff2484 <bl2_plat_handle_post_image_load+0x104>
2fff2474:	f7ff fb66 	bl	2fff1b44 <dt_get_ddr_size>
2fff2478:	f100 403e 	add.w	r0, r0, #3187671040	@ 0xbe000000
2fff247c:	f04f 7300 	mov.w	r3, #33554432	@ 0x2000000
2fff2480:	60e0      	str	r0, [r4, #12]
2fff2482:	6163      	str	r3, [r4, #20]
2fff2484:	3601      	adds	r6, #1
2fff2486:	2e04      	cmp	r6, #4
2fff2488:	d1af      	bne.n	2fff23ea <bl2_plat_handle_post_image_load+0x6a>
2fff248a:	2000      	movs	r0, #0
2fff248c:	e7e4      	b.n	2fff2458 <bl2_plat_handle_post_image_load+0xd8>
2fff248e:	f1b9 0f00 	cmp.w	r9, #0
2fff2492:	d002      	beq.n	2fff249a <bl2_plat_handle_post_image_load+0x11a>
2fff2494:	2300      	movs	r3, #0
2fff2496:	622b      	str	r3, [r5, #32]
2fff2498:	e7f4      	b.n	2fff2484 <bl2_plat_handle_post_image_load+0x104>
2fff249a:	622a      	str	r2, [r5, #32]
2fff249c:	e7f2      	b.n	2fff2484 <bl2_plat_handle_post_image_load+0x104>
2fff249e:	f1b9 0f00 	cmp.w	r9, #0
2fff24a2:	d00d      	beq.n	2fff24c0 <bl2_plat_handle_post_image_load+0x140>
2fff24a4:	f000 fc68 	bl	2fff2d78 <stm32mp_skip_boot_device_after_standby>
2fff24a8:	b150      	cbz	r0, 2fff24c0 <bl2_plat_handle_post_image_load+0x140>
2fff24aa:	f000 f8f7 	bl	2fff269c <stm32_pm_get_optee_ep>
2fff24ae:	6220      	str	r0, [r4, #32]
2fff24b0:	f002 f917 	bl	2fff46e2 <stm32mp1_addr_inside_backupsram>
2fff24b4:	2800      	cmp	r0, #0
2fff24b6:	d0e8      	beq.n	2fff248a <bl2_plat_handle_post_image_load+0x10a>
2fff24b8:	2063      	movs	r0, #99	@ 0x63
2fff24ba:	f7f8 f87f 	bl	2ffea5bc <clk_enable>
2fff24be:	e7e4      	b.n	2fff248a <bl2_plat_handle_post_image_load+0x10a>
2fff24c0:	68e0      	ldr	r0, [r4, #12]
2fff24c2:	f7fe f803 	bl	2fff04cc <optee_header_is_valid>
2fff24c6:	68e3      	ldr	r3, [r4, #12]
2fff24c8:	4605      	mov	r5, r0
2fff24ca:	6223      	str	r3, [r4, #32]
2fff24cc:	b330      	cbz	r0, 2fff251c <bl2_plat_handle_post_image_load+0x19c>
2fff24ce:	2008      	movs	r0, #8
2fff24d0:	f7f7 fc90 	bl	2ffe9df4 <get_bl_mem_params_node>
2fff24d4:	4606      	mov	r6, r0
2fff24d6:	b910      	cbnz	r0, 2fff24de <bl2_plat_handle_post_image_load+0x15e>
2fff24d8:	f240 21b9 	movw	r1, #697	@ 0x2b9
2fff24dc:	e761      	b.n	2fff23a2 <bl2_plat_handle_post_image_load+0x22>
2fff24de:	2009      	movs	r0, #9
2fff24e0:	f7f7 fc88 	bl	2ffe9df4 <get_bl_mem_params_node>
2fff24e4:	4605      	mov	r5, r0
2fff24e6:	b168      	cbz	r0, 2fff2504 <bl2_plat_handle_post_image_load+0x184>
2fff24e8:	1d02      	adds	r2, r0, #4
2fff24ea:	1d31      	adds	r1, r6, #4
2fff24ec:	f104 0018 	add.w	r0, r4, #24
2fff24f0:	f7fd fffe 	bl	2fff04f0 <parse_optee_header>
2fff24f4:	b140      	cbz	r0, 2fff2508 <bl2_plat_handle_post_image_load+0x188>
2fff24f6:	481f      	ldr	r0, [pc, #124]	@ (2fff2574 <bl2_plat_handle_post_image_load+0x1f4>)
2fff24f8:	f7f7 fe98 	bl	2ffea22c <tf_log>
2fff24fc:	f7f8 f92c 	bl	2ffea758 <console_flush>
2fff2500:	f7f6 eeb8 	blx	2ffe9274 <el3_panic>
2fff2504:	4602      	mov	r2, r0
2fff2506:	e7f0      	b.n	2fff24ea <bl2_plat_handle_post_image_load+0x16a>
2fff2508:	b135      	cbz	r5, 2fff2518 <bl2_plat_handle_post_image_load+0x198>
2fff250a:	68eb      	ldr	r3, [r5, #12]
2fff250c:	62e3      	str	r3, [r4, #44]	@ 0x2c
2fff250e:	6320      	str	r0, [r4, #48]	@ 0x30
2fff2510:	6360      	str	r0, [r4, #52]	@ 0x34
2fff2512:	f000 f8ef 	bl	2fff26f4 <stm32_context_save_bl2_param>
2fff2516:	e7b8      	b.n	2fff248a <bl2_plat_handle_post_image_load+0x10a>
2fff2518:	4603      	mov	r3, r0
2fff251a:	e7f7      	b.n	2fff250c <bl2_plat_handle_post_image_load+0x18c>
2fff251c:	2010      	movs	r0, #16
2fff251e:	f7f7 fc69 	bl	2ffe9df4 <get_bl_mem_params_node>
2fff2522:	b910      	cbnz	r0, 2fff252a <bl2_plat_handle_post_image_load+0x1aa>
2fff2524:	f240 21d5 	movw	r1, #725	@ 0x2d5
2fff2528:	e73b      	b.n	2fff23a2 <bl2_plat_handle_post_image_load+0x22>
2fff252a:	6942      	ldr	r2, [r0, #20]
2fff252c:	6963      	ldr	r3, [r4, #20]
2fff252e:	62e5      	str	r5, [r4, #44]	@ 0x2c
2fff2530:	4413      	add	r3, r2
2fff2532:	6163      	str	r3, [r4, #20]
2fff2534:	e7ed      	b.n	2fff2512 <bl2_plat_handle_post_image_load+0x192>
2fff2536:	2004      	movs	r0, #4
2fff2538:	f7f7 fc5c 	bl	2ffe9df4 <get_bl_mem_params_node>
2fff253c:	b910      	cbnz	r0, 2fff2544 <bl2_plat_handle_post_image_load+0x1c4>
2fff253e:	f44f 7138 	mov.w	r1, #736	@ 0x2e0
2fff2542:	e72e      	b.n	2fff23a2 <bl2_plat_handle_post_image_load+0x22>
2fff2544:	6a23      	ldr	r3, [r4, #32]
2fff2546:	6283      	str	r3, [r0, #40]	@ 0x28
2fff2548:	f001 ffe6 	bl	2fff4518 <plat_fwu_is_enabled>
2fff254c:	2800      	cmp	r0, #0
2fff254e:	d09c      	beq.n	2fff248a <bl2_plat_handle_post_image_load+0x10a>
2fff2550:	f002 f831 	bl	2fff45b6 <stm32_fwu_set_boot_idx>
2fff2554:	2800      	cmp	r0, #0
2fff2556:	d098      	beq.n	2fff248a <bl2_plat_handle_post_image_load+0x10a>
2fff2558:	e7d0      	b.n	2fff24fc <bl2_plat_handle_post_image_load+0x17c>
2fff255a:	2c05      	cmp	r4, #5
2fff255c:	f47f af6b 	bne.w	2fff2436 <bl2_plat_handle_post_image_load+0xb6>
2fff2560:	e798      	b.n	2fff2494 <bl2_plat_handle_post_image_load+0x114>
2fff2562:	bf00      	nop
2fff2564:	2fff5c4c 	.word	0x2fff5c4c
2fff2568:	2fff8b5b 	.word	0x2fff8b5b
2fff256c:	2ffff000 	.word	0x2ffff000
2fff2570:	2fff7fec 	.word	0x2fff7fec
2fff2574:	2fff8b7d 	.word	0x2fff8b7d

2fff2578 <stm32mp_board_ddr_power_init>:
2fff2578:	b573      	push	{r0, r1, r4, r5, r6, lr}
2fff257a:	4605      	mov	r5, r0
2fff257c:	f7fc feea 	bl	2ffef354 <dt_pmic_status>
2fff2580:	2800      	cmp	r0, #0
2fff2582:	dd18      	ble.n	2fff25b6 <stm32mp_board_ddr_power_init+0x3e>
2fff2584:	a801      	add	r0, sp, #4
2fff2586:	f7ff fa0d 	bl	2fff19a4 <fdt_get_address>
2fff258a:	2800      	cmp	r0, #0
2fff258c:	d070      	beq.n	2fff2670 <stm32mp_board_ddr_power_init+0xf8>
2fff258e:	4a3a      	ldr	r2, [pc, #232]	@ (2fff2678 <stm32mp_board_ddr_power_init+0x100>)
2fff2590:	f04f 31ff 	mov.w	r1, #4294967295	@ 0xffffffff
2fff2594:	9801      	ldr	r0, [sp, #4]
2fff2596:	f002 fc79 	bl	2fff4e8c <fdt_node_offset_by_compatible>
2fff259a:	1e04      	subs	r4, r0, #0
2fff259c:	da07      	bge.n	2fff25ae <stm32mp_board_ddr_power_init+0x36>
2fff259e:	4837      	ldr	r0, [pc, #220]	@ (2fff267c <stm32mp_board_ddr_power_init+0x104>)
2fff25a0:	4937      	ldr	r1, [pc, #220]	@ (2fff2680 <stm32mp_board_ddr_power_init+0x108>)
2fff25a2:	f7f7 fe43 	bl	2ffea22c <tf_log>
2fff25a6:	f06f 0015 	mvn.w	r0, #21
2fff25aa:	b002      	add	sp, #8
2fff25ac:	bd70      	pop	{r4, r5, r6, pc}
2fff25ae:	b125      	cbz	r5, 2fff25ba <stm32mp_board_ddr_power_init+0x42>
2fff25b0:	3d01      	subs	r5, #1
2fff25b2:	2d01      	cmp	r5, #1
2fff25b4:	d929      	bls.n	2fff260a <stm32mp_board_ddr_power_init+0x92>
2fff25b6:	2000      	movs	r0, #0
2fff25b8:	e7f7      	b.n	2fff25aa <stm32mp_board_ddr_power_init+0x32>
2fff25ba:	4a32      	ldr	r2, [pc, #200]	@ (2fff2684 <stm32mp_board_ddr_power_init+0x10c>)
2fff25bc:	4621      	mov	r1, r4
2fff25be:	9801      	ldr	r0, [sp, #4]
2fff25c0:	f7fd f97c 	bl	2ffef8bc <regulator_get_by_supply_name>
2fff25c4:	4605      	mov	r5, r0
2fff25c6:	b910      	cbnz	r0, 2fff25ce <stm32mp_board_ddr_power_init+0x56>
2fff25c8:	f06f 0001 	mvn.w	r0, #1
2fff25cc:	e7ed      	b.n	2fff25aa <stm32mp_board_ddr_power_init+0x32>
2fff25ce:	f001 fddb 	bl	2fff4188 <regulator_set_min_voltage>
2fff25d2:	2800      	cmp	r0, #0
2fff25d4:	d1e9      	bne.n	2fff25aa <stm32mp_board_ddr_power_init+0x32>
2fff25d6:	4628      	mov	r0, r5
2fff25d8:	f7fd f9aa 	bl	2ffef930 <regulator_enable>
2fff25dc:	2800      	cmp	r0, #0
2fff25de:	d1e4      	bne.n	2fff25aa <stm32mp_board_ddr_power_init+0x32>
2fff25e0:	4a29      	ldr	r2, [pc, #164]	@ (2fff2688 <stm32mp_board_ddr_power_init+0x110>)
2fff25e2:	4621      	mov	r1, r4
2fff25e4:	9801      	ldr	r0, [sp, #4]
2fff25e6:	f7fd f969 	bl	2ffef8bc <regulator_get_by_supply_name>
2fff25ea:	b948      	cbnz	r0, 2fff2600 <stm32mp_board_ddr_power_init+0x88>
2fff25ec:	4a27      	ldr	r2, [pc, #156]	@ (2fff268c <stm32mp_board_ddr_power_init+0x114>)
2fff25ee:	4621      	mov	r1, r4
2fff25f0:	9801      	ldr	r0, [sp, #4]
2fff25f2:	f7fd f963 	bl	2ffef8bc <regulator_get_by_supply_name>
2fff25f6:	2800      	cmp	r0, #0
2fff25f8:	d0dd      	beq.n	2fff25b6 <stm32mp_board_ddr_power_init+0x3e>
2fff25fa:	f7fd f999 	bl	2ffef930 <regulator_enable>
2fff25fe:	e7d4      	b.n	2fff25aa <stm32mp_board_ddr_power_init+0x32>
2fff2600:	f7fd f996 	bl	2ffef930 <regulator_enable>
2fff2604:	2800      	cmp	r0, #0
2fff2606:	d0f1      	beq.n	2fff25ec <stm32mp_board_ddr_power_init+0x74>
2fff2608:	e7cf      	b.n	2fff25aa <stm32mp_board_ddr_power_init+0x32>
2fff260a:	4a21      	ldr	r2, [pc, #132]	@ (2fff2690 <stm32mp_board_ddr_power_init+0x118>)
2fff260c:	4621      	mov	r1, r4
2fff260e:	9801      	ldr	r0, [sp, #4]
2fff2610:	f7fd f954 	bl	2ffef8bc <regulator_get_by_supply_name>
2fff2614:	4606      	mov	r6, r0
2fff2616:	2800      	cmp	r0, #0
2fff2618:	d0d6      	beq.n	2fff25c8 <stm32mp_board_ddr_power_init+0x50>
2fff261a:	4a1e      	ldr	r2, [pc, #120]	@ (2fff2694 <stm32mp_board_ddr_power_init+0x11c>)
2fff261c:	4621      	mov	r1, r4
2fff261e:	9801      	ldr	r0, [sp, #4]
2fff2620:	f7fd f94c 	bl	2ffef8bc <regulator_get_by_supply_name>
2fff2624:	4605      	mov	r5, r0
2fff2626:	2800      	cmp	r0, #0
2fff2628:	d0ce      	beq.n	2fff25c8 <stm32mp_board_ddr_power_init+0x50>
2fff262a:	4a1b      	ldr	r2, [pc, #108]	@ (2fff2698 <stm32mp_board_ddr_power_init+0x120>)
2fff262c:	4621      	mov	r1, r4
2fff262e:	9801      	ldr	r0, [sp, #4]
2fff2630:	f7fd f944 	bl	2ffef8bc <regulator_get_by_supply_name>
2fff2634:	4604      	mov	r4, r0
2fff2636:	2800      	cmp	r0, #0
2fff2638:	d0c6      	beq.n	2fff25c8 <stm32mp_board_ddr_power_init+0x50>
2fff263a:	4630      	mov	r0, r6
2fff263c:	f001 fda4 	bl	2fff4188 <regulator_set_min_voltage>
2fff2640:	2800      	cmp	r0, #0
2fff2642:	d1b2      	bne.n	2fff25aa <stm32mp_board_ddr_power_init+0x32>
2fff2644:	4628      	mov	r0, r5
2fff2646:	f001 fd9f 	bl	2fff4188 <regulator_set_min_voltage>
2fff264a:	2800      	cmp	r0, #0
2fff264c:	d1ad      	bne.n	2fff25aa <stm32mp_board_ddr_power_init+0x32>
2fff264e:	4620      	mov	r0, r4
2fff2650:	f001 fd9a 	bl	2fff4188 <regulator_set_min_voltage>
2fff2654:	2800      	cmp	r0, #0
2fff2656:	d1a8      	bne.n	2fff25aa <stm32mp_board_ddr_power_init+0x32>
2fff2658:	4630      	mov	r0, r6
2fff265a:	f7fd f969 	bl	2ffef930 <regulator_enable>
2fff265e:	2800      	cmp	r0, #0
2fff2660:	d1a3      	bne.n	2fff25aa <stm32mp_board_ddr_power_init+0x32>
2fff2662:	4628      	mov	r0, r5
2fff2664:	f7fd f964 	bl	2ffef930 <regulator_enable>
2fff2668:	2800      	cmp	r0, #0
2fff266a:	d19e      	bne.n	2fff25aa <stm32mp_board_ddr_power_init+0x32>
2fff266c:	4620      	mov	r0, r4
2fff266e:	e7c4      	b.n	2fff25fa <stm32mp_board_ddr_power_init+0x82>
2fff2670:	f04f 30ff 	mov.w	r0, #4294967295	@ 0xffffffff
2fff2674:	e799      	b.n	2fff25aa <stm32mp_board_ddr_power_init+0x32>
2fff2676:	bf00      	nop
2fff2678:	2fff7347 	.word	0x2fff7347
2fff267c:	2fff7357 	.word	0x2fff7357
2fff2680:	2fff92d1 	.word	0x2fff92d1
2fff2684:	2fff85e9 	.word	0x2fff85e9
2fff2688:	2fff8b99 	.word	0x2fff8b99
2fff268c:	2fff8b9e 	.word	0x2fff8b9e
2fff2690:	2fff8ba2 	.word	0x2fff8ba2
2fff2694:	2fff8ba7 	.word	0x2fff8ba7
2fff2698:	2fff8bac 	.word	0x2fff8bac

2fff269c <stm32_pm_get_optee_ep>:
2fff269c:	2063      	movs	r0, #99	@ 0x63
2fff269e:	b510      	push	{r4, lr}
2fff26a0:	f7f7 ff8c 	bl	2ffea5bc <clk_enable>
2fff26a4:	f04f 43a8 	mov.w	r3, #1409286144	@ 0x54000000
2fff26a8:	681b      	ldr	r3, [r3, #0]
2fff26aa:	0c1a      	lsrs	r2, r3, #16
2fff26ac:	0412      	lsls	r2, r2, #16
2fff26ae:	f5b2 3f40 	cmp.w	r2, #196608	@ 0x30000
2fff26b2:	d006      	beq.n	2fff26c2 <stm32_pm_get_optee_ep+0x26>
2fff26b4:	d80c      	bhi.n	2fff26d0 <stm32_pm_get_optee_ep+0x34>
2fff26b6:	f5b2 3f80 	cmp.w	r2, #65536	@ 0x10000
2fff26ba:	d002      	beq.n	2fff26c2 <stm32_pm_get_optee_ep+0x26>
2fff26bc:	f5b2 3f00 	cmp.w	r2, #131072	@ 0x20000
2fff26c0:	d109      	bne.n	2fff26d6 <stm32_pm_get_optee_ep+0x3a>
2fff26c2:	b29b      	uxth	r3, r3
2fff26c4:	2b40      	cmp	r3, #64	@ 0x40
2fff26c6:	d00a      	beq.n	2fff26de <stm32_pm_get_optee_ep+0x42>
2fff26c8:	f7f8 f846 	bl	2ffea758 <console_flush>
2fff26cc:	f7f6 edd2 	blx	2ffe9274 <el3_panic>
2fff26d0:	f5b2 2f80 	cmp.w	r2, #262144	@ 0x40000
2fff26d4:	e7f4      	b.n	2fff26c0 <stm32_pm_get_optee_ep+0x24>
2fff26d6:	4806      	ldr	r0, [pc, #24]	@ (2fff26f0 <stm32_pm_get_optee_ep+0x54>)
2fff26d8:	f7f7 fda8 	bl	2ffea22c <tf_log>
2fff26dc:	e7f4      	b.n	2fff26c8 <stm32_pm_get_optee_ep+0x2c>
2fff26de:	f04f 43a8 	mov.w	r3, #1409286144	@ 0x54000000
2fff26e2:	2063      	movs	r0, #99	@ 0x63
2fff26e4:	685c      	ldr	r4, [r3, #4]
2fff26e6:	f7f7 ff7b 	bl	2ffea5e0 <clk_disable>
2fff26ea:	4620      	mov	r0, r4
2fff26ec:	bd10      	pop	{r4, pc}
2fff26ee:	bf00      	nop
2fff26f0:	2fff8bb1 	.word	0x2fff8bb1

2fff26f4 <stm32_context_save_bl2_param>:
2fff26f4:	b510      	push	{r4, lr}
2fff26f6:	f000 fb55 	bl	2fff2da4 <stm32mp_bkpram_get_access>
2fff26fa:	b1d8      	cbz	r0, 2fff2734 <stm32_context_save_bl2_param+0x40>
2fff26fc:	2063      	movs	r0, #99	@ 0x63
2fff26fe:	f04f 44a8 	mov.w	r4, #1409286144	@ 0x54000000
2fff2702:	f7f7 ff5b 	bl	2ffea5bc <clk_enable>
2fff2706:	4b0c      	ldr	r3, [pc, #48]	@ (2fff2738 <stm32_context_save_bl2_param+0x44>)
2fff2708:	f8c4 3098 	str.w	r3, [r4, #152]	@ 0x98
2fff270c:	4b0b      	ldr	r3, [pc, #44]	@ (2fff273c <stm32_context_save_bl2_param+0x48>)
2fff270e:	f8c4 309c 	str.w	r3, [r4, #156]	@ 0x9c
2fff2712:	4b0b      	ldr	r3, [pc, #44]	@ (2fff2740 <stm32_context_save_bl2_param+0x4c>)
2fff2714:	f8c4 30a0 	str.w	r3, [r4, #160]	@ 0xa0
2fff2718:	4b0a      	ldr	r3, [pc, #40]	@ (2fff2744 <stm32_context_save_bl2_param+0x50>)
2fff271a:	f8c4 30a4 	str.w	r3, [r4, #164]	@ 0xa4
2fff271e:	f44f 2380 	mov.w	r3, #262144	@ 0x40000
2fff2722:	6023      	str	r3, [r4, #0]
2fff2724:	f001 f962 	bl	2fff39ec <ddr_get_io_calibration_val>
2fff2728:	60a0      	str	r0, [r4, #8]
2fff272a:	2063      	movs	r0, #99	@ 0x63
2fff272c:	e8bd 4010 	ldmia.w	sp!, {r4, lr}
2fff2730:	f7f7 bf56 	b.w	2ffea5e0 <clk_disable>
2fff2734:	bd10      	pop	{r4, pc}
2fff2736:	bf00      	nop
2fff2738:	2ffe980c 	.word	0x2ffe980c
2fff273c:	2ffe9000 	.word	0x2ffe9000
2fff2740:	2fffa000 	.word	0x2fffa000
2fff2744:	2fffe000 	.word	0x2fffe000

2fff2748 <stm32_pm_context_is_valid>:
2fff2748:	b537      	push	{r0, r1, r2, r4, r5, lr}
2fff274a:	f04f 44a8 	mov.w	r4, #1409286144	@ 0x54000000
2fff274e:	2063      	movs	r0, #99	@ 0x63
2fff2750:	f7f7 ff34 	bl	2ffea5bc <clk_enable>
2fff2754:	6823      	ldr	r3, [r4, #0]
2fff2756:	0c1a      	lsrs	r2, r3, #16
2fff2758:	0412      	lsls	r2, r2, #16
2fff275a:	f5b2 2f80 	cmp.w	r2, #262144	@ 0x40000
2fff275e:	d00f      	beq.n	2fff2780 <stm32_pm_context_is_valid+0x38>
2fff2760:	d82b      	bhi.n	2fff27ba <stm32_pm_context_is_valid+0x72>
2fff2762:	f5b2 3f00 	cmp.w	r2, #131072	@ 0x20000
2fff2766:	d01a      	beq.n	2fff279e <stm32_pm_context_is_valid+0x56>
2fff2768:	4c15      	ldr	r4, [pc, #84]	@ (2fff27c0 <stm32_pm_context_is_valid+0x78>)
2fff276a:	401c      	ands	r4, r3
2fff276c:	f5a4 3380 	sub.w	r3, r4, #65536	@ 0x10000
2fff2770:	425c      	negs	r4, r3
2fff2772:	415c      	adcs	r4, r3
2fff2774:	2063      	movs	r0, #99	@ 0x63
2fff2776:	f7f7 ff33 	bl	2ffea5e0 <clk_disable>
2fff277a:	4620      	mov	r0, r4
2fff277c:	b003      	add	sp, #12
2fff277e:	bd30      	pop	{r4, r5, pc}
2fff2780:	e9d4 252a 	ldrd	r2, r5, [r4, #168]	@ 0xa8
2fff2784:	2000      	movs	r0, #0
2fff2786:	2aaf      	cmp	r2, #175	@ 0xaf
2fff2788:	d90b      	bls.n	2fff27a2 <stm32_pm_context_is_valid+0x5a>
2fff278a:	f8c4 00ac 	str.w	r0, [r4, #172]	@ 0xac
2fff278e:	4621      	mov	r1, r4
2fff2790:	f001 febb 	bl	2fff450a <tf_crc32>
2fff2794:	4285      	cmp	r5, r0
2fff2796:	4602      	mov	r2, r0
2fff2798:	f8c4 50ac 	str.w	r5, [r4, #172]	@ 0xac
2fff279c:	d102      	bne.n	2fff27a4 <stm32_pm_context_is_valid+0x5c>
2fff279e:	2401      	movs	r4, #1
2fff27a0:	e7e8      	b.n	2fff2774 <stm32_pm_context_is_valid+0x2c>
2fff27a2:	4602      	mov	r2, r0
2fff27a4:	4807      	ldr	r0, [pc, #28]	@ (2fff27c4 <stm32_pm_context_is_valid+0x7c>)
2fff27a6:	f04f 44a8 	mov.w	r4, #1409286144	@ 0x54000000
2fff27aa:	23b0      	movs	r3, #176	@ 0xb0
2fff27ac:	9300      	str	r3, [sp, #0]
2fff27ae:	e9d4 312a 	ldrd	r3, r1, [r4, #168]	@ 0xa8
2fff27b2:	f7f7 fd3b 	bl	2ffea22c <tf_log>
2fff27b6:	2300      	movs	r3, #0
2fff27b8:	6023      	str	r3, [r4, #0]
2fff27ba:	2400      	movs	r4, #0
2fff27bc:	e7da      	b.n	2fff2774 <stm32_pm_context_is_valid+0x2c>
2fff27be:	bf00      	nop
2fff27c0:	fffd0000 	.word	0xfffd0000
2fff27c4:	2fff8bc9 	.word	0x2fff8bc9

2fff27c8 <stm32_restore_ddr_training_area>:
2fff27c8:	b508      	push	{r3, lr}
2fff27ca:	2063      	movs	r0, #99	@ 0x63
2fff27cc:	f7f7 fef6 	bl	2ffea5bc <clk_enable>
2fff27d0:	2140      	movs	r1, #64	@ 0x40
2fff27d2:	f04f 4040 	mov.w	r0, #3221225472	@ 0xc0000000
2fff27d6:	f7f6 ee8c 	blx	2ffe94f0 <inv_dcache_range>
2fff27da:	4909      	ldr	r1, [pc, #36]	@ (2fff2800 <stm32_restore_ddr_training_area+0x38>)
2fff27dc:	2240      	movs	r2, #64	@ 0x40
2fff27de:	f04f 4040 	mov.w	r0, #3221225472	@ 0xc0000000
2fff27e2:	f002 fb8a 	bl	2fff4efa <memcpy>
2fff27e6:	2140      	movs	r1, #64	@ 0x40
2fff27e8:	f04f 4040 	mov.w	r0, #3221225472	@ 0xc0000000
2fff27ec:	f7f6 ee44 	blx	2ffe9478 <flush_dcache_range>
2fff27f0:	f3bf 8f4f 	dsb	sy
2fff27f4:	2063      	movs	r0, #99	@ 0x63
2fff27f6:	e8bd 4008 	ldmia.w	sp!, {r3, lr}
2fff27fa:	f7f7 bef1 	b.w	2ffea5e0 <clk_disable>
2fff27fe:	bf00      	nop
2fff2800:	5400000c 	.word	0x5400000c

2fff2804 <stm32_pwr_down_wfi_load>:
2fff2804:	2904      	cmp	r1, #4
2fff2806:	b538      	push	{r3, r4, r5, lr}
2fff2808:	4605      	mov	r5, r0
2fff280a:	460c      	mov	r4, r1
2fff280c:	d106      	bne.n	2fff281c <stm32_pwr_down_wfi_load+0x18>
2fff280e:	481b      	ldr	r0, [pc, #108]	@ (2fff287c <stm32_pwr_down_wfi_load+0x78>)
2fff2810:	f7f7 fd0c 	bl	2ffea22c <tf_log>
2fff2814:	f7f7 ffa0 	bl	2ffea758 <console_flush>
2fff2818:	f7f6 ed2c 	blx	2ffe9274 <el3_panic>
2fff281c:	b349      	cbz	r1, 2fff2872 <stm32_pwr_down_wfi_load+0x6e>
2fff281e:	2001      	movs	r0, #1
2fff2820:	f7f6 eee8 	blx	2ffe95f4 <dcsw_op_all>
2fff2824:	b1bd      	cbz	r5, 2fff2856 <stm32_pwr_down_wfi_load+0x52>
2fff2826:	f7f8 f803 	bl	2ffea830 <generic_delay_timer_init>
2fff282a:	2001      	movs	r0, #1
2fff282c:	f7fb f8a4 	bl	2ffed978 <ddr_set_sr_mode>
2fff2830:	f001 f8e4 	bl	2fff39fc <ddr_standby_sr_entry>
2fff2834:	b178      	cbz	r0, 2fff2856 <stm32_pwr_down_wfi_load+0x52>
2fff2836:	4812      	ldr	r0, [pc, #72]	@ (2fff2880 <stm32_pwr_down_wfi_load+0x7c>)
2fff2838:	f7f7 fcf8 	bl	2ffea22c <tf_log>
2fff283c:	2c07      	cmp	r4, #7
2fff283e:	d1e9      	bne.n	2fff2814 <stm32_pwr_down_wfi_load+0x10>
2fff2840:	f7fc fd88 	bl	2ffef354 <dt_pmic_status>
2fff2844:	2800      	cmp	r0, #0
2fff2846:	dd08      	ble.n	2fff285a <stm32_pwr_down_wfi_load+0x56>
2fff2848:	f7fc fd9e 	bl	2ffef388 <initialize_pmic_i2c>
2fff284c:	2800      	cmp	r0, #0
2fff284e:	d0e1      	beq.n	2fff2814 <stm32_pwr_down_wfi_load+0x10>
2fff2850:	f001 fbf2 	bl	2fff4038 <pmic_switch_off>
2fff2854:	e001      	b.n	2fff285a <stm32_pwr_down_wfi_load+0x56>
2fff2856:	2c07      	cmp	r4, #7
2fff2858:	d0f2      	beq.n	2fff2840 <stm32_pwr_down_wfi_load+0x3c>
2fff285a:	f3bf 8f4f 	dsb	sy
2fff285e:	f3bf 8f6f 	isb	sy
2fff2862:	bf30      	wfi
2fff2864:	f7fc fa12 	bl	2ffeec8c <stm32_iwdg_refresh>
2fff2868:	b135      	cbz	r5, 2fff2878 <stm32_pwr_down_wfi_load+0x74>
2fff286a:	e8bd 4038 	ldmia.w	sp!, {r3, r4, r5, lr}
2fff286e:	f001 bf29 	b.w	2fff46c4 <stm32_pwr_cstop_critic_exit>
2fff2872:	2800      	cmp	r0, #0
2fff2874:	d0f1      	beq.n	2fff285a <stm32_pwr_down_wfi_load+0x56>
2fff2876:	e7d6      	b.n	2fff2826 <stm32_pwr_down_wfi_load+0x22>
2fff2878:	bd38      	pop	{r3, r4, r5, pc}
2fff287a:	bf00      	nop
2fff287c:	2fff8bfc 	.word	0x2fff8bfc
2fff2880:	2fff8c1c 	.word	0x2fff8c1c

2fff2884 <stm32mp1_dbgmcu_init>:
2fff2884:	b508      	push	{r3, lr}
2fff2886:	f7f9 f975 	bl	2ffebb74 <bsec_read_debug_conf>
2fff288a:	0543      	lsls	r3, r0, #21
2fff288c:	d405      	bmi.n	2fff289a <stm32mp1_dbgmcu_init+0x16>
2fff288e:	4808      	ldr	r0, [pc, #32]	@ (2fff28b0 <stm32mp1_dbgmcu_init+0x2c>)
2fff2890:	f7f7 fccc 	bl	2ffea22c <tf_log>
2fff2894:	f04f 30ff 	mov.w	r0, #4294967295	@ 0xffffffff
2fff2898:	bd08      	pop	{r3, pc}
2fff289a:	f04f 42a0 	mov.w	r2, #1342177280	@ 0x50000000
2fff289e:	2000      	movs	r0, #0
2fff28a0:	f8d2 380c 	ldr.w	r3, [r2, #2060]	@ 0x80c
2fff28a4:	f443 7380 	orr.w	r3, r3, #256	@ 0x100
2fff28a8:	f8c2 380c 	str.w	r3, [r2, #2060]	@ 0x80c
2fff28ac:	e7f4      	b.n	2fff2898 <stm32mp1_dbgmcu_init+0x14>
2fff28ae:	bf00      	nop
2fff28b0:	2fff8c36 	.word	0x2fff8c36

2fff28b4 <stm32mp1_dbgmcu_get_chip_version>:
2fff28b4:	b510      	push	{r4, lr}
2fff28b6:	4604      	mov	r4, r0
2fff28b8:	b918      	cbnz	r0, 2fff28c2 <stm32mp1_dbgmcu_get_chip_version+0xe>
2fff28ba:	4807      	ldr	r0, [pc, #28]	@ (2fff28d8 <stm32mp1_dbgmcu_get_chip_version+0x24>)
2fff28bc:	212d      	movs	r1, #45	@ 0x2d
2fff28be:	f000 fc6b 	bl	2fff3198 <__assert>
2fff28c2:	f7ff ffdf 	bl	2fff2884 <stm32mp1_dbgmcu_init>
2fff28c6:	b920      	cbnz	r0, 2fff28d2 <stm32mp1_dbgmcu_get_chip_version+0x1e>
2fff28c8:	4b04      	ldr	r3, [pc, #16]	@ (2fff28dc <stm32mp1_dbgmcu_get_chip_version+0x28>)
2fff28ca:	681b      	ldr	r3, [r3, #0]
2fff28cc:	0c1b      	lsrs	r3, r3, #16
2fff28ce:	6023      	str	r3, [r4, #0]
2fff28d0:	bd10      	pop	{r4, pc}
2fff28d2:	f04f 30ff 	mov.w	r0, #4294967295	@ 0xffffffff
2fff28d6:	e7fb      	b.n	2fff28d0 <stm32mp1_dbgmcu_get_chip_version+0x1c>
2fff28d8:	2fff8c6c 	.word	0x2fff8c6c
2fff28dc:	50081000 	.word	0x50081000

2fff28e0 <stm32mp1_dbgmcu_get_chip_dev_id>:
2fff28e0:	b510      	push	{r4, lr}
2fff28e2:	4604      	mov	r4, r0
2fff28e4:	b918      	cbnz	r0, 2fff28ee <stm32mp1_dbgmcu_get_chip_dev_id+0xe>
2fff28e6:	4808      	ldr	r0, [pc, #32]	@ (2fff2908 <stm32mp1_dbgmcu_get_chip_dev_id+0x28>)
2fff28e8:	2140      	movs	r1, #64	@ 0x40
2fff28ea:	f000 fc55 	bl	2fff3198 <__assert>
2fff28ee:	f7ff ffc9 	bl	2fff2884 <stm32mp1_dbgmcu_init>
2fff28f2:	b928      	cbnz	r0, 2fff2900 <stm32mp1_dbgmcu_get_chip_dev_id+0x20>
2fff28f4:	4b05      	ldr	r3, [pc, #20]	@ (2fff290c <stm32mp1_dbgmcu_get_chip_dev_id+0x2c>)
2fff28f6:	681b      	ldr	r3, [r3, #0]
2fff28f8:	f3c3 030b 	ubfx	r3, r3, #0, #12
2fff28fc:	6023      	str	r3, [r4, #0]
2fff28fe:	bd10      	pop	{r4, pc}
2fff2900:	f04f 30ff 	mov.w	r0, #4294967295	@ 0xffffffff
2fff2904:	e7fb      	b.n	2fff28fe <stm32mp1_dbgmcu_get_chip_dev_id+0x1e>
2fff2906:	bf00      	nop
2fff2908:	2fff8c6c 	.word	0x2fff8c6c
2fff290c:	50081000 	.word	0x50081000

2fff2910 <fconf_populate_stm32mp1_firewall>:
2fff2910:	e92d 41f0 	stmdb	sp!, {r4, r5, r6, r7, r8, lr}
2fff2914:	b086      	sub	sp, #24
2fff2916:	4606      	mov	r6, r0
2fff2918:	f7fb f9f4 	bl	2ffedd04 <stm32mp1_ddr_is_restored>
2fff291c:	4605      	mov	r5, r0
2fff291e:	bb08      	cbnz	r0, 2fff2964 <fconf_populate_stm32mp1_firewall+0x54>
2fff2920:	4a29      	ldr	r2, [pc, #164]	@ (2fff29c8 <fconf_populate_stm32mp1_firewall+0xb8>)
2fff2922:	f04f 31ff 	mov.w	r1, #4294967295	@ 0xffffffff
2fff2926:	4630      	mov	r0, r6
2fff2928:	f002 fab0 	bl	2fff4e8c <fdt_node_offset_by_compatible>
2fff292c:	1e04      	subs	r4, r0, #0
2fff292e:	da07      	bge.n	2fff2940 <fconf_populate_stm32mp1_firewall+0x30>
2fff2930:	4925      	ldr	r1, [pc, #148]	@ (2fff29c8 <fconf_populate_stm32mp1_firewall+0xb8>)
2fff2932:	4826      	ldr	r0, [pc, #152]	@ (2fff29cc <fconf_populate_stm32mp1_firewall+0xbc>)
2fff2934:	f7f7 fc7a 	bl	2ffea22c <tf_log>
2fff2938:	4620      	mov	r0, r4
2fff293a:	b006      	add	sp, #24
2fff293c:	e8bd 81f0 	ldmia.w	sp!, {r4, r5, r6, r7, r8, pc}
2fff2940:	4a23      	ldr	r2, [pc, #140]	@ (2fff29d0 <fconf_populate_stm32mp1_firewall+0xc0>)
2fff2942:	4621      	mov	r1, r4
2fff2944:	ab05      	add	r3, sp, #20
2fff2946:	4630      	mov	r0, r6
2fff2948:	f002 f96b 	bl	2fff4c22 <fdt_getprop>
2fff294c:	4604      	mov	r4, r0
2fff294e:	b158      	cbz	r0, 2fff2968 <fconf_populate_stm32mp1_firewall+0x58>
2fff2950:	4e20      	ldr	r6, [pc, #128]	@ (2fff29d4 <fconf_populate_stm32mp1_firewall+0xc4>)
2fff2952:	462f      	mov	r7, r5
2fff2954:	9b05      	ldr	r3, [sp, #20]
2fff2956:	ebb5 1f13 	cmp.w	r5, r3, lsr #4
2fff295a:	d30c      	bcc.n	2fff2976 <fconf_populate_stm32mp1_firewall+0x66>
2fff295c:	481d      	ldr	r0, [pc, #116]	@ (2fff29d4 <fconf_populate_stm32mp1_firewall+0xc4>)
2fff295e:	2104      	movs	r1, #4
2fff2960:	f7f6 ed8a 	blx	2ffe9478 <flush_dcache_range>
2fff2964:	2400      	movs	r4, #0
2fff2966:	e7e7      	b.n	2fff2938 <fconf_populate_stm32mp1_firewall+0x28>
2fff2968:	4919      	ldr	r1, [pc, #100]	@ (2fff29d0 <fconf_populate_stm32mp1_firewall+0xc0>)
2fff296a:	f04f 34ff 	mov.w	r4, #4294967295	@ 0xffffffff
2fff296e:	481a      	ldr	r0, [pc, #104]	@ (2fff29d8 <fconf_populate_stm32mp1_firewall+0xc8>)
2fff2970:	f7f7 fc5c 	bl	2ffea22c <tf_log>
2fff2974:	e7e0      	b.n	2fff2938 <fconf_populate_stm32mp1_firewall+0x28>
2fff2976:	f854 0b10 	ldr.w	r0, [r4], #16
2fff297a:	3501      	adds	r5, #1
2fff297c:	f001 feaf 	bl	2fff46de <fdt32_to_cpu>
2fff2980:	4602      	mov	r2, r0
2fff2982:	f854 0c0c 	ldr.w	r0, [r4, #-12]
2fff2986:	f001 feaa 	bl	2fff46de <fdt32_to_cpu>
2fff298a:	4603      	mov	r3, r0
2fff298c:	f854 0c08 	ldr.w	r0, [r4, #-8]
2fff2990:	f001 fea5 	bl	2fff46de <fdt32_to_cpu>
2fff2994:	4680      	mov	r8, r0
2fff2996:	f854 0c04 	ldr.w	r0, [r4, #-4]
2fff299a:	f001 fea0 	bl	2fff46de <fdt32_to_cpu>
2fff299e:	6831      	ldr	r1, [r6, #0]
2fff29a0:	189b      	adds	r3, r3, r2
2fff29a2:	f101 0101 	add.w	r1, r1, #1
2fff29a6:	6031      	str	r1, [r6, #0]
2fff29a8:	9003      	str	r0, [sp, #12]
2fff29aa:	eb47 0007 	adc.w	r0, r7, r7
2fff29ae:	3b01      	subs	r3, #1
2fff29b0:	f140 30ff 	adc.w	r0, r0, #4294967295	@ 0xffffffff
2fff29b4:	e9cd 3000 	strd	r3, r0, [sp]
2fff29b8:	f8cd 8008 	str.w	r8, [sp, #8]
2fff29bc:	2300      	movs	r3, #0
2fff29be:	4618      	mov	r0, r3
2fff29c0:	f7f7 fd1c 	bl	2ffea3fc <tzc400_configure_region>
2fff29c4:	e7c6      	b.n	2fff2954 <fconf_populate_stm32mp1_firewall+0x44>
2fff29c6:	bf00      	nop
2fff29c8:	2fff8c8f 	.word	0x2fff8c8f
2fff29cc:	2fff7f28 	.word	0x2fff7f28
2fff29d0:	2fff8c9f 	.word	0x2fff8c9f
2fff29d4:	2fffba90 	.word	0x2fffba90
2fff29d8:	2fff870e 	.word	0x2fff870e

2fff29dc <stm32mp1_arch_security_setup>:
2fff29dc:	b508      	push	{r3, lr}
2fff29de:	2042      	movs	r0, #66	@ 0x42
2fff29e0:	f7f7 fdec 	bl	2ffea5bc <clk_enable>
2fff29e4:	2071      	movs	r0, #113	@ 0x71
2fff29e6:	f7f7 fde9 	bl	2ffea5bc <clk_enable>
2fff29ea:	4808      	ldr	r0, [pc, #32]	@ (2fff2a0c <stm32mp1_arch_security_setup+0x30>)
2fff29ec:	f7f7 fcc2 	bl	2ffea374 <tzc400_init>
2fff29f0:	f7f7 fdbc 	bl	2ffea56c <tzc400_disable_filters>
2fff29f4:	2100      	movs	r1, #0
2fff29f6:	2003      	movs	r0, #3
2fff29f8:	f7f7 fcea 	bl	2ffea3d0 <tzc400_configure_region0>
2fff29fc:	2001      	movs	r0, #1
2fff29fe:	f7f7 fca7 	bl	2ffea350 <tzc400_set_action>
2fff2a02:	e8bd 4008 	ldmia.w	sp!, {r3, lr}
2fff2a06:	f7f7 bd7d 	b.w	2ffea504 <tzc400_enable_filters>
2fff2a0a:	bf00      	nop
2fff2a0c:	5c006000 	.word	0x5c006000

2fff2a10 <stm32mp1_security_setup>:
2fff2a10:	b538      	push	{r3, r4, r5, lr}
2fff2a12:	f7fb f977 	bl	2ffedd04 <stm32mp1_ddr_is_restored>
2fff2a16:	4604      	mov	r4, r0
2fff2a18:	bb08      	cbnz	r0, 2fff2a5e <stm32mp1_security_setup+0x4e>
2fff2a1a:	4d11      	ldr	r5, [pc, #68]	@ (2fff2a60 <stm32mp1_security_setup+0x50>)
2fff2a1c:	682b      	ldr	r3, [r5, #0]
2fff2a1e:	b91b      	cbnz	r3, 2fff2a28 <stm32mp1_security_setup+0x18>
2fff2a20:	4810      	ldr	r0, [pc, #64]	@ (2fff2a64 <stm32mp1_security_setup+0x54>)
2fff2a22:	2141      	movs	r1, #65	@ 0x41
2fff2a24:	f000 fbb8 	bl	2fff3198 <__assert>
2fff2a28:	480f      	ldr	r0, [pc, #60]	@ (2fff2a68 <stm32mp1_security_setup+0x58>)
2fff2a2a:	f7f7 fca3 	bl	2ffea374 <tzc400_init>
2fff2a2e:	f7f7 fd9d 	bl	2ffea56c <tzc400_disable_filters>
2fff2a32:	4621      	mov	r1, r4
2fff2a34:	4620      	mov	r0, r4
2fff2a36:	2401      	movs	r4, #1
2fff2a38:	f7f7 fcca 	bl	2ffea3d0 <tzc400_configure_region0>
2fff2a3c:	682b      	ldr	r3, [r5, #0]
2fff2a3e:	429c      	cmp	r4, r3
2fff2a40:	d906      	bls.n	2fff2a50 <stm32mp1_security_setup+0x40>
2fff2a42:	2002      	movs	r0, #2
2fff2a44:	f7f7 fc84 	bl	2ffea350 <tzc400_set_action>
2fff2a48:	e8bd 4038 	ldmia.w	sp!, {r3, r4, r5, lr}
2fff2a4c:	f7f7 bd5a 	b.w	2ffea504 <tzc400_enable_filters>
2fff2a50:	4620      	mov	r0, r4
2fff2a52:	2103      	movs	r1, #3
2fff2a54:	3401      	adds	r4, #1
2fff2a56:	f7f7 fd33 	bl	2ffea4c0 <tzc400_update_filters>
2fff2a5a:	b2e4      	uxtb	r4, r4
2fff2a5c:	e7ee      	b.n	2fff2a3c <stm32mp1_security_setup+0x2c>
2fff2a5e:	bd38      	pop	{r3, r4, r5, pc}
2fff2a60:	2fffba90 	.word	0x2fffba90
2fff2a64:	2fff8cad 	.word	0x2fff8cad
2fff2a68:	5c006000 	.word	0x5c006000

2fff2a6c <configure_mmu>:
2fff2a6c:	4805      	ldr	r0, [pc, #20]	@ (2fff2a84 <configure_mmu+0x18>)
2fff2a6e:	b508      	push	{r3, lr}
2fff2a70:	f7fd fe9a 	bl	2fff07a8 <mmap_add>
2fff2a74:	f7fd feba 	bl	2fff07ec <init_xlat_tables>
2fff2a78:	e8bd 4008 	ldmia.w	sp!, {r3, lr}
2fff2a7c:	2000      	movs	r0, #0
2fff2a7e:	f7fd bed3 	b.w	2fff0828 <enable_mmu_svc_mon>
2fff2a82:	bf00      	nop
2fff2a84:	2fff51d0 	.word	0x2fff51d0

2fff2a88 <stm32_get_gpio_bank_base>:
2fff2a88:	2819      	cmp	r0, #25
2fff2a8a:	b508      	push	{r3, lr}
2fff2a8c:	d00a      	beq.n	2fff2aa4 <stm32_get_gpio_bank_base+0x1c>
2fff2a8e:	280a      	cmp	r0, #10
2fff2a90:	d903      	bls.n	2fff2a9a <stm32_get_gpio_bank_base+0x12>
2fff2a92:	4805      	ldr	r0, [pc, #20]	@ (2fff2aa8 <stm32_get_gpio_bank_base+0x20>)
2fff2a94:	216c      	movs	r1, #108	@ 0x6c
2fff2a96:	f000 fb7f 	bl	2fff3198 <__assert>
2fff2a9a:	f500 20a0 	add.w	r0, r0, #327680	@ 0x50000
2fff2a9e:	3002      	adds	r0, #2
2fff2aa0:	0300      	lsls	r0, r0, #12
2fff2aa2:	bd08      	pop	{r3, pc}
2fff2aa4:	4801      	ldr	r0, [pc, #4]	@ (2fff2aac <stm32_get_gpio_bank_base+0x24>)
2fff2aa6:	e7fc      	b.n	2fff2aa2 <stm32_get_gpio_bank_base+0x1a>
2fff2aa8:	2fff8cea 	.word	0x2fff8cea
2fff2aac:	54004000 	.word	0x54004000

2fff2ab0 <stm32_get_gpio_bank_offset>:
2fff2ab0:	2819      	cmp	r0, #25
2fff2ab2:	b508      	push	{r3, lr}
2fff2ab4:	d007      	beq.n	2fff2ac6 <stm32_get_gpio_bank_offset+0x16>
2fff2ab6:	280a      	cmp	r0, #10
2fff2ab8:	d903      	bls.n	2fff2ac2 <stm32_get_gpio_bank_offset+0x12>
2fff2aba:	4804      	ldr	r0, [pc, #16]	@ (2fff2acc <stm32_get_gpio_bank_offset+0x1c>)
2fff2abc:	217c      	movs	r1, #124	@ 0x7c
2fff2abe:	f000 fb6b 	bl	2fff3198 <__assert>
2fff2ac2:	0300      	lsls	r0, r0, #12
2fff2ac4:	bd08      	pop	{r3, pc}
2fff2ac6:	2000      	movs	r0, #0
2fff2ac8:	e7fc      	b.n	2fff2ac4 <stm32_get_gpio_bank_offset+0x14>
2fff2aca:	bf00      	nop
2fff2acc:	2fff8cea 	.word	0x2fff8cea

2fff2ad0 <stm32_get_gpio_bank_clock>:
2fff2ad0:	2819      	cmp	r0, #25
2fff2ad2:	b508      	push	{r3, lr}
2fff2ad4:	d007      	beq.n	2fff2ae6 <stm32_get_gpio_bank_clock+0x16>
2fff2ad6:	280a      	cmp	r0, #10
2fff2ad8:	d903      	bls.n	2fff2ae2 <stm32_get_gpio_bank_clock+0x12>
2fff2ada:	4804      	ldr	r0, [pc, #16]	@ (2fff2aec <stm32_get_gpio_bank_clock+0x1c>)
2fff2adc:	219a      	movs	r1, #154	@ 0x9a
2fff2ade:	f000 fb5b 	bl	2fff3198 <__assert>
2fff2ae2:	3054      	adds	r0, #84	@ 0x54
2fff2ae4:	bd08      	pop	{r3, pc}
2fff2ae6:	205f      	movs	r0, #95	@ 0x5f
2fff2ae8:	e7fc      	b.n	2fff2ae4 <stm32_get_gpio_bank_clock+0x14>
2fff2aea:	bf00      	nop
2fff2aec:	2fff8cea 	.word	0x2fff8cea

2fff2af0 <stm32mp_get_chip_version>:
2fff2af0:	b513      	push	{r0, r1, r4, lr}
2fff2af2:	2400      	movs	r4, #0
2fff2af4:	9401      	str	r4, [sp, #4]
2fff2af6:	a801      	add	r0, sp, #4
2fff2af8:	f7ff fedc 	bl	2fff28b4 <stm32mp1_dbgmcu_get_chip_version>
2fff2afc:	42a0      	cmp	r0, r4
2fff2afe:	da05      	bge.n	2fff2b0c <stm32mp_get_chip_version+0x1c>
2fff2b00:	4803      	ldr	r0, [pc, #12]	@ (2fff2b10 <stm32mp_get_chip_version+0x20>)
2fff2b02:	f7f7 fb93 	bl	2ffea22c <tf_log>
2fff2b06:	4620      	mov	r0, r4
2fff2b08:	b002      	add	sp, #8
2fff2b0a:	bd10      	pop	{r4, pc}
2fff2b0c:	9801      	ldr	r0, [sp, #4]
2fff2b0e:	e7fb      	b.n	2fff2b08 <stm32mp_get_chip_version+0x18>
2fff2b10:	2fff8d0e 	.word	0x2fff8d0e

2fff2b14 <stm32mp_get_chip_dev_id>:
2fff2b14:	b507      	push	{r0, r1, r2, lr}
2fff2b16:	a801      	add	r0, sp, #4
2fff2b18:	f7ff fee2 	bl	2fff28e0 <stm32mp1_dbgmcu_get_chip_dev_id>
2fff2b1c:	2800      	cmp	r0, #0
2fff2b1e:	da05      	bge.n	2fff2b2c <stm32mp_get_chip_dev_id+0x18>
2fff2b20:	4804      	ldr	r0, [pc, #16]	@ (2fff2b34 <stm32mp_get_chip_dev_id+0x20>)
2fff2b22:	f7f7 fb83 	bl	2ffea22c <tf_log>
2fff2b26:	f44f 63a0 	mov.w	r3, #1280	@ 0x500
2fff2b2a:	9301      	str	r3, [sp, #4]
2fff2b2c:	9801      	ldr	r0, [sp, #4]
2fff2b2e:	b003      	add	sp, #12
2fff2b30:	f85d fb04 	ldr.w	pc, [sp], #4
2fff2b34:	2fff8d37 	.word	0x2fff8d37

2fff2b38 <stm32mp_get_part_number>:
2fff2b38:	b510      	push	{r4, lr}
2fff2b3a:	4c0a      	ldr	r4, [pc, #40]	@ (2fff2b64 <stm32mp_get_part_number+0x2c>)
2fff2b3c:	6820      	ldr	r0, [r4, #0]
2fff2b3e:	b980      	cbnz	r0, 2fff2b62 <stm32mp_get_part_number+0x2a>
2fff2b40:	4809      	ldr	r0, [pc, #36]	@ (2fff2b68 <stm32mp_get_part_number+0x30>)
2fff2b42:	4621      	mov	r1, r4
2fff2b44:	f7fe fd92 	bl	2fff166c <stm32_get_otp_value>
2fff2b48:	b118      	cbz	r0, 2fff2b52 <stm32mp_get_part_number+0x1a>
2fff2b4a:	f7f7 fe05 	bl	2ffea758 <console_flush>
2fff2b4e:	f7f6 eb92 	blx	2ffe9274 <el3_panic>
2fff2b52:	7823      	ldrb	r3, [r4, #0]
2fff2b54:	6023      	str	r3, [r4, #0]
2fff2b56:	f7ff ffdd 	bl	2fff2b14 <stm32mp_get_chip_dev_id>
2fff2b5a:	6823      	ldr	r3, [r4, #0]
2fff2b5c:	ea43 4000 	orr.w	r0, r3, r0, lsl #16
2fff2b60:	6020      	str	r0, [r4, #0]
2fff2b62:	bd10      	pop	{r4, pc}
2fff2b64:	2fffba94 	.word	0x2fffba94
2fff2b68:	2fff8d5d 	.word	0x2fff8d5d

2fff2b6c <stm32mp_get_soc_name>:
2fff2b6c:	b57f      	push	{r0, r1, r2, r3, r4, r5, r6, lr}
2fff2b6e:	4605      	mov	r5, r0
2fff2b70:	f7ff ffe2 	bl	2fff2b38 <stm32mp_get_part_number>
2fff2b74:	4b39      	ldr	r3, [pc, #228]	@ (2fff2c5c <stm32mp_get_soc_name+0xf0>)
2fff2b76:	4298      	cmp	r0, r3
2fff2b78:	d046      	beq.n	2fff2c08 <stm32mp_get_soc_name+0x9c>
2fff2b7a:	d833      	bhi.n	2fff2be4 <stm32mp_get_soc_name+0x78>
2fff2b7c:	3b51      	subs	r3, #81	@ 0x51
2fff2b7e:	4298      	cmp	r0, r3
2fff2b80:	d838      	bhi.n	2fff2bf4 <stm32mp_get_soc_name+0x88>
2fff2b82:	3b0c      	subs	r3, #12
2fff2b84:	4298      	cmp	r0, r3
2fff2b86:	d81e      	bhi.n	2fff2bc6 <stm32mp_get_soc_name+0x5a>
2fff2b88:	f1b0 6fa0 	cmp.w	r0, #83886080	@ 0x5000000
2fff2b8c:	d03e      	beq.n	2fff2c0c <stm32mp_get_soc_name+0xa0>
2fff2b8e:	4a34      	ldr	r2, [pc, #208]	@ (2fff2c60 <stm32mp_get_soc_name+0xf4>)
2fff2b90:	4c34      	ldr	r4, [pc, #208]	@ (2fff2c64 <stm32mp_get_soc_name+0xf8>)
2fff2b92:	4b35      	ldr	r3, [pc, #212]	@ (2fff2c68 <stm32mp_get_soc_name+0xfc>)
2fff2b94:	4290      	cmp	r0, r2
2fff2b96:	bf08      	it	eq
2fff2b98:	461c      	moveq	r4, r3
2fff2b9a:	4834      	ldr	r0, [pc, #208]	@ (2fff2c6c <stm32mp_get_soc_name+0x100>)
2fff2b9c:	a903      	add	r1, sp, #12
2fff2b9e:	f7fe fd65 	bl	2fff166c <stm32_get_otp_value>
2fff2ba2:	2800      	cmp	r0, #0
2fff2ba4:	d03a      	beq.n	2fff2c1c <stm32mp_get_soc_name+0xb0>
2fff2ba6:	f7f7 fdd7 	bl	2ffea758 <console_flush>
2fff2baa:	f7f6 eb64 	blx	2ffe9274 <el3_panic>
2fff2bae:	2b0b      	cmp	r3, #11
2fff2bb0:	d820      	bhi.n	2fff2bf4 <stm32mp_get_soc_name+0x88>
2fff2bb2:	e8df f003 	tbb	[pc, r3]
2fff2bb6:	062d      	.short	0x062d
2fff2bb8:	1f1f1f1f 	.word	0x1f1f1f1f
2fff2bbc:	1f1f1f1f 	.word	0x1f1f1f1f
2fff2bc0:	2725      	.short	0x2725
2fff2bc2:	4c2b      	ldr	r4, [pc, #172]	@ (2fff2c70 <stm32mp_get_soc_name+0x104>)
2fff2bc4:	e7e9      	b.n	2fff2b9a <stm32mp_get_soc_name+0x2e>
2fff2bc6:	f100 437b 	add.w	r3, r0, #4211081216	@ 0xfb000000
2fff2bca:	3b24      	subs	r3, #36	@ 0x24
2fff2bcc:	2b0b      	cmp	r3, #11
2fff2bce:	d811      	bhi.n	2fff2bf4 <stm32mp_get_soc_name+0x88>
2fff2bd0:	e8df f003 	tbb	[pc, r3]
2fff2bd4:	10100620 	.word	0x10100620
2fff2bd8:	10101010 	.word	0x10101010
2fff2bdc:	14121010 	.word	0x14121010
2fff2be0:	4c24      	ldr	r4, [pc, #144]	@ (2fff2c74 <stm32mp_get_soc_name+0x108>)
2fff2be2:	e7da      	b.n	2fff2b9a <stm32mp_get_soc_name+0x2e>
2fff2be4:	4b24      	ldr	r3, [pc, #144]	@ (2fff2c78 <stm32mp_get_soc_name+0x10c>)
2fff2be6:	4298      	cmp	r0, r3
2fff2be8:	d016      	beq.n	2fff2c18 <stm32mp_get_soc_name+0xac>
2fff2bea:	f100 437b 	add.w	r3, r0, #4211081216	@ 0xfb000000
2fff2bee:	3ba4      	subs	r3, #164	@ 0xa4
2fff2bf0:	2b0b      	cmp	r3, #11
2fff2bf2:	d9dc      	bls.n	2fff2bae <stm32mp_get_soc_name+0x42>
2fff2bf4:	4c1b      	ldr	r4, [pc, #108]	@ (2fff2c64 <stm32mp_get_soc_name+0xf8>)
2fff2bf6:	e7d0      	b.n	2fff2b9a <stm32mp_get_soc_name+0x2e>
2fff2bf8:	4c20      	ldr	r4, [pc, #128]	@ (2fff2c7c <stm32mp_get_soc_name+0x110>)
2fff2bfa:	e7ce      	b.n	2fff2b9a <stm32mp_get_soc_name+0x2e>
2fff2bfc:	4c20      	ldr	r4, [pc, #128]	@ (2fff2c80 <stm32mp_get_soc_name+0x114>)
2fff2bfe:	e7cc      	b.n	2fff2b9a <stm32mp_get_soc_name+0x2e>
2fff2c00:	4c20      	ldr	r4, [pc, #128]	@ (2fff2c84 <stm32mp_get_soc_name+0x118>)
2fff2c02:	e7ca      	b.n	2fff2b9a <stm32mp_get_soc_name+0x2e>
2fff2c04:	4c20      	ldr	r4, [pc, #128]	@ (2fff2c88 <stm32mp_get_soc_name+0x11c>)
2fff2c06:	e7c8      	b.n	2fff2b9a <stm32mp_get_soc_name+0x2e>
2fff2c08:	4c20      	ldr	r4, [pc, #128]	@ (2fff2c8c <stm32mp_get_soc_name+0x120>)
2fff2c0a:	e7c6      	b.n	2fff2b9a <stm32mp_get_soc_name+0x2e>
2fff2c0c:	4c20      	ldr	r4, [pc, #128]	@ (2fff2c90 <stm32mp_get_soc_name+0x124>)
2fff2c0e:	e7c4      	b.n	2fff2b9a <stm32mp_get_soc_name+0x2e>
2fff2c10:	4c20      	ldr	r4, [pc, #128]	@ (2fff2c94 <stm32mp_get_soc_name+0x128>)
2fff2c12:	e7c2      	b.n	2fff2b9a <stm32mp_get_soc_name+0x2e>
2fff2c14:	4c20      	ldr	r4, [pc, #128]	@ (2fff2c98 <stm32mp_get_soc_name+0x12c>)
2fff2c16:	e7c0      	b.n	2fff2b9a <stm32mp_get_soc_name+0x2e>
2fff2c18:	4c20      	ldr	r4, [pc, #128]	@ (2fff2c9c <stm32mp_get_soc_name+0x130>)
2fff2c1a:	e7be      	b.n	2fff2b9a <stm32mp_get_soc_name+0x2e>
2fff2c1c:	9b03      	ldr	r3, [sp, #12]
2fff2c1e:	f3c3 63c2 	ubfx	r3, r3, #27, #3
2fff2c22:	3b01      	subs	r3, #1
2fff2c24:	2b03      	cmp	r3, #3
2fff2c26:	bf96      	itet	ls
2fff2c28:	4a1d      	ldrls	r2, [pc, #116]	@ (2fff2ca0 <stm32mp_get_soc_name+0x134>)
2fff2c2a:	4e1e      	ldrhi	r6, [pc, #120]	@ (2fff2ca4 <stm32mp_get_soc_name+0x138>)
2fff2c2c:	f852 6023 	ldrls.w	r6, [r2, r3, lsl #2]
2fff2c30:	f7ff ff5e 	bl	2fff2af0 <stm32mp_get_chip_version>
2fff2c34:	4a1c      	ldr	r2, [pc, #112]	@ (2fff2ca8 <stm32mp_get_soc_name+0x13c>)
2fff2c36:	f5a0 5000 	sub.w	r0, r0, #8192	@ 0x2000
2fff2c3a:	9600      	str	r6, [sp, #0]
2fff2c3c:	2803      	cmp	r0, #3
2fff2c3e:	f04f 0114 	mov.w	r1, #20
2fff2c42:	bf96      	itet	ls
2fff2c44:	4b19      	ldrls	r3, [pc, #100]	@ (2fff2cac <stm32mp_get_soc_name+0x140>)
2fff2c46:	4b1a      	ldrhi	r3, [pc, #104]	@ (2fff2cb0 <stm32mp_get_soc_name+0x144>)
2fff2c48:	f853 3020 	ldrls.w	r3, [r3, r0, lsl #2]
2fff2c4c:	4628      	mov	r0, r5
2fff2c4e:	9301      	str	r3, [sp, #4]
2fff2c50:	4623      	mov	r3, r4
2fff2c52:	f002 fa4f 	bl	2fff50f4 <snprintf>
2fff2c56:	b004      	add	sp, #16
2fff2c58:	bd70      	pop	{r4, r5, r6, pc}
2fff2c5a:	bf00      	nop
2fff2c5c:	05000080 	.word	0x05000080
2fff2c60:	05000001 	.word	0x05000001
2fff2c64:	2fff8da9 	.word	0x2fff8da9
2fff2c68:	2fff8d72 	.word	0x2fff8d72
2fff2c6c:	2fff8dae 	.word	0x2fff8dae
2fff2c70:	2fff8d9a 	.word	0x2fff8d9a
2fff2c74:	2fff8d7c 	.word	0x2fff8d7c
2fff2c78:	05000081 	.word	0x05000081
2fff2c7c:	2fff8d81 	.word	0x2fff8d81
2fff2c80:	2fff8d86 	.word	0x2fff8d86
2fff2c84:	2fff8d9f 	.word	0x2fff8d9f
2fff2c88:	2fff8da4 	.word	0x2fff8da4
2fff2c8c:	2fff8d8b 	.word	0x2fff8d8b
2fff2c90:	2fff8d6d 	.word	0x2fff8d6d
2fff2c94:	2fff8d95 	.word	0x2fff8d95
2fff2c98:	2fff8d77 	.word	0x2fff8d77
2fff2c9c:	2fff8d90 	.word	0x2fff8d90
2fff2ca0:	2fff5c6c 	.word	0x2fff5c6c
2fff2ca4:	2fff8dab 	.word	0x2fff8dab
2fff2ca8:	2fff8dba 	.word	0x2fff8dba
2fff2cac:	2fff5c5c 	.word	0x2fff5c5c
2fff2cb0:	2fff8dac 	.word	0x2fff8dac

2fff2cb4 <stm32mp_print_cpuinfo>:
2fff2cb4:	b57f      	push	{r0, r1, r2, r3, r4, r5, r6, lr}
2fff2cb6:	a801      	add	r0, sp, #4
2fff2cb8:	f7ff ff58 	bl	2fff2b6c <stm32mp_get_soc_name>
2fff2cbc:	4803      	ldr	r0, [pc, #12]	@ (2fff2ccc <stm32mp_print_cpuinfo+0x18>)
2fff2cbe:	a901      	add	r1, sp, #4
2fff2cc0:	f7f7 fab4 	bl	2ffea22c <tf_log>
2fff2cc4:	b007      	add	sp, #28
2fff2cc6:	f85d fb04 	ldr.w	pc, [sp], #4
2fff2cca:	bf00      	nop
2fff2ccc:	2fff8dcd 	.word	0x2fff8dcd

2fff2cd0 <stm32mp_print_boardinfo>:
2fff2cd0:	b507      	push	{r0, r1, r2, lr}
2fff2cd2:	2300      	movs	r3, #0
2fff2cd4:	4806      	ldr	r0, [pc, #24]	@ (2fff2cf0 <stm32mp_print_boardinfo+0x20>)
2fff2cd6:	a901      	add	r1, sp, #4
2fff2cd8:	9301      	str	r3, [sp, #4]
2fff2cda:	f7fe fcc7 	bl	2fff166c <stm32_get_otp_value>
2fff2cde:	b918      	cbnz	r0, 2fff2ce8 <stm32mp_print_boardinfo+0x18>
2fff2ce0:	9801      	ldr	r0, [sp, #4]
2fff2ce2:	b108      	cbz	r0, 2fff2ce8 <stm32mp_print_boardinfo+0x18>
2fff2ce4:	f7fe fd2e 	bl	2fff1744 <stm32_display_board_info>
2fff2ce8:	b003      	add	sp, #12
2fff2cea:	f85d fb04 	ldr.w	pc, [sp], #4
2fff2cee:	bf00      	nop
2fff2cf0:	2fff8dd7 	.word	0x2fff8dd7

2fff2cf4 <stm32mp_check_closed_device>:
2fff2cf4:	b507      	push	{r0, r1, r2, lr}
2fff2cf6:	a901      	add	r1, sp, #4
2fff2cf8:	4806      	ldr	r0, [pc, #24]	@ (2fff2d14 <stm32mp_check_closed_device+0x20>)
2fff2cfa:	f7fe fcb7 	bl	2fff166c <stm32_get_otp_value>
2fff2cfe:	9b01      	ldr	r3, [sp, #4]
2fff2d00:	f003 0340 	and.w	r3, r3, #64	@ 0x40
2fff2d04:	4303      	orrs	r3, r0
2fff2d06:	4804      	ldr	r0, [pc, #16]	@ (2fff2d18 <stm32mp_check_closed_device+0x24>)
2fff2d08:	4b04      	ldr	r3, [pc, #16]	@ (2fff2d1c <stm32mp_check_closed_device+0x28>)
2fff2d0a:	bf18      	it	ne
2fff2d0c:	4618      	movne	r0, r3
2fff2d0e:	b003      	add	sp, #12
2fff2d10:	f85d fb04 	ldr.w	pc, [sp], #4
2fff2d14:	2fff8de0 	.word	0x2fff8de0
2fff2d18:	a764d182 	.word	0xa764d182
2fff2d1c:	34d9ccc5 	.word	0x34d9ccc5

2fff2d20 <stm32_iwdg_get_instance>:
2fff2d20:	b508      	push	{r3, lr}
2fff2d22:	4b07      	ldr	r3, [pc, #28]	@ (2fff2d40 <stm32_iwdg_get_instance+0x20>)
2fff2d24:	4298      	cmp	r0, r3
2fff2d26:	d006      	beq.n	2fff2d36 <stm32_iwdg_get_instance+0x16>
2fff2d28:	4b06      	ldr	r3, [pc, #24]	@ (2fff2d44 <stm32_iwdg_get_instance+0x24>)
2fff2d2a:	4298      	cmp	r0, r3
2fff2d2c:	d005      	beq.n	2fff2d3a <stm32_iwdg_get_instance+0x1a>
2fff2d2e:	f7f7 fd13 	bl	2ffea758 <console_flush>
2fff2d32:	f7f6 eaa0 	blx	2ffe9274 <el3_panic>
2fff2d36:	2001      	movs	r0, #1
2fff2d38:	bd08      	pop	{r3, pc}
2fff2d3a:	2000      	movs	r0, #0
2fff2d3c:	e7fc      	b.n	2fff2d38 <stm32_iwdg_get_instance+0x18>
2fff2d3e:	bf00      	nop
2fff2d40:	5a002000 	.word	0x5a002000
2fff2d44:	5c003000 	.word	0x5c003000

2fff2d48 <stm32_iwdg_get_otp_config>:
2fff2d48:	b513      	push	{r0, r1, r4, lr}
2fff2d4a:	4604      	mov	r4, r0
2fff2d4c:	4809      	ldr	r0, [pc, #36]	@ (2fff2d74 <stm32_iwdg_get_otp_config+0x2c>)
2fff2d4e:	a901      	add	r1, sp, #4
2fff2d50:	f7fe fc8c 	bl	2fff166c <stm32_get_otp_value>
2fff2d54:	b118      	cbz	r0, 2fff2d5e <stm32_iwdg_get_otp_config+0x16>
2fff2d56:	f7f7 fcff 	bl	2ffea758 <console_flush>
2fff2d5a:	f7f6 ea8c 	blx	2ffe9274 <el3_panic>
2fff2d5e:	9a01      	ldr	r2, [sp, #4]
2fff2d60:	3403      	adds	r4, #3
2fff2d62:	2301      	movs	r3, #1
2fff2d64:	40a3      	lsls	r3, r4
2fff2d66:	4213      	tst	r3, r2
2fff2d68:	bf14      	ite	ne
2fff2d6a:	2001      	movne	r0, #1
2fff2d6c:	2000      	moveq	r0, #0
2fff2d6e:	b002      	add	sp, #8
2fff2d70:	bd10      	pop	{r4, pc}
2fff2d72:	bf00      	nop
2fff2d74:	2fff8de9 	.word	0x2fff8de9

2fff2d78 <stm32mp_skip_boot_device_after_standby>:
2fff2d78:	b510      	push	{r4, lr}
2fff2d7a:	4c09      	ldr	r4, [pc, #36]	@ (2fff2da0 <stm32mp_skip_boot_device_after_standby+0x28>)
2fff2d7c:	6823      	ldr	r3, [r4, #0]
2fff2d7e:	3301      	adds	r3, #1
2fff2d80:	d109      	bne.n	2fff2d96 <stm32mp_skip_boot_device_after_standby+0x1e>
2fff2d82:	f001 fcb6 	bl	2fff46f2 <stm32mp_is_wakeup_from_standby>
2fff2d86:	b120      	cbz	r0, 2fff2d92 <stm32mp_skip_boot_device_after_standby+0x1a>
2fff2d88:	2301      	movs	r3, #1
2fff2d8a:	6023      	str	r3, [r4, #0]
2fff2d8c:	f7ff fc86 	bl	2fff269c <stm32_pm_get_optee_ep>
2fff2d90:	b908      	cbnz	r0, 2fff2d96 <stm32mp_skip_boot_device_after_standby+0x1e>
2fff2d92:	2300      	movs	r3, #0
2fff2d94:	6023      	str	r3, [r4, #0]
2fff2d96:	6820      	ldr	r0, [r4, #0]
2fff2d98:	1e43      	subs	r3, r0, #1
2fff2d9a:	4258      	negs	r0, r3
2fff2d9c:	4158      	adcs	r0, r3
2fff2d9e:	bd10      	pop	{r4, pc}
2fff2da0:	2fffa5bc 	.word	0x2fffa5bc

2fff2da4 <stm32mp_bkpram_get_access>:
2fff2da4:	4a06      	ldr	r2, [pc, #24]	@ (2fff2dc0 <stm32mp_bkpram_get_access+0x1c>)
2fff2da6:	2001      	movs	r0, #1
2fff2da8:	6853      	ldr	r3, [r2, #4]
2fff2daa:	6b11      	ldr	r1, [r2, #48]	@ 0x30
2fff2dac:	43db      	mvns	r3, r3
2fff2dae:	f003 0307 	and.w	r3, r3, #7
2fff2db2:	f443 031f 	orr.w	r3, r3, #10420224	@ 0x9f0000
2fff2db6:	400b      	ands	r3, r1
2fff2db8:	bf18      	it	ne
2fff2dba:	63d3      	strne	r3, [r2, #60]	@ 0x3c
2fff2dbc:	4770      	bx	lr
2fff2dbe:	bf00      	nop
2fff2dc0:	5c00a000 	.word	0x5c00a000

2fff2dc4 <stm32mp_syscfg_enable_io_compensation_start>:
2fff2dc4:	b508      	push	{r3, lr}
2fff2dc6:	2033      	movs	r0, #51	@ 0x33
2fff2dc8:	f7f7 fbf8 	bl	2ffea5bc <clk_enable>
2fff2dcc:	4a02      	ldr	r2, [pc, #8]	@ (2fff2dd8 <stm32mp_syscfg_enable_io_compensation_start+0x14>)
2fff2dce:	6a53      	ldr	r3, [r2, #36]	@ 0x24
2fff2dd0:	f043 0301 	orr.w	r3, r3, #1
2fff2dd4:	6253      	str	r3, [r2, #36]	@ 0x24
2fff2dd6:	bd08      	pop	{r3, pc}
2fff2dd8:	50020000 	.word	0x50020000

2fff2ddc <stm32mp_syscfg_init>:
2fff2ddc:	b537      	push	{r0, r1, r2, r4, r5, lr}
2fff2dde:	f44f 7300 	mov.w	r3, #512	@ 0x200
2fff2de2:	4c19      	ldr	r4, [pc, #100]	@ (2fff2e48 <stm32mp_syscfg_init+0x6c>)
2fff2de4:	a901      	add	r1, sp, #4
2fff2de6:	4819      	ldr	r0, [pc, #100]	@ (2fff2e4c <stm32mp_syscfg_init+0x70>)
2fff2de8:	61e3      	str	r3, [r4, #28]
2fff2dea:	6822      	ldr	r2, [r4, #0]
2fff2dec:	6823      	ldr	r3, [r4, #0]
2fff2dee:	f362 1306 	bfi	r3, r2, #4, #3
2fff2df2:	6023      	str	r3, [r4, #0]
2fff2df4:	f7fe fc3a 	bl	2fff166c <stm32_get_otp_value>
2fff2df8:	b118      	cbz	r0, 2fff2e02 <stm32mp_syscfg_init+0x26>
2fff2dfa:	f7f7 fcad 	bl	2ffea758 <console_flush>
2fff2dfe:	f7f6 ea3a 	blx	2ffe9274 <el3_panic>
2fff2e02:	9d01      	ldr	r5, [sp, #4]
2fff2e04:	f001 fc0f 	bl	2fff4626 <dt_get_pwr_vdd_voltage>
2fff2e08:	b938      	cbnz	r0, 2fff2e1a <stm32mp_syscfg_init+0x3e>
2fff2e0a:	4811      	ldr	r0, [pc, #68]	@ (2fff2e50 <stm32mp_syscfg_init+0x74>)
2fff2e0c:	f7f7 fa0e 	bl	2ffea22c <tf_log>
2fff2e10:	b003      	add	sp, #12
2fff2e12:	e8bd 4030 	ldmia.w	sp!, {r4, r5, lr}
2fff2e16:	f7ff bfd5 	b.w	2fff2dc4 <stm32mp_syscfg_enable_io_compensation_start>
2fff2e1a:	4a0e      	ldr	r2, [pc, #56]	@ (2fff2e54 <stm32mp_syscfg_init+0x78>)
2fff2e1c:	f405 5500 	and.w	r5, r5, #8192	@ 0x2000
2fff2e20:	4290      	cmp	r0, r2
2fff2e22:	d205      	bcs.n	2fff2e30 <stm32mp_syscfg_init+0x54>
2fff2e24:	221f      	movs	r2, #31
2fff2e26:	61a2      	str	r2, [r4, #24]
2fff2e28:	2d00      	cmp	r5, #0
2fff2e2a:	d1f1      	bne.n	2fff2e10 <stm32mp_syscfg_init+0x34>
2fff2e2c:	480a      	ldr	r0, [pc, #40]	@ (2fff2e58 <stm32mp_syscfg_init+0x7c>)
2fff2e2e:	e7ed      	b.n	2fff2e0c <stm32mp_syscfg_init+0x30>
2fff2e30:	2d00      	cmp	r5, #0
2fff2e32:	d0ed      	beq.n	2fff2e10 <stm32mp_syscfg_init+0x34>
2fff2e34:	4809      	ldr	r0, [pc, #36]	@ (2fff2e5c <stm32mp_syscfg_init+0x80>)
2fff2e36:	f7f7 f9f9 	bl	2ffea22c <tf_log>
2fff2e3a:	4809      	ldr	r0, [pc, #36]	@ (2fff2e60 <stm32mp_syscfg_init+0x84>)
2fff2e3c:	f7f7 f9f6 	bl	2ffea22c <tf_log>
2fff2e40:	4808      	ldr	r0, [pc, #32]	@ (2fff2e64 <stm32mp_syscfg_init+0x88>)
2fff2e42:	f7f7 f9f3 	bl	2ffea22c <tf_log>
2fff2e46:	e7d8      	b.n	2fff2dfa <stm32mp_syscfg_init+0x1e>
2fff2e48:	50020000 	.word	0x50020000
2fff2e4c:	2fff8de9 	.word	0x2fff8de9
2fff2e50:	2fff8e01 	.word	0x2fff8e01
2fff2e54:	002932e0 	.word	0x002932e0
2fff2e58:	2fff8e0f 	.word	0x2fff8e0f
2fff2e5c:	2fff8e3d 	.word	0x2fff8e3d
2fff2e60:	2fff8e54 	.word	0x2fff8e54
2fff2e64:	2fff8e75 	.word	0x2fff8e75

2fff2e68 <stm32mp_syscfg_enable_io_compensation_finish>:
2fff2e68:	b570      	push	{r4, r5, r6, lr}
2fff2e6a:	ee1e 1f10 	mrc	15, 0, r1, cr14, cr0, {0}
2fff2e6e:	ec56 5f0e 	mrrc	15, 0, r5, r6, cr14
2fff2e72:	4a0e      	ldr	r2, [pc, #56]	@ (2fff2eac <stm32mp_syscfg_enable_io_compensation_finish+0x44>)
2fff2e74:	f242 7010 	movw	r0, #10000	@ 0x2710
2fff2e78:	4c0d      	ldr	r4, [pc, #52]	@ (2fff2eb0 <stm32mp_syscfg_enable_io_compensation_finish+0x48>)
2fff2e7a:	2300      	movs	r3, #0
2fff2e7c:	fba1 0100 	umull	r0, r1, r1, r0
2fff2e80:	f000 e81a 	blx	2fff2eb8 <__aeabi_uldivmod>
2fff2e84:	1940      	adds	r0, r0, r5
2fff2e86:	eb41 0106 	adc.w	r1, r1, r6
2fff2e8a:	6a23      	ldr	r3, [r4, #32]
2fff2e8c:	05db      	lsls	r3, r3, #23
2fff2e8e:	d408      	bmi.n	2fff2ea2 <stm32mp_syscfg_enable_io_compensation_finish+0x3a>
2fff2e90:	ec53 2f0e 	mrrc	15, 0, r2, r3, cr14
2fff2e94:	4290      	cmp	r0, r2
2fff2e96:	eb71 0303 	sbcs.w	r3, r1, r3
2fff2e9a:	d2f6      	bcs.n	2fff2e8a <stm32mp_syscfg_enable_io_compensation_finish+0x22>
2fff2e9c:	4805      	ldr	r0, [pc, #20]	@ (2fff2eb4 <stm32mp_syscfg_enable_io_compensation_finish+0x4c>)
2fff2e9e:	f7f7 f9c5 	bl	2ffea22c <tf_log>
2fff2ea2:	6a23      	ldr	r3, [r4, #32]
2fff2ea4:	f023 0302 	bic.w	r3, r3, #2
2fff2ea8:	6223      	str	r3, [r4, #32]
2fff2eaa:	bd70      	pop	{r4, r5, r6, pc}
2fff2eac:	000f4240 	.word	0x000f4240
2fff2eb0:	50020000 	.word	0x50020000
2fff2eb4:	2fff8e90 	.word	0x2fff8e90

2fff2eb8 <__aeabi_uldivmod>:
2fff2eb8:	e92d4040 	push	{r6, lr}
2fff2ebc:	e24dd010 	sub	sp, sp, #16
2fff2ec0:	e28d6008 	add	r6, sp, #8
2fff2ec4:	e58d6000 	str	r6, [sp]
2fff2ec8:	fa0004c2 	blx	2fff41d8 <__udivmoddi4>
2fff2ecc:	e59d2008 	ldr	r2, [sp, #8]
2fff2ed0:	e59d300c 	ldr	r3, [sp, #12]
2fff2ed4:	e28dd010 	add	sp, sp, #16
2fff2ed8:	e8bd8040 	pop	{r6, pc}

2fff2edc <fdt_ro_probe_>:
2fff2edc:	b510      	push	{r4, lr}
2fff2ede:	4604      	mov	r4, r0
2fff2ee0:	3004      	adds	r0, #4
2fff2ee2:	f001 fc29 	bl	2fff4738 <fdt32_ld>
2fff2ee6:	0763      	lsls	r3, r4, #29
2fff2ee8:	4601      	mov	r1, r0
2fff2eea:	d124      	bne.n	2fff2f36 <fdt_ro_probe_+0x5a>
2fff2eec:	4620      	mov	r0, r4
2fff2eee:	f001 fc23 	bl	2fff4738 <fdt32_ld>
2fff2ef2:	4b15      	ldr	r3, [pc, #84]	@ (2fff2f48 <fdt_ro_probe_+0x6c>)
2fff2ef4:	4298      	cmp	r0, r3
2fff2ef6:	d10e      	bne.n	2fff2f16 <fdt_ro_probe_+0x3a>
2fff2ef8:	f104 0014 	add.w	r0, r4, #20
2fff2efc:	f001 fc1c 	bl	2fff4738 <fdt32_ld>
2fff2f00:	2801      	cmp	r0, #1
2fff2f02:	d905      	bls.n	2fff2f10 <fdt_ro_probe_+0x34>
2fff2f04:	f104 0018 	add.w	r0, r4, #24
2fff2f08:	f001 fc16 	bl	2fff4738 <fdt32_ld>
2fff2f0c:	2811      	cmp	r0, #17
2fff2f0e:	d90a      	bls.n	2fff2f26 <fdt_ro_probe_+0x4a>
2fff2f10:	f06f 0009 	mvn.w	r0, #9
2fff2f14:	e00e      	b.n	2fff2f34 <fdt_ro_probe_+0x58>
2fff2f16:	4b0d      	ldr	r3, [pc, #52]	@ (2fff2f4c <fdt_ro_probe_+0x70>)
2fff2f18:	4298      	cmp	r0, r3
2fff2f1a:	d10f      	bne.n	2fff2f3c <fdt_ro_probe_+0x60>
2fff2f1c:	f104 0024 	add.w	r0, r4, #36	@ 0x24
2fff2f20:	f001 fc0a 	bl	2fff4738 <fdt32_ld>
2fff2f24:	b168      	cbz	r0, 2fff2f42 <fdt_ro_probe_+0x66>
2fff2f26:	f06f 4300 	mvn.w	r3, #2147483648	@ 0x80000000
2fff2f2a:	4299      	cmp	r1, r3
2fff2f2c:	bf34      	ite	cc
2fff2f2e:	4608      	movcc	r0, r1
2fff2f30:	f06f 0007 	mvncs.w	r0, #7
2fff2f34:	bd10      	pop	{r4, pc}
2fff2f36:	f06f 0012 	mvn.w	r0, #18
2fff2f3a:	e7fb      	b.n	2fff2f34 <fdt_ro_probe_+0x58>
2fff2f3c:	f06f 0008 	mvn.w	r0, #8
2fff2f40:	e7f8      	b.n	2fff2f34 <fdt_ro_probe_+0x58>
2fff2f42:	f06f 0006 	mvn.w	r0, #6
2fff2f46:	e7f5      	b.n	2fff2f34 <fdt_ro_probe_+0x58>
2fff2f48:	d00dfeed 	.word	0xd00dfeed
2fff2f4c:	2ff20112 	.word	0x2ff20112

2fff2f50 <fdt_check_header>:
2fff2f50:	0743      	lsls	r3, r0, #29
2fff2f52:	4601      	mov	r1, r0
2fff2f54:	b570      	push	{r4, r5, r6, lr}
2fff2f56:	d155      	bne.n	2fff3004 <fdt_check_header+0xb4>
2fff2f58:	f001 fbee 	bl	2fff4738 <fdt32_ld>
2fff2f5c:	4b2f      	ldr	r3, [pc, #188]	@ (2fff301c <fdt_check_header+0xcc>)
2fff2f5e:	4298      	cmp	r0, r3
2fff2f60:	d153      	bne.n	2fff300a <fdt_check_header+0xba>
2fff2f62:	f101 0014 	add.w	r0, r1, #20
2fff2f66:	f001 fbe7 	bl	2fff4738 <fdt32_ld>
2fff2f6a:	2801      	cmp	r0, #1
2fff2f6c:	4605      	mov	r5, r0
2fff2f6e:	d94f      	bls.n	2fff3010 <fdt_check_header+0xc0>
2fff2f70:	f101 0018 	add.w	r0, r1, #24
2fff2f74:	f001 fbe0 	bl	2fff4738 <fdt32_ld>
2fff2f78:	2811      	cmp	r0, #17
2fff2f7a:	d849      	bhi.n	2fff3010 <fdt_check_header+0xc0>
2fff2f7c:	4285      	cmp	r5, r0
2fff2f7e:	d347      	bcc.n	2fff3010 <fdt_check_header+0xc0>
2fff2f80:	4608      	mov	r0, r1
2fff2f82:	f001 fbf2 	bl	2fff476a <fdt_header_size>
2fff2f86:	4606      	mov	r6, r0
2fff2f88:	1d08      	adds	r0, r1, #4
2fff2f8a:	f001 fbd5 	bl	2fff4738 <fdt32_ld>
2fff2f8e:	42b0      	cmp	r0, r6
2fff2f90:	4604      	mov	r4, r0
2fff2f92:	d340      	bcc.n	2fff3016 <fdt_check_header+0xc6>
2fff2f94:	2800      	cmp	r0, #0
2fff2f96:	db3e      	blt.n	2fff3016 <fdt_check_header+0xc6>
2fff2f98:	f101 0010 	add.w	r0, r1, #16
2fff2f9c:	f001 fbcc 	bl	2fff4738 <fdt32_ld>
2fff2fa0:	42b0      	cmp	r0, r6
2fff2fa2:	d338      	bcc.n	2fff3016 <fdt_check_header+0xc6>
2fff2fa4:	4284      	cmp	r4, r0
2fff2fa6:	d336      	bcc.n	2fff3016 <fdt_check_header+0xc6>
2fff2fa8:	2d10      	cmp	r5, #16
2fff2faa:	f101 0008 	add.w	r0, r1, #8
2fff2fae:	d81a      	bhi.n	2fff2fe6 <fdt_check_header+0x96>
2fff2fb0:	f001 fbc2 	bl	2fff4738 <fdt32_ld>
2fff2fb4:	42b0      	cmp	r0, r6
2fff2fb6:	d32e      	bcc.n	2fff3016 <fdt_check_header+0xc6>
2fff2fb8:	4284      	cmp	r4, r0
2fff2fba:	d32c      	bcc.n	2fff3016 <fdt_check_header+0xc6>
2fff2fbc:	f101 000c 	add.w	r0, r1, #12
2fff2fc0:	f001 fbba 	bl	2fff4738 <fdt32_ld>
2fff2fc4:	42b0      	cmp	r0, r6
2fff2fc6:	4605      	mov	r5, r0
2fff2fc8:	d325      	bcc.n	2fff3016 <fdt_check_header+0xc6>
2fff2fca:	4284      	cmp	r4, r0
2fff2fcc:	d323      	bcc.n	2fff3016 <fdt_check_header+0xc6>
2fff2fce:	f101 0020 	add.w	r0, r1, #32
2fff2fd2:	f001 fbb1 	bl	2fff4738 <fdt32_ld>
2fff2fd6:	182d      	adds	r5, r5, r0
2fff2fd8:	d21d      	bcs.n	2fff3016 <fdt_check_header+0xc6>
2fff2fda:	42ac      	cmp	r4, r5
2fff2fdc:	bf2c      	ite	cs
2fff2fde:	2000      	movcs	r0, #0
2fff2fe0:	f06f 0007 	mvncc.w	r0, #7
2fff2fe4:	bd70      	pop	{r4, r5, r6, pc}
2fff2fe6:	f001 fba7 	bl	2fff4738 <fdt32_ld>
2fff2fea:	42b0      	cmp	r0, r6
2fff2fec:	4605      	mov	r5, r0
2fff2fee:	d312      	bcc.n	2fff3016 <fdt_check_header+0xc6>
2fff2ff0:	4284      	cmp	r4, r0
2fff2ff2:	d310      	bcc.n	2fff3016 <fdt_check_header+0xc6>
2fff2ff4:	f101 0024 	add.w	r0, r1, #36	@ 0x24
2fff2ff8:	f001 fb9e 	bl	2fff4738 <fdt32_ld>
2fff2ffc:	182d      	adds	r5, r5, r0
2fff2ffe:	d20a      	bcs.n	2fff3016 <fdt_check_header+0xc6>
2fff3000:	42ac      	cmp	r4, r5
2fff3002:	e7da      	b.n	2fff2fba <fdt_check_header+0x6a>
2fff3004:	f06f 0012 	mvn.w	r0, #18
2fff3008:	e7ec      	b.n	2fff2fe4 <fdt_check_header+0x94>
2fff300a:	f06f 0008 	mvn.w	r0, #8
2fff300e:	e7e9      	b.n	2fff2fe4 <fdt_check_header+0x94>
2fff3010:	f06f 0009 	mvn.w	r0, #9
2fff3014:	e7e6      	b.n	2fff2fe4 <fdt_check_header+0x94>
2fff3016:	f06f 0007 	mvn.w	r0, #7
2fff301a:	e7e3      	b.n	2fff2fe4 <fdt_check_header+0x94>
2fff301c:	d00dfeed 	.word	0xd00dfeed

2fff3020 <fdt_address_cells>:
2fff3020:	b508      	push	{r3, lr}
2fff3022:	4a05      	ldr	r2, [pc, #20]	@ (2fff3038 <fdt_address_cells+0x18>)
2fff3024:	f001 fcb4 	bl	2fff4990 <fdt_cells>
2fff3028:	b118      	cbz	r0, 2fff3032 <fdt_address_cells+0x12>
2fff302a:	1c43      	adds	r3, r0, #1
2fff302c:	bf08      	it	eq
2fff302e:	2002      	moveq	r0, #2
2fff3030:	bd08      	pop	{r3, pc}
2fff3032:	f06f 000d 	mvn.w	r0, #13
2fff3036:	e7fb      	b.n	2fff3030 <fdt_address_cells+0x10>
2fff3038:	2fff8eb1 	.word	0x2fff8eb1

2fff303c <fdt_size_cells>:
2fff303c:	b508      	push	{r3, lr}
2fff303e:	4a03      	ldr	r2, [pc, #12]	@ (2fff304c <fdt_size_cells+0x10>)
2fff3040:	f001 fca6 	bl	2fff4990 <fdt_cells>
2fff3044:	1c43      	adds	r3, r0, #1
2fff3046:	bf08      	it	eq
2fff3048:	2001      	moveq	r0, #1
2fff304a:	bd08      	pop	{r3, pc}
2fff304c:	2fff8ec0 	.word	0x2fff8ec0

2fff3050 <fdt_get_string>:
2fff3050:	e92d 41f0 	stmdb	sp!, {r4, r5, r6, r7, r8, lr}
2fff3054:	4605      	mov	r5, r0
2fff3056:	460e      	mov	r6, r1
2fff3058:	4617      	mov	r7, r2
2fff305a:	f7ff ff3f 	bl	2fff2edc <fdt_ro_probe_>
2fff305e:	1e04      	subs	r4, r0, #0
2fff3060:	db3f      	blt.n	2fff30e2 <fdt_get_string+0x92>
2fff3062:	f105 000c 	add.w	r0, r5, #12
2fff3066:	f001 fca8 	bl	2fff49ba <fdt32_ld>
2fff306a:	1981      	adds	r1, r0, r6
2fff306c:	428c      	cmp	r4, r1
2fff306e:	d93b      	bls.n	2fff30e8 <fdt_get_string+0x98>
2fff3070:	1a64      	subs	r4, r4, r1
2fff3072:	4628      	mov	r0, r5
2fff3074:	f001 fca1 	bl	2fff49ba <fdt32_ld>
2fff3078:	4b1f      	ldr	r3, [pc, #124]	@ (2fff30f8 <fdt_get_string+0xa8>)
2fff307a:	4298      	cmp	r0, r3
2fff307c:	d11e      	bne.n	2fff30bc <fdt_get_string+0x6c>
2fff307e:	2e00      	cmp	r6, #0
2fff3080:	db32      	blt.n	2fff30e8 <fdt_get_string+0x98>
2fff3082:	f105 0014 	add.w	r0, r5, #20
2fff3086:	f001 fc98 	bl	2fff49ba <fdt32_ld>
2fff308a:	2810      	cmp	r0, #16
2fff308c:	d909      	bls.n	2fff30a2 <fdt_get_string+0x52>
2fff308e:	f105 0020 	add.w	r0, r5, #32
2fff3092:	f001 fc92 	bl	2fff49ba <fdt32_ld>
2fff3096:	4286      	cmp	r6, r0
2fff3098:	d226      	bcs.n	2fff30e8 <fdt_get_string+0x98>
2fff309a:	1b80      	subs	r0, r0, r6
2fff309c:	4284      	cmp	r4, r0
2fff309e:	bf28      	it	cs
2fff30a0:	4604      	movcs	r4, r0
2fff30a2:	440d      	add	r5, r1
2fff30a4:	4622      	mov	r2, r4
2fff30a6:	2100      	movs	r1, #0
2fff30a8:	4628      	mov	r0, r5
2fff30aa:	f001 ff0a 	bl	2fff4ec2 <memchr>
2fff30ae:	b1f0      	cbz	r0, 2fff30ee <fdt_get_string+0x9e>
2fff30b0:	b10f      	cbz	r7, 2fff30b6 <fdt_get_string+0x66>
2fff30b2:	1b40      	subs	r0, r0, r5
2fff30b4:	6038      	str	r0, [r7, #0]
2fff30b6:	4628      	mov	r0, r5
2fff30b8:	e8bd 81f0 	ldmia.w	sp!, {r4, r5, r6, r7, r8, pc}
2fff30bc:	4b0f      	ldr	r3, [pc, #60]	@ (2fff30fc <fdt_get_string+0xac>)
2fff30be:	4298      	cmp	r0, r3
2fff30c0:	d10d      	bne.n	2fff30de <fdt_get_string+0x8e>
2fff30c2:	2e00      	cmp	r6, #0
2fff30c4:	f1c6 0800 	rsb	r8, r6, #0
2fff30c8:	da0e      	bge.n	2fff30e8 <fdt_get_string+0x98>
2fff30ca:	f105 0020 	add.w	r0, r5, #32
2fff30ce:	f001 fc74 	bl	2fff49ba <fdt32_ld>
2fff30d2:	4540      	cmp	r0, r8
2fff30d4:	d308      	bcc.n	2fff30e8 <fdt_get_string+0x98>
2fff30d6:	4544      	cmp	r4, r8
2fff30d8:	bf28      	it	cs
2fff30da:	4644      	movcs	r4, r8
2fff30dc:	e7e1      	b.n	2fff30a2 <fdt_get_string+0x52>
2fff30de:	f06f 040c 	mvn.w	r4, #12
2fff30e2:	b93f      	cbnz	r7, 2fff30f4 <fdt_get_string+0xa4>
2fff30e4:	2500      	movs	r5, #0
2fff30e6:	e7e6      	b.n	2fff30b6 <fdt_get_string+0x66>
2fff30e8:	f06f 0403 	mvn.w	r4, #3
2fff30ec:	e7f9      	b.n	2fff30e2 <fdt_get_string+0x92>
2fff30ee:	f06f 0407 	mvn.w	r4, #7
2fff30f2:	e7f6      	b.n	2fff30e2 <fdt_get_string+0x92>
2fff30f4:	603c      	str	r4, [r7, #0]
2fff30f6:	e7f5      	b.n	2fff30e4 <fdt_get_string+0x94>
2fff30f8:	d00dfeed 	.word	0xd00dfeed
2fff30fc:	2ff20112 	.word	0x2ff20112

2fff3100 <fdt_get_phandle>:
2fff3100:	b537      	push	{r0, r1, r2, r4, r5, lr}
2fff3102:	ab01      	add	r3, sp, #4
2fff3104:	4a0d      	ldr	r2, [pc, #52]	@ (2fff313c <fdt_get_phandle+0x3c>)
2fff3106:	4604      	mov	r4, r0
2fff3108:	460d      	mov	r5, r1
2fff310a:	f001 fd8a 	bl	2fff4c22 <fdt_getprop>
2fff310e:	b110      	cbz	r0, 2fff3116 <fdt_get_phandle+0x16>
2fff3110:	9b01      	ldr	r3, [sp, #4]
2fff3112:	2b04      	cmp	r3, #4
2fff3114:	d009      	beq.n	2fff312a <fdt_get_phandle+0x2a>
2fff3116:	4a0a      	ldr	r2, [pc, #40]	@ (2fff3140 <fdt_get_phandle+0x40>)
2fff3118:	ab01      	add	r3, sp, #4
2fff311a:	4629      	mov	r1, r5
2fff311c:	4620      	mov	r0, r4
2fff311e:	f001 fd80 	bl	2fff4c22 <fdt_getprop>
2fff3122:	b140      	cbz	r0, 2fff3136 <fdt_get_phandle+0x36>
2fff3124:	9b01      	ldr	r3, [sp, #4]
2fff3126:	2b04      	cmp	r3, #4
2fff3128:	d105      	bne.n	2fff3136 <fdt_get_phandle+0x36>
2fff312a:	6800      	ldr	r0, [r0, #0]
2fff312c:	b003      	add	sp, #12
2fff312e:	e8bd 4030 	ldmia.w	sp!, {r4, r5, lr}
2fff3132:	f001 bc67 	b.w	2fff4a04 <fdt32_ld_.isra.0>
2fff3136:	2000      	movs	r0, #0
2fff3138:	b003      	add	sp, #12
2fff313a:	bd30      	pop	{r4, r5, pc}
2fff313c:	2fff8ed2 	.word	0x2fff8ed2
2fff3140:	2fff8ecc 	.word	0x2fff8ecc

2fff3144 <fdt_get_alias_namelen>:
2fff3144:	b573      	push	{r0, r1, r4, r5, r6, lr}
2fff3146:	460d      	mov	r5, r1
2fff3148:	4908      	ldr	r1, [pc, #32]	@ (2fff316c <fdt_get_alias_namelen+0x28>)
2fff314a:	4604      	mov	r4, r0
2fff314c:	4616      	mov	r6, r2
2fff314e:	f001 fdc3 	bl	2fff4cd8 <fdt_path_offset>
2fff3152:	1e01      	subs	r1, r0, #0
2fff3154:	f04f 0000 	mov.w	r0, #0
2fff3158:	db05      	blt.n	2fff3166 <fdt_get_alias_namelen+0x22>
2fff315a:	9000      	str	r0, [sp, #0]
2fff315c:	4633      	mov	r3, r6
2fff315e:	462a      	mov	r2, r5
2fff3160:	4620      	mov	r0, r4
2fff3162:	f001 fd3e 	bl	2fff4be2 <fdt_getprop_namelen>
2fff3166:	b002      	add	sp, #8
2fff3168:	bd70      	pop	{r4, r5, r6, pc}
2fff316a:	bf00      	nop
2fff316c:	2fff8eda 	.word	0x2fff8eda

2fff3170 <fdt_node_check_compatible>:
2fff3170:	b513      	push	{r0, r1, r4, lr}
2fff3172:	4614      	mov	r4, r2
2fff3174:	4a07      	ldr	r2, [pc, #28]	@ (2fff3194 <fdt_node_check_compatible+0x24>)
2fff3176:	ab01      	add	r3, sp, #4
2fff3178:	f001 fd53 	bl	2fff4c22 <fdt_getprop>
2fff317c:	b910      	cbnz	r0, 2fff3184 <fdt_node_check_compatible+0x14>
2fff317e:	9801      	ldr	r0, [sp, #4]
2fff3180:	b002      	add	sp, #8
2fff3182:	bd10      	pop	{r4, pc}
2fff3184:	9901      	ldr	r1, [sp, #4]
2fff3186:	4622      	mov	r2, r4
2fff3188:	f001 fe2a 	bl	2fff4de0 <fdt_stringlist_contains>
2fff318c:	fab0 f080 	clz	r0, r0
2fff3190:	0940      	lsrs	r0, r0, #5
2fff3192:	e7f5      	b.n	2fff3180 <fdt_node_check_compatible+0x10>
2fff3194:	2fff8ee3 	.word	0x2fff8ee3

2fff3198 <__assert>:
2fff3198:	460a      	mov	r2, r1
2fff319a:	4601      	mov	r1, r0
2fff319c:	b508      	push	{r3, lr}
2fff319e:	4803      	ldr	r0, [pc, #12]	@ (2fff31ac <__assert+0x14>)
2fff31a0:	f001 ff36 	bl	2fff5010 <printf>
2fff31a4:	f7f7 fad8 	bl	2ffea758 <console_flush>
2fff31a8:	f7f6 ec84 	blx	2ffe9ab4 <plat_panic_handler>
2fff31ac:	2fff8eee 	.word	0x2fff8eee

2fff31b0 <vprintf>:
2fff31b0:	e92d 4ff7 	stmdb	sp!, {r0, r1, r2, r4, r5, r6, r7, r8, r9, sl, fp, lr}
2fff31b4:	2500      	movs	r5, #0
2fff31b6:	4606      	mov	r6, r0
2fff31b8:	460c      	mov	r4, r1
2fff31ba:	46a8      	mov	r8, r5
2fff31bc:	7830      	ldrb	r0, [r6, #0]
2fff31be:	b918      	cbnz	r0, 2fff31c8 <vprintf+0x18>
2fff31c0:	4628      	mov	r0, r5
2fff31c2:	b003      	add	sp, #12
2fff31c4:	e8bd 8ff0 	ldmia.w	sp!, {r4, r5, r6, r7, r8, r9, sl, fp, pc}
2fff31c8:	2825      	cmp	r0, #37	@ 0x25
2fff31ca:	f106 0601 	add.w	r6, r6, #1
2fff31ce:	f040 80c9 	bne.w	2fff3364 <vprintf+0x1b4>
2fff31d2:	f04f 0a00 	mov.w	sl, #0
2fff31d6:	4653      	mov	r3, sl
2fff31d8:	e08d      	b.n	2fff32f6 <vprintf+0x146>
2fff31da:	3863      	subs	r0, #99	@ 0x63
2fff31dc:	2817      	cmp	r0, #23
2fff31de:	f200 8097 	bhi.w	2fff3310 <vprintf+0x160>
2fff31e2:	e8df f000 	tbb	[pc, r0]
2fff31e6:	1036      	.short	0x1036
2fff31e8:	95959595 	.word	0x95959595
2fff31ec:	84959510 	.word	0x84959510
2fff31f0:	50959595 	.word	0x50959595
2fff31f4:	953c9595 	.word	0x953c9595
2fff31f8:	82959598 	.word	0x82959598
2fff31fc:	8595      	.short	0x8595
2fff31fe:	f000 fa96 	bl	2fff372e <putchar>
2fff3202:	3601      	adds	r6, #1
2fff3204:	e7da      	b.n	2fff31bc <vprintf+0xc>
2fff3206:	2b01      	cmp	r3, #1
2fff3208:	bfcb      	itete	gt
2fff320a:	3407      	addgt	r4, #7
2fff320c:	f104 0904 	addle.w	r9, r4, #4
2fff3210:	f024 0407 	bicgt.w	r4, r4, #7
2fff3214:	6827      	ldrle	r7, [r4, #0]
2fff3216:	bfc5      	ittet	gt
2fff3218:	46a1      	movgt	r9, r4
2fff321a:	6864      	ldrgt	r4, [r4, #4]
2fff321c:	17fc      	asrle	r4, r7, #31
2fff321e:	f859 7b08 	ldrgt.w	r7, [r9], #8
2fff3222:	2c00      	cmp	r4, #0
2fff3224:	da12      	bge.n	2fff324c <vprintf+0x9c>
2fff3226:	202d      	movs	r0, #45	@ 0x2d
2fff3228:	f10a 3aff 	add.w	sl, sl, #4294967295	@ 0xffffffff
2fff322c:	f000 fa7f 	bl	2fff372e <putchar>
2fff3230:	4278      	negs	r0, r7
2fff3232:	eb64 0144 	sbc.w	r1, r4, r4, lsl #1
2fff3236:	f8cd a000 	str.w	sl, [sp]
2fff323a:	2300      	movs	r3, #0
2fff323c:	9301      	str	r3, [sp, #4]
2fff323e:	220a      	movs	r2, #10
2fff3240:	4643      	mov	r3, r8
2fff3242:	464c      	mov	r4, r9
2fff3244:	f001 fe9b 	bl	2fff4f7e <unsigned_num_print.part.0>
2fff3248:	4405      	add	r5, r0
2fff324a:	e7da      	b.n	2fff3202 <vprintf+0x52>
2fff324c:	4638      	mov	r0, r7
2fff324e:	4621      	mov	r1, r4
2fff3250:	e7f1      	b.n	2fff3236 <vprintf+0x86>
2fff3252:	f854 0b04 	ldr.w	r0, [r4], #4
2fff3256:	3501      	adds	r5, #1
2fff3258:	f000 fa69 	bl	2fff372e <putchar>
2fff325c:	e7d1      	b.n	2fff3202 <vprintf+0x52>
2fff325e:	f854 9b04 	ldr.w	r9, [r4], #4
2fff3262:	f1b9 0f00 	cmp.w	r9, #0
2fff3266:	d10c      	bne.n	2fff3282 <vprintf+0xd2>
2fff3268:	4840      	ldr	r0, [pc, #256]	@ (2fff336c <vprintf+0x1bc>)
2fff326a:	211c      	movs	r1, #28
2fff326c:	f7ff ff94 	bl	2fff3198 <__assert>
2fff3270:	3701      	adds	r7, #1
2fff3272:	f000 fa5c 	bl	2fff372e <putchar>
2fff3276:	f819 0007 	ldrb.w	r0, [r9, r7]
2fff327a:	2800      	cmp	r0, #0
2fff327c:	d1f8      	bne.n	2fff3270 <vprintf+0xc0>
2fff327e:	443d      	add	r5, r7
2fff3280:	e7bf      	b.n	2fff3202 <vprintf+0x52>
2fff3282:	2700      	movs	r7, #0
2fff3284:	e7f7      	b.n	2fff3276 <vprintf+0xc6>
2fff3286:	f854 9b04 	ldr.w	r9, [r4], #4
2fff328a:	f1b9 0f00 	cmp.w	r9, #0
2fff328e:	d008      	beq.n	2fff32a2 <vprintf+0xf2>
2fff3290:	f8df b0dc 	ldr.w	fp, [pc, #220]	@ 2fff3370 <vprintf+0x1c0>
2fff3294:	2700      	movs	r7, #0
2fff3296:	f81b 0b01 	ldrb.w	r0, [fp], #1
2fff329a:	b968      	cbnz	r0, 2fff32b8 <vprintf+0x108>
2fff329c:	443d      	add	r5, r7
2fff329e:	f1aa 0a02 	sub.w	sl, sl, #2
2fff32a2:	f8cd a000 	str.w	sl, [sp]
2fff32a6:	4643      	mov	r3, r8
2fff32a8:	2210      	movs	r2, #16
2fff32aa:	4648      	mov	r0, r9
2fff32ac:	2100      	movs	r1, #0
2fff32ae:	9101      	str	r1, [sp, #4]
2fff32b0:	f001 fe65 	bl	2fff4f7e <unsigned_num_print.part.0>
2fff32b4:	4405      	add	r5, r0
2fff32b6:	e7a4      	b.n	2fff3202 <vprintf+0x52>
2fff32b8:	3701      	adds	r7, #1
2fff32ba:	f000 fa38 	bl	2fff372e <putchar>
2fff32be:	e7ea      	b.n	2fff3296 <vprintf+0xe6>
2fff32c0:	2201      	movs	r2, #1
2fff32c2:	2b01      	cmp	r3, #1
2fff32c4:	bfcb      	itete	gt
2fff32c6:	1de3      	addgt	r3, r4, #7
2fff32c8:	2100      	movle	r1, #0
2fff32ca:	f023 0307 	bicgt.w	r3, r3, #7
2fff32ce:	f854 0b04 	ldrle.w	r0, [r4], #4
2fff32d2:	bfc4      	itt	gt
2fff32d4:	461c      	movgt	r4, r3
2fff32d6:	6859      	ldrgt	r1, [r3, #4]
2fff32d8:	4643      	mov	r3, r8
2fff32da:	bfc8      	it	gt
2fff32dc:	f854 0b08 	ldrgt.w	r0, [r4], #8
2fff32e0:	9201      	str	r2, [sp, #4]
2fff32e2:	2210      	movs	r2, #16
2fff32e4:	f8cd a000 	str.w	sl, [sp]
2fff32e8:	e7e2      	b.n	2fff32b0 <vprintf+0x100>
2fff32ea:	2200      	movs	r2, #0
2fff32ec:	e7e9      	b.n	2fff32c2 <vprintf+0x112>
2fff32ee:	3301      	adds	r3, #1
2fff32f0:	3601      	adds	r6, #1
2fff32f2:	4640      	mov	r0, r8
2fff32f4:	4680      	mov	r8, r0
2fff32f6:	7830      	ldrb	r0, [r6, #0]
2fff32f8:	287a      	cmp	r0, #122	@ 0x7a
2fff32fa:	d809      	bhi.n	2fff3310 <vprintf+0x160>
2fff32fc:	2862      	cmp	r0, #98	@ 0x62
2fff32fe:	f63f af6c 	bhi.w	2fff31da <vprintf+0x2a>
2fff3302:	2830      	cmp	r0, #48	@ 0x30
2fff3304:	d01e      	beq.n	2fff3344 <vprintf+0x194>
2fff3306:	2858      	cmp	r0, #88	@ 0x58
2fff3308:	d0da      	beq.n	2fff32c0 <vprintf+0x110>
2fff330a:	2825      	cmp	r0, #37	@ 0x25
2fff330c:	f43f af77 	beq.w	2fff31fe <vprintf+0x4e>
2fff3310:	f04f 35ff 	mov.w	r5, #4294967295	@ 0xffffffff
2fff3314:	e754      	b.n	2fff31c0 <vprintf+0x10>
2fff3316:	2b01      	cmp	r3, #1
2fff3318:	f04f 020a 	mov.w	r2, #10
2fff331c:	bfcb      	itete	gt
2fff331e:	1de3      	addgt	r3, r4, #7
2fff3320:	2100      	movle	r1, #0
2fff3322:	f023 0307 	bicgt.w	r3, r3, #7
2fff3326:	f854 0b04 	ldrle.w	r0, [r4], #4
2fff332a:	bfc4      	itt	gt
2fff332c:	461c      	movgt	r4, r3
2fff332e:	6859      	ldrgt	r1, [r3, #4]
2fff3330:	f04f 0300 	mov.w	r3, #0
2fff3334:	bfc8      	it	gt
2fff3336:	f854 0b08 	ldrgt.w	r0, [r4], #8
2fff333a:	9301      	str	r3, [sp, #4]
2fff333c:	4643      	mov	r3, r8
2fff333e:	f8cd a000 	str.w	sl, [sp]
2fff3342:	e7b5      	b.n	2fff32b0 <vprintf+0x100>
2fff3344:	1c71      	adds	r1, r6, #1
2fff3346:	f04f 0a00 	mov.w	sl, #0
2fff334a:	270a      	movs	r7, #10
2fff334c:	460e      	mov	r6, r1
2fff334e:	f811 2b01 	ldrb.w	r2, [r1], #1
2fff3352:	3a30      	subs	r2, #48	@ 0x30
2fff3354:	fa5f fc82 	uxtb.w	ip, r2
2fff3358:	f1bc 0f09 	cmp.w	ip, #9
2fff335c:	d8ca      	bhi.n	2fff32f4 <vprintf+0x144>
2fff335e:	fb07 2a0a 	mla	sl, r7, sl, r2
2fff3362:	e7f3      	b.n	2fff334c <vprintf+0x19c>
2fff3364:	3501      	adds	r5, #1
2fff3366:	f000 f9e2 	bl	2fff372e <putchar>
2fff336a:	e727      	b.n	2fff31bc <vprintf+0xc>
2fff336c:	2fff8efd 	.word	0x2fff8efd
2fff3370:	2fff8f0f 	.word	0x2fff8f0f

2fff3374 <vsnprintf>:
2fff3374:	e92d 47f0 	stmdb	sp!, {r4, r5, r6, r7, r8, r9, sl, lr}
2fff3378:	b08a      	sub	sp, #40	@ 0x28
2fff337a:	461c      	mov	r4, r3
2fff337c:	2300      	movs	r3, #0
2fff337e:	9007      	str	r0, [sp, #28]
2fff3380:	9309      	str	r3, [sp, #36]	@ 0x24
2fff3382:	b111      	cbz	r1, 2fff338a <vsnprintf+0x16>
2fff3384:	2901      	cmp	r1, #1
2fff3386:	d102      	bne.n	2fff338e <vsnprintf+0x1a>
2fff3388:	7003      	strb	r3, [r0, #0]
2fff338a:	2500      	movs	r5, #0
2fff338c:	e000      	b.n	2fff3390 <vsnprintf+0x1c>
2fff338e:	1e4d      	subs	r5, r1, #1
2fff3390:	7813      	ldrb	r3, [r2, #0]
2fff3392:	b933      	cbnz	r3, 2fff33a2 <vsnprintf+0x2e>
2fff3394:	b10d      	cbz	r5, 2fff339a <vsnprintf+0x26>
2fff3396:	9a07      	ldr	r2, [sp, #28]
2fff3398:	7013      	strb	r3, [r2, #0]
2fff339a:	9809      	ldr	r0, [sp, #36]	@ 0x24
2fff339c:	b00a      	add	sp, #40	@ 0x28
2fff339e:	e8bd 87f0 	ldmia.w	sp!, {r4, r5, r6, r7, r8, r9, sl, pc}
2fff33a2:	2b25      	cmp	r3, #37	@ 0x25
2fff33a4:	f102 0201 	add.w	r2, r2, #1
2fff33a8:	f040 813f 	bne.w	2fff362a <vsnprintf+0x2b6>
2fff33ac:	2000      	movs	r0, #0
2fff33ae:	4607      	mov	r7, r0
2fff33b0:	4601      	mov	r1, r0
2fff33b2:	4684      	mov	ip, r0
2fff33b4:	e001      	b.n	2fff33ba <vsnprintf+0x46>
2fff33b6:	2701      	movs	r7, #1
2fff33b8:	4632      	mov	r2, r6
2fff33ba:	4616      	mov	r6, r2
2fff33bc:	f816 3b01 	ldrb.w	r3, [r6], #1
2fff33c0:	2b7a      	cmp	r3, #122	@ 0x7a
2fff33c2:	d809      	bhi.n	2fff33d8 <vsnprintf+0x64>
2fff33c4:	2b62      	cmp	r3, #98	@ 0x62
2fff33c6:	d81d      	bhi.n	2fff3404 <vsnprintf+0x90>
2fff33c8:	2b39      	cmp	r3, #57	@ 0x39
2fff33ca:	d853      	bhi.n	2fff3474 <vsnprintf+0x100>
2fff33cc:	2b2f      	cmp	r3, #47	@ 0x2f
2fff33ce:	d861      	bhi.n	2fff3494 <vsnprintf+0x120>
2fff33d0:	2b25      	cmp	r3, #37	@ 0x25
2fff33d2:	d053      	beq.n	2fff347c <vsnprintf+0x108>
2fff33d4:	2b2d      	cmp	r3, #45	@ 0x2d
2fff33d6:	d0ee      	beq.n	2fff33b6 <vsnprintf+0x42>
2fff33d8:	9b09      	ldr	r3, [sp, #36]	@ 0x24
2fff33da:	42ab      	cmp	r3, r5
2fff33dc:	bf3f      	itttt	cc
2fff33de:	2025      	movcc	r0, #37	@ 0x25
2fff33e0:	9907      	ldrcc	r1, [sp, #28]
2fff33e2:	f801 0b01 	strbcc.w	r0, [r1], #1
2fff33e6:	9107      	strcc	r1, [sp, #28]
2fff33e8:	1c59      	adds	r1, r3, #1
2fff33ea:	42a9      	cmp	r1, r5
2fff33ec:	f103 0302 	add.w	r3, r3, #2
2fff33f0:	9109      	str	r1, [sp, #36]	@ 0x24
2fff33f2:	bf3f      	itttt	cc
2fff33f4:	7811      	ldrbcc	r1, [r2, #0]
2fff33f6:	9a07      	ldrcc	r2, [sp, #28]
2fff33f8:	f802 1b01 	strbcc.w	r1, [r2], #1
2fff33fc:	9207      	strcc	r2, [sp, #28]
2fff33fe:	e099      	b.n	2fff3534 <vsnprintf+0x1c0>
2fff3400:	2001      	movs	r0, #1
2fff3402:	e7d9      	b.n	2fff33b8 <vsnprintf+0x44>
2fff3404:	3b63      	subs	r3, #99	@ 0x63
2fff3406:	2b17      	cmp	r3, #23
2fff3408:	d8e6      	bhi.n	2fff33d8 <vsnprintf+0x64>
2fff340a:	f20f 0e08 	addw	lr, pc, #8
2fff340e:	f85e f023 	ldr.w	pc, [lr, r3, lsl #2]
2fff3412:	bf00      	nop
2fff3414:	2fff351f 	.word	0x2fff351f
2fff3418:	2fff34cd 	.word	0x2fff34cd
2fff341c:	2fff33d9 	.word	0x2fff33d9
2fff3420:	2fff33d9 	.word	0x2fff33d9
2fff3424:	2fff33d9 	.word	0x2fff33d9
2fff3428:	2fff33d9 	.word	0x2fff33d9
2fff342c:	2fff34cd 	.word	0x2fff34cd
2fff3430:	2fff33d9 	.word	0x2fff33d9
2fff3434:	2fff33d9 	.word	0x2fff33d9
2fff3438:	2fff359d 	.word	0x2fff359d
2fff343c:	2fff33d9 	.word	0x2fff33d9
2fff3440:	2fff33d9 	.word	0x2fff33d9
2fff3444:	2fff33d9 	.word	0x2fff33d9
2fff3448:	2fff35a1 	.word	0x2fff35a1
2fff344c:	2fff33d9 	.word	0x2fff33d9
2fff3450:	2fff33d9 	.word	0x2fff33d9
2fff3454:	2fff3539 	.word	0x2fff3539
2fff3458:	2fff33d9 	.word	0x2fff33d9
2fff345c:	2fff356d 	.word	0x2fff356d
2fff3460:	2fff33d9 	.word	0x2fff33d9
2fff3464:	2fff33d9 	.word	0x2fff33d9
2fff3468:	2fff3603 	.word	0x2fff3603
2fff346c:	2fff33d9 	.word	0x2fff33d9
2fff3470:	2fff3401 	.word	0x2fff3401
2fff3474:	2b58      	cmp	r3, #88	@ 0x58
2fff3476:	d1af      	bne.n	2fff33d8 <vsnprintf+0x64>
2fff3478:	2701      	movs	r7, #1
2fff347a:	e0c3      	b.n	2fff3604 <vsnprintf+0x290>
2fff347c:	9a09      	ldr	r2, [sp, #36]	@ 0x24
2fff347e:	42aa      	cmp	r2, r5
2fff3480:	f102 0201 	add.w	r2, r2, #1
2fff3484:	9209      	str	r2, [sp, #36]	@ 0x24
2fff3486:	bf3e      	ittt	cc
2fff3488:	9907      	ldrcc	r1, [sp, #28]
2fff348a:	f801 3b01 	strbcc.w	r3, [r1], #1
2fff348e:	9107      	strcc	r1, [sp, #28]
2fff3490:	4632      	mov	r2, r6
2fff3492:	e77d      	b.n	2fff3390 <vsnprintf+0x1c>
2fff3494:	2b30      	cmp	r3, #48	@ 0x30
2fff3496:	4616      	mov	r6, r2
2fff3498:	bf14      	ite	ne
2fff349a:	f04f 0c20 	movne.w	ip, #32
2fff349e:	f04f 0c30 	moveq.w	ip, #48	@ 0x30
2fff34a2:	2100      	movs	r1, #0
2fff34a4:	f04f 080a 	mov.w	r8, #10
2fff34a8:	4632      	mov	r2, r6
2fff34aa:	f812 3b01 	ldrb.w	r3, [r2], #1
2fff34ae:	3b30      	subs	r3, #48	@ 0x30
2fff34b0:	fa5f fe83 	uxtb.w	lr, r3
2fff34b4:	f1be 0f09 	cmp.w	lr, #9
2fff34b8:	d904      	bls.n	2fff34c4 <vsnprintf+0x150>
2fff34ba:	2f00      	cmp	r7, #0
2fff34bc:	f43f af7c 	beq.w	2fff33b8 <vsnprintf+0x44>
2fff34c0:	4249      	negs	r1, r1
2fff34c2:	e779      	b.n	2fff33b8 <vsnprintf+0x44>
2fff34c4:	fb08 3101 	mla	r1, r8, r1, r3
2fff34c8:	4616      	mov	r6, r2
2fff34ca:	e7ed      	b.n	2fff34a8 <vsnprintf+0x134>
2fff34cc:	2801      	cmp	r0, #1
2fff34ce:	bf8b      	itete	hi
2fff34d0:	1de7      	addhi	r7, r4, #7
2fff34d2:	1d27      	addls	r7, r4, #4
2fff34d4:	f027 0707 	bichi.w	r7, r7, #7
2fff34d8:	6823      	ldrls	r3, [r4, #0]
2fff34da:	bf88      	it	hi
2fff34dc:	f857 3b08 	ldrhi.w	r3, [r7], #8
2fff34e0:	2b00      	cmp	r3, #0
2fff34e2:	da0b      	bge.n	2fff34fc <vsnprintf+0x188>
2fff34e4:	9a09      	ldr	r2, [sp, #36]	@ 0x24
2fff34e6:	425b      	negs	r3, r3
2fff34e8:	42aa      	cmp	r2, r5
2fff34ea:	f102 0201 	add.w	r2, r2, #1
2fff34ee:	9209      	str	r2, [sp, #36]	@ 0x24
2fff34f0:	bf3f      	itttt	cc
2fff34f2:	242d      	movcc	r4, #45	@ 0x2d
2fff34f4:	9807      	ldrcc	r0, [sp, #28]
2fff34f6:	f800 4b01 	strbcc.w	r4, [r0], #1
2fff34fa:	9007      	strcc	r0, [sp, #28]
2fff34fc:	17da      	asrs	r2, r3, #31
2fff34fe:	2000      	movs	r0, #0
2fff3500:	9104      	str	r1, [sp, #16]
2fff3502:	210a      	movs	r1, #10
2fff3504:	9005      	str	r0, [sp, #20]
2fff3506:	a807      	add	r0, sp, #28
2fff3508:	9102      	str	r1, [sp, #8]
2fff350a:	4629      	mov	r1, r5
2fff350c:	e9cd 3200 	strd	r3, r2, [sp]
2fff3510:	f8cd c00c 	str.w	ip, [sp, #12]
2fff3514:	aa09      	add	r2, sp, #36	@ 0x24
2fff3516:	463c      	mov	r4, r7
2fff3518:	f001 fd87 	bl	2fff502a <unsigned_num_print>
2fff351c:	e7b8      	b.n	2fff3490 <vsnprintf+0x11c>
2fff351e:	9b09      	ldr	r3, [sp, #36]	@ 0x24
2fff3520:	42ab      	cmp	r3, r5
2fff3522:	f103 0301 	add.w	r3, r3, #1
2fff3526:	bf3f      	itttt	cc
2fff3528:	9a07      	ldrcc	r2, [sp, #28]
2fff352a:	f854 1b04 	ldrcc.w	r1, [r4], #4
2fff352e:	f802 1b01 	strbcc.w	r1, [r2], #1
2fff3532:	9207      	strcc	r2, [sp, #28]
2fff3534:	9309      	str	r3, [sp, #36]	@ 0x24
2fff3536:	e7ab      	b.n	2fff3490 <vsnprintf+0x11c>
2fff3538:	f854 2b04 	ldr.w	r2, [r4], #4
2fff353c:	2000      	movs	r0, #0
2fff353e:	9b09      	ldr	r3, [sp, #36]	@ 0x24
2fff3540:	4607      	mov	r7, r0
2fff3542:	9907      	ldr	r1, [sp, #28]
2fff3544:	3a01      	subs	r2, #1
2fff3546:	f812 cf01 	ldrb.w	ip, [r2, #1]!
2fff354a:	f1bc 0f00 	cmp.w	ip, #0
2fff354e:	d104      	bne.n	2fff355a <vsnprintf+0x1e6>
2fff3550:	b100      	cbz	r0, 2fff3554 <vsnprintf+0x1e0>
2fff3552:	9107      	str	r1, [sp, #28]
2fff3554:	2f00      	cmp	r7, #0
2fff3556:	d1ed      	bne.n	2fff3534 <vsnprintf+0x1c0>
2fff3558:	e79a      	b.n	2fff3490 <vsnprintf+0x11c>
2fff355a:	429d      	cmp	r5, r3
2fff355c:	f04f 0701 	mov.w	r7, #1
2fff3560:	bf84      	itt	hi
2fff3562:	f801 cb01 	strbhi.w	ip, [r1], #1
2fff3566:	2001      	movhi	r0, #1
2fff3568:	3301      	adds	r3, #1
2fff356a:	e7ec      	b.n	2fff3546 <vsnprintf+0x1d2>
2fff356c:	2801      	cmp	r0, #1
2fff356e:	f04f 0000 	mov.w	r0, #0
2fff3572:	bf8b      	itete	hi
2fff3574:	1de3      	addhi	r3, r4, #7
2fff3576:	2300      	movls	r3, #0
2fff3578:	f023 0307 	bichi.w	r3, r3, #7
2fff357c:	f854 2b04 	ldrls.w	r2, [r4], #4
2fff3580:	bf82      	ittt	hi
2fff3582:	461c      	movhi	r4, r3
2fff3584:	685b      	ldrhi	r3, [r3, #4]
2fff3586:	f854 2b08 	ldrhi.w	r2, [r4], #8
2fff358a:	9104      	str	r1, [sp, #16]
2fff358c:	210a      	movs	r1, #10
2fff358e:	9005      	str	r0, [sp, #20]
2fff3590:	f8cd c00c 	str.w	ip, [sp, #12]
2fff3594:	9102      	str	r1, [sp, #8]
2fff3596:	e9cd 2300 	strd	r2, r3, [sp]
2fff359a:	e022      	b.n	2fff35e2 <vsnprintf+0x26e>
2fff359c:	3001      	adds	r0, #1
2fff359e:	e70b      	b.n	2fff33b8 <vsnprintf+0x44>
2fff35a0:	f854 7b04 	ldr.w	r7, [r4], #4
2fff35a4:	2200      	movs	r2, #0
2fff35a6:	b19f      	cbz	r7, 2fff35d0 <vsnprintf+0x25c>
2fff35a8:	9b09      	ldr	r3, [sp, #36]	@ 0x24
2fff35aa:	4690      	mov	r8, r2
2fff35ac:	9807      	ldr	r0, [sp, #28]
2fff35ae:	4696      	mov	lr, r2
2fff35b0:	f8df a08c 	ldr.w	sl, [pc, #140]	@ 2fff3640 <vsnprintf+0x2cc>
2fff35b4:	f81a 9b01 	ldrb.w	r9, [sl], #1
2fff35b8:	f1b9 0f00 	cmp.w	r9, #0
2fff35bc:	d117      	bne.n	2fff35ee <vsnprintf+0x27a>
2fff35be:	f1b8 0f00 	cmp.w	r8, #0
2fff35c2:	d000      	beq.n	2fff35c6 <vsnprintf+0x252>
2fff35c4:	9007      	str	r0, [sp, #28]
2fff35c6:	f1be 0f00 	cmp.w	lr, #0
2fff35ca:	d000      	beq.n	2fff35ce <vsnprintf+0x25a>
2fff35cc:	9309      	str	r3, [sp, #36]	@ 0x24
2fff35ce:	3902      	subs	r1, #2
2fff35d0:	9104      	str	r1, [sp, #16]
2fff35d2:	2300      	movs	r3, #0
2fff35d4:	9305      	str	r3, [sp, #20]
2fff35d6:	2310      	movs	r3, #16
2fff35d8:	f8cd c00c 	str.w	ip, [sp, #12]
2fff35dc:	9302      	str	r3, [sp, #8]
2fff35de:	e9cd 7200 	strd	r7, r2, [sp]
2fff35e2:	aa09      	add	r2, sp, #36	@ 0x24
2fff35e4:	4629      	mov	r1, r5
2fff35e6:	a807      	add	r0, sp, #28
2fff35e8:	f001 fd1f 	bl	2fff502a <unsigned_num_print>
2fff35ec:	e750      	b.n	2fff3490 <vsnprintf+0x11c>
2fff35ee:	429d      	cmp	r5, r3
2fff35f0:	f04f 0e01 	mov.w	lr, #1
2fff35f4:	bf84      	itt	hi
2fff35f6:	f800 9b01 	strbhi.w	r9, [r0], #1
2fff35fa:	f04f 0801 	movhi.w	r8, #1
2fff35fe:	3301      	adds	r3, #1
2fff3600:	e7d8      	b.n	2fff35b4 <vsnprintf+0x240>
2fff3602:	2700      	movs	r7, #0
2fff3604:	2801      	cmp	r0, #1
2fff3606:	bf8b      	itete	hi
2fff3608:	1de3      	addhi	r3, r4, #7
2fff360a:	2300      	movls	r3, #0
2fff360c:	f023 0307 	bichi.w	r3, r3, #7
2fff3610:	f854 2b04 	ldrls.w	r2, [r4], #4
2fff3614:	bf82      	ittt	hi
2fff3616:	461c      	movhi	r4, r3
2fff3618:	685b      	ldrhi	r3, [r3, #4]
2fff361a:	f854 2b08 	ldrhi.w	r2, [r4], #8
2fff361e:	9104      	str	r1, [sp, #16]
2fff3620:	2110      	movs	r1, #16
2fff3622:	9705      	str	r7, [sp, #20]
2fff3624:	f8cd c00c 	str.w	ip, [sp, #12]
2fff3628:	e7b4      	b.n	2fff3594 <vsnprintf+0x220>
2fff362a:	9909      	ldr	r1, [sp, #36]	@ 0x24
2fff362c:	42a9      	cmp	r1, r5
2fff362e:	f101 0101 	add.w	r1, r1, #1
2fff3632:	9109      	str	r1, [sp, #36]	@ 0x24
2fff3634:	bf3e      	ittt	cc
2fff3636:	9807      	ldrcc	r0, [sp, #28]
2fff3638:	f800 3b01 	strbcc.w	r3, [r0], #1
2fff363c:	9007      	strcc	r0, [sp, #28]
2fff363e:	e6a7      	b.n	2fff3390 <vsnprintf+0x1c>
2fff3640:	2fff8f0f 	.word	0x2fff8f0f

2fff3644 <bl2_arch_setup>:
2fff3644:	4770      	bx	lr

2fff3646 <bl2_el3_setup>:
2fff3646:	b508      	push	{r3, lr}
2fff3648:	f000 fffe 	bl	2fff4648 <bl2_el3_early_platform_setup>
2fff364c:	e8bd 4008 	ldmia.w	sp!, {r3, lr}
2fff3650:	f7fe bca6 	b.w	2fff1fa0 <bl2_el3_plat_arch_setup>

2fff3654 <cpu_to_fdt32>:
2fff3654:	ba00      	rev	r0, r0
2fff3656:	4770      	bx	lr

2fff3658 <fdt_read_prop_cells>:
2fff3658:	460a      	mov	r2, r1
2fff365a:	4603      	mov	r3, r0
2fff365c:	b510      	push	{r4, lr}
2fff365e:	2100      	movs	r1, #0
2fff3660:	6800      	ldr	r0, [r0, #0]
2fff3662:	f7ff fff7 	bl	2fff3654 <cpu_to_fdt32>
2fff3666:	2a01      	cmp	r2, #1
2fff3668:	4604      	mov	r4, r0
2fff366a:	dd03      	ble.n	2fff3674 <fdt_read_prop_cells+0x1c>
2fff366c:	6858      	ldr	r0, [r3, #4]
2fff366e:	4621      	mov	r1, r4
2fff3670:	f7ff fff0 	bl	2fff3654 <cpu_to_fdt32>
2fff3674:	bd10      	pop	{r4, pc}

2fff3676 <fdt_read_uint32>:
2fff3676:	b507      	push	{r0, r1, r2, lr}
2fff3678:	9300      	str	r3, [sp, #0]
2fff367a:	2301      	movs	r3, #1
2fff367c:	f7f6 fc8e 	bl	2ffe9f9c <fdt_read_uint32_array>
2fff3680:	b003      	add	sp, #12
2fff3682:	f85d fb04 	ldr.w	pc, [sp], #4

2fff3686 <fdt_read_uint32_default>:
2fff3686:	b513      	push	{r0, r1, r4, lr}
2fff3688:	461c      	mov	r4, r3
2fff368a:	9301      	str	r3, [sp, #4]
2fff368c:	ab01      	add	r3, sp, #4
2fff368e:	f7ff fff2 	bl	2fff3676 <fdt_read_uint32>
2fff3692:	2800      	cmp	r0, #0
2fff3694:	bfa8      	it	ge
2fff3696:	9c01      	ldrge	r4, [sp, #4]
2fff3698:	4620      	mov	r0, r4
2fff369a:	b002      	add	sp, #8
2fff369c:	bd10      	pop	{r4, pc}

2fff369e <fdt_read_uint64>:
2fff369e:	b530      	push	{r4, r5, lr}
2fff36a0:	b085      	sub	sp, #20
2fff36a2:	461c      	mov	r4, r3
2fff36a4:	ab02      	add	r3, sp, #8
2fff36a6:	9300      	str	r3, [sp, #0]
2fff36a8:	2500      	movs	r5, #0
2fff36aa:	2302      	movs	r3, #2
2fff36ac:	e9cd 5502 	strd	r5, r5, [sp, #8]
2fff36b0:	f7f6 fc74 	bl	2ffe9f9c <fdt_read_uint32_array>
2fff36b4:	2800      	cmp	r0, #0
2fff36b6:	db04      	blt.n	2fff36c2 <fdt_read_uint64+0x24>
2fff36b8:	9b03      	ldr	r3, [sp, #12]
2fff36ba:	4628      	mov	r0, r5
2fff36bc:	6023      	str	r3, [r4, #0]
2fff36be:	9b02      	ldr	r3, [sp, #8]
2fff36c0:	6063      	str	r3, [r4, #4]
2fff36c2:	b005      	add	sp, #20
2fff36c4:	bd30      	pop	{r4, r5, pc}

2fff36c6 <hex_val>:
2fff36c6:	f1a0 0330 	sub.w	r3, r0, #48	@ 0x30
2fff36ca:	b2db      	uxtb	r3, r3
2fff36cc:	2b09      	cmp	r3, #9
2fff36ce:	d801      	bhi.n	2fff36d4 <hex_val+0xe>
2fff36d0:	b258      	sxtb	r0, r3
2fff36d2:	4770      	bx	lr
2fff36d4:	f1a0 0361 	sub.w	r3, r0, #97	@ 0x61
2fff36d8:	2b05      	cmp	r3, #5
2fff36da:	d802      	bhi.n	2fff36e2 <hex_val+0x1c>
2fff36dc:	3857      	subs	r0, #87	@ 0x57
2fff36de:	b240      	sxtb	r0, r0
2fff36e0:	4770      	bx	lr
2fff36e2:	f1a0 0341 	sub.w	r3, r0, #65	@ 0x41
2fff36e6:	2b05      	cmp	r3, #5
2fff36e8:	d801      	bhi.n	2fff36ee <hex_val+0x28>
2fff36ea:	3837      	subs	r0, #55	@ 0x37
2fff36ec:	e7f7      	b.n	2fff36de <hex_val+0x18>
2fff36ee:	f04f 30ff 	mov.w	r0, #4294967295	@ 0xffffffff
2fff36f2:	4770      	bx	lr

2fff36f4 <read_hex.part.0>:
2fff36f4:	f022 0201 	bic.w	r2, r2, #1
2fff36f8:	b538      	push	{r3, r4, r5, lr}
2fff36fa:	4605      	mov	r5, r0
2fff36fc:	440a      	add	r2, r1
2fff36fe:	7808      	ldrb	r0, [r1, #0]
2fff3700:	f7ff ffe1 	bl	2fff36c6 <hex_val>
2fff3704:	1e04      	subs	r4, r0, #0
2fff3706:	db0f      	blt.n	2fff3728 <read_hex.part.0+0x34>
2fff3708:	7848      	ldrb	r0, [r1, #1]
2fff370a:	0124      	lsls	r4, r4, #4
2fff370c:	f7ff ffdb 	bl	2fff36c6 <hex_val>
2fff3710:	2800      	cmp	r0, #0
2fff3712:	f004 04f0 	and.w	r4, r4, #240	@ 0xf0
2fff3716:	db07      	blt.n	2fff3728 <read_hex.part.0+0x34>
2fff3718:	4304      	orrs	r4, r0
2fff371a:	3102      	adds	r1, #2
2fff371c:	4291      	cmp	r1, r2
2fff371e:	f805 4b01 	strb.w	r4, [r5], #1
2fff3722:	d1ec      	bne.n	2fff36fe <read_hex.part.0+0xa>
2fff3724:	2000      	movs	r0, #0
2fff3726:	bd38      	pop	{r3, r4, r5, pc}
2fff3728:	f04f 30ff 	mov.w	r0, #4294967295	@ 0xffffffff
2fff372c:	e7fb      	b.n	2fff3726 <read_hex.part.0+0x32>

2fff372e <putchar>:
2fff372e:	b510      	push	{r4, lr}
2fff3730:	4604      	mov	r4, r0
2fff3732:	f7f6 ffe5 	bl	2ffea700 <console_putc>
2fff3736:	2800      	cmp	r0, #0
2fff3738:	bf0c      	ite	eq
2fff373a:	4620      	moveq	r0, r4
2fff373c:	f04f 30ff 	movne.w	r0, #4294967295	@ 0xffffffff
2fff3740:	bd10      	pop	{r4, pc}

2fff3742 <mdelay>:
2fff3742:	f44f 737a 	mov.w	r3, #1000	@ 0x3e8
2fff3746:	4358      	muls	r0, r3
2fff3748:	f7f7 b81a 	b.w	2ffea780 <udelay>

2fff374c <get_timer_value>:
2fff374c:	ec51 0f0e 	mrrc	15, 0, r0, r1, cr14
2fff3750:	43c0      	mvns	r0, r0
2fff3752:	4770      	bx	lr

2fff3754 <device_type_fip>:
2fff3754:	2003      	movs	r0, #3
2fff3756:	4770      	bx	lr

2fff3758 <device_type_mtd>:
2fff3758:	2005      	movs	r0, #5
2fff375a:	4770      	bx	lr

2fff375c <mtd_close>:
2fff375c:	4603      	mov	r3, r0
2fff375e:	2000      	movs	r0, #0
2fff3760:	6058      	str	r0, [r3, #4]
2fff3762:	4770      	bx	lr

2fff3764 <is_valid_dev>:
2fff3764:	b508      	push	{r3, lr}
2fff3766:	b140      	cbz	r0, 2fff377a <is_valid_dev+0x16>
2fff3768:	6800      	ldr	r0, [r0, #0]
2fff376a:	b130      	cbz	r0, 2fff377a <is_valid_dev+0x16>
2fff376c:	6800      	ldr	r0, [r0, #0]
2fff376e:	b120      	cbz	r0, 2fff377a <is_valid_dev+0x16>
2fff3770:	4780      	blx	r0
2fff3772:	2807      	cmp	r0, #7
2fff3774:	bf8c      	ite	hi
2fff3776:	2000      	movhi	r0, #0
2fff3778:	2001      	movls	r0, #1
2fff377a:	bd08      	pop	{r3, pc}

2fff377c <is_valid_entity>:
2fff377c:	b508      	push	{r3, lr}
2fff377e:	b110      	cbz	r0, 2fff3786 <is_valid_entity+0xa>
2fff3780:	6800      	ldr	r0, [r0, #0]
2fff3782:	f7ff ffef 	bl	2fff3764 <is_valid_dev>
2fff3786:	f000 0001 	and.w	r0, r0, #1
2fff378a:	bd08      	pop	{r3, pc}

2fff378c <spi_nor_reg>:
2fff378c:	b5f0      	push	{r4, r5, r6, r7, lr}
2fff378e:	b08d      	sub	sp, #52	@ 0x34
2fff3790:	4607      	mov	r7, r0
2fff3792:	460c      	mov	r4, r1
2fff3794:	4668      	mov	r0, sp
2fff3796:	2130      	movs	r1, #48	@ 0x30
2fff3798:	4615      	mov	r5, r2
2fff379a:	461e      	mov	r6, r3
2fff379c:	f7f5 ef34 	blx	2ffe9608 <zero_normalmem>
2fff37a0:	f8ad 7004 	strh.w	r7, [sp, #4]
2fff37a4:	f240 1301 	movw	r3, #257	@ 0x101
2fff37a8:	f8ad 3000 	strh.w	r3, [sp]
2fff37ac:	4668      	mov	r0, sp
2fff37ae:	940a      	str	r4, [sp, #40]	@ 0x28
2fff37b0:	2301      	movs	r3, #1
2fff37b2:	f88d 301c 	strb.w	r3, [sp, #28]
2fff37b6:	e9cd 6508 	strd	r6, r5, [sp, #32]
2fff37ba:	f7f7 fff1 	bl	2ffeb7a0 <spi_mem_exec_op>
2fff37be:	b00d      	add	sp, #52	@ 0x34
2fff37c0:	bdf0      	pop	{r4, r5, r6, r7, pc}

2fff37c2 <spi_nor_write_en>:
2fff37c2:	2200      	movs	r2, #0
2fff37c4:	2301      	movs	r3, #1
2fff37c6:	4611      	mov	r1, r2
2fff37c8:	2006      	movs	r0, #6
2fff37ca:	f7ff bfdf 	b.w	2fff378c <spi_nor_reg>

2fff37ce <spi_nor_read_sr>:
2fff37ce:	4601      	mov	r1, r0
2fff37d0:	2300      	movs	r3, #0
2fff37d2:	2201      	movs	r2, #1
2fff37d4:	2005      	movs	r0, #5
2fff37d6:	f7ff bfd9 	b.w	2fff378c <spi_nor_reg>

2fff37da <fdt32_to_cpu>:
2fff37da:	ba00      	rev	r0, r0
2fff37dc:	4770      	bx	lr

2fff37de <spi_mem_check_buswidth>:
2fff37de:	b538      	push	{r3, r4, r5, lr}
2fff37e0:	2101      	movs	r1, #1
2fff37e2:	4604      	mov	r4, r0
2fff37e4:	7840      	ldrb	r0, [r0, #1]
2fff37e6:	f7f7 ffa7 	bl	2ffeb738 <spi_mem_check_buswidth_req>
2fff37ea:	4605      	mov	r5, r0
2fff37ec:	b1c0      	cbz	r0, 2fff3820 <spi_mem_check_buswidth+0x42>
2fff37ee:	7a23      	ldrb	r3, [r4, #8]
2fff37f0:	b11b      	cbz	r3, 2fff37fa <spi_mem_check_buswidth+0x1c>
2fff37f2:	7a60      	ldrb	r0, [r4, #9]
2fff37f4:	f7f7 ffa0 	bl	2ffeb738 <spi_mem_check_buswidth_req>
2fff37f8:	b188      	cbz	r0, 2fff381e <spi_mem_check_buswidth+0x40>
2fff37fa:	7e23      	ldrb	r3, [r4, #24]
2fff37fc:	b123      	cbz	r3, 2fff3808 <spi_mem_check_buswidth+0x2a>
2fff37fe:	7e60      	ldrb	r0, [r4, #25]
2fff3800:	2101      	movs	r1, #1
2fff3802:	f7f7 ff99 	bl	2ffeb738 <spi_mem_check_buswidth_req>
2fff3806:	b150      	cbz	r0, 2fff381e <spi_mem_check_buswidth+0x40>
2fff3808:	6a63      	ldr	r3, [r4, #36]	@ 0x24
2fff380a:	b14b      	cbz	r3, 2fff3820 <spi_mem_check_buswidth+0x42>
2fff380c:	6a21      	ldr	r1, [r4, #32]
2fff380e:	7f20      	ldrb	r0, [r4, #28]
2fff3810:	1e4b      	subs	r3, r1, #1
2fff3812:	4259      	negs	r1, r3
2fff3814:	4159      	adcs	r1, r3
2fff3816:	e8bd 4038 	ldmia.w	sp!, {r3, r4, r5, lr}
2fff381a:	f7f7 bf8d 	b.w	2ffeb738 <spi_mem_check_buswidth_req>
2fff381e:	4605      	mov	r5, r0
2fff3820:	4628      	mov	r0, r5
2fff3822:	bd38      	pop	{r3, r4, r5, pc}

2fff3824 <spi_mem_default_supports_op>:
2fff3824:	7882      	ldrb	r2, [r0, #2]
2fff3826:	b952      	cbnz	r2, 2fff383e <spi_mem_default_supports_op+0x1a>
2fff3828:	7a82      	ldrb	r2, [r0, #10]
2fff382a:	b942      	cbnz	r2, 2fff383e <spi_mem_default_supports_op+0x1a>
2fff382c:	7e82      	ldrb	r2, [r0, #26]
2fff382e:	b932      	cbnz	r2, 2fff383e <spi_mem_default_supports_op+0x1a>
2fff3830:	7f42      	ldrb	r2, [r0, #29]
2fff3832:	b922      	cbnz	r2, 2fff383e <spi_mem_default_supports_op+0x1a>
2fff3834:	7803      	ldrb	r3, [r0, #0]
2fff3836:	2b01      	cmp	r3, #1
2fff3838:	d101      	bne.n	2fff383e <spi_mem_default_supports_op+0x1a>
2fff383a:	f7ff bfd0 	b.w	2fff37de <spi_mem_check_buswidth>
2fff383e:	2000      	movs	r0, #0
2fff3840:	4770      	bx	lr

2fff3842 <bsec_read_otp>:
2fff3842:	b538      	push	{r3, r4, r5, lr}
2fff3844:	4605      	mov	r5, r0
2fff3846:	460c      	mov	r4, r1
2fff3848:	f7f8 f8f8 	bl	2ffeba3c <is_otp_invalid_mode>
2fff384c:	b948      	cbnz	r0, 2fff3862 <bsec_read_otp+0x20>
2fff384e:	2c5f      	cmp	r4, #95	@ 0x5f
2fff3850:	d80a      	bhi.n	2fff3868 <bsec_read_otp+0x26>
2fff3852:	f104 51b8 	add.w	r1, r4, #385875968	@ 0x17000000
2fff3856:	f501 51a4 	add.w	r1, r1, #5248	@ 0x1480
2fff385a:	0089      	lsls	r1, r1, #2
2fff385c:	680b      	ldr	r3, [r1, #0]
2fff385e:	602b      	str	r3, [r5, #0]
2fff3860:	bd38      	pop	{r3, r4, r5, pc}
2fff3862:	f04f 30ff 	mov.w	r0, #4294967295	@ 0xffffffff
2fff3866:	e7fb      	b.n	2fff3860 <bsec_read_otp+0x1e>
2fff3868:	f06f 0003 	mvn.w	r0, #3
2fff386c:	e7f8      	b.n	2fff3860 <bsec_read_otp+0x1e>

2fff386e <clock_is_always_on>:
2fff386e:	2805      	cmp	r0, #5
2fff3870:	d807      	bhi.n	2fff3882 <clock_is_always_on+0x14>
2fff3872:	2001      	movs	r0, #1
2fff3874:	4770      	bx	lr
2fff3876:	f64e 00ff 	movw	r0, #59647	@ 0xe8ff
2fff387a:	40d8      	lsrs	r0, r3
2fff387c:	f000 0001 	and.w	r0, r0, #1
2fff3880:	4770      	bx	lr
2fff3882:	f1a0 03b5 	sub.w	r3, r0, #181	@ 0xb5
2fff3886:	2b0f      	cmp	r3, #15
2fff3888:	d9f5      	bls.n	2fff3876 <clock_is_always_on+0x8>
2fff388a:	2000      	movs	r0, #0
2fff388c:	4770      	bx	lr

2fff388e <stm32mp1_clk_lock>:
2fff388e:	b510      	push	{r4, lr}
2fff3890:	4604      	mov	r4, r0
2fff3892:	f000 fe73 	bl	2fff457c <stm32mp_lock_available>
2fff3896:	b120      	cbz	r0, 2fff38a2 <stm32mp1_clk_lock+0x14>
2fff3898:	4620      	mov	r0, r4
2fff389a:	e8bd 4010 	ldmia.w	sp!, {r4, lr}
2fff389e:	f005 be07 	b.w	2fff94b0 <__spin_lock_from_thumb>
2fff38a2:	bd10      	pop	{r4, pc}

2fff38a4 <stm32mp1_clk_unlock>:
2fff38a4:	b510      	push	{r4, lr}
2fff38a6:	4604      	mov	r4, r0
2fff38a8:	f000 fe68 	bl	2fff457c <stm32mp_lock_available>
2fff38ac:	b120      	cbz	r0, 2fff38b8 <stm32mp1_clk_unlock+0x14>
2fff38ae:	4620      	mov	r0, r4
2fff38b0:	e8bd 4010 	ldmia.w	sp!, {r4, lr}
2fff38b4:	f005 be0c 	b.w	2fff94d0 <__spin_unlock_from_thumb>
2fff38b8:	bd10      	pop	{r4, pc}

2fff38ba <stm32_clk_parse_fdt_by_name>:
2fff38ba:	b537      	push	{r0, r1, r2, r4, r5, lr}
2fff38bc:	461d      	mov	r5, r3
2fff38be:	2400      	movs	r4, #0
2fff38c0:	ab01      	add	r3, sp, #4
2fff38c2:	9401      	str	r4, [sp, #4]
2fff38c4:	f001 f9ad 	bl	2fff4c22 <fdt_getprop>
2fff38c8:	b180      	cbz	r0, 2fff38ec <stm32_clk_parse_fdt_by_name+0x32>
2fff38ca:	9901      	ldr	r1, [sp, #4]
2fff38cc:	4622      	mov	r2, r4
2fff38ce:	0889      	lsrs	r1, r1, #2
2fff38d0:	4291      	cmp	r1, r2
2fff38d2:	d104      	bne.n	2fff38de <stm32_clk_parse_fdt_by_name+0x24>
2fff38d4:	9b06      	ldr	r3, [sp, #24]
2fff38d6:	2000      	movs	r0, #0
2fff38d8:	6019      	str	r1, [r3, #0]
2fff38da:	b003      	add	sp, #12
2fff38dc:	bd30      	pop	{r4, r5, pc}
2fff38de:	f850 3022 	ldr.w	r3, [r0, r2, lsl #2]
2fff38e2:	ba1b      	rev	r3, r3
2fff38e4:	f845 3022 	str.w	r3, [r5, r2, lsl #2]
2fff38e8:	3201      	adds	r2, #1
2fff38ea:	e7f1      	b.n	2fff38d0 <stm32_clk_parse_fdt_by_name+0x16>
2fff38ec:	4601      	mov	r1, r0
2fff38ee:	e7f1      	b.n	2fff38d4 <stm32_clk_parse_fdt_by_name+0x1a>

2fff38f0 <stm32mp1_pll_configure_src>:
2fff38f0:	6943      	ldr	r3, [r0, #20]
2fff38f2:	2234      	movs	r2, #52	@ 0x34
2fff38f4:	4351      	muls	r1, r2
2fff38f6:	685b      	ldr	r3, [r3, #4]
2fff38f8:	185a      	adds	r2, r3, r1
2fff38fa:	5c5b      	ldrb	r3, [r3, r1]
2fff38fc:	b113      	cbz	r3, 2fff3904 <stm32mp1_pll_configure_src+0x14>
2fff38fe:	6851      	ldr	r1, [r2, #4]
2fff3900:	f7f8 bc22 	b.w	2ffec148 <stm32_clk_configure_mux>
2fff3904:	4618      	mov	r0, r3
2fff3906:	4770      	bx	lr

2fff3908 <stm32mp1_mode_register_write.isra.0>:
2fff3908:	6983      	ldr	r3, [r0, #24]
2fff390a:	07db      	lsls	r3, r3, #31
2fff390c:	d4fc      	bmi.n	2fff3908 <stm32mp1_mode_register_write.isra.0>
2fff390e:	0309      	lsls	r1, r1, #12
2fff3910:	f041 0310 	orr.w	r3, r1, #16
2fff3914:	f041 4100 	orr.w	r1, r1, #2147483648	@ 0x80000000
2fff3918:	6103      	str	r3, [r0, #16]
2fff391a:	f041 0110 	orr.w	r1, r1, #16
2fff391e:	6142      	str	r2, [r0, #20]
2fff3920:	6101      	str	r1, [r0, #16]
2fff3922:	6983      	ldr	r3, [r0, #24]
2fff3924:	07db      	lsls	r3, r3, #31
2fff3926:	d4fc      	bmi.n	2fff3922 <stm32mp1_mode_register_write.isra.0+0x1a>
2fff3928:	4770      	bx	lr

2fff392a <stm32mp1_ddrphy_idone_wait>:
2fff392a:	b570      	push	{r4, r5, r6, lr}
2fff392c:	ee1e 3f10 	mrc	15, 0, r3, cr14, cr0, {0}
2fff3930:	ec55 4f0e 	mrrc	15, 0, r4, r5, cr14
2fff3934:	1919      	adds	r1, r3, r4
2fff3936:	f145 0600 	adc.w	r6, r5, #0
2fff393a:	68c3      	ldr	r3, [r0, #12]
2fff393c:	ec55 4f0e 	mrrc	15, 0, r4, r5, cr14
2fff3940:	42a1      	cmp	r1, r4
2fff3942:	eb76 0205 	sbcs.w	r2, r6, r5
2fff3946:	d203      	bcs.n	2fff3950 <stm32mp1_ddrphy_idone_wait+0x26>
2fff3948:	f7f6 ff06 	bl	2ffea758 <console_flush>
2fff394c:	f7f5 ec92 	blx	2ffe9274 <el3_panic>
2fff3950:	f3c3 1240 	ubfx	r2, r3, #5, #1
2fff3954:	065d      	lsls	r5, r3, #25
2fff3956:	bf48      	it	mi
2fff3958:	3201      	addmi	r2, #1
2fff395a:	061c      	lsls	r4, r3, #24
2fff395c:	bf48      	it	mi
2fff395e:	3201      	addmi	r2, #1
2fff3960:	05dd      	lsls	r5, r3, #23
2fff3962:	bf48      	it	mi
2fff3964:	3201      	addmi	r2, #1
2fff3966:	059c      	lsls	r4, r3, #22
2fff3968:	d403      	bmi.n	2fff3972 <stm32mp1_ddrphy_idone_wait+0x48>
2fff396a:	f003 0301 	and.w	r3, r3, #1
2fff396e:	4313      	orrs	r3, r2
2fff3970:	d0e3      	beq.n	2fff393a <stm32mp1_ddrphy_idone_wait+0x10>
2fff3972:	bd70      	pop	{r4, r5, r6, pc}

2fff3974 <stm32mp1_wait_operating_mode>:
2fff3974:	b5f8      	push	{r3, r4, r5, r6, r7, lr}
2fff3976:	ee1e 3f10 	mrc	15, 0, r3, cr14, cr0, {0}
2fff397a:	ec55 4f0e 	mrrc	15, 0, r4, r5, cr14
2fff397e:	191a      	adds	r2, r3, r4
2fff3980:	f145 0700 	adc.w	r7, r5, #0
2fff3984:	6906      	ldr	r6, [r0, #16]
2fff3986:	6873      	ldr	r3, [r6, #4]
2fff3988:	f003 0007 	and.w	r0, r3, #7
2fff398c:	f003 0330 	and.w	r3, r3, #48	@ 0x30
2fff3990:	ec55 4f0e 	mrrc	15, 0, r4, r5, cr14
2fff3994:	42a2      	cmp	r2, r4
2fff3996:	eb77 0405 	sbcs.w	r4, r7, r5
2fff399a:	d203      	bcs.n	2fff39a4 <stm32mp1_wait_operating_mode+0x30>
2fff399c:	f7f6 fedc 	bl	2ffea758 <console_flush>
2fff39a0:	f7f5 ec68 	blx	2ffe9274 <el3_panic>
2fff39a4:	2903      	cmp	r1, #3
2fff39a6:	d104      	bne.n	2fff39b2 <stm32mp1_wait_operating_mode+0x3e>
2fff39a8:	2803      	cmp	r0, #3
2fff39aa:	d1ec      	bne.n	2fff3986 <stm32mp1_wait_operating_mode+0x12>
2fff39ac:	2b20      	cmp	r3, #32
2fff39ae:	d1ea      	bne.n	2fff3986 <stm32mp1_wait_operating_mode+0x12>
2fff39b0:	bdf8      	pop	{r3, r4, r5, r6, r7, pc}
2fff39b2:	4288      	cmp	r0, r1
2fff39b4:	d0fc      	beq.n	2fff39b0 <stm32mp1_wait_operating_mode+0x3c>
2fff39b6:	2901      	cmp	r1, #1
2fff39b8:	d1e5      	bne.n	2fff3986 <stm32mp1_wait_operating_mode+0x12>
2fff39ba:	2803      	cmp	r0, #3
2fff39bc:	d1e3      	bne.n	2fff3986 <stm32mp1_wait_operating_mode+0x12>
2fff39be:	2b30      	cmp	r3, #48	@ 0x30
2fff39c0:	e7f5      	b.n	2fff39ae <stm32mp1_wait_operating_mode+0x3a>

2fff39c2 <ddr_enable_clock>:
2fff39c2:	f240 2345 	movw	r3, #581	@ 0x245
2fff39c6:	b510      	push	{r4, lr}
2fff39c8:	f240 2455 	movw	r4, #597	@ 0x255
2fff39cc:	2800      	cmp	r0, #0
2fff39ce:	bf08      	it	eq
2fff39d0:	461c      	moveq	r4, r3
2fff39d2:	f7f8 fdcd 	bl	2ffec570 <stm32mp1_clk_rcc_regs_lock>
2fff39d6:	f000 fdce 	bl	2fff4576 <stm32mp_rcc_base>
2fff39da:	f8d0 30d8 	ldr.w	r3, [r0, #216]	@ 0xd8
2fff39de:	431c      	orrs	r4, r3
2fff39e0:	f8c0 40d8 	str.w	r4, [r0, #216]	@ 0xd8
2fff39e4:	e8bd 4010 	ldmia.w	sp!, {r4, lr}
2fff39e8:	f7f8 bdc8 	b.w	2ffec57c <stm32mp1_clk_rcc_regs_unlock>

2fff39ec <ddr_get_io_calibration_val>:
2fff39ec:	b508      	push	{r3, lr}
2fff39ee:	f7fd fdf5 	bl	2fff15dc <stm32mp_ddrphyc_base>
2fff39f2:	f8d0 0180 	ldr.w	r0, [r0, #384]	@ 0x180
2fff39f6:	f020 4070 	bic.w	r0, r0, #4026531840	@ 0xf0000000
2fff39fa:	bd08      	pop	{r3, pc}

2fff39fc <ddr_standby_sr_entry>:
2fff39fc:	e92d 43f8 	stmdb	sp!, {r3, r4, r5, r6, r7, r8, r9, lr}
2fff3a00:	f7fd fdf0 	bl	2fff15e4 <stm32mp_pwr_base>
2fff3a04:	4680      	mov	r8, r0
2fff3a06:	f000 fdb6 	bl	2fff4576 <stm32mp_rcc_base>
2fff3a0a:	4605      	mov	r5, r0
2fff3a0c:	f7fd fdea 	bl	2fff15e4 <stm32mp_pwr_base>
2fff3a10:	4681      	mov	r9, r0
2fff3a12:	f7fd fddf 	bl	2fff15d4 <stm32mp_ddrctrl_base>
2fff3a16:	4606      	mov	r6, r0
2fff3a18:	f7fd fde0 	bl	2fff15dc <stm32mp_ddrphyc_base>
2fff3a1c:	4604      	mov	r4, r0
2fff3a1e:	f7f8 fda7 	bl	2ffec570 <stm32mp1_clk_rcc_regs_lock>
2fff3a22:	f8d5 30d8 	ldr.w	r3, [r5, #216]	@ 0xd8
2fff3a26:	f423 7380 	bic.w	r3, r3, #256	@ 0x100
2fff3a2a:	f8c5 30d8 	str.w	r3, [r5, #216]	@ 0xd8
2fff3a2e:	f7f8 fda5 	bl	2ffec57c <stm32mp1_clk_rcc_regs_unlock>
2fff3a32:	4630      	mov	r0, r6
2fff3a34:	f000 f8d2 	bl	2fff3bdc <stm32mp_ddr_disable_axi_port>
2fff3a38:	b938      	cbnz	r0, 2fff3a4a <ddr_standby_sr_entry+0x4e>
2fff3a3a:	4630      	mov	r0, r6
2fff3a3c:	f7fa f9aa 	bl	2ffedd94 <stm32mp_ddr_sw_selfref_entry>
2fff3a40:	4607      	mov	r7, r0
2fff3a42:	b140      	cbz	r0, 2fff3a56 <ddr_standby_sr_entry+0x5a>
2fff3a44:	4630      	mov	r0, r6
2fff3a46:	f000 f918 	bl	2fff3c7a <stm32mp_ddr_sw_selfref_exit>
2fff3a4a:	4630      	mov	r0, r6
2fff3a4c:	f04f 37ff 	mov.w	r7, #4294967295	@ 0xffffffff
2fff3a50:	f000 f8b7 	bl	2fff3bc2 <stm32mp_ddr_enable_axi_port>
2fff3a54:	e08e      	b.n	2fff3b74 <ddr_standby_sr_entry+0x178>
2fff3a56:	6a63      	ldr	r3, [r4, #36]	@ 0x24
2fff3a58:	200a      	movs	r0, #10
2fff3a5a:	f043 0308 	orr.w	r3, r3, #8
2fff3a5e:	6263      	str	r3, [r4, #36]	@ 0x24
2fff3a60:	6a63      	ldr	r3, [r4, #36]	@ 0x24
2fff3a62:	f043 0310 	orr.w	r3, r3, #16
2fff3a66:	6263      	str	r3, [r4, #36]	@ 0x24
2fff3a68:	6a63      	ldr	r3, [r4, #36]	@ 0x24
2fff3a6a:	f423 63e0 	bic.w	r3, r3, #1792	@ 0x700
2fff3a6e:	f443 7380 	orr.w	r3, r3, #256	@ 0x100
2fff3a72:	6263      	str	r3, [r4, #36]	@ 0x24
2fff3a74:	6a63      	ldr	r3, [r4, #36]	@ 0x24
2fff3a76:	f423 5360 	bic.w	r3, r3, #14336	@ 0x3800
2fff3a7a:	f443 6300 	orr.w	r3, r3, #2048	@ 0x800
2fff3a7e:	6263      	str	r3, [r4, #36]	@ 0x24
2fff3a80:	6a63      	ldr	r3, [r4, #36]	@ 0x24
2fff3a82:	f423 1370 	bic.w	r3, r3, #3932160	@ 0x3c0000
2fff3a86:	f443 2380 	orr.w	r3, r3, #262144	@ 0x40000
2fff3a8a:	6263      	str	r3, [r4, #36]	@ 0x24
2fff3a8c:	6a63      	ldr	r3, [r4, #36]	@ 0x24
2fff3a8e:	f023 0302 	bic.w	r3, r3, #2
2fff3a92:	6263      	str	r3, [r4, #36]	@ 0x24
2fff3a94:	6aa3      	ldr	r3, [r4, #40]	@ 0x28
2fff3a96:	f043 0304 	orr.w	r3, r3, #4
2fff3a9a:	62a3      	str	r3, [r4, #40]	@ 0x28
2fff3a9c:	6aa3      	ldr	r3, [r4, #40]	@ 0x28
2fff3a9e:	f043 0308 	orr.w	r3, r3, #8
2fff3aa2:	62a3      	str	r3, [r4, #40]	@ 0x28
2fff3aa4:	6ae3      	ldr	r3, [r4, #44]	@ 0x2c
2fff3aa6:	f423 0370 	bic.w	r3, r3, #15728640	@ 0xf00000
2fff3aaa:	f443 1380 	orr.w	r3, r3, #1048576	@ 0x100000
2fff3aae:	62e3      	str	r3, [r4, #44]	@ 0x2c
2fff3ab0:	6ae3      	ldr	r3, [r4, #44]	@ 0x2c
2fff3ab2:	f043 7380 	orr.w	r3, r3, #16777216	@ 0x1000000
2fff3ab6:	62e3      	str	r3, [r4, #44]	@ 0x2c
2fff3ab8:	6ae3      	ldr	r3, [r4, #44]	@ 0x2c
2fff3aba:	f423 2370 	bic.w	r3, r3, #983040	@ 0xf0000
2fff3abe:	f443 3380 	orr.w	r3, r3, #65536	@ 0x10000
2fff3ac2:	62e3      	str	r3, [r4, #44]	@ 0x2c
2fff3ac4:	f8d4 3180 	ldr.w	r3, [r4, #384]	@ 0x180
2fff3ac8:	f043 4300 	orr.w	r3, r3, #2147483648	@ 0x80000000
2fff3acc:	f8c4 3180 	str.w	r3, [r4, #384]	@ 0x180
2fff3ad0:	6ae3      	ldr	r3, [r4, #44]	@ 0x2c
2fff3ad2:	f023 5380 	bic.w	r3, r3, #268435456	@ 0x10000000
2fff3ad6:	62e3      	str	r3, [r4, #44]	@ 0x2c
2fff3ad8:	f7f6 fe52 	bl	2ffea780 <udelay>
2fff3adc:	f7fd fd86 	bl	2fff15ec <stm32mp_pwr_regs_lock>
2fff3ae0:	f8d9 300c 	ldr.w	r3, [r9, #12]
2fff3ae4:	f443 5380 	orr.w	r3, r3, #4096	@ 0x1000
2fff3ae8:	f8c9 300c 	str.w	r3, [r9, #12]
2fff3aec:	f7fd fd8a 	bl	2fff1604 <stm32mp_pwr_regs_unlock>
2fff3af0:	f7f8 fd3e 	bl	2ffec570 <stm32mp1_clk_rcc_regs_lock>
2fff3af4:	f8d5 30d8 	ldr.w	r3, [r5, #216]	@ 0xd8
2fff3af8:	f043 7380 	orr.w	r3, r3, #16777216	@ 0x1000000
2fff3afc:	f8c5 30d8 	str.w	r3, [r5, #216]	@ 0xd8
2fff3b00:	f8d5 30d8 	ldr.w	r3, [r5, #216]	@ 0xd8
2fff3b04:	f023 0310 	bic.w	r3, r3, #16
2fff3b08:	f8c5 30d8 	str.w	r3, [r5, #216]	@ 0xd8
2fff3b0c:	f7f8 fd36 	bl	2ffec57c <stm32mp1_clk_rcc_regs_unlock>
2fff3b10:	6963      	ldr	r3, [r4, #20]
2fff3b12:	f043 4300 	orr.w	r3, r3, #2147483648	@ 0x80000000
2fff3b16:	6163      	str	r3, [r4, #20]
2fff3b18:	f8d4 31cc 	ldr.w	r3, [r4, #460]	@ 0x1cc
2fff3b1c:	f043 4300 	orr.w	r3, r3, #2147483648	@ 0x80000000
2fff3b20:	f8c4 31cc 	str.w	r3, [r4, #460]	@ 0x1cc
2fff3b24:	f8d4 320c 	ldr.w	r3, [r4, #524]	@ 0x20c
2fff3b28:	f043 4300 	orr.w	r3, r3, #2147483648	@ 0x80000000
2fff3b2c:	f8c4 320c 	str.w	r3, [r4, #524]	@ 0x20c
2fff3b30:	f8d4 324c 	ldr.w	r3, [r4, #588]	@ 0x24c
2fff3b34:	f043 4300 	orr.w	r3, r3, #2147483648	@ 0x80000000
2fff3b38:	f8c4 324c 	str.w	r3, [r4, #588]	@ 0x24c
2fff3b3c:	f8d4 328c 	ldr.w	r3, [r4, #652]	@ 0x28c
2fff3b40:	f043 4300 	orr.w	r3, r3, #2147483648	@ 0x80000000
2fff3b44:	f8c4 328c 	str.w	r3, [r4, #652]	@ 0x28c
2fff3b48:	f7f8 fd12 	bl	2ffec570 <stm32mp1_clk_rcc_regs_lock>
2fff3b4c:	f8d5 30d8 	ldr.w	r3, [r5, #216]	@ 0xd8
2fff3b50:	f423 7311 	bic.w	r3, r3, #580	@ 0x244
2fff3b54:	f023 0301 	bic.w	r3, r3, #1
2fff3b58:	f8c5 30d8 	str.w	r3, [r5, #216]	@ 0xd8
2fff3b5c:	f7f8 fd0e 	bl	2ffec57c <stm32mp1_clk_rcc_regs_unlock>
2fff3b60:	f7fd fd44 	bl	2fff15ec <stm32mp_pwr_regs_lock>
2fff3b64:	f8d8 300c 	ldr.w	r3, [r8, #12]
2fff3b68:	f443 6380 	orr.w	r3, r3, #1024	@ 0x400
2fff3b6c:	f8c8 300c 	str.w	r3, [r8, #12]
2fff3b70:	f7fd fd48 	bl	2fff1604 <stm32mp_pwr_regs_unlock>
2fff3b74:	4638      	mov	r0, r7
2fff3b76:	e8bd 83f8 	ldmia.w	sp!, {r3, r4, r5, r6, r7, r8, r9, pc}

2fff3b7a <stm32mp_ddr_start_sw_done>:
2fff3b7a:	f8d0 3320 	ldr.w	r3, [r0, #800]	@ 0x320
2fff3b7e:	f023 0301 	bic.w	r3, r3, #1
2fff3b82:	f8c0 3320 	str.w	r3, [r0, #800]	@ 0x320
2fff3b86:	4770      	bx	lr

2fff3b88 <stm32mp_ddr_wait_sw_done_ack>:
2fff3b88:	b538      	push	{r3, r4, r5, lr}
2fff3b8a:	f8d0 3320 	ldr.w	r3, [r0, #800]	@ 0x320
2fff3b8e:	f043 0301 	orr.w	r3, r3, #1
2fff3b92:	f8c0 3320 	str.w	r3, [r0, #800]	@ 0x320
2fff3b96:	ee1e 3f10 	mrc	15, 0, r3, cr14, cr0, {0}
2fff3b9a:	ec55 4f0e 	mrrc	15, 0, r4, r5, cr14
2fff3b9e:	191b      	adds	r3, r3, r4
2fff3ba0:	f145 0100 	adc.w	r1, r5, #0
2fff3ba4:	f8d0 2324 	ldr.w	r2, [r0, #804]	@ 0x324
2fff3ba8:	ec55 4f0e 	mrrc	15, 0, r4, r5, cr14
2fff3bac:	42a3      	cmp	r3, r4
2fff3bae:	eb71 0405 	sbcs.w	r4, r1, r5
2fff3bb2:	d203      	bcs.n	2fff3bbc <stm32mp_ddr_wait_sw_done_ack+0x34>
2fff3bb4:	f7f6 fdd0 	bl	2ffea758 <console_flush>
2fff3bb8:	f7f5 eb5c 	blx	2ffe9274 <el3_panic>
2fff3bbc:	07d2      	lsls	r2, r2, #31
2fff3bbe:	d5f1      	bpl.n	2fff3ba4 <stm32mp_ddr_wait_sw_done_ack+0x1c>
2fff3bc0:	bd38      	pop	{r3, r4, r5, pc}

2fff3bc2 <stm32mp_ddr_enable_axi_port>:
2fff3bc2:	f8d0 3490 	ldr.w	r3, [r0, #1168]	@ 0x490
2fff3bc6:	f043 0301 	orr.w	r3, r3, #1
2fff3bca:	f8c0 3490 	str.w	r3, [r0, #1168]	@ 0x490
2fff3bce:	f8d0 3540 	ldr.w	r3, [r0, #1344]	@ 0x540
2fff3bd2:	f043 0301 	orr.w	r3, r3, #1
2fff3bd6:	f8c0 3540 	str.w	r3, [r0, #1344]	@ 0x540
2fff3bda:	4770      	bx	lr

2fff3bdc <stm32mp_ddr_disable_axi_port>:
2fff3bdc:	f8d0 3490 	ldr.w	r3, [r0, #1168]	@ 0x490
2fff3be0:	b530      	push	{r4, r5, lr}
2fff3be2:	f023 0301 	bic.w	r3, r3, #1
2fff3be6:	f8c0 3490 	str.w	r3, [r0, #1168]	@ 0x490
2fff3bea:	f8d0 3540 	ldr.w	r3, [r0, #1344]	@ 0x540
2fff3bee:	f023 0301 	bic.w	r3, r3, #1
2fff3bf2:	f8c0 3540 	str.w	r3, [r0, #1344]	@ 0x540
2fff3bf6:	ee1e 3f10 	mrc	15, 0, r3, cr14, cr0, {0}
2fff3bfa:	ec55 4f0e 	mrrc	15, 0, r4, r5, cr14
2fff3bfe:	191a      	adds	r2, r3, r4
2fff3c00:	f145 0100 	adc.w	r1, r5, #0
2fff3c04:	f8d0 33fc 	ldr.w	r3, [r0, #1020]	@ 0x3fc
2fff3c08:	ec55 4f0e 	mrrc	15, 0, r4, r5, cr14
2fff3c0c:	42a2      	cmp	r2, r4
2fff3c0e:	eb71 0405 	sbcs.w	r4, r1, r5
2fff3c12:	d303      	bcc.n	2fff3c1c <stm32mp_ddr_disable_axi_port+0x40>
2fff3c14:	2b00      	cmp	r3, #0
2fff3c16:	d1f5      	bne.n	2fff3c04 <stm32mp_ddr_disable_axi_port+0x28>
2fff3c18:	4618      	mov	r0, r3
2fff3c1a:	bd30      	pop	{r4, r5, pc}
2fff3c1c:	f04f 30ff 	mov.w	r0, #4294967295	@ 0xffffffff
2fff3c20:	e7fb      	b.n	2fff3c1a <stm32mp_ddr_disable_axi_port+0x3e>

2fff3c22 <stm32mp_ddr_enable_host_interface>:
2fff3c22:	f8d0 3304 	ldr.w	r3, [r0, #772]	@ 0x304
2fff3c26:	f023 0302 	bic.w	r3, r3, #2
2fff3c2a:	f8c0 3304 	str.w	r3, [r0, #772]	@ 0x304
2fff3c2e:	4770      	bx	lr

2fff3c30 <stm32mp_ddr_disable_host_interface>:
2fff3c30:	f8d0 3304 	ldr.w	r3, [r0, #772]	@ 0x304
2fff3c34:	b570      	push	{r4, r5, r6, lr}
2fff3c36:	f043 0302 	orr.w	r3, r3, #2
2fff3c3a:	f8c0 3304 	str.w	r3, [r0, #772]	@ 0x304
2fff3c3e:	ee1e 3f10 	mrc	15, 0, r3, cr14, cr0, {0}
2fff3c42:	ec55 4f0e 	mrrc	15, 0, r4, r5, cr14
2fff3c46:	191b      	adds	r3, r3, r4
2fff3c48:	f04f 0200 	mov.w	r2, #0
2fff3c4c:	f145 0600 	adc.w	r6, r5, #0
2fff3c50:	f8d0 1308 	ldr.w	r1, [r0, #776]	@ 0x308
2fff3c54:	ec55 4f0e 	mrrc	15, 0, r4, r5, cr14
2fff3c58:	42a3      	cmp	r3, r4
2fff3c5a:	eb76 0405 	sbcs.w	r4, r6, r5
2fff3c5e:	d203      	bcs.n	2fff3c68 <stm32mp_ddr_disable_host_interface+0x38>
2fff3c60:	f7f6 fd7a 	bl	2ffea758 <console_flush>
2fff3c64:	f7f5 eb06 	blx	2ffe9274 <el3_panic>
2fff3c68:	f001 5158 	and.w	r1, r1, #905969664	@ 0x36000000
2fff3c6c:	3201      	adds	r2, #1
2fff3c6e:	f1b1 5f58 	cmp.w	r1, #905969664	@ 0x36000000
2fff3c72:	d1ed      	bne.n	2fff3c50 <stm32mp_ddr_disable_host_interface+0x20>
2fff3c74:	2a01      	cmp	r2, #1
2fff3c76:	d0eb      	beq.n	2fff3c50 <stm32mp_ddr_disable_host_interface+0x20>
2fff3c78:	bd70      	pop	{r4, r5, r6, pc}

2fff3c7a <stm32mp_ddr_sw_selfref_exit>:
2fff3c7a:	6b03      	ldr	r3, [r0, #48]	@ 0x30
2fff3c7c:	f023 0320 	bic.w	r3, r3, #32
2fff3c80:	6303      	str	r3, [r0, #48]	@ 0x30
2fff3c82:	4770      	bx	lr

2fff3c84 <stm32mp_ddr_wait_refresh_update_done_ack>:
2fff3c84:	6e03      	ldr	r3, [r0, #96]	@ 0x60
2fff3c86:	b570      	push	{r4, r5, r6, lr}
2fff3c88:	f013 0302 	ands.w	r3, r3, #2
2fff3c8c:	bf17      	itett	ne
2fff3c8e:	6e03      	ldrne	r3, [r0, #96]	@ 0x60
2fff3c90:	6e02      	ldreq	r2, [r0, #96]	@ 0x60
2fff3c92:	f023 0302 	bicne.w	r3, r3, #2
2fff3c96:	6603      	strne	r3, [r0, #96]	@ 0x60
2fff3c98:	bf06      	itte	eq
2fff3c9a:	f042 0202 	orreq.w	r2, r2, #2
2fff3c9e:	6602      	streq	r2, [r0, #96]	@ 0x60
2fff3ca0:	2302      	movne	r3, #2
2fff3ca2:	ee1e 2f10 	mrc	15, 0, r2, cr14, cr0, {0}
2fff3ca6:	ec55 4f0e 	mrrc	15, 0, r4, r5, cr14
2fff3caa:	1912      	adds	r2, r2, r4
2fff3cac:	f145 0600 	adc.w	r6, r5, #0
2fff3cb0:	6e01      	ldr	r1, [r0, #96]	@ 0x60
2fff3cb2:	ec55 4f0e 	mrrc	15, 0, r4, r5, cr14
2fff3cb6:	42a2      	cmp	r2, r4
2fff3cb8:	eb76 0405 	sbcs.w	r4, r6, r5
2fff3cbc:	d203      	bcs.n	2fff3cc6 <stm32mp_ddr_wait_refresh_update_done_ack+0x42>
2fff3cbe:	f7f6 fd4b 	bl	2ffea758 <console_flush>
2fff3cc2:	f7f5 ead8 	blx	2ffe9274 <el3_panic>
2fff3cc6:	f001 0102 	and.w	r1, r1, #2
2fff3cca:	4299      	cmp	r1, r3
2fff3ccc:	d0f0      	beq.n	2fff3cb0 <stm32mp_ddr_wait_refresh_update_done_ack+0x2c>
2fff3cce:	bd70      	pop	{r4, r5, r6, pc}

2fff3cd0 <stm32mp_ddr_test_rw_access>:
2fff3cd0:	f04f 4040 	mov.w	r0, #3221225472	@ 0xc0000000
2fff3cd4:	f04f 32aa 	mov.w	r2, #2863311530	@ 0xaaaaaaaa
2fff3cd8:	6803      	ldr	r3, [r0, #0]
2fff3cda:	6002      	str	r2, [r0, #0]
2fff3cdc:	6802      	ldr	r2, [r0, #0]
2fff3cde:	f1b2 3faa 	cmp.w	r2, #2863311530	@ 0xaaaaaaaa
2fff3ce2:	bf04      	itt	eq
2fff3ce4:	6003      	streq	r3, [r0, #0]
2fff3ce6:	2000      	moveq	r0, #0
2fff3ce8:	4770      	bx	lr

2fff3cea <stm32mp_ddr_test_data_bus>:
2fff3cea:	2020      	movs	r0, #32
2fff3cec:	2301      	movs	r3, #1
2fff3cee:	f04f 4240 	mov.w	r2, #3221225472	@ 0xc0000000
2fff3cf2:	6013      	str	r3, [r2, #0]
2fff3cf4:	6811      	ldr	r1, [r2, #0]
2fff3cf6:	4299      	cmp	r1, r3
2fff3cf8:	d103      	bne.n	2fff3d02 <stm32mp_ddr_test_data_bus+0x18>
2fff3cfa:	005b      	lsls	r3, r3, #1
2fff3cfc:	3801      	subs	r0, #1
2fff3cfe:	d1f8      	bne.n	2fff3cf2 <stm32mp_ddr_test_data_bus+0x8>
2fff3d00:	4770      	bx	lr
2fff3d02:	f04f 4040 	mov.w	r0, #3221225472	@ 0xc0000000
2fff3d06:	4770      	bx	lr

2fff3d08 <stm32mp_ddr_test_addr_bus>:
2fff3d08:	1e43      	subs	r3, r0, #1
2fff3d0a:	2204      	movs	r2, #4
2fff3d0c:	f04f 31aa 	mov.w	r1, #2863311530	@ 0xaaaaaaaa
2fff3d10:	b5f0      	push	{r4, r5, r6, r7, lr}
2fff3d12:	421a      	tst	r2, r3
2fff3d14:	d113      	bne.n	2fff3d3e <stm32mp_ddr_test_addr_bus+0x36>
2fff3d16:	f04f 4240 	mov.w	r2, #3221225472	@ 0xc0000000
2fff3d1a:	f04f 3155 	mov.w	r1, #1431655765	@ 0x55555555
2fff3d1e:	6011      	str	r1, [r2, #0]
2fff3d20:	2204      	movs	r2, #4
2fff3d22:	421a      	tst	r2, r3
2fff3d24:	d110      	bne.n	2fff3d48 <stm32mp_ddr_test_addr_bus+0x40>
2fff3d26:	f04f 4440 	mov.w	r4, #3221225472	@ 0xc0000000
2fff3d2a:	2204      	movs	r2, #4
2fff3d2c:	f04f 3755 	mov.w	r7, #1431655765	@ 0x55555555
2fff3d30:	f04f 35aa 	mov.w	r5, #2863311530	@ 0xaaaaaaaa
2fff3d34:	6025      	str	r5, [r4, #0]
2fff3d36:	ea12 0003 	ands.w	r0, r2, r3
2fff3d3a:	d10d      	bne.n	2fff3d58 <stm32mp_ddr_test_addr_bus+0x50>
2fff3d3c:	bdf0      	pop	{r4, r5, r6, r7, pc}
2fff3d3e:	f102 4040 	add.w	r0, r2, #3221225472	@ 0xc0000000
2fff3d42:	0052      	lsls	r2, r2, #1
2fff3d44:	6001      	str	r1, [r0, #0]
2fff3d46:	e7e4      	b.n	2fff3d12 <stm32mp_ddr_test_addr_bus+0xa>
2fff3d48:	f102 4040 	add.w	r0, r2, #3221225472	@ 0xc0000000
2fff3d4c:	6801      	ldr	r1, [r0, #0]
2fff3d4e:	f1b1 3faa 	cmp.w	r1, #2863311530	@ 0xaaaaaaaa
2fff3d52:	d1f3      	bne.n	2fff3d3c <stm32mp_ddr_test_addr_bus+0x34>
2fff3d54:	0052      	lsls	r2, r2, #1
2fff3d56:	e7e4      	b.n	2fff3d22 <stm32mp_ddr_test_addr_bus+0x1a>
2fff3d58:	f102 4640 	add.w	r6, r2, #3221225472	@ 0xc0000000
2fff3d5c:	6037      	str	r7, [r6, #0]
2fff3d5e:	6821      	ldr	r1, [r4, #0]
2fff3d60:	f1b1 3faa 	cmp.w	r1, #2863311530	@ 0xaaaaaaaa
2fff3d64:	d110      	bne.n	2fff3d88 <stm32mp_ddr_test_addr_bus+0x80>
2fff3d66:	2104      	movs	r1, #4
2fff3d68:	4219      	tst	r1, r3
2fff3d6a:	d102      	bne.n	2fff3d72 <stm32mp_ddr_test_addr_bus+0x6a>
2fff3d6c:	0052      	lsls	r2, r2, #1
2fff3d6e:	6035      	str	r5, [r6, #0]
2fff3d70:	e7e1      	b.n	2fff3d36 <stm32mp_ddr_test_addr_bus+0x2e>
2fff3d72:	f101 4040 	add.w	r0, r1, #3221225472	@ 0xc0000000
2fff3d76:	f8d0 c000 	ldr.w	ip, [r0]
2fff3d7a:	f1bc 3faa 	cmp.w	ip, #2863311530	@ 0xaaaaaaaa
2fff3d7e:	d001      	beq.n	2fff3d84 <stm32mp_ddr_test_addr_bus+0x7c>
2fff3d80:	4291      	cmp	r1, r2
2fff3d82:	d1db      	bne.n	2fff3d3c <stm32mp_ddr_test_addr_bus+0x34>
2fff3d84:	0049      	lsls	r1, r1, #1
2fff3d86:	e7ef      	b.n	2fff3d68 <stm32mp_ddr_test_addr_bus+0x60>
2fff3d88:	f04f 4040 	mov.w	r0, #3221225472	@ 0xc0000000
2fff3d8c:	e7d6      	b.n	2fff3d3c <stm32mp_ddr_test_addr_bus+0x34>

2fff3d8e <stm32mp_ddr_check_size>:
2fff3d8e:	f04f 4240 	mov.w	r2, #3221225472	@ 0xc0000000
2fff3d92:	f04f 33aa 	mov.w	r3, #2863311530	@ 0xaaaaaaaa
2fff3d96:	b510      	push	{r4, lr}
2fff3d98:	2004      	movs	r0, #4
2fff3d9a:	6013      	str	r3, [r2, #0]
2fff3d9c:	f04f 3155 	mov.w	r1, #1431655765	@ 0x55555555
2fff3da0:	231c      	movs	r3, #28
2fff3da2:	f100 4440 	add.w	r4, r0, #3221225472	@ 0xc0000000
2fff3da6:	6021      	str	r1, [r4, #0]
2fff3da8:	f3bf 8f4f 	dsb	sy
2fff3dac:	6814      	ldr	r4, [r2, #0]
2fff3dae:	f1b4 3faa 	cmp.w	r4, #2863311530	@ 0xaaaaaaaa
2fff3db2:	d102      	bne.n	2fff3dba <stm32mp_ddr_check_size+0x2c>
2fff3db4:	0040      	lsls	r0, r0, #1
2fff3db6:	3b01      	subs	r3, #1
2fff3db8:	d1f3      	bne.n	2fff3da2 <stm32mp_ddr_check_size+0x14>
2fff3dba:	bd10      	pop	{r4, pc}

2fff3dbc <fdt32_to_cpu>:
2fff3dbc:	ba00      	rev	r0, r0
2fff3dbe:	4770      	bx	lr

2fff3dc0 <i2c_wait_flag>:
2fff3dc0:	6803      	ldr	r3, [r0, #0]
2fff3dc2:	f002 0201 	and.w	r2, r2, #1
2fff3dc6:	b5f0      	push	{r4, r5, r6, r7, lr}
2fff3dc8:	3318      	adds	r3, #24
2fff3dca:	9f05      	ldr	r7, [sp, #20]
2fff3dcc:	9e06      	ldr	r6, [sp, #24]
2fff3dce:	681c      	ldr	r4, [r3, #0]
2fff3dd0:	4221      	tst	r1, r4
2fff3dd2:	bf14      	ite	ne
2fff3dd4:	2401      	movne	r4, #1
2fff3dd6:	2400      	moveq	r4, #0
2fff3dd8:	4294      	cmp	r4, r2
2fff3dda:	d111      	bne.n	2fff3e00 <i2c_wait_flag+0x40>
2fff3ddc:	ec55 4f0e 	mrrc	15, 0, r4, r5, cr14
2fff3de0:	42a7      	cmp	r7, r4
2fff3de2:	eb76 0405 	sbcs.w	r4, r6, r5
2fff3de6:	d2f2      	bcs.n	2fff3dce <i2c_wait_flag+0xe>
2fff3de8:	6983      	ldr	r3, [r0, #24]
2fff3dea:	2220      	movs	r2, #32
2fff3dec:	6102      	str	r2, [r0, #16]
2fff3dee:	f043 0320 	orr.w	r3, r3, #32
2fff3df2:	6183      	str	r3, [r0, #24]
2fff3df4:	2300      	movs	r3, #0
2fff3df6:	6143      	str	r3, [r0, #20]
2fff3df8:	7303      	strb	r3, [r0, #12]
2fff3dfa:	f06f 0004 	mvn.w	r0, #4
2fff3dfe:	bdf0      	pop	{r4, r5, r6, r7, pc}
2fff3e00:	2000      	movs	r0, #0
2fff3e02:	e7fc      	b.n	2fff3dfe <i2c_wait_flag+0x3e>

2fff3e04 <i2c_ack_failed>:
2fff3e04:	b5f0      	push	{r4, r5, r6, r7, lr}
2fff3e06:	4601      	mov	r1, r0
2fff3e08:	6804      	ldr	r4, [r0, #0]
2fff3e0a:	69a0      	ldr	r0, [r4, #24]
2fff3e0c:	f104 0518 	add.w	r5, r4, #24
2fff3e10:	f010 0010 	ands.w	r0, r0, #16
2fff3e14:	d03b      	beq.n	2fff3e8e <i2c_ack_failed+0x8a>
2fff3e16:	6828      	ldr	r0, [r5, #0]
2fff3e18:	f010 0020 	ands.w	r0, r0, #32
2fff3e1c:	d026      	beq.n	2fff3e6c <i2c_ack_failed+0x68>
2fff3e1e:	2310      	movs	r3, #16
2fff3e20:	2220      	movs	r2, #32
2fff3e22:	61e3      	str	r3, [r4, #28]
2fff3e24:	680b      	ldr	r3, [r1, #0]
2fff3e26:	61da      	str	r2, [r3, #28]
2fff3e28:	680b      	ldr	r3, [r1, #0]
2fff3e2a:	699a      	ldr	r2, [r3, #24]
2fff3e2c:	0794      	lsls	r4, r2, #30
2fff3e2e:	bf44      	itt	mi
2fff3e30:	2200      	movmi	r2, #0
2fff3e32:	629a      	strmi	r2, [r3, #40]	@ 0x28
2fff3e34:	680b      	ldr	r3, [r1, #0]
2fff3e36:	699a      	ldr	r2, [r3, #24]
2fff3e38:	07d0      	lsls	r0, r2, #31
2fff3e3a:	bf5e      	ittt	pl
2fff3e3c:	699a      	ldrpl	r2, [r3, #24]
2fff3e3e:	f042 0201 	orrpl.w	r2, r2, #1
2fff3e42:	619a      	strpl	r2, [r3, #24]
2fff3e44:	680a      	ldr	r2, [r1, #0]
2fff3e46:	6853      	ldr	r3, [r2, #4]
2fff3e48:	f023 73ff 	bic.w	r3, r3, #33423360	@ 0x1fe0000
2fff3e4c:	f423 338b 	bic.w	r3, r3, #71168	@ 0x11600
2fff3e50:	f423 73ff 	bic.w	r3, r3, #510	@ 0x1fe
2fff3e54:	f023 0301 	bic.w	r3, r3, #1
2fff3e58:	6053      	str	r3, [r2, #4]
2fff3e5a:	698b      	ldr	r3, [r1, #24]
2fff3e5c:	f043 0304 	orr.w	r3, r3, #4
2fff3e60:	618b      	str	r3, [r1, #24]
2fff3e62:	2320      	movs	r3, #32
2fff3e64:	610b      	str	r3, [r1, #16]
2fff3e66:	2300      	movs	r3, #0
2fff3e68:	614b      	str	r3, [r1, #20]
2fff3e6a:	e00c      	b.n	2fff3e86 <i2c_ack_failed+0x82>
2fff3e6c:	ec57 6f0e 	mrrc	15, 0, r6, r7, cr14
2fff3e70:	42b2      	cmp	r2, r6
2fff3e72:	eb73 0607 	sbcs.w	r6, r3, r7
2fff3e76:	d2ce      	bcs.n	2fff3e16 <i2c_ack_failed+0x12>
2fff3e78:	698b      	ldr	r3, [r1, #24]
2fff3e7a:	6148      	str	r0, [r1, #20]
2fff3e7c:	f043 0320 	orr.w	r3, r3, #32
2fff3e80:	618b      	str	r3, [r1, #24]
2fff3e82:	2320      	movs	r3, #32
2fff3e84:	610b      	str	r3, [r1, #16]
2fff3e86:	f06f 0004 	mvn.w	r0, #4
2fff3e8a:	2300      	movs	r3, #0
2fff3e8c:	730b      	strb	r3, [r1, #12]
2fff3e8e:	bdf0      	pop	{r4, r5, r6, r7, pc}

2fff3e90 <i2c_wait_txis>:
2fff3e90:	b570      	push	{r4, r5, r6, lr}
2fff3e92:	4604      	mov	r4, r0
2fff3e94:	4615      	mov	r5, r2
2fff3e96:	461e      	mov	r6, r3
2fff3e98:	6823      	ldr	r3, [r4, #0]
2fff3e9a:	699b      	ldr	r3, [r3, #24]
2fff3e9c:	079b      	lsls	r3, r3, #30
2fff3e9e:	d501      	bpl.n	2fff3ea4 <i2c_wait_txis+0x14>
2fff3ea0:	2000      	movs	r0, #0
2fff3ea2:	e015      	b.n	2fff3ed0 <i2c_wait_txis+0x40>
2fff3ea4:	462a      	mov	r2, r5
2fff3ea6:	4633      	mov	r3, r6
2fff3ea8:	4620      	mov	r0, r4
2fff3eaa:	f7ff ffab 	bl	2fff3e04 <i2c_ack_failed>
2fff3eae:	b968      	cbnz	r0, 2fff3ecc <i2c_wait_txis+0x3c>
2fff3eb0:	ec53 2f0e 	mrrc	15, 0, r2, r3, cr14
2fff3eb4:	4295      	cmp	r5, r2
2fff3eb6:	eb76 0303 	sbcs.w	r3, r6, r3
2fff3eba:	d2ed      	bcs.n	2fff3e98 <i2c_wait_txis+0x8>
2fff3ebc:	69a3      	ldr	r3, [r4, #24]
2fff3ebe:	6160      	str	r0, [r4, #20]
2fff3ec0:	7320      	strb	r0, [r4, #12]
2fff3ec2:	f043 0320 	orr.w	r3, r3, #32
2fff3ec6:	61a3      	str	r3, [r4, #24]
2fff3ec8:	2320      	movs	r3, #32
2fff3eca:	6123      	str	r3, [r4, #16]
2fff3ecc:	f06f 0004 	mvn.w	r0, #4
2fff3ed0:	bd70      	pop	{r4, r5, r6, pc}

2fff3ed2 <i2c_wait_stop>:
2fff3ed2:	b570      	push	{r4, r5, r6, lr}
2fff3ed4:	4604      	mov	r4, r0
2fff3ed6:	4615      	mov	r5, r2
2fff3ed8:	461e      	mov	r6, r3
2fff3eda:	6823      	ldr	r3, [r4, #0]
2fff3edc:	699b      	ldr	r3, [r3, #24]
2fff3ede:	069b      	lsls	r3, r3, #26
2fff3ee0:	d501      	bpl.n	2fff3ee6 <i2c_wait_stop+0x14>
2fff3ee2:	2000      	movs	r0, #0
2fff3ee4:	e015      	b.n	2fff3f12 <i2c_wait_stop+0x40>
2fff3ee6:	462a      	mov	r2, r5
2fff3ee8:	4633      	mov	r3, r6
2fff3eea:	4620      	mov	r0, r4
2fff3eec:	f7ff ff8a 	bl	2fff3e04 <i2c_ack_failed>
2fff3ef0:	b968      	cbnz	r0, 2fff3f0e <i2c_wait_stop+0x3c>
2fff3ef2:	ec53 2f0e 	mrrc	15, 0, r2, r3, cr14
2fff3ef6:	4295      	cmp	r5, r2
2fff3ef8:	eb76 0303 	sbcs.w	r3, r6, r3
2fff3efc:	d2ed      	bcs.n	2fff3eda <i2c_wait_stop+0x8>
2fff3efe:	69a3      	ldr	r3, [r4, #24]
2fff3f00:	6160      	str	r0, [r4, #20]
2fff3f02:	7320      	strb	r0, [r4, #12]
2fff3f04:	f043 0320 	orr.w	r3, r3, #32
2fff3f08:	61a3      	str	r3, [r4, #24]
2fff3f0a:	2320      	movs	r3, #32
2fff3f0c:	6123      	str	r3, [r4, #16]
2fff3f0e:	f06f 0004 	mvn.w	r0, #4
2fff3f12:	bd70      	pop	{r4, r5, r6, pc}

2fff3f14 <stm32_i2c_mem_write>:
2fff3f14:	b51f      	push	{r0, r1, r2, r3, r4, lr}
2fff3f16:	2440      	movs	r4, #64	@ 0x40
2fff3f18:	9403      	str	r4, [sp, #12]
2fff3f1a:	9c08      	ldr	r4, [sp, #32]
2fff3f1c:	9402      	str	r4, [sp, #8]
2fff3f1e:	f8bd 401c 	ldrh.w	r4, [sp, #28]
2fff3f22:	9401      	str	r4, [sp, #4]
2fff3f24:	9c06      	ldr	r4, [sp, #24]
2fff3f26:	9400      	str	r4, [sp, #0]
2fff3f28:	f7fa fa9a 	bl	2ffee460 <i2c_write>
2fff3f2c:	b004      	add	sp, #16
2fff3f2e:	bd10      	pop	{r4, pc}

2fff3f30 <stm32_i2c_mem_read>:
2fff3f30:	b430      	push	{r4, r5}
2fff3f32:	2540      	movs	r5, #64	@ 0x40
2fff3f34:	f8bd 400c 	ldrh.w	r4, [sp, #12]
2fff3f38:	9504      	str	r5, [sp, #16]
2fff3f3a:	9403      	str	r4, [sp, #12]
2fff3f3c:	bc30      	pop	{r4, r5}
2fff3f3e:	f7fa b997 	b.w	2ffee270 <i2c_read.isra.0>

2fff3f42 <nvmem_cell_read>:
2fff3f42:	b410      	push	{r4}
2fff3f44:	6884      	ldr	r4, [r0, #8]
2fff3f46:	6824      	ldr	r4, [r4, #0]
2fff3f48:	6824      	ldr	r4, [r4, #0]
2fff3f4a:	b114      	cbz	r4, 2fff3f52 <nvmem_cell_read+0x10>
2fff3f4c:	46a4      	mov	ip, r4
2fff3f4e:	bc10      	pop	{r4}
2fff3f50:	4760      	bx	ip
2fff3f52:	bc10      	pop	{r4}
2fff3f54:	f06f 002c 	mvn.w	r0, #44	@ 0x2c
2fff3f58:	4770      	bx	lr

2fff3f5a <nvmem_cell_write>:
2fff3f5a:	6883      	ldr	r3, [r0, #8]
2fff3f5c:	681b      	ldr	r3, [r3, #0]
2fff3f5e:	685b      	ldr	r3, [r3, #4]
2fff3f60:	b103      	cbz	r3, 2fff3f64 <nvmem_cell_write+0xa>
2fff3f62:	4718      	bx	r3
2fff3f64:	f06f 002c 	mvn.w	r0, #44	@ 0x2c
2fff3f68:	4770      	bx	lr

2fff3f6a <fdt32_to_cpu>:
2fff3f6a:	ba00      	rev	r0, r0
2fff3f6c:	4770      	bx	lr

2fff3f6e <stm32_tamp_nvram_reg_get_zone>:
2fff3f6e:	6a43      	ldr	r3, [r0, #36]	@ 0x24
2fff3f70:	69c2      	ldr	r2, [r0, #28]
2fff3f72:	2000      	movs	r0, #0
2fff3f74:	681b      	ldr	r3, [r3, #0]
2fff3f76:	b510      	push	{r4, lr}
2fff3f78:	4298      	cmp	r0, r3
2fff3f7a:	d102      	bne.n	2fff3f82 <stm32_tamp_nvram_reg_get_zone+0x14>
2fff3f7c:	f04f 30ff 	mov.w	r0, #4294967295	@ 0xffffffff
2fff3f80:	e007      	b.n	2fff3f92 <stm32_tamp_nvram_reg_get_zone+0x24>
2fff3f82:	f852 4020 	ldr.w	r4, [r2, r0, lsl #2]
2fff3f86:	428c      	cmp	r4, r1
2fff3f88:	db04      	blt.n	2fff3f94 <stm32_tamp_nvram_reg_get_zone+0x26>
2fff3f8a:	4298      	cmp	r0, r3
2fff3f8c:	bf28      	it	cs
2fff3f8e:	f04f 30ff 	movcs.w	r0, #4294967295	@ 0xffffffff
2fff3f92:	bd10      	pop	{r4, pc}
2fff3f94:	3001      	adds	r0, #1
2fff3f96:	e7ef      	b.n	2fff3f78 <stm32_tamp_nvram_reg_get_zone+0xa>

2fff3f98 <stm32_tamp_nvram_reg_field_read>:
2fff3f98:	b084      	sub	sp, #16
2fff3f9a:	f10d 0c10 	add.w	ip, sp, #16
2fff3f9e:	e90c 000e 	stmdb	ip, {r1, r2, r3}
2fff3fa2:	9b01      	ldr	r3, [sp, #4]
2fff3fa4:	4611      	mov	r1, r2
2fff3fa6:	f04f 32ff 	mov.w	r2, #4294967295	@ 0xffffffff
2fff3faa:	58c0      	ldr	r0, [r0, r3]
2fff3fac:	9b03      	ldr	r3, [sp, #12]
2fff3fae:	f1c3 031f 	rsb	r3, r3, #31
2fff3fb2:	fa22 f303 	lsr.w	r3, r2, r3
2fff3fb6:	408a      	lsls	r2, r1
2fff3fb8:	4013      	ands	r3, r2
2fff3fba:	9a04      	ldr	r2, [sp, #16]
2fff3fbc:	4003      	ands	r3, r0
2fff3fbe:	2000      	movs	r0, #0
2fff3fc0:	40cb      	lsrs	r3, r1
2fff3fc2:	6013      	str	r3, [r2, #0]
2fff3fc4:	b004      	add	sp, #16
2fff3fc6:	4770      	bx	lr

2fff3fc8 <pmic_set_flag>:
2fff3fc8:	2920      	cmp	r1, #32
2fff3fca:	d019      	beq.n	2fff4000 <pmic_set_flag+0x38>
2fff3fcc:	d808      	bhi.n	2fff3fe0 <pmic_set_flag+0x18>
2fff3fce:	2908      	cmp	r1, #8
2fff3fd0:	d010      	beq.n	2fff3ff4 <pmic_set_flag+0x2c>
2fff3fd2:	2910      	cmp	r1, #16
2fff3fd4:	d011      	beq.n	2fff3ffa <pmic_set_flag+0x32>
2fff3fd6:	2904      	cmp	r1, #4
2fff3fd8:	d009      	beq.n	2fff3fee <pmic_set_flag+0x26>
2fff3fda:	f06f 0015 	mvn.w	r0, #21
2fff3fde:	4770      	bx	lr
2fff3fe0:	2940      	cmp	r1, #64	@ 0x40
2fff3fe2:	d010      	beq.n	2fff4006 <pmic_set_flag+0x3e>
2fff3fe4:	2980      	cmp	r1, #128	@ 0x80
2fff3fe6:	d1f8      	bne.n	2fff3fda <pmic_set_flag+0x12>
2fff3fe8:	6800      	ldr	r0, [r0, #0]
2fff3fea:	f7fb bc27 	b.w	2ffef83c <stpmic1_regulator_bypass_mode_set>
2fff3fee:	6800      	ldr	r0, [r0, #0]
2fff3ff0:	f000 b89d 	b.w	2fff412e <stpmic1_regulator_icc_set>
2fff3ff4:	6800      	ldr	r0, [r0, #0]
2fff3ff6:	f7fb bc39 	b.w	2ffef86c <stpmic1_active_discharge_mode_set>
2fff3ffa:	6800      	ldr	r0, [r0, #0]
2fff3ffc:	f000 b873 	b.w	2fff40e6 <stpmic1_regulator_pull_down_set>
2fff4000:	6800      	ldr	r0, [r0, #0]
2fff4002:	f000 b882 	b.w	2fff410a <stpmic1_regulator_mask_reset_set>
2fff4006:	6800      	ldr	r0, [r0, #0]
2fff4008:	f7fb bc00 	b.w	2ffef80c <stpmic1_regulator_sink_mode_set>

2fff400c <pmic_list_voltages>:
2fff400c:	6800      	ldr	r0, [r0, #0]
2fff400e:	f7fb bb05 	b.w	2ffef61c <stpmic1_regulator_levels_mv>

2fff4012 <pmic_get_voltage>:
2fff4012:	6800      	ldr	r0, [r0, #0]
2fff4014:	f7fb bb36 	b.w	2ffef684 <stpmic1_regulator_voltage_get>

2fff4018 <pmic_set_voltage>:
2fff4018:	6800      	ldr	r0, [r0, #0]
2fff401a:	f7fb bbab 	b.w	2ffef774 <stpmic1_regulator_voltage_set>

2fff401e <pmic_get_state>:
2fff401e:	b508      	push	{r3, lr}
2fff4020:	6800      	ldr	r0, [r0, #0]
2fff4022:	f000 f814 	bl	2fff404e <stpmic1_is_regulator_enabled>
2fff4026:	bd08      	pop	{r3, pc}

2fff4028 <pmic_set_state>:
2fff4028:	6800      	ldr	r0, [r0, #0]
2fff402a:	b109      	cbz	r1, 2fff4030 <pmic_set_state+0x8>
2fff402c:	f000 b847 	b.w	2fff40be <stpmic1_regulator_enable>
2fff4030:	f000 b84f 	b.w	2fff40d2 <stpmic1_regulator_disable>

2fff4034 <pmic_voltages_init>:
2fff4034:	2000      	movs	r0, #0
2fff4036:	4770      	bx	lr

2fff4038 <pmic_switch_off>:
2fff4038:	b508      	push	{r3, lr}
2fff403a:	f000 f83b 	bl	2fff40b4 <stpmic1_switch_off>
2fff403e:	b910      	cbnz	r0, 2fff4046 <pmic_switch_off+0xe>
2fff4040:	2064      	movs	r0, #100	@ 0x64
2fff4042:	f7f6 fb9d 	bl	2ffea780 <udelay>
2fff4046:	f7f6 fb87 	bl	2ffea758 <console_flush>
2fff404a:	f7f5 e914 	blx	2ffe9274 <el3_panic>

2fff404e <stpmic1_is_regulator_enabled>:
2fff404e:	b513      	push	{r0, r1, r4, lr}
2fff4050:	f7fb fac2 	bl	2ffef5d8 <get_regulator_data>
2fff4054:	4604      	mov	r4, r0
2fff4056:	f10d 0107 	add.w	r1, sp, #7
2fff405a:	7a40      	ldrb	r0, [r0, #9]
2fff405c:	f7fb fafe 	bl	2ffef65c <stpmic1_register_read>
2fff4060:	b118      	cbz	r0, 2fff406a <stpmic1_is_regulator_enabled+0x1c>
2fff4062:	f7f6 fb79 	bl	2ffea758 <console_flush>
2fff4066:	f7f5 e906 	blx	2ffe9274 <el3_panic>
2fff406a:	7aa3      	ldrb	r3, [r4, #10]
2fff406c:	f89d 2007 	ldrb.w	r2, [sp, #7]
2fff4070:	4393      	bics	r3, r2
2fff4072:	bf0c      	ite	eq
2fff4074:	2001      	moveq	r0, #1
2fff4076:	2000      	movne	r0, #0
2fff4078:	b002      	add	sp, #8
2fff407a:	bd10      	pop	{r4, pc}

2fff407c <stpmic1_register_update>:
2fff407c:	b573      	push	{r0, r1, r4, r5, r6, lr}
2fff407e:	460e      	mov	r6, r1
2fff4080:	f10d 0107 	add.w	r1, sp, #7
2fff4084:	4605      	mov	r5, r0
2fff4086:	4614      	mov	r4, r2
2fff4088:	f7fb fae8 	bl	2ffef65c <stpmic1_register_read>
2fff408c:	b958      	cbnz	r0, 2fff40a6 <stpmic1_register_update+0x2a>
2fff408e:	f89d 3007 	ldrb.w	r3, [sp, #7]
2fff4092:	4628      	mov	r0, r5
2fff4094:	ea23 0304 	bic.w	r3, r3, r4
2fff4098:	4034      	ands	r4, r6
2fff409a:	ea43 0104 	orr.w	r1, r3, r4
2fff409e:	f88d 1007 	strb.w	r1, [sp, #7]
2fff40a2:	f7fb fb37 	bl	2ffef714 <stpmic1_register_write>
2fff40a6:	b002      	add	sp, #8
2fff40a8:	bd70      	pop	{r4, r5, r6, pc}

2fff40aa <stpmic1_powerctrl_on>:
2fff40aa:	2204      	movs	r2, #4
2fff40ac:	2010      	movs	r0, #16
2fff40ae:	4611      	mov	r1, r2
2fff40b0:	f7ff bfe4 	b.w	2fff407c <stpmic1_register_update>

2fff40b4 <stpmic1_switch_off>:
2fff40b4:	2201      	movs	r2, #1
2fff40b6:	2010      	movs	r0, #16
2fff40b8:	4611      	mov	r1, r2
2fff40ba:	f7ff bfdf 	b.w	2fff407c <stpmic1_register_update>

2fff40be <stpmic1_regulator_enable>:
2fff40be:	b508      	push	{r3, lr}
2fff40c0:	f7fb fa8a 	bl	2ffef5d8 <get_regulator_data>
2fff40c4:	7a82      	ldrb	r2, [r0, #10]
2fff40c6:	e8bd 4008 	ldmia.w	sp!, {r3, lr}
2fff40ca:	7a40      	ldrb	r0, [r0, #9]
2fff40cc:	4611      	mov	r1, r2
2fff40ce:	f7ff bfd5 	b.w	2fff407c <stpmic1_register_update>

2fff40d2 <stpmic1_regulator_disable>:
2fff40d2:	b508      	push	{r3, lr}
2fff40d4:	f7fb fa80 	bl	2ffef5d8 <get_regulator_data>
2fff40d8:	7a82      	ldrb	r2, [r0, #10]
2fff40da:	2100      	movs	r1, #0
2fff40dc:	e8bd 4008 	ldmia.w	sp!, {r3, lr}
2fff40e0:	7a40      	ldrb	r0, [r0, #9]
2fff40e2:	f7ff bfcb 	b.w	2fff407c <stpmic1_register_update>

2fff40e6 <stpmic1_regulator_pull_down_set>:
2fff40e6:	b508      	push	{r3, lr}
2fff40e8:	f7fb fa76 	bl	2ffef5d8 <get_regulator_data>
2fff40ec:	4603      	mov	r3, r0
2fff40ee:	7b00      	ldrb	r0, [r0, #12]
2fff40f0:	b150      	cbz	r0, 2fff4108 <stpmic1_regulator_pull_down_set+0x22>
2fff40f2:	7b5b      	ldrb	r3, [r3, #13]
2fff40f4:	2203      	movs	r2, #3
2fff40f6:	2101      	movs	r1, #1
2fff40f8:	409a      	lsls	r2, r3
2fff40fa:	4099      	lsls	r1, r3
2fff40fc:	b2d2      	uxtb	r2, r2
2fff40fe:	e8bd 4008 	ldmia.w	sp!, {r3, lr}
2fff4102:	b2c9      	uxtb	r1, r1
2fff4104:	f7ff bfba 	b.w	2fff407c <stpmic1_register_update>
2fff4108:	bd08      	pop	{r3, pc}

2fff410a <stpmic1_regulator_mask_reset_set>:
2fff410a:	b508      	push	{r3, lr}
2fff410c:	f7fb fa64 	bl	2ffef5d8 <get_regulator_data>
2fff4110:	4603      	mov	r3, r0
2fff4112:	7b80      	ldrb	r0, [r0, #14]
2fff4114:	b140      	cbz	r0, 2fff4128 <stpmic1_regulator_mask_reset_set+0x1e>
2fff4116:	7bdb      	ldrb	r3, [r3, #15]
2fff4118:	2201      	movs	r2, #1
2fff411a:	409a      	lsls	r2, r3
2fff411c:	b2d2      	uxtb	r2, r2
2fff411e:	e8bd 4008 	ldmia.w	sp!, {r3, lr}
2fff4122:	4611      	mov	r1, r2
2fff4124:	f7ff bfaa 	b.w	2fff407c <stpmic1_register_update>
2fff4128:	f04f 30ff 	mov.w	r0, #4294967295	@ 0xffffffff
2fff412c:	bd08      	pop	{r3, pc}

2fff412e <stpmic1_regulator_icc_set>:
2fff412e:	b508      	push	{r3, lr}
2fff4130:	f7fb fa52 	bl	2ffef5d8 <get_regulator_data>
2fff4134:	7b83      	ldrb	r3, [r0, #14]
2fff4136:	b14b      	cbz	r3, 2fff414c <stpmic1_regulator_icc_set+0x1e>
2fff4138:	7c43      	ldrb	r3, [r0, #17]
2fff413a:	2201      	movs	r2, #1
2fff413c:	7c00      	ldrb	r0, [r0, #16]
2fff413e:	409a      	lsls	r2, r3
2fff4140:	b2d2      	uxtb	r2, r2
2fff4142:	e8bd 4008 	ldmia.w	sp!, {r3, lr}
2fff4146:	4611      	mov	r1, r2
2fff4148:	f7ff bf98 	b.w	2fff407c <stpmic1_register_update>
2fff414c:	f04f 30ff 	mov.w	r0, #4294967295	@ 0xffffffff
2fff4150:	bd08      	pop	{r3, pc}

2fff4152 <stpmic1_get_version>:
2fff4152:	b513      	push	{r0, r1, r4, lr}
2fff4154:	4604      	mov	r4, r0
2fff4156:	f10d 0107 	add.w	r1, sp, #7
2fff415a:	2006      	movs	r0, #6
2fff415c:	f7fb fa7e 	bl	2ffef65c <stpmic1_register_read>
2fff4160:	2800      	cmp	r0, #0
2fff4162:	bfa2      	ittt	ge
2fff4164:	2000      	movge	r0, #0
2fff4166:	f89d 3007 	ldrbge.w	r3, [sp, #7]
2fff416a:	6023      	strge	r3, [r4, #0]
2fff416c:	b002      	add	sp, #8
2fff416e:	bd10      	pop	{r4, pc}

2fff4170 <fdt32_to_cpu>:
2fff4170:	ba00      	rev	r0, r0
2fff4172:	4770      	bx	lr

2fff4174 <unlock_driver.isra.0>:
2fff4174:	6843      	ldr	r3, [r0, #4]
2fff4176:	69db      	ldr	r3, [r3, #28]
2fff4178:	b103      	cbz	r3, 2fff417c <unlock_driver.isra.0+0x8>
2fff417a:	4718      	bx	r3
2fff417c:	4770      	bx	lr

2fff417e <lock_driver.isra.0>:
2fff417e:	6843      	ldr	r3, [r0, #4]
2fff4180:	699b      	ldr	r3, [r3, #24]
2fff4182:	b103      	cbz	r3, 2fff4186 <lock_driver.isra.0+0x8>
2fff4184:	4718      	bx	r3
2fff4186:	4770      	bx	lr

2fff4188 <regulator_set_min_voltage>:
2fff4188:	8901      	ldrh	r1, [r0, #8]
2fff418a:	f7fb bc0f 	b.w	2ffef9ac <regulator_set_voltage>

2fff418e <fixed_set_state>:
2fff418e:	2000      	movs	r0, #0
2fff4190:	4770      	bx	lr

2fff4192 <fixed_get_state>:
2fff4192:	2001      	movs	r0, #1
2fff4194:	4770      	bx	lr

2fff4196 <stm32mp_system_reset>:
2fff4196:	b508      	push	{r3, lr}
2fff4198:	f000 f9ed 	bl	2fff4576 <stm32mp_rcc_base>
2fff419c:	f8d0 3404 	ldr.w	r3, [r0, #1028]	@ 0x404
2fff41a0:	f043 0301 	orr.w	r3, r3, #1
2fff41a4:	f8c0 3404 	str.w	r3, [r0, #1028]	@ 0x404
2fff41a8:	e7fe      	b.n	2fff41a8 <stm32mp_system_reset+0x12>

2fff41aa <stm32_qspi_read_fifo>:
2fff41aa:	780b      	ldrb	r3, [r1, #0]
2fff41ac:	7003      	strb	r3, [r0, #0]
2fff41ae:	4770      	bx	lr

2fff41b0 <stm32_qspi_write_fifo>:
2fff41b0:	7803      	ldrb	r3, [r0, #0]
2fff41b2:	700b      	strb	r3, [r1, #0]
2fff41b4:	4770      	bx	lr

2fff41b6 <__ctzdi2>:
2fff41b6:	fab0 f280 	clz	r2, r0
2fff41ba:	0952      	lsrs	r2, r2, #5
2fff41bc:	1e53      	subs	r3, r2, #1
2fff41be:	2a00      	cmp	r2, #0
2fff41c0:	ea03 0300 	and.w	r3, r3, r0
2fff41c4:	bf08      	it	eq
2fff41c6:	2100      	moveq	r1, #0
2fff41c8:	430b      	orrs	r3, r1
2fff41ca:	fa93 f3a3 	rbit	r3, r3
2fff41ce:	fab3 f383 	clz	r3, r3
2fff41d2:	eb03 1042 	add.w	r0, r3, r2, lsl #5
2fff41d6:	4770      	bx	lr

2fff41d8 <__udivmoddi4>:
2fff41d8:	e92d 41f0 	stmdb	sp!, {r4, r5, r6, r7, r8, lr}
2fff41dc:	469e      	mov	lr, r3
2fff41de:	9e06      	ldr	r6, [sp, #24]
2fff41e0:	b959      	cbnz	r1, 2fff41fa <__udivmoddi4+0x22>
2fff41e2:	bb63      	cbnz	r3, 2fff423e <__udivmoddi4+0x66>
2fff41e4:	fbb0 f1f2 	udiv	r1, r0, r2
2fff41e8:	b11e      	cbz	r6, 2fff41f2 <__udivmoddi4+0x1a>
2fff41ea:	fb02 0011 	mls	r0, r2, r1, r0
2fff41ee:	e9c6 0300 	strd	r0, r3, [r6]
2fff41f2:	4608      	mov	r0, r1
2fff41f4:	2100      	movs	r1, #0
2fff41f6:	e8bd 81f0 	ldmia.w	sp!, {r4, r5, r6, r7, r8, pc}
2fff41fa:	bb82      	cbnz	r2, 2fff425e <__udivmoddi4+0x86>
2fff41fc:	b903      	cbnz	r3, 2fff4200 <__udivmoddi4+0x28>
2fff41fe:	deff      	udf	#255	@ 0xff
2fff4200:	b940      	cbnz	r0, 2fff4214 <__udivmoddi4+0x3c>
2fff4202:	fbb1 f2f3 	udiv	r2, r1, r3
2fff4206:	b11e      	cbz	r6, 2fff4210 <__udivmoddi4+0x38>
2fff4208:	fb03 1112 	mls	r1, r3, r2, r1
2fff420c:	e9c6 0100 	strd	r0, r1, [r6]
2fff4210:	4610      	mov	r0, r2
2fff4212:	e7ef      	b.n	2fff41f4 <__udivmoddi4+0x1c>
2fff4214:	1e5c      	subs	r4, r3, #1
2fff4216:	421c      	tst	r4, r3
2fff4218:	d10a      	bne.n	2fff4230 <__udivmoddi4+0x58>
2fff421a:	b116      	cbz	r6, 2fff4222 <__udivmoddi4+0x4a>
2fff421c:	400c      	ands	r4, r1
2fff421e:	e9c6 0400 	strd	r0, r4, [r6]
2fff4222:	fa93 f3a3 	rbit	r3, r3
2fff4226:	fab3 f383 	clz	r3, r3
2fff422a:	fa21 f003 	lsr.w	r0, r1, r3
2fff422e:	e7e1      	b.n	2fff41f4 <__udivmoddi4+0x1c>
2fff4230:	fab3 f483 	clz	r4, r3
2fff4234:	fab1 f581 	clz	r5, r1
2fff4238:	1b64      	subs	r4, r4, r5
2fff423a:	2c1e      	cmp	r4, #30
2fff423c:	d904      	bls.n	2fff4248 <__udivmoddi4+0x70>
2fff423e:	b10e      	cbz	r6, 2fff4244 <__udivmoddi4+0x6c>
2fff4240:	e9c6 0100 	strd	r0, r1, [r6]
2fff4244:	2000      	movs	r0, #0
2fff4246:	e7d5      	b.n	2fff41f4 <__udivmoddi4+0x1c>
2fff4248:	f104 0c01 	add.w	ip, r4, #1
2fff424c:	4617      	mov	r7, r2
2fff424e:	f1c4 041f 	rsb	r4, r4, #31
2fff4252:	fa21 fe0c 	lsr.w	lr, r1, ip
2fff4256:	fa00 f804 	lsl.w	r8, r0, r4
2fff425a:	40a1      	lsls	r1, r4
2fff425c:	e031      	b.n	2fff42c2 <__udivmoddi4+0xea>
2fff425e:	2b00      	cmp	r3, #0
2fff4260:	d167      	bne.n	2fff4332 <__udivmoddi4+0x15a>
2fff4262:	1e54      	subs	r4, r2, #1
2fff4264:	ea14 0502 	ands.w	r5, r4, r2
2fff4268:	d111      	bne.n	2fff428e <__udivmoddi4+0xb6>
2fff426a:	b116      	cbz	r6, 2fff4272 <__udivmoddi4+0x9a>
2fff426c:	4004      	ands	r4, r0
2fff426e:	e9c6 4500 	strd	r4, r5, [r6]
2fff4272:	2a01      	cmp	r2, #1
2fff4274:	d0bf      	beq.n	2fff41f6 <__udivmoddi4+0x1e>
2fff4276:	fa92 f2a2 	rbit	r2, r2
2fff427a:	fab2 f282 	clz	r2, r2
2fff427e:	f1c2 0320 	rsb	r3, r2, #32
2fff4282:	40d0      	lsrs	r0, r2
2fff4284:	fa01 f303 	lsl.w	r3, r1, r3
2fff4288:	4318      	orrs	r0, r3
2fff428a:	40d1      	lsrs	r1, r2
2fff428c:	e7b3      	b.n	2fff41f6 <__udivmoddi4+0x1e>
2fff428e:	fab1 f581 	clz	r5, r1
2fff4292:	fab2 f482 	clz	r4, r2
2fff4296:	1b64      	subs	r4, r4, r5
2fff4298:	1c65      	adds	r5, r4, #1
2fff429a:	f104 0c21 	add.w	ip, r4, #33	@ 0x21
2fff429e:	d105      	bne.n	2fff42ac <__udivmoddi4+0xd4>
2fff42a0:	461f      	mov	r7, r3
2fff42a2:	4680      	mov	r8, r0
2fff42a4:	2500      	movs	r5, #0
2fff42a6:	f04f 0c20 	mov.w	ip, #32
2fff42aa:	e00e      	b.n	2fff42ca <__udivmoddi4+0xf2>
2fff42ac:	f1bc 0f1f 	cmp.w	ip, #31
2fff42b0:	d833      	bhi.n	2fff431a <__udivmoddi4+0x142>
2fff42b2:	f1cc 0520 	rsb	r5, ip, #32
2fff42b6:	461f      	mov	r7, r3
2fff42b8:	fa21 fe0c 	lsr.w	lr, r1, ip
2fff42bc:	fa00 f805 	lsl.w	r8, r0, r5
2fff42c0:	40a9      	lsls	r1, r5
2fff42c2:	fa20 f00c 	lsr.w	r0, r0, ip
2fff42c6:	4301      	orrs	r1, r0
2fff42c8:	4675      	mov	r5, lr
2fff42ca:	2000      	movs	r0, #0
2fff42cc:	0fcc      	lsrs	r4, r1, #31
2fff42ce:	ea44 0545 	orr.w	r5, r4, r5, lsl #1
2fff42d2:	ea4f 74d8 	mov.w	r4, r8, lsr #31
2fff42d6:	ea44 0141 	orr.w	r1, r4, r1, lsl #1
2fff42da:	0ffc      	lsrs	r4, r7, #31
2fff42dc:	ea40 0747 	orr.w	r7, r0, r7, lsl #1
2fff42e0:	1a50      	subs	r0, r2, r1
2fff42e2:	ea44 0848 	orr.w	r8, r4, r8, lsl #1
2fff42e6:	eb63 0405 	sbc.w	r4, r3, r5
2fff42ea:	3801      	subs	r0, #1
2fff42ec:	f144 34ff 	adc.w	r4, r4, #4294967295	@ 0xffffffff
2fff42f0:	ea02 7ee4 	and.w	lr, r2, r4, asr #31
2fff42f4:	ebb1 010e 	subs.w	r1, r1, lr
2fff42f8:	ea4f 70d4 	mov.w	r0, r4, lsr #31
2fff42fc:	ea03 74e4 	and.w	r4, r3, r4, asr #31
2fff4300:	eb65 0e04 	sbc.w	lr, r5, r4
2fff4304:	f1bc 0c01 	subs.w	ip, ip, #1
2fff4308:	4675      	mov	r5, lr
2fff430a:	d1df      	bne.n	2fff42cc <__udivmoddi4+0xf4>
2fff430c:	bb0e      	cbnz	r6, 2fff4352 <__udivmoddi4+0x17a>
2fff430e:	19ff      	adds	r7, r7, r7
2fff4310:	eb48 0808 	adc.w	r8, r8, r8
2fff4314:	4338      	orrs	r0, r7
2fff4316:	4641      	mov	r1, r8
2fff4318:	e76d      	b.n	2fff41f6 <__udivmoddi4+0x1e>
2fff431a:	f1cc 0840 	rsb	r8, ip, #64	@ 0x40
2fff431e:	3401      	adds	r4, #1
2fff4320:	fa00 f708 	lsl.w	r7, r0, r8
2fff4324:	fa01 f808 	lsl.w	r8, r1, r8
2fff4328:	40e0      	lsrs	r0, r4
2fff432a:	ea48 0800 	orr.w	r8, r8, r0
2fff432e:	40e1      	lsrs	r1, r4
2fff4330:	e7ca      	b.n	2fff42c8 <__udivmoddi4+0xf0>
2fff4332:	fab3 f483 	clz	r4, r3
2fff4336:	fab1 f581 	clz	r5, r1
2fff433a:	1b64      	subs	r4, r4, r5
2fff433c:	2c1f      	cmp	r4, #31
2fff433e:	f63f af7e 	bhi.w	2fff423e <__udivmoddi4+0x66>
2fff4342:	f104 0c01 	add.w	ip, r4, #1
2fff4346:	f04f 0700 	mov.w	r7, #0
2fff434a:	d0aa      	beq.n	2fff42a2 <__udivmoddi4+0xca>
2fff434c:	f1cc 0420 	rsb	r4, ip, #32
2fff4350:	e77f      	b.n	2fff4252 <__udivmoddi4+0x7a>
2fff4352:	e9c6 1e00 	strd	r1, lr, [r6]
2fff4356:	e7da      	b.n	2fff430e <__udivmoddi4+0x136>

2fff4358 <xlat_arch_get_pas>:
2fff4358:	f000 0030 	and.w	r0, r0, #48	@ 0x30
2fff435c:	f1a0 0310 	sub.w	r3, r0, #16
2fff4360:	4258      	negs	r0, r3
2fff4362:	4158      	adcs	r0, r3
2fff4364:	0140      	lsls	r0, r0, #5
2fff4366:	4770      	bx	lr

2fff4368 <xlat_arch_get_max_supported_pa>:
2fff4368:	f04f 30ff 	mov.w	r0, #4294967295	@ 0xffffffff
2fff436c:	21ff      	movs	r1, #255	@ 0xff
2fff436e:	4770      	bx	lr

2fff4370 <xlat_get_min_virt_addr_space_size>:
2fff4370:	f04f 7000 	mov.w	r0, #33554432	@ 0x2000000
2fff4374:	4770      	bx	lr

2fff4376 <is_dcache_enabled>:
2fff4376:	f3ef 8300 	mrs	r3, CPSR
2fff437a:	f003 031f 	and.w	r3, r3, #31
2fff437e:	2b1a      	cmp	r3, #26
2fff4380:	d104      	bne.n	2fff438c <is_dcache_enabled+0x16>
2fff4382:	ee91 0f10 	mrc	15, 4, r0, cr1, cr0, {0}
2fff4386:	f3c0 0080 	ubfx	r0, r0, #2, #1
2fff438a:	4770      	bx	lr
2fff438c:	ee11 0f10 	mrc	15, 0, r0, cr1, cr0, {0}
2fff4390:	e7f9      	b.n	2fff4386 <is_dcache_enabled+0x10>

2fff4392 <xlat_arch_tlbi_va_sync>:
2fff4392:	2300      	movs	r3, #0
2fff4394:	ee07 3fd1 	mcr	15, 0, r3, cr7, cr1, {6}
2fff4398:	f3bf 8f4b 	dsb	ish
2fff439c:	f3bf 8f6f 	isb	sy
2fff43a0:	4770      	bx	lr

2fff43a2 <mmap_add_region_check>:
2fff43a2:	e92d 4ff7 	stmdb	sp!, {r0, r1, r2, r4, r5, r6, r7, r8, r9, sl, fp, lr}
2fff43a6:	e9d1 3202 	ldrd	r3, r2, [r1, #8]
2fff43aa:	e9d1 4e00 	ldrd	r4, lr, [r1]
2fff43ae:	9201      	str	r2, [sp, #4]
2fff43b0:	9d01      	ldr	r5, [sp, #4]
2fff43b2:	1e62      	subs	r2, r4, #1
2fff43b4:	f3c4 070b 	ubfx	r7, r4, #0, #12
2fff43b8:	f14e 3cff 	adc.w	ip, lr, #4294967295	@ 0xffffffff
2fff43bc:	eb12 0b05 	adds.w	fp, r2, r5
2fff43c0:	eb03 0205 	add.w	r2, r3, r5
2fff43c4:	694e      	ldr	r6, [r1, #20]
2fff43c6:	f102 32ff 	add.w	r2, r2, #4294967295	@ 0xffffffff
2fff43ca:	f14c 0c00 	adc.w	ip, ip, #0
2fff43ce:	2f00      	cmp	r7, #0
2fff43d0:	d170      	bne.n	2fff44b4 <mmap_add_region_check+0x112>
2fff43d2:	ea43 0705 	orr.w	r7, r3, r5
2fff43d6:	f3c7 070b 	ubfx	r7, r7, #0, #12
2fff43da:	2f00      	cmp	r7, #0
2fff43dc:	d16a      	bne.n	2fff44b4 <mmap_add_region_check+0x112>
2fff43de:	f1b6 4f80 	cmp.w	r6, #1073741824	@ 0x40000000
2fff43e2:	d005      	beq.n	2fff43f0 <mmap_add_region_check+0x4e>
2fff43e4:	f5b6 1f00 	cmp.w	r6, #2097152	@ 0x200000
2fff43e8:	d002      	beq.n	2fff43f0 <mmap_add_region_check+0x4e>
2fff43ea:	f5b6 5f80 	cmp.w	r6, #4096	@ 0x1000
2fff43ee:	d161      	bne.n	2fff44b4 <mmap_add_region_check+0x112>
2fff43f0:	45a3      	cmp	fp, r4
2fff43f2:	eb7c 060e 	sbcs.w	r6, ip, lr
2fff43f6:	d360      	bcc.n	2fff44ba <mmap_add_region_check+0x118>
2fff43f8:	4293      	cmp	r3, r2
2fff43fa:	d85e      	bhi.n	2fff44ba <mmap_add_region_check+0x118>
2fff43fc:	6886      	ldr	r6, [r0, #8]
2fff43fe:	4296      	cmp	r6, r2
2fff4400:	d35b      	bcc.n	2fff44ba <mmap_add_region_check+0x118>
2fff4402:	e9d0 7600 	ldrd	r7, r6, [r0]
2fff4406:	455f      	cmp	r7, fp
2fff4408:	eb76 060c 	sbcs.w	r6, r6, ip
2fff440c:	d355      	bcc.n	2fff44ba <mmap_add_region_check+0x118>
2fff440e:	68c6      	ldr	r6, [r0, #12]
2fff4410:	2718      	movs	r7, #24
2fff4412:	6900      	ldr	r0, [r0, #16]
2fff4414:	fb07 6000 	mla	r0, r7, r0, r6
2fff4418:	f850 0c0c 	ldr.w	r0, [r0, #-12]
2fff441c:	2800      	cmp	r0, #0
2fff441e:	d14f      	bne.n	2fff44c0 <mmap_add_region_check+0x11e>
2fff4420:	eb06 0807 	add.w	r8, r6, r7
2fff4424:	f858 0c0c 	ldr.w	r0, [r8, #-12]
2fff4428:	b910      	cbnz	r0, 2fff4430 <mmap_add_region_check+0x8e>
2fff442a:	b003      	add	sp, #12
2fff442c:	e8bd 8ff0 	ldmia.w	sp!, {r4, r5, r6, r7, r8, r9, sl, fp, pc}
2fff4430:	f858 9c10 	ldr.w	r9, [r8, #-16]
2fff4434:	4599      	cmp	r9, r3
2fff4436:	eb09 0a00 	add.w	sl, r9, r0
2fff443a:	f10a 3aff 	add.w	sl, sl, #4294967295	@ 0xffffffff
2fff443e:	d820      	bhi.n	2fff4482 <mmap_add_region_check+0xe0>
2fff4440:	4552      	cmp	r2, sl
2fff4442:	d901      	bls.n	2fff4448 <mmap_add_region_check+0xa6>
2fff4444:	4599      	cmp	r9, r3
2fff4446:	d11e      	bne.n	2fff4486 <mmap_add_region_check+0xe4>
2fff4448:	690e      	ldr	r6, [r1, #16]
2fff444a:	2e00      	cmp	r6, #0
2fff444c:	db16      	blt.n	2fff447c <mmap_add_region_check+0xda>
2fff444e:	f858 6c08 	ldr.w	r6, [r8, #-8]
2fff4452:	2e00      	cmp	r6, #0
2fff4454:	db12      	blt.n	2fff447c <mmap_add_region_check+0xda>
2fff4456:	e958 7606 	ldrd	r7, r6, [r8, #-24]
2fff445a:	ebb9 0707 	subs.w	r7, r9, r7
2fff445e:	eb66 0646 	sbc.w	r6, r6, r6, lsl #1
2fff4462:	ebb3 0a04 	subs.w	sl, r3, r4
2fff4466:	eb6e 054e 	sbc.w	r5, lr, lr, lsl #1
2fff446a:	42ae      	cmp	r6, r5
2fff446c:	bf08      	it	eq
2fff446e:	4557      	cmpeq	r7, sl
2fff4470:	d104      	bne.n	2fff447c <mmap_add_region_check+0xda>
2fff4472:	4599      	cmp	r9, r3
2fff4474:	d11b      	bne.n	2fff44ae <mmap_add_region_check+0x10c>
2fff4476:	9d01      	ldr	r5, [sp, #4]
2fff4478:	42a8      	cmp	r0, r5
2fff447a:	d118      	bne.n	2fff44ae <mmap_add_region_check+0x10c>
2fff447c:	f04f 30ff 	mov.w	r0, #4294967295	@ 0xffffffff
2fff4480:	e7d3      	b.n	2fff442a <mmap_add_region_check+0x88>
2fff4482:	4552      	cmp	r2, sl
2fff4484:	d2e0      	bcs.n	2fff4448 <mmap_add_region_check+0xa6>
2fff4486:	e958 6706 	ldrd	r6, r7, [r8, #-24]
2fff448a:	45b3      	cmp	fp, r6
2fff448c:	eb7c 0507 	sbcs.w	r5, ip, r7
2fff4490:	d319      	bcc.n	2fff44c6 <mmap_add_region_check+0x124>
2fff4492:	3e01      	subs	r6, #1
2fff4494:	f147 37ff 	adc.w	r7, r7, #4294967295	@ 0xffffffff
2fff4498:	1836      	adds	r6, r6, r0
2fff449a:	f147 0700 	adc.w	r7, r7, #0
2fff449e:	4591      	cmp	r9, r2
2fff44a0:	d801      	bhi.n	2fff44a6 <mmap_add_region_check+0x104>
2fff44a2:	4553      	cmp	r3, sl
2fff44a4:	d9ea      	bls.n	2fff447c <mmap_add_region_check+0xda>
2fff44a6:	42a6      	cmp	r6, r4
2fff44a8:	eb77 070e 	sbcs.w	r7, r7, lr
2fff44ac:	d2e6      	bcs.n	2fff447c <mmap_add_region_check+0xda>
2fff44ae:	f108 0818 	add.w	r8, r8, #24
2fff44b2:	e7b7      	b.n	2fff4424 <mmap_add_region_check+0x82>
2fff44b4:	f06f 0015 	mvn.w	r0, #21
2fff44b8:	e7b7      	b.n	2fff442a <mmap_add_region_check+0x88>
2fff44ba:	f06f 0021 	mvn.w	r0, #33	@ 0x21
2fff44be:	e7b4      	b.n	2fff442a <mmap_add_region_check+0x88>
2fff44c0:	f06f 000b 	mvn.w	r0, #11
2fff44c4:	e7b1      	b.n	2fff442a <mmap_add_region_check+0x88>
2fff44c6:	4591      	cmp	r9, r2
2fff44c8:	d8f1      	bhi.n	2fff44ae <mmap_add_region_check+0x10c>
2fff44ca:	4553      	cmp	r3, sl
2fff44cc:	d8ef      	bhi.n	2fff44ae <mmap_add_region_check+0x10c>
2fff44ce:	e7d5      	b.n	2fff447c <mmap_add_region_check+0xda>

2fff44d0 <xlat_clean_dcache_range>:
2fff44d0:	b538      	push	{r3, r4, r5, lr}
2fff44d2:	4604      	mov	r4, r0
2fff44d4:	460d      	mov	r5, r1
2fff44d6:	f7ff ff4e 	bl	2fff4376 <is_dcache_enabled>
2fff44da:	b128      	cbz	r0, 2fff44e8 <xlat_clean_dcache_range+0x18>
2fff44dc:	4629      	mov	r1, r5
2fff44de:	4620      	mov	r0, r4
2fff44e0:	e8bd 4038 	ldmia.w	sp!, {r3, r4, r5, lr}
2fff44e4:	f004 bfdc 	b.w	2fff94a0 <__clean_dcache_range_from_thumb>
2fff44e8:	bd38      	pop	{r3, r4, r5, pc}

2fff44ea <mmap_add_ctx>:
2fff44ea:	b538      	push	{r3, r4, r5, lr}
2fff44ec:	4605      	mov	r5, r0
2fff44ee:	460c      	mov	r4, r1
2fff44f0:	6963      	ldr	r3, [r4, #20]
2fff44f2:	b903      	cbnz	r3, 2fff44f6 <mmap_add_ctx+0xc>
2fff44f4:	bd38      	pop	{r3, r4, r5, pc}
2fff44f6:	4621      	mov	r1, r4
2fff44f8:	4628      	mov	r0, r5
2fff44fa:	3418      	adds	r4, #24
2fff44fc:	f7fc fb96 	bl	2fff0c2c <mmap_add_region_ctx>
2fff4500:	e7f6      	b.n	2fff44f0 <mmap_add_ctx+0x6>

2fff4502 <xlat_mmap_print>:
2fff4502:	4770      	bx	lr

2fff4504 <xlat_tables_print>:
2fff4504:	4770      	bx	lr

2fff4506 <crc32>:
2fff4506:	f7fc bdd7 	b.w	2fff10b8 <crc32_z>

2fff450a <tf_crc32>:
2fff450a:	f7ff bffc 	b.w	2fff4506 <crc32>

2fff450e <plat_error_handler>:
2fff450e:	bf30      	wfi
2fff4510:	e7fd      	b.n	2fff450e <plat_error_handler>

2fff4512 <bl2_plat_preload_setup>:
2fff4512:	4770      	bx	lr

2fff4514 <plat_try_backup_partitions>:
2fff4514:	2000      	movs	r0, #0
2fff4516:	4770      	bx	lr

2fff4518 <plat_fwu_is_enabled>:
2fff4518:	b508      	push	{r3, lr}
2fff451a:	f7fe fc2d 	bl	2fff2d78 <stm32mp_skip_boot_device_after_standby>
2fff451e:	f080 0001 	eor.w	r0, r0, #1
2fff4522:	b2c0      	uxtb	r0, r0
2fff4524:	bd08      	pop	{r3, pc}

2fff4526 <plat_flush_next_bl_params>:
2fff4526:	f7f5 bc35 	b.w	2ffe9d94 <flush_bl_params_desc>

2fff452a <plat_get_bl_image_load_info>:
2fff452a:	f7f5 bc7b 	b.w	2ffe9e24 <get_bl_load_info_from_mem_params_desc>

2fff452e <plat_get_next_bl_params>:
2fff452e:	b510      	push	{r4, lr}
2fff4530:	f7f5 fca0 	bl	2ffe9e74 <get_next_bl_params_from_mem_params_desc>
2fff4534:	4604      	mov	r4, r0
2fff4536:	f7f5 fcfd 	bl	2ffe9f34 <populate_next_bl_params_config>
2fff453a:	4620      	mov	r0, r4
2fff453c:	bd10      	pop	{r4, pc}

2fff453e <stm32_nvmem_cell_clrset>:
2fff453e:	b573      	push	{r0, r1, r4, r5, r6, lr}
2fff4540:	4615      	mov	r5, r2
2fff4542:	2204      	movs	r2, #4
2fff4544:	460e      	mov	r6, r1
2fff4546:	eb0d 0102 	add.w	r1, sp, r2
2fff454a:	2300      	movs	r3, #0
2fff454c:	9301      	str	r3, [sp, #4]
2fff454e:	4604      	mov	r4, r0
2fff4550:	f7ff fcf7 	bl	2fff3f42 <nvmem_cell_read>
2fff4554:	b950      	cbnz	r0, 2fff456c <stm32_nvmem_cell_clrset+0x2e>
2fff4556:	9b01      	ldr	r3, [sp, #4]
2fff4558:	2204      	movs	r2, #4
2fff455a:	eb0d 0102 	add.w	r1, sp, r2
2fff455e:	4620      	mov	r0, r4
2fff4560:	ea23 0306 	bic.w	r3, r3, r6
2fff4564:	432b      	orrs	r3, r5
2fff4566:	9301      	str	r3, [sp, #4]
2fff4568:	f7ff fcf7 	bl	2fff3f5a <nvmem_cell_write>
2fff456c:	b002      	add	sp, #8
2fff456e:	bd70      	pop	{r4, r5, r6, pc}

2fff4570 <plat_get_syscnt_freq2>:
2fff4570:	ee1e 0f10 	mrc	15, 0, r0, cr14, cr0, {0}
2fff4574:	4770      	bx	lr

2fff4576 <stm32mp_rcc_base>:
2fff4576:	f04f 40a0 	mov.w	r0, #1342177280	@ 0x50000000
2fff457a:	4770      	bx	lr

2fff457c <stm32mp_lock_available>:
2fff457c:	ee11 0f10 	mrc	15, 0, r0, cr1, cr0, {0}
2fff4580:	f000 0005 	and.w	r0, r0, #5
2fff4584:	1f43      	subs	r3, r0, #5
2fff4586:	4258      	negs	r0, r3
2fff4588:	4158      	adcs	r0, r3
2fff458a:	4770      	bx	lr

2fff458c <stm32mp_map_ddr_non_cacheable>:
2fff458c:	2309      	movs	r3, #9
2fff458e:	b507      	push	{r0, r1, r2, lr}
2fff4590:	f04f 4240 	mov.w	r2, #3221225472	@ 0xc0000000
2fff4594:	9300      	str	r3, [sp, #0]
2fff4596:	2100      	movs	r1, #0
2fff4598:	f04f 4380 	mov.w	r3, #1073741824	@ 0x40000000
2fff459c:	f04f 4040 	mov.w	r0, #3221225472	@ 0xc0000000
2fff45a0:	f7fc f908 	bl	2fff07b4 <mmap_add_dynamic_region>
2fff45a4:	b003      	add	sp, #12
2fff45a6:	f85d fb04 	ldr.w	pc, [sp], #4

2fff45aa <stm32mp_unmap_ddr>:
2fff45aa:	f04f 4180 	mov.w	r1, #1073741824	@ 0x40000000
2fff45ae:	f04f 4040 	mov.w	r0, #3221225472	@ 0xc0000000
2fff45b2:	f7fc b913 	b.w	2fff07dc <mmap_remove_dynamic_region>

2fff45b6 <stm32_fwu_set_boot_idx>:
2fff45b6:	b51f      	push	{r0, r1, r2, r3, r4, lr}
2fff45b8:	2300      	movs	r3, #0
2fff45ba:	9301      	str	r3, [sp, #4]
2fff45bc:	9302      	str	r3, [sp, #8]
2fff45be:	9303      	str	r3, [sp, #12]
2fff45c0:	f7fc fecc 	bl	2fff135c <plat_fwu_get_boot_idx>
2fff45c4:	4604      	mov	r4, r0
2fff45c6:	a801      	add	r0, sp, #4
2fff45c8:	f7fd f906 	bl	2fff17d8 <stm32_get_fwu_info_cell>
2fff45cc:	b928      	cbnz	r0, 2fff45da <stm32_fwu_set_boot_idx+0x24>
2fff45ce:	f004 020f 	and.w	r2, r4, #15
2fff45d2:	210f      	movs	r1, #15
2fff45d4:	a801      	add	r0, sp, #4
2fff45d6:	f7ff ffb2 	bl	2fff453e <stm32_nvmem_cell_clrset>
2fff45da:	b004      	add	sp, #16
2fff45dc:	bd10      	pop	{r4, pc}

2fff45de <stm32_set_max_fwu_trial_boot_cnt>:
2fff45de:	b51f      	push	{r0, r1, r2, r3, r4, lr}
2fff45e0:	2300      	movs	r3, #0
2fff45e2:	9301      	str	r3, [sp, #4]
2fff45e4:	a801      	add	r0, sp, #4
2fff45e6:	9302      	str	r3, [sp, #8]
2fff45e8:	9303      	str	r3, [sp, #12]
2fff45ea:	f7fd f8f5 	bl	2fff17d8 <stm32_get_fwu_info_cell>
2fff45ee:	b920      	cbnz	r0, 2fff45fa <stm32_set_max_fwu_trial_boot_cnt+0x1c>
2fff45f0:	2240      	movs	r2, #64	@ 0x40
2fff45f2:	21f0      	movs	r1, #240	@ 0xf0
2fff45f4:	a801      	add	r0, sp, #4
2fff45f6:	f7ff ffa2 	bl	2fff453e <stm32_nvmem_cell_clrset>
2fff45fa:	b005      	add	sp, #20
2fff45fc:	f85d fb04 	ldr.w	pc, [sp], #4

2fff4600 <stm32_clear_fwu_trial_boot_cnt>:
2fff4600:	b51f      	push	{r0, r1, r2, r3, r4, lr}
2fff4602:	2300      	movs	r3, #0
2fff4604:	9301      	str	r3, [sp, #4]
2fff4606:	a801      	add	r0, sp, #4
2fff4608:	9302      	str	r3, [sp, #8]
2fff460a:	9303      	str	r3, [sp, #12]
2fff460c:	f7fd f8e4 	bl	2fff17d8 <stm32_get_fwu_info_cell>
2fff4610:	b920      	cbnz	r0, 2fff461c <stm32_clear_fwu_trial_boot_cnt+0x1c>
2fff4612:	4602      	mov	r2, r0
2fff4614:	21f0      	movs	r1, #240	@ 0xf0
2fff4616:	a801      	add	r0, sp, #4
2fff4618:	f7ff ff91 	bl	2fff453e <stm32_nvmem_cell_clrset>
2fff461c:	b005      	add	sp, #20
2fff461e:	f85d fb04 	ldr.w	pc, [sp], #4

2fff4622 <fdt32_to_cpu>:
2fff4622:	ba00      	rev	r0, r0
2fff4624:	4770      	bx	lr

2fff4626 <dt_get_pwr_vdd_voltage>:
2fff4626:	b507      	push	{r0, r1, r2, lr}
2fff4628:	f7fd fab8 	bl	2fff1b9c <dt_get_vdd_regulator>
2fff462c:	b148      	cbz	r0, 2fff4642 <dt_get_pwr_vdd_voltage+0x1c>
2fff462e:	2200      	movs	r2, #0
2fff4630:	f10d 0106 	add.w	r1, sp, #6
2fff4634:	f7fb fa60 	bl	2ffefaf8 <regulator_get_range>
2fff4638:	f8bd 0006 	ldrh.w	r0, [sp, #6]
2fff463c:	f44f 737a 	mov.w	r3, #1000	@ 0x3e8
2fff4640:	4358      	muls	r0, r3
2fff4642:	b003      	add	sp, #12
2fff4644:	f85d fb04 	ldr.w	pc, [sp], #4

2fff4648 <bl2_el3_early_platform_setup>:
2fff4648:	f7fc bf92 	b.w	2fff1570 <stm32mp_save_boot_ctx_address>

2fff464c <bl2_el3_plat_prepare_exit>:
2fff464c:	f7fe b9e0 	b.w	2fff2a10 <stm32mp1_security_setup>

2fff4650 <plat_get_nor_data>:
2fff4650:	f04f 6380 	mov.w	r3, #67108864	@ 0x4000000
2fff4654:	2130      	movs	r1, #48	@ 0x30
2fff4656:	b510      	push	{r4, lr}
2fff4658:	4604      	mov	r4, r0
2fff465a:	6303      	str	r3, [r0, #48]	@ 0x30
2fff465c:	6b43      	ldr	r3, [r0, #52]	@ 0x34
2fff465e:	f043 0302 	orr.w	r3, r3, #2
2fff4662:	6343      	str	r3, [r0, #52]	@ 0x34
2fff4664:	f7f4 efd0 	blx	2ffe9608 <zero_normalmem>
2fff4668:	236b      	movs	r3, #107	@ 0x6b
2fff466a:	f240 1203 	movw	r2, #259	@ 0x103
2fff466e:	80a3      	strh	r3, [r4, #4]
2fff4670:	f240 1301 	movw	r3, #257	@ 0x101
2fff4674:	8023      	strh	r3, [r4, #0]
2fff4676:	2000      	movs	r0, #0
2fff4678:	8323      	strh	r3, [r4, #24]
2fff467a:	2304      	movs	r3, #4
2fff467c:	8122      	strh	r2, [r4, #8]
2fff467e:	7723      	strb	r3, [r4, #28]
2fff4680:	6220      	str	r0, [r4, #32]
2fff4682:	bd10      	pop	{r4, pc}

2fff4684 <stm32_clean_context>:
2fff4684:	b508      	push	{r3, lr}
2fff4686:	f7fe fb8d 	bl	2fff2da4 <stm32mp_bkpram_get_access>
2fff468a:	b160      	cbz	r0, 2fff46a6 <stm32_clean_context+0x22>
2fff468c:	2063      	movs	r0, #99	@ 0x63
2fff468e:	f7f5 ff95 	bl	2ffea5bc <clk_enable>
2fff4692:	f04f 40a8 	mov.w	r0, #1409286144	@ 0x54000000
2fff4696:	21b0      	movs	r1, #176	@ 0xb0
2fff4698:	f7f4 efb6 	blx	2ffe9608 <zero_normalmem>
2fff469c:	e8bd 4008 	ldmia.w	sp!, {r3, lr}
2fff46a0:	2063      	movs	r0, #99	@ 0x63
2fff46a2:	f7f5 bf9d 	b.w	2ffea5e0 <clk_disable>
2fff46a6:	bd08      	pop	{r3, pc}

2fff46a8 <stm32_get_zdata_from_context>:
2fff46a8:	b510      	push	{r4, lr}
2fff46aa:	2063      	movs	r0, #99	@ 0x63
2fff46ac:	f7f5 ff86 	bl	2ffea5bc <clk_enable>
2fff46b0:	f04f 43a8 	mov.w	r3, #1409286144	@ 0x54000000
2fff46b4:	2063      	movs	r0, #99	@ 0x63
2fff46b6:	689c      	ldr	r4, [r3, #8]
2fff46b8:	f7f5 ff92 	bl	2ffea5e0 <clk_disable>
2fff46bc:	f024 4470 	bic.w	r4, r4, #4026531840	@ 0xf0000000
2fff46c0:	4620      	mov	r0, r4
2fff46c2:	bd10      	pop	{r4, pc}

2fff46c4 <stm32_pwr_cstop_critic_exit>:
2fff46c4:	b508      	push	{r3, lr}
2fff46c6:	f7f8 fdf7 	bl	2ffed2b8 <stm32mp_stgen_restore_rate>
2fff46ca:	f7f6 f8b1 	bl	2ffea830 <generic_delay_timer_init>
2fff46ce:	f7f9 f855 	bl	2ffed77c <ddr_sw_self_refresh_exit>
2fff46d2:	b118      	cbz	r0, 2fff46dc <stm32_pwr_cstop_critic_exit+0x18>
2fff46d4:	f7f6 f840 	bl	2ffea758 <console_flush>
2fff46d8:	f7f4 edcc 	blx	2ffe9274 <el3_panic>
2fff46dc:	bd08      	pop	{r3, pc}

2fff46de <fdt32_to_cpu>:
2fff46de:	ba00      	rev	r0, r0
2fff46e0:	4770      	bx	lr

2fff46e2 <stm32mp1_addr_inside_backupsram>:
2fff46e2:	f100 402c 	add.w	r0, r0, #2885681152	@ 0xac000000
2fff46e6:	f5b0 5f80 	cmp.w	r0, #4096	@ 0x1000
2fff46ea:	bf2c      	ite	cs
2fff46ec:	2000      	movcs	r0, #0
2fff46ee:	2001      	movcc	r0, #1
2fff46f0:	4770      	bx	lr

2fff46f2 <stm32mp_is_wakeup_from_standby>:
2fff46f2:	b51f      	push	{r0, r1, r2, r3, r4, lr}
2fff46f4:	f7ff ff3f 	bl	2fff4576 <stm32mp_rcc_base>
2fff46f8:	f8d0 4408 	ldr.w	r4, [r0, #1032]	@ 0x408
2fff46fc:	2200      	movs	r2, #0
2fff46fe:	9201      	str	r2, [sp, #4]
2fff4700:	9202      	str	r2, [sp, #8]
2fff4702:	f014 0404 	ands.w	r4, r4, #4
2fff4706:	9203      	str	r2, [sp, #12]
2fff4708:	d002      	beq.n	2fff4710 <stm32mp_is_wakeup_from_standby+0x1e>
2fff470a:	2000      	movs	r0, #0
2fff470c:	b004      	add	sp, #16
2fff470e:	bd10      	pop	{r4, pc}
2fff4710:	f7fc ff5a 	bl	2fff15c8 <stm32mp_get_boot_action>
2fff4714:	280b      	cmp	r0, #11
2fff4716:	d1f8      	bne.n	2fff470a <stm32mp_is_wakeup_from_standby+0x18>
2fff4718:	a801      	add	r0, sp, #4
2fff471a:	f7fd f843 	bl	2fff17a4 <stm32_get_core1_branch_address_cell>
2fff471e:	2204      	movs	r2, #4
2fff4720:	4623      	mov	r3, r4
2fff4722:	eb0d 0002 	add.w	r0, sp, r2
2fff4726:	4669      	mov	r1, sp
2fff4728:	f7ff fc0b 	bl	2fff3f42 <nvmem_cell_read>
2fff472c:	9b00      	ldr	r3, [sp, #0]
2fff472e:	2b00      	cmp	r3, #0
2fff4730:	d0eb      	beq.n	2fff470a <stm32mp_is_wakeup_from_standby+0x18>
2fff4732:	f7fe f809 	bl	2fff2748 <stm32_pm_context_is_valid>
2fff4736:	e7e9      	b.n	2fff470c <stm32mp_is_wakeup_from_standby+0x1a>

2fff4738 <fdt32_ld>:
2fff4738:	7842      	ldrb	r2, [r0, #1]
2fff473a:	7803      	ldrb	r3, [r0, #0]
2fff473c:	ea43 2302 	orr.w	r3, r3, r2, lsl #8
2fff4740:	7882      	ldrb	r2, [r0, #2]
2fff4742:	ea43 4302 	orr.w	r3, r3, r2, lsl #16
2fff4746:	78c2      	ldrb	r2, [r0, #3]
2fff4748:	ea43 6002 	orr.w	r0, r3, r2, lsl #24
2fff474c:	ba00      	rev	r0, r0
2fff474e:	4770      	bx	lr

2fff4750 <fdt_header_size_>:
2fff4750:	2801      	cmp	r0, #1
2fff4752:	d906      	bls.n	2fff4762 <fdt_header_size_+0x12>
2fff4754:	2802      	cmp	r0, #2
2fff4756:	d006      	beq.n	2fff4766 <fdt_header_size_+0x16>
2fff4758:	2810      	cmp	r0, #16
2fff475a:	bf8c      	ite	hi
2fff475c:	2028      	movhi	r0, #40	@ 0x28
2fff475e:	2024      	movls	r0, #36	@ 0x24
2fff4760:	4770      	bx	lr
2fff4762:	201c      	movs	r0, #28
2fff4764:	4770      	bx	lr
2fff4766:	2020      	movs	r0, #32
2fff4768:	4770      	bx	lr

2fff476a <fdt_header_size>:
2fff476a:	b508      	push	{r3, lr}
2fff476c:	3014      	adds	r0, #20
2fff476e:	f7ff ffe3 	bl	2fff4738 <fdt32_ld>
2fff4772:	e8bd 4008 	ldmia.w	sp!, {r3, lr}
2fff4776:	f7ff bfeb 	b.w	2fff4750 <fdt_header_size_>

2fff477a <fdt_offset_ptr>:
2fff477a:	e92d 41f0 	stmdb	sp!, {r4, r5, r6, r7, r8, lr}
2fff477e:	4607      	mov	r7, r0
2fff4780:	3008      	adds	r0, #8
2fff4782:	4616      	mov	r6, r2
2fff4784:	f7ff ffd8 	bl	2fff4738 <fdt32_ld>
2fff4788:	1845      	adds	r5, r0, r1
2fff478a:	bf2c      	ite	cs
2fff478c:	2401      	movcs	r4, #1
2fff478e:	2400      	movcc	r4, #0
2fff4790:	2900      	cmp	r1, #0
2fff4792:	db1a      	blt.n	2fff47ca <fdt_offset_ptr+0x50>
2fff4794:	b9cc      	cbnz	r4, 2fff47ca <fdt_offset_ptr+0x50>
2fff4796:	eb15 0806 	adds.w	r8, r5, r6
2fff479a:	d213      	bcs.n	2fff47c4 <fdt_offset_ptr+0x4a>
2fff479c:	1d38      	adds	r0, r7, #4
2fff479e:	f7ff ffcb 	bl	2fff4738 <fdt32_ld>
2fff47a2:	4580      	cmp	r8, r0
2fff47a4:	d80e      	bhi.n	2fff47c4 <fdt_offset_ptr+0x4a>
2fff47a6:	f107 0014 	add.w	r0, r7, #20
2fff47aa:	f7ff ffc5 	bl	2fff4738 <fdt32_ld>
2fff47ae:	2810      	cmp	r0, #16
2fff47b0:	d907      	bls.n	2fff47c2 <fdt_offset_ptr+0x48>
2fff47b2:	1989      	adds	r1, r1, r6
2fff47b4:	d206      	bcs.n	2fff47c4 <fdt_offset_ptr+0x4a>
2fff47b6:	f107 0024 	add.w	r0, r7, #36	@ 0x24
2fff47ba:	f7ff ffbd 	bl	2fff4738 <fdt32_ld>
2fff47be:	4281      	cmp	r1, r0
2fff47c0:	d800      	bhi.n	2fff47c4 <fdt_offset_ptr+0x4a>
2fff47c2:	197c      	adds	r4, r7, r5
2fff47c4:	4620      	mov	r0, r4
2fff47c6:	e8bd 81f0 	ldmia.w	sp!, {r4, r5, r6, r7, r8, pc}
2fff47ca:	2400      	movs	r4, #0
2fff47cc:	e7fa      	b.n	2fff47c4 <fdt_offset_ptr+0x4a>

2fff47ce <fdt_next_tag>:
2fff47ce:	f06f 0307 	mvn.w	r3, #7
2fff47d2:	e92d 47f0 	stmdb	sp!, {r4, r5, r6, r7, r8, r9, sl, lr}
2fff47d6:	4617      	mov	r7, r2
2fff47d8:	6013      	str	r3, [r2, #0]
2fff47da:	2204      	movs	r2, #4
2fff47dc:	4680      	mov	r8, r0
2fff47de:	4689      	mov	r9, r1
2fff47e0:	f7ff ffcb 	bl	2fff477a <fdt_offset_ptr>
2fff47e4:	b188      	cbz	r0, 2fff480a <fdt_next_tag+0x3c>
2fff47e6:	6806      	ldr	r6, [r0, #0]
2fff47e8:	f06f 030a 	mvn.w	r3, #10
2fff47ec:	603b      	str	r3, [r7, #0]
2fff47ee:	f109 0a04 	add.w	sl, r9, #4
2fff47f2:	ba36      	rev	r6, r6
2fff47f4:	4654      	mov	r4, sl
2fff47f6:	1e73      	subs	r3, r6, #1
2fff47f8:	2b08      	cmp	r3, #8
2fff47fa:	d806      	bhi.n	2fff480a <fdt_next_tag+0x3c>
2fff47fc:	e8df f003 	tbb	[pc, r3]
2fff4800:	14211409 	.word	0x14211409
2fff4804:	05050505 	.word	0x05050505
2fff4808:	14          	.byte	0x14
2fff4809:	00          	.byte	0x00
2fff480a:	2609      	movs	r6, #9
2fff480c:	4630      	mov	r0, r6
2fff480e:	e8bd 87f0 	ldmia.w	sp!, {r4, r5, r6, r7, r8, r9, sl, pc}
2fff4812:	4621      	mov	r1, r4
2fff4814:	2201      	movs	r2, #1
2fff4816:	4414      	add	r4, r2
2fff4818:	4640      	mov	r0, r8
2fff481a:	f7ff ffae 	bl	2fff477a <fdt_offset_ptr>
2fff481e:	2800      	cmp	r0, #0
2fff4820:	d0f3      	beq.n	2fff480a <fdt_next_tag+0x3c>
2fff4822:	7803      	ldrb	r3, [r0, #0]
2fff4824:	2b00      	cmp	r3, #0
2fff4826:	d1f4      	bne.n	2fff4812 <fdt_next_tag+0x44>
2fff4828:	eba4 0209 	sub.w	r2, r4, r9
2fff482c:	4649      	mov	r1, r9
2fff482e:	4640      	mov	r0, r8
2fff4830:	f7ff ffa3 	bl	2fff477a <fdt_offset_ptr>
2fff4834:	2800      	cmp	r0, #0
2fff4836:	d0e8      	beq.n	2fff480a <fdt_next_tag+0x3c>
2fff4838:	3403      	adds	r4, #3
2fff483a:	f024 0403 	bic.w	r4, r4, #3
2fff483e:	603c      	str	r4, [r7, #0]
2fff4840:	e7e4      	b.n	2fff480c <fdt_next_tag+0x3e>
2fff4842:	2204      	movs	r2, #4
2fff4844:	4651      	mov	r1, sl
2fff4846:	4640      	mov	r0, r8
2fff4848:	f7ff ff97 	bl	2fff477a <fdt_offset_ptr>
2fff484c:	2800      	cmp	r0, #0
2fff484e:	d0dc      	beq.n	2fff480a <fdt_next_tag+0x3c>
2fff4850:	6805      	ldr	r5, [r0, #0]
2fff4852:	f06f 4200 	mvn.w	r2, #2147483648	@ 0x80000000
2fff4856:	ba2d      	rev	r5, r5
2fff4858:	eb15 0a0a 	adds.w	sl, r5, sl
2fff485c:	bf2c      	ite	cs
2fff485e:	2301      	movcs	r3, #1
2fff4860:	2300      	movcc	r3, #0
2fff4862:	4592      	cmp	sl, r2
2fff4864:	d2d1      	bcs.n	2fff480a <fdt_next_tag+0x3c>
2fff4866:	2b00      	cmp	r3, #0
2fff4868:	d1cf      	bne.n	2fff480a <fdt_next_tag+0x3c>
2fff486a:	f108 0014 	add.w	r0, r8, #20
2fff486e:	f10a 0408 	add.w	r4, sl, #8
2fff4872:	f7ff ff61 	bl	2fff4738 <fdt32_ld>
2fff4876:	280f      	cmp	r0, #15
2fff4878:	d8d6      	bhi.n	2fff4828 <fdt_next_tag+0x5a>
2fff487a:	2d07      	cmp	r5, #7
2fff487c:	d9d4      	bls.n	2fff4828 <fdt_next_tag+0x5a>
2fff487e:	1b65      	subs	r5, r4, r5
2fff4880:	076b      	lsls	r3, r5, #29
2fff4882:	bf18      	it	ne
2fff4884:	f10a 040c 	addne.w	r4, sl, #12
2fff4888:	e7ce      	b.n	2fff4828 <fdt_next_tag+0x5a>

2fff488a <fdt_check_node_offset_>:
2fff488a:	1e0b      	subs	r3, r1, #0
2fff488c:	b507      	push	{r0, r1, r2, lr}
2fff488e:	9101      	str	r1, [sp, #4]
2fff4890:	da04      	bge.n	2fff489c <fdt_check_node_offset_+0x12>
2fff4892:	f06f 0003 	mvn.w	r0, #3
2fff4896:	b003      	add	sp, #12
2fff4898:	f85d fb04 	ldr.w	pc, [sp], #4
2fff489c:	079b      	lsls	r3, r3, #30
2fff489e:	d1f8      	bne.n	2fff4892 <fdt_check_node_offset_+0x8>
2fff48a0:	aa01      	add	r2, sp, #4
2fff48a2:	f7ff ff94 	bl	2fff47ce <fdt_next_tag>
2fff48a6:	2801      	cmp	r0, #1
2fff48a8:	d1f3      	bne.n	2fff4892 <fdt_check_node_offset_+0x8>
2fff48aa:	9801      	ldr	r0, [sp, #4]
2fff48ac:	e7f3      	b.n	2fff4896 <fdt_check_node_offset_+0xc>

2fff48ae <fdt_check_prop_offset_>:
2fff48ae:	1e0b      	subs	r3, r1, #0
2fff48b0:	b507      	push	{r0, r1, r2, lr}
2fff48b2:	9101      	str	r1, [sp, #4]
2fff48b4:	da04      	bge.n	2fff48c0 <fdt_check_prop_offset_+0x12>
2fff48b6:	f06f 0003 	mvn.w	r0, #3
2fff48ba:	b003      	add	sp, #12
2fff48bc:	f85d fb04 	ldr.w	pc, [sp], #4
2fff48c0:	079b      	lsls	r3, r3, #30
2fff48c2:	d1f8      	bne.n	2fff48b6 <fdt_check_prop_offset_+0x8>
2fff48c4:	aa01      	add	r2, sp, #4
2fff48c6:	f7ff ff82 	bl	2fff47ce <fdt_next_tag>
2fff48ca:	2803      	cmp	r0, #3
2fff48cc:	d1f3      	bne.n	2fff48b6 <fdt_check_prop_offset_+0x8>
2fff48ce:	9801      	ldr	r0, [sp, #4]
2fff48d0:	e7f3      	b.n	2fff48ba <fdt_check_prop_offset_+0xc>

2fff48d2 <fdt_next_node>:
2fff48d2:	2300      	movs	r3, #0
2fff48d4:	4299      	cmp	r1, r3
2fff48d6:	b573      	push	{r0, r1, r4, r5, r6, lr}
2fff48d8:	4606      	mov	r6, r0
2fff48da:	9301      	str	r3, [sp, #4]
2fff48dc:	4615      	mov	r5, r2
2fff48de:	db05      	blt.n	2fff48ec <fdt_next_node+0x1a>
2fff48e0:	f7ff ffd3 	bl	2fff488a <fdt_check_node_offset_>
2fff48e4:	9001      	str	r0, [sp, #4]
2fff48e6:	2800      	cmp	r0, #0
2fff48e8:	4604      	mov	r4, r0
2fff48ea:	db0f      	blt.n	2fff490c <fdt_next_node+0x3a>
2fff48ec:	9c01      	ldr	r4, [sp, #4]
2fff48ee:	aa01      	add	r2, sp, #4
2fff48f0:	4630      	mov	r0, r6
2fff48f2:	4621      	mov	r1, r4
2fff48f4:	f7ff ff6b 	bl	2fff47ce <fdt_next_tag>
2fff48f8:	2802      	cmp	r0, #2
2fff48fa:	d00a      	beq.n	2fff4912 <fdt_next_node+0x40>
2fff48fc:	2809      	cmp	r0, #9
2fff48fe:	d011      	beq.n	2fff4924 <fdt_next_node+0x52>
2fff4900:	2801      	cmp	r0, #1
2fff4902:	d1f3      	bne.n	2fff48ec <fdt_next_node+0x1a>
2fff4904:	b115      	cbz	r5, 2fff490c <fdt_next_node+0x3a>
2fff4906:	682b      	ldr	r3, [r5, #0]
2fff4908:	3301      	adds	r3, #1
2fff490a:	602b      	str	r3, [r5, #0]
2fff490c:	4620      	mov	r0, r4
2fff490e:	b002      	add	sp, #8
2fff4910:	bd70      	pop	{r4, r5, r6, pc}
2fff4912:	2d00      	cmp	r5, #0
2fff4914:	d0ea      	beq.n	2fff48ec <fdt_next_node+0x1a>
2fff4916:	682b      	ldr	r3, [r5, #0]
2fff4918:	3b01      	subs	r3, #1
2fff491a:	602b      	str	r3, [r5, #0]
2fff491c:	2b00      	cmp	r3, #0
2fff491e:	dae5      	bge.n	2fff48ec <fdt_next_node+0x1a>
2fff4920:	9c01      	ldr	r4, [sp, #4]
2fff4922:	e7f3      	b.n	2fff490c <fdt_next_node+0x3a>
2fff4924:	9c01      	ldr	r4, [sp, #4]
2fff4926:	2c00      	cmp	r4, #0
2fff4928:	da07      	bge.n	2fff493a <fdt_next_node+0x68>
2fff492a:	f114 0f08 	cmn.w	r4, #8
2fff492e:	d1ed      	bne.n	2fff490c <fdt_next_node+0x3a>
2fff4930:	2d00      	cmp	r5, #0
2fff4932:	bf08      	it	eq
2fff4934:	f04f 34ff 	moveq.w	r4, #4294967295	@ 0xffffffff
2fff4938:	e7e8      	b.n	2fff490c <fdt_next_node+0x3a>
2fff493a:	f04f 34ff 	mov.w	r4, #4294967295	@ 0xffffffff
2fff493e:	e7e5      	b.n	2fff490c <fdt_next_node+0x3a>

2fff4940 <fdt_first_subnode>:
2fff4940:	b507      	push	{r0, r1, r2, lr}
2fff4942:	2300      	movs	r3, #0
2fff4944:	9301      	str	r3, [sp, #4]
2fff4946:	aa01      	add	r2, sp, #4
2fff4948:	f7ff ffc3 	bl	2fff48d2 <fdt_next_node>
2fff494c:	2800      	cmp	r0, #0
2fff494e:	db07      	blt.n	2fff4960 <fdt_first_subnode+0x20>
2fff4950:	9b01      	ldr	r3, [sp, #4]
2fff4952:	2b01      	cmp	r3, #1
2fff4954:	bf18      	it	ne
2fff4956:	f04f 30ff 	movne.w	r0, #4294967295	@ 0xffffffff
2fff495a:	b003      	add	sp, #12
2fff495c:	f85d fb04 	ldr.w	pc, [sp], #4
2fff4960:	f04f 30ff 	mov.w	r0, #4294967295	@ 0xffffffff
2fff4964:	e7f9      	b.n	2fff495a <fdt_first_subnode+0x1a>

2fff4966 <fdt_next_subnode>:
2fff4966:	b513      	push	{r0, r1, r4, lr}
2fff4968:	4604      	mov	r4, r0
2fff496a:	2301      	movs	r3, #1
2fff496c:	9301      	str	r3, [sp, #4]
2fff496e:	aa01      	add	r2, sp, #4
2fff4970:	4620      	mov	r0, r4
2fff4972:	f7ff ffae 	bl	2fff48d2 <fdt_next_node>
2fff4976:	1e01      	subs	r1, r0, #0
2fff4978:	db07      	blt.n	2fff498a <fdt_next_subnode+0x24>
2fff497a:	9b01      	ldr	r3, [sp, #4]
2fff497c:	2b00      	cmp	r3, #0
2fff497e:	dd04      	ble.n	2fff498a <fdt_next_subnode+0x24>
2fff4980:	2b01      	cmp	r3, #1
2fff4982:	d1f4      	bne.n	2fff496e <fdt_next_subnode+0x8>
2fff4984:	4608      	mov	r0, r1
2fff4986:	b002      	add	sp, #8
2fff4988:	bd10      	pop	{r4, pc}
2fff498a:	f04f 31ff 	mov.w	r1, #4294967295	@ 0xffffffff
2fff498e:	e7f9      	b.n	2fff4984 <fdt_next_subnode+0x1e>

2fff4990 <fdt_cells>:
2fff4990:	b507      	push	{r0, r1, r2, lr}
2fff4992:	ab01      	add	r3, sp, #4
2fff4994:	f000 f945 	bl	2fff4c22 <fdt_getprop>
2fff4998:	4603      	mov	r3, r0
2fff499a:	9801      	ldr	r0, [sp, #4]
2fff499c:	b13b      	cbz	r3, 2fff49ae <fdt_cells+0x1e>
2fff499e:	2804      	cmp	r0, #4
2fff49a0:	d108      	bne.n	2fff49b4 <fdt_cells+0x24>
2fff49a2:	6818      	ldr	r0, [r3, #0]
2fff49a4:	ba00      	rev	r0, r0
2fff49a6:	2804      	cmp	r0, #4
2fff49a8:	bf88      	it	hi
2fff49aa:	f06f 000d 	mvnhi.w	r0, #13
2fff49ae:	b003      	add	sp, #12
2fff49b0:	f85d fb04 	ldr.w	pc, [sp], #4
2fff49b4:	f06f 000d 	mvn.w	r0, #13
2fff49b8:	e7f9      	b.n	2fff49ae <fdt_cells+0x1e>

2fff49ba <fdt32_ld>:
2fff49ba:	7842      	ldrb	r2, [r0, #1]
2fff49bc:	7803      	ldrb	r3, [r0, #0]
2fff49be:	ea43 2302 	orr.w	r3, r3, r2, lsl #8
2fff49c2:	7882      	ldrb	r2, [r0, #2]
2fff49c4:	ea43 4302 	orr.w	r3, r3, r2, lsl #16
2fff49c8:	78c2      	ldrb	r2, [r0, #3]
2fff49ca:	ea43 6002 	orr.w	r0, r3, r2, lsl #24
2fff49ce:	ba00      	rev	r0, r0
2fff49d0:	4770      	bx	lr

2fff49d2 <nextprop_>:
2fff49d2:	b537      	push	{r0, r1, r2, r4, r5, lr}
2fff49d4:	4605      	mov	r5, r0
2fff49d6:	460c      	mov	r4, r1
2fff49d8:	aa01      	add	r2, sp, #4
2fff49da:	4621      	mov	r1, r4
2fff49dc:	4628      	mov	r0, r5
2fff49de:	f7ff fef6 	bl	2fff47ce <fdt_next_tag>
2fff49e2:	2803      	cmp	r0, #3
2fff49e4:	d006      	beq.n	2fff49f4 <nextprop_+0x22>
2fff49e6:	9c01      	ldr	r4, [sp, #4]
2fff49e8:	2809      	cmp	r0, #9
2fff49ea:	d106      	bne.n	2fff49fa <nextprop_+0x28>
2fff49ec:	2c00      	cmp	r4, #0
2fff49ee:	bfa8      	it	ge
2fff49f0:	f06f 040a 	mvnge.w	r4, #10
2fff49f4:	4620      	mov	r0, r4
2fff49f6:	b003      	add	sp, #12
2fff49f8:	bd30      	pop	{r4, r5, pc}
2fff49fa:	2804      	cmp	r0, #4
2fff49fc:	d0ec      	beq.n	2fff49d8 <nextprop_+0x6>
2fff49fe:	f04f 34ff 	mov.w	r4, #4294967295	@ 0xffffffff
2fff4a02:	e7f7      	b.n	2fff49f4 <nextprop_+0x22>

2fff4a04 <fdt32_ld_.isra.0>:
2fff4a04:	ba00      	rev	r0, r0
2fff4a06:	4770      	bx	lr

2fff4a08 <fdt_get_property_by_offset_>:
2fff4a08:	b570      	push	{r4, r5, r6, lr}
2fff4a0a:	4604      	mov	r4, r0
2fff4a0c:	460e      	mov	r6, r1
2fff4a0e:	4615      	mov	r5, r2
2fff4a10:	f7ff ff4d 	bl	2fff48ae <fdt_check_prop_offset_>
2fff4a14:	2800      	cmp	r0, #0
2fff4a16:	da04      	bge.n	2fff4a22 <fdt_get_property_by_offset_+0x1a>
2fff4a18:	b105      	cbz	r5, 2fff4a1c <fdt_get_property_by_offset_+0x14>
2fff4a1a:	6028      	str	r0, [r5, #0]
2fff4a1c:	2400      	movs	r4, #0
2fff4a1e:	4620      	mov	r0, r4
2fff4a20:	bd70      	pop	{r4, r5, r6, pc}
2fff4a22:	f104 0008 	add.w	r0, r4, #8
2fff4a26:	f7ff ffc8 	bl	2fff49ba <fdt32_ld>
2fff4a2a:	4406      	add	r6, r0
2fff4a2c:	4434      	add	r4, r6
2fff4a2e:	2d00      	cmp	r5, #0
2fff4a30:	d0f5      	beq.n	2fff4a1e <fdt_get_property_by_offset_+0x16>
2fff4a32:	6860      	ldr	r0, [r4, #4]
2fff4a34:	f7ff ffe6 	bl	2fff4a04 <fdt32_ld_.isra.0>
2fff4a38:	6028      	str	r0, [r5, #0]
2fff4a3a:	e7f0      	b.n	2fff4a1e <fdt_get_property_by_offset_+0x16>

2fff4a3c <fdt_get_name>:
2fff4a3c:	b5f8      	push	{r3, r4, r5, r6, r7, lr}
2fff4a3e:	4606      	mov	r6, r0
2fff4a40:	3008      	adds	r0, #8
2fff4a42:	4615      	mov	r5, r2
2fff4a44:	460c      	mov	r4, r1
2fff4a46:	f7ff ffb8 	bl	2fff49ba <fdt32_ld>
2fff4a4a:	4607      	mov	r7, r0
2fff4a4c:	4630      	mov	r0, r6
2fff4a4e:	f7fe fa45 	bl	2fff2edc <fdt_ro_probe_>
2fff4a52:	2800      	cmp	r0, #0
2fff4a54:	db1e      	blt.n	2fff4a94 <fdt_get_name+0x58>
2fff4a56:	4621      	mov	r1, r4
2fff4a58:	4630      	mov	r0, r6
2fff4a5a:	f7ff ff16 	bl	2fff488a <fdt_check_node_offset_>
2fff4a5e:	2800      	cmp	r0, #0
2fff4a60:	db18      	blt.n	2fff4a94 <fdt_get_name+0x58>
2fff4a62:	443c      	add	r4, r7
2fff4a64:	f106 0014 	add.w	r0, r6, #20
2fff4a68:	4434      	add	r4, r6
2fff4a6a:	f7ff ffa6 	bl	2fff49ba <fdt32_ld>
2fff4a6e:	280f      	cmp	r0, #15
2fff4a70:	f104 0404 	add.w	r4, r4, #4
2fff4a74:	d805      	bhi.n	2fff4a82 <fdt_get_name+0x46>
2fff4a76:	212f      	movs	r1, #47	@ 0x2f
2fff4a78:	4620      	mov	r0, r4
2fff4a7a:	f000 fb99 	bl	2fff51b0 <strrchr>
2fff4a7e:	b138      	cbz	r0, 2fff4a90 <fdt_get_name+0x54>
2fff4a80:	1c44      	adds	r4, r0, #1
2fff4a82:	b11d      	cbz	r5, 2fff4a8c <fdt_get_name+0x50>
2fff4a84:	4620      	mov	r0, r4
2fff4a86:	f000 fb6d 	bl	2fff5164 <strlen>
2fff4a8a:	6028      	str	r0, [r5, #0]
2fff4a8c:	4620      	mov	r0, r4
2fff4a8e:	bdf8      	pop	{r3, r4, r5, r6, r7, pc}
2fff4a90:	f06f 000a 	mvn.w	r0, #10
2fff4a94:	b90d      	cbnz	r5, 2fff4a9a <fdt_get_name+0x5e>
2fff4a96:	2400      	movs	r4, #0
2fff4a98:	e7f8      	b.n	2fff4a8c <fdt_get_name+0x50>
2fff4a9a:	6028      	str	r0, [r5, #0]
2fff4a9c:	e7fb      	b.n	2fff4a96 <fdt_get_name+0x5a>

2fff4a9e <fdt_subnode_offset_namelen>:
2fff4a9e:	e92d 41f3 	stmdb	sp!, {r0, r1, r4, r5, r6, r7, r8, lr}
2fff4aa2:	4607      	mov	r7, r0
2fff4aa4:	460e      	mov	r6, r1
2fff4aa6:	4690      	mov	r8, r2
2fff4aa8:	461d      	mov	r5, r3
2fff4aaa:	f7fe fa17 	bl	2fff2edc <fdt_ro_probe_>
2fff4aae:	1e04      	subs	r4, r0, #0
2fff4ab0:	db0a      	blt.n	2fff4ac8 <fdt_subnode_offset_namelen+0x2a>
2fff4ab2:	4634      	mov	r4, r6
2fff4ab4:	2300      	movs	r3, #0
2fff4ab6:	9300      	str	r3, [sp, #0]
2fff4ab8:	9b00      	ldr	r3, [sp, #0]
2fff4aba:	ea54 0203 	orrs.w	r2, r4, r3
2fff4abe:	d507      	bpl.n	2fff4ad0 <fdt_subnode_offset_namelen+0x32>
2fff4ac0:	2b00      	cmp	r3, #0
2fff4ac2:	bfb8      	it	lt
2fff4ac4:	f04f 34ff 	movlt.w	r4, #4294967295	@ 0xffffffff
2fff4ac8:	4620      	mov	r0, r4
2fff4aca:	b002      	add	sp, #8
2fff4acc:	e8bd 81f0 	ldmia.w	sp!, {r4, r5, r6, r7, r8, pc}
2fff4ad0:	2b01      	cmp	r3, #1
2fff4ad2:	d11a      	bne.n	2fff4b0a <fdt_subnode_offset_namelen+0x6c>
2fff4ad4:	aa01      	add	r2, sp, #4
2fff4ad6:	4621      	mov	r1, r4
2fff4ad8:	4638      	mov	r0, r7
2fff4ada:	f7ff ffaf 	bl	2fff4a3c <fdt_get_name>
2fff4ade:	4606      	mov	r6, r0
2fff4ae0:	b198      	cbz	r0, 2fff4b0a <fdt_subnode_offset_namelen+0x6c>
2fff4ae2:	9b01      	ldr	r3, [sp, #4]
2fff4ae4:	429d      	cmp	r5, r3
2fff4ae6:	dc10      	bgt.n	2fff4b0a <fdt_subnode_offset_namelen+0x6c>
2fff4ae8:	462a      	mov	r2, r5
2fff4aea:	4641      	mov	r1, r8
2fff4aec:	f000 f9f7 	bl	2fff4ede <memcmp>
2fff4af0:	b958      	cbnz	r0, 2fff4b0a <fdt_subnode_offset_namelen+0x6c>
2fff4af2:	5d73      	ldrb	r3, [r6, r5]
2fff4af4:	2b00      	cmp	r3, #0
2fff4af6:	d0e7      	beq.n	2fff4ac8 <fdt_subnode_offset_namelen+0x2a>
2fff4af8:	462a      	mov	r2, r5
2fff4afa:	2140      	movs	r1, #64	@ 0x40
2fff4afc:	4640      	mov	r0, r8
2fff4afe:	f000 f9e0 	bl	2fff4ec2 <memchr>
2fff4b02:	b910      	cbnz	r0, 2fff4b0a <fdt_subnode_offset_namelen+0x6c>
2fff4b04:	5d73      	ldrb	r3, [r6, r5]
2fff4b06:	2b40      	cmp	r3, #64	@ 0x40
2fff4b08:	d0de      	beq.n	2fff4ac8 <fdt_subnode_offset_namelen+0x2a>
2fff4b0a:	4621      	mov	r1, r4
2fff4b0c:	466a      	mov	r2, sp
2fff4b0e:	4638      	mov	r0, r7
2fff4b10:	f7ff fedf 	bl	2fff48d2 <fdt_next_node>
2fff4b14:	4604      	mov	r4, r0
2fff4b16:	e7cf      	b.n	2fff4ab8 <fdt_subnode_offset_namelen+0x1a>

2fff4b18 <fdt_subnode_offset>:
2fff4b18:	b570      	push	{r4, r5, r6, lr}
2fff4b1a:	4605      	mov	r5, r0
2fff4b1c:	4610      	mov	r0, r2
2fff4b1e:	460e      	mov	r6, r1
2fff4b20:	4614      	mov	r4, r2
2fff4b22:	f000 fb1f 	bl	2fff5164 <strlen>
2fff4b26:	4603      	mov	r3, r0
2fff4b28:	4622      	mov	r2, r4
2fff4b2a:	4631      	mov	r1, r6
2fff4b2c:	4628      	mov	r0, r5
2fff4b2e:	e8bd 4070 	ldmia.w	sp!, {r4, r5, r6, lr}
2fff4b32:	f7ff bfb4 	b.w	2fff4a9e <fdt_subnode_offset_namelen>

2fff4b36 <fdt_first_property_offset>:
2fff4b36:	b510      	push	{r4, lr}
2fff4b38:	4604      	mov	r4, r0
2fff4b3a:	f7ff fea6 	bl	2fff488a <fdt_check_node_offset_>
2fff4b3e:	1e01      	subs	r1, r0, #0
2fff4b40:	db04      	blt.n	2fff4b4c <fdt_first_property_offset+0x16>
2fff4b42:	4620      	mov	r0, r4
2fff4b44:	e8bd 4010 	ldmia.w	sp!, {r4, lr}
2fff4b48:	f7ff bf43 	b.w	2fff49d2 <nextprop_>
2fff4b4c:	bd10      	pop	{r4, pc}

2fff4b4e <fdt_next_property_offset>:
2fff4b4e:	b510      	push	{r4, lr}
2fff4b50:	4604      	mov	r4, r0
2fff4b52:	f7ff feac 	bl	2fff48ae <fdt_check_prop_offset_>
2fff4b56:	1e01      	subs	r1, r0, #0
2fff4b58:	db04      	blt.n	2fff4b64 <fdt_next_property_offset+0x16>
2fff4b5a:	4620      	mov	r0, r4
2fff4b5c:	e8bd 4010 	ldmia.w	sp!, {r4, lr}
2fff4b60:	f7ff bf37 	b.w	2fff49d2 <nextprop_>
2fff4b64:	bd10      	pop	{r4, pc}

2fff4b66 <fdt_get_property_namelen_>:
2fff4b66:	e92d 47f3 	stmdb	sp!, {r0, r1, r4, r5, r6, r7, r8, r9, sl, lr}
2fff4b6a:	4606      	mov	r6, r0
2fff4b6c:	4691      	mov	r9, r2
2fff4b6e:	461f      	mov	r7, r3
2fff4b70:	e9dd 8a0a 	ldrd	r8, sl, [sp, #40]	@ 0x28
2fff4b74:	f7ff ffdf 	bl	2fff4b36 <fdt_first_property_offset>
2fff4b78:	2800      	cmp	r0, #0
2fff4b7a:	4604      	mov	r4, r0
2fff4b7c:	da04      	bge.n	2fff4b88 <fdt_get_property_namelen_+0x22>
2fff4b7e:	f1b8 0f00 	cmp.w	r8, #0
2fff4b82:	d12b      	bne.n	2fff4bdc <fdt_get_property_namelen_+0x76>
2fff4b84:	2500      	movs	r5, #0
2fff4b86:	e022      	b.n	2fff4bce <fdt_get_property_namelen_+0x68>
2fff4b88:	4642      	mov	r2, r8
2fff4b8a:	4621      	mov	r1, r4
2fff4b8c:	4630      	mov	r0, r6
2fff4b8e:	f7ff ff3b 	bl	2fff4a08 <fdt_get_property_by_offset_>
2fff4b92:	4605      	mov	r5, r0
2fff4b94:	b1f8      	cbz	r0, 2fff4bd6 <fdt_get_property_namelen_+0x70>
2fff4b96:	6880      	ldr	r0, [r0, #8]
2fff4b98:	aa01      	add	r2, sp, #4
2fff4b9a:	f7ff ff33 	bl	2fff4a04 <fdt32_ld_.isra.0>
2fff4b9e:	4601      	mov	r1, r0
2fff4ba0:	4630      	mov	r0, r6
2fff4ba2:	f7fe fa55 	bl	2fff3050 <fdt_get_string>
2fff4ba6:	b110      	cbz	r0, 2fff4bae <fdt_get_property_namelen_+0x48>
2fff4ba8:	9b01      	ldr	r3, [sp, #4]
2fff4baa:	429f      	cmp	r7, r3
2fff4bac:	d004      	beq.n	2fff4bb8 <fdt_get_property_namelen_+0x52>
2fff4bae:	4621      	mov	r1, r4
2fff4bb0:	4630      	mov	r0, r6
2fff4bb2:	f7ff ffcc 	bl	2fff4b4e <fdt_next_property_offset>
2fff4bb6:	e7df      	b.n	2fff4b78 <fdt_get_property_namelen_+0x12>
2fff4bb8:	463a      	mov	r2, r7
2fff4bba:	4649      	mov	r1, r9
2fff4bbc:	f000 f98f 	bl	2fff4ede <memcmp>
2fff4bc0:	2800      	cmp	r0, #0
2fff4bc2:	d1f4      	bne.n	2fff4bae <fdt_get_property_namelen_+0x48>
2fff4bc4:	f1ba 0f00 	cmp.w	sl, #0
2fff4bc8:	d001      	beq.n	2fff4bce <fdt_get_property_namelen_+0x68>
2fff4bca:	f8ca 4000 	str.w	r4, [sl]
2fff4bce:	4628      	mov	r0, r5
2fff4bd0:	b002      	add	sp, #8
2fff4bd2:	e8bd 87f0 	ldmia.w	sp!, {r4, r5, r6, r7, r8, r9, sl, pc}
2fff4bd6:	f06f 040c 	mvn.w	r4, #12
2fff4bda:	e7d0      	b.n	2fff4b7e <fdt_get_property_namelen_+0x18>
2fff4bdc:	f8c8 4000 	str.w	r4, [r8]
2fff4be0:	e7d0      	b.n	2fff4b84 <fdt_get_property_namelen_+0x1e>

2fff4be2 <fdt_getprop_namelen>:
2fff4be2:	b530      	push	{r4, r5, lr}
2fff4be4:	b085      	sub	sp, #20
2fff4be6:	ad03      	add	r5, sp, #12
2fff4be8:	4604      	mov	r4, r0
2fff4bea:	9501      	str	r5, [sp, #4]
2fff4bec:	9d08      	ldr	r5, [sp, #32]
2fff4bee:	9500      	str	r5, [sp, #0]
2fff4bf0:	f7ff ffb9 	bl	2fff4b66 <fdt_get_property_namelen_>
2fff4bf4:	4601      	mov	r1, r0
2fff4bf6:	b178      	cbz	r0, 2fff4c18 <fdt_getprop_namelen+0x36>
2fff4bf8:	f104 0014 	add.w	r0, r4, #20
2fff4bfc:	f7ff fedd 	bl	2fff49ba <fdt32_ld>
2fff4c00:	280f      	cmp	r0, #15
2fff4c02:	d80c      	bhi.n	2fff4c1e <fdt_getprop_namelen+0x3c>
2fff4c04:	9b03      	ldr	r3, [sp, #12]
2fff4c06:	330c      	adds	r3, #12
2fff4c08:	075b      	lsls	r3, r3, #29
2fff4c0a:	d008      	beq.n	2fff4c1e <fdt_getprop_namelen+0x3c>
2fff4c0c:	6848      	ldr	r0, [r1, #4]
2fff4c0e:	f7ff fef9 	bl	2fff4a04 <fdt32_ld_.isra.0>
2fff4c12:	2807      	cmp	r0, #7
2fff4c14:	d903      	bls.n	2fff4c1e <fdt_getprop_namelen+0x3c>
2fff4c16:	3110      	adds	r1, #16
2fff4c18:	4608      	mov	r0, r1
2fff4c1a:	b005      	add	sp, #20
2fff4c1c:	bd30      	pop	{r4, r5, pc}
2fff4c1e:	310c      	adds	r1, #12
2fff4c20:	e7fa      	b.n	2fff4c18 <fdt_getprop_namelen+0x36>

2fff4c22 <fdt_getprop>:
2fff4c22:	b5f7      	push	{r0, r1, r2, r4, r5, r6, r7, lr}
2fff4c24:	4605      	mov	r5, r0
2fff4c26:	4610      	mov	r0, r2
2fff4c28:	461f      	mov	r7, r3
2fff4c2a:	460e      	mov	r6, r1
2fff4c2c:	4614      	mov	r4, r2
2fff4c2e:	f000 fa99 	bl	2fff5164 <strlen>
2fff4c32:	9700      	str	r7, [sp, #0]
2fff4c34:	4603      	mov	r3, r0
2fff4c36:	4622      	mov	r2, r4
2fff4c38:	4631      	mov	r1, r6
2fff4c3a:	4628      	mov	r0, r5
2fff4c3c:	f7ff ffd1 	bl	2fff4be2 <fdt_getprop_namelen>
2fff4c40:	b003      	add	sp, #12
2fff4c42:	bdf0      	pop	{r4, r5, r6, r7, pc}

2fff4c44 <fdt_path_offset_namelen>:
2fff4c44:	e92d 41f0 	stmdb	sp!, {r4, r5, r6, r7, r8, lr}
2fff4c48:	4607      	mov	r7, r0
2fff4c4a:	460c      	mov	r4, r1
2fff4c4c:	4690      	mov	r8, r2
2fff4c4e:	f7fe f945 	bl	2fff2edc <fdt_ro_probe_>
2fff4c52:	1e05      	subs	r5, r0, #0
2fff4c54:	db38      	blt.n	2fff4cc8 <fdt_path_offset_namelen+0x84>
2fff4c56:	7823      	ldrb	r3, [r4, #0]
2fff4c58:	eb04 0608 	add.w	r6, r4, r8
2fff4c5c:	2b2f      	cmp	r3, #47	@ 0x2f
2fff4c5e:	d036      	beq.n	2fff4cce <fdt_path_offset_namelen+0x8a>
2fff4c60:	4642      	mov	r2, r8
2fff4c62:	212f      	movs	r1, #47	@ 0x2f
2fff4c64:	4620      	mov	r0, r4
2fff4c66:	f000 f92c 	bl	2fff4ec2 <memchr>
2fff4c6a:	2800      	cmp	r0, #0
2fff4c6c:	bf14      	ite	ne
2fff4c6e:	4680      	movne	r8, r0
2fff4c70:	46b0      	moveq	r8, r6
2fff4c72:	4621      	mov	r1, r4
2fff4c74:	eba8 0204 	sub.w	r2, r8, r4
2fff4c78:	4638      	mov	r0, r7
2fff4c7a:	f7fe fa63 	bl	2fff3144 <fdt_get_alias_namelen>
2fff4c7e:	4601      	mov	r1, r0
2fff4c80:	b338      	cbz	r0, 2fff4cd2 <fdt_path_offset_namelen+0x8e>
2fff4c82:	4638      	mov	r0, r7
2fff4c84:	4644      	mov	r4, r8
2fff4c86:	f000 f827 	bl	2fff4cd8 <fdt_path_offset>
2fff4c8a:	4605      	mov	r5, r0
2fff4c8c:	42b4      	cmp	r4, r6
2fff4c8e:	d302      	bcc.n	2fff4c96 <fdt_path_offset_namelen+0x52>
2fff4c90:	e01a      	b.n	2fff4cc8 <fdt_path_offset_namelen+0x84>
2fff4c92:	42b4      	cmp	r4, r6
2fff4c94:	d018      	beq.n	2fff4cc8 <fdt_path_offset_namelen+0x84>
2fff4c96:	46a0      	mov	r8, r4
2fff4c98:	3401      	adds	r4, #1
2fff4c9a:	f898 3000 	ldrb.w	r3, [r8]
2fff4c9e:	2b2f      	cmp	r3, #47	@ 0x2f
2fff4ca0:	d0f7      	beq.n	2fff4c92 <fdt_path_offset_namelen+0x4e>
2fff4ca2:	eba6 0208 	sub.w	r2, r6, r8
2fff4ca6:	212f      	movs	r1, #47	@ 0x2f
2fff4ca8:	4640      	mov	r0, r8
2fff4caa:	f000 f90a 	bl	2fff4ec2 <memchr>
2fff4cae:	2800      	cmp	r0, #0
2fff4cb0:	bf14      	ite	ne
2fff4cb2:	4604      	movne	r4, r0
2fff4cb4:	4634      	moveq	r4, r6
2fff4cb6:	4629      	mov	r1, r5
2fff4cb8:	eba4 0308 	sub.w	r3, r4, r8
2fff4cbc:	4642      	mov	r2, r8
2fff4cbe:	4638      	mov	r0, r7
2fff4cc0:	f7ff feed 	bl	2fff4a9e <fdt_subnode_offset_namelen>
2fff4cc4:	1e05      	subs	r5, r0, #0
2fff4cc6:	dae1      	bge.n	2fff4c8c <fdt_path_offset_namelen+0x48>
2fff4cc8:	4628      	mov	r0, r5
2fff4cca:	e8bd 81f0 	ldmia.w	sp!, {r4, r5, r6, r7, r8, pc}
2fff4cce:	2500      	movs	r5, #0
2fff4cd0:	e7dc      	b.n	2fff4c8c <fdt_path_offset_namelen+0x48>
2fff4cd2:	f06f 0504 	mvn.w	r5, #4
2fff4cd6:	e7f7      	b.n	2fff4cc8 <fdt_path_offset_namelen+0x84>

2fff4cd8 <fdt_path_offset>:
2fff4cd8:	b538      	push	{r3, r4, r5, lr}
2fff4cda:	4605      	mov	r5, r0
2fff4cdc:	4608      	mov	r0, r1
2fff4cde:	460c      	mov	r4, r1
2fff4ce0:	f000 fa40 	bl	2fff5164 <strlen>
2fff4ce4:	4602      	mov	r2, r0
2fff4ce6:	4621      	mov	r1, r4
2fff4ce8:	4628      	mov	r0, r5
2fff4cea:	e8bd 4038 	ldmia.w	sp!, {r3, r4, r5, lr}
2fff4cee:	f7ff bfa9 	b.w	2fff4c44 <fdt_path_offset_namelen>

2fff4cf2 <fdt_supernode_atdepth_offset>:
2fff4cf2:	e92d 41f3 	stmdb	sp!, {r0, r1, r4, r5, r6, r7, r8, lr}
2fff4cf6:	4680      	mov	r8, r0
2fff4cf8:	460d      	mov	r5, r1
2fff4cfa:	4616      	mov	r6, r2
2fff4cfc:	461f      	mov	r7, r3
2fff4cfe:	f7fe f8ed 	bl	2fff2edc <fdt_ro_probe_>
2fff4d02:	1e04      	subs	r4, r0, #0
2fff4d04:	db03      	blt.n	2fff4d0e <fdt_supernode_atdepth_offset+0x1c>
2fff4d06:	2e00      	cmp	r6, #0
2fff4d08:	da05      	bge.n	2fff4d16 <fdt_supernode_atdepth_offset+0x24>
2fff4d0a:	f04f 34ff 	mov.w	r4, #4294967295	@ 0xffffffff
2fff4d0e:	4620      	mov	r0, r4
2fff4d10:	b002      	add	sp, #8
2fff4d12:	e8bd 81f0 	ldmia.w	sp!, {r4, r5, r6, r7, r8, pc}
2fff4d16:	2100      	movs	r1, #0
2fff4d18:	428d      	cmp	r5, r1
2fff4d1a:	9101      	str	r1, [sp, #4]
2fff4d1c:	db14      	blt.n	2fff4d48 <fdt_supernode_atdepth_offset+0x56>
2fff4d1e:	f06f 040c 	mvn.w	r4, #12
2fff4d22:	9b01      	ldr	r3, [sp, #4]
2fff4d24:	42b3      	cmp	r3, r6
2fff4d26:	bf08      	it	eq
2fff4d28:	460c      	moveq	r4, r1
2fff4d2a:	428d      	cmp	r5, r1
2fff4d2c:	d104      	bne.n	2fff4d38 <fdt_supernode_atdepth_offset+0x46>
2fff4d2e:	b107      	cbz	r7, 2fff4d32 <fdt_supernode_atdepth_offset+0x40>
2fff4d30:	603b      	str	r3, [r7, #0]
2fff4d32:	42b3      	cmp	r3, r6
2fff4d34:	daeb      	bge.n	2fff4d0e <fdt_supernode_atdepth_offset+0x1c>
2fff4d36:	e7e8      	b.n	2fff4d0a <fdt_supernode_atdepth_offset+0x18>
2fff4d38:	aa01      	add	r2, sp, #4
2fff4d3a:	4640      	mov	r0, r8
2fff4d3c:	f7ff fdc9 	bl	2fff48d2 <fdt_next_node>
2fff4d40:	1e01      	subs	r1, r0, #0
2fff4d42:	db04      	blt.n	2fff4d4e <fdt_supernode_atdepth_offset+0x5c>
2fff4d44:	428d      	cmp	r5, r1
2fff4d46:	daec      	bge.n	2fff4d22 <fdt_supernode_atdepth_offset+0x30>
2fff4d48:	f06f 0403 	mvn.w	r4, #3
2fff4d4c:	e7df      	b.n	2fff4d0e <fdt_supernode_atdepth_offset+0x1c>
2fff4d4e:	1c4a      	adds	r2, r1, #1
2fff4d50:	d0fa      	beq.n	2fff4d48 <fdt_supernode_atdepth_offset+0x56>
2fff4d52:	1d0b      	adds	r3, r1, #4
2fff4d54:	bf14      	ite	ne
2fff4d56:	460c      	movne	r4, r1
2fff4d58:	f06f 040a 	mvneq.w	r4, #10
2fff4d5c:	e7d7      	b.n	2fff4d0e <fdt_supernode_atdepth_offset+0x1c>

2fff4d5e <fdt_node_depth>:
2fff4d5e:	b507      	push	{r0, r1, r2, lr}
2fff4d60:	2200      	movs	r2, #0
2fff4d62:	ab01      	add	r3, sp, #4
2fff4d64:	f7ff ffc5 	bl	2fff4cf2 <fdt_supernode_atdepth_offset>
2fff4d68:	2800      	cmp	r0, #0
2fff4d6a:	d003      	beq.n	2fff4d74 <fdt_node_depth+0x16>
2fff4d6c:	da04      	bge.n	2fff4d78 <fdt_node_depth+0x1a>
2fff4d6e:	b003      	add	sp, #12
2fff4d70:	f85d fb04 	ldr.w	pc, [sp], #4
2fff4d74:	9801      	ldr	r0, [sp, #4]
2fff4d76:	e7fa      	b.n	2fff4d6e <fdt_node_depth+0x10>
2fff4d78:	f06f 000c 	mvn.w	r0, #12
2fff4d7c:	e7f7      	b.n	2fff4d6e <fdt_node_depth+0x10>

2fff4d7e <fdt_parent_offset>:
2fff4d7e:	b570      	push	{r4, r5, r6, lr}
2fff4d80:	4604      	mov	r4, r0
2fff4d82:	460d      	mov	r5, r1
2fff4d84:	f7ff ffeb 	bl	2fff4d5e <fdt_node_depth>
2fff4d88:	1e02      	subs	r2, r0, #0
2fff4d8a:	db07      	blt.n	2fff4d9c <fdt_parent_offset+0x1e>
2fff4d8c:	4629      	mov	r1, r5
2fff4d8e:	4620      	mov	r0, r4
2fff4d90:	2300      	movs	r3, #0
2fff4d92:	3a01      	subs	r2, #1
2fff4d94:	e8bd 4070 	ldmia.w	sp!, {r4, r5, r6, lr}
2fff4d98:	f7ff bfab 	b.w	2fff4cf2 <fdt_supernode_atdepth_offset>
2fff4d9c:	bd70      	pop	{r4, r5, r6, pc}

2fff4d9e <fdt_node_offset_by_phandle>:
2fff4d9e:	1e4b      	subs	r3, r1, #1
2fff4da0:	3303      	adds	r3, #3
2fff4da2:	b570      	push	{r4, r5, r6, lr}
2fff4da4:	4605      	mov	r5, r0
2fff4da6:	460e      	mov	r6, r1
2fff4da8:	d817      	bhi.n	2fff4dda <fdt_node_offset_by_phandle+0x3c>
2fff4daa:	f7fe f897 	bl	2fff2edc <fdt_ro_probe_>
2fff4dae:	1e04      	subs	r4, r0, #0
2fff4db0:	db08      	blt.n	2fff4dc4 <fdt_node_offset_by_phandle+0x26>
2fff4db2:	2200      	movs	r2, #0
2fff4db4:	f04f 31ff 	mov.w	r1, #4294967295	@ 0xffffffff
2fff4db8:	4628      	mov	r0, r5
2fff4dba:	f7ff fd8a 	bl	2fff48d2 <fdt_next_node>
2fff4dbe:	2800      	cmp	r0, #0
2fff4dc0:	4604      	mov	r4, r0
2fff4dc2:	da01      	bge.n	2fff4dc8 <fdt_node_offset_by_phandle+0x2a>
2fff4dc4:	4620      	mov	r0, r4
2fff4dc6:	bd70      	pop	{r4, r5, r6, pc}
2fff4dc8:	4621      	mov	r1, r4
2fff4dca:	4628      	mov	r0, r5
2fff4dcc:	f7fe f998 	bl	2fff3100 <fdt_get_phandle>
2fff4dd0:	42b0      	cmp	r0, r6
2fff4dd2:	d0f7      	beq.n	2fff4dc4 <fdt_node_offset_by_phandle+0x26>
2fff4dd4:	2200      	movs	r2, #0
2fff4dd6:	4621      	mov	r1, r4
2fff4dd8:	e7ee      	b.n	2fff4db8 <fdt_node_offset_by_phandle+0x1a>
2fff4dda:	f06f 0405 	mvn.w	r4, #5
2fff4dde:	e7f1      	b.n	2fff4dc4 <fdt_node_offset_by_phandle+0x26>

2fff4de0 <fdt_stringlist_contains>:
2fff4de0:	e92d 41f0 	stmdb	sp!, {r4, r5, r6, r7, r8, lr}
2fff4de4:	4604      	mov	r4, r0
2fff4de6:	4610      	mov	r0, r2
2fff4de8:	460d      	mov	r5, r1
2fff4dea:	4617      	mov	r7, r2
2fff4dec:	f000 f9ba 	bl	2fff5164 <strlen>
2fff4df0:	4606      	mov	r6, r0
2fff4df2:	f100 0801 	add.w	r8, r0, #1
2fff4df6:	42b5      	cmp	r5, r6
2fff4df8:	db0b      	blt.n	2fff4e12 <fdt_stringlist_contains+0x32>
2fff4dfa:	4642      	mov	r2, r8
2fff4dfc:	4621      	mov	r1, r4
2fff4dfe:	4638      	mov	r0, r7
2fff4e00:	f000 f86d 	bl	2fff4ede <memcmp>
2fff4e04:	b168      	cbz	r0, 2fff4e22 <fdt_stringlist_contains+0x42>
2fff4e06:	462a      	mov	r2, r5
2fff4e08:	2100      	movs	r1, #0
2fff4e0a:	4620      	mov	r0, r4
2fff4e0c:	f000 f859 	bl	2fff4ec2 <memchr>
2fff4e10:	b910      	cbnz	r0, 2fff4e18 <fdt_stringlist_contains+0x38>
2fff4e12:	2000      	movs	r0, #0
2fff4e14:	e8bd 81f0 	ldmia.w	sp!, {r4, r5, r6, r7, r8, pc}
2fff4e18:	1b04      	subs	r4, r0, r4
2fff4e1a:	3401      	adds	r4, #1
2fff4e1c:	1b2d      	subs	r5, r5, r4
2fff4e1e:	1c44      	adds	r4, r0, #1
2fff4e20:	e7e9      	b.n	2fff4df6 <fdt_stringlist_contains+0x16>
2fff4e22:	2001      	movs	r0, #1
2fff4e24:	e7f6      	b.n	2fff4e14 <fdt_stringlist_contains+0x34>

2fff4e26 <fdt_stringlist_search>:
2fff4e26:	e92d 43f7 	stmdb	sp!, {r0, r1, r2, r4, r5, r6, r7, r8, r9, lr}
2fff4e2a:	4698      	mov	r8, r3
2fff4e2c:	ab01      	add	r3, sp, #4
2fff4e2e:	f7ff fef8 	bl	2fff4c22 <fdt_getprop>
2fff4e32:	4604      	mov	r4, r0
2fff4e34:	b920      	cbnz	r0, 2fff4e40 <fdt_stringlist_search+0x1a>
2fff4e36:	9d01      	ldr	r5, [sp, #4]
2fff4e38:	4628      	mov	r0, r5
2fff4e3a:	b003      	add	sp, #12
2fff4e3c:	e8bd 83f0 	ldmia.w	sp!, {r4, r5, r6, r7, r8, r9, pc}
2fff4e40:	4640      	mov	r0, r8
2fff4e42:	2500      	movs	r5, #0
2fff4e44:	f000 f98e 	bl	2fff5164 <strlen>
2fff4e48:	9e01      	ldr	r6, [sp, #4]
2fff4e4a:	1c47      	adds	r7, r0, #1
2fff4e4c:	4426      	add	r6, r4
2fff4e4e:	42b4      	cmp	r4, r6
2fff4e50:	d302      	bcc.n	2fff4e58 <fdt_stringlist_search+0x32>
2fff4e52:	f04f 35ff 	mov.w	r5, #4294967295	@ 0xffffffff
2fff4e56:	e7ef      	b.n	2fff4e38 <fdt_stringlist_search+0x12>
2fff4e58:	1b31      	subs	r1, r6, r4
2fff4e5a:	4620      	mov	r0, r4
2fff4e5c:	f000 f99e 	bl	2fff519c <strnlen>
2fff4e60:	3001      	adds	r0, #1
2fff4e62:	eb04 0900 	add.w	r9, r4, r0
2fff4e66:	45b1      	cmp	r9, r6
2fff4e68:	9001      	str	r0, [sp, #4]
2fff4e6a:	d80c      	bhi.n	2fff4e86 <fdt_stringlist_search+0x60>
2fff4e6c:	42b8      	cmp	r0, r7
2fff4e6e:	d002      	beq.n	2fff4e76 <fdt_stringlist_search+0x50>
2fff4e70:	3501      	adds	r5, #1
2fff4e72:	464c      	mov	r4, r9
2fff4e74:	e7eb      	b.n	2fff4e4e <fdt_stringlist_search+0x28>
2fff4e76:	463a      	mov	r2, r7
2fff4e78:	4641      	mov	r1, r8
2fff4e7a:	4620      	mov	r0, r4
2fff4e7c:	f000 f82f 	bl	2fff4ede <memcmp>
2fff4e80:	2800      	cmp	r0, #0
2fff4e82:	d1f5      	bne.n	2fff4e70 <fdt_stringlist_search+0x4a>
2fff4e84:	e7d8      	b.n	2fff4e38 <fdt_stringlist_search+0x12>
2fff4e86:	f06f 050e 	mvn.w	r5, #14
2fff4e8a:	e7d5      	b.n	2fff4e38 <fdt_stringlist_search+0x12>

2fff4e8c <fdt_node_offset_by_compatible>:
2fff4e8c:	b570      	push	{r4, r5, r6, lr}
2fff4e8e:	4605      	mov	r5, r0
2fff4e90:	460c      	mov	r4, r1
2fff4e92:	4616      	mov	r6, r2
2fff4e94:	f7fe f822 	bl	2fff2edc <fdt_ro_probe_>
2fff4e98:	2800      	cmp	r0, #0
2fff4e9a:	db11      	blt.n	2fff4ec0 <fdt_node_offset_by_compatible+0x34>
2fff4e9c:	4621      	mov	r1, r4
2fff4e9e:	2200      	movs	r2, #0
2fff4ea0:	4628      	mov	r0, r5
2fff4ea2:	f7ff fd16 	bl	2fff48d2 <fdt_next_node>
2fff4ea6:	2800      	cmp	r0, #0
2fff4ea8:	4604      	mov	r4, r0
2fff4eaa:	db08      	blt.n	2fff4ebe <fdt_node_offset_by_compatible+0x32>
2fff4eac:	4632      	mov	r2, r6
2fff4eae:	4621      	mov	r1, r4
2fff4eb0:	4628      	mov	r0, r5
2fff4eb2:	f7fe f95d 	bl	2fff3170 <fdt_node_check_compatible>
2fff4eb6:	1c43      	adds	r3, r0, #1
2fff4eb8:	db02      	blt.n	2fff4ec0 <fdt_node_offset_by_compatible+0x34>
2fff4eba:	2800      	cmp	r0, #0
2fff4ebc:	d1ee      	bne.n	2fff4e9c <fdt_node_offset_by_compatible+0x10>
2fff4ebe:	4620      	mov	r0, r4
2fff4ec0:	bd70      	pop	{r4, r5, r6, pc}

2fff4ec2 <memchr>:
2fff4ec2:	4402      	add	r2, r0
2fff4ec4:	4603      	mov	r3, r0
2fff4ec6:	b2c9      	uxtb	r1, r1
2fff4ec8:	b510      	push	{r4, lr}
2fff4eca:	4618      	mov	r0, r3
2fff4ecc:	4293      	cmp	r3, r2
2fff4ece:	d101      	bne.n	2fff4ed4 <memchr+0x12>
2fff4ed0:	2000      	movs	r0, #0
2fff4ed2:	e003      	b.n	2fff4edc <memchr+0x1a>
2fff4ed4:	7804      	ldrb	r4, [r0, #0]
2fff4ed6:	3301      	adds	r3, #1
2fff4ed8:	428c      	cmp	r4, r1
2fff4eda:	d1f6      	bne.n	2fff4eca <memchr+0x8>
2fff4edc:	bd10      	pop	{r4, pc}

2fff4ede <memcmp>:
2fff4ede:	4402      	add	r2, r0
2fff4ee0:	b510      	push	{r4, lr}
2fff4ee2:	4290      	cmp	r0, r2
2fff4ee4:	d101      	bne.n	2fff4eea <memcmp+0xc>
2fff4ee6:	2000      	movs	r0, #0
2fff4ee8:	e006      	b.n	2fff4ef8 <memcmp+0x1a>
2fff4eea:	f810 3b01 	ldrb.w	r3, [r0], #1
2fff4eee:	f811 4b01 	ldrb.w	r4, [r1], #1
2fff4ef2:	42a3      	cmp	r3, r4
2fff4ef4:	d0f5      	beq.n	2fff4ee2 <memcmp+0x4>
2fff4ef6:	1b18      	subs	r0, r3, r4
2fff4ef8:	bd10      	pop	{r4, pc}

2fff4efa <memcpy>:
2fff4efa:	440a      	add	r2, r1
2fff4efc:	1e43      	subs	r3, r0, #1
2fff4efe:	b510      	push	{r4, lr}
2fff4f00:	4291      	cmp	r1, r2
2fff4f02:	d100      	bne.n	2fff4f06 <memcpy+0xc>
2fff4f04:	bd10      	pop	{r4, pc}
2fff4f06:	f811 4b01 	ldrb.w	r4, [r1], #1
2fff4f0a:	f803 4f01 	strb.w	r4, [r3, #1]!
2fff4f0e:	e7f7      	b.n	2fff4f00 <memcpy+0x6>

2fff4f10 <memmove>:
2fff4f10:	b470      	push	{r4, r5, r6}
2fff4f12:	4613      	mov	r3, r2
2fff4f14:	1a46      	subs	r6, r0, r1
2fff4f16:	4605      	mov	r5, r0
2fff4f18:	4296      	cmp	r6, r2
2fff4f1a:	460c      	mov	r4, r1
2fff4f1c:	d302      	bcc.n	2fff4f24 <memmove+0x14>
2fff4f1e:	bc70      	pop	{r4, r5, r6}
2fff4f20:	f7ff bfeb 	b.w	2fff4efa <memcpy>
2fff4f24:	4414      	add	r4, r2
2fff4f26:	4403      	add	r3, r0
2fff4f28:	429d      	cmp	r5, r3
2fff4f2a:	d102      	bne.n	2fff4f32 <memmove+0x22>
2fff4f2c:	4628      	mov	r0, r5
2fff4f2e:	bc70      	pop	{r4, r5, r6}
2fff4f30:	4770      	bx	lr
2fff4f32:	f814 2d01 	ldrb.w	r2, [r4, #-1]!
2fff4f36:	f803 2d01 	strb.w	r2, [r3, #-1]!
2fff4f3a:	e7f5      	b.n	2fff4f28 <memmove+0x18>

2fff4f3c <memset>:
2fff4f3c:	b570      	push	{r4, r5, r6, lr}
2fff4f3e:	b1ca      	cbz	r2, 2fff4f74 <memset+0x38>
2fff4f40:	b2c9      	uxtb	r1, r1
2fff4f42:	4603      	mov	r3, r0
2fff4f44:	075c      	lsls	r4, r3, #29
2fff4f46:	d111      	bne.n	2fff4f6c <memset+0x30>
2fff4f48:	f022 0407 	bic.w	r4, r2, #7
2fff4f4c:	f04f 3501 	mov.w	r5, #16843009	@ 0x1010101
2fff4f50:	fba1 5605 	umull	r5, r6, r1, r5
2fff4f54:	441c      	add	r4, r3
2fff4f56:	442e      	add	r6, r5
2fff4f58:	42a3      	cmp	r3, r4
2fff4f5a:	d10c      	bne.n	2fff4f76 <memset+0x3a>
2fff4f5c:	f002 0207 	and.w	r2, r2, #7
2fff4f60:	4422      	add	r2, r4
2fff4f62:	4294      	cmp	r4, r2
2fff4f64:	d006      	beq.n	2fff4f74 <memset+0x38>
2fff4f66:	f804 1b01 	strb.w	r1, [r4], #1
2fff4f6a:	e7fa      	b.n	2fff4f62 <memset+0x26>
2fff4f6c:	f803 1b01 	strb.w	r1, [r3], #1
2fff4f70:	3a01      	subs	r2, #1
2fff4f72:	d1e7      	bne.n	2fff4f44 <memset+0x8>
2fff4f74:	bd70      	pop	{r4, r5, r6, pc}
2fff4f76:	e9c3 5600 	strd	r5, r6, [r3]
2fff4f7a:	3308      	adds	r3, #8
2fff4f7c:	e7ec      	b.n	2fff4f58 <memset+0x1c>

2fff4f7e <unsigned_num_print.part.0>:
2fff4f7e:	e92d 4ff0 	stmdb	sp!, {r4, r5, r6, r7, r8, r9, sl, fp, lr}
2fff4f82:	b089      	sub	sp, #36	@ 0x24
2fff4f84:	f10d 090c 	add.w	r9, sp, #12
2fff4f88:	4605      	mov	r5, r0
2fff4f8a:	9300      	str	r3, [sp, #0]
2fff4f8c:	460c      	mov	r4, r1
2fff4f8e:	f89d 304c 	ldrb.w	r3, [sp, #76]	@ 0x4c
2fff4f92:	4690      	mov	r8, r2
2fff4f94:	9f12      	ldr	r7, [sp, #72]	@ 0x48
2fff4f96:	2600      	movs	r6, #0
2fff4f98:	9301      	str	r3, [sp, #4]
2fff4f9a:	46ca      	mov	sl, r9
2fff4f9c:	4642      	mov	r2, r8
2fff4f9e:	2300      	movs	r3, #0
2fff4fa0:	4628      	mov	r0, r5
2fff4fa2:	4621      	mov	r1, r4
2fff4fa4:	f7fd ef88 	blx	2fff2eb8 <__aeabi_uldivmod>
2fff4fa8:	2a09      	cmp	r2, #9
2fff4faa:	b2d3      	uxtb	r3, r2
2fff4fac:	d81c      	bhi.n	2fff4fe8 <unsigned_num_print.part.0+0x6a>
2fff4fae:	3330      	adds	r3, #48	@ 0x30
2fff4fb0:	4545      	cmp	r5, r8
2fff4fb2:	b2db      	uxtb	r3, r3
2fff4fb4:	f174 0400 	sbcs.w	r4, r4, #0
2fff4fb8:	f106 0b01 	add.w	fp, r6, #1
2fff4fbc:	f809 3b01 	strb.w	r3, [r9], #1
2fff4fc0:	d20e      	bcs.n	2fff4fe0 <unsigned_num_print.part.0+0x62>
2fff4fc2:	2f00      	cmp	r7, #0
2fff4fc4:	dc22      	bgt.n	2fff500c <unsigned_num_print.part.0+0x8e>
2fff4fc6:	2400      	movs	r4, #0
2fff4fc8:	4635      	mov	r5, r6
2fff4fca:	f81a 0005 	ldrb.w	r0, [sl, r5]
2fff4fce:	f7fe fbae 	bl	2fff372e <putchar>
2fff4fd2:	3d01      	subs	r5, #1
2fff4fd4:	d2f9      	bcs.n	2fff4fca <unsigned_num_print.part.0+0x4c>
2fff4fd6:	1c60      	adds	r0, r4, #1
2fff4fd8:	4430      	add	r0, r6
2fff4fda:	b009      	add	sp, #36	@ 0x24
2fff4fdc:	e8bd 8ff0 	ldmia.w	sp!, {r4, r5, r6, r7, r8, r9, sl, fp, pc}
2fff4fe0:	465e      	mov	r6, fp
2fff4fe2:	4605      	mov	r5, r0
2fff4fe4:	460c      	mov	r4, r1
2fff4fe6:	e7d9      	b.n	2fff4f9c <unsigned_num_print.part.0+0x1e>
2fff4fe8:	9a01      	ldr	r2, [sp, #4]
2fff4fea:	b10a      	cbz	r2, 2fff4ff0 <unsigned_num_print.part.0+0x72>
2fff4fec:	3337      	adds	r3, #55	@ 0x37
2fff4fee:	e7df      	b.n	2fff4fb0 <unsigned_num_print.part.0+0x32>
2fff4ff0:	3357      	adds	r3, #87	@ 0x57
2fff4ff2:	e7dd      	b.n	2fff4fb0 <unsigned_num_print.part.0+0x32>
2fff4ff4:	9800      	ldr	r0, [sp, #0]
2fff4ff6:	3c01      	subs	r4, #1
2fff4ff8:	f7fe fb99 	bl	2fff372e <putchar>
2fff4ffc:	45a3      	cmp	fp, r4
2fff4ffe:	dbf9      	blt.n	2fff4ff4 <unsigned_num_print.part.0+0x76>
2fff5000:	eba7 040b 	sub.w	r4, r7, fp
2fff5004:	45bb      	cmp	fp, r7
2fff5006:	bfc8      	it	gt
2fff5008:	2400      	movgt	r4, #0
2fff500a:	e7dd      	b.n	2fff4fc8 <unsigned_num_print.part.0+0x4a>
2fff500c:	463c      	mov	r4, r7
2fff500e:	e7f5      	b.n	2fff4ffc <unsigned_num_print.part.0+0x7e>

2fff5010 <printf>:
2fff5010:	b40f      	push	{r0, r1, r2, r3}
2fff5012:	b507      	push	{r0, r1, r2, lr}
2fff5014:	a904      	add	r1, sp, #16
2fff5016:	f851 0b04 	ldr.w	r0, [r1], #4
2fff501a:	9101      	str	r1, [sp, #4]
2fff501c:	f7fe f8c8 	bl	2fff31b0 <vprintf>
2fff5020:	b003      	add	sp, #12
2fff5022:	f85d eb04 	ldr.w	lr, [sp], #4
2fff5026:	b004      	add	sp, #16
2fff5028:	4770      	bx	lr

2fff502a <unsigned_num_print>:
2fff502a:	e92d 4ff0 	stmdb	sp!, {r4, r5, r6, r7, r8, r9, sl, fp, lr}
2fff502e:	b089      	sub	sp, #36	@ 0x24
2fff5030:	4604      	mov	r4, r0
2fff5032:	460f      	mov	r7, r1
2fff5034:	f89d 305c 	ldrb.w	r3, [sp, #92]	@ 0x5c
2fff5038:	4615      	mov	r5, r2
2fff503a:	e9dd 9812 	ldrd	r9, r8, [sp, #72]	@ 0x48
2fff503e:	f89d a054 	ldrb.w	sl, [sp, #84]	@ 0x54
2fff5042:	2b00      	cmp	r3, #0
2fff5044:	bf0c      	ite	eq
2fff5046:	2361      	moveq	r3, #97	@ 0x61
2fff5048:	2341      	movne	r3, #65	@ 0x41
2fff504a:	f10d 0b0c 	add.w	fp, sp, #12
2fff504e:	2600      	movs	r6, #0
2fff5050:	3b0a      	subs	r3, #10
2fff5052:	9301      	str	r3, [sp, #4]
2fff5054:	9a14      	ldr	r2, [sp, #80]	@ 0x50
2fff5056:	4641      	mov	r1, r8
2fff5058:	2300      	movs	r3, #0
2fff505a:	4648      	mov	r0, r9
2fff505c:	3601      	adds	r6, #1
2fff505e:	f7fd ef2c 	blx	2fff2eb8 <__aeabi_uldivmod>
2fff5062:	2a09      	cmp	r2, #9
2fff5064:	b2d3      	uxtb	r3, r2
2fff5066:	bf92      	itee	ls
2fff5068:	3330      	addls	r3, #48	@ 0x30
2fff506a:	9a01      	ldrhi	r2, [sp, #4]
2fff506c:	189b      	addhi	r3, r3, r2
2fff506e:	b2db      	uxtb	r3, r3
2fff5070:	f80b 3b01 	strb.w	r3, [fp], #1
2fff5074:	9b14      	ldr	r3, [sp, #80]	@ 0x50
2fff5076:	4599      	cmp	r9, r3
2fff5078:	f178 0800 	sbcs.w	r8, r8, #0
2fff507c:	d21c      	bcs.n	2fff50b8 <unsigned_num_print+0x8e>
2fff507e:	9b16      	ldr	r3, [sp, #88]	@ 0x58
2fff5080:	1b9b      	subs	r3, r3, r6
2fff5082:	682a      	ldr	r2, [r5, #0]
2fff5084:	2b00      	cmp	r3, #0
2fff5086:	dc1a      	bgt.n	2fff50be <unsigned_num_print+0x94>
2fff5088:	4633      	mov	r3, r6
2fff508a:	a903      	add	r1, sp, #12
2fff508c:	682a      	ldr	r2, [r5, #0]
2fff508e:	3b01      	subs	r3, #1
2fff5090:	42ba      	cmp	r2, r7
2fff5092:	d205      	bcs.n	2fff50a0 <unsigned_num_print+0x76>
2fff5094:	6822      	ldr	r2, [r4, #0]
2fff5096:	5c58      	ldrb	r0, [r3, r1]
2fff5098:	7010      	strb	r0, [r2, #0]
2fff509a:	6822      	ldr	r2, [r4, #0]
2fff509c:	3201      	adds	r2, #1
2fff509e:	6022      	str	r2, [r4, #0]
2fff50a0:	682a      	ldr	r2, [r5, #0]
2fff50a2:	3201      	adds	r2, #1
2fff50a4:	602a      	str	r2, [r5, #0]
2fff50a6:	2b00      	cmp	r3, #0
2fff50a8:	d1f0      	bne.n	2fff508c <unsigned_num_print+0x62>
2fff50aa:	9b16      	ldr	r3, [sp, #88]	@ 0x58
2fff50ac:	441e      	add	r6, r3
2fff50ae:	2e00      	cmp	r6, #0
2fff50b0:	db12      	blt.n	2fff50d8 <unsigned_num_print+0xae>
2fff50b2:	b009      	add	sp, #36	@ 0x24
2fff50b4:	e8bd 8ff0 	ldmia.w	sp!, {r4, r5, r6, r7, r8, r9, sl, fp, pc}
2fff50b8:	4681      	mov	r9, r0
2fff50ba:	4688      	mov	r8, r1
2fff50bc:	e7ca      	b.n	2fff5054 <unsigned_num_print+0x2a>
2fff50be:	42ba      	cmp	r2, r7
2fff50c0:	d205      	bcs.n	2fff50ce <unsigned_num_print+0xa4>
2fff50c2:	6822      	ldr	r2, [r4, #0]
2fff50c4:	f882 a000 	strb.w	sl, [r2]
2fff50c8:	6822      	ldr	r2, [r4, #0]
2fff50ca:	3201      	adds	r2, #1
2fff50cc:	6022      	str	r2, [r4, #0]
2fff50ce:	682a      	ldr	r2, [r5, #0]
2fff50d0:	3b01      	subs	r3, #1
2fff50d2:	3201      	adds	r2, #1
2fff50d4:	602a      	str	r2, [r5, #0]
2fff50d6:	e7d4      	b.n	2fff5082 <unsigned_num_print+0x58>
2fff50d8:	682b      	ldr	r3, [r5, #0]
2fff50da:	42bb      	cmp	r3, r7
2fff50dc:	d205      	bcs.n	2fff50ea <unsigned_num_print+0xc0>
2fff50de:	6823      	ldr	r3, [r4, #0]
2fff50e0:	f883 a000 	strb.w	sl, [r3]
2fff50e4:	6823      	ldr	r3, [r4, #0]
2fff50e6:	3301      	adds	r3, #1
2fff50e8:	6023      	str	r3, [r4, #0]
2fff50ea:	682b      	ldr	r3, [r5, #0]
2fff50ec:	3601      	adds	r6, #1
2fff50ee:	3301      	adds	r3, #1
2fff50f0:	602b      	str	r3, [r5, #0]
2fff50f2:	e7dc      	b.n	2fff50ae <unsigned_num_print+0x84>

2fff50f4 <snprintf>:
2fff50f4:	b40c      	push	{r2, r3}
2fff50f6:	b507      	push	{r0, r1, r2, lr}
2fff50f8:	ab04      	add	r3, sp, #16
2fff50fa:	f853 2b04 	ldr.w	r2, [r3], #4
2fff50fe:	9301      	str	r3, [sp, #4]
2fff5100:	f7fe f938 	bl	2fff3374 <vsnprintf>
2fff5104:	b003      	add	sp, #12
2fff5106:	f85d eb04 	ldr.w	lr, [sp], #4
2fff510a:	b002      	add	sp, #8
2fff510c:	4770      	bx	lr

2fff510e <strchr>:
2fff510e:	b2c9      	uxtb	r1, r1
2fff5110:	4603      	mov	r3, r0
2fff5112:	781a      	ldrb	r2, [r3, #0]
2fff5114:	4618      	mov	r0, r3
2fff5116:	3301      	adds	r3, #1
2fff5118:	428a      	cmp	r2, r1
2fff511a:	d002      	beq.n	2fff5122 <strchr+0x14>
2fff511c:	2a00      	cmp	r2, #0
2fff511e:	d1f8      	bne.n	2fff5112 <strchr+0x4>
2fff5120:	4610      	mov	r0, r2
2fff5122:	4770      	bx	lr

2fff5124 <strcmp>:
2fff5124:	1e43      	subs	r3, r0, #1
2fff5126:	f813 0f01 	ldrb.w	r0, [r3, #1]!
2fff512a:	f811 2b01 	ldrb.w	r2, [r1], #1
2fff512e:	4290      	cmp	r0, r2
2fff5130:	d001      	beq.n	2fff5136 <strcmp+0x12>
2fff5132:	1a80      	subs	r0, r0, r2
2fff5134:	e001      	b.n	2fff513a <strcmp+0x16>
2fff5136:	2800      	cmp	r0, #0
2fff5138:	d1f5      	bne.n	2fff5126 <strcmp+0x2>
2fff513a:	4770      	bx	lr

2fff513c <strlcpy>:
2fff513c:	460b      	mov	r3, r1
2fff513e:	b510      	push	{r4, lr}
2fff5140:	b962      	cbnz	r2, 2fff515c <strlcpy+0x20>
2fff5142:	f813 2b01 	ldrb.w	r2, [r3], #1
2fff5146:	2a00      	cmp	r2, #0
2fff5148:	d1fb      	bne.n	2fff5142 <strlcpy+0x6>
2fff514a:	e004      	b.n	2fff5156 <strlcpy+0x1a>
2fff514c:	f813 4b01 	ldrb.w	r4, [r3], #1
2fff5150:	f800 4b01 	strb.w	r4, [r0], #1
2fff5154:	b914      	cbnz	r4, 2fff515c <strlcpy+0x20>
2fff5156:	1a58      	subs	r0, r3, r1
2fff5158:	3801      	subs	r0, #1
2fff515a:	bd10      	pop	{r4, pc}
2fff515c:	3a01      	subs	r2, #1
2fff515e:	d1f5      	bne.n	2fff514c <strlcpy+0x10>
2fff5160:	7002      	strb	r2, [r0, #0]
2fff5162:	e7ee      	b.n	2fff5142 <strlcpy+0x6>

2fff5164 <strlen>:
2fff5164:	4603      	mov	r3, r0
2fff5166:	461a      	mov	r2, r3
2fff5168:	3301      	adds	r3, #1
2fff516a:	7811      	ldrb	r1, [r2, #0]
2fff516c:	2900      	cmp	r1, #0
2fff516e:	d1fa      	bne.n	2fff5166 <strlen+0x2>
2fff5170:	1a10      	subs	r0, r2, r0
2fff5172:	4770      	bx	lr

2fff5174 <strncmp>:
2fff5174:	4603      	mov	r3, r0
2fff5176:	4610      	mov	r0, r2
2fff5178:	b510      	push	{r4, lr}
2fff517a:	b142      	cbz	r2, 2fff518e <strncmp+0x1a>
2fff517c:	188c      	adds	r4, r1, r2
2fff517e:	3b01      	subs	r3, #1
2fff5180:	f813 0f01 	ldrb.w	r0, [r3, #1]!
2fff5184:	f811 2b01 	ldrb.w	r2, [r1], #1
2fff5188:	4290      	cmp	r0, r2
2fff518a:	d001      	beq.n	2fff5190 <strncmp+0x1c>
2fff518c:	1a80      	subs	r0, r0, r2
2fff518e:	bd10      	pop	{r4, pc}
2fff5190:	2800      	cmp	r0, #0
2fff5192:	d0fc      	beq.n	2fff518e <strncmp+0x1a>
2fff5194:	42a1      	cmp	r1, r4
2fff5196:	d1f3      	bne.n	2fff5180 <strncmp+0xc>
2fff5198:	2000      	movs	r0, #0
2fff519a:	e7f8      	b.n	2fff518e <strncmp+0x1a>

2fff519c <strnlen>:
2fff519c:	4603      	mov	r3, r0
2fff519e:	2000      	movs	r0, #0
2fff51a0:	4288      	cmp	r0, r1
2fff51a2:	d100      	bne.n	2fff51a6 <strnlen+0xa>
2fff51a4:	4770      	bx	lr
2fff51a6:	5c1a      	ldrb	r2, [r3, r0]
2fff51a8:	2a00      	cmp	r2, #0
2fff51aa:	d0fb      	beq.n	2fff51a4 <strnlen+0x8>
2fff51ac:	3001      	adds	r0, #1
2fff51ae:	e7f7      	b.n	2fff51a0 <strnlen+0x4>

2fff51b0 <strrchr>:
2fff51b0:	4603      	mov	r3, r0
2fff51b2:	b2c9      	uxtb	r1, r1
2fff51b4:	2000      	movs	r0, #0
2fff51b6:	b510      	push	{r4, lr}
2fff51b8:	461c      	mov	r4, r3
2fff51ba:	f813 2b01 	ldrb.w	r2, [r3], #1
2fff51be:	428a      	cmp	r2, r1
2fff51c0:	bf08      	it	eq
2fff51c2:	4620      	moveq	r0, r4
2fff51c4:	2a00      	cmp	r2, #0
2fff51c6:	d1f7      	bne.n	2fff51b8 <strrchr+0x8>
2fff51c8:	bd10      	pop	{r4, pc}
2fff51ca:	0000      	movs	r0, r0
2fff51cc:	0000      	movs	r0, r0
	...

2fff51d0 <stm32mp1_mmap>:
2fff51d0:	0000 2ffc 0000 0000 0000 2ffc 0000 0004     .../......./....
2fff51e0:	004a 0000 0000 4000 0000 4000 0000 0000     J......@...@....
2fff51f0:	0000 4000 0000 4000 0048 0000 0000 4000     ...@...@H......@
	...

2fff5218 <fip_dev_funcs>:
2fff5218:	3755 2fff ac8d 2ffe 0000 0000 ac69 2ffe     U7./.../....i../
2fff5228:	abb5 2ffe 0000 0000 aaf9 2ffe ab19 2ffe     .../......./.../
2fff5238:	ad7d 2ffe                                   }../

2fff523c <fip_dev_connector>:
2fff523c:	adcd 2ffe                                   .../

2fff5240 <mtd_dev_funcs>:
2fff5240:	3759 2fff aef5 2ffe af39 2ffe 0000 0000     Y7./.../9../....
2fff5250:	ae45 2ffe 0000 0000 375d 2fff 0000 0000     E../....]7./....
2fff5260:	afbd 2ffe                                   .../

2fff5264 <mtd_dev_connector>:
2fff5264:	aff9 2ffe                                   .../

2fff5268 <stm32mp_clk_ops>:
2fff5268:	c0bd 2ffe c02d 2ffe c285 2ffe bf75 2ffe     .../-../.../u../
2fff5278:	bfed 2ffe                                   .../

2fff527c <stm32mp1_clk_pll>:
2fff527c:	0001 0000 0028 0084 0088 008c 0080 0090     ....(...........
2fff528c:	0000 0000 0001 0000 00ff 0000 00ff 0000     ................
2fff529c:	0001 0000 0028 0098 009c 00a0 0094 00a4     ....(...........
2fff52ac:	0000 0000 0001 0000 00ff 0000 00ff 0000     ................
2fff52bc:	0000 0000 0820 0884 0888 088c 0880 0890     .... ...........
2fff52cc:	0000 0000 0001 0000 0002 0000 00ff 0000     ................
2fff52dc:	0000 0000 0824 0898 089c 08a0 0894 08a4     ....$...........
2fff52ec:	0000 0000 0001 0000 0002 0000 0005 0000     ................

2fff52fc <stm32mp1_clk_sel>:
2fff52fc:	08c0 0700 0004 0000 8fd3 2fff 08c4 0700     .........../....
2fff530c:	0004 0000 8fcf 2fff 00d4 0300 0002 0000     ......./........
2fff531c:	8fcd 2fff 00c0 0700 0004 0000 8fc9 2fff     .../.........../
2fff532c:	00c4 0700 0006 0000 8fc3 2fff 00c8 0700     .........../....
2fff533c:	0006 0000 8fbd 2fff 00cc 0300 0004 0000     ......./........
2fff534c:	8fb9 2fff 08e4 0700 0005 0000 8fb4 2fff     .../.........../
2fff535c:	08e8 0700 0005 0000 8faf 2fff 08ec 0700     .........../....
2fff536c:	0005 0000 8faf 2fff 08f0 0700 0005 0000     ......./........
2fff537c:	8faf 2fff 08f4 0700 0004 0000 8fab 2fff     .../.........../
2fff538c:	08f8 0700 0004 0000 8fa7 2fff 0900 0300     .........../....
2fff539c:	0004 0000 8fa3 2fff 0904 0300 0004 0000     ......./........
2fff53ac:	8f9f 2fff 0024 0700 0003 0000 8f9c 2fff     .../$........../
2fff53bc:	0048 0300 0004 0000 8f98 2fff 091c 0300     H........../....
2fff53cc:	0003 0000 8f95 2fff 091c 0104 0002 0000     ......./........
2fff53dc:	8f93 2fff 0020 0300 0004 0000 8f8f 2fff     .../ ........../
2fff53ec:	00d0 0300 0003 0000 8f8c 2fff 0140 0310     .........../@...
2fff53fc:	0004 0000 8f88 2fff 00e4 0000 0045 0000     ......./....E...
2fff540c:	00dc 0000 00dd 0000 00de 0000 00df 0000     ................
2fff541c:	00e2 0000 00e5 0000 00e6 0000 00e0 0000     ................
2fff542c:	00e1 0000 0041 0000 0042 0000 0071 0000     ....A...B...q...
2fff543c:	0043 0000 0080 0000                         C.......

2fff5444 <ddr_registers>:
2fff5444:	7324 2fff 60de 2fff 0019 0000 0000 0000     $s./.`./........
2fff5454:	7497 2fff 60ae 2fff 000c 0000 0000 0000     .t./.`./........
2fff5464:	74b0 2fff 6046 2fff 0011 0000 0000 0000     .t./F`./........
2fff5474:	74a5 2fff 608a 2fff 0009 0000 0000 0000     .t./.`./........
2fff5484:	7324 2fff 601a 2fff 000b 0000 0001 0000     $s./.`./........
2fff5494:	7497 2fff 5ff2 2fff 000a 0000 0001 0000     .t./._./........
2fff54a4:	7485 2fff 000c 0000 0019 0000 7490 2fff     .t./.........t./
2fff54b4:	0070 0000 000c 0000 749e 2fff 00a0 0000     p........t./....
2fff54c4:	0009 0000 74a9 2fff 00c4 0000 0011 0000     .....t./........
2fff54d4:	74b5 2fff 0108 0000 000b 0000 74c0 2fff     .t./.........t./
2fff54e4:	0134 0000 000a 0000                         4.......

2fff54ec <i2c_specs>:
2fff54ec:	86a0 0001 012c 0000 03e8 0000 0000 0000     ....,...........
2fff54fc:	0d7a 0000 00fa 0000 125c 0000 0fa0 0000     z.......\.......
2fff550c:	1a80 0006 012c 0000 012c 0000 0000 0000     ....,...,.......
2fff551c:	0384 0000 0064 0000 0514 0000 0258 0000     ....d.......X...
2fff552c:	4240 000f 0064 0000 0078 0000 0000 0000     @B..d...x.......
2fff553c:	01c2 0000 0032 0000 01f4 0000 0104 0000     ....2...........

2fff554c <stm32_tamp_nvram_nvmem_ops>:
2fff554c:	f001 2ffe f0a5 2ffe                         .../.../

2fff5554 <stm32mp1_tamp_nvram>:
2fff5554:	0003 0000 555c 2fff                         ....\U./

2fff555c <mp1_zone_cfg_fields>:
2fff555c:	0020 0000 0000 0000 0007 0000 0020 0000      ........... ...
2fff556c:	0010 0000 0017 0000                         ........

2fff5574 <pmic_regs>:
2fff5574:	7a78 2fff 568c 2fff 0000 0000 0000 0000     xz./.V./........
2fff5584:	03e8 0000 7a7e 2fff 568c 2fff 0000 0000     ....~z./.V./....
2fff5594:	0000 0000 03e8 0000 7a84 2fff 568c 2fff     .........z./.V./
	...
2fff55ac:	03e8 0000 7a8a 2fff 568c 2fff 0000 0000     .....z./.V./....
2fff55bc:	0000 0000 03e8 0000 7a90 2fff 568c 2fff     .........z./.V./
	...
2fff55d4:	03e8 0000 7a95 2fff 568c 2fff 0000 0000     .....z./.V./....
2fff55e4:	0000 0000 03e8 0000 7a9a 2fff 568c 2fff     .........z./.V./
	...
2fff55fc:	03e8 0000 7a9f 2fff 568c 2fff 0000 0000     .....z./.V./....
2fff560c:	0000 0000 03e8 0000 7aa4 2fff 568c 2fff     .........z./.V./
	...
2fff5624:	03e8 0000 7aa9 2fff 568c 2fff 0000 0000     .....z./.V./....
2fff5634:	0000 0000 03e8 0000 7aae 2fff 568c 2fff     .........z./.V./
	...
2fff564c:	03e8 0000 7ab7 2fff 568c 2fff 0000 0000     .....z./.V./....
2fff565c:	0000 0000 03e8 0000 7abd 2fff 568c 2fff     .........z./.V./
	...
2fff5674:	03e8 0000 7ac5 2fff 568c 2fff 0000 0000     .....z./.V./....
2fff5684:	0000 0000 03e8 0000                         ........

2fff568c <pmic_ops>:
2fff568c:	4029 2fff 401f 2fff 4019 2fff 4013 2fff     )@./.@./.@./.@./
2fff569c:	400d 2fff 3fc9 2fff 0000 0000 0000 0000     .@./.?./........

2fff56ac <regulators_table>:
2fff56ac:	7a78 2fff 6390 2fff 2040 3001 0012 0018     xz./.c./@ .0....
2fff56bc:	001d 0000 7a7e 2fff 6346 2fff 2125 3101     ....~z./Fc./%!.1
2fff56cc:	0212 0118 011d 0000 7a84 2fff 62d6 2fff     .........z./.b./
2fff56dc:	2238 3201 0412 0218 021d 0000 7a8a 2fff     8".2.........z./
2fff56ec:	625c 2fff 233d 3301 0612 0318 031d 0000     \b./=#.3........
2fff56fc:	7a90 2fff 622a 2fff 2519 3501 0000 001a     .z./*b./.%.5....
2fff570c:	001e 0000 7a95 2fff 61f8 2fff 2619 3601     .....z./.a./.&.6
2fff571c:	0000 011a 011e 0000 7a9a 2fff 61ba 2fff     .........z./.a./
2fff572c:	271f 3701 0000 021a 021e 0000 7a9f 2fff     .'.7.........z./
2fff573c:	6146 2fff 2801 3801 0000 031a 031e 0000     Fa./.(.8........
2fff574c:	7aa4 2fff 617a 2fff 291f 3901 0000 041a     .z./za./.).9....
2fff575c:	041e 0000 7aa9 2fff 6148 2fff 2a19 3a01     .....z./Ha./.*.:
2fff576c:	0000 051a 051e 0000 7aae 2fff 6144 2fff     .........z./Da./
2fff577c:	2401 3401 0000 061a 0000 0000 7ab7 2fff     .$.4.........z./
2fff578c:	6142 2fff 4001 0001 0000 0000 061d 0000     Ba./.@..........
2fff579c:	7abd 2fff 6142 2fff 4001 0002 0000 0000     .z./Ba./.@......
2fff57ac:	041d 0000 7ac5 2fff 6142 2fff 4001 0004     .....z./Ba./.@..
2fff57bc:	0000 0000 051d 0000                         ........

2fff57c4 <stm32_qspi_bus_ops>:
2fff57c4:	fe21 2ffe fe49 2ffe fef1 2ffe feb5 2ffe     !../I../.../.../
2fff57d4:	ff5d 2ffe 0000 0000 0000 0000               ]../........

2fff57e0 <crc_table>:
2fff57e0:	0000 0000 3096 7707 612c ee0e 51ba 9909     .....0.w,a...Q..
2fff57f0:	c419 076d f48f 706a a535 e963 95a3 9e64     ..m...jp5.c...d.
2fff5800:	8832 0edb b8a4 79dc e91e e0d5 d988 97d2     2......y........
2fff5810:	4c2b 09b6 7cbd 7eb1 2d07 e7b8 1d91 90bf     +L...|.~.-......
2fff5820:	1064 1db7 20f2 6ab0 7148 f3b9 41de 84be     d.... .jHq...A..
2fff5830:	d47d 1ada e4eb 6ddd b551 f4d4 85c7 83d3     }......mQ.......
2fff5840:	9856 136c a8c0 646b f97a fd62 c9ec 8a65     V.l...kdz.b...e.
2fff5850:	5c4f 1401 6cd9 6306 3d63 fa0f 0df5 8d08     O\...l.cc=......
2fff5860:	20c8 3b6e 105e 4c69 41e4 d560 7172 a267     . n;^.iL.A`.rqg.
2fff5870:	e4d1 3c03 d447 4b04 85fd d20d b56b a50a     ...<G..K....k...
2fff5880:	a8fa 35b5 986c 42b2 c9d6 dbbb f940 acbc     ...5l..B....@...
2fff5890:	6ce3 32d8 5c75 45df 0dcf dcd6 3d59 abd1     .l.2u\.E....Y=..
2fff58a0:	30ac 26d9 003a 51de 5180 c8d7 6116 bfd0     .0.&:..Q.Q...a..
2fff58b0:	f4b5 21b4 c423 56b3 9599 cfba a50f b8bd     ...!#..V........
2fff58c0:	b89e 2802 8808 5f05 d9b2 c60c e924 b10b     ...(..._....$...
2fff58d0:	7c87 2f6f 4c11 5868 1dab c161 2d3d b666     .|o/.LhX..a.=-f.
2fff58e0:	4190 76dc 7106 01db 20bc 98d2 102a efd5     .A.v.q... ..*...
2fff58f0:	8589 71b1 b51f 06b6 e4a5 9fbf d433 e8b8     ...q........3...
2fff5900:	c9a2 7807 f934 0f00 a88e 9609 9818 e10e     ...x4...........
2fff5910:	0dbb 7f6a 3d2d 086d 6c97 9164 5c01 e663     ..j.-=m..ld..\c.
2fff5920:	51f4 6b6b 6162 1c6c 30d8 8565 004e f262     .Qkkbal..0e.N.b.
2fff5930:	95ed 6c06 a57b 1b01 f4c1 8208 c457 f50f     ...l{.......W...
2fff5940:	d9c6 65b0 e950 12b7 b8ea 8bbe 887c fcb9     ...eP.......|...
2fff5950:	1ddf 62dd 2d49 15da 7cf3 8cd3 4c65 fbd4     ...bI-...|..eL..
2fff5960:	6158 4db2 51ce 3ab5 0074 a3bc 30e2 d4bb     Xa.M.Q.:t....0..
2fff5970:	a541 4adf 95d7 3dd8 c46d a4d1 f4fb d3d6     A..J...=m.......
2fff5980:	e96a 4369 d9fc 346e 8846 ad67 b8d0 da60     j.iC..n4F.g...`.
2fff5990:	2d73 4404 1de5 3303 4c5f aa0a 7cc9 dd0d     s-.D...3_L...|..
2fff59a0:	713c 5005 41aa 2702 1010 be0b 2086 c90c     <q.P.A.'..... ..
2fff59b0:	b525 5768 85b3 206f d409 b966 e49f ce61     %.hW..o ..f...a.
2fff59c0:	f90e 5ede c998 29d9 9822 b0d0 a8b4 c7d7     ...^...)".......
2fff59d0:	3d17 59b3 0d81 2eb4 5c3b b7bd 6cad c0ba     .=.Y....;\...l..
2fff59e0:	8320 edb8 b3b6 9abf e20c 03b6 d29a 74b1      ..............t
2fff59f0:	4739 ead5 77af 9dd2 2615 04db 1683 73dc     9G...w...&.....s
2fff5a00:	0b12 e363 3b84 9464 6a3e 0d6d 5aa8 7a6a     ..c..;d.>jm..Zjz
2fff5a10:	cf0b e40e ff9d 9309 ae27 0a00 9eb1 7d07     ........'......}
2fff5a20:	9344 f00f a3d2 8708 f268 1e01 c2fe 6906     D.......h......i
2fff5a30:	575d f762 67cb 8065 3671 196c 06e7 6e6b     ]Wb..ge.q6l...kn
2fff5a40:	1b76 fed4 2be0 89d3 7a5a 10da 4acc 67dd     v....+..Zz...J.g
2fff5a50:	df6f f9b9 eff9 8ebe be43 17b7 8ed5 60b0     o.......C......`
2fff5a60:	a3e8 d6d6 937e a1d1 c2c4 38d8 f252 4fdf     ....~......8R..O
2fff5a70:	67f1 d1bb 5767 a6bc 06dd 3fb5 364b 48b2     .g..gW.....?K6.H
2fff5a80:	2bda d80d 1b4c af0a 4af6 3603 7a60 4104     .+..L....J.6`z.A
2fff5a90:	efc3 df60 df55 a867 8eef 316e be79 4669     ..`.U.g...n1y.iF
2fff5aa0:	b38c cb61 831a bc66 d2a0 256f e236 5268     ..a...f...o%6.hR
2fff5ab0:	7795 cc0c 4703 bb0b 16b9 2202 262f 5505     .w...G....."/&.U
2fff5ac0:	3bbe c5ba 0b28 b2bd 5a92 2bb4 6a04 5cb3     .;..(....Z.+.j.\
2fff5ad0:	ffa7 c2d7 cf31 b5d0 9e8b 2cd9 ae1d 5bde     ....1......,...[
2fff5ae0:	c2b0 9b64 f226 ec63 a39c 756a 930a 026d     ..d.&.c...ju..m.
2fff5af0:	06a9 9c09 363f eb0e 6785 7207 5713 0500     ....?6...g.r.W..
2fff5b00:	4a82 95bf 7a14 e2b8 2bae 7bb1 1b38 0cb6     .J...z...+.{8...
2fff5b10:	8e9b 92d2 be0d e5d5 efb7 7cdc df21 0bdb     ...........|!...
2fff5b20:	d2d4 86d3 e242 f1d4 b3f8 68dd 836e 1fda     ....B......hn...
2fff5b30:	16cd 81be 265b f6b9 77e1 6fb0 4777 18b7     ....[&...w.owG..
2fff5b40:	5ae6 8808 6a70 ff0f 3bca 6606 0b5c 1101     .Z..pj...;.f\...
2fff5b50:	9eff 8f65 ae69 f862 ffd3 616b cf45 166c     ..e.i.b...kaE.l.
2fff5b60:	e278 a00a d2ee d70d 8354 4e04 b3c2 3903     x.......T..N...9
2fff5b70:	2661 a767 16f7 d060 474d 4969 77db 3e6e     a&g...`.MGiI.wn>
2fff5b80:	6a4a aed1 5adc d9d6 0b66 40df 3bf0 37d8     Jj...Z..f..@.;.7
2fff5b90:	ae53 a9bc 9ec5 debb cf7f 47b2 ffe9 30b5     S..........G...0
2fff5ba0:	f21c bdbd c28a caba 9330 53b3 a3a6 24b4     ........0..S...$
2fff5bb0:	3605 bad0 0693 cdd7 5729 54de 67bf 23d9     .6......)W.T.g.#
2fff5bc0:	7a2e b366 4ab8 c461 1b02 5d68 2b94 2a6f     .zf..Ja...h].+o*
2fff5bd0:	be37 b40b 8ea1 c30c df1b 5a05 ef8d 2d02     7..........Z...-

2fff5be0 <plat_prefix_str>:
2fff5be0:	8267 2fff 8271 2fff 827b 2fff 8285 2fff     g../q../{../.../
2fff5bf0:	828f 2fff 4c93 4fd8 54ef 463f efa7 25ae     .../.L.O.T?F...%
2fff5c00:	88ff 8770 4952 09c5 d5bf 45af eeac 5333     ..p.RI.....E..3S
2fff5c10:	7603 b36f                                   .vo.

2fff5c14 <load_info>:
2fff5c14:	0001 0000 8780 2fff 0004 0000 873a 2fff     ......./....:../
2fff5c24:	0008 0000 8744 2fff 0009 0000 8755 2fff     ....D../....U../
2fff5c34:	0005 0000 8766 2fff 0002 0000 8770 2fff     ....f../....p../
2fff5c44:	0010 0000 877c 2fff 0004 0000 0005 0000     ....|../........
2fff5c54:	0002 0000 0010 0000                         ........

2fff5c5c <CSWTCH.28>:
2fff5c5c:	8dfc 2fff 8df1 2fff 8dac 2fff 8df3 2fff     .../.../.../.../

2fff5c6c <CSWTCH.27>:
2fff5c6c:	8df5 2fff 8df8 2fff 8dfb 2fff 8dfe 2fff     .../.../.../.../

2fff5c7c <stm32mp1_clk_gate>:
2fff5c7c:	00d8 dc00 0100 17ff 00d8 dd01 0100 17ff     ................
2fff5c8c:	00d8 de02 0100 17ff 00d8 df03 0100 17ff     ................
2fff5c9c:	00d8 e004 0100 10ff 00d8 e105 0100 10ff     ................
2fff5cac:	00d8 e206 0100 1bff 00d8 e307 0100 1bff     ................
2fff5cbc:	00d8 e408 0100 17ff 00d8 e509 0100 1bff     ................
2fff5ccc:	00d8 e60a 0100 1bff 0a00 950e 0001 ff08     ................
2fff5cdc:	0a00 960f 0001 ff09 0a00 9710 0001 ff08     ................
2fff5cec:	0a00 9811 0001 ff09 0a00 9a12 0001 ff0a     ................
2fff5cfc:	0a00 9b13 0001 ff0a 0a00 8915 0001 ff00     ................
2fff5d0c:	0a00 8a16 0001 ff00 0a00 8b17 0001 ff01     ................
2fff5d1c:	0a00 8d18 0001 ff01 0a08 990d 0001 ff07     ................
2fff5d2c:	0a10 330b 0001 ffff 0200 e708 0001 ffff     ...3............
2fff5d3c:	0200 3a0f 0001 ffff 0200 7f10 0001 ff11     ...:............
2fff5d4c:	0208 8700 0101 ff04 0208 8c02 0101 ff03     ................
2fff5d5c:	0208 8e03 0101 ff03 0208 9404 0101 ff05     ................
2fff5d6c:	0208 4108 0101 1cff 0208 420b 0101 1cff     ...A.......B....
2fff5d7c:	0208 710c 0101 1cff 0208 430d 0101 1cff     ...q.......C....
2fff5d8c:	0208 440f 0101 1cff 0208 4510 0101 1cff     ...D.......E....
2fff5d9c:	0208 8014 0101 ff02 0a28 5400 0001 ffff     ........(..T....
2fff5dac:	0a28 5501 0001 ffff 0a28 5602 0001 ffff     (..U....(..V....
2fff5dbc:	0a28 5703 0001 ffff 0a28 5804 0001 ffff     (..W....(..X....
2fff5dcc:	0a28 5905 0001 ffff 0a28 5a06 0001 ffff     (..Y....(..Z....
2fff5ddc:	0a28 5b07 0001 ffff 0a28 5c08 0001 ffff     (..[....(..\....
2fff5dec:	0a28 5d09 0001 ffff 0a28 5e0a 0001 ffff     (..]....(..^....
2fff5dfc:	0210 5f00 0101 1cff 0210 6004 0101 1cff     ..._.......`....
2fff5e0c:	0210 6105 0101 1cff 0210 7c06 0101 ff06     ...a.......|....
2fff5e1c:	0210 6308 0101 1cff 0218 790c 0001 ff0e     ...c.......y....
2fff5e2c:	0218 7a0e 0001 ff0d 0218 7610 0001 ff0b     ...z.......v....
2fff5e3c:	0218 7711 0001 ff0b 0140 c014 0100 ff15     ...w....@.......
2fff5e4c:	080c d608 0000 ffff                         ........

2fff5e54 <parent_mp15>:
2fff5e54:	0020 0200 001f 0024 0300 001f 0048 0200      .....$.....H...
2fff5e64:	001f 0028 0200 00ff 0820 0200 00ff 0824     ..(..... .....$.
2fff5e74:	0200 00ff 00d0 0200 00ff 0140 0210 00ff     ..........@.....
2fff5e84:	08f4 0300 00ff 08f8 0300 00ff 0904 0200     ................
2fff5e94:	00ff 0900 0200 00ff 00cc 0200 00ff 0920     .............. .
2fff5ea4:	0200 00ff 091c 0200 00ff 091c 0104 00ff     ................
2fff5eb4:	00d4 0200 00ff 0914 0200 00ff 08d8 0300     ................
2fff5ec4:	00ff 08dc 0300 00ff 08e0 0300 00ff 00c4     ................
2fff5ed4:	0300 00ff 0918 0200 00ff 08c0 0300 00ff     ................
2fff5ee4:	08c4 0300 00ff 00c0 0300 00ff 0934 0300     ............4...
2fff5ef4:	00ff 0930 0300 00ff 092c 0300 00ff 00c8     ..0.....,.......
2fff5f04:	0300 00ff 08e8 0300 00ff 08ec 0300 00ff     ................
2fff5f14:	08e4 0300 00ff 08f0 0300 00ff 08c8 0300     ................
2fff5f24:	00ff 08cc 0300 00ff 08d0 0300 00ff 08d4     ................
2fff5f34:	0300 00ff 0924 0100 00ff 090c 0200 00ff     ....$...........
2fff5f44:	0928 0200 00ff 08fc 0200 00ff 0800 0300     (...............
2fff5f54:	00ff 0804 0300 00ff                         ........

2fff5f5c <dividers_mp15>:
	...
2fff5f98:	002c 0400 001f 0030 0300 001f 0830 0400     ,.....0.....0...
2fff5fa8:	001f 0834 0300 001f 0838 0300 001f 083c     ..4.....8.....<.
2fff5fb8:	0300 001f 003c 0300 001f 0040 0300 001f     ....<.....@.....
2fff5fc8:	0000 0000 0000 0044 0600 00ff 0800 0404     ......D.........
2fff5fd8:	00ff 0804 0404 00ff 0000 0000 0000 080c     ................
2fff5fe8:	0300 00ff 08fc 0404 00ff                    ..........

2fff5ff2 <ddrphy_timing>:
2fff5ff2:	0018 0000 001c 0004 0020 0008 0034 000c     ........ ...4...
2fff6002:	0038 0010 003c 0014 0040 0018 0044 001c     8...<...@...D...
2fff6012:	0048 0020 004c 0024                         H. .L.$.

2fff601a <ddrphy_reg>:
2fff601a:	0008 0000 0024 0004 0028 0008 002c 000c     ....$...(...,...
2fff602a:	0030 0010 0050 0014 0184 0018 01c0 001c     0...P...........
2fff603a:	0200 0020 0240 0024 0280 0028               .. .@.$...(.

2fff6046 <ddr_perf>:
2fff6046:	0250 0000 0254 0004 025c 0008 0264 000c     P...T...\...d...
2fff6056:	026c 0010 0404 0014 0408 0018 0494 001c     l...............
2fff6066:	0498 0020 049c 0024 04a0 0028 04b4 002c     .. ...$...(...,.
2fff6076:	04b8 0030 0544 0034 0548 0038 054c 003c     ..0.D.4.H.8.L.<.
2fff6086:	0550 0040                                   P.@.

2fff608a <ddr_map>:
2fff608a:	0204 0000 0208 0004 020c 0008 0210 000c     ................
2fff609a:	0214 0010 0218 0014 0224 0018 0228 001c     ........$...(...
2fff60aa:	022c 0020                                   ,. .

2fff60ae <ddr_timing>:
2fff60ae:	0064 0000 0100 0004 0104 0008 0108 000c     d...............
2fff60be:	010c 0010 0110 0014 0114 0018 0118 001c     ................
2fff60ce:	011c 0020 0120 0024 0138 0028 0240 002c     .. . .$.8.(.@.,.

2fff60de <ddr_reg>:
2fff60de:	0000 0000 0010 0004 0014 0008 0020 000c     ............ ...
2fff60ee:	0024 0010 0030 0014 0034 0018 0038 001c     $...0...4...8...
2fff60fe:	0050 0020 0060 0024 00c0 0028 0180 002c     P. .`.$...(...,.
2fff610e:	0190 0030 0194 0034 0198 0038 01a0 003c     ..0...4...8...<.
2fff611e:	01a4 0040 01a8 0044 01c4 0048 0244 004c     ..@...D...H.D.L.
2fff612e:	0300 0050 0304 0054 030c 0058 036c 005c     ..P...T...X.l.\.
2fff613e:	0400 0060                                   ..`.

2fff6142 <fixed_5v_voltage_table>:
2fff6142:	1388                                        ..

2fff6144 <vref_ddr_voltage_table>:
2fff6144:	0ce4                                        ..

2fff6146 <ldo4_voltage_table>:
2fff6146:	0ce4                                        ..

2fff6148 <ldo6_voltage_table>:
2fff6148:	0384 03e8 044c 04b0 0514 0578 05dc 0640     ....L.....x...@.
2fff6158:	06a4 0708 076c 07d0 0834 0898 08fc 0960     ....l...4.....`.
2fff6168:	09c4 0a28 0a8c 0af0 0b54 0bb8 0c1c 0c80     ..(.....T.......
2fff6178:	0ce4                                        ..

2fff617a <ldo5_voltage_table>:
2fff617a:	06a4 06a4 06a4 06a4 06a4 06a4 06a4 06a4     ................
2fff618a:	06a4 0708 076c 07d0 0834 0898 08fc 0960     ....l...4.....`.
2fff619a:	09c4 0a28 0a8c 0af0 0b54 0bb8 0c1c 0c80     ..(.....T.......
2fff61aa:	0ce4 0d48 0dac 0e10 0e74 0ed8 0f3c          ..H.....t...<.

2fff61b8 <ldo3_special_mode_table>:
	...

2fff61ba <ldo3_voltage_table>:
2fff61ba:	06a4 06a4 06a4 06a4 06a4 06a4 06a4 06a4     ................
2fff61ca:	06a4 0708 076c 07d0 0834 0898 08fc 0960     ....l...4.....`.
2fff61da:	09c4 0a28 0a8c 0af0 0b54 0bb8 0c1c 0c80     ..(.....T.......
2fff61ea:	0ce4 0ce4 0ce4 0ce4 0ce4 0ce4 0ce4          ..............

2fff61f8 <ldo2_voltage_table>:
2fff61f8:	06a4 06a4 06a4 06a4 06a4 06a4 06a4 06a4     ................
2fff6208:	06a4 0708 076c 07d0 0834 0898 08fc 0960     ....l...4.....`.
2fff6218:	09c4 0a28 0a8c 0af0 0b54 0bb8 0c1c 0c80     ..(.....T.......
2fff6228:	0ce4                                        ..

2fff622a <ldo1_voltage_table>:
2fff622a:	06a4 06a4 06a4 06a4 06a4 06a4 06a4 06a4     ................
2fff623a:	06a4 0708 076c 07d0 0834 0898 08fc 0960     ....l...4.....`.
2fff624a:	09c4 0a28 0a8c 0af0 0b54 0bb8 0c1c 0c80     ..(.....T.......
2fff625a:	0ce4                                        ..

2fff625c <buck4_voltage_table>:
2fff625c:	0258 0271 028a 02a3 02bc 02d5 02ee 0307     X.q.............
2fff626c:	0320 0339 0352 036b 0384 039d 03b6 03cf      .9.R.k.........
2fff627c:	03e8 0401 041a 0433 044c 0465 047e 0497     ......3.L.e.~...
2fff628c:	04b0 04c9 04e2 04fb 0514 0514 0546 0546     ............F.F.
2fff629c:	0578 0578 05aa 05aa 05dc 0640 06a4 0708     x.x.......@.....
2fff62ac:	076c 07d0 0834 0898 08fc 0960 09c4 0a28     l...4.....`...(.
2fff62bc:	0a8c 0af0 0b54 0bb8 0c1c 0c80 0ce4 0d48     ....T.........H.
2fff62cc:	0dac 0e10 0e74 0ed8 0f3c                    ....t...<.

2fff62d6 <buck3_voltage_table>:
2fff62d6:	03e8 03e8 03e8 03e8 03e8 03e8 03e8 03e8     ................
2fff62e6:	03e8 03e8 03e8 03e8 03e8 03e8 03e8 03e8     ................
2fff62f6:	03e8 03e8 03e8 03e8 044c 044c 044c 044c     ........L.L.L.L.
2fff6306:	04b0 04b0 04b0 04b0 0514 0514 0514 0514     ................
2fff6316:	0578 0578 0578 0578 05dc 0640 06a4 0708     x.x.x.x...@.....
2fff6326:	076c 07d0 0834 0898 08fc 0960 09c4 0a28     l...4.....`...(.
2fff6336:	0a8c 0af0 0b54 0bb8 0c1c 0c80 0ce4 0d48     ....T.........H.

2fff6346 <buck2_voltage_table>:
2fff6346:	03e8 03e8 03e8 03e8 03e8 03e8 03e8 03e8     ................
2fff6356:	03e8 03e8 03e8 03e8 03e8 03e8 03e8 03e8     ................
2fff6366:	03e8 03e8 041a 041a 044c 044c 047e 047e     ........L.L.~.~.
2fff6376:	04b0 04b0 04e2 04e2 0514 0514 0546 0546     ............F.F.
2fff6386:	0578 0578 05aa 05aa 05dc                    x.x.......

2fff6390 <buck1_voltage_table>:
2fff6390:	02d5 02d5 02d5 02d5 02d5 02d5 02ee 0307     ................
2fff63a0:	0320 0339 0352 036b 0384 039d 03b6 03cf      .9.R.k.........
2fff63b0:	03e8 0401 041a 0433 044c 0465 047e 0497     ......3.L.e.~...
2fff63c0:	04b0 04c9 04e2 04fb 0514 052d 0546 055f     ..........-.F._.
2fff63d0:	0578 0591 05aa 05c3 05dc 05dc 05dc 05dc     x...............
2fff63e0:	05dc 05dc 05dc 05dc 05dc 05dc 05dc 05dc     ................
2fff63f0:	05dc 05dc 05dc 05dc 05dc 05dc 05dc 05dc     ................
2fff6400:	05dc 05dc 05dc 05dc 05dc 05dc 05dc 05dc     ................

2fff6410 <version_string>:
2fff6410:	3276 312e 2d30 7473 336d 6d32 3170 722d     v2.10-stm32mp1-r
2fff6420:	2e32 2830 6564 7562 2967 333a 6437 3436     2.0(debug):37d64
2fff6430:	3265 6561 642d 7269 7974 3328 6437 3436     e2ae-dirty(37d64
2fff6440:	3265 2961                                    e2a).

2fff6445 <build_message>:
2fff6445:	7542 6c69 2074 203a 3331 333a 3a39 3132     Built : 13:39:21
2fff6455:	202c 754a 206c 3632 3220 3230 0035 6c62     , Jul 26 2025.bl
2fff6465:	2f32 6c62 5f32 6d69 6761 5f65 6f6c 6461     2/bl2_image_load
2fff6475:	765f 2e32 0063 421e 324c 203a 6c50 7461     _v2.c..BL2: Plat
2fff6485:	6f66 6d72 7320 7465 7075 6120 726c 6165     form setup alrea
2fff6495:	7964 6420 6e6f 2165 0a21 2800 4c42 3a32     dy done!!..(BL2:
2fff64a5:	4420 696f 676e 7020 616c 6674 726f 206d      Doing platform 
2fff64b5:	6573 7574 0a70 0a00 4c42 3a32 4620 6961     setup...BL2: Fai
2fff64c5:	756c 6572 6920 206e 7270 2065 6d69 6761     lure in pre imag
2fff64d5:	2065 6f6c 6461 6820 6e61 6c64 6e69 2067     e load handling 
2fff64e5:	2528 2969 000a 4228 324c 203a 6f4c 6461     (%i)..(BL2: Load
2fff64f5:	6e69 2067 6d69 6761 2065 6469 2520 0a75     ing image id %u.
2fff6505:	0a00 4c42 3a32 4620 6961 656c 2064 6f74     ..BL2: Failed to
2fff6515:	6c20 616f 2064 6d69 6761 2065 6469 2520      load image id %
2fff6525:	2075 2528 2969 000a 4228 324c 203a 6b53     u (%i)..(BL2: Sk
2fff6535:	7069 6c20 616f 6964 676e 6920 616d 6567     ip loading image
2fff6545:	6920 2064 7525 000a 420a 324c 203a 6146      id %u...BL2: Fa
2fff6555:	6c69 7275 2065 6e69 7020 736f 2074 6d69     ilure in post im
2fff6565:	6761 2065 6f6c 6461 6820 6e61 6c64 6e69     age load handlin
2fff6575:	2067 2528 2969 000a 4214 324c 203a 7325     g (%i)...BL2: %s
2fff6585:	000a 4214 324c 203a 6f42 746f 6e69 2067     ...BL2: Booting 
2fff6595:	4c42 3233 000a 6f63 6d6d 6e6f 622f 5f6c     BL32..common/bl_
2fff65a5:	6f63 6d6d 6e6f 632e 1e00 6146 6c69 6465     common.c..Failed
2fff65b5:	7420 206f 626f 6174 6e69 7220 6665 7265      to obtain refer
2fff65c5:	6e65 6563 7420 206f 6d69 6761 2065 6469     ence to image id
2fff65d5:	253d 2075 2528 2969 000a 461e 6961 656c     =%u (%i)...Faile
2fff65e5:	2064 6f74 6120 6363 7365 2073 6d69 6761     d to access imag
2fff65f5:	2065 6469 253d 2075 2528 2969 000a 4c28     e id=%u (%i)..(L
2fff6605:	616f 6964 676e 6920 616d 6567 6920 3d64     oading image id=
2fff6615:	7525 6120 2074 6461 7264 7365 2073 7830     %u at address 0x
2fff6625:	6c25 0a78 1e00 6146 6c69 6465 7420 206f     %lx...Failed to 
2fff6635:	6564 6574 6d72 6e69 2065 6874 2065 6973     determine the si
2fff6645:	657a 6f20 2066 6874 2065 6d69 6761 2065     ze of the image 
2fff6655:	6469 253d 2075 2528 2969 000a 491e 616d     id=%u (%i)...Ima
2fff6665:	6567 6920 3d64 7525 7320 7a69 2065 756f     ge id=%u size ou
2fff6675:	2074 666f 6220 756f 646e 0a73 1e00 6146     t of bounds...Fa
2fff6685:	6c69 6465 7420 206f 6f6c 6461 6920 616d     iled to load ima
2fff6695:	6567 6920 3d64 7525 2820 6925 0a29 2800     ge id=%u (%i)..(
2fff66a5:	6d49 6761 2065 6469 253d 2075 6f6c 6461     Image id=%u load
2fff66b5:	6465 203a 7830 6c25 2078 202d 7830 6c25     ed: 0x%lx - 0x%l
2fff66c5:	0a78 2800 6e45 7274 2079 6f70 6e69 2074     x..(Entry point 
2fff66d5:	6461 7264 7365 2073 203d 7830 6c25 0a78     address = 0x%lx.
2fff66e5:	2800 5053 5253 3d20 3020 2578 0a78 6300     .(SPSR = 0x%x..c
2fff66f5:	6d6f 6f6d 2f6e 6564 6373 695f 616d 6567     ommon/desc_image
2fff6705:	6c5f 616f 2e64 0063 6f63 6d6d 6e6f 662f     _load.c.common/f
2fff6715:	7464 775f 6172 7070 7265 2e73 0063 501e     dt_wrappers.c..P
2fff6725:	6f72 6570 7472 2079 656c 676e 6874 6d20     roperty length m
2fff6735:	7369 616d 6374 0a68 1e00 6f43 6c75 6e64     ismatch...Couldn
2fff6745:	7427 6620 6e69 2064 7270 706f 7265 7974     't find property
2fff6755:	2520 2073 6e69 6420 6274 000a 531e 7274      %s in dtb...Str
2fff6765:	6e69 2067 666f 7020 6f72 6570 7472 2079     ing of property 
2fff6775:	7325 6920 206e 7464 2062 6168 2073 6562     %s in dtb has be
2fff6785:	6e65 7420 7572 636e 7461 6465 000a 431e     en truncated...C
2fff6795:	756f 646c 276e 2074 6966 646e 2220 6572     ouldn't find "re
2fff67a5:	2267 7020 6f72 6570 7472 2079 6e69 6420     g" property in d
2fff67b5:	6274 000a 6572 2d67 616e 656d 0073 732f     tb..reg-names./s
2fff67c5:	6365 7275 2d65 6863 736f 6e65 2f00 6863     ecure-chosen./ch
2fff67d5:	736f 6e65 7300 6474 756f 2d74 6170 6874     osen.stdout-path
2fff67e5:	6300 6d6f 6f6d 2f6e 6674 6c5f 676f 632e     .common/tf_log.c
2fff67f5:	1e00 5555 4449 7320 7274 6e69 2067 7369     ..UUID string is
2fff6805:	7420 6f6f 7320 6f68 7472 000a 451e 7272      too short...Err
2fff6815:	726f 7020 7261 6973 676e 5520 4955 0a44     or parsing UUID.
2fff6825:	6400 6972 6576 7372 612f 6d72 742f 637a     .drivers/arm/tzc
2fff6835:	742f 637a 3034 2e30 0063 540a 435a 342d     /tzc400.c..TZC-4
2fff6845:	3030 3a20 5720 6f72 676e 6420 7665 6369     00 : Wrong devic
2fff6855:	2065 4449 2820 7830 7825 2e29 000a 540a     e ID (0x%x)....T
2fff6865:	435a 342d 3030 3a20 4620 6c69 6574 2072     ZC-400 : Filter 
2fff6875:	7525 4720 7461 6b65 6565 6570 2072 6c61     %u Gatekeeper al
2fff6885:	6572 6461 2079 6e65 6261 656c 2e64 000a     ready enabled...
2fff6895:	7264 7669 7265 2f73 6c63 2f6b 6c63 2e6b     drivers/clk/clk.
2fff68a5:	0063 7264 7669 7265 2f73 6f63 736e 6c6f     c.drivers/consol
2fff68b5:	2f65 756d 746c 5f69 6f63 736e 6c6f 2e65     e/multi_console.
2fff68c5:	0063 7264 7669 7265 2f73 6564 616c 5f79     c.drivers/delay_
2fff68d5:	6974 656d 2f72 6564 616c 5f79 6974 656d     timer/delay_time
2fff68e5:	2e72 0063 7264 7669 7265 2f73 6564 616c     r.c.drivers/dela
2fff68f5:	5f79 6974 656d 2f72 6567 656e 6972 5f63     y_timer/generic_
2fff6905:	6564 616c 5f79 6974 656d 2e72 0063 461e     delay_timer.c..F
2fff6915:	6961 656c 2064 6f74 7320 7465 7220 6665     ailed to set ref
2fff6925:	7265 6e65 6563 7420 206f 6d69 6761 2065     erence to image 
2fff6935:	6469 253d 2075 2528 2969 000a 461e 6961     id=%u (%i)...Fai
2fff6945:	656c 2064 6f74 6c20 616f 2064 6d69 6761     led to load imag
2fff6955:	2065 6469 6920 3d64 7525 2820 6925 0a29     e id id=%u (%i).
2fff6965:	1e00 6146 6c69 6465 7420 206f 6572 6461     ..Failed to read
2fff6975:	6920 616d 6567 6920 3d64 7525 2820 6925      image id=%u (%i
2fff6985:	0a29 1e00 6552 6461 6220 7479 7365 2820     )...Read bytes (
2fff6995:	7a25 2975 6920 736e 6574 6461 6f20 2066     %zu) instead of 
2fff69a5:	7865 6570 7463 6465 2820 7a25 2975 6220     expected (%zu) b
2fff69b5:	7479 7365 000a 491e 636e 726f 6572 7463     ytes...Incorrect
2fff69c5:	4620 5557 4d20 7465 6461 7461 2061 6576      FWU Metadata ve
2fff69d5:	7372 6f69 206e 666f 2520 0a75 1e00 6341     rsion of %u...Ac
2fff69e5:	6974 6576 4920 646e 7865 7620 6c61 6575     tive Index value
2fff69f5:	2528 2975 6720 6572 7461 7265 7420 6168     (%u) greater tha
2fff6a05:	206e 6874 2065 6f63 666e 6769 7275 6465     n the configured
2fff6a15:	7620 6c61 6575 2528 2964 1e00 7250 7665      value(%d)..Prev
2fff6a25:	6f69 7375 4120 7463 7669 2065 6e49 6564     ious Active Inde
2fff6a35:	2078 6176 756c 2865 7525 2029 7267 6165     x value(%u) grea
2fff6a45:	6574 2072 6874 6e61 7420 6568 6320 6e6f     ter than the con
2fff6a55:	6966 7567 6572 2064 6176 756c 2865 6425     figured value(%d
2fff6a65:	0029 4e1e 6d75 6562 2072 666f 4220 6e61     )..Number of Ban
2fff6a75:	736b 2528 2975 6920 206e 5746 2055 654d     ks(%u) in FWU Me
2fff6a85:	6174 6164 6174 6420 6669 6566 6572 746e     tadata different
2fff6a95:	6620 6f72 206d 6874 2065 6f63 666e 6769      from the config
2fff6aa5:	7275 6465 7620 6c61 6575 2528 2964 1e00     ured value(%d)..
2fff6ab5:	754e 626d 7265 6f20 2066 6d49 6761 7365     Number of Images
2fff6ac5:	2528 2975 6920 206e 5746 2055 654d 6174     (%u) in FWU Meta
2fff6ad5:	6164 6174 6420 6669 6566 6572 746e 6620     data different f
2fff6ae5:	6f72 206d 6874 2065 6f63 666e 6769 7275     rom the configur
2fff6af5:	6465 7620 6c61 6575 2528 2964 1e00 6544     ed value(%d)..De
2fff6b05:	6373 6972 7470 726f 4f20 6666 6573 2874     scriptor Offset(
2fff6b15:	7830 7825 2029 6e69 7420 6568 4620 5557     0x%x) in the FWU
2fff6b25:	4d20 7465 6461 7461 2061 6f6e 2074 7165      Metadata not eq
2fff6b35:	6175 206c 6f74 3020 3278 0a30 6300 6568     ual to 0x20..che
2fff6b45:	6b63 6620 6961 656c 2064 6e6f 4620 5557     ck failed on FWU
2fff6b55:	6d20 7465 6461 7461 0061 531e 6e61 7469      metadata..Sanit
2fff6b65:	2079 7325 000a 431e 4352 2520 0a73 6400     y %s...CRC %s..d
2fff6b75:	6972 6576 7372 662f 7577 662f 7577 632e     rivers/fwu/fwu.c
2fff6b85:	1e00 6f6c 6461 6e69 2067 666f 4620 5557     ..loading of FWU
2fff6b95:	4d2d 7465 6461 7461 2061 6166 6c69 6465     -Metadata failed
2fff6ba5:	202c 7375 6e69 2067 6b42 7075 462d 5557     , using Bkup-FWU
2fff6bb5:	4d2d 7465 6461 7461 0a61 0a00 6f6c 6461     -Metadata...load
2fff6bc5:	6e69 2067 666f 4220 756b 2d70 5746 2d55     ing of Bkup-FWU-
2fff6bd5:	654d 6174 6164 6174 6620 6961 656c 0a64     Metadata failed.
2fff6be5:	6400 6972 6576 7372 692f 2f6f 6f69 665f     .drivers/io/io_f
2fff6bf5:	7069 632e 1e00 6946 6d72 6177 6572 4920     ip.c..Firmware I
2fff6c05:	616d 6567 5020 6361 616b 6567 6820 6165     mage Package hea
2fff6c15:	6564 2072 6863 6365 206b 6166 6c69 6465     der check failed
2fff6c25:	0a2e 1e00 6146 6c69 6465 7420 206f 706f     ....Failed to op
2fff6c35:	6e65 4620 5049 2820 6925 0a29 1e00 6966     en FIP (%i)...fi
2fff6c45:	5f70 6966 656c 725f 6165 3a64 6620 6961     p_file_read: fai
2fff6c55:	656c 2064 6f74 7320 6565 0a6b 1e00 6146     led to seek...Fa
2fff6c65:	6c69 6465 7420 206f 6572 6461 7020 7961     iled to read pay
2fff6c75:	6f6c 6461 2820 6925 0a29 1e00 6966 5f70     load (%i)...fip_
2fff6c85:	6966 656c 6f5f 6570 206e 203a 6e4f 796c     file_open : Only
2fff6c95:	6f20 656e 6f20 6570 206e 6966 656c 6120      one open file a
2fff6ca5:	2074 2061 6974 656d 0a2e 1e00 6146 6c69     t a time....Fail
2fff6cb5:	6465 7420 206f 706f 6e65 4620 7269 776d     ed to open Firmw
2fff6cc5:	7261 2065 6d49 6761 2065 6150 6b63 6761     are Image Packag
2fff6cd5:	2065 2528 2969 000a 661e 7069 665f 6c69     e (%i)...fip_fil
2fff6ce5:	5f65 706f 6e65 203a 6166 6c69 6465 7420     e_open: failed t
2fff6cf5:	206f 6573 6b65 000a 461e 6961 656c 2064     o seek...Failed 
2fff6d05:	6f74 7220 6165 2064 4946 2050 2528 2969     to read FIP (%i)
2fff6d15:	000a 7264 7669 7265 2f73 6f69 692f 5f6f     ..drivers/io/io_
2fff6d25:	746d 2e64 0063 250a 3a73 5320 6565 206b     mtd.c..%s: Seek 
2fff6d35:	7265 6f72 2072 6425 000a 7264 7669 7265     error %d..driver
2fff6d45:	2f73 6f69 692f 5f6f 7473 726f 6761 2e65     s/io/io_storage.
2fff6d55:	0063 7264 7669 7265 2f73 746d 2f64 6f6e     c.drivers/mtd/no
2fff6d65:	2f72 7073 5f69 6f6e 2e72 0063 251e 3a73     r/spi_nor.c..%s:
2fff6d75:	4f20 6c6e 2079 6874 2065 6966 7372 2074      Only the first 
2fff6d85:	3631 4d20 2042 666f 7420 6568 6d20 6d65     16 MB of the mem
2fff6d95:	726f 2079 7261 2065 7661 6961 616c 6c62     ory are availabl
2fff6da5:	2e65 5020 656c 7361 2c65 000a 251e 3a73     e. Please,...%s:
2fff6db5:	6520 616e 6c62 2065 5053 5f49 4f4e 5f52      enable SPI_NOR_
2fff6dc5:	5355 5f45 4142 4b4e 6620 616c 2067 6e69     USE_BANK flag in
2fff6dd5:	7020 616c 5f74 6567 5f74 6f6e 5f72 6164      plat_get_nor_da
2fff6de5:	6174 6620 6e75 7463 6f69 0a6e 1e00 7325     ta function...%s
2fff6df5:	203a 6669 7420 6568 6d20 6d65 726f 2079     : if the memory 
2fff6e05:	7573 7070 726f 7374 6220 6e61 206b 6573     supports bank se
2fff6e15:	656c 7463 6f69 206e 726f 7520 6573 3420     lection or use 4
2fff6e25:	622d 7479 7365 000a 251e 3a73 6120 6464     -bytes...%s: add
2fff6e35:	6572 7373 6320 6d6f 616d 646e 2073 6669     ress commands if
2fff6e45:	7420 6568 6d20 6d65 726f 2079 7573 7070      the memory supp
2fff6e55:	726f 7374 7420 6568 6573 6320 6d6f 616d     orts these comma
2fff6e65:	646e 2e73 000a 4528 616e 6c62 2065 614d     nds...(Enable Ma
2fff6e75:	7263 6e6f 7869 6f20 7463 6c61 4420 5254     cronix octal DTR
2fff6e85:	7320 7075 6f70 7472 000a 4528 616e 6c62      support..(Enabl
2fff6e95:	2065 614d 7263 6e6f 7869 7120 6175 2064     e Macronix quad 
2fff6ea5:	7573 7070 726f 0a74 1e00 7245 6f72 2072     support...Error 
2fff6eb5:	6e69 7320 6970 6d5f 6d65 735f 7075 6f70     in spi_mem_suppo
2fff6ec5:	7472 000a 451e 7272 726f 6320 616c 6d69     rt...Error claim
2fff6ed5:	625f 7375 000a 4f0a 6c6e 2079 6e6f 2065     _bus...Only one 
2fff6ee5:	5053 2049 6564 6976 6563 6920 2073 7563     SPI device is cu
2fff6ef5:	7272 6e65 6c74 2079 7573 7070 726f 6574     rrently supporte
2fff6f05:	0a64 0a00 6843 7069 7320 6c65 6365 2074     d...Chip select 
2fff6f15:	6f6e 2074 6577 6c6c 6420 6665 6e69 6465     not well defined
2fff6f25:	000a 7073 2d69 616d 2d78 7266 7165 6575     ..spi-max-freque
2fff6f35:	636e 0079 7073 2d69 7063 6c6f 7300 6970     ncy.spi-cpol.spi
2fff6f45:	632d 6870 0061 7073 2d69 7363 682d 6769     -cpha.spi-cs-hig
2fff6f55:	0068 7073 2d69 7733 7269 0065 7073 2d69     h.spi-3wire.spi-
2fff6f65:	6168 666c 642d 7075 656c 0078 7073 2d69     half-duplex.spi-
2fff6f75:	7874 622d 7375 772d 6469 6874 1e00 7073     tx-bus-width..sp
2fff6f85:	2d69 7874 622d 7375 772d 6469 6874 2520     i-tx-bus-width %
2fff6f95:	2075 6f6e 2074 7573 7070 726f 6574 0a64     u not supported.
2fff6fa5:	7300 6970 722d 2d78 7562 2d73 6977 7464     .spi-rx-bus-widt
2fff6fb5:	0068 731e 6970 722d 2d78 7562 2d73 6977     h..spi-rx-bus-wi
2fff6fc5:	7464 2068 7525 6e20 746f 7320 7075 6f70     dth %u not suppo
2fff6fd5:	7472 6465 000a 4f0a 5054 6d20 646f 2065     rted...OTP mode 
2fff6fe5:	7369 4f20 5054 492d 564e 4c41 4449 000a     is OTP-INVALID..
2fff6ff5:	7264 7669 7265 2f73 7473 622f 6573 2f63     drivers/st/bsec/
2fff7005:	7362 6365 2e32 0063 420a 4553 3a43 2520     bsec2.c..BSEC: %
2fff7015:	2075 7453 6369 796b 772d 6972 6574 6220     u Sticky-write b
2fff7025:	7469 7220 6165 2064 7245 6f72 2072 7525     it read Error %u
2fff7035:	000a 420a 4553 3a43 2520 2075 7453 6369     ...BSEC: %u Stic
2fff7045:	796b 702d 6f72 2067 6962 2074 6572 6461     ky-prog bit read
2fff7055:	4520 7272 726f 2520 0a75 0a00 5342 4345      Error %u...BSEC
2fff7065:	203a 7525 7020 7265 616d 656e 746e 6220     : %u permanent b
2fff7075:	7469 7220 6165 2064 7245 6f72 2072 7525     it read Error %u
2fff7085:	000a 421e 4553 3a43 4f20 5054 6c20 636f     ...BSEC: OTP loc
2fff7095:	656b 2c64 7020 6f72 2067 6977 6c6c 6220     ked, prog will b
2fff70a5:	2065 6769 6f6e 6572 0a64 1e00 5342 4345     e ignored...BSEC
2fff70b5:	203a 5047 4f4c 4b43 6120 7463 7669 7461     : GPLOCK activat
2fff70c5:	6465 202c 7270 676f 7720 6c69 206c 6562     ed, prog will be
2fff70d5:	6920 6e67 726f 6465 000a 420a 4553 3a43      ignored...BSEC:
2fff70e5:	2520 2075 7453 6369 796b 722d 6165 2064      %u Sticky-read 
2fff70f5:	6962 2074 6572 6461 4520 7272 726f 2520     bit read Error %
2fff7105:	0a75 0a00 5342 4345 203a 7525 5320 6168     u...BSEC: %u Sha
2fff7115:	6f64 6977 676e 4520 7272 726f 2520 0a75     dowing Error %u.
2fff7125:	0a00 5342 4345 203a 7525 5220 6165 2064     ..BSEC: %u Read 
2fff7135:	7245 6f72 2072 7525 000a 250a 3a73 6320     Error %u...%s: c
2fff7145:	6b6c 6920 2064 6c25 2075 6f6e 2074 6f66     lk id %lu not fo
2fff7155:	6e75 0a64 0a00 6c43 636f 206b 6c25 2075     und...Clock %lu 
2fff7165:	6163 276e 2074 6562 6420 7369 6261 656c     can't be disable
2fff7175:	0a64 0a00 6c43 636f 206b 6c25 2075 6572     d...Clock %lu re
2fff7185:	6366 756f 746e 7220 6165 6863 6465 3020     fcount reached 0
2fff7195:	000a 430a 6f6c 6b63 2520 756c 6320 6e61     ...Clock %lu can
2fff71a5:	7427 6220 2065 6e65 6261 656c 0a64 0a00     't be enabled...
2fff71b5:	6c43 636f 206b 6c25 2075 6572 6366 756f     Clock %lu refcou
2fff71c5:	746e 7220 6165 6863 6465 6d20 7861 7620     nt reached max v
2fff71d5:	6c61 6575 000a 4f0a 4353 2520 2078 2040     alue...OSC %x @ 
2fff71e5:	6c25 2078 6974 656d 756f 2074 6f66 2072     %lx timeout for 
2fff71f5:	6e65 6261 656c 253d 2064 203a 7830 7825     enable=%d : 0x%x
2fff7205:	000a 7473 622c 7079 7361 0073 7473 642c     ..st,bypass.st,d
2fff7215:	6769 7962 6170 7373 7300 2c74 7363 0073     igbypass.st,css.
2fff7225:	7473 642c 6972 6576 0a00 5348 4449 5649     st,drive..HSIDIV
2fff7235:	6620 6961 656c 2064 2040 7830 6c25 3a78      failed @ 0x%lx:
2fff7245:	3020 2578 0a78 7300 2c74 7473 336d 6d32      0x%x..st,stm32m
2fff7255:	3170 722d 6363 7300 2c74 6c70 406c 7525     p1-rcc.st,pll@%u
2fff7265:	7300 2c74 6c70 006c 7473 702c 6c6c 765f     .st,pll.st,pll_v
2fff7275:	6f63 6400 7669 6e6d 6300 6773 6600 6172     co.divmn.csg.fra
2fff7285:	0063 7473 702c 6c6c 645f 7669 705f 7271     c.st,pll_div_pqr
2fff7295:	7300 2c74 6c63 646b 7669 7300 2c74 6c63     .st,clkdiv.st,cl
2fff72a5:	736b 6372 6300 6b6c 682d 6973 6300 6b6c     ksrc.clk-hsi.clk
2fff72b5:	682d 6573 6300 6b6c 632d 6973 6300 6b6c     -hse.clk-csi.clk
2fff72c5:	6c2d 6973 6300 6b6c 6c2d 6573 6900 7332     -lsi.clk-lse.i2s
2fff72d5:	635f 696b 006e 632f 6f6c 6b63 0073 6c63     _ckin./clocks.cl
2fff72e5:	636f 2d6b 7266 7165 6575 636e 0079 440a     ock-frequency..D
2fff72f5:	5244 7420 7079 2065 6f6e 2074 7573 7070     DR type not supp
2fff7305:	726f 6574 0a64 0a00 4444 2052 6f70 6577     orted...DDR powe
2fff7315:	2072 6e69 7469 6620 6961 656c 0a64 7300     r init failed..s
2fff7325:	6174 6974 0063 550a 6b6e 6f6e 6e77 5320     tatic..Unknown S
2fff7335:	6c65 2066 6552 7266 7365 2068 6f6d 6564     elf Refresh mode
2fff7345:	000a 7473 732c 6d74 3233 706d 2d31 6464     ..st,stm32mp1-dd
2fff7355:	0072 250a 3a73 4320 6e61 6f6e 2074 6572     r..%s: Cannot re
2fff7365:	6461 4420 5244 6e20 646f 2065 6e69 4420     ad DDR node in D
2fff7375:	0a54 0a00 4444 2052 7772 7420 7365 3a74     T...DDR rw test:
2fff7385:	4320 6e61 7427 6120 6363 7365 2073 656d      Can't access me
2fff7395:	6f6d 7972 4020 3020 2578 786c 000a 440a     mory @ 0x%lx...D
2fff73a5:	5244 6420 7461 2061 7562 2073 6574 7473     DR data bus test
2fff73b5:	203a 6163 276e 2074 6361 6563 7373 6d20     : can't access m
2fff73c5:	6d65 726f 2079 2040 7830 6c25 0a78 0a00     emory @ 0x%lx...
2fff73d5:	4444 2052 6461 7264 6220 7375 7420 7365     DDR addr bus tes
2fff73e5:	3a74 6320 6e61 7427 6120 6363 7365 2073     t: can't access 
2fff73f5:	656d 6f6d 7972 4020 3020 2578 786c 000a     memory @ 0x%lx..
2fff7405:	440a 5244 7320 7a69 3a65 3020 2578 787a     .DDR size: 0x%zx
2fff7415:	6420 656f 2073 6f6e 2074 616d 6374 2068      does not match 
2fff7425:	5444 6320 6e6f 6966 3a67 3020 2578 787a     DT config: 0x%zx
2fff7435:	000a 4d28 6d65 726f 2079 6973 657a 3d20     ..(Memory size =
2fff7445:	3020 2578 787a 2820 7a25 2075 424d 0a29      0x%zx (%zu MB).
2fff7455:	0a00 4444 2052 7865 6570 7463 6465 6620     ..DDR expected f
2fff7465:	6572 2071 7525 6b20 7a48 202c 7563 7272     req %u kHz, curr
2fff7475:	6e65 2074 7369 2520 756c 6b20 7a48 000a     ent is %lu kHz..
2fff7485:	7473 632c 6c74 722d 6765 7300 2c74 7463     st,ctl-reg.st,ct
2fff7495:	2d6c 6974 696d 676e 7300 2c74 7463 2d6c     l-timing.st,ctl-
2fff74a5:	616d 0070 7473 632c 6c74 702d 7265 0066     map.st,ctl-perf.
2fff74b5:	7473 702c 7968 722d 6765 7300 2c74 6870     st,phy-reg.st,ph
2fff74c5:	2d79 6974 696d 676e 0a00 6e69 6176 696c     y-timing..invali
2fff74d5:	2064 6170 6172 656d 6574 2072 666f 7366     d parameter offs
2fff74e5:	7465 000a 7473 6d2c 6d65 732d 6570 6465     et..st,mem-speed
2fff74f5:	7300 2c74 656d 2d6d 616e 656d 2800 4152     .st,mem-name.(RA
2fff7505:	3a4d 2520 0a73 0a00 7325 203a 6143 6e6e     M: %s...%s: Cann
2fff7515:	746f 7220 6165 2064 7325 202c 7265 6f72     ot read %s, erro
2fff7525:	3d72 6425 000a 7264 7669 7265 2f73 7473     r=%d..drivers/st
2fff7535:	672f 6970 2f6f 7473 336d 5f32 7067 6f69     /gpio/stm32_gpio
2fff7545:	632e 7000 6e69 7463 6c72 302d 7000 6e69     .c.pinctrl-0.pin
2fff7555:	756d 0078 6c73 7765 722d 7461 0065 6962     mux.slew-rate.bi
2fff7565:	7361 702d 6c75 2d6c 7075 6200 6169 2d73     as-pull-up.bias-
2fff7575:	7570 6c6c 642d 776f 006e 7264 7669 2d65     pull-down.drive-
2fff7585:	706f 6e65 642d 6172 6e69 6f00 7475 7570     open-drain.outpu
2fff7595:	2d74 6968 6867 6f00 7475 7570 2d74 6f6c     t-high.output-lo
2fff75a5:	0077 7067 6f69 632d 6e6f 7274 6c6f 656c     w.gpio-controlle
2fff75b5:	0072 500a 4e49 5443 4c52 6920 636e 6e6f     r..PINCTRL incon
2fff75c5:	6973 7473 6e65 2074 6e69 4420 0a54 6900     sistent in DT..i
2fff75d5:	6332 732d 6c63 722d 7369 6e69 2d67 6974     2c-scl-rising-ti
2fff75e5:	656d 6e2d 0073 3269 2d63 6373 2d6c 6166     me-ns.i2c-scl-fa
2fff75f5:	6c6c 6e69 2d67 6974 656d 6e2d 0073 490a     lling-time-ns..I
2fff7605:	766e 6c61 6469 6220 7375 7320 6570 6465     nvalid bus speed
2fff7615:	2820 7525 3e20 2520 2975 000a 490a 4332      (%u > %u)...I2C
2fff7625:	6320 6f6c 6b63 7220 7461 2065 7369 3020      clock rate is 0
2fff7635:	000a 490a 4332 7320 6570 6465 6f20 7475     ...I2C speed out
2fff7645:	6f20 2066 6f62 6e75 2064 257b 7d75 000a      of bound {%u}..
2fff7655:	200a 3249 2043 6974 696d 676e 2073 756f     . I2C timings ou
2fff7665:	2074 666f 6220 756f 646e 5220 7369 7b65     t of bound Rise{
2fff7675:	7525 253e 7d75 462f 6c61 7b6c 7525 253e     %u>%u}/Fall{%u>%
2fff7685:	7d75 000a 440a 464e 6f20 7475 6f20 2066     u}...DNF out of 
2fff7695:	6f62 6e75 2064 7525 252f 0a75 0a00 4920     bound %u/%u... I
2fff76a5:	4332 6e20 206f 7250 7365 6163 656c 2072     2C no Prescaler 
2fff76b5:	6f73 756c 6974 6e6f 000a 200a 3249 2043     solution... I2C 
2fff76c5:	6f6e 7320 6c6f 7475 6f69 206e 7461 6120     no solution at a
2fff76d5:	6c6c 000a 460a 6961 656c 2064 6f74 6320     ll...Failed to c
2fff76e5:	6d6f 7570 6574 4920 4332 7420 6d69 6e69     ompute I2C timin
2fff76f5:	7367 000a 441e 776f 676e 6172 6564 4920     gs...Downgrade I
2fff7705:	4332 7320 6570 6465 7420 206f 7525 7a48     2C speed to %uHz
2fff7715:	0a29 0a00 6d49 6f70 7373 6269 656c 7420     )...Impossible t
2fff7725:	206f 6f63 706d 7475 2065 3249 2043 6974     o compute I2C ti
2fff7735:	696d 676e 0a73 0a00 6143 6e6e 746f 6920     mings...Cannot i
2fff7745:	696e 6974 6c61 7a69 2065 3249 2043 6e61     nitialize I2C an
2fff7755:	6c61 676f 6620 6c69 6574 2072 2528 2964     alog filter (%d)
2fff7765:	000a 6c63 636f 2d6b 616e 656d 0073 7473     ..clock-names.st
2fff7775:	732c 6d74 3233 706d 2d31 7769 6764 0a00     ,stm32mp1-iwdg..
2fff7785:	544f 2050 6e65 6261 656c 2064 7562 2074     OTP enabled but 
2fff7795:	7769 6764 7525 4420 2d54 6964 6173 6c62     iwdg%u DT-disabl
2fff77a5:	6465 000a 6370 6b6c 7400 6d69 6f65 7475     ed..pclk.timeout
2fff77b5:	732d 6365 0a00 7769 6764 7525 203a 696d     -sec..iwdg%u: mi
2fff77c5:	7373 6e69 2067 6974 656d 756f 2d74 6573     ssing timeout-se
2fff77d5:	2063 7270 706f 7265 7974 1e00 6f4e 2074     c property..Not 
2fff77e5:	6e65 756f 6867 7020 616c 6563 6620 726f     enough place for
2fff77f5:	4e20 4d56 4d45 6420 7665 202c 4c50 5441      NVMEM dev, PLAT
2fff7805:	4e5f 5f42 564e 454d 5f4d 4544 5356 7320     _NB_NVMEM_DEVS s
2fff7815:	6f68 6c75 2064 6562 6920 636e 6572 7361     hould be increas
2fff7825:	6465 0a2e 6e00 6d76 6d65 632d 6c65 736c     ed...nvmem-cells
2fff7835:	0a00 6143 276e 2074 6966 646e 6e20 6d76     ..Can't find nvm
2fff7845:	6d65 6320 6c65 006c 251e 3a73 6e20 646f     em cell..%s: nod
2fff7855:	2065 6425 6e20 746f 6620 756f 646e 000a     e %d not found..
2fff7865:	766e 656d 2d6d 6563 6c6c 6e2d 6d61 7365     nvmem-cell-names
2fff7875:	0a00 7257 6e6f 2067 6361 6563 7373 7220     ..Wrong access r
2fff7885:	6769 7468 2073 6f66 2072 6f7a 656e 2520     ights for zone %
2fff7895:	2064 2528 2975 000a 460a 6961 656c 2064     d (%u)...Failed 
2fff78a5:	6f74 7220 6165 2064 6b62 2070 7a25 0a75     to read bkp %zu.
2fff78b5:	0a00 6143 276e 2074 6572 6461 6620 6569     ..Can't read fie
2fff78c5:	646c 6620 726f 7220 6765 7369 6574 7372     ld for registers
2fff78d5:	7a20 6e6f 7365 000a 4614 6961 656c 2064      zones...Failed 
2fff78e5:	6f74 6720 7465 7420 6568 6220 6361 756b     to get the backu
2fff78f5:	2070 6f7a 656e 6620 6f72 206d 6174 706d     p zone from tamp
2fff7905:	7220 6765 0a73 000a 460a 6961 656c 2064      regs....Failed 
2fff7915:	6f74 6720 7465 7420 6568 6220 6361 756b     to get the backu
2fff7925:	2070 6f7a 656e 6120 6363 7365 2073 6972     p zone access ri
2fff7935:	6867 7374 0a0a 7300 2c74 7473 336d 6d32     ghts...st,stm32m
2fff7945:	3170 2d35 6174 706d 6e2d 7276 6d61 7300     p15-tamp-nvram.s
2fff7955:	2c74 7473 6d70 6369 0031 730a 7465 2520     t,stpmic1..set %
2fff7965:	2073 6166 6c69 6465 000a 490a 4332 6320     s failed...I2C c
2fff7975:	6e6f 6966 7567 6172 6974 6e6f 6620 6961     onfiguration fai
2fff7985:	656c 2064 6425 000a 430a 6e61 6f6e 2074     led %d...Cannot 
2fff7995:	6e69 7469 6169 696c 657a 4920 4332 2520     initialize I2C %
2fff79a5:	2078 2528 2964 000a 490a 4332 6420 7665     x (%d)...I2C dev
2fff79b5:	6369 2065 6f6e 2074 6572 6461 0a79 7200     ice not ready..r
2fff79c5:	6765 6c75 7461 726f 0073 7264 7669 7265     egulators.driver
2fff79d5:	2f73 7473 702f 696d 2f63 7473 336d 6d32     s/st/pmic/stm32m
2fff79e5:	5f70 6d70 6369 632e 1e00 7325 253a 2064     p_pmic.c..%s:%d 
2fff79f5:	6166 6c69 6465 7420 206f 6572 6967 7473     failed to regist
2fff7a05:	7265 2520 0a73 7300 2c74 616d 6b73 722d     er %s..st,mask-r
2fff7a15:	7365 7465 7300 2c74 6572 7567 616c 6f74     eset.st,regulato
2fff7a25:	2d72 6973 6b6e 732d 756f 6372 0065 7473     r-sink-source.st
2fff7a35:	722c 6765 6c75 7461 726f 622d 7079 7361     ,regulator-bypas
2fff7a45:	0073 460a 6961 656c 2064 6f74 6120 6363     s..Failed to acc
2fff7a55:	7365 2073 4d50 4349 000a 5028 494d 2043     ess PMIC..(PMIC 
2fff7a65:	6576 7372 6f69 206e 203d 7830 3025 6c32     version = 0x%02l
2fff7a75:	0a78 6200 6375 316b 6200 6375 326b 6200     x..buck1.buck2.b
2fff7a85:	6375 336b 6200 6375 346b 6c00 6f64 0031     uck3.buck4.ldo1.
2fff7a95:	646c 326f 6c00 6f64 0033 646c 346f 6c00     ldo2.ldo3.ldo4.l
2fff7aa5:	6f64 0035 646c 366f 7600 6572 5f66 6464     do5.ldo6.vref_dd
2fff7ab5:	0072 6f62 736f 0074 7770 5f72 7773 0031     r.boost.pwr_sw1.
2fff7ac5:	7770 5f72 7773 0032 7562 6b63 6c00 6f64     pwr_sw2.buck.ldo
2fff7ad5:	6400 6972 6576 7372 732f 2f74 6572 7567     .drivers/st/regu
2fff7ae5:	616c 6f74 2f72 6572 7567 616c 6f74 5f72     lator/regulator_
2fff7af5:	6f63 6572 632e 1e00 7325 203a 7325 6e20     core.c..%s: %s n
2fff7b05:	746f 6620 756f 646e 000a 7325 732d 7075     ot found..%s-sup
2fff7b15:	6c70 0079 251e 3a73 7020 6168 646e 656c     ply..%s: phandle
2fff7b25:	2520 2064 6f6e 2074 6f66 6e75 0a64 0a00      %d not found...
2fff7b35:	6572 7567 206c 7325 6720 7465 7620 6c6f     regul %s get vol
2fff7b45:	6174 6567 6620 6961 656c 3a64 6520 7272     tage failed: err
2fff7b55:	253a 0a64 0a00 6572 7567 206c 7325 7320     :%d...regul %s s
2fff7b65:	7465 7620 6c6f 2074 6166 6c69 6465 203a     et volt failed: 
2fff7b75:	7265 3a72 6425 000a 720a 6765 6c75 2520     err:%d...regul %
2fff7b85:	2073 696c 7473 765f 6c6f 6174 6567 2073     s list_voltages 
2fff7b95:	6166 6c69 6465 203a 7265 3a72 2520 0a64     failed: err: %d.
2fff7ba5:	0a00 6572 7567 206c 7325 203a 616d 2078     ..regul %s: max 
2fff7bb5:	6176 756c 2065 7525 6920 2073 6e69 6176     value %u is inva
2fff7bc5:	696c 0a64 0a00 6572 7567 206c 7325 7320     lid...regul %s s
2fff7bd5:	7465 6d20 6e69 7620 6c6f 6174 6567 6920     et min voltage i
2fff7be5:	2073 6f74 206f 6968 6867 000a 720a 6765     s too high...reg
2fff7bf5:	6c75 2520 3a73 6d20 6e69 7620 6c61 6575     ul %s: min value
2fff7c05:	2520 2075 7369 6920 766e 6c61 6469 000a      %u is invalid..
2fff7c15:	4e1e 746f 6520 6f6e 6775 2068 6c70 6361     .Not enough plac
2fff7c25:	2065 6f66 2072 6572 7567 616c 6f74 7372     e for regulators
2fff7c35:	202c 4c50 5441 4e5f 5f42 4452 5645 2053     , PLAT_NB_RDEVS 
2fff7c45:	6873 756f 646c 6220 2065 6e69 7263 6165     should be increa
2fff7c55:	6573 2e64 000a 720a 6765 6c75 2520 2073     sed....regul %s 
2fff7c65:	6573 2074 7473 7461 2065 6166 6c69 6465     set state failed
2fff7c75:	203a 7265 3a72 6425 000a 6572 7567 616c     : err:%d..regula
2fff7c85:	6f74 2d72 696d 2d6e 696d 7263 766f 6c6f     tor-min-microvol
2fff7c95:	0074 250a 3a73 6d20 6e69 6d5f 3d76 6425     t..%s: min_mv=%d
2fff7ca5:	6920 2073 6f74 206f 6968 6867 000a 6572      is too high..re
2fff7cb5:	7567 616c 6f74 2d72 616d 2d78 696d 7263     gulator-max-micr
2fff7cc5:	766f 6c6f 0074 250a 3a73 6d20 7861 6d5f     ovolt..%s: max_m
2fff7cd5:	3d76 6425 6920 2073 6f74 206f 6f6c 0a77     v=%d is too low.
2fff7ce5:	7200 6765 6c75 7461 726f 612d 776c 7961     .regulator-alway
2fff7cf5:	2d73 6e6f 7200 6765 6c75 7461 726f 652d     s-on.regulator-e
2fff7d05:	616e 6c62 2d65 6172 706d 642d 6c65 7961     nable-ramp-delay
2fff7d15:	7200 6765 6c75 7461 726f 662d 7869 6465     .regulator-fixed
2fff7d25:	6400 6972 6576 7372 732f 2f74 6572 7567     .drivers/st/regu
2fff7d35:	616c 6f74 2f72 6572 7567 616c 6f74 5f72     lator/regulator_
2fff7d45:	6966 6578 2e64 0063 250a 3a73 6220 7375     fixed.c..%s: bus
2fff7d55:	2079 6974 656d 756f 0a74 0a00 7325 203a     y timeout...%s: 
2fff7d65:	6966 6f66 7420 6d69 6f65 7475 000a 250a     fifo timeout...%
2fff7d75:	3a73 7420 6172 736e 6566 2072 7265 6f72     s: transfer erro
2fff7d85:	0a72 0a00 7325 203a 7865 6365 6f20 2070     r...%s: exec op 
2fff7d95:	7265 6f72 0a72 0a00 7325 203a 6d63 2064     error...%s: cmd 
2fff7da5:	6974 656d 756f 0a74 7300 2c74 7473 336d     timeout..st,stm3
2fff7db5:	6632 3634 2d39 7371 6970 0a00 6f4e 5120     2f469-qspi..No Q
2fff7dc5:	5053 2049 7463 6c72 6620 756f 646e 000a     SPI ctrl found..
2fff7dd5:	7371 6970 6d5f 006d 696c 2f62 6366 6e6f     qspi_mm.lib/fcon
2fff7de5:	2f66 6366 6e6f 2e66 0063 4628 4f43 464e     f/fconf.c.(FCONF
2fff7df5:	203a 6f43 666e 6769 6620 6c69 2065 6977     : Config file wi
2fff7e05:	6874 6920 616d 6567 4920 3a44 7525 6c20     th image ID:%u l
2fff7e15:	616f 6564 2064 7461 6120 6464 6572 7373     oaded at address
2fff7e25:	3d20 3020 2578 786c 000a 460a 4f43 464e      = 0x%lx...FCONF
2fff7e35:	203a 6e49 6176 696c 2064 5444 2042 6966     : Invalid DTB fi
2fff7e45:	656c 7020 7361 6573 2064 6f66 2072 7325     le passed for %s
2fff7e55:	000a 4628 4f43 464e 203a 6552 6461 6e69     ..(FCONF: Readin
2fff7e65:	2067 7325 6620 7269 776d 7261 2065 6f63     g %s firmware co
2fff7e75:	666e 6769 7275 7461 6f69 206e 6966 656c     nfiguration file
2fff7e85:	6620 6f72 3a6d 3020 2578 786c 000a 4628      from: 0x%lx..(F
2fff7e95:	4f43 464e 203a 6552 6461 6e69 2067 6966     CONF: Reading fi
2fff7ea5:	6d72 6177 6572 6320 6e6f 6966 7567 6172     rmware configura
2fff7eb5:	6974 6e6f 6920 666e 726f 616d 6974 6e6f     tion information
2fff7ec5:	6620 726f 203a 7325 000a 430a 6e61 6f6e      for: %s...Canno
2fff7ed5:	2074 6c61 6f6c 6163 6574 2520 757a 6f20     t allocate %zu o
2fff7ee5:	6a62 6365 7374 6f20 7475 6f20 2066 6f70     bjects out of po
2fff7ef5:	6c6f 2820 7a25 2075 626f 656a 7463 2073     ol (%zu objects 
2fff7f05:	656c 7466 2e29 000a 6366 6e6f 2c66 7964     left)...fconf,dy
2fff7f15:	5f6e 6663 2d67 7464 5f62 6572 6967 7473     n_cfg-dtb_regist
2fff7f25:	7972 0a00 4346 4e4f 3a46 4320 6e61 7427     ry..FCONF: Can't
2fff7f35:	6620 6e69 2064 7325 6320 6d6f 6170 6974      find %s compati
2fff7f45:	6c62 2065 6e69 6420 6274 000a 460a 4f43     ble in dtb...FCO
2fff7f55:	464e 203a 6e49 6f63 706d 656c 6574 6320     NF: Incomplete c
2fff7f65:	6e6f 6966 7567 6172 6974 6e6f 7020 6f72     onfiguration pro
2fff7f75:	6570 7472 2079 6e69 6420 6274 722d 6765     perty in dtb-reg
2fff7f85:	7369 7274 2e79 000a 616d 2d78 6973 657a     istry...max-size
2fff7f95:	7300 6365 6e6f 6164 7972 6c2d 616f 2d64     .secondary-load-
2fff7fa5:	6461 7264 7365 0073 250a 3a64 6620 7464     address..%d: fdt
2fff7fb5:	665f 726f 655f 6361 5f68 7573 6e62 646f     _for_each_subnod
2fff7fc5:	2865 3a29 2520 0a64 1e00 4346 4e4f 3a46     e(): %d...FCONF:
2fff7fd5:	4920 766e 6c61 6469 6320 6e6f 6966 2067      Invalid config 
2fff7fe5:	6469 2520 0a75 4600 5f57 4f43 464e 4749     id %u..FW_CONFIG
2fff7ff5:	6400 6e79 635f 6766 1e00 6854 2065 6f6c     .dyn_cfg..The lo
2fff8005:	6461 6120 6464 6572 7373 6920 206e 706f     ad address in op
2fff8015:	6574 2065 6568 6461 7265 2520 2070 202d     tee header %p - 
2fff8025:	7025 6920 2073 6f6e 2074 6e69 7220 7365     %p is not in res
2fff8035:	7265 6576 2064 7261 6165 203a 7025 2d20     erved area: %p -
2fff8045:	2520 2e70 000a 696c 2f62 706f 6574 2f65      %p...lib/optee/
2fff8055:	706f 6574 5f65 7475 6c69 2e73 0063 4f28     optee_utils.c.(O
2fff8065:	5450 4545 6520 3d70 7830 7825 000a 4f28     PTEE ep=0x%x..(O
2fff8075:	5450 4545 6820 6165 6564 2072 6e69 6f66     PTEE header info
2fff8085:	0a3a 2800 2020 2020 2020 616d 6967 3d63     :..(      magic=
2fff8095:	7830 7825 000a 2028 2020 2020 7620 7265     0x%x..(      ver
2fff80a5:	6973 6e6f 303d 2578 0a78 2800 2020 2020     sion=0x%x..(    
2fff80b5:	2020 7261 6863 303d 2578 0a78 2800 2020       arch=0x%x..(  
2fff80c5:	2020 2020 6c66 6761 3d73 7830 7825 000a         flags=0x%x..
2fff80d5:	2028 2020 2020 6e20 5f62 6d69 6761 7365     (      nb_images
2fff80e5:	303d 2578 0a78 2800 6e49 6176 696c 2064     =0x%x..(Invalid 
2fff80f5:	504f 4554 2045 6568 6461 7265 202c 6573     OPTEE header, se
2fff8105:	2074 656c 6167 7963 6d20 646f 2e65 000a     t legacy mode...
2fff8115:	500a 6761 6465 6920 616d 6567 6920 2073     .Paged image is 
2fff8125:	6f6e 2074 7573 7070 726f 6574 0a64 0a00     not supported...
2fff8135:	6150 7372 2065 706f 6574 2065 6d69 6761     Parse optee imag
2fff8145:	2065 6166 6c69 6465 0a2e 0a00 6143 6e6e     e failed....Cann
2fff8155:	746f 6220 6f6f 2074 6e61 4120 7241 6863     ot boot an AArch
2fff8165:	3436 4f20 2d50 4554 0a45 6c00 6269 782f     64 OP-TEE..lib/x
2fff8175:	616c 5f74 6174 6c62 7365 765f 2f32 6161     lat_tables_v2/aa
2fff8185:	6372 3368 2f32 6c78 7461 745f 6261 656c     rch32/xlat_table
2fff8195:	5f73 7261 6863 632e 6c00 6269 782f 616c     s_arch.c.lib/xla
2fff81a5:	5f74 6174 6c62 7365 765f 2f32 6c78 7461     t_tables_v2/xlat
2fff81b5:	745f 6261 656c 5f73 6f63 746e 7865 2e74     _tables_context.
2fff81c5:	0063 696c 2f62 6c78 7461 745f 6261 656c     c.lib/xlat_table
2fff81d5:	5f73 3276 782f 616c 5f74 6174 6c62 7365     s_v2/xlat_tables
2fff81e5:	635f 726f 2e65 0063 6d0a 616d 5f70 6461     _core.c..mmap_ad
2fff81f5:	5f64 6572 6967 6e6f 635f 6568 6b63 2928     d_region_check()
2fff8205:	6620 6961 656c 2e64 6520 7272 726f 2520      failed. error %
2fff8215:	0a64 0a00 6f4e 2074 6e65 756f 6867 6d20     d...Not enough m
2fff8225:	6d65 726f 2079 6f74 6d20 7061 7220 6765     emory to map reg
2fff8235:	6f69 3a6e 200a 4156 303a 2578 786c 2020     ion:. VA:0x%lx  
2fff8245:	4150 303a 2578 6c6c 2078 7320 7a69 3a65     PA:0x%llx  size:
2fff8255:	7830 7a25 2078 6120 7474 3a72 7830 7825     0x%zx  attr:0x%x
2fff8265:	000a 5245 4f52 3a52 2020 0020 4f4e 4954     ..ERROR:   .NOTI
2fff8275:	4543 203a 0020 4157 4e52 4e49 3a47 0020     CE:  .WARNING: .
2fff8285:	4e49 4f46 203a 2020 0020 4556 4252 534f     INFO:    .VERBOS
2fff8295:	3a45 0020 5528 6973 676e 5320 4d44 434d     E: .(Using SDMMC
2fff82a5:	000a 5528 6973 676e 4520 4d4d 0a43 2800     ..(Using EMMC..(
2fff82b5:	7355 6e69 2067 5053 2049 4f4e 0a52 2800     Using SPI NOR..(
2fff82c5:	7355 6e69 2067 4d46 2043 414e 444e 000a     Using FMC NAND..
2fff82d5:	5528 6973 676e 5320 4950 4e20 4e41 0a44     (Using SPI NAND.
2fff82e5:	2800 7355 6e69 2067 4155 5452 000a 5528     .(Using UART..(U
2fff82f5:	6973 676e 5520 4253 000a 420a 6f6f 2074     sing USB...Boot 
2fff8305:	6e69 6574 6672 6361 2065 7525 6e20 746f     interface %u not
2fff8315:	6620 756f 646e 000a 2028 4920 736e 6174      found..(  Insta
2fff8325:	636e 2065 6425 000a 4228 6f6f 2074 7375     nce %d..(Boot us
2fff8335:	6465 7020 7261 6974 6974 6e6f 6620 6273     ed partition fsb
2fff8345:	256c 0a75 7000 616c 2f74 7473 632f 6d6f     l%u..plat/st/com
2fff8355:	6f6d 2f6e 6c62 5f32 6f69 735f 6f74 6172     mon/bl2_io_stora
2fff8365:	6567 632e 0a00 6f42 746f 6920 746e 7265     ge.c..Boot inter
2fff8375:	6166 6563 2520 2064 6f6e 2074 7573 7070     face %d not supp
2fff8385:	726f 6574 0a64 0a00 4946 2050 6f4e 2074     orted...FIP Not 
2fff8395:	6f66 6e75 0a64 0a00 7325 203a 6b42 2070     found...%s: Bkp 
2fff83a5:	6572 6967 7473 7265 6120 6363 7365 2073     register access 
2fff83b5:	6166 6c69 6465 202e 6142 6b6e 7320 6174     failed. Bank sta
2fff83c5:	6574 203a 6425 000a 541e 6972 6c61 4620     te: %d...Trial F
2fff83d5:	5557 6620 6961 736c 2520 2075 6974 656d     WU fails %u time
2fff83e5:	0a73 1e00 7254 6169 206c 6162 6b63 7075     s...Trial backup
2fff83f5:	7220 6765 7369 6574 2072 6d65 7470 2079      register empty 
2fff8405:	203a 6573 2074 616d 2078 6f62 746f 6320     : set max boot c
2fff8415:	756f 746e 000a 540a 6568 6120 7463 7669     ount...The activ
2fff8425:	2065 6162 6b6e 2528 2975 6f20 2066 6874     e bank(%u) of th
2fff8435:	2065 6c70 7461 6f66 6d72 6920 2073 6e69     e platform is in
2fff8445:	4920 766e 6c61 6469 5320 6174 6574 0a2e      Invalid State..
2fff8455:	0a00 6e55 6261 656c 7420 206f 6567 2074     ..Unable to get 
2fff8465:	6d69 6761 2065 7073 6365 6620 726f 7420     image spec for t
2fff8475:	6568 6920 616d 6567 6920 206e 6874 2065     he image in the 
2fff8485:	656d 6174 6164 6174 000a 490a 766e 6c61     metadata...Inval
2fff8495:	6469 7520 6975 2064 656d 746e 6f69 656e     id uuid mentione
2fff84a5:	2064 6e69 6d20 7465 6461 7461 0a61 7300     d in metadata..s
2fff84b5:	2c74 7473 336d 6d32 2d70 6f62 746f 6e69     t,stm32mp-bootin
2fff84c5:	6f66 7000 616c 2f74 7473 632f 6d6f 6f6d     fo.plat/st/commo
2fff84d5:	2f6e 7473 336d 6d32 5f70 6f63 6d6d 6e6f     n/stm32mp_common
2fff84e5:	632e 0a00 5342 4345 203a 6469 3d78 7525     .c..BSEC: idx=%u
2fff84f5:	5220 6165 2064 7245 6f72 0a72 0a00 5342      Read Error...BS
2fff8505:	4345 203a 7325 5220 6165 2064 7245 6f72     EC: %s Read Erro
2fff8515:	0a72 1400 6f42 7261 3a64 4d20 2542 3430     r...Board: MB%04
2fff8525:	2078 6156 2572 2e75 7525 5220 7665 252e     x Var%u.%u Rev.%
2fff8535:	2d63 3025 7532 000a 616d 6967 2d63 756e     c-%02u..magic-nu
2fff8545:	626d 7265 6300 726f 3165 622d 6172 636e     mber.core1-branc
2fff8555:	2d68 6461 7264 7365 0073 7766 2d75 6e69     h-address.fwu-in
2fff8565:	6f66 6200 6f6f 2d74 6f6d 6564 6f00 616b     fo.boot-mode.oka
2fff8575:	0079 6573 7563 6572 732d 6174 7574 0073     y.secure-status.
2fff8585:	6c70 7461 732f 2f74 6f63 6d6d 6e6f 732f     plat/st/common/s
2fff8595:	6d74 3233 706d 645f 2e74 0063 6572 6573     tm32mp_dt.c.rese
2fff85a5:	7374 2800 7325 203a 6143 6e6e 746f 7220     ts.(%s: Cannot r
2fff85b5:	6165 2064 4444 2052 6f6e 6564 6920 206e     ead DDR node in 
2fff85c5:	5444 000a 7473 6d2c 6d65 732d 7a69 0065     DT..st,mem-size.
2fff85d5:	7473 732c 6d74 3233 706d 2c31 7770 2d72     st,stm32mp1,pwr-
2fff85e5:	6572 0067 6476 0064 002f 6f6d 6564 006c     reg.vdd./.model.
2fff85f5:	7473 732c 6d74 3233 706d 3531 622d 6573     st,stm32mp15-bse
2fff8605:	0063 6e0a 6d76 6d65 6e20 646f 2065 7325     c..nvmem node %s
2fff8615:	6e20 746f 6620 756f 646e 000a 4d0a 6c61      not found...Mal
2fff8625:	6f66 6d72 6465 6e20 6d76 6d65 6e20 646f     formed nvmem nod
2fff8635:	2065 7325 203a 6769 6f6e 6572 0a64 0a00     e %s: ignored...
2fff8645:	694d 6173 696c 6e67 6465 6e20 6d76 6d65     Misaligned nvmem
2fff8655:	2520 2073 6c65 6d65 6e65 3a74 6920 6e67      %s element: ign
2fff8665:	726f 6465 000a 7473 702c 6f72 6976 6973     ored..st,provisi
2fff8675:	6e6f 6e69 0067 501e 6168 646e 656c 6e20     oning..Phandle n
2fff8685:	746f 6620 756f 646e 000a 7473 732c 6168     ot found..st,sha
2fff8695:	6f64 2d77 6176 756c 0065 491e 766e 6c61     dow-value..Inval
2fff86a5:	6469 4f20 5054 7320 7a69 0a65 1e00 6853     id OTP size...Sh
2fff86b5:	6461 776f 7720 6972 6574 6c20 636f 0a6b     adow write lock.
2fff86c5:	2800 764f 7265 6972 6564 7420 6568 4f20     .(Override the O
2fff86d5:	5054 2520 2075 6e69 7469 6169 206c 6176     TP %u initial va
2fff86e5:	756c 0a65 5400 5f42 5746 7300 6d74 3233     lue..TB_FW.stm32
2fff86f5:	706d 665f 7375 0065 7473 692c 2d6f 6966     mp_fuse.st,io-fi
2fff8705:	2d70 6168 646e 656c 1e00 4346 4e4f 3a46     p-handle..FCONF:
2fff8715:	5220 6165 2064 6563 6c6c 6620 6961 656c      Read cell faile
2fff8725:	2064 6f66 2072 7325 000a 7473 336d 6d32     d for %s..stm32m
2fff8735:	5f70 6f69 6200 336c 5f32 7575 6469 6200     p_io.bl32_uuid.b
2fff8745:	336c 5f32 7865 7274 3161 755f 6975 0064     l32_extra1_uuid.
2fff8755:	6c62 3233 655f 7478 6172 5f32 7575 6469     bl32_extra2_uuid
2fff8765:	6200 336c 5f33 7575 6469 6800 5f77 6663     .bl33_uuid.hw_cf
2fff8775:	5f67 7575 6469 7400 736f 665f 5f77 6663     g_uuid.tos_fw_cf
2fff8785:	5f67 7575 6469 0a00 6e49 6176 696c 2064     g_uuid..Invalid 
2fff8795:	4444 2052 6e69 7469 203a 7265 6f72 2072     DDR init: error 
2fff87a5:	6425 000a 440a 5244 6d20 7061 6970 676e     %d...DDR mapping
2fff87b5:	203a 7265 6f72 2072 6425 000a 6166 6c69     : error %d..fail
2fff87c5:	6465 7300 6375 6563 6465 6465 4900 544e     ed.succeeded.INT
2fff87d5:	5245 414e 004c 5845 4554 4e52 4c41 1400     ERNAL.EXTERNAL..
2fff87e5:	6f4d 6564 3a6c 2520 0a73 1400 6f42 746f     Model: %s...Boot
2fff87f5:	6f72 206d 7561 6874 6e65 6974 6163 6974     rom authenticati
2fff8805:	6e6f 2520 0a73 0a00 2a2a 4920 544e 5552     on %s...** INTRU
2fff8815:	4953 4e4f 4120 454c 5452 203a 534c 2045     SION ALERT: LSE 
2fff8825:	4f4d 494e 4f54 4952 474e 5420 4d41 4550     MONITORING TAMPE
2fff8835:	2052 4544 4554 5443 4445 2a20 0a2a 0a00     R DETECTED **...
2fff8845:	2a2a 5220 6265 6f6f 6974 676e 2e2e 202e     ** Rebooting... 
2fff8855:	2a2a 000a 2a0a 202a 4e49 5254 5355 4f49     **...** INTRUSIO
2fff8865:	204e 4c41 5245 3a54 2520 2073 4154 504d     N ALERT: %s TAMP
2fff8875:	5245 2520 2075 4544 4554 5443 4445 2a20     ER %u DETECTED *
2fff8885:	0a2a 0a00 6553 7563 6572 6320 6968 3a70     *...Secure chip:
2fff8895:	5420 5552 5453 4445 425f 414f 4452 425f      TRUSTED_BOARD_B
2fff88a5:	4f4f 2054 756d 7473 6220 2065 6e65 6261     OOT must be enab
2fff88b5:	656c 0a64 0a00 4d50 4349 7620 6c6f 6174     led...PMIC volta
2fff88c5:	6567 2073 6e69 7469 6620 6961 656c 0a64     ges init failed.
2fff88d5:	1e00 250a 0073 521e 7365 7465 7220 6165     ...%s..Reset rea
2fff88e5:	6f73 206e 6e75 6e6b 776f 0a6e 1400 6552     son unknown...Re
2fff88f5:	6573 2074 6572 7361 6e6f 2820 7830 7825     set reason (0x%x
2fff8905:	3a29 000a 5328 7379 6574 206d 7865 7469     ):..(System exit
2fff8915:	2073 7266 6d6f 5320 4154 444e 5942 000a     s from STANDBY..
2fff8925:	4d28 5550 6520 6978 7374 6620 6f72 206d     (MPU exits from 
2fff8935:	5343 4154 444e 5942 000a 2028 5020 776f     CSTANDBY..(  Pow
2fff8945:	7265 6f2d 206e 6552 6573 2074 7228 7473     er-on Reset (rst
2fff8955:	705f 726f 0a29 2800 2020 7242 776f 6f6e     _por)..(  Browno
2fff8965:	7475 5220 7365 7465 2820 7372 5f74 6f62     ut Reset (rst_bo
2fff8975:	2972 000a 2028 5320 7379 6574 206d 6572     r)..(  System re
2fff8985:	6573 2074 6567 656e 6172 6574 2064 7962     set generated by
2fff8995:	4d20 5543 2820 434d 5953 5253 5453 0a29      MCU (MCSYSRST).
2fff89a5:	2800 2020 6f4c 6163 206c 6572 6573 2074     .(  Local reset 
2fff89b5:	6567 656e 6172 6574 2064 7962 4d20 5543     generated by MCU
2fff89c5:	2820 434d 5953 5253 5453 0a29 2800 2020      (MCSYSRST)..(  
2fff89d5:	7953 7473 6d65 7220 7365 7465 6720 6e65     System reset gen
2fff89e5:	7265 7461 6465 6220 2079 504d 2055 4d28     erated by MPU (M
2fff89f5:	5350 5359 5352 2954 000a 2028 5220 7365     PSYSRST)..(  Res
2fff8a05:	7465 6420 6575 7420 206f 2061 6c63 636f     et due to a cloc
2fff8a15:	206b 6166 6c69 7275 2065 6e6f 4820 4553     k failure on HSE
2fff8a25:	000a 2028 4920 4457 3147 5220 7365 7465     ..(  IWDG1 Reset
2fff8a35:	2820 7372 5f74 7769 6764 2931 000a 2028      (rst_iwdg1)..( 
2fff8a45:	4920 4457 3247 5220 7365 7465 2820 7372      IWDG2 Reset (rs
2fff8a55:	5f74 7769 6764 2932 000a 2028 4d20 5550     t_iwdg2)..(  MPU
2fff8a65:	5020 6f72 6563 7373 726f 3020 5220 7365      Processor 0 Res
2fff8a75:	7465 000a 2028 4d20 5550 5020 6f72 6563     et..(  MPU Proce
2fff8a85:	7373 726f 3120 5220 7365 7465 000a 2028     ssor 1 Reset..( 
2fff8a95:	5020 6461 5220 7365 7465 6620 6f72 206d      Pad Reset from 
2fff8aa5:	524e 5453 000a 2028 5220 7365 7465 6420     NRST..(  Reset d
2fff8ab5:	6575 7420 206f 2061 6166 6c69 7275 2065     ue to a failure 
2fff8ac5:	666f 5620 4444 435f 524f 0a45 0a00 2020     of VDD_CORE...  
2fff8ad5:	6e55 6469 6e65 6974 6966 6465 7220 7365     Unidentified res
2fff8ae5:	7465 7220 6165 6f73 0a6e 6d00 6e6f 746f     et reason..monot
2fff8af5:	6e6f 6369 6f5f 7074 0a00 5342 4345 203a     onic_otp..BSEC: 
2fff8b05:	4f4d 4f4e 4f54 494e 5f43 544f 2050 7270     MONOTONIC_OTP pr
2fff8b15:	676f 6172 206d 7245 6f72 2072 7525 000a     ogram Error %u..
2fff8b25:	4d28 6e6f 746f 6e6f 6369 6320 756f 746e     (Monotonic count
2fff8b35:	7265 6820 7361 6220 6565 206e 6e69 7263     er has been incr
2fff8b45:	6d65 6e65 6574 2064 7628 6c61 6575 3020     emented (value 0
2fff8b55:	2578 2978 000a 6c70 7461 732f 2f74 7473     x%x)..plat/st/st
2fff8b65:	336d 6d32 3170 622f 326c 705f 616c 5f74     m32mp1/bl2_plat_
2fff8b75:	6573 7574 2e70 0063 4f0a 5450 4545 6820     setup.c..OPTEE h
2fff8b85:	6165 6564 2072 6170 7372 2065 7265 6f72     eader parse erro
2fff8b95:	2e72 000a 7276 6665 7600 7474 7600 6464     r...vref.vtt.vdd
2fff8ba5:	0031 6476 3264 7600 6464 0071 500a 204d     1.vdd2.vddq..PM 
2fff8bb5:	6f63 746e 7865 3a74 6220 6461 6d20 6761     context: bad mag
2fff8bc5:	6369 000a 700a 206d 6f63 746e 7865 2074     ic...pm context 
2fff8bd5:	6e69 6176 696c 2064 6328 6372 253d 2078     invalid (crc=%x 
2fff8be5:	7376 2520 2c78 7320 7a69 3d65 7525 7620     vs %x, size=%u v
2fff8bf5:	2073 7525 0a29 0a00 504c 564c 532d 6f74     s %u)...LPLV-Sto
2fff8c05:	3270 6d20 646f 2065 6f6e 2074 7573 7070     p2 mode not supp
2fff8c15:	726f 6574 0a64 0a00 6e55 6261 656c 7420     orted...Unable t
2fff8c25:	206f 7570 2074 4444 2052 6e69 5320 0a52     o put DDR in SR.
2fff8c35:	2800 6f53 7466 6177 6572 6120 6363 7365     .(Software acces
2fff8c45:	2073 6f74 6120 6c6c 6420 6265 6775 6320     s to all debug c
2fff8c55:	6d6f 6f70 656e 746e 2073 7369 6420 7369     omponents is dis
2fff8c65:	6261 656c 0a64 7000 616c 2f74 7473 732f     abled..plat/st/s
2fff8c75:	6d74 3233 706d 2f31 7473 336d 6d32 3170     tm32mp1/stm32mp1
2fff8c85:	645f 6762 636d 2e75 0063 7473 6d2c 6d65     _dbgmcu.c.st,mem
2fff8c95:	662d 7269 7765 6c61 006c 656d 6f6d 7972     -firewall.memory
2fff8ca5:	722d 6e61 6567 0073 6c70 7461 732f 2f74     -ranges.plat/st/
2fff8cb5:	7473 336d 6d32 3170 732f 6d74 3233 706d     stm32mp1/stm32mp
2fff8cc5:	5f31 6366 6e6f 5f66 6966 6572 6177 6c6c     1_fconf_firewall
2fff8cd5:	632e 7300 6d74 3233 706d 5f31 6966 6572     .c.stm32mp1_fire
2fff8ce5:	6177 6c6c 7000 616c 2f74 7473 732f 6d74     wall.plat/st/stm
2fff8cf5:	3233 706d 2f31 7473 336d 6d32 3170 705f     32mp1/stm32mp1_p
2fff8d05:	6972 6176 6574 632e 2800 6143 6e6e 746f     rivate.c.(Cannot
2fff8d15:	6720 7465 4320 5550 7620 7265 6973 6e6f      get CPU version
2fff8d25:	202c 6564 7562 2067 6964 6173 6c62 6465     , debug disabled
2fff8d35:	000a 5528 6573 6420 6665 7561 746c 6320     ..(Use default c
2fff8d45:	6968 2070 4449 202c 6564 7562 2067 6964     hip ID, debug di
2fff8d55:	6173 6c62 6465 000a 6170 7472 6e2d 6d75     sabled..part-num
2fff8d65:	6562 2d72 746f 0070 3531 4337 3100 3735     ber-otp.157C.157
2fff8d75:	0041 3531 4333 3100 3335 0041 3531 4331     A.153C.153A.151C
2fff8d85:	3100 3135 0041 3531 4637 3100 3735 0044     .151A.157F.157D.
2fff8d95:	3531 4633 3100 3335 0044 3531 4631 3100     153F.153D.151F.1
2fff8da5:	3135 0044 3f3f 3f3f 7000 6361 616b 6567     51D.????.package
2fff8db5:	6f5f 7074 5300 4d54 3233 504d 7325 7325     _otp.STM32MP%s%s
2fff8dc5:	5220 7665 252e 0073 4314 5550 203a 7325      Rev.%s..CPU: %s
2fff8dd5:	000a 6f62 7261 5f64 6469 6300 6766 5f30     ..board_id.cfg0_
2fff8de5:	746f 0070 7768 5f32 746f 0070 005a 0059     otp.hw2_otp.Z.Y.
2fff8df5:	4441 4100 0043 4241 4100 0041 561e 4444     AD.AC.AB.AA..VDD
2fff8e05:	7520 6b6e 6f6e 6e77 000a 5028 6f72 7564      unknown..(Produ
2fff8e15:	7463 625f 6c65 776f 325f 3576 303d 203a     ct_below_2v5=0: 
2fff8e25:	5348 564c 4e45 7020 6f72 6574 7463 6465     HSLVEN protected
2fff8e35:	6220 2079 5748 000a 500a 6f72 7564 7463      by HW...Product
2fff8e45:	625f 6c65 776f 325f 3576 313d 0a3a 0a00     _below_2v5=1:...
2fff8e55:	4809 4c53 4556 204e 7075 6164 6574 6920     .HSLVEN update i
2fff8e65:	2073 6564 7473 7572 7463 7669 2c65 000a     s destructive,..
2fff8e75:	090a 6f6e 7520 6470 7461 2065 7361 5620     ..no update as V
2fff8e85:	4444 3e20 3220 372e 0a56 1e00 4f49 6320     DD > 2.7V...IO c
2fff8e95:	6d6f 6570 736e 7461 6f69 206e 6563 6c6c     ompensation cell
2fff8ea5:	6e20 746f 7220 6165 7964 000a 6123 6464      not ready..#add
2fff8eb5:	6572 7373 632d 6c65 736c 2300 6973 657a     ress-cells.#size
2fff8ec5:	632d 6c65 736c 6c00 6e69 7875 702c 6168     -cells.linux,pha
2fff8ed5:	646e 656c 2f00 6c61 6169 6573 0073 6f63     ndle./aliases.co
2fff8ee5:	706d 7461 6269 656c 4100 5353 5245 3a54     mpatible.ASSERT:
2fff8ef5:	2520 3a73 7525 000a 696c 2f62 696c 6362      %s:%u..lib/libc
2fff8f05:	702f 6972 746e 2e66 0063 7830                /printf.c.0x.

2fff8f12 <CSWTCH.28>:
2fff8f12:	1019                                         ...

2fff8f15 <uuid_null.0>:
	...

2fff8f25 <__func__.0>:
2fff8f25:	746d 5f64 6461 5f64 7865 7274 5f61 666f     mtd_add_extra_of
2fff8f35:	7366 7465                                    fset.

2fff8f3a <__func__.0>:
2fff8f3a:	7073 5f69 6f6e 5f72 6e69 7469                spi_nor_init.

2fff8f47 <__func__.0>:
2fff8f47:	7473 336d 6d32 3170 635f 6b6c 675f 7465     stm32mp1_clk_get
2fff8f57:	675f 7461 6465 695f 0064                    _gated_id.

2fff8f61 <stm32mp1_axi_div>:
2fff8f61:	0201 0403 0404 0404                         ........

2fff8f69 <stm32mp1_mpu_apbx_div>:
2fff8f69:	0100 0302 0404 0404                         ........

2fff8f71 <stm32mp1_mcu_div>:
2fff8f71:	0100 0302 0604 0807 0909 0909 0909 0909     ................

2fff8f81 <pllncfgr2>:
2fff8f81:	0800                                         ...

2fff8f84 <stm32mp1_pll>:
2fff8f84:	1004 1008                                   ....

2fff8f88 <rtc_parents>:
2fff8f88:	04ff 0903                                   ....

2fff8f8c <per_parents>:
2fff8f8c:	0100                                         ...

2fff8f8f <mpu_parents>:
2fff8f8f:	0100 0b0b                                   ....

2fff8f93 <usbo_parents>:
2fff8f93:	2216                                        ."

2fff8f95 <usbphy_parents>:
2fff8f95:	1607                                         ...

2fff8f98 <mcuss_parents>:
2fff8f98:	0100 1102                                   ....

2fff8f9c <axiss_parents>:
2fff8f9c:	0100                                         ...

2fff8f9f <fmc_parents>:
2fff8f9f:	1317 1f14                                   ....

2fff8fa3 <qspi_parents>:
2fff8fa3:	1317 1f14                                   ....

2fff8fa7 <sdmmc3_parents>:
2fff8fa7:	131e 0614                                   ....

2fff8fab <sdmmc12_parents>:
2fff8fab:	131d 0614                                   ....

2fff8faf <uart234578_parents>:
2fff8faf:	1518 0a06                                    .....

2fff8fb4 <uart6_parents>:
2fff8fb4:	1519 0a06                                    .....

2fff8fb9 <rng1_parents>:
2fff8fb9:	1602 0304                                   ....

2fff8fbd <usart1_parents>:
2fff8fbd:	121c 0a06 0715                              ......

2fff8fc3 <spi6_parents>:
2fff8fc3:	151c 0a06 1207                              ......

2fff8fc9 <i2c46_parents>:
2fff8fc9:	121c 0a06                                   ....

2fff8fcd <stgen_parents>:
2fff8fcd:	0706                                        ..

2fff8fcf <i2c35_parents>:
2fff8fcf:	1618 0a06                                   ....

2fff8fd3 <i2c12_parents>:
2fff8fd3:	1618 0a06                                   ....

2fff8fd7 <parent_id_clock_id>:
2fff8fd7:	0004 0201 ff03 0004 ff05 b401 b6b5 b8b7     ................
2fff8fe7:	bab9 bcbb bebd c3bf c3c3 c3c3 00c3 c100     ................
2fff8ff7:	c4c2                                         ...

2fff8ffa <CSWTCH.37>:
2fff8ffa:	0001 0000 0000 0000 0302                    ..........

2fff9004 <__func__.0>:
2fff9004:	7473 336d 6d32 3170 645f 7264 735f 7465     stm32mp1_ddr_set
2fff9014:	7075                                         up.

2fff9017 <__func__.0>:
2fff9017:	7473 336d 6d32 5f70 6464 5f72 7464 675f     stm32mp_ddr_dt_g
2fff9027:	7465 705f 7261 6d61                          et_param.

2fff9030 <__func__.0>:
2fff9030:	766e 656d 5f6d 6567 5f74 7962 6e5f 646f     nvmem_get_by_nod
2fff9040:	0065                                        e.

2fff9042 <__func__.0>:
2fff9042:	6572 6967 7473 7265 705f 696d 0063          register_pmic.

2fff9050 <__func__.0>:
2fff9050:	6572 7567 616c 6f74 5f72 6567 5f74 7962     regulator_get_by
2fff9060:	705f 6168 646e 656c                          _phandle.

2fff9069 <__func__.0>:
2fff9069:	6966 6578 5f64 6572 7567 616c 6f74 5f72     fixed_regulator_
2fff9079:	6572 6967 7473 7265                          register.

2fff9082 <__func__.0>:
2fff9082:	7473 336d 5f32 7371 6970 775f 6961 5f74     stm32_qspi_wait_
2fff9092:	6f66 5f72 6f6e 5f74 7562 7973                for_not_busy.

2fff909f <__func__.1>:
2fff909f:	7473 336d 5f32 7371 6970 775f 6961 5f74     stm32_qspi_wait_
2fff90af:	6d63 0064                                   cmd.

2fff90b3 <__func__.2>:
2fff90b3:	7473 336d 5f32 7371 6970 705f 6c6f 006c     stm32_qspi_poll.

2fff90c3 <__func__.3>:
2fff90c3:	7473 336d 5f32 7371 6970 655f 6578 5f63     stm32_qspi_exec_
2fff90d3:	706f                                         op.

2fff90d6 <__func__.1>:
2fff90d6:	6c70 7461 665f 7577 675f 7465 625f 6f6f     plat_fwu_get_boo
2fff90e6:	5f74 6469 0078                              t_idx.

2fff90ec <__func__.0>:
2fff90ec:	7464 675f 7465 645f 7264 735f 7a69 0065     dt_get_ddr_size.

2fff90fc <debug_msg>:
2fff90fc:	2a2a 2a2a 2a2a 2a2a 2a2a 2a2a 2a2a 2a2a     ****************
2fff910c:	2a2a 2a2a 2a2a 2a2a 2a2a 2a2a 2a2a 2a2a     ****************
2fff911c:	2a2a 2a2a 2a2a 2a2a 2a2a 2a2a 2a2a 2a2a     ****************
2fff912c:	2a2a 0a2a 2a2a 4420 4245 4755 4120 4343     ***.** DEBUG ACC
2fff913c:	5345 2053 4f50 5452 4920 2053 504f 4e45     ESS PORT IS OPEN
2fff914c:	2021 2020 2020 2020 2020 2020 2020 2020     !               
2fff915c:	2020 2020 2a20 0a2a 2a2a 5420 6968 2073          **.** This 
2fff916c:	6f62 746f 6920 616d 6567 6920 2073 6e6f     boot image is on
2fff917c:	796c 6620 726f 6420 6265 6775 6967 676e     ly for debugging
2fff918c:	7020 7275 6f70 6573 2a20 0a2a 2a2a 6120      purpose **.** a
2fff919c:	646e 6920 2073 6e75 6173 6566 6620 726f     nd is unsafe for
2fff91ac:	7020 6f72 7564 7463 6f69 206e 7375 2e65      production use.
2fff91bc:	2020 2020 2020 2020 2020 2020 2a20 0a2a                  **.
2fff91cc:	2a2a 2020 2020 2020 2020 2020 2020 2020     **              
2fff91dc:	2020 2020 2020 2020 2020 2020 2020 2020                     
2fff91ec:	2020 2020 2020 2020 2020 2020 2020 2020                     
2fff91fc:	2a20 0a2a 2a2a 4920 2066 6f79 2075 6573      **.** If you se
2fff920c:	2065 6874 7369 6d20 7365 6173 6567 6120     e this message a
2fff921c:	646e 7920 756f 6120 6572 6e20 746f 2020     nd you are not  
2fff922c:	2020 2020 2a20 0a2a 2a2a 6420 6265 6775          **.** debug
2fff923c:	6967 676e 7220 7065 726f 2074 6874 7369     ging report this
2fff924c:	6920 6d6d 6465 6169 6574 796c 7420 206f      immediately to 
2fff925c:	6f79 7275 2020 2020 2a20 0a2a 2a2a 7620     your     **.** v
2fff926c:	6e65 6f64 2172 2020 2020 2020 2020 2020     endor!          
2fff927c:	2020 2020 2020 2020 2020 2020 2020 2020                     
2fff928c:	2020 2020 2020 2020 2020 2020 2a20 0a2a                  **.
2fff929c:	2a2a 2a2a 2a2a 2a2a 2a2a 2a2a 2a2a 2a2a     ****************
2fff92ac:	2a2a 2a2a 2a2a 2a2a 2a2a 2a2a 2a2a 2a2a     ****************
2fff92bc:	2a2a 2a2a 2a2a 2a2a 2a2a 2a2a 2a2a 2a2a     ****************
2fff92cc:	2a2a 0a2a                                    ***..

2fff92d1 <__func__.0>:
2fff92d1:	6d70 6369 645f 7264 705f 776f 7265 695f     pmic_ddr_power_i
2fff92e1:	696e 0074 6e69 6c63 6475 2f65 7261 6863     nit.include/arch
2fff92f1:	612f 7261 6863 3233 652f 336c 635f 6d6f     /aarch32/el3_com
2fff9301:	6f6d 5f6e 616d 7263 736f 532e                mon_macros.S.

2fff930e <assert_msg1>:
2fff930e:	5341      	.short	0x5341
2fff9310:	54524553 	.word	0x54524553
2fff9314:	6946203a 	.word	0x6946203a
2fff9318:	0020656c 	.word	0x0020656c

2fff931c <assert_msg2>:
2fff931c:	6e694c20 	.word	0x6e694c20
2fff9320:	2065      	.short	0x2065
	...

2fff9323 <panic_msg>:
2fff9323:	50          	.byte	0x50
2fff9324:	43494e41 	.word	0x43494e41
2fff9328:	20746120 	.word	0x20746120
2fff932c:	3a204350 	.word	0x3a204350
2fff9330:	00783020 	.word	0x00783020

2fff9334 <panic_end>:
2fff9334:	0a0d      	.short	0x0a0d
2fff9336:	00          	.byte	0x00
2fff9337:	64          	.byte	0x64
2fff9338:	65766972 	.word	0x65766972
2fff933c:	732f7372 	.word	0x732f7372
2fff9340:	61752f74 	.word	0x61752f74
2fff9344:	612f7472 	.word	0x612f7472
2fff9348:	68637261 	.word	0x68637261
2fff934c:	732f3233 	.word	0x732f3233
2fff9350:	32336d74 	.word	0x32336d74
2fff9354:	6e6f635f 	.word	0x6e6f635f
2fff9358:	656c6f73 	.word	0x656c6f73
2fff935c:	532e      	.short	0x532e
	...

2fff935f <cortex_a7_errata_list_end>:
2fff935f:	6c          	.byte	0x6c
2fff9360:	632f6269 	.word	0x632f6269
2fff9364:	2f737570 	.word	0x2f737570
2fff9368:	63726161 	.word	0x63726161
2fff936c:	2f323368 	.word	0x2f323368
2fff9370:	5f757063 	.word	0x5f757063
2fff9374:	706c6568 	.word	0x706c6568
2fff9378:	2e737265 	.word	0x2e737265
2fff937c:	0053      	.short	0x0053
2fff937e:	696c      	.short	0x696c
2fff9380:	6c782f62 	.word	0x6c782f62
2fff9384:	745f7461 	.word	0x745f7461
2fff9388:	656c6261 	.word	0x656c6261
2fff938c:	32765f73 	.word	0x32765f73
2fff9390:	7261612f 	.word	0x7261612f
2fff9394:	32336863 	.word	0x32336863
2fff9398:	616e652f 	.word	0x616e652f
2fff939c:	5f656c62 	.word	0x5f656c62
2fff93a0:	2e756d6d 	.word	0x2e756d6d
2fff93a4:	0053      	.short	0x0053

2fff93a6 <prefetch_abort_str>:
2fff93a6:	500a      	.short	0x500a
2fff93a8:	65666572 	.word	0x65666572
2fff93ac:	20686374 	.word	0x20686374
2fff93b0:	726f6241 	.word	0x726f6241
2fff93b4:	74612074 	.word	0x74612074
2fff93b8:	7830203a 	.word	0x7830203a
	...

2fff93bd <data_abort_str>:
2fff93bd:	0a          	.byte	0x0a
2fff93be:	6144      	.short	0x6144
2fff93c0:	41206174 	.word	0x41206174
2fff93c4:	74726f62 	.word	0x74726f62
2fff93c8:	3a746120 	.word	0x3a746120
2fff93cc:	00783020 	.word	0x00783020

2fff93d0 <undefined_str>:
2fff93d0:	646e550a 	.word	0x646e550a
2fff93d4:	6e696665 	.word	0x6e696665
2fff93d8:	69206465 	.word	0x69206465
2fff93dc:	7274736e 	.word	0x7274736e
2fff93e0:	69746375 	.word	0x69746375
2fff93e4:	61206e6f 	.word	0x61206e6f
2fff93e8:	30203a74 	.word	0x30203a74
2fff93ec:	0078      	.short	0x0078

2fff93ee <exception_start_str>:
2fff93ee:	450a      	.short	0x450a
2fff93f0:	70656378 	.word	0x70656378
2fff93f4:	6e6f6974 	.word	0x6e6f6974
2fff93f8:	646f6d20 	.word	0x646f6d20
2fff93fc:	78303d65 	.word	0x78303d65
	...

2fff9401 <exception_end_str>:
2fff9401:	20          	.byte	0x20
2fff9402:	7461      	.short	0x7461
2fff9404:	7830203a 	.word	0x7830203a
	...

2fff9409 <dfsr_str>:
2fff9409:	20          	.byte	0x20
2fff940a:	4644      	.short	0x4644
2fff940c:	3d205253 	.word	0x3d205253
2fff9410:	00783020 	.word	0x00783020

2fff9414 <dfar_str>:
2fff9414:	41464420 	.word	0x41464420
2fff9418:	203d2052 	.word	0x203d2052
2fff941c:	7830      	.short	0x7830
	...

2fff941f <ifsr_str>:
2fff941f:	20          	.byte	0x20
2fff9420:	52534649 	.word	0x52534649
2fff9424:	30203d20 	.word	0x30203d20
2fff9428:	0078      	.short	0x0078

2fff942a <ifar_str>:
2fff942a:	4920      	.short	0x4920
2fff942c:	20524146 	.word	0x20524146
2fff9430:	7830203d 	.word	0x7830203d
	...

2fff9435 <end_error_str>:
2fff9435:	0a          	.byte	0x0a
2fff9436:	000d      	.short	0x000d

2fff9438 <dyn_cfg__populator>:
2fff9438:	7fec 2fff 7ff6 2fff 0319 2fff               .../.../.../

2fff9444 <stm32mp_fuse__populator>:
2fff9444:	86ea 2fff 86f0 2fff 1d2d 2fff               .../.../-../

2fff9450 <stm32mp_io__populator>:
2fff9450:	86ea 2fff 872f 2fff 1e55 2fff               ...//../U../

2fff945c <stm32mp1_firewall__populator>:
2fff945c:	7fec 2fff 8cd8 2fff 2911 2fff               .../.../.)./

2fff9468 <__CPU_OPS_START__>:
2fff9468:	410fc070 	.word	0x410fc070
2fff946c:	2ffe96a8 	.word	0x2ffe96a8
2fff9470:	2fff935f 	.word	0x2fff935f
2fff9474:	2fff935f 	.word	0x2fff935f

2fff9478 <__CPU_OPS_END__>:
	...

2fff9480 <bl2_vector_table>:
2fff9480:	eaffbede 	b	2ffe9000 <bl2_entrypoint>
2fff9484:	eaffbf89 	b	2ffe92b0 <report_exception>
2fff9488:	eaffbf88 	b	2ffe92b0 <report_exception>
2fff948c:	eaffbf8c 	b	2ffe92c4 <report_prefetch_abort>
2fff9490:	eaffbf8f 	b	2ffe92d4 <report_data_abort>
2fff9494:	eaffbf85 	b	2ffe92b0 <report_exception>
2fff9498:	eaffbf84 	b	2ffe92b0 <report_exception>
2fff949c:	eaffbf83 	b	2ffe92b0 <report_exception>

2fff94a0 <__clean_dcache_range_from_thumb>:
2fff94a0:	4778      	bx	pc
2fff94a2:	e7fd      	b.n	2fff94a0 <__clean_dcache_range_from_thumb>
2fff94a4:	eaffc002 	b	2ffe94b4 <clean_dcache_range>

2fff94a8 <__enable_mmu_direct_svc_mon_from_thumb>:
2fff94a8:	4778      	bx	pc
2fff94aa:	e7fd      	b.n	2fff94a8 <__enable_mmu_direct_svc_mon_from_thumb>
2fff94ac:	eaffc0b2 	b	2ffe977c <enable_mmu_direct_svc_mon>

2fff94b0 <__spin_lock_from_thumb>:
2fff94b0:	4778      	bx	pc
2fff94b2:	e7fd      	b.n	2fff94b0 <__spin_lock_from_thumb>
2fff94b4:	eaffc0a1 	b	2ffe9740 <spin_lock>

2fff94b8 <__console_register_from_arm>:
2fff94b8:	e51ff004 	ldr	pc, [pc, #-4]	@ 2fff94bc <__console_register_from_arm+0x4>
2fff94bc:	2ffea6a5 	.word	0x2ffea6a5

2fff94c0 <__flush_dcache_range_from_thumb>:
2fff94c0:	4778      	bx	pc
2fff94c2:	e7fd      	b.n	2fff94c0 <__flush_dcache_range_from_thumb>
2fff94c4:	eaffbfeb 	b	2ffe9478 <flush_dcache_range>

2fff94c8 <__bl2_run_next_image_from_thumb>:
2fff94c8:	4778      	bx	pc
2fff94ca:	e7fd      	b.n	2fff94c8 <__bl2_run_next_image_from_thumb>
2fff94cc:	eaffbf23 	b	2ffe9160 <bl2_run_next_image>

2fff94d0 <__spin_unlock_from_thumb>:
2fff94d0:	4778      	bx	pc
2fff94d2:	e7fd      	b.n	2fff94d0 <__spin_unlock_from_thumb>
2fff94d4:	eaffc0a2 	b	2ffe9764 <spin_unlock>

2fff94d8 <__RO_END_UNALIGNED__>:
	...
