Archive member included to satisfy reference by file (symbol)

./../build/opteemin-programmer-uart-stm32mp157c-ed1/lib/libfdt.a(fdt.o)
                              ./../build/opteemin-programmer-uart-stm32mp157c-ed1/bl2/fconf.o (fdt_check_header)
./../build/opteemin-programmer-uart-stm32mp157c-ed1/lib/libfdt.a(fdt_addresses.o)
                              ./../build/opteemin-programmer-uart-stm32mp157c-ed1/bl2/fdt_wrappers.o (fdt_address_cells)
./../build/opteemin-programmer-uart-stm32mp157c-ed1/lib/libfdt.a(fdt_ro.o)
                              ./../build/opteemin-programmer-uart-stm32mp157c-ed1/bl2/fdt_wrappers.o (fdt_get_name)
./../build/opteemin-programmer-uart-stm32mp157c-ed1/lib/libfdt.a(fdt_rw.o)
                              ./../build/opteemin-programmer-uart-stm32mp157c-ed1/lib/libfdt.a(fdt_addresses.o) (fdt_appendprop)
./../build/opteemin-programmer-uart-stm32mp157c-ed1/lib/libfdt.a(fdt_strerror.o)
                              ./../build/opteemin-programmer-uart-stm32mp157c-ed1/bl2/fdt_wrappers.o (fdt_strerror)
./../build/opteemin-programmer-uart-stm32mp157c-ed1/lib/libfdt.a(fdt_wip.o)
                              ./../build/opteemin-programmer-uart-stm32mp157c-ed1/bl2/fdt_wrappers.o (fdt_setprop_inplace_namelen_partial)
./../build/opteemin-programmer-uart-stm32mp157c-ed1/lib/libc.a(assert.o)
                              ./../build/opteemin-programmer-uart-stm32mp157c-ed1/bl2/bl2_image_load_v2.o (__assert)
./../build/opteemin-programmer-uart-stm32mp157c-ed1/lib/libc.a(memchr.o)
                              ./../build/opteemin-programmer-uart-stm32mp157c-ed1/lib/libfdt.a(fdt_ro.o) (memchr)
./../build/opteemin-programmer-uart-stm32mp157c-ed1/lib/libc.a(memcmp.o)
                              ./../build/opteemin-programmer-uart-stm32mp157c-ed1/bl2/uuid.o (memcmp)
./../build/opteemin-programmer-uart-stm32mp157c-ed1/lib/libc.a(memcpy.o)
                              ./../build/opteemin-programmer-uart-stm32mp157c-ed1/bl2/fdt_wrappers.o (memcpy)
./../build/opteemin-programmer-uart-stm32mp157c-ed1/lib/libc.a(memmove.o)
                              ./../build/opteemin-programmer-uart-stm32mp157c-ed1/bl2/xlat_tables_core.o (memmove)
./../build/opteemin-programmer-uart-stm32mp157c-ed1/lib/libc.a(memset.o)
                              ./../build/opteemin-programmer-uart-stm32mp157c-ed1/bl2/uuid.o (memset)
./../build/opteemin-programmer-uart-stm32mp157c-ed1/lib/libc.a(printf.o)
                              ./../build/opteemin-programmer-uart-stm32mp157c-ed1/bl2/tf_log.o (vprintf)
./../build/opteemin-programmer-uart-stm32mp157c-ed1/lib/libc.a(snprintf.o)
                              ./../build/opteemin-programmer-uart-stm32mp157c-ed1/bl2/stm32mp1_clk.o (snprintf)
./../build/opteemin-programmer-uart-stm32mp157c-ed1/lib/libc.a(strchr.o)
                              ./../build/opteemin-programmer-uart-stm32mp157c-ed1/bl2/fdt_wrappers.o (strchr)
./../build/opteemin-programmer-uart-stm32mp157c-ed1/lib/libc.a(strcmp.o)
                              ./../build/opteemin-programmer-uart-stm32mp157c-ed1/bl2/stm32mp_pmic.o (strcmp)
./../build/opteemin-programmer-uart-stm32mp157c-ed1/lib/libc.a(strlcpy.o)
                              ./../build/opteemin-programmer-uart-stm32mp157c-ed1/bl2/fdt_wrappers.o (strlcpy)
./../build/opteemin-programmer-uart-stm32mp157c-ed1/lib/libc.a(strlen.o)
                              ./../build/opteemin-programmer-uart-stm32mp157c-ed1/bl2/fdt_wrappers.o (strlen)
./../build/opteemin-programmer-uart-stm32mp157c-ed1/lib/libc.a(strncmp.o)
                              ./../build/opteemin-programmer-uart-stm32mp157c-ed1/bl2/fdt_wrappers.o (strncmp)
./../build/opteemin-programmer-uart-stm32mp157c-ed1/lib/libc.a(strnlen.o)
                              ./../build/opteemin-programmer-uart-stm32mp157c-ed1/bl2/uuid.o (strnlen)
./../build/opteemin-programmer-uart-stm32mp157c-ed1/lib/libc.a(strrchr.o)
                              ./../build/opteemin-programmer-uart-stm32mp157c-ed1/lib/libfdt.a(fdt_ro.o) (strrchr)

Discarded input sections

 .text          0x00000000        0x0 ./../build/opteemin-programmer-uart-stm32mp157c-ed1/bl2/build_message.o
 .data          0x00000000        0x0 ./../build/opteemin-programmer-uart-stm32mp157c-ed1/bl2/build_message.o
 .bss           0x00000000        0x0 ./../build/opteemin-programmer-uart-stm32mp157c-ed1/bl2/build_message.o
 .rodata.version
                0x00000000        0x8 ./../build/opteemin-programmer-uart-stm32mp157c-ed1/bl2/build_message.o
 .text          0x00000000        0x0 ./../build/opteemin-programmer-uart-stm32mp157c-ed1/bl2/bl2_arch_setup.o
 .data          0x00000000        0x0 ./../build/opteemin-programmer-uart-stm32mp157c-ed1/bl2/bl2_arch_setup.o
 .bss           0x00000000        0x0 ./../build/opteemin-programmer-uart-stm32mp157c-ed1/bl2/bl2_arch_setup.o
 .text          0x00000000        0x0 ./../build/opteemin-programmer-uart-stm32mp157c-ed1/bl2/bl2_image_load_v2.o
 .data          0x00000000        0x0 ./../build/opteemin-programmer-uart-stm32mp157c-ed1/bl2/bl2_image_load_v2.o
 .bss           0x00000000        0x0 ./../build/opteemin-programmer-uart-stm32mp157c-ed1/bl2/bl2_image_load_v2.o
 .text          0x00000000        0x0 ./../build/opteemin-programmer-uart-stm32mp157c-ed1/bl2/bl2_main.o
 .data          0x00000000        0x0 ./../build/opteemin-programmer-uart-stm32mp157c-ed1/bl2/bl2_main.o
 .bss           0x00000000        0x0 ./../build/opteemin-programmer-uart-stm32mp157c-ed1/bl2/bl2_main.o
 .text          0x00000000        0x0 ./../build/opteemin-programmer-uart-stm32mp157c-ed1/bl2/bl_common.o
 .data          0x00000000        0x0 ./../build/opteemin-programmer-uart-stm32mp157c-ed1/bl2/bl_common.o
 .bss           0x00000000        0x0 ./../build/opteemin-programmer-uart-stm32mp157c-ed1/bl2/bl_common.o
 .text.page_align
                0x00000000       0x14 ./../build/opteemin-programmer-uart-stm32mp157c-ed1/bl2/bl_common.o
 .text.get_version
                0x00000000        0x8 ./../build/opteemin-programmer-uart-stm32mp157c-ed1/bl2/bl_common.o
 .text          0x00000000        0x0 ./../build/opteemin-programmer-uart-stm32mp157c-ed1/bl2/desc_image_load.o
 .data          0x00000000        0x0 ./../build/opteemin-programmer-uart-stm32mp157c-ed1/bl2/desc_image_load.o
 .bss           0x00000000        0x0 ./../build/opteemin-programmer-uart-stm32mp157c-ed1/bl2/desc_image_load.o
 .text.bl31_params_parse_helper
                0x00000000       0x98 ./../build/opteemin-programmer-uart-stm32mp157c-ed1/bl2/desc_image_load.o
 .text          0x00000000        0x0 ./../build/opteemin-programmer-uart-stm32mp157c-ed1/bl2/fdt_wrappers.o
 .data          0x00000000        0x0 ./../build/opteemin-programmer-uart-stm32mp157c-ed1/bl2/fdt_wrappers.o
 .bss           0x00000000        0x0 ./../build/opteemin-programmer-uart-stm32mp157c-ed1/bl2/fdt_wrappers.o
 .text.fdt_read_prop_cells
                0x00000000       0x1e ./../build/opteemin-programmer-uart-stm32mp157c-ed1/bl2/fdt_wrappers.o
 .text.fdt_read_uint64_default
                0x00000000       0x20 ./../build/opteemin-programmer-uart-stm32mp157c-ed1/bl2/fdt_wrappers.o
 .text.fdtw_read_bytes
                0x00000000       0x84 ./../build/opteemin-programmer-uart-stm32mp157c-ed1/bl2/fdt_wrappers.o
 .rodata.fdtw_write_inplace_cells.str1.1
                0x00000000       0x2a ./../build/opteemin-programmer-uart-stm32mp157c-ed1/bl2/fdt_wrappers.o
 .text.fdtw_write_inplace_cells
                0x00000000       0x70 ./../build/opteemin-programmer-uart-stm32mp157c-ed1/bl2/fdt_wrappers.o
 .rodata.fdtw_write_inplace_bytes.str1.1
                0x00000000       0x27 ./../build/opteemin-programmer-uart-stm32mp157c-ed1/bl2/fdt_wrappers.o
 .text.fdtw_write_inplace_bytes
                0x00000000       0xac ./../build/opteemin-programmer-uart-stm32mp157c-ed1/bl2/fdt_wrappers.o
 .rodata.fdt_get_reg_props_by_index.str1.1
                0x00000000       0x2a ./../build/opteemin-programmer-uart-stm32mp157c-ed1/bl2/fdt_wrappers.o
 .text.fdt_get_reg_props_by_index
                0x00000000       0xa0 ./../build/opteemin-programmer-uart-stm32mp157c-ed1/bl2/fdt_wrappers.o
 .rodata.fdt_get_reg_props_by_name.str1.1
                0x00000000        0xa ./../build/opteemin-programmer-uart-stm32mp157c-ed1/bl2/fdt_wrappers.o
 .text.fdt_get_reg_props_by_name
                0x00000000       0x30 ./../build/opteemin-programmer-uart-stm32mp157c-ed1/bl2/fdt_wrappers.o
 .rodata.fdtw_translate_address.str1.1
                0x00000000       0x6d ./../build/opteemin-programmer-uart-stm32mp157c-ed1/bl2/fdt_wrappers.o
 .text.fdtw_translate_address
                0x00000000      0x164 ./../build/opteemin-programmer-uart-stm32mp157c-ed1/bl2/fdt_wrappers.o
 .rodata.fdtw_for_each_cpu.str1.1
                0x00000000        0xb ./../build/opteemin-programmer-uart-stm32mp157c-ed1/bl2/fdt_wrappers.o
 .text.fdtw_for_each_cpu
                0x00000000       0x7c ./../build/opteemin-programmer-uart-stm32mp157c-ed1/bl2/fdt_wrappers.o
 .rodata.fdtw_find_or_add_subnode.str1.1
                0x00000000        0xd ./../build/opteemin-programmer-uart-stm32mp157c-ed1/bl2/fdt_wrappers.o
 .text.fdtw_find_or_add_subnode
                0x00000000       0x40 ./../build/opteemin-programmer-uart-stm32mp157c-ed1/bl2/fdt_wrappers.o
 .rodata.__func__.0
                0x00000000       0x19 ./../build/opteemin-programmer-uart-stm32mp157c-ed1/bl2/fdt_wrappers.o
 .text          0x00000000        0x0 ./../build/opteemin-programmer-uart-stm32mp157c-ed1/bl2/tf_log.o
 .data          0x00000000        0x0 ./../build/opteemin-programmer-uart-stm32mp157c-ed1/bl2/tf_log.o
 .bss           0x00000000        0x0 ./../build/opteemin-programmer-uart-stm32mp157c-ed1/bl2/tf_log.o
 .text.tf_log_newline
                0x00000000       0x3c ./../build/opteemin-programmer-uart-stm32mp157c-ed1/bl2/tf_log.o
 .text.tf_log_set_max_level
                0x00000000       0x30 ./../build/opteemin-programmer-uart-stm32mp157c-ed1/bl2/tf_log.o
 .text          0x00000000        0x0 ./../build/opteemin-programmer-uart-stm32mp157c-ed1/bl2/uuid.o
 .data          0x00000000        0x0 ./../build/opteemin-programmer-uart-stm32mp157c-ed1/bl2/uuid.o
 .bss           0x00000000        0x0 ./../build/opteemin-programmer-uart-stm32mp157c-ed1/bl2/uuid.o
 .text.uuid_match
                0x00000000       0x10 ./../build/opteemin-programmer-uart-stm32mp157c-ed1/bl2/uuid.o
 .text.copy_uuid
                0x00000000       0x12 ./../build/opteemin-programmer-uart-stm32mp157c-ed1/bl2/uuid.o
 .text.is_null_uuid
                0x00000000       0x20 ./../build/opteemin-programmer-uart-stm32mp157c-ed1/bl2/uuid.o
 .text          0x00000000        0x0 ./../build/opteemin-programmer-uart-stm32mp157c-ed1/bl2/tzc400.o
 .data          0x00000000        0x0 ./../build/opteemin-programmer-uart-stm32mp157c-ed1/bl2/tzc400.o
 .bss           0x00000000        0x0 ./../build/opteemin-programmer-uart-stm32mp157c-ed1/bl2/tzc400.o
 .rodata.tzc400_it_handler.str1.1
                0x00000000       0x93 ./../build/opteemin-programmer-uart-stm32mp157c-ed1/bl2/tzc400.o
 .text.tzc400_it_handler
                0x00000000       0xac ./../build/opteemin-programmer-uart-stm32mp157c-ed1/bl2/tzc400.o
 .text          0x00000000        0x0 ./../build/opteemin-programmer-uart-stm32mp157c-ed1/bl2/clk.o
 .data          0x00000000        0x0 ./../build/opteemin-programmer-uart-stm32mp157c-ed1/bl2/clk.o
 .bss           0x00000000        0x0 ./../build/opteemin-programmer-uart-stm32mp157c-ed1/bl2/clk.o
 .text.clk_get_parent
                0x00000000       0x24 ./../build/opteemin-programmer-uart-stm32mp157c-ed1/bl2/clk.o
 .text          0x00000000        0x0 ./../build/opteemin-programmer-uart-stm32mp157c-ed1/bl2/multi_console.o
 .data          0x00000000        0x0 ./../build/opteemin-programmer-uart-stm32mp157c-ed1/bl2/multi_console.o
 .bss           0x00000000        0x0 ./../build/opteemin-programmer-uart-stm32mp157c-ed1/bl2/multi_console.o
 .text.console_unregister
                0x00000000       0x2c ./../build/opteemin-programmer-uart-stm32mp157c-ed1/bl2/multi_console.o
 .text.console_switch_state
                0x00000000        0xc ./../build/opteemin-programmer-uart-stm32mp157c-ed1/bl2/multi_console.o
 .text          0x00000000        0x0 ./../build/opteemin-programmer-uart-stm32mp157c-ed1/bl2/delay_timer.o
 .data          0x00000000        0x0 ./../build/opteemin-programmer-uart-stm32mp157c-ed1/bl2/delay_timer.o
 .bss           0x00000000        0x0 ./../build/opteemin-programmer-uart-stm32mp157c-ed1/bl2/delay_timer.o
 .text          0x00000000        0x0 ./../build/opteemin-programmer-uart-stm32mp157c-ed1/bl2/generic_delay_timer.o
 .data          0x00000000        0x0 ./../build/opteemin-programmer-uart-stm32mp157c-ed1/bl2/generic_delay_timer.o
 .bss           0x00000000        0x0 ./../build/opteemin-programmer-uart-stm32mp157c-ed1/bl2/generic_delay_timer.o
 .text          0x00000000        0x0 ./../build/opteemin-programmer-uart-stm32mp157c-ed1/bl2/io_block.o
 .data          0x00000000        0x0 ./../build/opteemin-programmer-uart-stm32mp157c-ed1/bl2/io_block.o
 .bss           0x00000000        0x0 ./../build/opteemin-programmer-uart-stm32mp157c-ed1/bl2/io_block.o
 .text.device_type_block
                0x00000000        0x4 ./../build/opteemin-programmer-uart-stm32mp157c-ed1/bl2/io_block.o
 .text.block_close
                0x00000000        0x8 ./../build/opteemin-programmer-uart-stm32mp157c-ed1/bl2/io_block.o
 .rodata.block_seek.str1.1
                0x00000000       0x16 ./../build/opteemin-programmer-uart-stm32mp157c-ed1/bl2/io_block.o
 .text.block_seek
                0x00000000       0x54 ./../build/opteemin-programmer-uart-stm32mp157c-ed1/bl2/io_block.o
 .text.block_open
                0x00000000       0x4c ./../build/opteemin-programmer-uart-stm32mp157c-ed1/bl2/io_block.o
 .text.block_write
                0x00000000      0x11c ./../build/opteemin-programmer-uart-stm32mp157c-ed1/bl2/io_block.o
 .text.block_read
                0x00000000       0xe4 ./../build/opteemin-programmer-uart-stm32mp157c-ed1/bl2/io_block.o
 .text.block_dev_close
                0x00000000       0x48 ./../build/opteemin-programmer-uart-stm32mp157c-ed1/bl2/io_block.o
 .text.block_dev_open
                0x00000000       0x78 ./../build/opteemin-programmer-uart-stm32mp157c-ed1/bl2/io_block.o
 .text.register_io_dev_block
                0x00000000       0x2c ./../build/opteemin-programmer-uart-stm32mp157c-ed1/bl2/io_block.o
 .bss.block_dev_count
                0x00000000        0x4 ./../build/opteemin-programmer-uart-stm32mp157c-ed1/bl2/io_block.o
 .bss.dev_info_pool
                0x00000000        0x8 ./../build/opteemin-programmer-uart-stm32mp157c-ed1/bl2/io_block.o
 .bss.state_pool
                0x00000000       0x18 ./../build/opteemin-programmer-uart-stm32mp157c-ed1/bl2/io_block.o
 .rodata.block_dev_funcs
                0x00000000       0x24 ./../build/opteemin-programmer-uart-stm32mp157c-ed1/bl2/io_block.o
 .rodata.block_dev_connector
                0x00000000        0x4 ./../build/opteemin-programmer-uart-stm32mp157c-ed1/bl2/io_block.o
 .debug_info    0x00000000      0xe6e ./../build/opteemin-programmer-uart-stm32mp157c-ed1/bl2/io_block.o
 .debug_abbrev  0x00000000      0x342 ./../build/opteemin-programmer-uart-stm32mp157c-ed1/bl2/io_block.o
 .debug_loc     0x00000000      0xdcb ./../build/opteemin-programmer-uart-stm32mp157c-ed1/bl2/io_block.o
 .debug_aranges
                0x00000000       0x60 ./../build/opteemin-programmer-uart-stm32mp157c-ed1/bl2/io_block.o
 .debug_ranges  0x00000000       0xf8 ./../build/opteemin-programmer-uart-stm32mp157c-ed1/bl2/io_block.o
 .debug_line    0x00000000      0x77f ./../build/opteemin-programmer-uart-stm32mp157c-ed1/bl2/io_block.o
 .debug_str     0x00000000      0x666 ./../build/opteemin-programmer-uart-stm32mp157c-ed1/bl2/io_block.o
 .comment       0x00000000       0x13 ./../build/opteemin-programmer-uart-stm32mp157c-ed1/bl2/io_block.o
 .note.GNU-stack
                0x00000000        0x0 ./../build/opteemin-programmer-uart-stm32mp157c-ed1/bl2/io_block.o
 .debug_frame   0x00000000      0x114 ./../build/opteemin-programmer-uart-stm32mp157c-ed1/bl2/io_block.o
 .ARM.attributes
                0x00000000       0x33 ./../build/opteemin-programmer-uart-stm32mp157c-ed1/bl2/io_block.o
 .text          0x00000000        0x0 ./../build/opteemin-programmer-uart-stm32mp157c-ed1/bl2/io_fip.o
 .data          0x00000000        0x0 ./../build/opteemin-programmer-uart-stm32mp157c-ed1/bl2/io_fip.o
 .bss           0x00000000        0x0 ./../build/opteemin-programmer-uart-stm32mp157c-ed1/bl2/io_fip.o
 .text.fip_dev_get_plat_toc_flag
                0x00000000       0x1c ./../build/opteemin-programmer-uart-stm32mp157c-ed1/bl2/io_fip.o
 .text          0x00000000        0x0 ./../build/opteemin-programmer-uart-stm32mp157c-ed1/bl2/io_memmap.o
 .data          0x00000000        0x0 ./../build/opteemin-programmer-uart-stm32mp157c-ed1/bl2/io_memmap.o
 .bss           0x00000000        0x0 ./../build/opteemin-programmer-uart-stm32mp157c-ed1/bl2/io_memmap.o
 .text          0x00000000        0x0 ./../build/opteemin-programmer-uart-stm32mp157c-ed1/bl2/io_mtd.o
 .data          0x00000000        0x0 ./../build/opteemin-programmer-uart-stm32mp157c-ed1/bl2/io_mtd.o
 .bss           0x00000000        0x0 ./../build/opteemin-programmer-uart-stm32mp157c-ed1/bl2/io_mtd.o
 .text.device_type_mtd
                0x00000000        0x4 ./../build/opteemin-programmer-uart-stm32mp157c-ed1/bl2/io_mtd.o
 .text.mtd_close
                0x00000000        0x8 ./../build/opteemin-programmer-uart-stm32mp157c-ed1/bl2/io_mtd.o
 .rodata.mtd_read.str1.1
                0x00000000       0x14 ./../build/opteemin-programmer-uart-stm32mp157c-ed1/bl2/io_mtd.o
 .text.mtd_read
                0x00000000       0x84 ./../build/opteemin-programmer-uart-stm32mp157c-ed1/bl2/io_mtd.o
 .rodata.mtd_add_extra_offset.constprop.0.str1.1
                0x00000000       0x14 ./../build/opteemin-programmer-uart-stm32mp157c-ed1/bl2/io_mtd.o
 .text.mtd_add_extra_offset.constprop.0
                0x00000000       0x2c ./../build/opteemin-programmer-uart-stm32mp157c-ed1/bl2/io_mtd.o
 .text.mtd_open
                0x00000000       0x44 ./../build/opteemin-programmer-uart-stm32mp157c-ed1/bl2/io_mtd.o
 .text.mtd_seek
                0x00000000       0x84 ./../build/opteemin-programmer-uart-stm32mp157c-ed1/bl2/io_mtd.o
 .text.mtd_dev_close
                0x00000000       0x3c ./../build/opteemin-programmer-uart-stm32mp157c-ed1/bl2/io_mtd.o
 .text.mtd_dev_open
                0x00000000       0x4c ./../build/opteemin-programmer-uart-stm32mp157c-ed1/bl2/io_mtd.o
 .text.register_io_dev_mtd
                0x00000000       0x1c ./../build/opteemin-programmer-uart-stm32mp157c-ed1/bl2/io_mtd.o
 .rodata.__func__.0
                0x00000000       0x15 ./../build/opteemin-programmer-uart-stm32mp157c-ed1/bl2/io_mtd.o
 .bss.dev_info_pool
                0x00000000        0x8 ./../build/opteemin-programmer-uart-stm32mp157c-ed1/bl2/io_mtd.o
 .bss.state_pool
                0x00000000       0x20 ./../build/opteemin-programmer-uart-stm32mp157c-ed1/bl2/io_mtd.o
 .rodata.mtd_dev_funcs
                0x00000000       0x24 ./../build/opteemin-programmer-uart-stm32mp157c-ed1/bl2/io_mtd.o
 .rodata.mtd_dev_connector
                0x00000000        0x4 ./../build/opteemin-programmer-uart-stm32mp157c-ed1/bl2/io_mtd.o
 .debug_info    0x00000000      0xdcc ./../build/opteemin-programmer-uart-stm32mp157c-ed1/bl2/io_mtd.o
 .debug_abbrev  0x00000000      0x33a ./../build/opteemin-programmer-uart-stm32mp157c-ed1/bl2/io_mtd.o
 .debug_loc     0x00000000      0xa79 ./../build/opteemin-programmer-uart-stm32mp157c-ed1/bl2/io_mtd.o
 .debug_aranges
                0x00000000       0x60 ./../build/opteemin-programmer-uart-stm32mp157c-ed1/bl2/io_mtd.o
 .debug_ranges  0x00000000       0xb8 ./../build/opteemin-programmer-uart-stm32mp157c-ed1/bl2/io_mtd.o
 .debug_line    0x00000000      0x4f9 ./../build/opteemin-programmer-uart-stm32mp157c-ed1/bl2/io_mtd.o
 .debug_str     0x00000000      0x619 ./../build/opteemin-programmer-uart-stm32mp157c-ed1/bl2/io_mtd.o
 .comment       0x00000000       0x13 ./../build/opteemin-programmer-uart-stm32mp157c-ed1/bl2/io_mtd.o
 .note.GNU-stack
                0x00000000        0x0 ./../build/opteemin-programmer-uart-stm32mp157c-ed1/bl2/io_mtd.o
 .debug_frame   0x00000000       0xfc ./../build/opteemin-programmer-uart-stm32mp157c-ed1/bl2/io_mtd.o
 .ARM.attributes
                0x00000000       0x33 ./../build/opteemin-programmer-uart-stm32mp157c-ed1/bl2/io_mtd.o
 .text          0x00000000        0x0 ./../build/opteemin-programmer-uart-stm32mp157c-ed1/bl2/io_storage.o
 .data          0x00000000        0x0 ./../build/opteemin-programmer-uart-stm32mp157c-ed1/bl2/io_storage.o
 .bss           0x00000000        0x0 ./../build/opteemin-programmer-uart-stm32mp157c-ed1/bl2/io_storage.o
 .text.io_write
                0x00000000       0x48 ./../build/opteemin-programmer-uart-stm32mp157c-ed1/bl2/io_storage.o
 .text          0x00000000        0x0 ./../build/opteemin-programmer-uart-stm32mp157c-ed1/bl2/bsec2.o
 .data          0x00000000        0x0 ./../build/opteemin-programmer-uart-stm32mp157c-ed1/bl2/bsec2.o
 .bss           0x00000000        0x0 ./../build/opteemin-programmer-uart-stm32mp157c-ed1/bl2/bsec2.o
 .text.bsec_permanent_lock_otp
                0x00000000       0x98 ./../build/opteemin-programmer-uart-stm32mp157c-ed1/bl2/bsec2.o
 .text.bsec_write_scratch
                0x00000000        0xc ./../build/opteemin-programmer-uart-stm32mp157c-ed1/bl2/bsec2.o
 .text.bsec_set_sr_lock
                0x00000000       0x40 ./../build/opteemin-programmer-uart-stm32mp157c-ed1/bl2/bsec2.o
 .text.bsec_set_sw_lock
                0x00000000       0x40 ./../build/opteemin-programmer-uart-stm32mp157c-ed1/bl2/bsec2.o
 .text.bsec_set_sp_lock
                0x00000000       0x40 ./../build/opteemin-programmer-uart-stm32mp157c-ed1/bl2/bsec2.o
 .text.bsec_get_state
                0x00000000       0x18 ./../build/opteemin-programmer-uart-stm32mp157c-ed1/bl2/bsec2.o
 .text          0x00000000        0x0 ./../build/opteemin-programmer-uart-stm32mp157c-ed1/bl2/stm32mp1_clk.o
 .data          0x00000000        0x0 ./../build/opteemin-programmer-uart-stm32mp157c-ed1/bl2/stm32mp1_clk.o
 .bss           0x00000000        0x0 ./../build/opteemin-programmer-uart-stm32mp157c-ed1/bl2/stm32mp1_clk.o
 .text.clk_mux_get_parent
                0x00000000       0x3c ./../build/opteemin-programmer-uart-stm32mp157c-ed1/bl2/stm32mp1_clk.o
 .text.stm32mp1_rcc_is_secure
                0x00000000        0xe ./../build/opteemin-programmer-uart-stm32mp157c-ed1/bl2/stm32mp1_clk.o
 .text.stm32mp1_rcc_is_mckprot
                0x00000000       0x14 ./../build/opteemin-programmer-uart-stm32mp157c-ed1/bl2/stm32mp1_clk.o
 .text.stm32mp1_clk_mcuss_protect
                0x00000000       0x1a ./../build/opteemin-programmer-uart-stm32mp157c-ed1/bl2/stm32mp1_clk.o
 .text          0x00000000        0x0 ./../build/opteemin-programmer-uart-stm32mp157c-ed1/bl2/stm32mp_clkfunc.o
 .data          0x00000000        0x0 ./../build/opteemin-programmer-uart-stm32mp157c-ed1/bl2/stm32mp_clkfunc.o
 .bss           0x00000000        0x0 ./../build/opteemin-programmer-uart-stm32mp157c-ed1/bl2/stm32mp_clkfunc.o
 .rodata.fdt_get_rcc_node.str1.1
                0x00000000       0x10 ./../build/opteemin-programmer-uart-stm32mp157c-ed1/bl2/stm32mp_clkfunc.o
 .text.fdt_get_rcc_node
                0x00000000       0x24 ./../build/opteemin-programmer-uart-stm32mp157c-ed1/bl2/stm32mp_clkfunc.o
 .text.fdt_rcc_read_uint32_array
                0x00000000       0x36 ./../build/opteemin-programmer-uart-stm32mp157c-ed1/bl2/stm32mp_clkfunc.o
 .text.fdt_rcc_subnode_offset
                0x00000000       0x32 ./../build/opteemin-programmer-uart-stm32mp157c-ed1/bl2/stm32mp_clkfunc.o
 .text.fdt_rcc_read_prop
                0x00000000       0x32 ./../build/opteemin-programmer-uart-stm32mp157c-ed1/bl2/stm32mp_clkfunc.o
 .bss.node.0    0x00000000        0x4 ./../build/opteemin-programmer-uart-stm32mp157c-ed1/bl2/stm32mp_clkfunc.o
 .text          0x00000000        0x0 ./../build/opteemin-programmer-uart-stm32mp157c-ed1/bl2/stm32_hash.o
 .data          0x00000000        0x0 ./../build/opteemin-programmer-uart-stm32mp157c-ed1/bl2/stm32_hash.o
 .bss           0x00000000        0x0 ./../build/opteemin-programmer-uart-stm32mp157c-ed1/bl2/stm32_hash.o
 .rodata.hash_write_data.str1.1
                0x00000000       0x13 ./../build/opteemin-programmer-uart-stm32mp157c-ed1/bl2/stm32_hash.o
 .text.hash_write_data
                0x00000000       0x64 ./../build/opteemin-programmer-uart-stm32mp157c-ed1/bl2/stm32_hash.o
 .rodata.stm32_hash_update.str1.1
                0x00000000       0x1f ./../build/opteemin-programmer-uart-stm32mp157c-ed1/bl2/stm32_hash.o
 .text.stm32_hash_update
                0x00000000       0xb8 ./../build/opteemin-programmer-uart-stm32mp157c-ed1/bl2/stm32_hash.o
 .text.stm32_hash_final
                0x00000000       0xfc ./../build/opteemin-programmer-uart-stm32mp157c-ed1/bl2/stm32_hash.o
 .text.stm32_hash_final_update
                0x00000000       0x16 ./../build/opteemin-programmer-uart-stm32mp157c-ed1/bl2/stm32_hash.o
 .rodata.stm32_hash_init.str1.1
                0x00000000       0x1b ./../build/opteemin-programmer-uart-stm32mp157c-ed1/bl2/stm32_hash.o
 .text.stm32_hash_init
                0x00000000       0x70 ./../build/opteemin-programmer-uart-stm32mp157c-ed1/bl2/stm32_hash.o
 .rodata.stm32_hash_register.str1.1
                0x00000000       0x12 ./../build/opteemin-programmer-uart-stm32mp157c-ed1/bl2/stm32_hash.o
 .text.stm32_hash_register
                0x00000000       0x8c ./../build/opteemin-programmer-uart-stm32mp157c-ed1/bl2/stm32_hash.o
 .rodata.__func__.0
                0x00000000       0x10 ./../build/opteemin-programmer-uart-stm32mp157c-ed1/bl2/stm32_hash.o
 .rodata.__func__.1
                0x00000000       0x16 ./../build/opteemin-programmer-uart-stm32mp157c-ed1/bl2/stm32_hash.o
 .rodata.__func__.2
                0x00000000        0xf ./../build/opteemin-programmer-uart-stm32mp157c-ed1/bl2/stm32_hash.o
 .bss.stm32_remain
                0x00000000        0x8 ./../build/opteemin-programmer-uart-stm32mp157c-ed1/bl2/stm32_hash.o
 .bss.stm32_hash
                0x00000000        0xc ./../build/opteemin-programmer-uart-stm32mp157c-ed1/bl2/stm32_hash.o
 .debug_info    0x00000000     0x1241 ./../build/opteemin-programmer-uart-stm32mp157c-ed1/bl2/stm32_hash.o
 .debug_abbrev  0x00000000      0x469 ./../build/opteemin-programmer-uart-stm32mp157c-ed1/bl2/stm32_hash.o
 .debug_loc     0x00000000      0xbad ./../build/opteemin-programmer-uart-stm32mp157c-ed1/bl2/stm32_hash.o
 .debug_aranges
                0x00000000       0x48 ./../build/opteemin-programmer-uart-stm32mp157c-ed1/bl2/stm32_hash.o
 .debug_ranges  0x00000000      0x2a0 ./../build/opteemin-programmer-uart-stm32mp157c-ed1/bl2/stm32_hash.o
 .debug_line    0x00000000      0x8d1 ./../build/opteemin-programmer-uart-stm32mp157c-ed1/bl2/stm32_hash.o
 .debug_str     0x00000000      0x60b ./../build/opteemin-programmer-uart-stm32mp157c-ed1/bl2/stm32_hash.o
 .comment       0x00000000       0x13 ./../build/opteemin-programmer-uart-stm32mp157c-ed1/bl2/stm32_hash.o
 .note.GNU-stack
                0x00000000        0x0 ./../build/opteemin-programmer-uart-stm32mp157c-ed1/bl2/stm32_hash.o
 .debug_frame   0x00000000       0xf0 ./../build/opteemin-programmer-uart-stm32mp157c-ed1/bl2/stm32_hash.o
 .ARM.attributes
                0x00000000       0x33 ./../build/opteemin-programmer-uart-stm32mp157c-ed1/bl2/stm32_hash.o
 .text          0x00000000        0x0 ./../build/opteemin-programmer-uart-stm32mp157c-ed1/bl2/stm32mp1_ddr.o
 .data          0x00000000        0x0 ./../build/opteemin-programmer-uart-stm32mp157c-ed1/bl2/stm32mp1_ddr.o
 .bss           0x00000000        0x0 ./../build/opteemin-programmer-uart-stm32mp157c-ed1/bl2/stm32mp1_ddr.o
 .text          0x00000000        0x0 ./../build/opteemin-programmer-uart-stm32mp157c-ed1/bl2/stm32mp1_ddr_helpers.o
 .data          0x00000000        0x0 ./../build/opteemin-programmer-uart-stm32mp157c-ed1/bl2/stm32mp1_ddr_helpers.o
 .bss           0x00000000        0x0 ./../build/opteemin-programmer-uart-stm32mp157c-ed1/bl2/stm32mp1_ddr_helpers.o
 .text          0x00000000        0x0 ./../build/opteemin-programmer-uart-stm32mp157c-ed1/bl2/stm32mp1_ram.o
 .data          0x00000000        0x0 ./../build/opteemin-programmer-uart-stm32mp157c-ed1/bl2/stm32mp1_ram.o
 .bss           0x00000000        0x0 ./../build/opteemin-programmer-uart-stm32mp157c-ed1/bl2/stm32mp1_ram.o
 .text          0x00000000        0x0 ./../build/opteemin-programmer-uart-stm32mp157c-ed1/bl2/stm32mp_ddr.o
 .data          0x00000000        0x0 ./../build/opteemin-programmer-uart-stm32mp157c-ed1/bl2/stm32mp_ddr.o
 .bss           0x00000000        0x0 ./../build/opteemin-programmer-uart-stm32mp157c-ed1/bl2/stm32mp_ddr.o
 .text          0x00000000        0x0 ./../build/opteemin-programmer-uart-stm32mp157c-ed1/bl2/stm32mp_ddr_test.o
 .data          0x00000000        0x0 ./../build/opteemin-programmer-uart-stm32mp157c-ed1/bl2/stm32mp_ddr_test.o
 .bss           0x00000000        0x0 ./../build/opteemin-programmer-uart-stm32mp157c-ed1/bl2/stm32mp_ddr_test.o
 .text          0x00000000        0x0 ./../build/opteemin-programmer-uart-stm32mp157c-ed1/bl2/stm32mp_ram.o
 .data          0x00000000        0x0 ./../build/opteemin-programmer-uart-stm32mp157c-ed1/bl2/stm32mp_ram.o
 .bss           0x00000000        0x0 ./../build/opteemin-programmer-uart-stm32mp157c-ed1/bl2/stm32mp_ram.o
 .text          0x00000000        0x0 ./../build/opteemin-programmer-uart-stm32mp157c-ed1/bl2/stm32_gpio.o
 .data          0x00000000        0x0 ./../build/opteemin-programmer-uart-stm32mp157c-ed1/bl2/stm32_gpio.o
 .bss           0x00000000        0x0 ./../build/opteemin-programmer-uart-stm32mp157c-ed1/bl2/stm32_gpio.o
 .text.set_gpio_secure_cfg
                0x00000000       0x4c ./../build/opteemin-programmer-uart-stm32mp157c-ed1/bl2/stm32_gpio.o
 .text.set_gpio_reset_cfg
                0x00000000       0x2e ./../build/opteemin-programmer-uart-stm32mp157c-ed1/bl2/stm32_gpio.o
 .text.set_gpio_level
                0x00000000       0x48 ./../build/opteemin-programmer-uart-stm32mp157c-ed1/bl2/stm32_gpio.o
 .text.get_gpio_level
                0x00000000       0x40 ./../build/opteemin-programmer-uart-stm32mp157c-ed1/bl2/stm32_gpio.o
 .text.set_gpio_config
                0x00000000       0x30 ./../build/opteemin-programmer-uart-stm32mp157c-ed1/bl2/stm32_gpio.o
 .text          0x00000000        0x0 ./../build/opteemin-programmer-uart-stm32mp157c-ed1/bl2/stm32_i2c.o
 .data          0x00000000        0x0 ./../build/opteemin-programmer-uart-stm32mp157c-ed1/bl2/stm32_i2c.o
 .bss           0x00000000        0x0 ./../build/opteemin-programmer-uart-stm32mp157c-ed1/bl2/stm32_i2c.o
 .text.stm32_i2c_master_transmit
                0x00000000       0x18 ./../build/opteemin-programmer-uart-stm32mp157c-ed1/bl2/stm32_i2c.o
 .text.stm32_i2c_master_receive
                0x00000000       0x14 ./../build/opteemin-programmer-uart-stm32mp157c-ed1/bl2/stm32_i2c.o
 .text          0x00000000        0x0 ./../build/opteemin-programmer-uart-stm32mp157c-ed1/bl2/stm32_iwdg.o
 .data          0x00000000        0x0 ./../build/opteemin-programmer-uart-stm32mp157c-ed1/bl2/stm32_iwdg.o
 .bss           0x00000000        0x0 ./../build/opteemin-programmer-uart-stm32mp157c-ed1/bl2/stm32_iwdg.o
 .text          0x00000000        0x0 ./../build/opteemin-programmer-uart-stm32mp157c-ed1/bl2/nvmem.o
 .data          0x00000000        0x0 ./../build/opteemin-programmer-uart-stm32mp157c-ed1/bl2/nvmem.o
 .bss           0x00000000        0x0 ./../build/opteemin-programmer-uart-stm32mp157c-ed1/bl2/nvmem.o
 .text          0x00000000        0x0 ./../build/opteemin-programmer-uart-stm32mp157c-ed1/bl2/stm32mp_tamp_nvram_core.o
 .data          0x00000000        0x0 ./../build/opteemin-programmer-uart-stm32mp157c-ed1/bl2/stm32mp_tamp_nvram_core.o
 .bss           0x00000000        0x0 ./../build/opteemin-programmer-uart-stm32mp157c-ed1/bl2/stm32mp_tamp_nvram_core.o
 .text.stm32_tamp_nvram_reg_field_write
                0x00000000       0x72 ./../build/opteemin-programmer-uart-stm32mp157c-ed1/bl2/stm32mp_tamp_nvram_core.o
 .text          0x00000000        0x0 ./../build/opteemin-programmer-uart-stm32mp157c-ed1/bl2/stm32mp_tamp_nvram_mp1.o
 .data          0x00000000        0x0 ./../build/opteemin-programmer-uart-stm32mp157c-ed1/bl2/stm32mp_tamp_nvram_mp1.o
 .bss           0x00000000        0x0 ./../build/opteemin-programmer-uart-stm32mp157c-ed1/bl2/stm32mp_tamp_nvram_mp1.o
 .text          0x00000000        0x0 ./../build/opteemin-programmer-uart-stm32mp157c-ed1/bl2/stm32mp_pmic.o
 .data          0x00000000        0x0 ./../build/opteemin-programmer-uart-stm32mp157c-ed1/bl2/stm32mp_pmic.o
 .bss           0x00000000        0x0 ./../build/opteemin-programmer-uart-stm32mp157c-ed1/bl2/stm32mp_pmic.o
 .text          0x00000000        0x0 ./../build/opteemin-programmer-uart-stm32mp157c-ed1/bl2/stpmic1.o
 .data          0x00000000        0x0 ./../build/opteemin-programmer-uart-stm32mp157c-ed1/bl2/stpmic1.o
 .bss           0x00000000        0x0 ./../build/opteemin-programmer-uart-stm32mp157c-ed1/bl2/stpmic1.o
 .text.stpmic1_dump_regulators
                0x00000000        0x2 ./../build/opteemin-programmer-uart-stm32mp157c-ed1/bl2/stpmic1.o
 .text          0x00000000        0x0 ./../build/opteemin-programmer-uart-stm32mp157c-ed1/bl2/regulator_core.o
 .data          0x00000000        0x0 ./../build/opteemin-programmer-uart-stm32mp157c-ed1/bl2/regulator_core.o
 .bss           0x00000000        0x0 ./../build/opteemin-programmer-uart-stm32mp157c-ed1/bl2/regulator_core.o
 .text.regulator_get_by_name
                0x00000000       0x48 ./../build/opteemin-programmer-uart-stm32mp157c-ed1/bl2/regulator_core.o
 .text.regulator_disable
                0x00000000       0x3c ./../build/opteemin-programmer-uart-stm32mp157c-ed1/bl2/regulator_core.o
 .rodata.regulator_is_enabled.str1.1
                0x00000000       0x24 ./../build/opteemin-programmer-uart-stm32mp157c-ed1/bl2/regulator_core.o
 .text.regulator_is_enabled
                0x00000000       0x4c ./../build/opteemin-programmer-uart-stm32mp157c-ed1/bl2/regulator_core.o
 .rodata.regulator_set_flag.str1.1
                0x00000000       0x3d ./../build/opteemin-programmer-uart-stm32mp157c-ed1/bl2/regulator_core.o
 .text.regulator_set_flag
                0x00000000       0x78 ./../build/opteemin-programmer-uart-stm32mp157c-ed1/bl2/regulator_core.o
 .rodata.__func__.1
                0x00000000       0x16 ./../build/opteemin-programmer-uart-stm32mp157c-ed1/bl2/regulator_core.o
 .text          0x00000000        0x0 ./../build/opteemin-programmer-uart-stm32mp157c-ed1/bl2/regulator_fixed.o
 .data          0x00000000        0x0 ./../build/opteemin-programmer-uart-stm32mp157c-ed1/bl2/regulator_fixed.o
 .bss           0x00000000        0x0 ./../build/opteemin-programmer-uart-stm32mp157c-ed1/bl2/regulator_fixed.o
 .text          0x00000000        0x0 ./../build/opteemin-programmer-uart-stm32mp157c-ed1/bl2/regulator_gpio.o
 .data          0x00000000        0x0 ./../build/opteemin-programmer-uart-stm32mp157c-ed1/bl2/regulator_gpio.o
 .bss           0x00000000        0x0 ./../build/opteemin-programmer-uart-stm32mp157c-ed1/bl2/regulator_gpio.o
 .rodata.gpio_regulator_register.str1.1
                0x00000000       0x63 ./../build/opteemin-programmer-uart-stm32mp157c-ed1/bl2/regulator_gpio.o
 .text.gpio_regulator_register
                0x00000000       0x44 ./../build/opteemin-programmer-uart-stm32mp157c-ed1/bl2/regulator_gpio.o
 .debug_info    0x00000000      0x6dd ./../build/opteemin-programmer-uart-stm32mp157c-ed1/bl2/regulator_gpio.o
 .debug_abbrev  0x00000000      0x21f ./../build/opteemin-programmer-uart-stm32mp157c-ed1/bl2/regulator_gpio.o
 .debug_loc     0x00000000       0x58 ./../build/opteemin-programmer-uart-stm32mp157c-ed1/bl2/regulator_gpio.o
 .debug_aranges
                0x00000000       0x20 ./../build/opteemin-programmer-uart-stm32mp157c-ed1/bl2/regulator_gpio.o
 .debug_ranges  0x00000000       0x10 ./../build/opteemin-programmer-uart-stm32mp157c-ed1/bl2/regulator_gpio.o
 .debug_line    0x00000000      0x1d8 ./../build/opteemin-programmer-uart-stm32mp157c-ed1/bl2/regulator_gpio.o
 .debug_str     0x00000000      0x4da ./../build/opteemin-programmer-uart-stm32mp157c-ed1/bl2/regulator_gpio.o
 .comment       0x00000000       0x13 ./../build/opteemin-programmer-uart-stm32mp157c-ed1/bl2/regulator_gpio.o
 .note.GNU-stack
                0x00000000        0x0 ./../build/opteemin-programmer-uart-stm32mp157c-ed1/bl2/regulator_gpio.o
 .debug_frame   0x00000000       0x2c ./../build/opteemin-programmer-uart-stm32mp157c-ed1/bl2/regulator_gpio.o
 .ARM.attributes
                0x00000000       0x33 ./../build/opteemin-programmer-uart-stm32mp157c-ed1/bl2/regulator_gpio.o
 .text          0x00000000        0x0 ./../build/opteemin-programmer-uart-stm32mp157c-ed1/bl2/stm32mp1_reset.o
 .data          0x00000000        0x0 ./../build/opteemin-programmer-uart-stm32mp157c-ed1/bl2/stm32mp1_reset.o
 .bss           0x00000000        0x0 ./../build/opteemin-programmer-uart-stm32mp157c-ed1/bl2/stm32mp1_reset.o
 .text          0x00000000        0x0 ./../build/opteemin-programmer-uart-stm32mp157c-ed1/bl2/stm32_uart.o
 .data          0x00000000        0x0 ./../build/opteemin-programmer-uart-stm32mp157c-ed1/bl2/stm32_uart.o
 .bss           0x00000000        0x0 ./../build/opteemin-programmer-uart-stm32mp157c-ed1/bl2/stm32_uart.o
 .text          0x00000000        0x0 ./../build/opteemin-programmer-uart-stm32mp157c-ed1/bl2/ctzdi2.o
 .data          0x00000000        0x0 ./../build/opteemin-programmer-uart-stm32mp157c-ed1/bl2/ctzdi2.o
 .bss           0x00000000        0x0 ./../build/opteemin-programmer-uart-stm32mp157c-ed1/bl2/ctzdi2.o
 .text          0x00000000        0x0 ./../build/opteemin-programmer-uart-stm32mp157c-ed1/bl2/divdi3.o
 .data          0x00000000        0x0 ./../build/opteemin-programmer-uart-stm32mp157c-ed1/bl2/divdi3.o
 .bss           0x00000000        0x0 ./../build/opteemin-programmer-uart-stm32mp157c-ed1/bl2/divdi3.o
 .text.__divdi3
                0x00000000       0x3e ./../build/opteemin-programmer-uart-stm32mp157c-ed1/bl2/divdi3.o
 .debug_info    0x00000000      0x1f2 ./../build/opteemin-programmer-uart-stm32mp157c-ed1/bl2/divdi3.o
 .debug_abbrev  0x00000000      0x124 ./../build/opteemin-programmer-uart-stm32mp157c-ed1/bl2/divdi3.o
 .debug_loc     0x00000000       0xd2 ./../build/opteemin-programmer-uart-stm32mp157c-ed1/bl2/divdi3.o
 .debug_aranges
                0x00000000       0x20 ./../build/opteemin-programmer-uart-stm32mp157c-ed1/bl2/divdi3.o
 .debug_ranges  0x00000000       0x28 ./../build/opteemin-programmer-uart-stm32mp157c-ed1/bl2/divdi3.o
 .debug_line    0x00000000      0x10e ./../build/opteemin-programmer-uart-stm32mp157c-ed1/bl2/divdi3.o
 .debug_str     0x00000000      0x242 ./../build/opteemin-programmer-uart-stm32mp157c-ed1/bl2/divdi3.o
 .comment       0x00000000       0x13 ./../build/opteemin-programmer-uart-stm32mp157c-ed1/bl2/divdi3.o
 .note.GNU-stack
                0x00000000        0x0 ./../build/opteemin-programmer-uart-stm32mp157c-ed1/bl2/divdi3.o
 .debug_frame   0x00000000       0x30 ./../build/opteemin-programmer-uart-stm32mp157c-ed1/bl2/divdi3.o
 .ARM.attributes
                0x00000000       0x33 ./../build/opteemin-programmer-uart-stm32mp157c-ed1/bl2/divdi3.o
 .text          0x00000000        0x0 ./../build/opteemin-programmer-uart-stm32mp157c-ed1/bl2/divmoddi4.o
 .data          0x00000000        0x0 ./../build/opteemin-programmer-uart-stm32mp157c-ed1/bl2/divmoddi4.o
 .bss           0x00000000        0x0 ./../build/opteemin-programmer-uart-stm32mp157c-ed1/bl2/divmoddi4.o
 .text.__divmoddi4
                0x00000000       0x54 ./../build/opteemin-programmer-uart-stm32mp157c-ed1/bl2/divmoddi4.o
 .debug_info    0x00000000      0x19b ./../build/opteemin-programmer-uart-stm32mp157c-ed1/bl2/divmoddi4.o
 .debug_abbrev  0x00000000      0x106 ./../build/opteemin-programmer-uart-stm32mp157c-ed1/bl2/divmoddi4.o
 .debug_loc     0x00000000       0x8c ./../build/opteemin-programmer-uart-stm32mp157c-ed1/bl2/divmoddi4.o
 .debug_aranges
                0x00000000       0x20 ./../build/opteemin-programmer-uart-stm32mp157c-ed1/bl2/divmoddi4.o
 .debug_ranges  0x00000000       0x10 ./../build/opteemin-programmer-uart-stm32mp157c-ed1/bl2/divmoddi4.o
 .debug_line    0x00000000      0x10b ./../build/opteemin-programmer-uart-stm32mp157c-ed1/bl2/divmoddi4.o
 .debug_str     0x00000000      0x250 ./../build/opteemin-programmer-uart-stm32mp157c-ed1/bl2/divmoddi4.o
 .comment       0x00000000       0x13 ./../build/opteemin-programmer-uart-stm32mp157c-ed1/bl2/divmoddi4.o
 .note.GNU-stack
                0x00000000        0x0 ./../build/opteemin-programmer-uart-stm32mp157c-ed1/bl2/divmoddi4.o
 .debug_frame   0x00000000       0x34 ./../build/opteemin-programmer-uart-stm32mp157c-ed1/bl2/divmoddi4.o
 .ARM.attributes
                0x00000000       0x33 ./../build/opteemin-programmer-uart-stm32mp157c-ed1/bl2/divmoddi4.o
 .text          0x00000000        0x0 ./../build/opteemin-programmer-uart-stm32mp157c-ed1/bl2/lshrdi3.o
 .data          0x00000000        0x0 ./../build/opteemin-programmer-uart-stm32mp157c-ed1/bl2/lshrdi3.o
 .bss           0x00000000        0x0 ./../build/opteemin-programmer-uart-stm32mp157c-ed1/bl2/lshrdi3.o
 .text.__lshrdi3
                0x00000000       0x26 ./../build/opteemin-programmer-uart-stm32mp157c-ed1/bl2/lshrdi3.o
 .debug_info    0x00000000      0x18c ./../build/opteemin-programmer-uart-stm32mp157c-ed1/bl2/lshrdi3.o
 .debug_abbrev  0x00000000       0xdf ./../build/opteemin-programmer-uart-stm32mp157c-ed1/bl2/lshrdi3.o
 .debug_loc     0x00000000       0x97 ./../build/opteemin-programmer-uart-stm32mp157c-ed1/bl2/lshrdi3.o
 .debug_aranges
                0x00000000       0x20 ./../build/opteemin-programmer-uart-stm32mp157c-ed1/bl2/lshrdi3.o
 .debug_ranges  0x00000000       0x10 ./../build/opteemin-programmer-uart-stm32mp157c-ed1/bl2/lshrdi3.o
 .debug_line    0x00000000       0xf2 ./../build/opteemin-programmer-uart-stm32mp157c-ed1/bl2/lshrdi3.o
 .debug_str     0x00000000      0x265 ./../build/opteemin-programmer-uart-stm32mp157c-ed1/bl2/lshrdi3.o
 .comment       0x00000000       0x13 ./../build/opteemin-programmer-uart-stm32mp157c-ed1/bl2/lshrdi3.o
 .note.GNU-stack
                0x00000000        0x0 ./../build/opteemin-programmer-uart-stm32mp157c-ed1/bl2/lshrdi3.o
 .debug_frame   0x00000000       0x28 ./../build/opteemin-programmer-uart-stm32mp157c-ed1/bl2/lshrdi3.o
 .ARM.attributes
                0x00000000       0x33 ./../build/opteemin-programmer-uart-stm32mp157c-ed1/bl2/lshrdi3.o
 .text          0x00000000        0x0 ./../build/opteemin-programmer-uart-stm32mp157c-ed1/bl2/popcountdi2.o
 .data          0x00000000        0x0 ./../build/opteemin-programmer-uart-stm32mp157c-ed1/bl2/popcountdi2.o
 .bss           0x00000000        0x0 ./../build/opteemin-programmer-uart-stm32mp157c-ed1/bl2/popcountdi2.o
 .text.__popcountdi2
                0x00000000       0x52 ./../build/opteemin-programmer-uart-stm32mp157c-ed1/bl2/popcountdi2.o
 .debug_info    0x00000000      0x125 ./../build/opteemin-programmer-uart-stm32mp157c-ed1/bl2/popcountdi2.o
 .debug_abbrev  0x00000000       0x7d ./../build/opteemin-programmer-uart-stm32mp157c-ed1/bl2/popcountdi2.o
 .debug_loc     0x00000000       0xa3 ./../build/opteemin-programmer-uart-stm32mp157c-ed1/bl2/popcountdi2.o
 .debug_aranges
                0x00000000       0x20 ./../build/opteemin-programmer-uart-stm32mp157c-ed1/bl2/popcountdi2.o
 .debug_ranges  0x00000000       0x10 ./../build/opteemin-programmer-uart-stm32mp157c-ed1/bl2/popcountdi2.o
 .debug_line    0x00000000      0x109 ./../build/opteemin-programmer-uart-stm32mp157c-ed1/bl2/popcountdi2.o
 .debug_str     0x00000000      0x246 ./../build/opteemin-programmer-uart-stm32mp157c-ed1/bl2/popcountdi2.o
 .comment       0x00000000       0x13 ./../build/opteemin-programmer-uart-stm32mp157c-ed1/bl2/popcountdi2.o
 .note.GNU-stack
                0x00000000        0x0 ./../build/opteemin-programmer-uart-stm32mp157c-ed1/bl2/popcountdi2.o
 .debug_frame   0x00000000       0x20 ./../build/opteemin-programmer-uart-stm32mp157c-ed1/bl2/popcountdi2.o
 .ARM.attributes
                0x00000000       0x33 ./../build/opteemin-programmer-uart-stm32mp157c-ed1/bl2/popcountdi2.o
 .text          0x00000000        0x0 ./../build/opteemin-programmer-uart-stm32mp157c-ed1/bl2/popcountsi2.o
 .data          0x00000000        0x0 ./../build/opteemin-programmer-uart-stm32mp157c-ed1/bl2/popcountsi2.o
 .bss           0x00000000        0x0 ./../build/opteemin-programmer-uart-stm32mp157c-ed1/bl2/popcountsi2.o
 .text.__popcountsi2
                0x00000000       0x2a ./../build/opteemin-programmer-uart-stm32mp157c-ed1/bl2/popcountsi2.o
 .debug_info    0x00000000       0xfa ./../build/opteemin-programmer-uart-stm32mp157c-ed1/bl2/popcountsi2.o
 .debug_abbrev  0x00000000       0x7d ./../build/opteemin-programmer-uart-stm32mp157c-ed1/bl2/popcountsi2.o
 .debug_loc     0x00000000      0x17c ./../build/opteemin-programmer-uart-stm32mp157c-ed1/bl2/popcountsi2.o
 .debug_aranges
                0x00000000       0x20 ./../build/opteemin-programmer-uart-stm32mp157c-ed1/bl2/popcountsi2.o
 .debug_ranges  0x00000000       0x10 ./../build/opteemin-programmer-uart-stm32mp157c-ed1/bl2/popcountsi2.o
 .debug_line    0x00000000       0xc1 ./../build/opteemin-programmer-uart-stm32mp157c-ed1/bl2/popcountsi2.o
 .debug_str     0x00000000      0x236 ./../build/opteemin-programmer-uart-stm32mp157c-ed1/bl2/popcountsi2.o
 .comment       0x00000000       0x13 ./../build/opteemin-programmer-uart-stm32mp157c-ed1/bl2/popcountsi2.o
 .note.GNU-stack
                0x00000000        0x0 ./../build/opteemin-programmer-uart-stm32mp157c-ed1/bl2/popcountsi2.o
 .debug_frame   0x00000000       0x20 ./../build/opteemin-programmer-uart-stm32mp157c-ed1/bl2/popcountsi2.o
 .ARM.attributes
                0x00000000       0x33 ./../build/opteemin-programmer-uart-stm32mp157c-ed1/bl2/popcountsi2.o
 .text          0x00000000        0x0 ./../build/opteemin-programmer-uart-stm32mp157c-ed1/bl2/udivmoddi4.o
 .data          0x00000000        0x0 ./../build/opteemin-programmer-uart-stm32mp157c-ed1/bl2/udivmoddi4.o
 .bss           0x00000000        0x0 ./../build/opteemin-programmer-uart-stm32mp157c-ed1/bl2/udivmoddi4.o
 .text          0x00000000        0x0 ./../build/opteemin-programmer-uart-stm32mp157c-ed1/bl2/pmuv3.o
 .data          0x00000000        0x0 ./../build/opteemin-programmer-uart-stm32mp157c-ed1/bl2/pmuv3.o
 .bss           0x00000000        0x0 ./../build/opteemin-programmer-uart-stm32mp157c-ed1/bl2/pmuv3.o
 .text.pmuv3_init_el3
                0x00000000       0x1e ./../build/opteemin-programmer-uart-stm32mp157c-ed1/bl2/pmuv3.o
 .debug_info    0x00000000      0x1e9 ./../build/opteemin-programmer-uart-stm32mp157c-ed1/bl2/pmuv3.o
 .debug_abbrev  0x00000000      0x14f ./../build/opteemin-programmer-uart-stm32mp157c-ed1/bl2/pmuv3.o
 .debug_loc     0x00000000       0xba ./../build/opteemin-programmer-uart-stm32mp157c-ed1/bl2/pmuv3.o
 .debug_aranges
                0x00000000       0x20 ./../build/opteemin-programmer-uart-stm32mp157c-ed1/bl2/pmuv3.o
 .debug_ranges  0x00000000       0x40 ./../build/opteemin-programmer-uart-stm32mp157c-ed1/bl2/pmuv3.o
 .debug_line    0x00000000      0x11b ./../build/opteemin-programmer-uart-stm32mp157c-ed1/bl2/pmuv3.o
 .debug_str     0x00000000      0x24f ./../build/opteemin-programmer-uart-stm32mp157c-ed1/bl2/pmuv3.o
 .comment       0x00000000       0x13 ./../build/opteemin-programmer-uart-stm32mp157c-ed1/bl2/pmuv3.o
 .note.GNU-stack
                0x00000000        0x0 ./../build/opteemin-programmer-uart-stm32mp157c-ed1/bl2/pmuv3.o
 .debug_frame   0x00000000       0x20 ./../build/opteemin-programmer-uart-stm32mp157c-ed1/bl2/pmuv3.o
 .ARM.attributes
                0x00000000       0x33 ./../build/opteemin-programmer-uart-stm32mp157c-ed1/bl2/pmuv3.o
 .text          0x00000000        0x0 ./../build/opteemin-programmer-uart-stm32mp157c-ed1/bl2/fconf.o
 .data          0x00000000        0x0 ./../build/opteemin-programmer-uart-stm32mp157c-ed1/bl2/fconf.o
 .bss           0x00000000        0x0 ./../build/opteemin-programmer-uart-stm32mp157c-ed1/bl2/fconf.o
 .text.fconf_load_config
                0x00000000       0x60 ./../build/opteemin-programmer-uart-stm32mp157c-ed1/bl2/fconf.o
 .text          0x00000000        0x0 ./../build/opteemin-programmer-uart-stm32mp157c-ed1/bl2/fconf_dyn_cfg_getter.o
 .data          0x00000000        0x0 ./../build/opteemin-programmer-uart-stm32mp157c-ed1/bl2/fconf_dyn_cfg_getter.o
 .bss           0x00000000        0x0 ./../build/opteemin-programmer-uart-stm32mp157c-ed1/bl2/fconf_dyn_cfg_getter.o
 .text          0x00000000        0x0 ./../build/opteemin-programmer-uart-stm32mp157c-ed1/bl2/optee_utils.o
 .data          0x00000000        0x0 ./../build/opteemin-programmer-uart-stm32mp157c-ed1/bl2/optee_utils.o
 .bss           0x00000000        0x0 ./../build/opteemin-programmer-uart-stm32mp157c-ed1/bl2/optee_utils.o
 .text          0x00000000        0x0 ./../build/opteemin-programmer-uart-stm32mp157c-ed1/bl2/xlat_tables_arch.o
 .data          0x00000000        0x0 ./../build/opteemin-programmer-uart-stm32mp157c-ed1/bl2/xlat_tables_arch.o
 .bss           0x00000000        0x0 ./../build/opteemin-programmer-uart-stm32mp157c-ed1/bl2/xlat_tables_arch.o
 .text.xlat_arch_is_granule_size_supported
                0x00000000        0xa ./../build/opteemin-programmer-uart-stm32mp157c-ed1/bl2/xlat_tables_arch.o
 .text.xlat_arch_get_max_supported_granule_size
                0x00000000        0x6 ./../build/opteemin-programmer-uart-stm32mp157c-ed1/bl2/xlat_tables_arch.o
 .text          0x00000000        0x0 ./../build/opteemin-programmer-uart-stm32mp157c-ed1/bl2/xlat_tables_context.o
 .data          0x00000000        0x0 ./../build/opteemin-programmer-uart-stm32mp157c-ed1/bl2/xlat_tables_context.o
 .bss           0x00000000        0x0 ./../build/opteemin-programmer-uart-stm32mp157c-ed1/bl2/xlat_tables_context.o
 .text.mmap_add_region_alloc_va
                0x00000000       0x30 ./../build/opteemin-programmer-uart-stm32mp157c-ed1/bl2/xlat_tables_context.o
 .text.mmap_add_alloc_va
                0x00000000       0x2c ./../build/opteemin-programmer-uart-stm32mp157c-ed1/bl2/xlat_tables_context.o
 .text.mmap_add_dynamic_region_alloc_va
                0x00000000       0x30 ./../build/opteemin-programmer-uart-stm32mp157c-ed1/bl2/xlat_tables_context.o
 .text.xlat_get_mem_attributes
                0x00000000       0x10 ./../build/opteemin-programmer-uart-stm32mp157c-ed1/bl2/xlat_tables_context.o
 .text.xlat_change_mem_attributes
                0x00000000       0x10 ./../build/opteemin-programmer-uart-stm32mp157c-ed1/bl2/xlat_tables_context.o
 .text.enable_mmu_hyp
                0x00000000       0x34 ./../build/opteemin-programmer-uart-stm32mp157c-ed1/bl2/xlat_tables_context.o
 .text          0x00000000        0x0 ./../build/opteemin-programmer-uart-stm32mp157c-ed1/bl2/xlat_tables_core.o
 .data          0x00000000        0x0 ./../build/opteemin-programmer-uart-stm32mp157c-ed1/bl2/xlat_tables_core.o
 .bss           0x00000000        0x0 ./../build/opteemin-programmer-uart-stm32mp157c-ed1/bl2/xlat_tables_core.o
 .text.mmap_alloc_va_align_ctx.isra.0
                0x00000000       0x32 ./../build/opteemin-programmer-uart-stm32mp157c-ed1/bl2/xlat_tables_core.o
 .text.mmap_add_region_alloc_va_ctx
                0x00000000       0x38 ./../build/opteemin-programmer-uart-stm32mp157c-ed1/bl2/xlat_tables_core.o
 .text.mmap_add_dynamic_region_alloc_va_ctx
                0x00000000       0x2a ./../build/opteemin-programmer-uart-stm32mp157c-ed1/bl2/xlat_tables_core.o
 .text.xlat_setup_dynamic_ctx
                0x00000000       0x62 ./../build/opteemin-programmer-uart-stm32mp157c-ed1/bl2/xlat_tables_core.o
 .text          0x00000000        0x0 ./../build/opteemin-programmer-uart-stm32mp157c-ed1/bl2/xlat_tables_utils.o
 .data          0x00000000        0x0 ./../build/opteemin-programmer-uart-stm32mp157c-ed1/bl2/xlat_tables_utils.o
 .bss           0x00000000        0x0 ./../build/opteemin-programmer-uart-stm32mp157c-ed1/bl2/xlat_tables_utils.o
 .rodata.find_xlat_table_entry.str1.1
                0x00000000       0x53 ./../build/opteemin-programmer-uart-stm32mp157c-ed1/bl2/xlat_tables_utils.o
 .text.find_xlat_table_entry
                0x00000000       0x8c ./../build/opteemin-programmer-uart-stm32mp157c-ed1/bl2/xlat_tables_utils.o
 .rodata.xlat_get_mem_attributes_internal.str1.1
                0x00000000       0x1f ./../build/opteemin-programmer-uart-stm32mp157c-ed1/bl2/xlat_tables_utils.o
 .text.xlat_get_mem_attributes_internal
                0x00000000      0x118 ./../build/opteemin-programmer-uart-stm32mp157c-ed1/bl2/xlat_tables_utils.o
 .text.xlat_get_mem_attributes_ctx
                0x00000000       0x12 ./../build/opteemin-programmer-uart-stm32mp157c-ed1/bl2/xlat_tables_utils.o
 .rodata.xlat_change_mem_attributes_ctx.str1.1
                0x00000000      0x152 ./../build/opteemin-programmer-uart-stm32mp157c-ed1/bl2/xlat_tables_utils.o
 .text.xlat_change_mem_attributes_ctx
                0x00000000      0x194 ./../build/opteemin-programmer-uart-stm32mp157c-ed1/bl2/xlat_tables_utils.o
 .rodata.__func__.0
                0x00000000       0x1f ./../build/opteemin-programmer-uart-stm32mp157c-ed1/bl2/xlat_tables_utils.o
 .text          0x00000000        0x0 ./../build/opteemin-programmer-uart-stm32mp157c-ed1/bl2/adler32.o
 .data          0x00000000        0x0 ./../build/opteemin-programmer-uart-stm32mp157c-ed1/bl2/adler32.o
 .bss           0x00000000        0x0 ./../build/opteemin-programmer-uart-stm32mp157c-ed1/bl2/adler32.o
 .text.adler32_combine_
                0x00000000       0x70 ./../build/opteemin-programmer-uart-stm32mp157c-ed1/bl2/adler32.o
 .text.adler32_z
                0x00000000      0x226 ./../build/opteemin-programmer-uart-stm32mp157c-ed1/bl2/adler32.o
 .text.adler32  0x00000000        0x4 ./../build/opteemin-programmer-uart-stm32mp157c-ed1/bl2/adler32.o
 .text.adler32_combine
                0x00000000        0x4 ./../build/opteemin-programmer-uart-stm32mp157c-ed1/bl2/adler32.o
 .text.adler32_combine64
                0x00000000        0x4 ./../build/opteemin-programmer-uart-stm32mp157c-ed1/bl2/adler32.o
 .debug_info    0x00000000      0x314 ./../build/opteemin-programmer-uart-stm32mp157c-ed1/bl2/adler32.o
 .debug_abbrev  0x00000000      0x153 ./../build/opteemin-programmer-uart-stm32mp157c-ed1/bl2/adler32.o
 .debug_loc     0x00000000      0x991 ./../build/opteemin-programmer-uart-stm32mp157c-ed1/bl2/adler32.o
 .debug_aranges
                0x00000000       0x40 ./../build/opteemin-programmer-uart-stm32mp157c-ed1/bl2/adler32.o
 .debug_ranges  0x00000000       0x30 ./../build/opteemin-programmer-uart-stm32mp157c-ed1/bl2/adler32.o
 .debug_line    0x00000000      0x352 ./../build/opteemin-programmer-uart-stm32mp157c-ed1/bl2/adler32.o
 .debug_str     0x00000000      0x21f ./../build/opteemin-programmer-uart-stm32mp157c-ed1/bl2/adler32.o
 .comment       0x00000000       0x13 ./../build/opteemin-programmer-uart-stm32mp157c-ed1/bl2/adler32.o
 .note.GNU-stack
                0x00000000        0x0 ./../build/opteemin-programmer-uart-stm32mp157c-ed1/bl2/adler32.o
 .debug_frame   0x00000000       0x8c ./../build/opteemin-programmer-uart-stm32mp157c-ed1/bl2/adler32.o
 .ARM.attributes
                0x00000000       0x33 ./../build/opteemin-programmer-uart-stm32mp157c-ed1/bl2/adler32.o
 .text          0x00000000        0x0 ./../build/opteemin-programmer-uart-stm32mp157c-ed1/bl2/crc32.o
 .data          0x00000000        0x0 ./../build/opteemin-programmer-uart-stm32mp157c-ed1/bl2/crc32.o
 .bss           0x00000000        0x0 ./../build/opteemin-programmer-uart-stm32mp157c-ed1/bl2/crc32.o
 .text.multmodp
                0x00000000       0x2c ./../build/opteemin-programmer-uart-stm32mp157c-ed1/bl2/crc32.o
 .text.x2nmodp.constprop.0
                0x00000000       0x2c ./../build/opteemin-programmer-uart-stm32mp157c-ed1/bl2/crc32.o
 .text.get_crc_table
                0x00000000        0x8 ./../build/opteemin-programmer-uart-stm32mp157c-ed1/bl2/crc32.o
 .text.crc32_z  0x00000000       0xc8 ./../build/opteemin-programmer-uart-stm32mp157c-ed1/bl2/crc32.o
 .text.crc32    0x00000000        0x4 ./../build/opteemin-programmer-uart-stm32mp157c-ed1/bl2/crc32.o
 .text.crc32_combine64
                0x00000000       0x16 ./../build/opteemin-programmer-uart-stm32mp157c-ed1/bl2/crc32.o
 .text.crc32_combine
                0x00000000        0x4 ./../build/opteemin-programmer-uart-stm32mp157c-ed1/bl2/crc32.o
 .text.crc32_combine_gen64
                0x00000000        0x4 ./../build/opteemin-programmer-uart-stm32mp157c-ed1/bl2/crc32.o
 .text.crc32_combine_gen
                0x00000000        0x4 ./../build/opteemin-programmer-uart-stm32mp157c-ed1/bl2/crc32.o
 .text.crc32_combine_op
                0x00000000       0x10 ./../build/opteemin-programmer-uart-stm32mp157c-ed1/bl2/crc32.o
 .rodata.x2n_table
                0x00000000       0x80 ./../build/opteemin-programmer-uart-stm32mp157c-ed1/bl2/crc32.o
 .rodata.crc_table
                0x00000000      0x400 ./../build/opteemin-programmer-uart-stm32mp157c-ed1/bl2/crc32.o
 .debug_info    0x00000000      0x504 ./../build/opteemin-programmer-uart-stm32mp157c-ed1/bl2/crc32.o
 .debug_abbrev  0x00000000      0x1cb ./../build/opteemin-programmer-uart-stm32mp157c-ed1/bl2/crc32.o
 .debug_loc     0x00000000      0x5b1 ./../build/opteemin-programmer-uart-stm32mp157c-ed1/bl2/crc32.o
 .debug_aranges
                0x00000000       0x68 ./../build/opteemin-programmer-uart-stm32mp157c-ed1/bl2/crc32.o
 .debug_ranges  0x00000000       0x58 ./../build/opteemin-programmer-uart-stm32mp157c-ed1/bl2/crc32.o
 .debug_line    0x00000000      0x2e8 ./../build/opteemin-programmer-uart-stm32mp157c-ed1/bl2/crc32.o
 .debug_str     0x00000000      0x257 ./../build/opteemin-programmer-uart-stm32mp157c-ed1/bl2/crc32.o
 .comment       0x00000000       0x13 ./../build/opteemin-programmer-uart-stm32mp157c-ed1/bl2/crc32.o
 .note.GNU-stack
                0x00000000        0x0 ./../build/opteemin-programmer-uart-stm32mp157c-ed1/bl2/crc32.o
 .debug_frame   0x00000000       0xec ./../build/opteemin-programmer-uart-stm32mp157c-ed1/bl2/crc32.o
 .ARM.attributes
                0x00000000       0x33 ./../build/opteemin-programmer-uart-stm32mp157c-ed1/bl2/crc32.o
 .text          0x00000000        0x0 ./../build/opteemin-programmer-uart-stm32mp157c-ed1/bl2/inffast.o
 .data          0x00000000        0x0 ./../build/opteemin-programmer-uart-stm32mp157c-ed1/bl2/inffast.o
 .bss           0x00000000        0x0 ./../build/opteemin-programmer-uart-stm32mp157c-ed1/bl2/inffast.o
 .rodata.inflate_fast.str1.1
                0x00000000       0x50 ./../build/opteemin-programmer-uart-stm32mp157c-ed1/bl2/inffast.o
 .text.inflate_fast
                0x00000000      0x36c ./../build/opteemin-programmer-uart-stm32mp157c-ed1/bl2/inffast.o
 .debug_info    0x00000000      0x80e ./../build/opteemin-programmer-uart-stm32mp157c-ed1/bl2/inffast.o
 .debug_abbrev  0x00000000      0x196 ./../build/opteemin-programmer-uart-stm32mp157c-ed1/bl2/inffast.o
 .debug_loc     0x00000000      0x8e2 ./../build/opteemin-programmer-uart-stm32mp157c-ed1/bl2/inffast.o
 .debug_aranges
                0x00000000       0x20 ./../build/opteemin-programmer-uart-stm32mp157c-ed1/bl2/inffast.o
 .debug_ranges  0x00000000       0x10 ./../build/opteemin-programmer-uart-stm32mp157c-ed1/bl2/inffast.o
 .debug_line    0x00000000      0x5db ./../build/opteemin-programmer-uart-stm32mp157c-ed1/bl2/inffast.o
 .debug_str     0x00000000      0x4a0 ./../build/opteemin-programmer-uart-stm32mp157c-ed1/bl2/inffast.o
 .comment       0x00000000       0x13 ./../build/opteemin-programmer-uart-stm32mp157c-ed1/bl2/inffast.o
 .note.GNU-stack
                0x00000000        0x0 ./../build/opteemin-programmer-uart-stm32mp157c-ed1/bl2/inffast.o
 .debug_frame   0x00000000       0x40 ./../build/opteemin-programmer-uart-stm32mp157c-ed1/bl2/inffast.o
 .ARM.attributes
                0x00000000       0x33 ./../build/opteemin-programmer-uart-stm32mp157c-ed1/bl2/inffast.o
 .text          0x00000000        0x0 ./../build/opteemin-programmer-uart-stm32mp157c-ed1/bl2/inflate.o
 .data          0x00000000        0x0 ./../build/opteemin-programmer-uart-stm32mp157c-ed1/bl2/inflate.o
 .bss           0x00000000        0x0 ./../build/opteemin-programmer-uart-stm32mp157c-ed1/bl2/inflate.o
 .text.syncsearch
                0x00000000       0x34 ./../build/opteemin-programmer-uart-stm32mp157c-ed1/bl2/inflate.o
 .text.updatewindow
                0x00000000       0x9c ./../build/opteemin-programmer-uart-stm32mp157c-ed1/bl2/inflate.o
 .text.inflateStateCheck
                0x00000000       0x2a ./../build/opteemin-programmer-uart-stm32mp157c-ed1/bl2/inflate.o
 .text.inflateResetKeep
                0x00000000       0x5c ./../build/opteemin-programmer-uart-stm32mp157c-ed1/bl2/inflate.o
 .text.inflateReset
                0x00000000       0x22 ./../build/opteemin-programmer-uart-stm32mp157c-ed1/bl2/inflate.o
 .text.inflateReset2
                0x00000000       0x5c ./../build/opteemin-programmer-uart-stm32mp157c-ed1/bl2/inflate.o
 .text.inflateInit2_
                0x00000000       0x6c ./../build/opteemin-programmer-uart-stm32mp157c-ed1/bl2/inflate.o
 .text.inflateInit_
                0x00000000        0xa ./../build/opteemin-programmer-uart-stm32mp157c-ed1/bl2/inflate.o
 .text.inflatePrime
                0x00000000       0x42 ./../build/opteemin-programmer-uart-stm32mp157c-ed1/bl2/inflate.o
 .rodata.inflate.str1.1
                0x00000000      0x1cd ./../build/opteemin-programmer-uart-stm32mp157c-ed1/bl2/inflate.o
 .text.inflate  0x00000000      0xe28 ./../build/opteemin-programmer-uart-stm32mp157c-ed1/bl2/inflate.o
 .text.inflateEnd
                0x00000000       0x2e ./../build/opteemin-programmer-uart-stm32mp157c-ed1/bl2/inflate.o
 .text.inflateGetDictionary
                0x00000000       0x44 ./../build/opteemin-programmer-uart-stm32mp157c-ed1/bl2/inflate.o
 .text.inflateSetDictionary
                0x00000000       0x64 ./../build/opteemin-programmer-uart-stm32mp157c-ed1/bl2/inflate.o
 .text.inflateGetHeader
                0x00000000       0x1e ./../build/opteemin-programmer-uart-stm32mp157c-ed1/bl2/inflate.o
 .text.inflateSync
                0x00000000       0xc6 ./../build/opteemin-programmer-uart-stm32mp157c-ed1/bl2/inflate.o
 .text.inflateSyncPoint
                0x00000000       0x26 ./../build/opteemin-programmer-uart-stm32mp157c-ed1/bl2/inflate.o
 .text.inflateCopy
                0x00000000       0xba ./../build/opteemin-programmer-uart-stm32mp157c-ed1/bl2/inflate.o
 .text.inflateUndermine
                0x00000000       0x22 ./../build/opteemin-programmer-uart-stm32mp157c-ed1/bl2/inflate.o
 .text.inflateValidate
                0x00000000       0x26 ./../build/opteemin-programmer-uart-stm32mp157c-ed1/bl2/inflate.o
 .text.inflateMark
                0x00000000       0x44 ./../build/opteemin-programmer-uart-stm32mp157c-ed1/bl2/inflate.o
 .text.inflateCodesUsed
                0x00000000       0x1e ./../build/opteemin-programmer-uart-stm32mp157c-ed1/bl2/inflate.o
 .rodata.distfix.0
                0x00000000       0x80 ./../build/opteemin-programmer-uart-stm32mp157c-ed1/bl2/inflate.o
 .rodata.lenfix.1
                0x00000000      0x800 ./../build/opteemin-programmer-uart-stm32mp157c-ed1/bl2/inflate.o
 .rodata.order.2
                0x00000000       0x26 ./../build/opteemin-programmer-uart-stm32mp157c-ed1/bl2/inflate.o
 .debug_info    0x00000000     0x1789 ./../build/opteemin-programmer-uart-stm32mp157c-ed1/bl2/inflate.o
 .debug_abbrev  0x00000000      0x41c ./../build/opteemin-programmer-uart-stm32mp157c-ed1/bl2/inflate.o
 .debug_loc     0x00000000     0x2101 ./../build/opteemin-programmer-uart-stm32mp157c-ed1/bl2/inflate.o
 .debug_aranges
                0x00000000       0xc0 ./../build/opteemin-programmer-uart-stm32mp157c-ed1/bl2/inflate.o
 .debug_ranges  0x00000000       0xb0 ./../build/opteemin-programmer-uart-stm32mp157c-ed1/bl2/inflate.o
 .debug_line    0x00000000     0x2173 ./../build/opteemin-programmer-uart-stm32mp157c-ed1/bl2/inflate.o
 .debug_str     0x00000000      0x685 ./../build/opteemin-programmer-uart-stm32mp157c-ed1/bl2/inflate.o
 .comment       0x00000000       0x13 ./../build/opteemin-programmer-uart-stm32mp157c-ed1/bl2/inflate.o
 .note.GNU-stack
                0x00000000        0x0 ./../build/opteemin-programmer-uart-stm32mp157c-ed1/bl2/inflate.o
 .debug_frame   0x00000000      0x278 ./../build/opteemin-programmer-uart-stm32mp157c-ed1/bl2/inflate.o
 .ARM.attributes
                0x00000000       0x33 ./../build/opteemin-programmer-uart-stm32mp157c-ed1/bl2/inflate.o
 .text          0x00000000        0x0 ./../build/opteemin-programmer-uart-stm32mp157c-ed1/bl2/inftrees.o
 .data          0x00000000        0x0 ./../build/opteemin-programmer-uart-stm32mp157c-ed1/bl2/inftrees.o
 .bss           0x00000000        0x0 ./../build/opteemin-programmer-uart-stm32mp157c-ed1/bl2/inftrees.o
 .text.inflate_table
                0x00000000      0x304 ./../build/opteemin-programmer-uart-stm32mp157c-ed1/bl2/inftrees.o
 .rodata.dext.0
                0x00000000       0x40 ./../build/opteemin-programmer-uart-stm32mp157c-ed1/bl2/inftrees.o
 .rodata.dbase.1
                0x00000000       0x40 ./../build/opteemin-programmer-uart-stm32mp157c-ed1/bl2/inftrees.o
 .rodata.lext.2
                0x00000000       0x3e ./../build/opteemin-programmer-uart-stm32mp157c-ed1/bl2/inftrees.o
 .rodata.lbase.3
                0x00000000       0x3e ./../build/opteemin-programmer-uart-stm32mp157c-ed1/bl2/inftrees.o
 .rodata.inflate_copyright
                0x00000000       0x2d ./../build/opteemin-programmer-uart-stm32mp157c-ed1/bl2/inftrees.o
 .debug_info    0x00000000      0x3c0 ./../build/opteemin-programmer-uart-stm32mp157c-ed1/bl2/inftrees.o
 .debug_abbrev  0x00000000      0x126 ./../build/opteemin-programmer-uart-stm32mp157c-ed1/bl2/inftrees.o
 .debug_loc     0x00000000      0x779 ./../build/opteemin-programmer-uart-stm32mp157c-ed1/bl2/inftrees.o
 .debug_aranges
                0x00000000       0x20 ./../build/opteemin-programmer-uart-stm32mp157c-ed1/bl2/inftrees.o
 .debug_ranges  0x00000000       0x10 ./../build/opteemin-programmer-uart-stm32mp157c-ed1/bl2/inftrees.o
 .debug_line    0x00000000      0x498 ./../build/opteemin-programmer-uart-stm32mp157c-ed1/bl2/inftrees.o
 .debug_str     0x00000000      0x258 ./../build/opteemin-programmer-uart-stm32mp157c-ed1/bl2/inftrees.o
 .comment       0x00000000       0x13 ./../build/opteemin-programmer-uart-stm32mp157c-ed1/bl2/inftrees.o
 .note.GNU-stack
                0x00000000        0x0 ./../build/opteemin-programmer-uart-stm32mp157c-ed1/bl2/inftrees.o
 .debug_frame   0x00000000       0x40 ./../build/opteemin-programmer-uart-stm32mp157c-ed1/bl2/inftrees.o
 .ARM.attributes
                0x00000000       0x33 ./../build/opteemin-programmer-uart-stm32mp157c-ed1/bl2/inftrees.o
 .text          0x00000000        0x0 ./../build/opteemin-programmer-uart-stm32mp157c-ed1/bl2/tf_gunzip.o
 .data          0x00000000        0x0 ./../build/opteemin-programmer-uart-stm32mp157c-ed1/bl2/tf_gunzip.o
 .bss           0x00000000        0x0 ./../build/opteemin-programmer-uart-stm32mp157c-ed1/bl2/tf_gunzip.o
 .text.zfree    0x00000000        0x2 ./../build/opteemin-programmer-uart-stm32mp157c-ed1/bl2/tf_gunzip.o
 .text.zcalloc  0x00000000       0x34 ./../build/opteemin-programmer-uart-stm32mp157c-ed1/bl2/tf_gunzip.o
 .rodata.gunzip.str1.1
                0x00000000       0x52 ./../build/opteemin-programmer-uart-stm32mp157c-ed1/bl2/tf_gunzip.o
 .text.gunzip   0x00000000       0xb0 ./../build/opteemin-programmer-uart-stm32mp157c-ed1/bl2/tf_gunzip.o
 .text.tf_crc32
                0x00000000        0x4 ./../build/opteemin-programmer-uart-stm32mp157c-ed1/bl2/tf_gunzip.o
 .bss.zalloc_current
                0x00000000        0x4 ./../build/opteemin-programmer-uart-stm32mp157c-ed1/bl2/tf_gunzip.o
 .bss.zalloc_end
                0x00000000        0x4 ./../build/opteemin-programmer-uart-stm32mp157c-ed1/bl2/tf_gunzip.o
 .debug_info    0x00000000      0x5e2 ./../build/opteemin-programmer-uart-stm32mp157c-ed1/bl2/tf_gunzip.o
 .debug_abbrev  0x00000000      0x214 ./../build/opteemin-programmer-uart-stm32mp157c-ed1/bl2/tf_gunzip.o
 .debug_loc     0x00000000      0x332 ./../build/opteemin-programmer-uart-stm32mp157c-ed1/bl2/tf_gunzip.o
 .debug_aranges
                0x00000000       0x38 ./../build/opteemin-programmer-uart-stm32mp157c-ed1/bl2/tf_gunzip.o
 .debug_ranges  0x00000000       0x28 ./../build/opteemin-programmer-uart-stm32mp157c-ed1/bl2/tf_gunzip.o
 .debug_line    0x00000000      0x24c ./../build/opteemin-programmer-uart-stm32mp157c-ed1/bl2/tf_gunzip.o
 .debug_str     0x00000000      0x361 ./../build/opteemin-programmer-uart-stm32mp157c-ed1/bl2/tf_gunzip.o
 .comment       0x00000000       0x13 ./../build/opteemin-programmer-uart-stm32mp157c-ed1/bl2/tf_gunzip.o
 .note.GNU-stack
                0x00000000        0x0 ./../build/opteemin-programmer-uart-stm32mp157c-ed1/bl2/tf_gunzip.o
 .debug_frame   0x00000000       0x74 ./../build/opteemin-programmer-uart-stm32mp157c-ed1/bl2/tf_gunzip.o
 .ARM.attributes
                0x00000000       0x33 ./../build/opteemin-programmer-uart-stm32mp157c-ed1/bl2/tf_gunzip.o
 .text          0x00000000        0x0 ./../build/opteemin-programmer-uart-stm32mp157c-ed1/bl2/zutil.o
 .data          0x00000000        0x0 ./../build/opteemin-programmer-uart-stm32mp157c-ed1/bl2/zutil.o
 .bss           0x00000000        0x0 ./../build/opteemin-programmer-uart-stm32mp157c-ed1/bl2/zutil.o
 .rodata.zlibVersion.str1.1
                0x00000000        0x4 ./../build/opteemin-programmer-uart-stm32mp157c-ed1/bl2/zutil.o
 .text.zlibVersion
                0x00000000        0x8 ./../build/opteemin-programmer-uart-stm32mp157c-ed1/bl2/zutil.o
 .text.zlibCompileFlags
                0x00000000        0x4 ./../build/opteemin-programmer-uart-stm32mp157c-ed1/bl2/zutil.o
 .text.zError   0x00000000       0x10 ./../build/opteemin-programmer-uart-stm32mp157c-ed1/bl2/zutil.o
 .text.zmemcpy  0x00000000       0x14 ./../build/opteemin-programmer-uart-stm32mp157c-ed1/bl2/zutil.o
 .text.zmemcmp  0x00000000       0x24 ./../build/opteemin-programmer-uart-stm32mp157c-ed1/bl2/zutil.o
 .text.zmemzero
                0x00000000       0x10 ./../build/opteemin-programmer-uart-stm32mp157c-ed1/bl2/zutil.o
 .rodata.str1.1
                0x00000000       0x75 ./../build/opteemin-programmer-uart-stm32mp157c-ed1/bl2/zutil.o
 .rodata.z_errmsg
                0x00000000       0x28 ./../build/opteemin-programmer-uart-stm32mp157c-ed1/bl2/zutil.o
 .debug_info    0x00000000      0x242 ./../build/opteemin-programmer-uart-stm32mp157c-ed1/bl2/zutil.o
 .debug_abbrev  0x00000000      0x134 ./../build/opteemin-programmer-uart-stm32mp157c-ed1/bl2/zutil.o
 .debug_loc     0x00000000      0x1f1 ./../build/opteemin-programmer-uart-stm32mp157c-ed1/bl2/zutil.o
 .debug_aranges
                0x00000000       0x48 ./../build/opteemin-programmer-uart-stm32mp157c-ed1/bl2/zutil.o
 .debug_ranges  0x00000000       0x38 ./../build/opteemin-programmer-uart-stm32mp157c-ed1/bl2/zutil.o
 .debug_line    0x00000000      0x1a0 ./../build/opteemin-programmer-uart-stm32mp157c-ed1/bl2/zutil.o
 .debug_str     0x00000000      0x1fb ./../build/opteemin-programmer-uart-stm32mp157c-ed1/bl2/zutil.o
 .comment       0x00000000       0x13 ./../build/opteemin-programmer-uart-stm32mp157c-ed1/bl2/zutil.o
 .note.GNU-stack
                0x00000000        0x0 ./../build/opteemin-programmer-uart-stm32mp157c-ed1/bl2/zutil.o
 .debug_frame   0x00000000       0x7c ./../build/opteemin-programmer-uart-stm32mp157c-ed1/bl2/zutil.o
 .ARM.attributes
                0x00000000       0x33 ./../build/opteemin-programmer-uart-stm32mp157c-ed1/bl2/zutil.o
 .text          0x00000000        0x0 ./../build/opteemin-programmer-uart-stm32mp157c-ed1/bl2/plat_common.o
 .data          0x00000000        0x0 ./../build/opteemin-programmer-uart-stm32mp157c-ed1/bl2/plat_common.o
 .bss           0x00000000        0x0 ./../build/opteemin-programmer-uart-stm32mp157c-ed1/bl2/plat_common.o
 .text.bl32_plat_enable_mmu
                0x00000000        0x4 ./../build/opteemin-programmer-uart-stm32mp157c-ed1/bl2/plat_common.o
 .debug_info    0x00000000      0x110 ./../build/opteemin-programmer-uart-stm32mp157c-ed1/bl2/plat_common.o
 .debug_abbrev  0x00000000       0xb3 ./../build/opteemin-programmer-uart-stm32mp157c-ed1/bl2/plat_common.o
 .debug_loc     0x00000000       0x2b ./../build/opteemin-programmer-uart-stm32mp157c-ed1/bl2/plat_common.o
 .debug_aranges
                0x00000000       0x20 ./../build/opteemin-programmer-uart-stm32mp157c-ed1/bl2/plat_common.o
 .debug_ranges  0x00000000       0x10 ./../build/opteemin-programmer-uart-stm32mp157c-ed1/bl2/plat_common.o
 .debug_line    0x00000000       0xbf ./../build/opteemin-programmer-uart-stm32mp157c-ed1/bl2/plat_common.o
 .debug_str     0x00000000      0x234 ./../build/opteemin-programmer-uart-stm32mp157c-ed1/bl2/plat_common.o
 .comment       0x00000000       0x13 ./../build/opteemin-programmer-uart-stm32mp157c-ed1/bl2/plat_common.o
 .note.GNU-stack
                0x00000000        0x0 ./../build/opteemin-programmer-uart-stm32mp157c-ed1/bl2/plat_common.o
 .debug_frame   0x00000000       0x20 ./../build/opteemin-programmer-uart-stm32mp157c-ed1/bl2/plat_common.o
 .ARM.attributes
                0x00000000       0x33 ./../build/opteemin-programmer-uart-stm32mp157c-ed1/bl2/plat_common.o
 .text          0x00000000        0x0 ./../build/opteemin-programmer-uart-stm32mp157c-ed1/bl2/plat_bl_common.o
 .data          0x00000000        0x0 ./../build/opteemin-programmer-uart-stm32mp157c-ed1/bl2/plat_bl_common.o
 .bss           0x00000000        0x0 ./../build/opteemin-programmer-uart-stm32mp157c-ed1/bl2/plat_bl_common.o
 .text.plat_get_soc_version
                0x00000000        0x6 ./../build/opteemin-programmer-uart-stm32mp157c-ed1/bl2/plat_bl_common.o
 .text.plat_get_soc_revision
                0x00000000        0x6 ./../build/opteemin-programmer-uart-stm32mp157c-ed1/bl2/plat_bl_common.o
 .text.plat_is_smccc_feature_available
                0x00000000        0x6 ./../build/opteemin-programmer-uart-stm32mp157c-ed1/bl2/plat_bl_common.o
 .text.bl2_el3_plat_prepare_exit
                0x00000000        0x2 ./../build/opteemin-programmer-uart-stm32mp157c-ed1/bl2/plat_bl_common.o
 .text.bl2_plat_handle_pre_image_load
                0x00000000        0x4 ./../build/opteemin-programmer-uart-stm32mp157c-ed1/bl2/plat_bl_common.o
 .text.bl2_plat_handle_post_image_load
                0x00000000        0x4 ./../build/opteemin-programmer-uart-stm32mp157c-ed1/bl2/plat_bl_common.o
 .text.plat_try_backup_partitions
                0x00000000        0x4 ./../build/opteemin-programmer-uart-stm32mp157c-ed1/bl2/plat_bl_common.o
 .rodata.plat_get_enc_key_info.str1.1
                0x00000000       0x3e ./../build/opteemin-programmer-uart-stm32mp157c-ed1/bl2/plat_bl_common.o
 .text.plat_get_enc_key_info
                0x00000000       0x40 ./../build/opteemin-programmer-uart-stm32mp157c-ed1/bl2/plat_bl_common.o
 .text.setup_page_tables
                0x00000000       0x16 ./../build/opteemin-programmer-uart-stm32mp157c-ed1/bl2/plat_bl_common.o
 .text          0x00000000        0x0 ./../build/opteemin-programmer-uart-stm32mp157c-ed1/bl2/plat_log_common.o
 .data          0x00000000        0x0 ./../build/opteemin-programmer-uart-stm32mp157c-ed1/bl2/plat_log_common.o
 .bss           0x00000000        0x0 ./../build/opteemin-programmer-uart-stm32mp157c-ed1/bl2/plat_log_common.o
 .text          0x00000000        0x0 ./../build/opteemin-programmer-uart-stm32mp157c-ed1/bl2/bl2_io_storage.o
 .data          0x00000000        0x0 ./../build/opteemin-programmer-uart-stm32mp157c-ed1/bl2/bl2_io_storage.o
 .bss           0x00000000        0x0 ./../build/opteemin-programmer-uart-stm32mp157c-ed1/bl2/bl2_io_storage.o
 .text.stm32mp_io_exit
                0x00000000       0x20 ./../build/opteemin-programmer-uart-stm32mp157c-ed1/bl2/bl2_io_storage.o
 .text          0x00000000        0x0 ./../build/opteemin-programmer-uart-stm32mp157c-ed1/bl2/plat_image_load.o
 .data          0x00000000        0x0 ./../build/opteemin-programmer-uart-stm32mp157c-ed1/bl2/plat_image_load.o
 .bss           0x00000000        0x0 ./../build/opteemin-programmer-uart-stm32mp157c-ed1/bl2/plat_image_load.o
 .text          0x00000000        0x0 ./../build/opteemin-programmer-uart-stm32mp157c-ed1/bl2/stm32cubeprogrammer_uart.o
 .data          0x00000000        0x0 ./../build/opteemin-programmer-uart-stm32mp157c-ed1/bl2/stm32cubeprogrammer_uart.o
 .bss           0x00000000        0x0 ./../build/opteemin-programmer-uart-stm32mp157c-ed1/bl2/stm32cubeprogrammer_uart.o
 .text          0x00000000        0x0 ./../build/opteemin-programmer-uart-stm32mp157c-ed1/bl2/stm32mp_common.o
 .data          0x00000000        0x0 ./../build/opteemin-programmer-uart-stm32mp157c-ed1/bl2/stm32mp_common.o
 .bss           0x00000000        0x0 ./../build/opteemin-programmer-uart-stm32mp157c-ed1/bl2/stm32mp_common.o
 .text.plat_get_ns_image_entrypoint
                0x00000000        0x8 ./../build/opteemin-programmer-uart-stm32mp157c-ed1/bl2/stm32mp_common.o
 .text.stm32mp_get_boot_action
                0x00000000        0xc ./../build/opteemin-programmer-uart-stm32mp157c-ed1/bl2/stm32mp_common.o
 .rodata.stm32_lock_enc_key_otp.str1.1
                0x00000000        0xc ./../build/opteemin-programmer-uart-stm32mp157c-ed1/bl2/stm32mp_common.o
 .text.stm32_lock_enc_key_otp
                0x00000000       0x48 ./../build/opteemin-programmer-uart-stm32mp157c-ed1/bl2/stm32mp_common.o
 .rodata.stm32_get_uid_otp.str1.1
                0x00000000       0x5e ./../build/opteemin-programmer-uart-stm32mp157c-ed1/bl2/stm32mp_common.o
 .text.stm32_get_uid_otp
                0x00000000       0x60 ./../build/opteemin-programmer-uart-stm32mp157c-ed1/bl2/stm32mp_common.o
 .rodata.stm32_get_enc_key_otp_idx_len.str1.1
                0x00000000       0x19 ./../build/opteemin-programmer-uart-stm32mp157c-ed1/bl2/stm32mp_common.o
 .text.stm32_get_enc_key_otp_idx_len
                0x00000000       0x4c ./../build/opteemin-programmer-uart-stm32mp157c-ed1/bl2/stm32mp_common.o
 .text.stm32mp_uart_console_is_running
                0x00000000       0x28 ./../build/opteemin-programmer-uart-stm32mp157c-ed1/bl2/stm32mp_common.o
 .text.plat_is_smccc_feature_available
                0x00000000       0x10 ./../build/opteemin-programmer-uart-stm32mp157c-ed1/bl2/stm32mp_common.o
 .text.plat_get_soc_version
                0x00000000        0xe ./../build/opteemin-programmer-uart-stm32mp157c-ed1/bl2/stm32mp_common.o
 .text.plat_get_soc_revision
                0x00000000        0xc ./../build/opteemin-programmer-uart-stm32mp157c-ed1/bl2/stm32mp_common.o
 .rodata.stm32_get_fwu_info_cell.str1.1
                0x00000000        0x9 ./../build/opteemin-programmer-uart-stm32mp157c-ed1/bl2/stm32mp_common.o
 .text.stm32_get_fwu_info_cell
                0x00000000       0x34 ./../build/opteemin-programmer-uart-stm32mp157c-ed1/bl2/stm32mp_common.o
 .bss.s_fwu_info.2
                0x00000000        0xc ./../build/opteemin-programmer-uart-stm32mp157c-ed1/bl2/stm32mp_common.o
 .bss.initialized.3
                0x00000000        0x1 ./../build/opteemin-programmer-uart-stm32mp157c-ed1/bl2/stm32mp_common.o
 .rodata.__func__.9
                0x00000000       0x1e ./../build/opteemin-programmer-uart-stm32mp157c-ed1/bl2/stm32mp_common.o
 .bss.idx.10    0x00000000        0x4 ./../build/opteemin-programmer-uart-stm32mp157c-ed1/bl2/stm32mp_common.o
 .bss.len.11    0x00000000        0x4 ./../build/opteemin-programmer-uart-stm32mp157c-ed1/bl2/stm32mp_common.o
 .text          0x00000000        0x0 ./../build/opteemin-programmer-uart-stm32mp157c-ed1/bl2/stm32mp_dt.o
 .data          0x00000000        0x0 ./../build/opteemin-programmer-uart-stm32mp157c-ed1/bl2/stm32mp_dt.o
 .bss           0x00000000        0x0 ./../build/opteemin-programmer-uart-stm32mp157c-ed1/bl2/stm32mp_dt.o
 .rodata.dt_get_cpu_regulator.str1.1
                0x00000000       0x10 ./../build/opteemin-programmer-uart-stm32mp157c-ed1/bl2/stm32mp_dt.o
 .text.dt_get_cpu_regulator
                0x00000000       0x2c ./../build/opteemin-programmer-uart-stm32mp157c-ed1/bl2/stm32mp_dt.o
 .rodata.dt_get_sysram_regulator.str1.1
                0x00000000       0x12 ./../build/opteemin-programmer-uart-stm32mp157c-ed1/bl2/stm32mp_dt.o
 .text.dt_get_sysram_regulator
                0x00000000       0x74 ./../build/opteemin-programmer-uart-stm32mp157c-ed1/bl2/stm32mp_dt.o
 .rodata.fdt_get_gpio_bank_pin_count.str1.1
                0x00000000       0x1c ./../build/opteemin-programmer-uart-stm32mp157c-ed1/bl2/stm32mp_dt.o
 .text.fdt_get_gpio_bank_pin_count
                0x00000000       0xd4 ./../build/opteemin-programmer-uart-stm32mp157c-ed1/bl2/stm32mp_dt.o
 .text          0x00000000        0x0 ./../build/opteemin-programmer-uart-stm32mp157c-ed1/bl2/stm32mp_fconf_fuse.o
 .data          0x00000000        0x0 ./../build/opteemin-programmer-uart-stm32mp157c-ed1/bl2/stm32mp_fconf_fuse.o
 .bss           0x00000000        0x0 ./../build/opteemin-programmer-uart-stm32mp157c-ed1/bl2/stm32mp_fconf_fuse.o
 .text          0x00000000        0x0 ./../build/opteemin-programmer-uart-stm32mp157c-ed1/bl2/stm32mp_fconf_io.o
 .data          0x00000000        0x0 ./../build/opteemin-programmer-uart-stm32mp157c-ed1/bl2/stm32mp_fconf_io.o
 .bss           0x00000000        0x0 ./../build/opteemin-programmer-uart-stm32mp157c-ed1/bl2/stm32mp_fconf_io.o
 .text          0x00000000        0x0 ./../build/opteemin-programmer-uart-stm32mp157c-ed1/bl2/bl2_plat_setup.o
 .data          0x00000000        0x0 ./../build/opteemin-programmer-uart-stm32mp157c-ed1/bl2/bl2_plat_setup.o
 .bss           0x00000000        0x0 ./../build/opteemin-programmer-uart-stm32mp157c-ed1/bl2/bl2_plat_setup.o
 .text          0x00000000        0x0 ./../build/opteemin-programmer-uart-stm32mp157c-ed1/bl2/plat_bl2_mem_params_desc.o
 .data          0x00000000        0x0 ./../build/opteemin-programmer-uart-stm32mp157c-ed1/bl2/plat_bl2_mem_params_desc.o
 .bss           0x00000000        0x0 ./../build/opteemin-programmer-uart-stm32mp157c-ed1/bl2/plat_bl2_mem_params_desc.o
 .text          0x00000000        0x0 ./../build/opteemin-programmer-uart-stm32mp157c-ed1/bl2/plat_ddr.o
 .data          0x00000000        0x0 ./../build/opteemin-programmer-uart-stm32mp157c-ed1/bl2/plat_ddr.o
 .bss           0x00000000        0x0 ./../build/opteemin-programmer-uart-stm32mp157c-ed1/bl2/plat_ddr.o
 .text          0x00000000        0x0 ./../build/opteemin-programmer-uart-stm32mp157c-ed1/bl2/stm32mp1_context.o
 .data          0x00000000        0x0 ./../build/opteemin-programmer-uart-stm32mp157c-ed1/bl2/stm32mp1_context.o
 .bss           0x00000000        0x0 ./../build/opteemin-programmer-uart-stm32mp157c-ed1/bl2/stm32mp1_context.o
 .rodata.stm32_pm_get_optee_ep.str1.1
                0x00000000       0x18 ./../build/opteemin-programmer-uart-stm32mp157c-ed1/bl2/stm32mp1_context.o
 .text.stm32_pm_get_optee_ep
                0x00000000       0x58 ./../build/opteemin-programmer-uart-stm32mp157c-ed1/bl2/stm32mp1_context.o
 .rodata.stm32_pm_context_is_valid.str1.1
                0x00000000       0x33 ./../build/opteemin-programmer-uart-stm32mp157c-ed1/bl2/stm32mp1_context.o
 .text.stm32_pm_context_is_valid
                0x00000000       0x80 ./../build/opteemin-programmer-uart-stm32mp157c-ed1/bl2/stm32mp1_context.o
 .text.stm32_restore_ddr_training_area
                0x00000000       0x3c ./../build/opteemin-programmer-uart-stm32mp157c-ed1/bl2/stm32mp1_context.o
 .text          0x00000000        0x0 ./../build/opteemin-programmer-uart-stm32mp157c-ed1/bl2/stm32mp1_critic_power.o
 .data          0x00000000        0x0 ./../build/opteemin-programmer-uart-stm32mp157c-ed1/bl2/stm32mp1_critic_power.o
 .bss           0x00000000        0x0 ./../build/opteemin-programmer-uart-stm32mp157c-ed1/bl2/stm32mp1_critic_power.o
 .text          0x00000000        0x0 ./../build/opteemin-programmer-uart-stm32mp157c-ed1/bl2/stm32mp1_dbgmcu.o
 .data          0x00000000        0x0 ./../build/opteemin-programmer-uart-stm32mp157c-ed1/bl2/stm32mp1_dbgmcu.o
 .bss           0x00000000        0x0 ./../build/opteemin-programmer-uart-stm32mp157c-ed1/bl2/stm32mp1_dbgmcu.o
 .text          0x00000000        0x0 ./../build/opteemin-programmer-uart-stm32mp157c-ed1/bl2/stm32mp1_fconf_firewall.o
 .data          0x00000000        0x0 ./../build/opteemin-programmer-uart-stm32mp157c-ed1/bl2/stm32mp1_fconf_firewall.o
 .bss           0x00000000        0x0 ./../build/opteemin-programmer-uart-stm32mp157c-ed1/bl2/stm32mp1_fconf_firewall.o
 .text          0x00000000        0x0 ./../build/opteemin-programmer-uart-stm32mp157c-ed1/bl2/stm32mp1_private.o
 .data          0x00000000        0x0 ./../build/opteemin-programmer-uart-stm32mp157c-ed1/bl2/stm32mp1_private.o
 .bss           0x00000000        0x0 ./../build/opteemin-programmer-uart-stm32mp157c-ed1/bl2/stm32mp1_private.o
 .text.stm32_gpio_is_secure_at_reset
                0x00000000        0xa ./../build/opteemin-programmer-uart-stm32mp157c-ed1/bl2/stm32mp1_private.o
 .rodata.stm32_get_gpio_bank_pinctrl_node.str1.1
                0x00000000       0x2e ./../build/opteemin-programmer-uart-stm32mp157c-ed1/bl2/stm32mp1_private.o
 .text.stm32_get_gpio_bank_pinctrl_node
                0x00000000       0x2c ./../build/opteemin-programmer-uart-stm32mp157c-ed1/bl2/stm32mp1_private.o
 .text.stm32_get_header_address
                0x00000000        0x8 ./../build/opteemin-programmer-uart-stm32mp157c-ed1/bl2/stm32mp1_private.o
 .text.stm32mp_is_single_core
                0x00000000       0x2c ./../build/opteemin-programmer-uart-stm32mp157c-ed1/bl2/stm32mp1_private.o
 .text.stm32mp_is_auth_supported
                0x00000000       0x40 ./../build/opteemin-programmer-uart-stm32mp157c-ed1/bl2/stm32mp1_private.o
 .text.stm32mp1_addr_inside_backupsram
                0x00000000       0x10 ./../build/opteemin-programmer-uart-stm32mp157c-ed1/bl2/stm32mp1_private.o
 .text          0x00000000        0x0 ./../build/opteemin-programmer-uart-stm32mp157c-ed1/bl2/stm32mp1_syscfg.o
 .data          0x00000000        0x0 ./../build/opteemin-programmer-uart-stm32mp157c-ed1/bl2/stm32mp1_syscfg.o
 .bss           0x00000000        0x0 ./../build/opteemin-programmer-uart-stm32mp157c-ed1/bl2/stm32mp1_syscfg.o
 .text.stm32mp_syscfg_disable_io_compensation
                0x00000000       0x44 ./../build/opteemin-programmer-uart-stm32mp157c-ed1/bl2/stm32mp1_syscfg.o
 .text.stm32mp_syscfg_get_chip_version
                0x00000000       0x10 ./../build/opteemin-programmer-uart-stm32mp157c-ed1/bl2/stm32mp1_syscfg.o
 .text.stm32mp_syscfg_get_chip_dev_id
                0x00000000       0x10 ./../build/opteemin-programmer-uart-stm32mp157c-ed1/bl2/stm32mp1_syscfg.o
 .text          0x00000000        0x0 ./../build/opteemin-programmer-uart-stm32mp157c-ed1/bl2/bl2_el3_entrypoint.o
 .data          0x00000000        0x0 ./../build/opteemin-programmer-uart-stm32mp157c-ed1/bl2/bl2_el3_entrypoint.o
 .bss           0x00000000        0x0 ./../build/opteemin-programmer-uart-stm32mp157c-ed1/bl2/bl2_el3_entrypoint.o
 .text          0x00000000        0x0 ./../build/opteemin-programmer-uart-stm32mp157c-ed1/bl2/bl2_el3_exceptions.o
 .data          0x00000000        0x0 ./../build/opteemin-programmer-uart-stm32mp157c-ed1/bl2/bl2_el3_exceptions.o
 .bss           0x00000000        0x0 ./../build/opteemin-programmer-uart-stm32mp157c-ed1/bl2/bl2_el3_exceptions.o
 .text          0x00000000        0x0 ./../build/opteemin-programmer-uart-stm32mp157c-ed1/bl2/bl2_run_next_image.o
 .data          0x00000000        0x0 ./../build/opteemin-programmer-uart-stm32mp157c-ed1/bl2/bl2_run_next_image.o
 .bss           0x00000000        0x0 ./../build/opteemin-programmer-uart-stm32mp157c-ed1/bl2/bl2_run_next_image.o
 .text          0x00000000        0x0 ./../build/opteemin-programmer-uart-stm32mp157c-ed1/bl2/debug.o
 .data          0x00000000        0x0 ./../build/opteemin-programmer-uart-stm32mp157c-ed1/bl2/debug.o
 .bss           0x00000000        0x0 ./../build/opteemin-programmer-uart-stm32mp157c-ed1/bl2/debug.o
 .text          0x00000000        0x0 ./../build/opteemin-programmer-uart-stm32mp157c-ed1/bl2/stm32_console.o
 .data          0x00000000        0x0 ./../build/opteemin-programmer-uart-stm32mp157c-ed1/bl2/stm32_console.o
 .bss           0x00000000        0x0 ./../build/opteemin-programmer-uart-stm32mp157c-ed1/bl2/stm32_console.o
 .text.asm.console_stm32_core_getc
                0x00000000        0x8 ./../build/opteemin-programmer-uart-stm32mp157c-ed1/bl2/stm32_console.o
 .text          0x00000000        0x0 ./../build/opteemin-programmer-uart-stm32mp157c-ed1/bl2/cache_helpers.o
 .data          0x00000000        0x0 ./../build/opteemin-programmer-uart-stm32mp157c-ed1/bl2/cache_helpers.o
 .bss           0x00000000        0x0 ./../build/opteemin-programmer-uart-stm32mp157c-ed1/bl2/cache_helpers.o
 .text.asm.dcsw_op_louis
                0x00000000       0x14 ./../build/opteemin-programmer-uart-stm32mp157c-ed1/bl2/cache_helpers.o
 .text.asm.dcsw_op_level1
                0x00000000       0x10 ./../build/opteemin-programmer-uart-stm32mp157c-ed1/bl2/cache_helpers.o
 .text.asm.dcsw_op_level2
                0x00000000       0x10 ./../build/opteemin-programmer-uart-stm32mp157c-ed1/bl2/cache_helpers.o
 .text.asm.dcsw_op_level3
                0x00000000       0x10 ./../build/opteemin-programmer-uart-stm32mp157c-ed1/bl2/cache_helpers.o
 .text          0x00000000        0x0 ./../build/opteemin-programmer-uart-stm32mp157c-ed1/bl2/misc_helpers.o
 .data          0x00000000        0x0 ./../build/opteemin-programmer-uart-stm32mp157c-ed1/bl2/misc_helpers.o
 .bss           0x00000000        0x0 ./../build/opteemin-programmer-uart-stm32mp157c-ed1/bl2/misc_helpers.o
 .text.asm.smc  0x00000000        0x8 ./../build/opteemin-programmer-uart-stm32mp157c-ed1/bl2/misc_helpers.o
 .text.asm.memcpy4
                0x00000000       0x4c ./../build/opteemin-programmer-uart-stm32mp157c-ed1/bl2/misc_helpers.o
 .rodata.str1.1
                0x00000000       0x1b ./../build/opteemin-programmer-uart-stm32mp157c-ed1/bl2/misc_helpers.o
 .text.asm.fixup_gdt_reloc
                0x00000000       0xec ./../build/opteemin-programmer-uart-stm32mp157c-ed1/bl2/misc_helpers.o
 .text          0x00000000       0x24 ./../build/opteemin-programmer-uart-stm32mp157c-ed1/bl2/aeabi_ldivmod.o
 .data          0x00000000        0x0 ./../build/opteemin-programmer-uart-stm32mp157c-ed1/bl2/aeabi_ldivmod.o
 .bss           0x00000000        0x0 ./../build/opteemin-programmer-uart-stm32mp157c-ed1/bl2/aeabi_ldivmod.o
 .note.GNU-stack
                0x00000000        0x0 ./../build/opteemin-programmer-uart-stm32mp157c-ed1/bl2/aeabi_ldivmod.o
 .debug_line    0x00000000       0x67 ./../build/opteemin-programmer-uart-stm32mp157c-ed1/bl2/aeabi_ldivmod.o
 .debug_info    0x00000000       0x30 ./../build/opteemin-programmer-uart-stm32mp157c-ed1/bl2/aeabi_ldivmod.o
 .debug_abbrev  0x00000000       0x28 ./../build/opteemin-programmer-uart-stm32mp157c-ed1/bl2/aeabi_ldivmod.o
 .debug_aranges
                0x00000000       0x20 ./../build/opteemin-programmer-uart-stm32mp157c-ed1/bl2/aeabi_ldivmod.o
 .debug_str     0x00000000       0x6e ./../build/opteemin-programmer-uart-stm32mp157c-ed1/bl2/aeabi_ldivmod.o
 .ARM.attributes
                0x00000000       0x27 ./../build/opteemin-programmer-uart-stm32mp157c-ed1/bl2/aeabi_ldivmod.o
 .text          0x00000000        0x4 ./../build/opteemin-programmer-uart-stm32mp157c-ed1/bl2/aeabi_memcpy.o
 .data          0x00000000        0x0 ./../build/opteemin-programmer-uart-stm32mp157c-ed1/bl2/aeabi_memcpy.o
 .bss           0x00000000        0x0 ./../build/opteemin-programmer-uart-stm32mp157c-ed1/bl2/aeabi_memcpy.o
 .note.GNU-stack
                0x00000000        0x0 ./../build/opteemin-programmer-uart-stm32mp157c-ed1/bl2/aeabi_memcpy.o
 .debug_line    0x00000000       0x5c ./../build/opteemin-programmer-uart-stm32mp157c-ed1/bl2/aeabi_memcpy.o
 .debug_info    0x00000000       0x46 ./../build/opteemin-programmer-uart-stm32mp157c-ed1/bl2/aeabi_memcpy.o
 .debug_abbrev  0x00000000       0x28 ./../build/opteemin-programmer-uart-stm32mp157c-ed1/bl2/aeabi_memcpy.o
 .debug_aranges
                0x00000000       0x20 ./../build/opteemin-programmer-uart-stm32mp157c-ed1/bl2/aeabi_memcpy.o
 .debug_str     0x00000000       0x8c ./../build/opteemin-programmer-uart-stm32mp157c-ed1/bl2/aeabi_memcpy.o
 .ARM.attributes
                0x00000000       0x27 ./../build/opteemin-programmer-uart-stm32mp157c-ed1/bl2/aeabi_memcpy.o
 .text          0x00000000       0x1c ./../build/opteemin-programmer-uart-stm32mp157c-ed1/bl2/aeabi_memset.o
 .data          0x00000000        0x0 ./../build/opteemin-programmer-uart-stm32mp157c-ed1/bl2/aeabi_memset.o
 .bss           0x00000000        0x0 ./../build/opteemin-programmer-uart-stm32mp157c-ed1/bl2/aeabi_memset.o
 .note.GNU-stack
                0x00000000        0x0 ./../build/opteemin-programmer-uart-stm32mp157c-ed1/bl2/aeabi_memset.o
 .debug_line    0x00000000       0x64 ./../build/opteemin-programmer-uart-stm32mp157c-ed1/bl2/aeabi_memset.o
 .debug_info    0x00000000       0x67 ./../build/opteemin-programmer-uart-stm32mp157c-ed1/bl2/aeabi_memset.o
 .debug_abbrev  0x00000000       0x28 ./../build/opteemin-programmer-uart-stm32mp157c-ed1/bl2/aeabi_memset.o
 .debug_aranges
                0x00000000       0x20 ./../build/opteemin-programmer-uart-stm32mp157c-ed1/bl2/aeabi_memset.o
 .debug_str     0x00000000       0xbb ./../build/opteemin-programmer-uart-stm32mp157c-ed1/bl2/aeabi_memset.o
 .ARM.attributes
                0x00000000       0x27 ./../build/opteemin-programmer-uart-stm32mp157c-ed1/bl2/aeabi_memset.o
 .data          0x00000000        0x0 ./../build/opteemin-programmer-uart-stm32mp157c-ed1/bl2/aeabi_uldivmod.o
 .bss           0x00000000        0x0 ./../build/opteemin-programmer-uart-stm32mp157c-ed1/bl2/aeabi_uldivmod.o
 .text          0x00000000        0x0 ./../build/opteemin-programmer-uart-stm32mp157c-ed1/bl2/cortex_a7.o
 .data          0x00000000        0x0 ./../build/opteemin-programmer-uart-stm32mp157c-ed1/bl2/cortex_a7.o
 .bss           0x00000000        0x0 ./../build/opteemin-programmer-uart-stm32mp157c-ed1/bl2/cortex_a7.o
 .text.asm.cortex_a7_disable_smp
                0x00000000       0x18 ./../build/opteemin-programmer-uart-stm32mp157c-ed1/bl2/cortex_a7.o
 .text.asm.cortex_a7_core_pwr_dwn
                0x00000000       0x30 ./../build/opteemin-programmer-uart-stm32mp157c-ed1/bl2/cortex_a7.o
 .rodata.str1.1
                0x00000000       0x1d ./../build/opteemin-programmer-uart-stm32mp157c-ed1/bl2/cortex_a7.o
 .text.asm.cortex_a7_cluster_pwr_dwn
                0x00000000       0x3c ./../build/opteemin-programmer-uart-stm32mp157c-ed1/bl2/cortex_a7.o
 .text          0x00000000        0x0 ./../build/opteemin-programmer-uart-stm32mp157c-ed1/bl2/cpu_helpers.o
 .data          0x00000000        0x0 ./../build/opteemin-programmer-uart-stm32mp157c-ed1/bl2/cpu_helpers.o
 .bss           0x00000000        0x0 ./../build/opteemin-programmer-uart-stm32mp157c-ed1/bl2/cpu_helpers.o
 .text.asm.cpu_get_rev_var
                0x00000000       0x10 ./../build/opteemin-programmer-uart-stm32mp157c-ed1/bl2/cpu_helpers.o
 .text.asm.cpu_rev_var_ls
                0x00000000       0x10 ./../build/opteemin-programmer-uart-stm32mp157c-ed1/bl2/cpu_helpers.o
 .text.asm.cpu_rev_var_hs
                0x00000000       0x10 ./../build/opteemin-programmer-uart-stm32mp157c-ed1/bl2/cpu_helpers.o
 .text          0x00000000        0x0 ./../build/opteemin-programmer-uart-stm32mp157c-ed1/bl2/spinlock.o
 .data          0x00000000        0x0 ./../build/opteemin-programmer-uart-stm32mp157c-ed1/bl2/spinlock.o
 .bss           0x00000000        0x0 ./../build/opteemin-programmer-uart-stm32mp157c-ed1/bl2/spinlock.o
 .text          0x00000000        0x0 ./../build/opteemin-programmer-uart-stm32mp157c-ed1/bl2/enable_mmu.o
 .data          0x00000000        0x0 ./../build/opteemin-programmer-uart-stm32mp157c-ed1/bl2/enable_mmu.o
 .bss           0x00000000        0x0 ./../build/opteemin-programmer-uart-stm32mp157c-ed1/bl2/enable_mmu.o
 .text.asm.enable_mmu_direct_hyp
                0x00000000       0x74 ./../build/opteemin-programmer-uart-stm32mp157c-ed1/bl2/enable_mmu.o
 .text          0x00000000        0x0 ./../build/opteemin-programmer-uart-stm32mp157c-ed1/bl2/platform_helpers.o
 .data          0x00000000        0x0 ./../build/opteemin-programmer-uart-stm32mp157c-ed1/bl2/platform_helpers.o
 .bss           0x00000000        0x0 ./../build/opteemin-programmer-uart-stm32mp157c-ed1/bl2/platform_helpers.o
 .text.asm.plat_report_exception
                0x00000000        0x4 ./../build/opteemin-programmer-uart-stm32mp157c-ed1/bl2/platform_helpers.o
 .text.asm.plat_report_prefetch_abort
                0x00000000        0x4 ./../build/opteemin-programmer-uart-stm32mp157c-ed1/bl2/platform_helpers.o
 .text.asm.plat_report_data_abort
                0x00000000        0x4 ./../build/opteemin-programmer-uart-stm32mp157c-ed1/bl2/platform_helpers.o
 .text.asm.plat_reset_handler
                0x00000000        0x4 ./../build/opteemin-programmer-uart-stm32mp157c-ed1/bl2/platform_helpers.o
 .text.asm.plat_disable_acp
                0x00000000        0x4 ./../build/opteemin-programmer-uart-stm32mp157c-ed1/bl2/platform_helpers.o
 .text.asm.platform_mem_init
                0x00000000        0x4 ./../build/opteemin-programmer-uart-stm32mp157c-ed1/bl2/platform_helpers.o
 .text.asm.bl1_plat_prepare_exit
                0x00000000        0x4 ./../build/opteemin-programmer-uart-stm32mp157c-ed1/bl2/platform_helpers.o
 .text.asm.plat_panic_handler
                0x00000000        0x4 ./../build/opteemin-programmer-uart-stm32mp157c-ed1/bl2/platform_helpers.o
 .debug_line    0x00000000       0xc3 ./../build/opteemin-programmer-uart-stm32mp157c-ed1/bl2/platform_helpers.o
 .debug_info    0x00000000       0x7c ./../build/opteemin-programmer-uart-stm32mp157c-ed1/bl2/platform_helpers.o
 .debug_abbrev  0x00000000       0x24 ./../build/opteemin-programmer-uart-stm32mp157c-ed1/bl2/platform_helpers.o
 .debug_aranges
                0x00000000       0x58 ./../build/opteemin-programmer-uart-stm32mp157c-ed1/bl2/platform_helpers.o
 .debug_str     0x00000000       0xff ./../build/opteemin-programmer-uart-stm32mp157c-ed1/bl2/platform_helpers.o
 .debug_ranges  0x00000000       0x50 ./../build/opteemin-programmer-uart-stm32mp157c-ed1/bl2/platform_helpers.o
 .debug_frame   0x00000000       0x90 ./../build/opteemin-programmer-uart-stm32mp157c-ed1/bl2/platform_helpers.o
 .ARM.attributes
                0x00000000       0x27 ./../build/opteemin-programmer-uart-stm32mp157c-ed1/bl2/platform_helpers.o
 .text          0x00000000        0x0 ./../build/opteemin-programmer-uart-stm32mp157c-ed1/bl2/platform_up_stack.o
 .data          0x00000000        0x0 ./../build/opteemin-programmer-uart-stm32mp157c-ed1/bl2/platform_up_stack.o
 .bss           0x00000000        0x0 ./../build/opteemin-programmer-uart-stm32mp157c-ed1/bl2/platform_up_stack.o
 .text.asm.plat_get_my_stack
                0x00000000        0xc ./../build/opteemin-programmer-uart-stm32mp157c-ed1/bl2/platform_up_stack.o
 .text          0x00000000        0x0 ./../build/opteemin-programmer-uart-stm32mp157c-ed1/bl2/stm32mp1_critic_power_wrapper.o
 .bss           0x00000000        0x0 ./../build/opteemin-programmer-uart-stm32mp157c-ed1/bl2/stm32mp1_critic_power_wrapper.o
 .text          0x00000000        0x0 ./../build/opteemin-programmer-uart-stm32mp157c-ed1/bl2/stm32mp1_helper.o
 .data          0x00000000        0x0 ./../build/opteemin-programmer-uart-stm32mp157c-ed1/bl2/stm32mp1_helper.o
 .bss           0x00000000        0x0 ./../build/opteemin-programmer-uart-stm32mp157c-ed1/bl2/stm32mp1_helper.o
 .text.asm.plat_stm32mp1_get_core_pos
                0x00000000       0x10 ./../build/opteemin-programmer-uart-stm32mp157c-ed1/bl2/stm32mp1_helper.o
 .text.asm.plat_my_core_pos
                0x00000000        0x8 ./../build/opteemin-programmer-uart-stm32mp157c-ed1/bl2/stm32mp1_helper.o
 .text          0x00000000        0x0 ./../build/opteemin-programmer-uart-stm32mp157c-ed1/lib/libfdt.a(fdt.o)
 .data          0x00000000        0x0 ./../build/opteemin-programmer-uart-stm32mp157c-ed1/lib/libfdt.a(fdt.o)
 .bss           0x00000000        0x0 ./../build/opteemin-programmer-uart-stm32mp157c-ed1/lib/libfdt.a(fdt.o)
 .text.fdt_find_string_
                0x00000000       0x30 ./../build/opteemin-programmer-uart-stm32mp157c-ed1/lib/libfdt.a(fdt.o)
 .text.fdt_move
                0x00000000       0x30 ./../build/opteemin-programmer-uart-stm32mp157c-ed1/lib/libfdt.a(fdt.o)
 .text          0x00000000        0x0 ./../build/opteemin-programmer-uart-stm32mp157c-ed1/lib/libfdt.a(fdt_addresses.o)
 .data          0x00000000        0x0 ./../build/opteemin-programmer-uart-stm32mp157c-ed1/lib/libfdt.a(fdt_addresses.o)
 .bss           0x00000000        0x0 ./../build/opteemin-programmer-uart-stm32mp157c-ed1/lib/libfdt.a(fdt_addresses.o)
 .rodata.fdt_size_cells.str1.1
                0x00000000        0xc ./../build/opteemin-programmer-uart-stm32mp157c-ed1/lib/libfdt.a(fdt_addresses.o)
 .text.fdt_size_cells
                0x00000000       0x14 ./../build/opteemin-programmer-uart-stm32mp157c-ed1/lib/libfdt.a(fdt_addresses.o)
 .text.fdt_appendprop_addrrange
                0x00000000       0xce ./../build/opteemin-programmer-uart-stm32mp157c-ed1/lib/libfdt.a(fdt_addresses.o)
 .text          0x00000000        0x0 ./../build/opteemin-programmer-uart-stm32mp157c-ed1/lib/libfdt.a(fdt_ro.o)
 .data          0x00000000        0x0 ./../build/opteemin-programmer-uart-stm32mp157c-ed1/lib/libfdt.a(fdt_ro.o)
 .bss           0x00000000        0x0 ./../build/opteemin-programmer-uart-stm32mp157c-ed1/lib/libfdt.a(fdt_ro.o)
 .text.fdt64_ld_
                0x00000000        0xa ./../build/opteemin-programmer-uart-stm32mp157c-ed1/lib/libfdt.a(fdt_ro.o)
 .text.fdt_mem_rsv
                0x00000000       0x24 ./../build/opteemin-programmer-uart-stm32mp157c-ed1/lib/libfdt.a(fdt_ro.o)
 .text.fdt_string
                0x00000000        0x6 ./../build/opteemin-programmer-uart-stm32mp157c-ed1/lib/libfdt.a(fdt_ro.o)
 .text.fdt_get_mem_rsv
                0x00000000       0x3c ./../build/opteemin-programmer-uart-stm32mp157c-ed1/lib/libfdt.a(fdt_ro.o)
 .text.fdt_num_mem_rsv
                0x00000000       0x26 ./../build/opteemin-programmer-uart-stm32mp157c-ed1/lib/libfdt.a(fdt_ro.o)
 .text.fdt_get_property_by_offset
                0x00000000       0x28 ./../build/opteemin-programmer-uart-stm32mp157c-ed1/lib/libfdt.a(fdt_ro.o)
 .text.fdt_get_property_namelen
                0x00000000       0x34 ./../build/opteemin-programmer-uart-stm32mp157c-ed1/lib/libfdt.a(fdt_ro.o)
 .text.fdt_get_property
                0x00000000       0x22 ./../build/opteemin-programmer-uart-stm32mp157c-ed1/lib/libfdt.a(fdt_ro.o)
 .text.fdt_getprop_by_offset
                0x00000000       0x68 ./../build/opteemin-programmer-uart-stm32mp157c-ed1/lib/libfdt.a(fdt_ro.o)
 .text.fdt_find_max_phandle
                0x00000000       0x3c ./../build/opteemin-programmer-uart-stm32mp157c-ed1/lib/libfdt.a(fdt_ro.o)
 .text.fdt_generate_phandle
                0x00000000       0x28 ./../build/opteemin-programmer-uart-stm32mp157c-ed1/lib/libfdt.a(fdt_ro.o)
 .text.fdt_get_alias
                0x00000000       0x1a ./../build/opteemin-programmer-uart-stm32mp157c-ed1/lib/libfdt.a(fdt_ro.o)
 .text.fdt_get_path
                0x00000000       0xca ./../build/opteemin-programmer-uart-stm32mp157c-ed1/lib/libfdt.a(fdt_ro.o)
 .text.fdt_node_offset_by_prop_value
                0x00000000       0x58 ./../build/opteemin-programmer-uart-stm32mp157c-ed1/lib/libfdt.a(fdt_ro.o)
 .text.fdt_stringlist_count
                0x00000000       0x38 ./../build/opteemin-programmer-uart-stm32mp157c-ed1/lib/libfdt.a(fdt_ro.o)
 .text.fdt_stringlist_get
                0x00000000       0x5c ./../build/opteemin-programmer-uart-stm32mp157c-ed1/lib/libfdt.a(fdt_ro.o)
 .text          0x00000000        0x0 ./../build/opteemin-programmer-uart-stm32mp157c-ed1/lib/libfdt.a(fdt_rw.o)
 .data          0x00000000        0x0 ./../build/opteemin-programmer-uart-stm32mp157c-ed1/lib/libfdt.a(fdt_rw.o)
 .bss           0x00000000        0x0 ./../build/opteemin-programmer-uart-stm32mp157c-ed1/lib/libfdt.a(fdt_rw.o)
 .text.cpu_to_fdt32
                0x00000000        0x4 ./../build/opteemin-programmer-uart-stm32mp157c-ed1/lib/libfdt.a(fdt_rw.o)
 .text.cpu_to_fdt64
                0x00000000        0x8 ./../build/opteemin-programmer-uart-stm32mp157c-ed1/lib/libfdt.a(fdt_rw.o)
 .text.fdt32_ld
                0x00000000       0x18 ./../build/opteemin-programmer-uart-stm32mp157c-ed1/lib/libfdt.a(fdt_rw.o)
 .text.fdt_blocks_misordered_
                0x00000000       0x52 ./../build/opteemin-programmer-uart-stm32mp157c-ed1/lib/libfdt.a(fdt_rw.o)
 .text.fdt_splice_
                0x00000000       0x6a ./../build/opteemin-programmer-uart-stm32mp157c-ed1/lib/libfdt.a(fdt_rw.o)
 .text.fdt_splice_mem_rsv_
                0x00000000       0x3c ./../build/opteemin-programmer-uart-stm32mp157c-ed1/lib/libfdt.a(fdt_rw.o)
 .text.fdt_rw_probe_
                0x00000000       0x46 ./../build/opteemin-programmer-uart-stm32mp157c-ed1/lib/libfdt.a(fdt_rw.o)
 .text.fdt_packblocks_
                0x00000000       0x82 ./../build/opteemin-programmer-uart-stm32mp157c-ed1/lib/libfdt.a(fdt_rw.o)
 .text.fdt_splice_struct_
                0x00000000       0x36 ./../build/opteemin-programmer-uart-stm32mp157c-ed1/lib/libfdt.a(fdt_rw.o)
 .text.fdt_add_property_
                0x00000000       0xfc ./../build/opteemin-programmer-uart-stm32mp157c-ed1/lib/libfdt.a(fdt_rw.o)
 .text.fdt_add_mem_rsv
                0x00000000       0x56 ./../build/opteemin-programmer-uart-stm32mp157c-ed1/lib/libfdt.a(fdt_rw.o)
 .text.fdt_del_mem_rsv
                0x00000000       0x42 ./../build/opteemin-programmer-uart-stm32mp157c-ed1/lib/libfdt.a(fdt_rw.o)
 .text.fdt_set_name
                0x00000000       0x5a ./../build/opteemin-programmer-uart-stm32mp157c-ed1/lib/libfdt.a(fdt_rw.o)
 .text.fdt_setprop_placeholder
                0x00000000       0x7a ./../build/opteemin-programmer-uart-stm32mp157c-ed1/lib/libfdt.a(fdt_rw.o)
 .text.fdt_setprop
                0x00000000       0x26 ./../build/opteemin-programmer-uart-stm32mp157c-ed1/lib/libfdt.a(fdt_rw.o)
 .text.fdt_appendprop
                0x00000000       0x8a ./../build/opteemin-programmer-uart-stm32mp157c-ed1/lib/libfdt.a(fdt_rw.o)
 .text.fdt_delprop
                0x00000000       0x3e ./../build/opteemin-programmer-uart-stm32mp157c-ed1/lib/libfdt.a(fdt_rw.o)
 .text.fdt_add_subnode_namelen
                0x00000000       0xaa ./../build/opteemin-programmer-uart-stm32mp157c-ed1/lib/libfdt.a(fdt_rw.o)
 .text.fdt_add_subnode
                0x00000000       0x1e ./../build/opteemin-programmer-uart-stm32mp157c-ed1/lib/libfdt.a(fdt_rw.o)
 .text.fdt_del_node
                0x00000000       0x38 ./../build/opteemin-programmer-uart-stm32mp157c-ed1/lib/libfdt.a(fdt_rw.o)
 .text.fdt_open_into
                0x00000000      0x118 ./../build/opteemin-programmer-uart-stm32mp157c-ed1/lib/libfdt.a(fdt_rw.o)
 .text.fdt_pack
                0x00000000       0x56 ./../build/opteemin-programmer-uart-stm32mp157c-ed1/lib/libfdt.a(fdt_rw.o)
 .debug_info    0x00000000     0x2c00 ./../build/opteemin-programmer-uart-stm32mp157c-ed1/lib/libfdt.a(fdt_rw.o)
 .debug_abbrev  0x00000000      0x4a4 ./../build/opteemin-programmer-uart-stm32mp157c-ed1/lib/libfdt.a(fdt_rw.o)
 .debug_loc     0x00000000     0x229c ./../build/opteemin-programmer-uart-stm32mp157c-ed1/lib/libfdt.a(fdt_rw.o)
 .debug_aranges
                0x00000000       0xc8 ./../build/opteemin-programmer-uart-stm32mp157c-ed1/lib/libfdt.a(fdt_rw.o)
 .debug_ranges  0x00000000      0x420 ./../build/opteemin-programmer-uart-stm32mp157c-ed1/lib/libfdt.a(fdt_rw.o)
 .debug_line    0x00000000     0x104c ./../build/opteemin-programmer-uart-stm32mp157c-ed1/lib/libfdt.a(fdt_rw.o)
 .debug_str     0x00000000      0x85d ./../build/opteemin-programmer-uart-stm32mp157c-ed1/lib/libfdt.a(fdt_rw.o)
 .comment       0x00000000       0x13 ./../build/opteemin-programmer-uart-stm32mp157c-ed1/lib/libfdt.a(fdt_rw.o)
 .note.GNU-stack
                0x00000000        0x0 ./../build/opteemin-programmer-uart-stm32mp157c-ed1/lib/libfdt.a(fdt_rw.o)
 .debug_frame   0x00000000      0x2f8 ./../build/opteemin-programmer-uart-stm32mp157c-ed1/lib/libfdt.a(fdt_rw.o)
 .ARM.attributes
                0x00000000       0x33 ./../build/opteemin-programmer-uart-stm32mp157c-ed1/lib/libfdt.a(fdt_rw.o)
 .text          0x00000000        0x0 ./../build/opteemin-programmer-uart-stm32mp157c-ed1/lib/libfdt.a(fdt_strerror.o)
 .data          0x00000000        0x0 ./../build/opteemin-programmer-uart-stm32mp157c-ed1/lib/libfdt.a(fdt_strerror.o)
 .bss           0x00000000        0x0 ./../build/opteemin-programmer-uart-stm32mp157c-ed1/lib/libfdt.a(fdt_strerror.o)
 .rodata.fdt_strerror.str1.1
                0x00000000       0x31 ./../build/opteemin-programmer-uart-stm32mp157c-ed1/lib/libfdt.a(fdt_strerror.o)
 .text.fdt_strerror
                0x00000000       0x3c ./../build/opteemin-programmer-uart-stm32mp157c-ed1/lib/libfdt.a(fdt_strerror.o)
 .rodata.str1.1
                0x00000000      0x150 ./../build/opteemin-programmer-uart-stm32mp157c-ed1/lib/libfdt.a(fdt_strerror.o)
 .rodata.fdt_errtable
                0x00000000       0x50 ./../build/opteemin-programmer-uart-stm32mp157c-ed1/lib/libfdt.a(fdt_strerror.o)
 .debug_info    0x00000000       0xfe ./../build/opteemin-programmer-uart-stm32mp157c-ed1/lib/libfdt.a(fdt_strerror.o)
 .debug_abbrev  0x00000000       0xca ./../build/opteemin-programmer-uart-stm32mp157c-ed1/lib/libfdt.a(fdt_strerror.o)
 .debug_loc     0x00000000       0xd7 ./../build/opteemin-programmer-uart-stm32mp157c-ed1/lib/libfdt.a(fdt_strerror.o)
 .debug_aranges
                0x00000000       0x20 ./../build/opteemin-programmer-uart-stm32mp157c-ed1/lib/libfdt.a(fdt_strerror.o)
 .debug_ranges  0x00000000       0x28 ./../build/opteemin-programmer-uart-stm32mp157c-ed1/lib/libfdt.a(fdt_strerror.o)
 .debug_line    0x00000000       0x89 ./../build/opteemin-programmer-uart-stm32mp157c-ed1/lib/libfdt.a(fdt_strerror.o)
 .debug_str     0x00000000      0x1f2 ./../build/opteemin-programmer-uart-stm32mp157c-ed1/lib/libfdt.a(fdt_strerror.o)
 .comment       0x00000000       0x13 ./../build/opteemin-programmer-uart-stm32mp157c-ed1/lib/libfdt.a(fdt_strerror.o)
 .note.GNU-stack
                0x00000000        0x0 ./../build/opteemin-programmer-uart-stm32mp157c-ed1/lib/libfdt.a(fdt_strerror.o)
 .debug_frame   0x00000000       0x20 ./../build/opteemin-programmer-uart-stm32mp157c-ed1/lib/libfdt.a(fdt_strerror.o)
 .ARM.attributes
                0x00000000       0x33 ./../build/opteemin-programmer-uart-stm32mp157c-ed1/lib/libfdt.a(fdt_strerror.o)
 .text          0x00000000        0x0 ./../build/opteemin-programmer-uart-stm32mp157c-ed1/lib/libfdt.a(fdt_wip.o)
 .data          0x00000000        0x0 ./../build/opteemin-programmer-uart-stm32mp157c-ed1/lib/libfdt.a(fdt_wip.o)
 .bss           0x00000000        0x0 ./../build/opteemin-programmer-uart-stm32mp157c-ed1/lib/libfdt.a(fdt_wip.o)
 .text.fdt_setprop_inplace_namelen_partial
                0x00000000       0x30 ./../build/opteemin-programmer-uart-stm32mp157c-ed1/lib/libfdt.a(fdt_wip.o)
 .text.fdt_setprop_inplace
                0x00000000       0x4a ./../build/opteemin-programmer-uart-stm32mp157c-ed1/lib/libfdt.a(fdt_wip.o)
 .text.fdt_nop_property
                0x00000000       0x2c ./../build/opteemin-programmer-uart-stm32mp157c-ed1/lib/libfdt.a(fdt_wip.o)
 .text.fdt_node_end_offset_
                0x00000000       0x20 ./../build/opteemin-programmer-uart-stm32mp157c-ed1/lib/libfdt.a(fdt_wip.o)
 .text.fdt_nop_node
                0x00000000       0x30 ./../build/opteemin-programmer-uart-stm32mp157c-ed1/lib/libfdt.a(fdt_wip.o)
 .debug_info    0x00000000      0x86e ./../build/opteemin-programmer-uart-stm32mp157c-ed1/lib/libfdt.a(fdt_wip.o)
 .debug_abbrev  0x00000000      0x269 ./../build/opteemin-programmer-uart-stm32mp157c-ed1/lib/libfdt.a(fdt_wip.o)
 .debug_loc     0x00000000      0x615 ./../build/opteemin-programmer-uart-stm32mp157c-ed1/lib/libfdt.a(fdt_wip.o)
 .debug_aranges
                0x00000000       0x40 ./../build/opteemin-programmer-uart-stm32mp157c-ed1/lib/libfdt.a(fdt_wip.o)
 .debug_ranges  0x00000000       0x90 ./../build/opteemin-programmer-uart-stm32mp157c-ed1/lib/libfdt.a(fdt_wip.o)
 .debug_line    0x00000000      0x2d8 ./../build/opteemin-programmer-uart-stm32mp157c-ed1/lib/libfdt.a(fdt_wip.o)
 .debug_str     0x00000000      0x378 ./../build/opteemin-programmer-uart-stm32mp157c-ed1/lib/libfdt.a(fdt_wip.o)
 .comment       0x00000000       0x13 ./../build/opteemin-programmer-uart-stm32mp157c-ed1/lib/libfdt.a(fdt_wip.o)
 .note.GNU-stack
                0x00000000        0x0 ./../build/opteemin-programmer-uart-stm32mp157c-ed1/lib/libfdt.a(fdt_wip.o)
 .debug_frame   0x00000000       0xb4 ./../build/opteemin-programmer-uart-stm32mp157c-ed1/lib/libfdt.a(fdt_wip.o)
 .ARM.attributes
                0x00000000       0x33 ./../build/opteemin-programmer-uart-stm32mp157c-ed1/lib/libfdt.a(fdt_wip.o)
 .text          0x00000000        0x0 ./../build/opteemin-programmer-uart-stm32mp157c-ed1/lib/libc.a(assert.o)
 .data          0x00000000        0x0 ./../build/opteemin-programmer-uart-stm32mp157c-ed1/lib/libc.a(assert.o)
 .bss           0x00000000        0x0 ./../build/opteemin-programmer-uart-stm32mp157c-ed1/lib/libc.a(assert.o)
 .text          0x00000000        0x0 ./../build/opteemin-programmer-uart-stm32mp157c-ed1/lib/libc.a(memchr.o)
 .data          0x00000000        0x0 ./../build/opteemin-programmer-uart-stm32mp157c-ed1/lib/libc.a(memchr.o)
 .bss           0x00000000        0x0 ./../build/opteemin-programmer-uart-stm32mp157c-ed1/lib/libc.a(memchr.o)
 .text          0x00000000        0x0 ./../build/opteemin-programmer-uart-stm32mp157c-ed1/lib/libc.a(memcmp.o)
 .data          0x00000000        0x0 ./../build/opteemin-programmer-uart-stm32mp157c-ed1/lib/libc.a(memcmp.o)
 .bss           0x00000000        0x0 ./../build/opteemin-programmer-uart-stm32mp157c-ed1/lib/libc.a(memcmp.o)
 .text          0x00000000        0x0 ./../build/opteemin-programmer-uart-stm32mp157c-ed1/lib/libc.a(memcpy.o)
 .data          0x00000000        0x0 ./../build/opteemin-programmer-uart-stm32mp157c-ed1/lib/libc.a(memcpy.o)
 .bss           0x00000000        0x0 ./../build/opteemin-programmer-uart-stm32mp157c-ed1/lib/libc.a(memcpy.o)
 .text          0x00000000        0x0 ./../build/opteemin-programmer-uart-stm32mp157c-ed1/lib/libc.a(memmove.o)
 .data          0x00000000        0x0 ./../build/opteemin-programmer-uart-stm32mp157c-ed1/lib/libc.a(memmove.o)
 .bss           0x00000000        0x0 ./../build/opteemin-programmer-uart-stm32mp157c-ed1/lib/libc.a(memmove.o)
 .text          0x00000000        0x0 ./../build/opteemin-programmer-uart-stm32mp157c-ed1/lib/libc.a(memset.o)
 .data          0x00000000        0x0 ./../build/opteemin-programmer-uart-stm32mp157c-ed1/lib/libc.a(memset.o)
 .bss           0x00000000        0x0 ./../build/opteemin-programmer-uart-stm32mp157c-ed1/lib/libc.a(memset.o)
 .text          0x00000000        0x0 ./../build/opteemin-programmer-uart-stm32mp157c-ed1/lib/libc.a(printf.o)
 .data          0x00000000        0x0 ./../build/opteemin-programmer-uart-stm32mp157c-ed1/lib/libc.a(printf.o)
 .bss           0x00000000        0x0 ./../build/opteemin-programmer-uart-stm32mp157c-ed1/lib/libc.a(printf.o)
 .text          0x00000000        0x0 ./../build/opteemin-programmer-uart-stm32mp157c-ed1/lib/libc.a(snprintf.o)
 .data          0x00000000        0x0 ./../build/opteemin-programmer-uart-stm32mp157c-ed1/lib/libc.a(snprintf.o)
 .bss           0x00000000        0x0 ./../build/opteemin-programmer-uart-stm32mp157c-ed1/lib/libc.a(snprintf.o)
 .text          0x00000000        0x0 ./../build/opteemin-programmer-uart-stm32mp157c-ed1/lib/libc.a(strchr.o)
 .data          0x00000000        0x0 ./../build/opteemin-programmer-uart-stm32mp157c-ed1/lib/libc.a(strchr.o)
 .bss           0x00000000        0x0 ./../build/opteemin-programmer-uart-stm32mp157c-ed1/lib/libc.a(strchr.o)
 .text          0x00000000        0x0 ./../build/opteemin-programmer-uart-stm32mp157c-ed1/lib/libc.a(strcmp.o)
 .data          0x00000000        0x0 ./../build/opteemin-programmer-uart-stm32mp157c-ed1/lib/libc.a(strcmp.o)
 .bss           0x00000000        0x0 ./../build/opteemin-programmer-uart-stm32mp157c-ed1/lib/libc.a(strcmp.o)
 .text          0x00000000        0x0 ./../build/opteemin-programmer-uart-stm32mp157c-ed1/lib/libc.a(strlcpy.o)
 .data          0x00000000        0x0 ./../build/opteemin-programmer-uart-stm32mp157c-ed1/lib/libc.a(strlcpy.o)
 .bss           0x00000000        0x0 ./../build/opteemin-programmer-uart-stm32mp157c-ed1/lib/libc.a(strlcpy.o)
 .text          0x00000000        0x0 ./../build/opteemin-programmer-uart-stm32mp157c-ed1/lib/libc.a(strlen.o)
 .data          0x00000000        0x0 ./../build/opteemin-programmer-uart-stm32mp157c-ed1/lib/libc.a(strlen.o)
 .bss           0x00000000        0x0 ./../build/opteemin-programmer-uart-stm32mp157c-ed1/lib/libc.a(strlen.o)
 .text          0x00000000        0x0 ./../build/opteemin-programmer-uart-stm32mp157c-ed1/lib/libc.a(strncmp.o)
 .data          0x00000000        0x0 ./../build/opteemin-programmer-uart-stm32mp157c-ed1/lib/libc.a(strncmp.o)
 .bss           0x00000000        0x0 ./../build/opteemin-programmer-uart-stm32mp157c-ed1/lib/libc.a(strncmp.o)
 .text          0x00000000        0x0 ./../build/opteemin-programmer-uart-stm32mp157c-ed1/lib/libc.a(strnlen.o)
 .data          0x00000000        0x0 ./../build/opteemin-programmer-uart-stm32mp157c-ed1/lib/libc.a(strnlen.o)
 .bss           0x00000000        0x0 ./../build/opteemin-programmer-uart-stm32mp157c-ed1/lib/libc.a(strnlen.o)
 .text          0x00000000        0x0 ./../build/opteemin-programmer-uart-stm32mp157c-ed1/lib/libc.a(strrchr.o)
 .data          0x00000000        0x0 ./../build/opteemin-programmer-uart-stm32mp157c-ed1/lib/libc.a(strrchr.o)
 .bss           0x00000000        0x0 ./../build/opteemin-programmer-uart-stm32mp157c-ed1/lib/libc.a(strrchr.o)

Memory Configuration

Name             Origin             Length             Attributes
RAM              0x2ffe9000         0x00016000         xrw
*default*        0x00000000         0xffffffff

Linker script and memory map

                0x2ffe9000                        RAM_REGION_START = ORIGIN (RAM)
                0x00016000                        RAM_REGION_LENGTH = LENGTH (RAM)
                0x2ffe9000                        . = 0x2ffe9000
                0x00000001                        ASSERT ((. == ALIGN (0x1000)), BL2_BASE address is not aligned on a page boundary.)

.ro             0x2ffe9000     0xf000
                0x2ffe9000                        __RO_START__ = .
                0x2ffe9000                        __TEXT_RESIDENT_START__ = .
 *bl2_el3_entrypoint.o(SORT_BY_ALIGNMENT(.text*))
 .text.asm.bl2_entrypoint
                0x2ffe9000      0x160 ./../build/opteemin-programmer-uart-stm32mp157c-ed1/bl2/bl2_el3_entrypoint.o
                0x2ffe9000                bl2_entrypoint
 *(SORT_BY_ALIGNMENT(.text.asm.*))
 .text.asm.bl2_run_next_image
                0x2ffe9160       0x48 ./../build/opteemin-programmer-uart-stm32mp157c-ed1/bl2/bl2_run_next_image.o
                0x2ffe9160                bl2_run_next_image
 .text.asm.asm_assert
                0x2ffe91a8       0x7c ./../build/opteemin-programmer-uart-stm32mp157c-ed1/bl2/debug.o
                0x2ffe91a8                asm_assert
 .text.asm.asm_print_str
                0x2ffe9224       0x1c ./../build/opteemin-programmer-uart-stm32mp157c-ed1/bl2/debug.o
                0x2ffe9224                asm_print_str
 .text.asm.asm_print_hex
                0x2ffe9240       0x34 ./../build/opteemin-programmer-uart-stm32mp157c-ed1/bl2/debug.o
                0x2ffe9240                asm_print_hex
                0x2ffe9244                asm_print_hex_bits
 .text.asm.el3_panic
                0x2ffe9274       0x3c ./../build/opteemin-programmer-uart-stm32mp157c-ed1/bl2/debug.o
                0x2ffe9274                el3_panic
 .text.asm.report_exception
                0x2ffe92b0       0x14 ./../build/opteemin-programmer-uart-stm32mp157c-ed1/bl2/debug.o
                0x2ffe92b0                report_exception
 .text.asm.report_prefetch_abort
                0x2ffe92c4       0x10 ./../build/opteemin-programmer-uart-stm32mp157c-ed1/bl2/debug.o
                0x2ffe92c4                report_prefetch_abort
 .text.asm.report_data_abort
                0x2ffe92d4       0x10 ./../build/opteemin-programmer-uart-stm32mp157c-ed1/bl2/debug.o
                0x2ffe92d4                report_data_abort
 .text.asm.console_stm32_core_init
                0x2ffe92e4       0xac ./../build/opteemin-programmer-uart-stm32mp157c-ed1/bl2/stm32_console.o
                0x2ffe92e4                console_stm32_core_init
 .text.asm.console_stm32_register
                0x2ffe9390       0x50 ./../build/opteemin-programmer-uart-stm32mp157c-ed1/bl2/stm32_console.o
                0x2ffe9390                console_stm32_register
 .text.asm.console_stm32_core_putc
                0x2ffe93e0       0x24 ./../build/opteemin-programmer-uart-stm32mp157c-ed1/bl2/stm32_console.o
                0x2ffe93e0                console_stm32_core_putc
 .text.asm.console_stm32_putc
                0x2ffe9404       0x20 ./../build/opteemin-programmer-uart-stm32mp157c-ed1/bl2/stm32_console.o
                0x2ffe9404                console_stm32_putc
 .text.asm.console_stm32_core_flush
                0x2ffe9424       0x34 ./../build/opteemin-programmer-uart-stm32mp157c-ed1/bl2/stm32_console.o
                0x2ffe9424                console_stm32_core_flush
 .text.asm.console_stm32_flush
                0x2ffe9458       0x20 ./../build/opteemin-programmer-uart-stm32mp157c-ed1/bl2/stm32_console.o
                0x2ffe9458                console_stm32_flush
 .text.asm.flush_dcache_range
                0x2ffe9478       0x3c ./../build/opteemin-programmer-uart-stm32mp157c-ed1/bl2/cache_helpers.o
                0x2ffe9478                flush_dcache_range
 .text.asm.clean_dcache_range
                0x2ffe94b4       0x3c ./../build/opteemin-programmer-uart-stm32mp157c-ed1/bl2/cache_helpers.o
                0x2ffe94b4                clean_dcache_range
 .text.asm.inv_dcache_range
                0x2ffe94f0       0x3c ./../build/opteemin-programmer-uart-stm32mp157c-ed1/bl2/cache_helpers.o
                0x2ffe94f0                inv_dcache_range
 .text.asm.do_dcsw_op
                0x2ffe952c       0xc8 ./../build/opteemin-programmer-uart-stm32mp157c-ed1/bl2/cache_helpers.o
 .text.asm.dcsw_op_all
                0x2ffe95f4       0x14 ./../build/opteemin-programmer-uart-stm32mp157c-ed1/bl2/cache_helpers.o
                0x2ffe95f4                dcsw_op_all
 .text.asm.zeromem
                0x2ffe9608       0x64 ./../build/opteemin-programmer-uart-stm32mp157c-ed1/bl2/misc_helpers.o
                0x2ffe9608                zeromem
                0x2ffe9608                zero_normalmem
 .text.asm.disable_mmu_secure
                0x2ffe966c       0x1c ./../build/opteemin-programmer-uart-stm32mp157c-ed1/bl2/misc_helpers.o
                0x2ffe966c                disable_mmu_secure
 .text.asm.disable_mmu_icache_secure
                0x2ffe9688        0xc ./../build/opteemin-programmer-uart-stm32mp157c-ed1/bl2/misc_helpers.o
                0x2ffe9688                disable_mmu_icache_secure
 .text.asm.cortex_a7_enable_smp
                0x2ffe9694       0x14 ./../build/opteemin-programmer-uart-stm32mp157c-ed1/bl2/cortex_a7.o
 .text.asm.cortex_a7_reset_func
                0x2ffe96a8        0x4 ./../build/opteemin-programmer-uart-stm32mp157c-ed1/bl2/cortex_a7.o
 .text.asm.reset_handler
                0x2ffe96ac       0x38 ./../build/opteemin-programmer-uart-stm32mp157c-ed1/bl2/cpu_helpers.o
                0x2ffe96ac                reset_handler
 .text.asm.get_cpu_ops_ptr
                0x2ffe96e4       0x5c ./../build/opteemin-programmer-uart-stm32mp157c-ed1/bl2/cpu_helpers.o
                0x2ffe96e4                get_cpu_ops_ptr
 .text.asm.spin_lock
                0x2ffe9740       0x24 ./../build/opteemin-programmer-uart-stm32mp157c-ed1/bl2/spinlock.o
                0x2ffe9740                spin_lock
 .text.asm.spin_unlock
                0x2ffe9764       0x18 ./../build/opteemin-programmer-uart-stm32mp157c-ed1/bl2/spinlock.o
                0x2ffe9764                spin_unlock
 .text.asm.enable_mmu_direct_svc_mon
                0x2ffe977c       0x80 ./../build/opteemin-programmer-uart-stm32mp157c-ed1/bl2/enable_mmu.o
                0x2ffe977c                enable_mmu_direct_svc_mon
 .text.asm.plat_set_my_stack
                0x2ffe97fc       0x10 ./../build/opteemin-programmer-uart-stm32mp157c-ed1/bl2/platform_up_stack.o
                0x2ffe97fc                plat_set_my_stack
 .text.asm.stm32_pwr_down_wfi_wrapper
                0x2ffe980c       0x88 ./../build/opteemin-programmer-uart-stm32mp157c-ed1/bl2/stm32mp1_critic_power_wrapper.o
                0x2ffe980c                stm32_pwr_down_wfi_wrapper
 .text.asm.platform_mem_init
                0x2ffe9894        0x4 ./../build/opteemin-programmer-uart-stm32mp157c-ed1/bl2/stm32mp1_helper.o
                0x2ffe9894                platform_mem_init
 .text.asm.plat_report_exception
                0x2ffe9898       0x64 ./../build/opteemin-programmer-uart-stm32mp157c-ed1/bl2/stm32mp1_helper.o
                0x2ffe9898                plat_report_exception
 .text.asm.plat_report_prefetch_abort
                0x2ffe98fc       0x58 ./../build/opteemin-programmer-uart-stm32mp157c-ed1/bl2/stm32mp1_helper.o
                0x2ffe98fc                plat_report_prefetch_abort
 .text.asm.plat_report_data_abort
                0x2ffe9954       0x58 ./../build/opteemin-programmer-uart-stm32mp157c-ed1/bl2/stm32mp1_helper.o
                0x2ffe9954                plat_report_data_abort
 .text.asm.plat_reset_handler
                0x2ffe99ac        0x4 ./../build/opteemin-programmer-uart-stm32mp157c-ed1/bl2/stm32mp1_helper.o
                0x2ffe99ac                plat_reset_handler
 .text.asm.plat_get_my_entrypoint
                0x2ffe99b0        0x8 ./../build/opteemin-programmer-uart-stm32mp157c-ed1/bl2/stm32mp1_helper.o
                0x2ffe99b0                plat_get_my_entrypoint
 .text.asm.plat_secondary_cold_boot_setup
                0x2ffe99b8        0x4 ./../build/opteemin-programmer-uart-stm32mp157c-ed1/bl2/stm32mp1_helper.o
                0x2ffe99b8                plat_secondary_cold_boot_setup
 .text.asm.plat_is_my_cpu_primary
                0x2ffe99bc       0x20 ./../build/opteemin-programmer-uart-stm32mp157c-ed1/bl2/stm32mp1_helper.o
                0x2ffe99bc                plat_is_my_cpu_primary
 .text.asm.plat_crash_console_init
                0x2ffe99dc       0xc0 ./../build/opteemin-programmer-uart-stm32mp157c-ed1/bl2/stm32mp1_helper.o
                0x2ffe99dc                plat_crash_console_init
 .text.asm.plat_crash_console_flush
                0x2ffe9a9c        0xc ./../build/opteemin-programmer-uart-stm32mp157c-ed1/bl2/stm32mp1_helper.o
                0x2ffe9a9c                plat_crash_console_flush
 .text.asm.plat_crash_console_putc
                0x2ffe9aa8        0xc ./../build/opteemin-programmer-uart-stm32mp157c-ed1/bl2/stm32mp1_helper.o
                0x2ffe9aa8                plat_crash_console_putc
 .text.asm.plat_panic_handler
                0x2ffe9ab4       0x14 ./../build/opteemin-programmer-uart-stm32mp157c-ed1/bl2/stm32mp1_helper.o
                0x2ffe9ab4                plat_panic_handler
                0x2ffe9ac8                        __TEXT_RESIDENT_END__ = .
 *(SORT_BY_ALIGNMENT(.text*))
 .text.bl2_load_images
                0x2ffe9ac8      0x118 ./../build/opteemin-programmer-uart-stm32mp157c-ed1/bl2/bl2_image_load_v2.o
                0x2ffe9ac8                bl2_load_images
 .text.bl2_main
                0x2ffe9be0       0x4c ./../build/opteemin-programmer-uart-stm32mp157c-ed1/bl2/bl2_main.o
                0x2ffe9be0                bl2_main
 .text.load_auth_image
                0x2ffe9c2c      0x114 ./../build/opteemin-programmer-uart-stm32mp157c-ed1/bl2/bl_common.o
                0x2ffe9c2c                load_auth_image
 .text.print_entry_point_info
                0x2ffe9d40       0x20 ./../build/opteemin-programmer-uart-stm32mp157c-ed1/bl2/bl_common.o
                0x2ffe9d40                print_entry_point_info
 .text.flush_bl_params_desc_args
                0x2ffe9d60       0x34 ./../build/opteemin-programmer-uart-stm32mp157c-ed1/bl2/desc_image_load.o
                0x2ffe9d60                flush_bl_params_desc_args
 .text.flush_bl_params_desc
                0x2ffe9d94       0x1c ./../build/opteemin-programmer-uart-stm32mp157c-ed1/bl2/desc_image_load.o
                0x2ffe9d94                flush_bl_params_desc
 .text.get_bl_params_node_index
                0x2ffe9db0       0x44 ./../build/opteemin-programmer-uart-stm32mp157c-ed1/bl2/desc_image_load.o
                0x2ffe9db0                get_bl_params_node_index
 .text.get_bl_mem_params_node
                0x2ffe9df4       0x30 ./../build/opteemin-programmer-uart-stm32mp157c-ed1/bl2/desc_image_load.o
                0x2ffe9df4                get_bl_mem_params_node
 .text.get_bl_load_info_from_mem_params_desc
                0x2ffe9e24       0x50 ./../build/opteemin-programmer-uart-stm32mp157c-ed1/bl2/desc_image_load.o
                0x2ffe9e24                get_bl_load_info_from_mem_params_desc
 .text.get_next_bl_params_from_mem_params_desc
                0x2ffe9e74       0xc0 ./../build/opteemin-programmer-uart-stm32mp157c-ed1/bl2/desc_image_load.o
                0x2ffe9e74                get_next_bl_params_from_mem_params_desc
 .text.populate_next_bl_params_config
                0x2ffe9f34       0x68 ./../build/opteemin-programmer-uart-stm32mp157c-ed1/bl2/desc_image_load.o
                0x2ffe9f34                populate_next_bl_params_config
 .text.fdt_read_uint32_array
                0x2ffe9f9c       0x70 ./../build/opteemin-programmer-uart-stm32mp157c-ed1/bl2/fdt_wrappers.o
                0x2ffe9f9c                fdt_read_uint32_array
 .text.fdtw_read_string
                0x2ffea00c       0x88 ./../build/opteemin-programmer-uart-stm32mp157c-ed1/bl2/fdt_wrappers.o
                0x2ffea00c                fdtw_read_string
 .text.fdtw_read_uuid
                0x2ffea094       0x54 ./../build/opteemin-programmer-uart-stm32mp157c-ed1/bl2/fdt_wrappers.o
                0x2ffea094                fdtw_read_uuid
 .text.fdt_get_stdout_node_offset
                0x2ffea0e8       0x74 ./../build/opteemin-programmer-uart-stm32mp157c-ed1/bl2/fdt_wrappers.o
                0x2ffea0e8                fdt_get_stdout_node_offset
 .text.tf_log   0x2ffea15c       0x5c ./../build/opteemin-programmer-uart-stm32mp157c-ed1/bl2/tf_log.o
                0x2ffea15c                tf_log
 .text.read_uuid
                0x2ffea1b8       0xc8 ./../build/opteemin-programmer-uart-stm32mp157c-ed1/bl2/uuid.o
                0x2ffea1b8                read_uuid
 .text.tzc400_set_action
                0x2ffea280       0x24 ./../build/opteemin-programmer-uart-stm32mp157c-ed1/bl2/tzc400.o
                0x2ffea280                tzc400_set_action
 .text.tzc400_init
                0x2ffea2a4       0x5c ./../build/opteemin-programmer-uart-stm32mp157c-ed1/bl2/tzc400.o
                0x2ffea2a4                tzc400_init
 .text.tzc400_configure_region0
                0x2ffea300       0x2c ./../build/opteemin-programmer-uart-stm32mp157c-ed1/bl2/tzc400.o
                0x2ffea300                tzc400_configure_region0
 .text.tzc400_configure_region
                0x2ffea32c       0xc4 ./../build/opteemin-programmer-uart-stm32mp157c-ed1/bl2/tzc400.o
                0x2ffea32c                tzc400_configure_region
 .text.tzc400_update_filters
                0x2ffea3f0       0x44 ./../build/opteemin-programmer-uart-stm32mp157c-ed1/bl2/tzc400.o
                0x2ffea3f0                tzc400_update_filters
 .text.tzc400_enable_filters
                0x2ffea434       0x68 ./../build/opteemin-programmer-uart-stm32mp157c-ed1/bl2/tzc400.o
                0x2ffea434                tzc400_enable_filters
 .text.tzc400_disable_filters
                0x2ffea49c       0x50 ./../build/opteemin-programmer-uart-stm32mp157c-ed1/bl2/tzc400.o
                0x2ffea49c                tzc400_disable_filters
 .text.clk_enable
                0x2ffea4ec       0x24 ./../build/opteemin-programmer-uart-stm32mp157c-ed1/bl2/clk.o
                0x2ffea4ec                clk_enable
 .text.clk_disable
                0x2ffea510       0x24 ./../build/opteemin-programmer-uart-stm32mp157c-ed1/bl2/clk.o
                0x2ffea510                clk_disable
 .text.clk_get_rate
                0x2ffea534       0x24 ./../build/opteemin-programmer-uart-stm32mp157c-ed1/bl2/clk.o
                0x2ffea534                clk_get_rate
 .text.clk_is_enabled
                0x2ffea558       0x24 ./../build/opteemin-programmer-uart-stm32mp157c-ed1/bl2/clk.o
                0x2ffea558                clk_is_enabled
 .text.clk_register
                0x2ffea57c       0x30 ./../build/opteemin-programmer-uart-stm32mp157c-ed1/bl2/clk.o
                0x2ffea57c                clk_register
 .text.console_is_registered
                0x2ffea5ac       0x28 ./../build/opteemin-programmer-uart-stm32mp157c-ed1/bl2/multi_console.o
                0x2ffea5ac                console_is_registered
 .text.console_register
                0x2ffea5d4       0x40 ./../build/opteemin-programmer-uart-stm32mp157c-ed1/bl2/multi_console.o
                0x2ffea5d4                console_register
 .text.console_set_scope
                0x2ffea614       0x1c ./../build/opteemin-programmer-uart-stm32mp157c-ed1/bl2/multi_console.o
                0x2ffea614                console_set_scope
 .text.console_putc
                0x2ffea630       0x58 ./../build/opteemin-programmer-uart-stm32mp157c-ed1/bl2/multi_console.o
                0x2ffea630                console_putc
 .text.console_flush
                0x2ffea688       0x28 ./../build/opteemin-programmer-uart-stm32mp157c-ed1/bl2/multi_console.o
                0x2ffea688                console_flush
 .text.udelay   0x2ffea6b0       0x70 ./../build/opteemin-programmer-uart-stm32mp157c-ed1/bl2/delay_timer.o
                0x2ffea6b0                udelay
 .text.timer_init
                0x2ffea720       0x28 ./../build/opteemin-programmer-uart-stm32mp157c-ed1/bl2/delay_timer.o
                0x2ffea720                timer_init
 .text.generic_delay_timer_init_args
                0x2ffea748       0x18 ./../build/opteemin-programmer-uart-stm32mp157c-ed1/bl2/generic_delay_timer.o
                0x2ffea748                generic_delay_timer_init_args
 .text.generic_delay_timer_init
                0x2ffea760       0x54 ./../build/opteemin-programmer-uart-stm32mp157c-ed1/bl2/generic_delay_timer.o
                0x2ffea760                generic_delay_timer_init
 .text.fip_file_close
                0x2ffea7b4       0x20 ./../build/opteemin-programmer-uart-stm32mp157c-ed1/bl2/io_fip.o
 .text.fip_dev_init
                0x2ffea7d4       0x9c ./../build/opteemin-programmer-uart-stm32mp157c-ed1/bl2/io_fip.o
 .text.fip_file_read
                0x2ffea870       0xb4 ./../build/opteemin-programmer-uart-stm32mp157c-ed1/bl2/io_fip.o
 .text.fip_file_len
                0x2ffea924       0x24 ./../build/opteemin-programmer-uart-stm32mp157c-ed1/bl2/io_fip.o
 .text.fip_file_open
                0x2ffea948       0xf0 ./../build/opteemin-programmer-uart-stm32mp157c-ed1/bl2/io_fip.o
 .text.fip_dev_close
                0x2ffeaa38       0x50 ./../build/opteemin-programmer-uart-stm32mp157c-ed1/bl2/io_fip.o
 .text.fip_dev_open
                0x2ffeaa88       0x4c ./../build/opteemin-programmer-uart-stm32mp157c-ed1/bl2/io_fip.o
 .text.register_io_dev_fip
                0x2ffeaad4       0x2c ./../build/opteemin-programmer-uart-stm32mp157c-ed1/bl2/io_fip.o
                0x2ffeaad4                register_io_dev_fip
 .text.memmap_block_write
                0x2ffeab00       0x60 ./../build/opteemin-programmer-uart-stm32mp157c-ed1/bl2/io_memmap.o
 .text.memmap_block_read
                0x2ffeab60       0x64 ./../build/opteemin-programmer-uart-stm32mp157c-ed1/bl2/io_memmap.o
 .text.memmap_dev_open
                0x2ffeabc4       0x1c ./../build/opteemin-programmer-uart-stm32mp157c-ed1/bl2/io_memmap.o
 .text.memmap_block_len
                0x2ffeabe0       0x20 ./../build/opteemin-programmer-uart-stm32mp157c-ed1/bl2/io_memmap.o
 .text.memmap_block_seek
                0x2ffeac00       0x38 ./../build/opteemin-programmer-uart-stm32mp157c-ed1/bl2/io_memmap.o
 .text.memmap_block_close
                0x2ffeac38       0x24 ./../build/opteemin-programmer-uart-stm32mp157c-ed1/bl2/io_memmap.o
 .text.memmap_block_open
                0x2ffeac5c       0x4c ./../build/opteemin-programmer-uart-stm32mp157c-ed1/bl2/io_memmap.o
 .text.register_io_dev_memmap
                0x2ffeaca8       0x28 ./../build/opteemin-programmer-uart-stm32mp157c-ed1/bl2/io_memmap.o
                0x2ffeaca8                register_io_dev_memmap
 .text.free_entity.isra.0
                0x2ffeacd0       0x40 ./../build/opteemin-programmer-uart-stm32mp157c-ed1/bl2/io_storage.o
 .text.io_register_device
                0x2ffead10       0x28 ./../build/opteemin-programmer-uart-stm32mp157c-ed1/bl2/io_storage.o
                0x2ffead10                io_register_device
 .text.io_dev_open
                0x2ffead38       0x28 ./../build/opteemin-programmer-uart-stm32mp157c-ed1/bl2/io_storage.o
                0x2ffead38                io_dev_open
 .text.io_dev_init
                0x2ffead60       0x34 ./../build/opteemin-programmer-uart-stm32mp157c-ed1/bl2/io_storage.o
                0x2ffead60                io_dev_init
 .text.io_dev_close
                0x2ffead94       0x30 ./../build/opteemin-programmer-uart-stm32mp157c-ed1/bl2/io_storage.o
                0x2ffead94                io_dev_close
 .text.io_open  0x2ffeadc4       0x94 ./../build/opteemin-programmer-uart-stm32mp157c-ed1/bl2/io_storage.o
                0x2ffeadc4                io_open
 .text.io_seek  0x2ffeae58       0x4c ./../build/opteemin-programmer-uart-stm32mp157c-ed1/bl2/io_storage.o
                0x2ffeae58                io_seek
 .text.io_size  0x2ffeaea4       0x34 ./../build/opteemin-programmer-uart-stm32mp157c-ed1/bl2/io_storage.o
                0x2ffeaea4                io_size
 .text.io_read  0x2ffeaed8       0x48 ./../build/opteemin-programmer-uart-stm32mp157c-ed1/bl2/io_storage.o
                0x2ffeaed8                io_read
 .text.io_close
                0x2ffeaf20       0x30 ./../build/opteemin-programmer-uart-stm32mp157c-ed1/bl2/io_storage.o
                0x2ffeaf20                io_close
 .text.is_otp_invalid_mode
                0x2ffeaf50       0x28 ./../build/opteemin-programmer-uart-stm32mp157c-ed1/bl2/bsec2.o
 .text.bsec_lock
                0x2ffeaf78       0x18 ./../build/opteemin-programmer-uart-stm32mp157c-ed1/bl2/bsec2.o
 .text.bsec_unlock
                0x2ffeaf90       0x18 ./../build/opteemin-programmer-uart-stm32mp157c-ed1/bl2/bsec2.o
 .text.bsec_power_safmem
                0x2ffeafa8       0x58 ./../build/opteemin-programmer-uart-stm32mp157c-ed1/bl2/bsec2.o
 .text.otp_bank_offset
                0x2ffeb000       0x18 ./../build/opteemin-programmer-uart-stm32mp157c-ed1/bl2/bsec2.o
 .text.bsec_check_error
                0x2ffeb018       0x34 ./../build/opteemin-programmer-uart-stm32mp157c-ed1/bl2/bsec2.o
 .text.bsec_probe
                0x2ffeb04c       0x3c ./../build/opteemin-programmer-uart-stm32mp157c-ed1/bl2/bsec2.o
                0x2ffeb04c                bsec_probe
 .text.bsec_read_debug_conf
                0x2ffeb088        0xc ./../build/opteemin-programmer-uart-stm32mp157c-ed1/bl2/bsec2.o
                0x2ffeb088                bsec_read_debug_conf
 .text.bsec_read_sr_lock
                0x2ffeb094       0x34 ./../build/opteemin-programmer-uart-stm32mp157c-ed1/bl2/bsec2.o
                0x2ffeb094                bsec_read_sr_lock
 .text.bsec_read_sw_lock
                0x2ffeb0c8       0x34 ./../build/opteemin-programmer-uart-stm32mp157c-ed1/bl2/bsec2.o
                0x2ffeb0c8                bsec_read_sw_lock
 .text.bsec_write_otp
                0x2ffeb0fc       0x4c ./../build/opteemin-programmer-uart-stm32mp157c-ed1/bl2/bsec2.o
                0x2ffeb0fc                bsec_write_otp
 .text.bsec_read_sp_lock
                0x2ffeb148       0x34 ./../build/opteemin-programmer-uart-stm32mp157c-ed1/bl2/bsec2.o
                0x2ffeb148                bsec_read_sp_lock
 .text.bsec_program_otp
                0x2ffeb17c       0xf0 ./../build/opteemin-programmer-uart-stm32mp157c-ed1/bl2/bsec2.o
                0x2ffeb17c                bsec_program_otp
 .text.bsec_shadow_read_otp
                0x2ffeb26c       0xb8 ./../build/opteemin-programmer-uart-stm32mp157c-ed1/bl2/bsec2.o
                0x2ffeb26c                bsec_shadow_read_otp
 .text.stm32mp1_check_pll_conf
                0x2ffeb324       0xfc ./../build/opteemin-programmer-uart-stm32mp157c-ed1/bl2/stm32mp1_clk.o
 .text.stm32mp1_pll_config_output
                0x2ffeb420       0x34 ./../build/opteemin-programmer-uart-stm32mp157c-ed1/bl2/stm32mp1_clk.o
 .text.stm32mp1_clk_get_gated_id
                0x2ffeb454       0x34 ./../build/opteemin-programmer-uart-stm32mp157c-ed1/bl2/stm32mp1_clk.o
 .text.stm32mp1_clk_get_parent
                0x2ffeb488       0x78 ./../build/opteemin-programmer-uart-stm32mp157c-ed1/bl2/stm32mp1_clk.o
 .text.stm32mp_clk_is_enabled
                0x2ffeb500       0x40 ./../build/opteemin-programmer-uart-stm32mp157c-ed1/bl2/stm32mp1_clk.o
 .text.stm32mp_clk_disable
                0x2ffeb540       0x90 ./../build/opteemin-programmer-uart-stm32mp157c-ed1/bl2/stm32mp1_clk.o
 .text.stm32mp_clk_enable
                0x2ffeb5d0       0x8c ./../build/opteemin-programmer-uart-stm32mp157c-ed1/bl2/stm32mp1_clk.o
 .text.stm32_clk_configure_mux
                0x2ffeb65c       0x90 ./../build/opteemin-programmer-uart-stm32mp157c-ed1/bl2/stm32mp1_clk.o
 .text.stm32mp1_read_pll_freq
                0x2ffeb6ec       0xac ./../build/opteemin-programmer-uart-stm32mp157c-ed1/bl2/stm32mp1_clk.o
 .text.stm32mp_clk_get_rate
                0x2ffeb798      0x204 ./../build/opteemin-programmer-uart-stm32mp157c-ed1/bl2/stm32mp1_clk.o
 .text.stm32mp1_osc_wait.isra.0
                0x2ffeb99c       0x54 ./../build/opteemin-programmer-uart-stm32mp157c-ed1/bl2/stm32mp1_clk.o
 .text.clk_stm32_set_div
                0x2ffeb9f0       0x94 ./../build/opteemin-programmer-uart-stm32mp157c-ed1/bl2/stm32mp1_clk.o
                0x2ffeb9f0                clk_stm32_set_div
 .text.stm32mp1_clk_rcc_regs_lock
                0x2ffeba84        0xc ./../build/opteemin-programmer-uart-stm32mp157c-ed1/bl2/stm32mp1_clk.o
                0x2ffeba84                stm32mp1_clk_rcc_regs_lock
 .text.stm32mp1_clk_rcc_regs_unlock
                0x2ffeba90        0xc ./../build/opteemin-programmer-uart-stm32mp157c-ed1/bl2/stm32mp1_clk.o
                0x2ffeba90                stm32mp1_clk_rcc_regs_unlock
 .text.stm32mp1_clk_init
                0x2ffeba9c      0x954 ./../build/opteemin-programmer-uart-stm32mp157c-ed1/bl2/stm32mp1_clk.o
                0x2ffeba9c                stm32mp1_clk_init
 .text.stm32mp1_clk_probe
                0x2ffec3f0      0x214 ./../build/opteemin-programmer-uart-stm32mp157c-ed1/bl2/stm32mp1_clk.o
                0x2ffec3f0                stm32mp1_clk_probe
 .text.fdt_osc_read_freq
                0x2ffec604       0x8c ./../build/opteemin-programmer-uart-stm32mp157c-ed1/bl2/stm32mp_clkfunc.o
                0x2ffec604                fdt_osc_read_freq
 .text.fdt_clk_read_bool
                0x2ffec690       0x68 ./../build/opteemin-programmer-uart-stm32mp157c-ed1/bl2/stm32mp_clkfunc.o
                0x2ffec690                fdt_clk_read_bool
 .text.fdt_clk_read_uint32_default
                0x2ffec6f8       0x64 ./../build/opteemin-programmer-uart-stm32mp157c-ed1/bl2/stm32mp_clkfunc.o
                0x2ffec6f8                fdt_clk_read_uint32_default
 .text.fdt_get_clock_id
                0x2ffec75c       0x34 ./../build/opteemin-programmer-uart-stm32mp157c-ed1/bl2/stm32mp_clkfunc.o
                0x2ffec75c                fdt_get_clock_id
 .text.fdt_get_uart_clock_freq
                0x2ffec790       0x30 ./../build/opteemin-programmer-uart-stm32mp157c-ed1/bl2/stm32mp_clkfunc.o
                0x2ffec790                fdt_get_uart_clock_freq
 .text.stm32mp_stgen_config
                0x2ffec7c0       0x4c ./../build/opteemin-programmer-uart-stm32mp157c-ed1/bl2/stm32mp_clkfunc.o
                0x2ffec7c0                stm32mp_stgen_config
 .text.stm32mp_stgen_restore_rate
                0x2ffec80c       0x10 ./../build/opteemin-programmer-uart-stm32mp157c-ed1/bl2/stm32mp_clkfunc.o
                0x2ffec80c                stm32mp_stgen_restore_rate
 .text.stm32mp1_ddr_init
                0x2ffec81c      0x4b4 ./../build/opteemin-programmer-uart-stm32mp157c-ed1/bl2/stm32mp1_ddr.o
                0x2ffec81c                stm32mp1_ddr_init
 .text.ddr_sw_self_refresh_exit
                0x2ffeccd0      0x1e4 ./../build/opteemin-programmer-uart-stm32mp157c-ed1/bl2/stm32mp1_ddr_helpers.o
                0x2ffeccd0                ddr_sw_self_refresh_exit
 .text.ddr_read_sr_mode
                0x2ffeceb4       0x18 ./../build/opteemin-programmer-uart-stm32mp157c-ed1/bl2/stm32mp1_ddr_helpers.o
                0x2ffeceb4                ddr_read_sr_mode
 .text.ddr_set_sr_mode
                0x2ffececc      0x1f0 ./../build/opteemin-programmer-uart-stm32mp157c-ed1/bl2/stm32mp1_ddr_helpers.o
                0x2ffececc                ddr_set_sr_mode
 .text.stm32mp1_ddr_setup
                0x2ffed0bc      0x154 ./../build/opteemin-programmer-uart-stm32mp157c-ed1/bl2/stm32mp1_ram.o
 .text.stm32mp1_ddr_clk_enable
                0x2ffed210       0x48 ./../build/opteemin-programmer-uart-stm32mp157c-ed1/bl2/stm32mp1_ram.o
                0x2ffed210                stm32mp1_ddr_clk_enable
 .text.stm32mp1_ddr_is_restored
                0x2ffed258        0xc ./../build/opteemin-programmer-uart-stm32mp157c-ed1/bl2/stm32mp1_ram.o
                0x2ffed258                stm32mp1_ddr_is_restored
 .text.stm32mp1_ddr_probe
                0x2ffed264       0x3c ./../build/opteemin-programmer-uart-stm32mp157c-ed1/bl2/stm32mp1_ram.o
                0x2ffed264                stm32mp1_ddr_probe
 .text.stm32mp_ddr_set_reg
                0x2ffed2a0       0x48 ./../build/opteemin-programmer-uart-stm32mp157c-ed1/bl2/stm32mp_ddr.o
                0x2ffed2a0                stm32mp_ddr_set_reg
 .text.stm32mp_ddr_sw_selfref_entry
                0x2ffed2e8       0x58 ./../build/opteemin-programmer-uart-stm32mp157c-ed1/bl2/stm32mp_ddr.o
                0x2ffed2e8                stm32mp_ddr_sw_selfref_entry
 .text.stm32mp_ddr_set_qd3_update_conditions
                0x2ffed340       0x4c ./../build/opteemin-programmer-uart-stm32mp157c-ed1/bl2/stm32mp_ddr.o
                0x2ffed340                stm32mp_ddr_set_qd3_update_conditions
 .text.stm32mp_ddr_unset_qd3_update_conditions
                0x2ffed38c       0x38 ./../build/opteemin-programmer-uart-stm32mp157c-ed1/bl2/stm32mp_ddr.o
                0x2ffed38c                stm32mp_ddr_unset_qd3_update_conditions
 .text.stm32mp_ddr_dt_get_info
                0x2ffed3c4       0x50 ./../build/opteemin-programmer-uart-stm32mp157c-ed1/bl2/stm32mp_ram.o
                0x2ffed3c4                stm32mp_ddr_dt_get_info
 .text.stm32mp_ddr_dt_get_param
                0x2ffed414       0x54 ./../build/opteemin-programmer-uart-stm32mp157c-ed1/bl2/stm32mp_ram.o
                0x2ffed414                stm32mp_ddr_dt_get_param
 .text.set_gpio.isra.0
                0x2ffed468       0xf0 ./../build/opteemin-programmer-uart-stm32mp157c-ed1/bl2/stm32_gpio.o
 .text.dt_set_pinctrl_config
                0x2ffed558      0x240 ./../build/opteemin-programmer-uart-stm32mp157c-ed1/bl2/stm32_gpio.o
                0x2ffed558                dt_set_pinctrl_config
 .text.i2c_transfer_config.isra.0
                0x2ffed798       0x2c ./../build/opteemin-programmer-uart-stm32mp157c-ed1/bl2/stm32_i2c.o
 .text.i2c_read.isra.0
                0x2ffed7c4      0x1f0 ./../build/opteemin-programmer-uart-stm32mp157c-ed1/bl2/stm32_i2c.o
 .text.i2c_write
                0x2ffed9b4      0x218 ./../build/opteemin-programmer-uart-stm32mp157c-ed1/bl2/stm32_i2c.o
 .text.stm32_i2c_get_setup_from_fdt
                0x2ffedbcc       0x64 ./../build/opteemin-programmer-uart-stm32mp157c-ed1/bl2/stm32_i2c.o
                0x2ffedbcc                stm32_i2c_get_setup_from_fdt
 .text.stm32_i2c_init
                0x2ffedc30      0x434 ./../build/opteemin-programmer-uart-stm32mp157c-ed1/bl2/stm32_i2c.o
                0x2ffedc30                stm32_i2c_init
 .text.stm32_i2c_is_device_ready
                0x2ffee064      0x130 ./../build/opteemin-programmer-uart-stm32mp157c-ed1/bl2/stm32_i2c.o
                0x2ffee064                stm32_i2c_is_device_ready
 .text.fdt_get_clk_by_name
                0x2ffee194       0x4c ./../build/opteemin-programmer-uart-stm32mp157c-ed1/bl2/stm32_iwdg.o
 .text.stm32_iwdg_refresh
                0x2ffee1e0       0x40 ./../build/opteemin-programmer-uart-stm32mp157c-ed1/bl2/stm32_iwdg.o
                0x2ffee1e0                stm32_iwdg_refresh
 .text.stm32_iwdg_init
                0x2ffee220      0x184 ./../build/opteemin-programmer-uart-stm32mp157c-ed1/bl2/stm32_iwdg.o
                0x2ffee220                stm32_iwdg_init
 .text.nvmem_driver_register
                0x2ffee3a4       0x24 ./../build/opteemin-programmer-uart-stm32mp157c-ed1/bl2/nvmem.o
                0x2ffee3a4                nvmem_driver_register
 .text.nvmem_get_cell_by_index
                0x2ffee3c8       0x90 ./../build/opteemin-programmer-uart-stm32mp157c-ed1/bl2/nvmem.o
                0x2ffee3c8                nvmem_get_cell_by_index
 .text.nvmem_get_cell_by_name
                0x2ffee458       0x2c ./../build/opteemin-programmer-uart-stm32mp157c-ed1/bl2/nvmem.o
                0x2ffee458                nvmem_get_cell_by_name
 .text.stm32_tamp_nvram_write_bkp
                0x2ffee484       0x68 ./../build/opteemin-programmer-uart-stm32mp157c-ed1/bl2/stm32mp_tamp_nvram_core.o
 .text.stm32_tamp_nvram_read_bkp.constprop.0.isra.0
                0x2ffee4ec       0x68 ./../build/opteemin-programmer-uart-stm32mp157c-ed1/bl2/stm32mp_tamp_nvram_core.o
 .text.stm32_tamp_nvram_read_cell
                0x2ffee554       0xa4 ./../build/opteemin-programmer-uart-stm32mp157c-ed1/bl2/stm32mp_tamp_nvram_core.o
 .text.stm32_tamp_nvram_write_cell
                0x2ffee5f8       0xc4 ./../build/opteemin-programmer-uart-stm32mp157c-ed1/bl2/stm32mp_tamp_nvram_core.o
 .text.stm32_tamp_nvram_update_rights
                0x2ffee6bc       0xc4 ./../build/opteemin-programmer-uart-stm32mp157c-ed1/bl2/stm32mp_tamp_nvram_core.o
                0x2ffee6bc                stm32_tamp_nvram_update_rights
 .text.stm32_tamp_nvram_init
                0x2ffee780       0xc4 ./../build/opteemin-programmer-uart-stm32mp157c-ed1/bl2/stm32mp_tamp_nvram_core.o
                0x2ffee780                stm32_tamp_nvram_init
 .text.stm32_tamp_nvram_get_cdata
                0x2ffee844        0x8 ./../build/opteemin-programmer-uart-stm32mp157c-ed1/bl2/stm32mp_tamp_nvram_mp1.o
                0x2ffee844                stm32_tamp_nvram_get_cdata
 .text.stm32_tamp_nvram_get_access_rights
                0x2ffee84c        0x8 ./../build/opteemin-programmer-uart-stm32mp157c-ed1/bl2/stm32mp_tamp_nvram_mp1.o
                0x2ffee84c                stm32_tamp_nvram_get_access_rights
 .text.dt_get_pmic_node
                0x2ffee854       0x24 ./../build/opteemin-programmer-uart-stm32mp157c-ed1/bl2/stm32mp_pmic.o
 .text.handle_pmic_property
                0x2ffee878       0x30 ./../build/opteemin-programmer-uart-stm32mp157c-ed1/bl2/stm32mp_pmic.o
 .text.dt_pmic_status
                0x2ffee8a8       0x34 ./../build/opteemin-programmer-uart-stm32mp157c-ed1/bl2/stm32mp_pmic.o
                0x2ffee8a8                dt_pmic_status
 .text.initialize_pmic_i2c
                0x2ffee8dc      0x10c ./../build/opteemin-programmer-uart-stm32mp157c-ed1/bl2/stm32mp_pmic.o
                0x2ffee8dc                initialize_pmic_i2c
 .text.initialize_pmic
                0x2ffee9e8      0x114 ./../build/opteemin-programmer-uart-stm32mp157c-ed1/bl2/stm32mp_pmic.o
                0x2ffee9e8                initialize_pmic
 .text.print_pmic_info_and_debug
                0x2ffeeafc       0x30 ./../build/opteemin-programmer-uart-stm32mp157c-ed1/bl2/stm32mp_pmic.o
                0x2ffeeafc                print_pmic_info_and_debug
 .text.get_regulator_data
                0x2ffeeb2c       0x44 ./../build/opteemin-programmer-uart-stm32mp157c-ed1/bl2/stpmic1.o
 .text.stpmic1_regulator_levels_mv
                0x2ffeeb70       0x40 ./../build/opteemin-programmer-uart-stm32mp157c-ed1/bl2/stpmic1.o
                0x2ffeeb70                stpmic1_regulator_levels_mv
 .text.stpmic1_register_read
                0x2ffeebb0       0x28 ./../build/opteemin-programmer-uart-stm32mp157c-ed1/bl2/stpmic1.o
                0x2ffeebb0                stpmic1_register_read
 .text.stpmic1_regulator_voltage_get
                0x2ffeebd8       0x90 ./../build/opteemin-programmer-uart-stm32mp157c-ed1/bl2/stpmic1.o
                0x2ffeebd8                stpmic1_regulator_voltage_get
 .text.stpmic1_register_write
                0x2ffeec68       0x60 ./../build/opteemin-programmer-uart-stm32mp157c-ed1/bl2/stpmic1.o
                0x2ffeec68                stpmic1_register_write
 .text.stpmic1_regulator_voltage_set
                0x2ffeecc8       0x98 ./../build/opteemin-programmer-uart-stm32mp157c-ed1/bl2/stpmic1.o
                0x2ffeecc8                stpmic1_regulator_voltage_set
 .text.stpmic1_regulator_sink_mode_set
                0x2ffeed60       0x30 ./../build/opteemin-programmer-uart-stm32mp157c-ed1/bl2/stpmic1.o
                0x2ffeed60                stpmic1_regulator_sink_mode_set
 .text.stpmic1_regulator_bypass_mode_set
                0x2ffeed90       0x30 ./../build/opteemin-programmer-uart-stm32mp157c-ed1/bl2/stpmic1.o
                0x2ffeed90                stpmic1_regulator_bypass_mode_set
 .text.stpmic1_active_discharge_mode_set
                0x2ffeedc0       0x3c ./../build/opteemin-programmer-uart-stm32mp157c-ed1/bl2/stpmic1.o
                0x2ffeedc0                stpmic1_active_discharge_mode_set
 .text.stpmic1_bind_i2c
                0x2ffeedfc       0x14 ./../build/opteemin-programmer-uart-stm32mp157c-ed1/bl2/stpmic1.o
                0x2ffeedfc                stpmic1_bind_i2c
 .text.regulator_get_by_supply_name
                0x2ffeee10       0x74 ./../build/opteemin-programmer-uart-stm32mp157c-ed1/bl2/regulator_core.o
                0x2ffeee10                regulator_get_by_supply_name
 .text.regulator_enable
                0x2ffeee84       0x30 ./../build/opteemin-programmer-uart-stm32mp157c-ed1/bl2/regulator_core.o
                0x2ffeee84                regulator_enable
 .text.regulator_get_voltage
                0x2ffeeeb4       0x4c ./../build/opteemin-programmer-uart-stm32mp157c-ed1/bl2/regulator_core.o
                0x2ffeeeb4                regulator_get_voltage
 .text.regulator_set_voltage
                0x2ffeef00       0x6c ./../build/opteemin-programmer-uart-stm32mp157c-ed1/bl2/regulator_core.o
                0x2ffeef00                regulator_set_voltage
 .text.regulator_list_voltages
                0x2ffeef6c       0xe0 ./../build/opteemin-programmer-uart-stm32mp157c-ed1/bl2/regulator_core.o
                0x2ffeef6c                regulator_list_voltages
 .text.regulator_get_range
                0x2ffef04c       0x20 ./../build/opteemin-programmer-uart-stm32mp157c-ed1/bl2/regulator_core.o
                0x2ffef04c                regulator_get_range
 .text.regulator_register
                0x2ffef06c      0x180 ./../build/opteemin-programmer-uart-stm32mp157c-ed1/bl2/regulator_core.o
                0x2ffef06c                regulator_register
 .text.fixed_regulator_register
                0x2ffef1ec       0xc8 ./../build/opteemin-programmer-uart-stm32mp157c-ed1/bl2/regulator_fixed.o
                0x2ffef1ec                fixed_regulator_register
 .text.stm32mp_reset_assert
                0x2ffef2b4       0x60 ./../build/opteemin-programmer-uart-stm32mp157c-ed1/bl2/stm32mp1_reset.o
                0x2ffef2b4                stm32mp_reset_assert
 .text.stm32mp_reset_deassert
                0x2ffef314       0x60 ./../build/opteemin-programmer-uart-stm32mp157c-ed1/bl2/stm32mp1_reset.o
                0x2ffef314                stm32mp_reset_deassert
 .text.stm32_uart_wait_flag
                0x2ffef374       0x50 ./../build/opteemin-programmer-uart-stm32mp157c-ed1/bl2/stm32_uart.o
 .text.stm32_uart_init
                0x2ffef3c4      0x198 ./../build/opteemin-programmer-uart-stm32mp157c-ed1/bl2/stm32_uart.o
                0x2ffef3c4                stm32_uart_init
 .text.fconf_populate
                0x2ffef55c       0x88 ./../build/opteemin-programmer-uart-stm32mp157c-ed1/bl2/fconf.o
                0x2ffef55c                fconf_populate
 .text.set_config_info
                0x2ffef5e4       0x40 ./../build/opteemin-programmer-uart-stm32mp157c-ed1/bl2/fconf_dyn_cfg_getter.o
                0x2ffef5e4                set_config_info
 .text.fconf_populate_dtb_registry
                0x2ffef624      0x10c ./../build/opteemin-programmer-uart-stm32mp157c-ed1/bl2/fconf_dyn_cfg_getter.o
                0x2ffef624                fconf_populate_dtb_registry
 .text.dyn_cfg_dtb_info_get_index
                0x2ffef730       0x20 ./../build/opteemin-programmer-uart-stm32mp157c-ed1/bl2/fconf_dyn_cfg_getter.o
                0x2ffef730                dyn_cfg_dtb_info_get_index
 .text.dyn_cfg_dtb_info_getter
                0x2ffef750       0x28 ./../build/opteemin-programmer-uart-stm32mp157c-ed1/bl2/fconf_dyn_cfg_getter.o
                0x2ffef750                dyn_cfg_dtb_info_getter
 .text.parse_optee_image
                0x2ffef778       0x60 ./../build/opteemin-programmer-uart-stm32mp157c-ed1/bl2/optee_utils.o
 .text.optee_header_is_valid
                0x2ffef7d8       0x24 ./../build/opteemin-programmer-uart-stm32mp157c-ed1/bl2/optee_utils.o
                0x2ffef7d8                optee_header_is_valid
 .text.parse_optee_header
                0x2ffef7fc      0x114 ./../build/opteemin-programmer-uart-stm32mp157c-ed1/bl2/optee_utils.o
                0x2ffef7fc                parse_optee_header
 .text.xlat_arch_regime_get_xn_desc
                0x2ffef910       0x28 ./../build/opteemin-programmer-uart-stm32mp157c-ed1/bl2/xlat_tables_arch.o
                0x2ffef910                xlat_arch_regime_get_xn_desc
 .text.xlat_arch_tlbi_va
                0x2ffef938       0x2c ./../build/opteemin-programmer-uart-stm32mp157c-ed1/bl2/xlat_tables_arch.o
                0x2ffef938                xlat_arch_tlbi_va
 .text.xlat_arch_current_el
                0x2ffef964       0x3c ./../build/opteemin-programmer-uart-stm32mp157c-ed1/bl2/xlat_tables_arch.o
                0x2ffef964                xlat_arch_current_el
 .text.is_mmu_enabled_ctx
                0x2ffef9a0       0x40 ./../build/opteemin-programmer-uart-stm32mp157c-ed1/bl2/xlat_tables_arch.o
                0x2ffef9a0                is_mmu_enabled_ctx
 .text.setup_mmu_cfg
                0x2ffef9e0       0xac ./../build/opteemin-programmer-uart-stm32mp157c-ed1/bl2/xlat_tables_arch.o
                0x2ffef9e0                setup_mmu_cfg
 .text.mmap_add_region
                0x2ffefa8c       0x28 ./../build/opteemin-programmer-uart-stm32mp157c-ed1/bl2/xlat_tables_context.o
                0x2ffefa8c                mmap_add_region
 .text.mmap_add
                0x2ffefab4        0xc ./../build/opteemin-programmer-uart-stm32mp157c-ed1/bl2/xlat_tables_context.o
                0x2ffefab4                mmap_add
 .text.mmap_add_dynamic_region
                0x2ffefac0       0x28 ./../build/opteemin-programmer-uart-stm32mp157c-ed1/bl2/xlat_tables_context.o
                0x2ffefac0                mmap_add_dynamic_region
 .text.mmap_remove_dynamic_region
                0x2ffefae8       0x10 ./../build/opteemin-programmer-uart-stm32mp157c-ed1/bl2/xlat_tables_context.o
                0x2ffefae8                mmap_remove_dynamic_region
 .text.init_xlat_tables
                0x2ffefaf8       0x3c ./../build/opteemin-programmer-uart-stm32mp157c-ed1/bl2/xlat_tables_context.o
                0x2ffefaf8                init_xlat_tables
 .text.enable_mmu_svc_mon
                0x2ffefb34       0x34 ./../build/opteemin-programmer-uart-stm32mp157c-ed1/bl2/xlat_tables_context.o
                0x2ffefb34                enable_mmu_svc_mon
 .text.xlat_table_get_index
                0x2ffefb68       0x28 ./../build/opteemin-programmer-uart-stm32mp157c-ed1/bl2/xlat_tables_core.o
 .text.xlat_tables_unmap_region
                0x2ffefb90      0x138 ./../build/opteemin-programmer-uart-stm32mp157c-ed1/bl2/xlat_tables_core.o
 .text.xlat_desc
                0x2ffefcc8       0xc4 ./../build/opteemin-programmer-uart-stm32mp157c-ed1/bl2/xlat_tables_core.o
                0x2ffefcc8                xlat_desc
 .text.xlat_tables_map_region
                0x2ffefd8c      0x1ac ./../build/opteemin-programmer-uart-stm32mp157c-ed1/bl2/xlat_tables_core.o
 .text.mmap_add_region_ctx
                0x2ffeff38       0xf0 ./../build/opteemin-programmer-uart-stm32mp157c-ed1/bl2/xlat_tables_core.o
                0x2ffeff38                mmap_add_region_ctx
 .text.mmap_add_dynamic_region_ctx
                0x2fff0028      0x154 ./../build/opteemin-programmer-uart-stm32mp157c-ed1/bl2/xlat_tables_core.o
                0x2fff0028                mmap_add_dynamic_region_ctx
 .text.mmap_remove_dynamic_region_ctx
                0x2fff017c      0x108 ./../build/opteemin-programmer-uart-stm32mp157c-ed1/bl2/xlat_tables_core.o
                0x2fff017c                mmap_remove_dynamic_region_ctx
 .text.init_xlat_tables_ctx
                0x2fff0284      0x140 ./../build/opteemin-programmer-uart-stm32mp157c-ed1/bl2/xlat_tables_core.o
                0x2fff0284                init_xlat_tables_ctx
 .text.plat_log_get_prefix
                0x2fff03c4       0x24 ./../build/opteemin-programmer-uart-stm32mp157c-ed1/bl2/plat_log_common.o
                0x2fff03c4                plat_log_get_prefix
 .text.open_fip
                0x2fff03e8       0x10 ./../build/opteemin-programmer-uart-stm32mp157c-ed1/bl2/bl2_io_storage.o
                0x2fff03e8                open_fip
 .text.open_storage
                0x2fff03f8       0x10 ./../build/opteemin-programmer-uart-stm32mp157c-ed1/bl2/bl2_io_storage.o
                0x2fff03f8                open_storage
 .text.stm32mp_io_setup
                0x2fff0408      0x11c ./../build/opteemin-programmer-uart-stm32mp157c-ed1/bl2/bl2_io_storage.o
                0x2fff0408                stm32mp_io_setup
 .text.bl2_plat_handle_pre_image_load
                0x2fff0524       0x70 ./../build/opteemin-programmer-uart-stm32mp157c-ed1/bl2/bl2_io_storage.o
                0x2fff0524                bl2_plat_handle_pre_image_load
 .text.plat_get_image_source
                0x2fff0594       0x44 ./../build/opteemin-programmer-uart-stm32mp157c-ed1/bl2/bl2_io_storage.o
                0x2fff0594                plat_get_image_source
 .text.uart_send_result
                0x2fff05d8       0x20 ./../build/opteemin-programmer-uart-stm32mp157c-ed1/bl2/stm32cubeprogrammer_uart.o
 .text.uart_write
                0x2fff05f8       0x28 ./../build/opteemin-programmer-uart-stm32mp157c-ed1/bl2/stm32cubeprogrammer_uart.o
 .text.uart_read_8
                0x2fff0620       0x54 ./../build/opteemin-programmer-uart-stm32mp157c-ed1/bl2/stm32cubeprogrammer_uart.o
 .text.stm32cubeprog_uart_load
                0x2fff0674      0x3e4 ./../build/opteemin-programmer-uart-stm32mp157c-ed1/bl2/stm32cubeprogrammer_uart.o
                0x2fff0674                stm32cubeprog_uart_load
 .text.stm32_get_bootinfo_cell
                0x2fff0a58       0x3c ./../build/opteemin-programmer-uart-stm32mp157c-ed1/bl2/stm32mp_common.o
 .text.stm32mp_save_boot_ctx_address
                0x2fff0a94       0x40 ./../build/opteemin-programmer-uart-stm32mp157c-ed1/bl2/stm32mp_common.o
                0x2fff0a94                stm32mp_save_boot_ctx_address
 .text.stm32mp_get_boot_ctx_address
                0x2fff0ad4        0xc ./../build/opteemin-programmer-uart-stm32mp157c-ed1/bl2/stm32mp_common.o
                0x2fff0ad4                stm32mp_get_boot_ctx_address
 .text.stm32mp_get_boot_itf_selected
                0x2fff0ae0        0xc ./../build/opteemin-programmer-uart-stm32mp157c-ed1/bl2/stm32mp_common.o
                0x2fff0ae0                stm32mp_get_boot_itf_selected
 .text.stm32mp_ddrctrl_base
                0x2fff0aec        0x8 ./../build/opteemin-programmer-uart-stm32mp157c-ed1/bl2/stm32mp_common.o
                0x2fff0aec                stm32mp_ddrctrl_base
 .text.stm32mp_ddrphyc_base
                0x2fff0af4        0x8 ./../build/opteemin-programmer-uart-stm32mp157c-ed1/bl2/stm32mp_common.o
                0x2fff0af4                stm32mp_ddrphyc_base
 .text.stm32mp_pwr_base
                0x2fff0afc        0x8 ./../build/opteemin-programmer-uart-stm32mp157c-ed1/bl2/stm32mp_common.o
                0x2fff0afc                stm32mp_pwr_base
 .text.stm32mp_pwr_regs_lock
                0x2fff0b04       0x18 ./../build/opteemin-programmer-uart-stm32mp157c-ed1/bl2/stm32mp_common.o
                0x2fff0b04                stm32mp_pwr_regs_lock
 .text.stm32mp_pwr_regs_unlock
                0x2fff0b1c       0x18 ./../build/opteemin-programmer-uart-stm32mp157c-ed1/bl2/stm32mp_common.o
                0x2fff0b1c                stm32mp_pwr_regs_unlock
 .text.stm32_get_otp_index
                0x2fff0b34       0x20 ./../build/opteemin-programmer-uart-stm32mp157c-ed1/bl2/stm32mp_common.o
                0x2fff0b34                stm32_get_otp_index
 .text.stm32_get_otp_value_from_idx
                0x2fff0b54       0x30 ./../build/opteemin-programmer-uart-stm32mp157c-ed1/bl2/stm32mp_common.o
                0x2fff0b54                stm32_get_otp_value_from_idx
 .text.stm32_get_otp_value
                0x2fff0b84       0x44 ./../build/opteemin-programmer-uart-stm32mp157c-ed1/bl2/stm32mp_common.o
                0x2fff0b84                stm32_get_otp_value
 .text.stm32_display_board_info
                0x2fff0bc8       0x2c ./../build/opteemin-programmer-uart-stm32mp157c-ed1/bl2/stm32mp_common.o
                0x2fff0bc8                stm32_display_board_info
 .text.stm32_get_magic_number_cell
                0x2fff0bf4       0x34 ./../build/opteemin-programmer-uart-stm32mp157c-ed1/bl2/stm32mp_common.o
                0x2fff0bf4                stm32_get_magic_number_cell
 .text.stm32_get_core1_branch_address_cell
                0x2fff0c28       0x34 ./../build/opteemin-programmer-uart-stm32mp157c-ed1/bl2/stm32mp_common.o
                0x2fff0c28                stm32_get_core1_branch_address_cell
 .text.stm32_get_boot_mode_cell
                0x2fff0c5c       0x34 ./../build/opteemin-programmer-uart-stm32mp157c-ed1/bl2/stm32mp_common.o
                0x2fff0c5c                stm32_get_boot_mode_cell
 .text.stm32_save_boot_info
                0x2fff0c90       0xcc ./../build/opteemin-programmer-uart-stm32mp157c-ed1/bl2/stm32mp_common.o
                0x2fff0c90                stm32_save_boot_info
 .text.stm32_get_boot_interface
                0x2fff0d5c       0x50 ./../build/opteemin-programmer-uart-stm32mp157c-ed1/bl2/stm32mp_common.o
                0x2fff0d5c                stm32_get_boot_interface
 .text.stm32mp_uart_console_setup
                0x2fff0dac       0xbc ./../build/opteemin-programmer-uart-stm32mp157c-ed1/bl2/stm32mp_common.o
                0x2fff0dac                stm32mp_uart_console_setup
 .text.fdt_get_node_parent_address_cells
                0x2fff0e68       0x24 ./../build/opteemin-programmer-uart-stm32mp157c-ed1/bl2/stm32mp_dt.o
 .text.dt_open_and_check
                0x2fff0e8c       0x14 ./../build/opteemin-programmer-uart-stm32mp157c-ed1/bl2/stm32mp_dt.o
                0x2fff0e8c                dt_open_and_check
 .text.fdt_get_address
                0x2fff0ea0       0x14 ./../build/opteemin-programmer-uart-stm32mp157c-ed1/bl2/stm32mp_dt.o
                0x2fff0ea0                fdt_get_address
 .text.fdt_check_node
                0x2fff0eb4       0x20 ./../build/opteemin-programmer-uart-stm32mp157c-ed1/bl2/stm32mp_dt.o
                0x2fff0eb4                fdt_check_node
 .text.fdt_get_status
                0x2fff0ed4       0x74 ./../build/opteemin-programmer-uart-stm32mp157c-ed1/bl2/stm32mp_dt.o
                0x2fff0ed4                fdt_get_status
 .text.dt_set_stdout_pinctrl
                0x2fff0f48       0x20 ./../build/opteemin-programmer-uart-stm32mp157c-ed1/bl2/stm32mp_dt.o
                0x2fff0f48                dt_set_stdout_pinctrl
 .text.dt_fill_device_info
                0x2fff0f68       0x88 ./../build/opteemin-programmer-uart-stm32mp157c-ed1/bl2/stm32mp_dt.o
                0x2fff0f68                dt_fill_device_info
 .text.dt_get_node
                0x2fff0ff0       0x28 ./../build/opteemin-programmer-uart-stm32mp157c-ed1/bl2/stm32mp_dt.o
                0x2fff0ff0                dt_get_node
 .text.dt_get_stdout_uart_info
                0x2fff1018       0x28 ./../build/opteemin-programmer-uart-stm32mp157c-ed1/bl2/stm32mp_dt.o
                0x2fff1018                dt_get_stdout_uart_info
 .text.dt_match_instance_by_compatible
                0x2fff1040       0x70 ./../build/opteemin-programmer-uart-stm32mp157c-ed1/bl2/stm32mp_dt.o
                0x2fff1040                dt_match_instance_by_compatible
 .text.dt_get_ddr_size
                0x2fff10b0       0x58 ./../build/opteemin-programmer-uart-stm32mp157c-ed1/bl2/stm32mp_dt.o
                0x2fff10b0                dt_get_ddr_size
 .text.dt_get_vdd_regulator
                0x2fff1108       0x30 ./../build/opteemin-programmer-uart-stm32mp157c-ed1/bl2/stm32mp_dt.o
                0x2fff1108                dt_get_vdd_regulator
 .text.dt_get_board_model
                0x2fff1138       0x30 ./../build/opteemin-programmer-uart-stm32mp157c-ed1/bl2/stm32mp_dt.o
                0x2fff1138                dt_get_board_model
 .text.dt_find_otp_name
                0x2fff1168       0xa8 ./../build/opteemin-programmer-uart-stm32mp157c-ed1/bl2/stm32mp_dt.o
                0x2fff1168                dt_find_otp_name
 .text.dt_get_otp_by_phandle
                0x2fff1210       0x88 ./../build/opteemin-programmer-uart-stm32mp157c-ed1/bl2/stm32mp_dt.o
                0x2fff1210                dt_get_otp_by_phandle
 .text.fconf_populate_stm32mp_fuse_provisioning
                0x2fff1298      0x128 ./../build/opteemin-programmer-uart-stm32mp157c-ed1/bl2/stm32mp_fconf_fuse.o
 .text.fconf_populate_stm32mp_io_policies
                0x2fff13c0       0xd8 ./../build/opteemin-programmer-uart-stm32mp157c-ed1/bl2/stm32mp_fconf_io.o
                0x2fff13c0                fconf_populate_stm32mp_io_policies
 .text.bl2_platform_setup
                0x2fff1498       0x74 ./../build/opteemin-programmer-uart-stm32mp157c-ed1/bl2/bl2_plat_setup.o
                0x2fff1498                bl2_platform_setup
 .text.bl2_el3_plat_arch_setup
                0x2fff150c      0x3fc ./../build/opteemin-programmer-uart-stm32mp157c-ed1/bl2/bl2_plat_setup.o
                0x2fff150c                bl2_el3_plat_arch_setup
 .text.bl2_plat_handle_post_image_load
                0x2fff1908      0x19c ./../build/opteemin-programmer-uart-stm32mp157c-ed1/bl2/bl2_plat_setup.o
                0x2fff1908                bl2_plat_handle_post_image_load
 .text.bl2_el3_plat_prepare_exit
                0x2fff1aa4       0x48 ./../build/opteemin-programmer-uart-stm32mp157c-ed1/bl2/bl2_plat_setup.o
                0x2fff1aa4                bl2_el3_plat_prepare_exit
 .text.stm32mp_board_ddr_power_init
                0x2fff1aec      0x124 ./../build/opteemin-programmer-uart-stm32mp157c-ed1/bl2/plat_ddr.o
                0x2fff1aec                stm32mp_board_ddr_power_init
 .text.stm32_context_save_bl2_param
                0x2fff1c10       0x54 ./../build/opteemin-programmer-uart-stm32mp157c-ed1/bl2/stm32mp1_context.o
                0x2fff1c10                stm32_context_save_bl2_param
 .text.stm32_pwr_down_wfi_load
                0x2fff1c64       0x80 ./../build/opteemin-programmer-uart-stm32mp157c-ed1/bl2/stm32mp1_critic_power.o
                0x2fff1c64                stm32_pwr_down_wfi_load
 .text.stm32mp1_dbgmcu_init
                0x2fff1ce4       0x30 ./../build/opteemin-programmer-uart-stm32mp157c-ed1/bl2/stm32mp1_dbgmcu.o
 .text.stm32mp1_dbgmcu_get_chip_version
                0x2fff1d14       0x2c ./../build/opteemin-programmer-uart-stm32mp157c-ed1/bl2/stm32mp1_dbgmcu.o
                0x2fff1d14                stm32mp1_dbgmcu_get_chip_version
 .text.stm32mp1_dbgmcu_get_chip_dev_id
                0x2fff1d40       0x30 ./../build/opteemin-programmer-uart-stm32mp157c-ed1/bl2/stm32mp1_dbgmcu.o
                0x2fff1d40                stm32mp1_dbgmcu_get_chip_dev_id
 .text.fconf_populate_stm32mp1_firewall
                0x2fff1d70       0xcc ./../build/opteemin-programmer-uart-stm32mp157c-ed1/bl2/stm32mp1_fconf_firewall.o
 .text.stm32mp1_arch_security_setup
                0x2fff1e3c       0x34 ./../build/opteemin-programmer-uart-stm32mp157c-ed1/bl2/stm32mp1_fconf_firewall.o
                0x2fff1e3c                stm32mp1_arch_security_setup
 .text.stm32mp1_security_setup
                0x2fff1e70       0x5c ./../build/opteemin-programmer-uart-stm32mp157c-ed1/bl2/stm32mp1_fconf_firewall.o
                0x2fff1e70                stm32mp1_security_setup
 .text.configure_mmu
                0x2fff1ecc       0x1c ./../build/opteemin-programmer-uart-stm32mp157c-ed1/bl2/stm32mp1_private.o
                0x2fff1ecc                configure_mmu
 .text.stm32_get_gpio_bank_base
                0x2fff1ee8       0x28 ./../build/opteemin-programmer-uart-stm32mp157c-ed1/bl2/stm32mp1_private.o
                0x2fff1ee8                stm32_get_gpio_bank_base
 .text.stm32_get_gpio_bank_offset
                0x2fff1f10       0x20 ./../build/opteemin-programmer-uart-stm32mp157c-ed1/bl2/stm32mp1_private.o
                0x2fff1f10                stm32_get_gpio_bank_offset
 .text.stm32_get_gpio_bank_clock
                0x2fff1f30       0x20 ./../build/opteemin-programmer-uart-stm32mp157c-ed1/bl2/stm32mp1_private.o
                0x2fff1f30                stm32_get_gpio_bank_clock
 .text.get_uart_address
                0x2fff1f50       0x14 ./../build/opteemin-programmer-uart-stm32mp157c-ed1/bl2/stm32mp1_private.o
                0x2fff1f50                get_uart_address
 .text.stm32mp_get_chip_version
                0x2fff1f64       0x24 ./../build/opteemin-programmer-uart-stm32mp157c-ed1/bl2/stm32mp1_private.o
                0x2fff1f64                stm32mp_get_chip_version
 .text.stm32mp_get_chip_dev_id
                0x2fff1f88       0x24 ./../build/opteemin-programmer-uart-stm32mp157c-ed1/bl2/stm32mp1_private.o
                0x2fff1f88                stm32mp_get_chip_dev_id
 .text.stm32mp_get_part_number
                0x2fff1fac       0x34 ./../build/opteemin-programmer-uart-stm32mp157c-ed1/bl2/stm32mp1_private.o
                0x2fff1fac                stm32mp_get_part_number
 .text.stm32mp_get_soc_name
                0x2fff1fe0      0x148 ./../build/opteemin-programmer-uart-stm32mp157c-ed1/bl2/stm32mp1_private.o
                0x2fff1fe0                stm32mp_get_soc_name
 .text.stm32mp_print_cpuinfo
                0x2fff2128       0x1c ./../build/opteemin-programmer-uart-stm32mp157c-ed1/bl2/stm32mp1_private.o
                0x2fff2128                stm32mp_print_cpuinfo
 .text.stm32mp_print_boardinfo
                0x2fff2144       0x24 ./../build/opteemin-programmer-uart-stm32mp157c-ed1/bl2/stm32mp1_private.o
                0x2fff2144                stm32mp_print_boardinfo
 .text.stm32mp_check_closed_device
                0x2fff2168       0x2c ./../build/opteemin-programmer-uart-stm32mp157c-ed1/bl2/stm32mp1_private.o
                0x2fff2168                stm32mp_check_closed_device
 .text.stm32_iwdg_get_instance
                0x2fff2194       0x28 ./../build/opteemin-programmer-uart-stm32mp157c-ed1/bl2/stm32mp1_private.o
                0x2fff2194                stm32_iwdg_get_instance
 .text.stm32_iwdg_get_otp_config
                0x2fff21bc       0x30 ./../build/opteemin-programmer-uart-stm32mp157c-ed1/bl2/stm32mp1_private.o
                0x2fff21bc                stm32_iwdg_get_otp_config
 .text.stm32mp_bkpram_get_access
                0x2fff21ec       0x20 ./../build/opteemin-programmer-uart-stm32mp157c-ed1/bl2/stm32mp1_private.o
                0x2fff21ec                stm32mp_bkpram_get_access
 .text.stm32mp_syscfg_enable_io_compensation_start
                0x2fff220c       0x18 ./../build/opteemin-programmer-uart-stm32mp157c-ed1/bl2/stm32mp1_syscfg.o
                0x2fff220c                stm32mp_syscfg_enable_io_compensation_start
 .text.stm32mp_syscfg_init
                0x2fff2224       0x8c ./../build/opteemin-programmer-uart-stm32mp157c-ed1/bl2/stm32mp1_syscfg.o
                0x2fff2224                stm32mp_syscfg_init
 .text.stm32mp_syscfg_enable_io_compensation_finish
                0x2fff22b0       0x50 ./../build/opteemin-programmer-uart-stm32mp157c-ed1/bl2/stm32mp1_syscfg.o
                0x2fff22b0                stm32mp_syscfg_enable_io_compensation_finish
 .text          0x2fff2300       0x24 ./../build/opteemin-programmer-uart-stm32mp157c-ed1/bl2/aeabi_uldivmod.o
                0x2fff2300                __aeabi_uldivmod
 .text.fdt_ro_probe_
                0x2fff2324       0x74 ./../build/opteemin-programmer-uart-stm32mp157c-ed1/lib/libfdt.a(fdt.o)
                0x2fff2324                fdt_ro_probe_
 .text.fdt_check_header
                0x2fff2398       0xd0 ./../build/opteemin-programmer-uart-stm32mp157c-ed1/lib/libfdt.a(fdt.o)
                0x2fff2398                fdt_check_header
 .text.fdt_address_cells
                0x2fff2468       0x1c ./../build/opteemin-programmer-uart-stm32mp157c-ed1/lib/libfdt.a(fdt_addresses.o)
                0x2fff2468                fdt_address_cells
 .text.fdt_get_string
                0x2fff2484       0xb0 ./../build/opteemin-programmer-uart-stm32mp157c-ed1/lib/libfdt.a(fdt_ro.o)
                0x2fff2484                fdt_get_string
 .text.fdt_get_phandle
                0x2fff2534       0x44 ./../build/opteemin-programmer-uart-stm32mp157c-ed1/lib/libfdt.a(fdt_ro.o)
                0x2fff2534                fdt_get_phandle
 .text.fdt_get_alias_namelen
                0x2fff2578       0x2c ./../build/opteemin-programmer-uart-stm32mp157c-ed1/lib/libfdt.a(fdt_ro.o)
                0x2fff2578                fdt_get_alias_namelen
 .text.fdt_node_check_compatible
                0x2fff25a4       0x28 ./../build/opteemin-programmer-uart-stm32mp157c-ed1/lib/libfdt.a(fdt_ro.o)
                0x2fff25a4                fdt_node_check_compatible
 .text.__assert
                0x2fff25cc       0x18 ./../build/opteemin-programmer-uart-stm32mp157c-ed1/lib/libc.a(assert.o)
                0x2fff25cc                __assert
 .text.vprintf  0x2fff25e4      0x1c4 ./../build/opteemin-programmer-uart-stm32mp157c-ed1/lib/libc.a(printf.o)
                0x2fff25e4                vprintf
 .text.vsnprintf
                0x2fff27a8      0x2d0 ./../build/opteemin-programmer-uart-stm32mp157c-ed1/lib/libc.a(snprintf.o)
                0x2fff27a8                vsnprintf
 .text.bl2_arch_setup
                0x2fff2a78        0x2 ./../build/opteemin-programmer-uart-stm32mp157c-ed1/bl2/bl2_arch_setup.o
                0x2fff2a78                bl2_arch_setup
 .text.bl2_el3_setup
                0x2fff2a7a        0xe ./../build/opteemin-programmer-uart-stm32mp157c-ed1/bl2/bl2_main.o
                0x2fff2a7a                bl2_el3_setup
 .text.fdt32_to_cpu
                0x2fff2a88        0x4 ./../build/opteemin-programmer-uart-stm32mp157c-ed1/bl2/fdt_wrappers.o
 .text.fdt_read_uint32
                0x2fff2a8c       0x10 ./../build/opteemin-programmer-uart-stm32mp157c-ed1/bl2/fdt_wrappers.o
                0x2fff2a8c                fdt_read_uint32
 .text.fdt_read_uint32_default
                0x2fff2a9c       0x18 ./../build/opteemin-programmer-uart-stm32mp157c-ed1/bl2/fdt_wrappers.o
                0x2fff2a9c                fdt_read_uint32_default
 .text.fdt_read_uint64
                0x2fff2ab4       0x28 ./../build/opteemin-programmer-uart-stm32mp157c-ed1/bl2/fdt_wrappers.o
                0x2fff2ab4                fdt_read_uint64
 .text.hex_val  0x2fff2adc       0x2e ./../build/opteemin-programmer-uart-stm32mp157c-ed1/bl2/uuid.o
 .text.read_hex.part.0
                0x2fff2b0a       0x3a ./../build/opteemin-programmer-uart-stm32mp157c-ed1/bl2/uuid.o
 .text.putchar  0x2fff2b44       0x14 ./../build/opteemin-programmer-uart-stm32mp157c-ed1/bl2/multi_console.o
                0x2fff2b44                putchar
 .text.mdelay   0x2fff2b58        0xa ./../build/opteemin-programmer-uart-stm32mp157c-ed1/bl2/delay_timer.o
                0x2fff2b58                mdelay
 .text.get_timer_value
                0x2fff2b62        0x8 ./../build/opteemin-programmer-uart-stm32mp157c-ed1/bl2/generic_delay_timer.o
 .text.device_type_fip
                0x2fff2b6a        0x4 ./../build/opteemin-programmer-uart-stm32mp157c-ed1/bl2/io_fip.o
 .text.device_type_memmap
                0x2fff2b6e        0x4 ./../build/opteemin-programmer-uart-stm32mp157c-ed1/bl2/io_memmap.o
 .text.memmap_dev_close
                0x2fff2b72        0x4 ./../build/opteemin-programmer-uart-stm32mp157c-ed1/bl2/io_memmap.o
 .text.is_valid_dev
                0x2fff2b76       0x18 ./../build/opteemin-programmer-uart-stm32mp157c-ed1/bl2/io_storage.o
 .text.is_valid_entity
                0x2fff2b8e       0x10 ./../build/opteemin-programmer-uart-stm32mp157c-ed1/bl2/io_storage.o
 .text.bsec_read_otp
                0x2fff2b9e       0x2c ./../build/opteemin-programmer-uart-stm32mp157c-ed1/bl2/bsec2.o
                0x2fff2b9e                bsec_read_otp
 .text.clock_is_always_on
                0x2fff2bca       0x20 ./../build/opteemin-programmer-uart-stm32mp157c-ed1/bl2/stm32mp1_clk.o
 .text.stm32mp1_clk_lock
                0x2fff2bea       0x16 ./../build/opteemin-programmer-uart-stm32mp157c-ed1/bl2/stm32mp1_clk.o
 .text.stm32mp1_clk_unlock
                0x2fff2c00       0x16 ./../build/opteemin-programmer-uart-stm32mp157c-ed1/bl2/stm32mp1_clk.o
 .text.stm32_clk_parse_fdt_by_name
                0x2fff2c16       0x36 ./../build/opteemin-programmer-uart-stm32mp157c-ed1/bl2/stm32mp1_clk.o
 .text.stm32mp1_pll_configure_src
                0x2fff2c4c       0x18 ./../build/opteemin-programmer-uart-stm32mp157c-ed1/bl2/stm32mp1_clk.o
 .text.stm32mp1_mode_register_write.isra.0
                0x2fff2c64       0x22 ./../build/opteemin-programmer-uart-stm32mp157c-ed1/bl2/stm32mp1_ddr.o
 .text.stm32mp1_ddrphy_idone_wait
                0x2fff2c86       0x4a ./../build/opteemin-programmer-uart-stm32mp157c-ed1/bl2/stm32mp1_ddr.o
 .text.stm32mp1_wait_operating_mode
                0x2fff2cd0       0x4e ./../build/opteemin-programmer-uart-stm32mp157c-ed1/bl2/stm32mp1_ddr.o
 .text.ddr_enable_clock
                0x2fff2d1e       0x2a ./../build/opteemin-programmer-uart-stm32mp157c-ed1/bl2/stm32mp1_ddr_helpers.o
                0x2fff2d1e                ddr_enable_clock
 .text.ddr_get_io_calibration_val
                0x2fff2d48       0x10 ./../build/opteemin-programmer-uart-stm32mp157c-ed1/bl2/stm32mp1_ddr_helpers.o
                0x2fff2d48                ddr_get_io_calibration_val
 .text.ddr_standby_sr_entry
                0x2fff2d58      0x17e ./../build/opteemin-programmer-uart-stm32mp157c-ed1/bl2/stm32mp1_ddr_helpers.o
                0x2fff2d58                ddr_standby_sr_entry
 .text.stm32mp_ddr_start_sw_done
                0x2fff2ed6        0xe ./../build/opteemin-programmer-uart-stm32mp157c-ed1/bl2/stm32mp_ddr.o
                0x2fff2ed6                stm32mp_ddr_start_sw_done
 .text.stm32mp_ddr_wait_sw_done_ack
                0x2fff2ee4       0x3a ./../build/opteemin-programmer-uart-stm32mp157c-ed1/bl2/stm32mp_ddr.o
                0x2fff2ee4                stm32mp_ddr_wait_sw_done_ack
 .text.stm32mp_ddr_enable_axi_port
                0x2fff2f1e       0x1a ./../build/opteemin-programmer-uart-stm32mp157c-ed1/bl2/stm32mp_ddr.o
                0x2fff2f1e                stm32mp_ddr_enable_axi_port
 .text.stm32mp_ddr_disable_axi_port
                0x2fff2f38       0x46 ./../build/opteemin-programmer-uart-stm32mp157c-ed1/bl2/stm32mp_ddr.o
                0x2fff2f38                stm32mp_ddr_disable_axi_port
 .text.stm32mp_ddr_enable_host_interface
                0x2fff2f7e        0xe ./../build/opteemin-programmer-uart-stm32mp157c-ed1/bl2/stm32mp_ddr.o
                0x2fff2f7e                stm32mp_ddr_enable_host_interface
 .text.stm32mp_ddr_disable_host_interface
                0x2fff2f8c       0x4a ./../build/opteemin-programmer-uart-stm32mp157c-ed1/bl2/stm32mp_ddr.o
                0x2fff2f8c                stm32mp_ddr_disable_host_interface
 .text.stm32mp_ddr_sw_selfref_exit
                0x2fff2fd6        0xa ./../build/opteemin-programmer-uart-stm32mp157c-ed1/bl2/stm32mp_ddr.o
                0x2fff2fd6                stm32mp_ddr_sw_selfref_exit
 .text.stm32mp_ddr_wait_refresh_update_done_ack
                0x2fff2fe0       0x4c ./../build/opteemin-programmer-uart-stm32mp157c-ed1/bl2/stm32mp_ddr.o
                0x2fff2fe0                stm32mp_ddr_wait_refresh_update_done_ack
 .text.stm32mp_ddr_test_rw_access
                0x2fff302c       0x1a ./../build/opteemin-programmer-uart-stm32mp157c-ed1/bl2/stm32mp_ddr_test.o
                0x2fff302c                stm32mp_ddr_test_rw_access
 .text.stm32mp_ddr_test_data_bus
                0x2fff3046       0x1e ./../build/opteemin-programmer-uart-stm32mp157c-ed1/bl2/stm32mp_ddr_test.o
                0x2fff3046                stm32mp_ddr_test_data_bus
 .text.stm32mp_ddr_test_addr_bus
                0x2fff3064       0x86 ./../build/opteemin-programmer-uart-stm32mp157c-ed1/bl2/stm32mp_ddr_test.o
                0x2fff3064                stm32mp_ddr_test_addr_bus
 .text.stm32mp_ddr_check_size
                0x2fff30ea       0x2e ./../build/opteemin-programmer-uart-stm32mp157c-ed1/bl2/stm32mp_ddr_test.o
                0x2fff30ea                stm32mp_ddr_check_size
 .text.fdt32_to_cpu
                0x2fff3118        0x4 ./../build/opteemin-programmer-uart-stm32mp157c-ed1/bl2/stm32_gpio.o
 .text.i2c_wait_flag
                0x2fff311c       0x44 ./../build/opteemin-programmer-uart-stm32mp157c-ed1/bl2/stm32_i2c.o
 .text.i2c_ack_failed
                0x2fff3160       0x8c ./../build/opteemin-programmer-uart-stm32mp157c-ed1/bl2/stm32_i2c.o
 .text.i2c_wait_txis
                0x2fff31ec       0x42 ./../build/opteemin-programmer-uart-stm32mp157c-ed1/bl2/stm32_i2c.o
 .text.i2c_wait_stop
                0x2fff322e       0x42 ./../build/opteemin-programmer-uart-stm32mp157c-ed1/bl2/stm32_i2c.o
 .text.stm32_i2c_mem_write
                0x2fff3270       0x1c ./../build/opteemin-programmer-uart-stm32mp157c-ed1/bl2/stm32_i2c.o
                0x2fff3270                stm32_i2c_mem_write
 .text.stm32_i2c_mem_read
                0x2fff328c       0x12 ./../build/opteemin-programmer-uart-stm32mp157c-ed1/bl2/stm32_i2c.o
                0x2fff328c                stm32_i2c_mem_read
 .text.nvmem_cell_read
                0x2fff329e       0x18 ./../build/opteemin-programmer-uart-stm32mp157c-ed1/bl2/nvmem.o
                0x2fff329e                nvmem_cell_read
 .text.nvmem_cell_write
                0x2fff32b6       0x10 ./../build/opteemin-programmer-uart-stm32mp157c-ed1/bl2/nvmem.o
                0x2fff32b6                nvmem_cell_write
 .text.fdt32_to_cpu
                0x2fff32c6        0x4 ./../build/opteemin-programmer-uart-stm32mp157c-ed1/bl2/stm32mp_tamp_nvram_core.o
 .text.stm32_tamp_nvram_reg_get_zone
                0x2fff32ca       0x2a ./../build/opteemin-programmer-uart-stm32mp157c-ed1/bl2/stm32mp_tamp_nvram_core.o
                0x2fff32ca                stm32_tamp_nvram_reg_get_zone
 .text.stm32_tamp_nvram_reg_field_read
                0x2fff32f4       0x30 ./../build/opteemin-programmer-uart-stm32mp157c-ed1/bl2/stm32mp_tamp_nvram_core.o
                0x2fff32f4                stm32_tamp_nvram_reg_field_read
 .text.pmic_set_flag
                0x2fff3324       0x44 ./../build/opteemin-programmer-uart-stm32mp157c-ed1/bl2/stm32mp_pmic.o
 .text.pmic_list_voltages
                0x2fff3368        0x6 ./../build/opteemin-programmer-uart-stm32mp157c-ed1/bl2/stm32mp_pmic.o
 .text.pmic_get_voltage
                0x2fff336e        0x6 ./../build/opteemin-programmer-uart-stm32mp157c-ed1/bl2/stm32mp_pmic.o
 .text.pmic_set_voltage
                0x2fff3374        0x6 ./../build/opteemin-programmer-uart-stm32mp157c-ed1/bl2/stm32mp_pmic.o
 .text.pmic_get_state
                0x2fff337a        0xa ./../build/opteemin-programmer-uart-stm32mp157c-ed1/bl2/stm32mp_pmic.o
 .text.pmic_set_state
                0x2fff3384        0xc ./../build/opteemin-programmer-uart-stm32mp157c-ed1/bl2/stm32mp_pmic.o
 .text.pmic_voltages_init
                0x2fff3390        0x4 ./../build/opteemin-programmer-uart-stm32mp157c-ed1/bl2/stm32mp_pmic.o
                0x2fff3390                pmic_voltages_init
 .text.pmic_switch_off
                0x2fff3394       0x16 ./../build/opteemin-programmer-uart-stm32mp157c-ed1/bl2/stm32mp_pmic.o
                0x2fff3394                pmic_switch_off
 .text.stpmic1_is_regulator_enabled
                0x2fff33aa       0x2e ./../build/opteemin-programmer-uart-stm32mp157c-ed1/bl2/stpmic1.o
                0x2fff33aa                stpmic1_is_regulator_enabled
 .text.stpmic1_register_update
                0x2fff33d8       0x2e ./../build/opteemin-programmer-uart-stm32mp157c-ed1/bl2/stpmic1.o
                0x2fff33d8                stpmic1_register_update
 .text.stpmic1_powerctrl_on
                0x2fff3406        0xa ./../build/opteemin-programmer-uart-stm32mp157c-ed1/bl2/stpmic1.o
                0x2fff3406                stpmic1_powerctrl_on
 .text.stpmic1_switch_off
                0x2fff3410        0xa ./../build/opteemin-programmer-uart-stm32mp157c-ed1/bl2/stpmic1.o
                0x2fff3410                stpmic1_switch_off
 .text.stpmic1_regulator_enable
                0x2fff341a       0x14 ./../build/opteemin-programmer-uart-stm32mp157c-ed1/bl2/stpmic1.o
                0x2fff341a                stpmic1_regulator_enable
 .text.stpmic1_regulator_disable
                0x2fff342e       0x14 ./../build/opteemin-programmer-uart-stm32mp157c-ed1/bl2/stpmic1.o
                0x2fff342e                stpmic1_regulator_disable
 .text.stpmic1_regulator_pull_down_set
                0x2fff3442       0x24 ./../build/opteemin-programmer-uart-stm32mp157c-ed1/bl2/stpmic1.o
                0x2fff3442                stpmic1_regulator_pull_down_set
 .text.stpmic1_regulator_mask_reset_set
                0x2fff3466       0x24 ./../build/opteemin-programmer-uart-stm32mp157c-ed1/bl2/stpmic1.o
                0x2fff3466                stpmic1_regulator_mask_reset_set
 .text.stpmic1_regulator_icc_set
                0x2fff348a       0x24 ./../build/opteemin-programmer-uart-stm32mp157c-ed1/bl2/stpmic1.o
                0x2fff348a                stpmic1_regulator_icc_set
 .text.stpmic1_get_version
                0x2fff34ae       0x1e ./../build/opteemin-programmer-uart-stm32mp157c-ed1/bl2/stpmic1.o
                0x2fff34ae                stpmic1_get_version
 .text.fdt32_to_cpu
                0x2fff34cc        0x4 ./../build/opteemin-programmer-uart-stm32mp157c-ed1/bl2/regulator_core.o
 .text.unlock_driver.isra.0
                0x2fff34d0        0xa ./../build/opteemin-programmer-uart-stm32mp157c-ed1/bl2/regulator_core.o
 .text.lock_driver.isra.0
                0x2fff34da        0xa ./../build/opteemin-programmer-uart-stm32mp157c-ed1/bl2/regulator_core.o
 .text.regulator_set_min_voltage
                0x2fff34e4        0x6 ./../build/opteemin-programmer-uart-stm32mp157c-ed1/bl2/regulator_core.o
                0x2fff34e4                regulator_set_min_voltage
 .text.fixed_set_state
                0x2fff34ea        0x4 ./../build/opteemin-programmer-uart-stm32mp157c-ed1/bl2/regulator_fixed.o
 .text.fixed_get_state
                0x2fff34ee        0x4 ./../build/opteemin-programmer-uart-stm32mp157c-ed1/bl2/regulator_fixed.o
 .text.stm32mp_system_reset
                0x2fff34f2       0x14 ./../build/opteemin-programmer-uart-stm32mp157c-ed1/bl2/stm32mp1_reset.o
                0x2fff34f2                stm32mp_system_reset
 .text.stm32_uart_stop
                0x2fff3506        0xa ./../build/opteemin-programmer-uart-stm32mp157c-ed1/bl2/stm32_uart.o
                0x2fff3506                stm32_uart_stop
 .text.stm32_uart_putc
                0x2fff3510       0x2c ./../build/opteemin-programmer-uart-stm32mp157c-ed1/bl2/stm32_uart.o
                0x2fff3510                stm32_uart_putc
 .text.stm32_uart_flush
                0x2fff353c       0x20 ./../build/opteemin-programmer-uart-stm32mp157c-ed1/bl2/stm32_uart.o
                0x2fff353c                stm32_uart_flush
 .text.stm32_uart_getc
                0x2fff355c       0x2c ./../build/opteemin-programmer-uart-stm32mp157c-ed1/bl2/stm32_uart.o
                0x2fff355c                stm32_uart_getc
 .text.__ctzdi2
                0x2fff3588       0x22 ./../build/opteemin-programmer-uart-stm32mp157c-ed1/bl2/ctzdi2.o
                0x2fff3588                __ctzdi2
 .text.__udivmoddi4
                0x2fff35aa      0x180 ./../build/opteemin-programmer-uart-stm32mp157c-ed1/bl2/udivmoddi4.o
                0x2fff35aa                __udivmoddi4
 .text.xlat_arch_get_pas
                0x2fff372a       0x10 ./../build/opteemin-programmer-uart-stm32mp157c-ed1/bl2/xlat_tables_arch.o
                0x2fff372a                xlat_arch_get_pas
 .text.xlat_arch_get_max_supported_pa
                0x2fff373a        0x8 ./../build/opteemin-programmer-uart-stm32mp157c-ed1/bl2/xlat_tables_arch.o
                0x2fff373a                xlat_arch_get_max_supported_pa
 .text.xlat_get_min_virt_addr_space_size
                0x2fff3742        0x6 ./../build/opteemin-programmer-uart-stm32mp157c-ed1/bl2/xlat_tables_arch.o
                0x2fff3742                xlat_get_min_virt_addr_space_size
 .text.is_dcache_enabled
                0x2fff3748       0x1c ./../build/opteemin-programmer-uart-stm32mp157c-ed1/bl2/xlat_tables_arch.o
                0x2fff3748                is_dcache_enabled
 .text.xlat_arch_tlbi_va_sync
                0x2fff3764       0x10 ./../build/opteemin-programmer-uart-stm32mp157c-ed1/bl2/xlat_tables_arch.o
                0x2fff3764                xlat_arch_tlbi_va_sync
 .text.mmap_add_region_check
                0x2fff3774      0x12e ./../build/opteemin-programmer-uart-stm32mp157c-ed1/bl2/xlat_tables_core.o
 .text.xlat_clean_dcache_range
                0x2fff38a2       0x1a ./../build/opteemin-programmer-uart-stm32mp157c-ed1/bl2/xlat_tables_core.o
 .text.mmap_add_ctx
                0x2fff38bc       0x18 ./../build/opteemin-programmer-uart-stm32mp157c-ed1/bl2/xlat_tables_core.o
                0x2fff38bc                mmap_add_ctx
 .text.xlat_mmap_print
                0x2fff38d4        0x2 ./../build/opteemin-programmer-uart-stm32mp157c-ed1/bl2/xlat_tables_utils.o
                0x2fff38d4                xlat_mmap_print
 .text.xlat_tables_print
                0x2fff38d6        0x2 ./../build/opteemin-programmer-uart-stm32mp157c-ed1/bl2/xlat_tables_utils.o
                0x2fff38d6                xlat_tables_print
 .text.plat_error_handler
                0x2fff38d8        0x4 ./../build/opteemin-programmer-uart-stm32mp157c-ed1/bl2/plat_bl_common.o
                0x2fff38d8                plat_error_handler
 .text.bl2_plat_preload_setup
                0x2fff38dc        0x2 ./../build/opteemin-programmer-uart-stm32mp157c-ed1/bl2/plat_bl_common.o
                0x2fff38dc                bl2_plat_preload_setup
 .text.plat_try_next_boot_source
                0x2fff38de        0x4 ./../build/opteemin-programmer-uart-stm32mp157c-ed1/bl2/plat_bl_common.o
                0x2fff38de                plat_try_next_boot_source
 .text.plat_try_backup_partitions
                0x2fff38e2        0x4 ./../build/opteemin-programmer-uart-stm32mp157c-ed1/bl2/bl2_io_storage.o
                0x2fff38e2                plat_try_backup_partitions
 .text.plat_flush_next_bl_params
                0x2fff38e6        0x4 ./../build/opteemin-programmer-uart-stm32mp157c-ed1/bl2/plat_image_load.o
                0x2fff38e6                plat_flush_next_bl_params
 .text.plat_get_bl_image_load_info
                0x2fff38ea        0x4 ./../build/opteemin-programmer-uart-stm32mp157c-ed1/bl2/plat_image_load.o
                0x2fff38ea                plat_get_bl_image_load_info
 .text.plat_get_next_bl_params
                0x2fff38ee       0x10 ./../build/opteemin-programmer-uart-stm32mp157c-ed1/bl2/plat_image_load.o
                0x2fff38ee                plat_get_next_bl_params
 .text.plat_get_syscnt_freq2
                0x2fff38fe        0x6 ./../build/opteemin-programmer-uart-stm32mp157c-ed1/bl2/stm32mp_common.o
                0x2fff38fe                plat_get_syscnt_freq2
 .text.stm32mp_rcc_base
                0x2fff3904        0x6 ./../build/opteemin-programmer-uart-stm32mp157c-ed1/bl2/stm32mp_common.o
                0x2fff3904                stm32mp_rcc_base
 .text.stm32mp_lock_available
                0x2fff390a       0x10 ./../build/opteemin-programmer-uart-stm32mp157c-ed1/bl2/stm32mp_common.o
                0x2fff390a                stm32mp_lock_available
 .text.stm32mp_map_ddr_non_cacheable
                0x2fff391a       0x1e ./../build/opteemin-programmer-uart-stm32mp157c-ed1/bl2/stm32mp_common.o
                0x2fff391a                stm32mp_map_ddr_non_cacheable
 .text.stm32mp_unmap_ddr
                0x2fff3938        0xc ./../build/opteemin-programmer-uart-stm32mp157c-ed1/bl2/stm32mp_common.o
                0x2fff3938                stm32mp_unmap_ddr
 .text.fdt32_to_cpu
                0x2fff3944        0x4 ./../build/opteemin-programmer-uart-stm32mp157c-ed1/bl2/stm32mp_dt.o
 .text.dt_get_pwr_vdd_voltage
                0x2fff3948       0x22 ./../build/opteemin-programmer-uart-stm32mp157c-ed1/bl2/stm32mp_dt.o
                0x2fff3948                dt_get_pwr_vdd_voltage
 .text.bl2_el3_early_platform_setup
                0x2fff396a        0x4 ./../build/opteemin-programmer-uart-stm32mp157c-ed1/bl2/bl2_plat_setup.o
                0x2fff396a                bl2_el3_early_platform_setup
 .text.stm32_clean_context
                0x2fff396e       0x24 ./../build/opteemin-programmer-uart-stm32mp157c-ed1/bl2/stm32mp1_context.o
                0x2fff396e                stm32_clean_context
 .text.stm32_get_zdata_from_context
                0x2fff3992       0x1c ./../build/opteemin-programmer-uart-stm32mp157c-ed1/bl2/stm32mp1_context.o
                0x2fff3992                stm32_get_zdata_from_context
 .text.stm32_pwr_cstop_critic_exit
                0x2fff39ae       0x1a ./../build/opteemin-programmer-uart-stm32mp157c-ed1/bl2/stm32mp1_critic_power.o
                0x2fff39ae                stm32_pwr_cstop_critic_exit
 .text.fdt32_to_cpu
                0x2fff39c8        0x4 ./../build/opteemin-programmer-uart-stm32mp157c-ed1/bl2/stm32mp1_fconf_firewall.o
 .text.stm32mp_is_wakeup_from_standby
                0x2fff39cc        0x4 ./../build/opteemin-programmer-uart-stm32mp157c-ed1/bl2/stm32mp1_private.o
                0x2fff39cc                stm32mp_is_wakeup_from_standby
 .text.stm32mp_skip_boot_device_after_standby
                0x2fff39d0        0x4 ./../build/opteemin-programmer-uart-stm32mp157c-ed1/bl2/stm32mp1_private.o
                0x2fff39d0                stm32mp_skip_boot_device_after_standby
 .text.fdt32_ld
                0x2fff39d4       0x18 ./../build/opteemin-programmer-uart-stm32mp157c-ed1/lib/libfdt.a(fdt.o)
 .text.fdt_header_size_
                0x2fff39ec       0x1a ./../build/opteemin-programmer-uart-stm32mp157c-ed1/lib/libfdt.a(fdt.o)
                0x2fff39ec                fdt_header_size_
 .text.fdt_header_size
                0x2fff3a06       0x10 ./../build/opteemin-programmer-uart-stm32mp157c-ed1/lib/libfdt.a(fdt.o)
                0x2fff3a06                fdt_header_size
 .text.fdt_offset_ptr
                0x2fff3a16       0x54 ./../build/opteemin-programmer-uart-stm32mp157c-ed1/lib/libfdt.a(fdt.o)
                0x2fff3a16                fdt_offset_ptr
 .text.fdt_next_tag
                0x2fff3a6a       0xbc ./../build/opteemin-programmer-uart-stm32mp157c-ed1/lib/libfdt.a(fdt.o)
                0x2fff3a6a                fdt_next_tag
 .text.fdt_check_node_offset_
                0x2fff3b26       0x24 ./../build/opteemin-programmer-uart-stm32mp157c-ed1/lib/libfdt.a(fdt.o)
                0x2fff3b26                fdt_check_node_offset_
 .text.fdt_check_prop_offset_
                0x2fff3b4a       0x24 ./../build/opteemin-programmer-uart-stm32mp157c-ed1/lib/libfdt.a(fdt.o)
                0x2fff3b4a                fdt_check_prop_offset_
 .text.fdt_next_node
                0x2fff3b6e       0x6e ./../build/opteemin-programmer-uart-stm32mp157c-ed1/lib/libfdt.a(fdt.o)
                0x2fff3b6e                fdt_next_node
 .text.fdt_first_subnode
                0x2fff3bdc       0x26 ./../build/opteemin-programmer-uart-stm32mp157c-ed1/lib/libfdt.a(fdt.o)
                0x2fff3bdc                fdt_first_subnode
 .text.fdt_next_subnode
                0x2fff3c02       0x2a ./../build/opteemin-programmer-uart-stm32mp157c-ed1/lib/libfdt.a(fdt.o)
                0x2fff3c02                fdt_next_subnode
 .text.fdt_cells
                0x2fff3c2c       0x2a ./../build/opteemin-programmer-uart-stm32mp157c-ed1/lib/libfdt.a(fdt_addresses.o)
 .text.fdt32_ld
                0x2fff3c56       0x18 ./../build/opteemin-programmer-uart-stm32mp157c-ed1/lib/libfdt.a(fdt_ro.o)
 .text.nextprop_
                0x2fff3c6e       0x32 ./../build/opteemin-programmer-uart-stm32mp157c-ed1/lib/libfdt.a(fdt_ro.o)
 .text.fdt32_ld_.isra.0
                0x2fff3ca0        0x4 ./../build/opteemin-programmer-uart-stm32mp157c-ed1/lib/libfdt.a(fdt_ro.o)
 .text.fdt_get_property_by_offset_
                0x2fff3ca4       0x34 ./../build/opteemin-programmer-uart-stm32mp157c-ed1/lib/libfdt.a(fdt_ro.o)
 .text.fdt_get_name
                0x2fff3cd8       0x62 ./../build/opteemin-programmer-uart-stm32mp157c-ed1/lib/libfdt.a(fdt_ro.o)
                0x2fff3cd8                fdt_get_name
 .text.fdt_subnode_offset_namelen
                0x2fff3d3a       0x7a ./../build/opteemin-programmer-uart-stm32mp157c-ed1/lib/libfdt.a(fdt_ro.o)
                0x2fff3d3a                fdt_subnode_offset_namelen
 .text.fdt_subnode_offset
                0x2fff3db4       0x1e ./../build/opteemin-programmer-uart-stm32mp157c-ed1/lib/libfdt.a(fdt_ro.o)
                0x2fff3db4                fdt_subnode_offset
 .text.fdt_first_property_offset
                0x2fff3dd2       0x18 ./../build/opteemin-programmer-uart-stm32mp157c-ed1/lib/libfdt.a(fdt_ro.o)
                0x2fff3dd2                fdt_first_property_offset
 .text.fdt_next_property_offset
                0x2fff3dea       0x18 ./../build/opteemin-programmer-uart-stm32mp157c-ed1/lib/libfdt.a(fdt_ro.o)
                0x2fff3dea                fdt_next_property_offset
 .text.fdt_get_property_namelen_
                0x2fff3e02       0x7c ./../build/opteemin-programmer-uart-stm32mp157c-ed1/lib/libfdt.a(fdt_ro.o)
 .text.fdt_getprop_namelen
                0x2fff3e7e       0x40 ./../build/opteemin-programmer-uart-stm32mp157c-ed1/lib/libfdt.a(fdt_ro.o)
                0x2fff3e7e                fdt_getprop_namelen
 .text.fdt_getprop
                0x2fff3ebe       0x22 ./../build/opteemin-programmer-uart-stm32mp157c-ed1/lib/libfdt.a(fdt_ro.o)
                0x2fff3ebe                fdt_getprop
 .text.fdt_path_offset_namelen
                0x2fff3ee0       0x94 ./../build/opteemin-programmer-uart-stm32mp157c-ed1/lib/libfdt.a(fdt_ro.o)
                0x2fff3ee0                fdt_path_offset_namelen
 .text.fdt_path_offset
                0x2fff3f74       0x1a ./../build/opteemin-programmer-uart-stm32mp157c-ed1/lib/libfdt.a(fdt_ro.o)
                0x2fff3f74                fdt_path_offset
 .text.fdt_supernode_atdepth_offset
                0x2fff3f8e       0x6c ./../build/opteemin-programmer-uart-stm32mp157c-ed1/lib/libfdt.a(fdt_ro.o)
                0x2fff3f8e                fdt_supernode_atdepth_offset
 .text.fdt_node_depth
                0x2fff3ffa       0x20 ./../build/opteemin-programmer-uart-stm32mp157c-ed1/lib/libfdt.a(fdt_ro.o)
                0x2fff3ffa                fdt_node_depth
 .text.fdt_parent_offset
                0x2fff401a       0x20 ./../build/opteemin-programmer-uart-stm32mp157c-ed1/lib/libfdt.a(fdt_ro.o)
                0x2fff401a                fdt_parent_offset
 .text.fdt_node_offset_by_phandle
                0x2fff403a       0x42 ./../build/opteemin-programmer-uart-stm32mp157c-ed1/lib/libfdt.a(fdt_ro.o)
                0x2fff403a                fdt_node_offset_by_phandle
 .text.fdt_stringlist_contains
                0x2fff407c       0x46 ./../build/opteemin-programmer-uart-stm32mp157c-ed1/lib/libfdt.a(fdt_ro.o)
                0x2fff407c                fdt_stringlist_contains
 .text.fdt_stringlist_search
                0x2fff40c2       0x66 ./../build/opteemin-programmer-uart-stm32mp157c-ed1/lib/libfdt.a(fdt_ro.o)
                0x2fff40c2                fdt_stringlist_search
 .text.fdt_node_offset_by_compatible
                0x2fff4128       0x36 ./../build/opteemin-programmer-uart-stm32mp157c-ed1/lib/libfdt.a(fdt_ro.o)
                0x2fff4128                fdt_node_offset_by_compatible
 .text.memchr   0x2fff415e       0x1c ./../build/opteemin-programmer-uart-stm32mp157c-ed1/lib/libc.a(memchr.o)
                0x2fff415e                memchr
 .text.memcmp   0x2fff417a       0x1c ./../build/opteemin-programmer-uart-stm32mp157c-ed1/lib/libc.a(memcmp.o)
                0x2fff417a                memcmp
 .text.memcpy   0x2fff4196       0x16 ./../build/opteemin-programmer-uart-stm32mp157c-ed1/lib/libc.a(memcpy.o)
                0x2fff4196                memcpy
 .text.memmove  0x2fff41ac       0x2c ./../build/opteemin-programmer-uart-stm32mp157c-ed1/lib/libc.a(memmove.o)
                0x2fff41ac                memmove
 .text.memset   0x2fff41d8       0x42 ./../build/opteemin-programmer-uart-stm32mp157c-ed1/lib/libc.a(memset.o)
                0x2fff41d8                memset
 .text.unsigned_num_print.part.0
                0x2fff421a       0x92 ./../build/opteemin-programmer-uart-stm32mp157c-ed1/lib/libc.a(printf.o)
 .text.printf   0x2fff42ac       0x1a ./../build/opteemin-programmer-uart-stm32mp157c-ed1/lib/libc.a(printf.o)
                0x2fff42ac                printf
 .text.unsigned_num_print
                0x2fff42c6       0xca ./../build/opteemin-programmer-uart-stm32mp157c-ed1/lib/libc.a(snprintf.o)
 .text.snprintf
                0x2fff4390       0x1a ./../build/opteemin-programmer-uart-stm32mp157c-ed1/lib/libc.a(snprintf.o)
                0x2fff4390                snprintf
 .text.strchr   0x2fff43aa       0x16 ./../build/opteemin-programmer-uart-stm32mp157c-ed1/lib/libc.a(strchr.o)
                0x2fff43aa                strchr
 .text.strcmp   0x2fff43c0       0x18 ./../build/opteemin-programmer-uart-stm32mp157c-ed1/lib/libc.a(strcmp.o)
                0x2fff43c0                strcmp
 .text.strlcpy  0x2fff43d8       0x28 ./../build/opteemin-programmer-uart-stm32mp157c-ed1/lib/libc.a(strlcpy.o)
                0x2fff43d8                strlcpy
 .text.strlen   0x2fff4400       0x10 ./../build/opteemin-programmer-uart-stm32mp157c-ed1/lib/libc.a(strlen.o)
                0x2fff4400                strlen
 .text.strncmp  0x2fff4410       0x28 ./../build/opteemin-programmer-uart-stm32mp157c-ed1/lib/libc.a(strncmp.o)
                0x2fff4410                strncmp
 .text.strnlen  0x2fff4438       0x14 ./../build/opteemin-programmer-uart-stm32mp157c-ed1/lib/libc.a(strnlen.o)
                0x2fff4438                strnlen
 .text.strrchr  0x2fff444c       0x1a ./../build/opteemin-programmer-uart-stm32mp157c-ed1/lib/libc.a(strrchr.o)
                0x2fff444c                strrchr
 *(SORT_BY_ALIGNMENT(.rodata*))
 *fill*         0x2fff4466        0x2 
 .rodata.stm32mp1_mmap
                0x2fff4468       0x48 ./../build/opteemin-programmer-uart-stm32mp157c-ed1/bl2/stm32mp1_private.o
 .rodata.fip_dev_funcs
                0x2fff44b0       0x24 ./../build/opteemin-programmer-uart-stm32mp157c-ed1/bl2/io_fip.o
 .rodata.fip_dev_connector
                0x2fff44d4        0x4 ./../build/opteemin-programmer-uart-stm32mp157c-ed1/bl2/io_fip.o
 .rodata.memmap_dev_funcs
                0x2fff44d8       0x24 ./../build/opteemin-programmer-uart-stm32mp157c-ed1/bl2/io_memmap.o
 .rodata.memmap_dev_connector
                0x2fff44fc        0x4 ./../build/opteemin-programmer-uart-stm32mp157c-ed1/bl2/io_memmap.o
 .rodata.stm32mp_clk_ops
                0x2fff4500       0x14 ./../build/opteemin-programmer-uart-stm32mp157c-ed1/bl2/stm32mp1_clk.o
 .rodata.stm32mp1_clk_pll
                0x2fff4514       0x80 ./../build/opteemin-programmer-uart-stm32mp157c-ed1/bl2/stm32mp1_clk.o
 .rodata.stm32mp1_clk_sel
                0x2fff4594      0x108 ./../build/opteemin-programmer-uart-stm32mp157c-ed1/bl2/stm32mp1_clk.o
 .rodata        0x2fff469c       0x40 ./../build/opteemin-programmer-uart-stm32mp157c-ed1/bl2/stm32mp1_clk.o
 .rodata.ddr_registers
                0x2fff46dc       0x60 ./../build/opteemin-programmer-uart-stm32mp157c-ed1/bl2/stm32mp1_ddr.o
 .rodata        0x2fff473c       0x48 ./../build/opteemin-programmer-uart-stm32mp157c-ed1/bl2/stm32mp1_ram.o
 .rodata.i2c_specs
                0x2fff4784       0x60 ./../build/opteemin-programmer-uart-stm32mp157c-ed1/bl2/stm32_i2c.o
 .rodata.stm32_tamp_nvram_nvmem_ops
                0x2fff47e4        0x8 ./../build/opteemin-programmer-uart-stm32mp157c-ed1/bl2/stm32mp_tamp_nvram_core.o
 .rodata.stm32mp1_tamp_nvram
                0x2fff47ec        0x8 ./../build/opteemin-programmer-uart-stm32mp157c-ed1/bl2/stm32mp_tamp_nvram_mp1.o
 .rodata.mp1_zone_cfg_fields
                0x2fff47f4       0x18 ./../build/opteemin-programmer-uart-stm32mp157c-ed1/bl2/stm32mp_tamp_nvram_mp1.o
 .rodata.pmic_regs
                0x2fff480c      0x118 ./../build/opteemin-programmer-uart-stm32mp157c-ed1/bl2/stm32mp_pmic.o
 .rodata.pmic_ops
                0x2fff4924       0x20 ./../build/opteemin-programmer-uart-stm32mp157c-ed1/bl2/stm32mp_pmic.o
 .rodata.regulators_table
                0x2fff4944      0x118 ./../build/opteemin-programmer-uart-stm32mp157c-ed1/bl2/stpmic1.o
 .rodata.plat_prefix_str
                0x2fff4a5c       0x14 ./../build/opteemin-programmer-uart-stm32mp157c-ed1/bl2/plat_log_common.o
 .rodata.init   0x2fff4a70       0x2c ./../build/opteemin-programmer-uart-stm32mp157c-ed1/bl2/stm32cubeprogrammer_uart.o
                0x2fff4a70                init
 .rodata.load_info
                0x2fff4a9c       0x38 ./../build/opteemin-programmer-uart-stm32mp157c-ed1/bl2/stm32mp_fconf_io.o
 .rodata        0x2fff4ad4       0x10 ./../build/opteemin-programmer-uart-stm32mp157c-ed1/bl2/bl2_plat_setup.o
 .rodata.CSWTCH.26
                0x2fff4ae4       0x10 ./../build/opteemin-programmer-uart-stm32mp157c-ed1/bl2/stm32mp1_private.o
 .rodata.CSWTCH.25
                0x2fff4af4       0x10 ./../build/opteemin-programmer-uart-stm32mp157c-ed1/bl2/stm32mp1_private.o
 .rodata.stm32mp1_uart_addresses
                0x2fff4b04       0x20 ./../build/opteemin-programmer-uart-stm32mp157c-ed1/bl2/stm32mp1_private.o
 .rodata.stm32mp1_clk_gate
                0x2fff4b24      0x1d8 ./../build/opteemin-programmer-uart-stm32mp157c-ed1/bl2/stm32mp1_clk.o
 .rodata.parent_mp15
                0x2fff4cfc      0x108 ./../build/opteemin-programmer-uart-stm32mp157c-ed1/bl2/stm32mp1_clk.o
 .rodata.dividers_mp15
                0x2fff4e04       0x96 ./../build/opteemin-programmer-uart-stm32mp157c-ed1/bl2/stm32mp1_clk.o
 .rodata.ddrphy_timing
                0x2fff4e9a       0x28 ./../build/opteemin-programmer-uart-stm32mp157c-ed1/bl2/stm32mp1_ddr.o
 .rodata.ddrphy_reg
                0x2fff4ec2       0x2c ./../build/opteemin-programmer-uart-stm32mp157c-ed1/bl2/stm32mp1_ddr.o
 .rodata.ddr_perf
                0x2fff4eee       0x44 ./../build/opteemin-programmer-uart-stm32mp157c-ed1/bl2/stm32mp1_ddr.o
 .rodata.ddr_map
                0x2fff4f32       0x24 ./../build/opteemin-programmer-uart-stm32mp157c-ed1/bl2/stm32mp1_ddr.o
 .rodata.ddr_timing
                0x2fff4f56       0x30 ./../build/opteemin-programmer-uart-stm32mp157c-ed1/bl2/stm32mp1_ddr.o
 .rodata.ddr_reg
                0x2fff4f86       0x64 ./../build/opteemin-programmer-uart-stm32mp157c-ed1/bl2/stm32mp1_ddr.o
 .rodata.fixed_5v_voltage_table
                0x2fff4fea        0x2 ./../build/opteemin-programmer-uart-stm32mp157c-ed1/bl2/stpmic1.o
 .rodata.vref_ddr_voltage_table
                0x2fff4fec        0x2 ./../build/opteemin-programmer-uart-stm32mp157c-ed1/bl2/stpmic1.o
 .rodata.ldo4_voltage_table
                0x2fff4fee        0x2 ./../build/opteemin-programmer-uart-stm32mp157c-ed1/bl2/stpmic1.o
 .rodata.ldo6_voltage_table
                0x2fff4ff0       0x32 ./../build/opteemin-programmer-uart-stm32mp157c-ed1/bl2/stpmic1.o
 .rodata.ldo5_voltage_table
                0x2fff5022       0x3e ./../build/opteemin-programmer-uart-stm32mp157c-ed1/bl2/stpmic1.o
 .rodata.ldo3_special_mode_table
                0x2fff5060        0x2 ./../build/opteemin-programmer-uart-stm32mp157c-ed1/bl2/stpmic1.o
 .rodata.ldo3_voltage_table
                0x2fff5062       0x3e ./../build/opteemin-programmer-uart-stm32mp157c-ed1/bl2/stpmic1.o
 .rodata.ldo2_voltage_table
                0x2fff50a0       0x32 ./../build/opteemin-programmer-uart-stm32mp157c-ed1/bl2/stpmic1.o
 .rodata.ldo1_voltage_table
                0x2fff50d2       0x32 ./../build/opteemin-programmer-uart-stm32mp157c-ed1/bl2/stpmic1.o
 .rodata.buck4_voltage_table
                0x2fff5104       0x7a ./../build/opteemin-programmer-uart-stm32mp157c-ed1/bl2/stpmic1.o
 .rodata.buck3_voltage_table
                0x2fff517e       0x70 ./../build/opteemin-programmer-uart-stm32mp157c-ed1/bl2/stpmic1.o
 .rodata.buck2_voltage_table
                0x2fff51ee       0x4a ./../build/opteemin-programmer-uart-stm32mp157c-ed1/bl2/stpmic1.o
 .rodata.buck1_voltage_table
                0x2fff5238       0x80 ./../build/opteemin-programmer-uart-stm32mp157c-ed1/bl2/stpmic1.o
 .rodata.presc_table
                0x2fff52b8       0x18 ./../build/opteemin-programmer-uart-stm32mp157c-ed1/bl2/stm32_uart.o
 .rodata.version_string
                0x2fff52d0       0x35 ./../build/opteemin-programmer-uart-stm32mp157c-ed1/bl2/build_message.o
                0x2fff52d0                version_string
 .rodata.build_message
                0x2fff5305       0x1e ./../build/opteemin-programmer-uart-stm32mp157c-ed1/bl2/build_message.o
                0x2fff5305                build_message
 .rodata.bl2_load_images.str1.1
                0x2fff5323     0x2484 ./../build/opteemin-programmer-uart-stm32mp157c-ed1/bl2/bl2_image_load_v2.o
                                0x11a (size before relaxing)
 .rodata.bl2_main.str1.1
                0x2fff77a7       0x1e ./../build/opteemin-programmer-uart-stm32mp157c-ed1/bl2/bl2_main.o
 .rodata.load_auth_image.str1.1
                0x2fff77a7      0x12d ./../build/opteemin-programmer-uart-stm32mp157c-ed1/bl2/bl_common.o
 .rodata.print_entry_point_info.str1.1
                0x2fff77a7       0x2c ./../build/opteemin-programmer-uart-stm32mp157c-ed1/bl2/bl_common.o
 .rodata.flush_bl_params_desc_args.str1.1
                0x2fff77a7       0x19 ./../build/opteemin-programmer-uart-stm32mp157c-ed1/bl2/desc_image_load.o
 .rodata.CSWTCH.28
                0x2fff77a7        0x3 ./../build/opteemin-programmer-uart-stm32mp157c-ed1/bl2/desc_image_load.o
 .rodata.fdt_read_uint32_array.str1.1
                0x2fff77aa       0x31 ./../build/opteemin-programmer-uart-stm32mp157c-ed1/bl2/fdt_wrappers.o
 .rodata.fdtw_read_bytes.str1.1
                0x2fff77aa       0x23 ./../build/opteemin-programmer-uart-stm32mp157c-ed1/bl2/fdt_wrappers.o
 .rodata.fdtw_read_string.str1.1
                0x2fff77aa       0x32 ./../build/opteemin-programmer-uart-stm32mp157c-ed1/bl2/fdt_wrappers.o
 .rodata.fdt_get_stdout_node_offset.str1.1
                0x2fff77aa       0x23 ./../build/opteemin-programmer-uart-stm32mp157c-ed1/bl2/fdt_wrappers.o
 .rodata.tf_log.str1.1
                0x2fff77aa       0x10 ./../build/opteemin-programmer-uart-stm32mp157c-ed1/bl2/tf_log.o
 .rodata.read_uuid.str1.1
                0x2fff77aa       0x30 ./../build/opteemin-programmer-uart-stm32mp157c-ed1/bl2/uuid.o
 .rodata.tzc400_set_action.str1.1
                0x2fff77aa       0x19 ./../build/opteemin-programmer-uart-stm32mp157c-ed1/bl2/tzc400.o
 .rodata.tzc400_init.str1.1
                0x2fff77aa       0x24 ./../build/opteemin-programmer-uart-stm32mp157c-ed1/bl2/tzc400.o
 .rodata.tzc400_enable_filters.str1.1
                0x2fff77aa       0x32 ./../build/opteemin-programmer-uart-stm32mp157c-ed1/bl2/tzc400.o
 .rodata.clk_enable.str1.1
                0x2fff77aa       0x12 ./../build/opteemin-programmer-uart-stm32mp157c-ed1/bl2/clk.o
 .rodata.console_unregister.str1.1
                0x2fff77aa       0x20 ./../build/opteemin-programmer-uart-stm32mp157c-ed1/bl2/multi_console.o
 .rodata.udelay.str1.1
                0x2fff77aa       0x22 ./../build/opteemin-programmer-uart-stm32mp157c-ed1/bl2/delay_timer.o
 .rodata.generic_delay_timer_init.str1.1
                0x2fff77aa       0x2a ./../build/opteemin-programmer-uart-stm32mp157c-ed1/bl2/generic_delay_timer.o
 .rodata.fip_dev_init.str1.1
                0x2fff77aa       0x97 ./../build/opteemin-programmer-uart-stm32mp157c-ed1/bl2/io_fip.o
 .rodata.fip_file_read.str1.1
                0x2fff77aa       0x58 ./../build/opteemin-programmer-uart-stm32mp157c-ed1/bl2/io_fip.o
 .rodata.fip_file_open.str1.1
                0x2fff77aa       0x97 ./../build/opteemin-programmer-uart-stm32mp157c-ed1/bl2/io_fip.o
 .rodata.uuid_null.0
                0x2fff77aa       0x10 ./../build/opteemin-programmer-uart-stm32mp157c-ed1/bl2/io_fip.o
 .rodata.memmap_block_write.str1.1
                0x2fff77ba       0x17 ./../build/opteemin-programmer-uart-stm32mp157c-ed1/bl2/io_memmap.o
 .rodata.memmap_block_open.str1.1
                0x2fff77ba       0x32 ./../build/opteemin-programmer-uart-stm32mp157c-ed1/bl2/io_memmap.o
 .rodata.free_entity.isra.0.str1.1
                0x2fff77ba       0x18 ./../build/opteemin-programmer-uart-stm32mp157c-ed1/bl2/io_storage.o
 .rodata.is_otp_invalid_mode.str1.1
                0x2fff77ba       0x1a ./../build/opteemin-programmer-uart-stm32mp157c-ed1/bl2/bsec2.o
 .rodata.otp_bank_offset.str1.1
                0x2fff77ba       0x18 ./../build/opteemin-programmer-uart-stm32mp157c-ed1/bl2/bsec2.o
 .rodata.bsec_write_otp.str1.1
                0x2fff77ba       0x2a ./../build/opteemin-programmer-uart-stm32mp157c-ed1/bl2/bsec2.o
 .rodata.bsec_program_otp.str1.1
                0x2fff77ba       0xa8 ./../build/opteemin-programmer-uart-stm32mp157c-ed1/bl2/bsec2.o
 .rodata.bsec_shadow_read_otp.str1.1
                0x2fff77ba       0x60 ./../build/opteemin-programmer-uart-stm32mp157c-ed1/bl2/bsec2.o
 .rodata.stm32mp1_clk_get_gated_id.str1.1
                0x2fff77ba       0x1b ./../build/opteemin-programmer-uart-stm32mp157c-ed1/bl2/stm32mp1_clk.o
 .rodata.stm32mp_clk_disable.str1.1
                0x2fff77ba       0x3d ./../build/opteemin-programmer-uart-stm32mp157c-ed1/bl2/stm32mp1_clk.o
 .rodata.stm32mp_clk_enable.str1.1
                0x2fff77ba       0x44 ./../build/opteemin-programmer-uart-stm32mp157c-ed1/bl2/stm32mp1_clk.o
 .rodata.stm32mp1_osc_wait.isra.0.str1.1
                0x2fff77ba       0x2c ./../build/opteemin-programmer-uart-stm32mp157c-ed1/bl2/stm32mp1_clk.o
 .rodata.stm32mp1_clk_init.str1.1
                0x2fff77ba       0x45 ./../build/opteemin-programmer-uart-stm32mp157c-ed1/bl2/stm32mp1_clk.o
 .rodata.stm32mp1_clk_probe.str1.1
                0x2fff77ba       0x62 ./../build/opteemin-programmer-uart-stm32mp157c-ed1/bl2/stm32mp1_clk.o
 .rodata.__func__.0
                0x2fff77ba       0x1a ./../build/opteemin-programmer-uart-stm32mp157c-ed1/bl2/stm32mp1_clk.o
 .rodata.stm32mp1_axi_div
                0x2fff77d4        0x8 ./../build/opteemin-programmer-uart-stm32mp157c-ed1/bl2/stm32mp1_clk.o
 .rodata.stm32mp1_mpu_apbx_div
                0x2fff77dc        0x8 ./../build/opteemin-programmer-uart-stm32mp157c-ed1/bl2/stm32mp1_clk.o
 .rodata.stm32mp1_mcu_div
                0x2fff77e4       0x10 ./../build/opteemin-programmer-uart-stm32mp157c-ed1/bl2/stm32mp1_clk.o
 .rodata.pllncfgr2
                0x2fff77f4        0x3 ./../build/opteemin-programmer-uart-stm32mp157c-ed1/bl2/stm32mp1_clk.o
 .rodata.stm32mp1_pll
                0x2fff77f7        0x4 ./../build/opteemin-programmer-uart-stm32mp157c-ed1/bl2/stm32mp1_clk.o
 .rodata.rtc_parents
                0x2fff77fb        0x4 ./../build/opteemin-programmer-uart-stm32mp157c-ed1/bl2/stm32mp1_clk.o
 .rodata.per_parents
                0x2fff77ff        0x3 ./../build/opteemin-programmer-uart-stm32mp157c-ed1/bl2/stm32mp1_clk.o
 .rodata.mpu_parents
                0x2fff7802        0x4 ./../build/opteemin-programmer-uart-stm32mp157c-ed1/bl2/stm32mp1_clk.o
 .rodata.usbo_parents
                0x2fff7806        0x2 ./../build/opteemin-programmer-uart-stm32mp157c-ed1/bl2/stm32mp1_clk.o
 .rodata.usbphy_parents
                0x2fff7808        0x3 ./../build/opteemin-programmer-uart-stm32mp157c-ed1/bl2/stm32mp1_clk.o
 .rodata.mcuss_parents
                0x2fff780b        0x4 ./../build/opteemin-programmer-uart-stm32mp157c-ed1/bl2/stm32mp1_clk.o
 .rodata.axiss_parents
                0x2fff780f        0x3 ./../build/opteemin-programmer-uart-stm32mp157c-ed1/bl2/stm32mp1_clk.o
 .rodata.fmc_parents
                0x2fff7812        0x4 ./../build/opteemin-programmer-uart-stm32mp157c-ed1/bl2/stm32mp1_clk.o
 .rodata.qspi_parents
                0x2fff7816        0x4 ./../build/opteemin-programmer-uart-stm32mp157c-ed1/bl2/stm32mp1_clk.o
 .rodata.sdmmc3_parents
                0x2fff781a        0x4 ./../build/opteemin-programmer-uart-stm32mp157c-ed1/bl2/stm32mp1_clk.o
 .rodata.sdmmc12_parents
                0x2fff781e        0x4 ./../build/opteemin-programmer-uart-stm32mp157c-ed1/bl2/stm32mp1_clk.o
 .rodata.uart234578_parents
                0x2fff7822        0x5 ./../build/opteemin-programmer-uart-stm32mp157c-ed1/bl2/stm32mp1_clk.o
 .rodata.uart6_parents
                0x2fff7827        0x5 ./../build/opteemin-programmer-uart-stm32mp157c-ed1/bl2/stm32mp1_clk.o
 .rodata.rng1_parents
                0x2fff782c        0x4 ./../build/opteemin-programmer-uart-stm32mp157c-ed1/bl2/stm32mp1_clk.o
 .rodata.usart1_parents
                0x2fff7830        0x6 ./../build/opteemin-programmer-uart-stm32mp157c-ed1/bl2/stm32mp1_clk.o
 .rodata.spi6_parents
                0x2fff7836        0x6 ./../build/opteemin-programmer-uart-stm32mp157c-ed1/bl2/stm32mp1_clk.o
 .rodata.i2c46_parents
                0x2fff783c        0x4 ./../build/opteemin-programmer-uart-stm32mp157c-ed1/bl2/stm32mp1_clk.o
 .rodata.stgen_parents
                0x2fff7840        0x2 ./../build/opteemin-programmer-uart-stm32mp157c-ed1/bl2/stm32mp1_clk.o
 .rodata.i2c35_parents
                0x2fff7842        0x4 ./../build/opteemin-programmer-uart-stm32mp157c-ed1/bl2/stm32mp1_clk.o
 .rodata.i2c12_parents
                0x2fff7846        0x4 ./../build/opteemin-programmer-uart-stm32mp157c-ed1/bl2/stm32mp1_clk.o
 .rodata.parent_id_clock_id
                0x2fff784a       0x23 ./../build/opteemin-programmer-uart-stm32mp157c-ed1/bl2/stm32mp1_clk.o
 .rodata.str1.1
                0x2fff786d       0x31 ./../build/opteemin-programmer-uart-stm32mp157c-ed1/bl2/stm32mp1_clk.o
 .rodata.fdt_osc_read_freq.str1.1
                0x2fff786d       0x18 ./../build/opteemin-programmer-uart-stm32mp157c-ed1/bl2/stm32mp_clkfunc.o
 .rodata.fdt_get_clock_id.str1.1
                0x2fff786d        0x7 ./../build/opteemin-programmer-uart-stm32mp157c-ed1/bl2/stm32mp_clkfunc.o
 .rodata.fdt_get_uart_clock_freq.str1.1
                0x2fff786d       0x10 ./../build/opteemin-programmer-uart-stm32mp157c-ed1/bl2/stm32mp_clkfunc.o
 .rodata.stm32mp1_ddr_init.str1.1
                0x2fff786d       0x31 ./../build/opteemin-programmer-uart-stm32mp157c-ed1/bl2/stm32mp1_ddr.o
 .rodata.str1.1
                0x2fff786d       0x17 ./../build/opteemin-programmer-uart-stm32mp157c-ed1/bl2/stm32mp1_ddr.o
 .rodata.ddr_set_sr_mode.str1.1
                0x2fff786d       0x1c ./../build/opteemin-programmer-uart-stm32mp157c-ed1/bl2/stm32mp1_ddr_helpers.o
 .rodata.CSWTCH.37
                0x2fff786d        0xa ./../build/opteemin-programmer-uart-stm32mp157c-ed1/bl2/stm32mp1_ddr_helpers.o
 .rodata.stm32mp1_ddr_setup.str1.1
                0x2fff7877      0x10f ./../build/opteemin-programmer-uart-stm32mp157c-ed1/bl2/stm32mp1_ram.o
 .rodata.stm32mp1_ddr_clk_enable.str1.1
                0x2fff7877       0x2f ./../build/opteemin-programmer-uart-stm32mp157c-ed1/bl2/stm32mp1_ram.o
 .rodata.__func__.0
                0x2fff7877       0x13 ./../build/opteemin-programmer-uart-stm32mp157c-ed1/bl2/stm32mp1_ram.o
 .rodata.str1.1
                0x2fff788a       0x49 ./../build/opteemin-programmer-uart-stm32mp157c-ed1/bl2/stm32mp1_ram.o
 .rodata.stm32mp_ddr_set_reg.str1.1
                0x2fff788a       0x1b ./../build/opteemin-programmer-uart-stm32mp157c-ed1/bl2/stm32mp_ddr.o
 .rodata.stm32mp_ddr_dt_get_info.str1.1
                0x2fff788a       0x23 ./../build/opteemin-programmer-uart-stm32mp157c-ed1/bl2/stm32mp_ram.o
 .rodata.stm32mp_ddr_dt_get_param.str1.1
                0x2fff788a       0x1f ./../build/opteemin-programmer-uart-stm32mp157c-ed1/bl2/stm32mp_ram.o
 .rodata.__func__.0
                0x2fff788a       0x19 ./../build/opteemin-programmer-uart-stm32mp157c-ed1/bl2/stm32mp_ram.o
 .rodata.set_gpio.isra.0.str1.1
                0x2fff78a3       0x1d ./../build/opteemin-programmer-uart-stm32mp157c-ed1/bl2/stm32_gpio.o
 .rodata.dt_set_pinctrl_config.str1.1
                0x2fff78a3       0x90 ./../build/opteemin-programmer-uart-stm32mp157c-ed1/bl2/stm32_gpio.o
 .rodata.stm32_i2c_get_setup_from_fdt.str1.1
                0x2fff78a3       0x5d ./../build/opteemin-programmer-uart-stm32mp157c-ed1/bl2/stm32_i2c.o
 .rodata.stm32_i2c_init.str1.1
                0x2fff78a3      0x146 ./../build/opteemin-programmer-uart-stm32mp157c-ed1/bl2/stm32_i2c.o
 .rodata.fdt_get_clk_by_name.str1.1
                0x2fff78a3       0x13 ./../build/opteemin-programmer-uart-stm32mp157c-ed1/bl2/stm32_iwdg.o
 .rodata.stm32_iwdg_init.str1.1
                0x2fff78a3       0x71 ./../build/opteemin-programmer-uart-stm32mp157c-ed1/bl2/stm32_iwdg.o
 .rodata.nvmem_driver_register.str1.1
                0x2fff78a3       0x4a ./../build/opteemin-programmer-uart-stm32mp157c-ed1/bl2/nvmem.o
 .rodata.nvmem_get_cell_by_index.str1.1
                0x2fff78a3       0x3f ./../build/opteemin-programmer-uart-stm32mp157c-ed1/bl2/nvmem.o
 .rodata.nvmem_get_cell_by_name.str1.1
                0x2fff78a3       0x11 ./../build/opteemin-programmer-uart-stm32mp157c-ed1/bl2/nvmem.o
 .rodata.__func__.0
                0x2fff78a3       0x12 ./../build/opteemin-programmer-uart-stm32mp157c-ed1/bl2/nvmem.o
 .rodata.stm32_tamp_nvram_write_bkp.str1.1
                0x2fff78b5       0x27 ./../build/opteemin-programmer-uart-stm32mp157c-ed1/bl2/stm32mp_tamp_nvram_core.o
 .rodata.stm32_tamp_nvram_read_cell.str1.1
                0x2fff78b5       0x19 ./../build/opteemin-programmer-uart-stm32mp157c-ed1/bl2/stm32mp_tamp_nvram_core.o
 .rodata.stm32_tamp_nvram_update_rights.str1.1
                0x2fff78b5       0x86 ./../build/opteemin-programmer-uart-stm32mp157c-ed1/bl2/stm32mp_tamp_nvram_core.o
 .rodata.stm32_tamp_nvram_init.str1.1
                0x2fff78b5       0x1c ./../build/opteemin-programmer-uart-stm32mp157c-ed1/bl2/stm32mp_tamp_nvram_core.o
 .rodata.dt_get_pmic_node.str1.1
                0x2fff78b5        0xb ./../build/opteemin-programmer-uart-stm32mp157c-ed1/bl2/stm32mp_pmic.o
 .rodata.handle_pmic_property.str1.1
                0x2fff78b5       0x10 ./../build/opteemin-programmer-uart-stm32mp157c-ed1/bl2/stm32mp_pmic.o
 .rodata.initialize_pmic_i2c.str1.1
                0x2fff78b5       0x59 ./../build/opteemin-programmer-uart-stm32mp157c-ed1/bl2/stm32mp_pmic.o
 .rodata.initialize_pmic.str1.1
                0x2fff78b5       0x83 ./../build/opteemin-programmer-uart-stm32mp157c-ed1/bl2/stm32mp_pmic.o
 .rodata.print_pmic_info_and_debug.str1.1
                0x2fff78b5       0x31 ./../build/opteemin-programmer-uart-stm32mp157c-ed1/bl2/stm32mp_pmic.o
 .rodata.__func__.0
                0x2fff78b5        0xe ./../build/opteemin-programmer-uart-stm32mp157c-ed1/bl2/stm32mp_pmic.o
 .rodata.str1.1
                0x2fff78c3       0x55 ./../build/opteemin-programmer-uart-stm32mp157c-ed1/bl2/stm32mp_pmic.o
 .rodata.stpmic1_regulator_levels_mv.str1.1
                0x2fff78c3        0x5 ./../build/opteemin-programmer-uart-stm32mp157c-ed1/bl2/stpmic1.o
 .rodata.stpmic1_regulator_voltage_get.str1.1
                0x2fff78c3        0xe ./../build/opteemin-programmer-uart-stm32mp157c-ed1/bl2/stpmic1.o
 .rodata.stpmic1_active_discharge_mode_set.str1.1
                0x2fff78c3       0x10 ./../build/opteemin-programmer-uart-stm32mp157c-ed1/bl2/stpmic1.o
 .rodata.str1.1
                0x2fff78c3       0x3b ./../build/opteemin-programmer-uart-stm32mp157c-ed1/bl2/stpmic1.o
 .rodata.regulator_get_by_name.str1.1
                0x2fff78c3       0x39 ./../build/opteemin-programmer-uart-stm32mp157c-ed1/bl2/regulator_core.o
 .rodata.regulator_get_by_supply_name.str1.1
                0x2fff78c3       0x25 ./../build/opteemin-programmer-uart-stm32mp157c-ed1/bl2/regulator_core.o
 .rodata.regulator_get_voltage.str1.1
                0x2fff78c3       0x26 ./../build/opteemin-programmer-uart-stm32mp157c-ed1/bl2/regulator_core.o
 .rodata.regulator_set_voltage.str1.1
                0x2fff78c3       0x23 ./../build/opteemin-programmer-uart-stm32mp157c-ed1/bl2/regulator_core.o
 .rodata.regulator_list_voltages.str1.1
                0x2fff78c3       0x98 ./../build/opteemin-programmer-uart-stm32mp157c-ed1/bl2/regulator_core.o
 .rodata.regulator_register.str1.1
                0x2fff78c3      0x101 ./../build/opteemin-programmer-uart-stm32mp157c-ed1/bl2/regulator_core.o
 .rodata.__func__.0
                0x2fff78c3       0x19 ./../build/opteemin-programmer-uart-stm32mp157c-ed1/bl2/regulator_core.o
 .rodata.fixed_regulator_register.str1.1
                0x2fff78dc       0x58 ./../build/opteemin-programmer-uart-stm32mp157c-ed1/bl2/regulator_fixed.o
 .rodata.__func__.0
                0x2fff78dc       0x19 ./../build/opteemin-programmer-uart-stm32mp157c-ed1/bl2/regulator_fixed.o
 .rodata.stm32_uart_init.str1.1
                0x2fff78f5       0x2d ./../build/opteemin-programmer-uart-stm32mp157c-ed1/bl2/stm32_uart.o
 .rodata.fconf_load_config.str1.1
                0x2fff78f5       0x52 ./../build/opteemin-programmer-uart-stm32mp157c-ed1/bl2/fconf.o
 .rodata.fconf_populate.str1.1
                0x2fff78f5       0xa0 ./../build/opteemin-programmer-uart-stm32mp157c-ed1/bl2/fconf.o
 .rodata.set_config_info.str1.1
                0x2fff78f5       0x3e ./../build/opteemin-programmer-uart-stm32mp157c-ed1/bl2/fconf_dyn_cfg_getter.o
 .rodata.fconf_populate_dtb_registry.str1.1
                0x2fff78f5       0xd1 ./../build/opteemin-programmer-uart-stm32mp157c-ed1/bl2/fconf_dyn_cfg_getter.o
 .rodata.dyn_cfg_dtb_info_getter.str1.1
                0x2fff78f5       0x1e ./../build/opteemin-programmer-uart-stm32mp157c-ed1/bl2/fconf_dyn_cfg_getter.o
 .rodata.str1.1
                0x2fff78f5       0x12 ./../build/opteemin-programmer-uart-stm32mp157c-ed1/bl2/fconf_dyn_cfg_getter.o
 .rodata.parse_optee_image.str1.1
                0x2fff78f5       0x4d ./../build/opteemin-programmer-uart-stm32mp157c-ed1/bl2/optee_utils.o
 .rodata.parse_optee_header.str1.1
                0x2fff78f5      0x125 ./../build/opteemin-programmer-uart-stm32mp157c-ed1/bl2/optee_utils.o
 .rodata.xlat_arch_regime_get_xn_desc.str1.1
                0x2fff78f5       0x2e ./../build/opteemin-programmer-uart-stm32mp157c-ed1/bl2/xlat_tables_arch.o
 .rodata.mmap_add_alloc_va.str1.1
                0x2fff78f5       0x29 ./../build/opteemin-programmer-uart-stm32mp157c-ed1/bl2/xlat_tables_context.o
 .rodata.xlat_table_get_index.str1.1
                0x2fff78f5       0x26 ./../build/opteemin-programmer-uart-stm32mp157c-ed1/bl2/xlat_tables_core.o
 .rodata.mmap_add_region_ctx.str1.1
                0x2fff78f5       0x2b ./../build/opteemin-programmer-uart-stm32mp157c-ed1/bl2/xlat_tables_core.o
 .rodata.init_xlat_tables_ctx.str1.1
                0x2fff78f5       0x4f ./../build/opteemin-programmer-uart-stm32mp157c-ed1/bl2/xlat_tables_core.o
 .rodata.str1.1
                0x2fff78f5       0x32 ./../build/opteemin-programmer-uart-stm32mp157c-ed1/bl2/plat_log_common.o
 .rodata.stm32mp_io_setup.str1.1
                0x2fff78f5       0xf3 ./../build/opteemin-programmer-uart-stm32mp157c-ed1/bl2/bl2_io_storage.o
 .rodata.bl2_plat_handle_pre_image_load.str1.1
                0x2fff78f5       0x10 ./../build/opteemin-programmer-uart-stm32mp157c-ed1/bl2/bl2_io_storage.o
 .rodata.stm32cubeprog_uart_load.str1.1
                0x2fff78f5      0x17d ./../build/opteemin-programmer-uart-stm32mp157c-ed1/bl2/stm32cubeprogrammer_uart.o
 .rodata.command_tab
                0x2fff78f5        0x6 ./../build/opteemin-programmer-uart-stm32mp157c-ed1/bl2/stm32cubeprogrammer_uart.o
 .rodata        0x2fff78fb        0x3 ./../build/opteemin-programmer-uart-stm32mp157c-ed1/bl2/stm32cubeprogrammer_uart.o
 .rodata.stm32_get_bootinfo_cell.str1.1
                0x2fff78fe       0x14 ./../build/opteemin-programmer-uart-stm32mp157c-ed1/bl2/stm32mp_common.o
 .rodata.stm32_get_otp_index.str1.1
                0x2fff78fe       0x20 ./../build/opteemin-programmer-uart-stm32mp157c-ed1/bl2/stm32mp_common.o
 .rodata.stm32_get_otp_value_from_idx.str1.1
                0x2fff78fe       0x1a ./../build/opteemin-programmer-uart-stm32mp157c-ed1/bl2/stm32mp_common.o
 .rodata.stm32_get_otp_value.str1.1
                0x2fff78fe       0x16 ./../build/opteemin-programmer-uart-stm32mp157c-ed1/bl2/stm32mp_common.o
 .rodata.stm32_display_board_info.str1.1
                0x2fff78fe       0x25 ./../build/opteemin-programmer-uart-stm32mp157c-ed1/bl2/stm32mp_common.o
 .rodata.stm32_get_magic_number_cell.str1.1
                0x2fff78fe        0xd ./../build/opteemin-programmer-uart-stm32mp157c-ed1/bl2/stm32mp_common.o
 .rodata.stm32_get_core1_branch_address_cell.str1.1
                0x2fff78fe       0x15 ./../build/opteemin-programmer-uart-stm32mp157c-ed1/bl2/stm32mp_common.o
 .rodata.stm32_get_boot_mode_cell.str1.1
                0x2fff78fe        0xa ./../build/opteemin-programmer-uart-stm32mp157c-ed1/bl2/stm32mp_common.o
 .rodata.fdt_get_status.str1.1
                0x2fff78fe       0x1a ./../build/opteemin-programmer-uart-stm32mp157c-ed1/bl2/stm32mp_dt.o
 .rodata.dt_fill_device_info.str1.1
                0x2fff78fe       0x2e ./../build/opteemin-programmer-uart-stm32mp157c-ed1/bl2/stm32mp_dt.o
 .rodata.dt_get_ddr_size.str1.1
                0x2fff78fe       0x3d ./../build/opteemin-programmer-uart-stm32mp157c-ed1/bl2/stm32mp_dt.o
 .rodata.dt_get_vdd_regulator.str1.1
                0x2fff78fe       0x18 ./../build/opteemin-programmer-uart-stm32mp157c-ed1/bl2/stm32mp_dt.o
 .rodata.dt_get_board_model.str1.1
                0x2fff78fe        0x8 ./../build/opteemin-programmer-uart-stm32mp157c-ed1/bl2/stm32mp_dt.o
 .rodata.dt_find_otp_name.str1.1
                0x2fff78fe       0x76 ./../build/opteemin-programmer-uart-stm32mp157c-ed1/bl2/stm32mp_dt.o
 .rodata.__func__.0
                0x2fff78fe       0x10 ./../build/opteemin-programmer-uart-stm32mp157c-ed1/bl2/stm32mp_dt.o
 .rodata.fconf_populate_stm32mp_fuse_provisioning.str1.1
                0x2fff790e       0x8b ./../build/opteemin-programmer-uart-stm32mp157c-ed1/bl2/stm32mp_fconf_fuse.o
 .rodata.str1.1
                0x2fff790e       0x13 ./../build/opteemin-programmer-uart-stm32mp157c-ed1/bl2/stm32mp_fconf_fuse.o
 .rodata.fconf_populate_stm32mp_io_policies.str1.1
                0x2fff790e       0x99 ./../build/opteemin-programmer-uart-stm32mp157c-ed1/bl2/stm32mp_fconf_io.o
 .rodata.str1.1
                0x2fff790e       0x6f ./../build/opteemin-programmer-uart-stm32mp157c-ed1/bl2/stm32mp_fconf_io.o
 .rodata.bl2_platform_setup.str1.1
                0x2fff790e       0x35 ./../build/opteemin-programmer-uart-stm32mp157c-ed1/bl2/bl2_plat_setup.o
 .rodata.bl2_el3_plat_arch_setup.str1.1
                0x2fff790e      0x3c5 ./../build/opteemin-programmer-uart-stm32mp157c-ed1/bl2/bl2_plat_setup.o
 .rodata.bl2_plat_handle_post_image_load.str1.1
                0x2fff790e       0x26 ./../build/opteemin-programmer-uart-stm32mp157c-ed1/bl2/bl2_plat_setup.o
 .rodata.debug_msg
                0x2fff790e      0x1d5 ./../build/opteemin-programmer-uart-stm32mp157c-ed1/bl2/bl2_plat_setup.o
 .rodata.stm32mp_board_ddr_power_init.str1.1
                0x2fff7ae3       0x4d ./../build/opteemin-programmer-uart-stm32mp157c-ed1/bl2/plat_ddr.o
 .rodata.__func__.0
                0x2fff7ae3       0x14 ./../build/opteemin-programmer-uart-stm32mp157c-ed1/bl2/plat_ddr.o
 .rodata.stm32_pwr_down_wfi_load.str1.1
                0x2fff7af7       0x3a ./../build/opteemin-programmer-uart-stm32mp157c-ed1/bl2/stm32mp1_critic_power.o
 .rodata.stm32mp1_dbgmcu_init.str1.1
                0x2fff7af7       0x36 ./../build/opteemin-programmer-uart-stm32mp157c-ed1/bl2/stm32mp1_dbgmcu.o
 .rodata.stm32mp1_dbgmcu_get_chip_version.str1.1
                0x2fff7af7       0x23 ./../build/opteemin-programmer-uart-stm32mp157c-ed1/bl2/stm32mp1_dbgmcu.o
 .rodata.fconf_populate_stm32mp1_firewall.str1.1
                0x2fff7af7       0x68 ./../build/opteemin-programmer-uart-stm32mp157c-ed1/bl2/stm32mp1_fconf_firewall.o
 .rodata.stm32mp1_security_setup.str1.1
                0x2fff7af7       0x2b ./../build/opteemin-programmer-uart-stm32mp157c-ed1/bl2/stm32mp1_fconf_firewall.o
 .rodata.str1.1
                0x2fff7af7       0x1c ./../build/opteemin-programmer-uart-stm32mp157c-ed1/bl2/stm32mp1_fconf_firewall.o
 .rodata.stm32_get_gpio_bank_base.str1.1
                0x2fff7af7       0x24 ./../build/opteemin-programmer-uart-stm32mp157c-ed1/bl2/stm32mp1_private.o
 .rodata.stm32mp_get_chip_version.str1.1
                0x2fff7af7       0x29 ./../build/opteemin-programmer-uart-stm32mp157c-ed1/bl2/stm32mp1_private.o
 .rodata.stm32mp_get_chip_dev_id.str1.1
                0x2fff7af7       0x26 ./../build/opteemin-programmer-uart-stm32mp157c-ed1/bl2/stm32mp1_private.o
 .rodata.stm32mp_get_part_number.str1.1
                0x2fff7af7       0x10 ./../build/opteemin-programmer-uart-stm32mp157c-ed1/bl2/stm32mp1_private.o
 .rodata.stm32mp_get_soc_name.str1.1
                0x2fff7af7       0x65 ./../build/opteemin-programmer-uart-stm32mp157c-ed1/bl2/stm32mp1_private.o
 .rodata.stm32mp_print_cpuinfo.str1.1
                0x2fff7af7        0xa ./../build/opteemin-programmer-uart-stm32mp157c-ed1/bl2/stm32mp1_private.o
 .rodata.stm32mp_print_boardinfo.str1.1
                0x2fff7af7        0x9 ./../build/opteemin-programmer-uart-stm32mp157c-ed1/bl2/stm32mp1_private.o
 .rodata.stm32mp_check_closed_device.str1.1
                0x2fff7af7        0x9 ./../build/opteemin-programmer-uart-stm32mp157c-ed1/bl2/stm32mp1_private.o
 .rodata.stm32_iwdg_get_otp_config.str1.1
                0x2fff7af7        0x8 ./../build/opteemin-programmer-uart-stm32mp157c-ed1/bl2/stm32mp1_private.o
 .rodata.str1.1
                0x2fff7af7       0x12 ./../build/opteemin-programmer-uart-stm32mp157c-ed1/bl2/stm32mp1_private.o
 .rodata.stm32mp_syscfg_init.str1.1
                0x2fff7af7       0x97 ./../build/opteemin-programmer-uart-stm32mp157c-ed1/bl2/stm32mp1_syscfg.o
 .rodata.stm32mp_syscfg_enable_io_compensation_finish.str1.1
                0x2fff7af7       0x21 ./../build/opteemin-programmer-uart-stm32mp157c-ed1/bl2/stm32mp1_syscfg.o
 .rodata.str1.1
                0x2fff7af7       0x29 ./../build/opteemin-programmer-uart-stm32mp157c-ed1/bl2/bl2_el3_entrypoint.o
 .rodata.assert_str
                0x2fff7b20       0x15 ./../build/opteemin-programmer-uart-stm32mp157c-ed1/bl2/debug.o
 .rodata.panic_str
                0x2fff7b35       0x14 ./../build/opteemin-programmer-uart-stm32mp157c-ed1/bl2/debug.o
 .rodata.str1.1
                0x2fff7b49       0x28 ./../build/opteemin-programmer-uart-stm32mp157c-ed1/bl2/stm32_console.o
 .rodata.errata_entries
                0x2fff7b71        0x0 ./../build/opteemin-programmer-uart-stm32mp157c-ed1/bl2/cortex_a7.o
 .rodata.str1.1
                0x2fff7b71       0x1f ./../build/opteemin-programmer-uart-stm32mp157c-ed1/bl2/cpu_helpers.o
 .rodata.str1.1
                0x2fff7b90       0x28 ./../build/opteemin-programmer-uart-stm32mp157c-ed1/bl2/enable_mmu.o
 .rodata.rev_err_str
                0x2fff7bb8       0x92 ./../build/opteemin-programmer-uart-stm32mp157c-ed1/bl2/stm32mp1_helper.o
 .rodata.fdt_address_cells.str1.1
                0x2fff7c4a        0xf ./../build/opteemin-programmer-uart-stm32mp157c-ed1/lib/libfdt.a(fdt_addresses.o)
 .rodata.fdt_get_phandle.str1.1
                0x2fff7c4a       0x16 ./../build/opteemin-programmer-uart-stm32mp157c-ed1/lib/libfdt.a(fdt_ro.o)
 .rodata.fdt_get_alias_namelen.str1.1
                0x2fff7c4a        0x9 ./../build/opteemin-programmer-uart-stm32mp157c-ed1/lib/libfdt.a(fdt_ro.o)
 .rodata.fdt_node_check_compatible.str1.1
                0x2fff7c4a        0xb ./../build/opteemin-programmer-uart-stm32mp157c-ed1/lib/libfdt.a(fdt_ro.o)
 .rodata.__assert.str1.1
                0x2fff7c4a        0xf ./../build/opteemin-programmer-uart-stm32mp157c-ed1/lib/libc.a(assert.o)
 .rodata.vprintf.str1.1
                0x2fff7c4a       0x15 ./../build/opteemin-programmer-uart-stm32mp157c-ed1/lib/libc.a(printf.o)
 .rodata.vsnprintf.str1.1
                0x2fff7c4a        0x3 ./../build/opteemin-programmer-uart-stm32mp157c-ed1/lib/libc.a(snprintf.o)
                0x2fff7cd4                        . = ALIGN (0x4)
 *fill*         0x2fff7c4a        0x2 
                0x2fff7c4c                        __RT_SVC_DESCS_START__ = .
 *(SORT_BY_ALIGNMENT(.rt_svc_descs))
                0x2fff7c4c                        __RT_SVC_DESCS_END__ = .
                0x2fff7c4c                        . = ALIGN (0x4)
                0x2fff7c4c                        __FCONF_POPULATOR_START__ = .
 *(SORT_BY_ALIGNMENT(.fconf_populator))
 .fconf_populator
                0x2fff7c4c        0xc ./../build/opteemin-programmer-uart-stm32mp157c-ed1/bl2/fconf_dyn_cfg_getter.o
 .fconf_populator
                0x2fff7c58        0xc ./../build/opteemin-programmer-uart-stm32mp157c-ed1/bl2/stm32mp_fconf_fuse.o
 .fconf_populator
                0x2fff7c64        0xc ./../build/opteemin-programmer-uart-stm32mp157c-ed1/bl2/stm32mp_fconf_io.o
 .fconf_populator
                0x2fff7c70        0xc ./../build/opteemin-programmer-uart-stm32mp157c-ed1/bl2/stm32mp1_fconf_firewall.o
                0x2fff7c7c                        __FCONF_POPULATOR_END__ = .
                0x2fff7c7c                        . = ALIGN (0x4)
                0x2fff7c7c                        __PMF_SVC_DESCS_START__ = .
 *(SORT_BY_ALIGNMENT(.pmf_svc_descs))
                0x2fff7c7c                        __PMF_SVC_DESCS_END__ = .
                0x2fff7c7c                        . = ALIGN (0x4)
                0x2fff7c7c                        __PARSER_LIB_DESCS_START__ = .
 *(SORT_BY_ALIGNMENT(.img_parser_lib_descs))
                0x2fff7c7c                        __PARSER_LIB_DESCS_END__ = .
                0x2fff7c7c                        . = ALIGN (0x4)
                0x2fff7c7c                        __CPU_OPS_START__ = .
 *(SORT_BY_ALIGNMENT(.cpu_ops))
 .cpu_ops       0x2fff7c7c       0x10 ./../build/opteemin-programmer-uart-stm32mp157c-ed1/bl2/cortex_a7.o
                0x2fff7c8c                        __CPU_OPS_END__ = .
                0x2fff7c8c                        . = ALIGN (0x4)
                0x2fff7c8c                        __GOT_START__ = .
 *(SORT_BY_ALIGNMENT(.got))
                0x2fff7c8c                        __GOT_END__ = .
 *(SORT_BY_ALIGNMENT(.vectors))
 *fill*         0x2fff7c8c       0x14 
 .vectors       0x2fff7ca0       0x20 ./../build/opteemin-programmer-uart-stm32mp157c-ed1/bl2/bl2_el3_exceptions.o
                0x2fff7ca0                bl2_vector_table
 .vectors.__stub
                0x2fff7cc0       0x38 linker stubs
                0x2fff7cf8                        __RO_END_UNALIGNED__ = .
                0x2fff8000                        . = ALIGN (0x1000)
 *fill*         0x2fff7cf8      0x308 
                0x2fff8000                        __RO_END__ = .
                0x00000001                        ASSERT ((__CPU_OPS_END__ > __CPU_OPS_START__), cpu_ops not defined for this platform.)
                0x2fff8000                        __RW_START__ = .

.glue_7         0x2fff8000        0x0
 .glue_7        0x2fff8000        0x0 linker stubs

.glue_7t        0x2fff8000        0x0
 .glue_7t       0x2fff8000        0x0 linker stubs

.vfp11_veneer   0x2fff8000        0x0
 .vfp11_veneer  0x2fff8000        0x0 linker stubs

.v4_bx          0x2fff8000        0x0
 .v4_bx         0x2fff8000        0x0 linker stubs

.iplt           0x2fff8000        0x0
 .iplt          0x2fff8000        0x0 ./../build/opteemin-programmer-uart-stm32mp157c-ed1/bl2/bl2_image_load_v2.o

.data           0x2fff8000      0x5a5
                0x2fff8000                        __DATA_START__ = .
 *(SORT_BY_ALIGNMENT(.data*))
 .data.tf_xlat_ctx
                0x2fff8000       0x48 ./../build/opteemin-programmer-uart-stm32mp157c-ed1/bl2/xlat_tables_context.o
 .data.max_log_level
                0x2fff8048        0x4 ./../build/opteemin-programmer-uart-stm32mp157c-ed1/bl2/tf_log.o
 .data.memmap_dev_info
                0x2fff804c        0x8 ./../build/opteemin-programmer-uart-stm32mp157c-ed1/bl2/io_memmap.o
 .data.stm32mp15_clock_data
                0x2fff8054       0x18 ./../build/opteemin-programmer-uart-stm32mp157c-ed1/bl2/stm32mp1_clk.o
 .data.stm32mp15_clock_pdata
                0x2fff806c       0x1c ./../build/opteemin-programmer-uart-stm32mp157c-ed1/bl2/stm32mp1_clk.o
                0x2fff806c                stm32mp15_clock_pdata
 .data.stm32mp_osc_node_label
                0x2fff8088       0x18 ./../build/opteemin-programmer-uart-stm32mp157c-ed1/bl2/stm32mp1_clk.o
                0x2fff8088                stm32mp_osc_node_label
 .data.mp1_bkpreg_access
                0x2fff80a0        0xc ./../build/opteemin-programmer-uart-stm32mp157c-ed1/bl2/stm32mp_tamp_nvram_mp1.o
 .data.i2c_node.1
                0x2fff80ac        0x4 ./../build/opteemin-programmer-uart-stm32mp157c-ed1/bl2/stm32mp_pmic.o
 .data.node.2   0x2fff80b0        0x4 ./../build/opteemin-programmer-uart-stm32mp157c-ed1/bl2/stm32mp_pmic.o
 .data.status.3
                0x2fff80b4        0x4 ./../build/opteemin-programmer-uart-stm32mp157c-ed1/bl2/stm32mp_pmic.o
 .data.fixed_ops
                0x2fff80b8       0x20 ./../build/opteemin-programmer-uart-stm32mp157c-ed1/bl2/regulator_fixed.o
 .data.dtb_info_pool
                0x2fff80d8       0x10 ./../build/opteemin-programmer-uart-stm32mp157c-ed1/bl2/fconf_dyn_cfg_getter.o
 .data.fconf_stm32mp_uuids_pool
                0x2fff80e8       0x10 ./../build/opteemin-programmer-uart-stm32mp157c-ed1/bl2/stm32mp_fconf_io.o
 .data.policies
                0x2fff80f8      0x214 ./../build/opteemin-programmer-uart-stm32mp157c-ed1/bl2/stm32mp_fconf_io.o
                0x2fff80f8                policies
 .data.bl_mem_params_desc_num
                0x2fff830c        0x4 ./../build/opteemin-programmer-uart-stm32mp157c-ed1/bl2/plat_bl2_mem_params_desc.o
                0x2fff830c                bl_mem_params_desc_num
 .data.bl_mem_params_desc_ptr
                0x2fff8310        0x4 ./../build/opteemin-programmer-uart-stm32mp157c-ed1/bl2/plat_bl2_mem_params_desc.o
                0x2fff8310                bl_mem_params_desc_ptr
 .data.bl2_mem_params_descs
                0x2fff8314      0x284 ./../build/opteemin-programmer-uart-stm32mp157c-ed1/bl2/plat_bl2_mem_params_desc.o
 .data          0x2fff8598        0xc ./../build/opteemin-programmer-uart-stm32mp157c-ed1/bl2/stm32mp1_critic_power_wrapper.o
 .data.console_state
                0x2fff85a4        0x1 ./../build/opteemin-programmer-uart-stm32mp157c-ed1/bl2/multi_console.o
                0x2fff85a5                        __DATA_END__ = .
                0x2fff8000                        __DATA_RAM_START__ = __DATA_START__
                0x2fff85a5                        __DATA_RAM_END__ = __DATA_END__

.igot.plt       0x2fff85a8        0x0
 .igot.plt      0x2fff85a8        0x0 ./../build/opteemin-programmer-uart-stm32mp157c-ed1/bl2/bl2_image_load_v2.o

.rel.dyn        0x2fff85a8        0x0
                0x2fff85a8                        __RELA_START__ = .
 *(SORT_BY_ALIGNMENT(.rel*))
 .rel.iplt      0x2fff85a8        0x0 ./../build/opteemin-programmer-uart-stm32mp157c-ed1/bl2/bl2_image_load_v2.o
                0x2fff85a8                        __RELA_END__ = .

.stacks         0x2fff85c0      0xc00
                0x2fff85c0                        __STACKS_START__ = .
 *(SORT_BY_ALIGNMENT(.tzfw_normal_stacks))
 .tzfw_normal_stacks
                0x2fff85c0      0xc00 ./../build/opteemin-programmer-uart-stm32mp157c-ed1/bl2/platform_up_stack.o
                0x2fff91c0                        __STACKS_END__ = .

.bss            0x2fff91c0      0x920
                0x2fff91c0                        __BSS_START__ = .
 *(SORT_BY_ALIGNMENT(.bss*))
 .bss.current_fip_file
                0x2fff91c0       0x30 ./../build/opteemin-programmer-uart-stm32mp157c-ed1/bl2/io_fip.o
 .bss.current_memmap_file
                0x2fff91f0       0x18 ./../build/opteemin-programmer-uart-stm32mp157c-ed1/bl2/io_memmap.o
 .bss.ddr_priv_data
                0x2fff9208       0x20 ./../build/opteemin-programmer-uart-stm32mp157c-ed1/bl2/stm32mp1_ram.o
 .bss.tf_mmap   0x2fff9228       0xc0 ./../build/opteemin-programmer-uart-stm32mp157c-ed1/bl2/xlat_tables_context.o
 .bss.mmu_cfg_params
                0x2fff92e8       0x18 ./../build/opteemin-programmer-uart-stm32mp157c-ed1/bl2/xlat_tables_context.o
                0x2fff92e8                mmu_cfg_params
 .bss.next_bl_params
                0x2fff9300        0xc ./../build/opteemin-programmer-uart-stm32mp157c-ed1/bl2/desc_image_load.o
 .bss.bl_load_info
                0x2fff930c        0xc ./../build/opteemin-programmer-uart-stm32mp157c-ed1/bl2/desc_image_load.o
 .bss.tzc400    0x2fff9318        0x8 ./../build/opteemin-programmer-uart-stm32mp157c-ed1/bl2/tzc400.o
 .bss.ops       0x2fff9320        0x4 ./../build/opteemin-programmer-uart-stm32mp157c-ed1/bl2/clk.o
 .bss.console_list
                0x2fff9324        0x4 ./../build/opteemin-programmer-uart-stm32mp157c-ed1/bl2/multi_console.o
                0x2fff9324                console_list
 .bss.timer_ops
                0x2fff9328        0x4 ./../build/opteemin-programmer-uart-stm32mp157c-ed1/bl2/delay_timer.o
 .bss.ops       0x2fff932c        0xc ./../build/opteemin-programmer-uart-stm32mp157c-ed1/bl2/generic_delay_timer.o
 .bss.fip_dev_count
                0x2fff9338        0x4 ./../build/opteemin-programmer-uart-stm32mp157c-ed1/bl2/io_fip.o
 .bss.dev_info_pool
                0x2fff933c        0x8 ./../build/opteemin-programmer-uart-stm32mp157c-ed1/bl2/io_fip.o
 .bss.state_pool
                0x2fff9344        0x8 ./../build/opteemin-programmer-uart-stm32mp157c-ed1/bl2/io_fip.o
 .bss.backend_image_spec
                0x2fff934c        0x4 ./../build/opteemin-programmer-uart-stm32mp157c-ed1/bl2/io_fip.o
 .bss.backend_dev_handle
                0x2fff9350        0x4 ./../build/opteemin-programmer-uart-stm32mp157c-ed1/bl2/io_fip.o
 .bss.dev_count
                0x2fff9354        0x4 ./../build/opteemin-programmer-uart-stm32mp157c-ed1/bl2/io_storage.o
 .bss.entity_count
                0x2fff9358        0x4 ./../build/opteemin-programmer-uart-stm32mp157c-ed1/bl2/io_storage.o
 .bss.entity_map
                0x2fff935c       0x10 ./../build/opteemin-programmer-uart-stm32mp157c-ed1/bl2/io_storage.o
 .bss.entity_pool
                0x2fff936c       0x20 ./../build/opteemin-programmer-uart-stm32mp157c-ed1/bl2/io_storage.o
 .bss.bsec_spinlock
                0x2fff938c        0x4 ./../build/opteemin-programmer-uart-stm32mp157c-ed1/bl2/bsec2.o
 .bss.mp15_clkdiv
                0x2fff9390       0x64 ./../build/opteemin-programmer-uart-stm32mp157c-ed1/bl2/stm32mp1_clk.o
                0x2fff9390                mp15_clkdiv
 .bss.mp15_clksrc
                0x2fff93f4       0xb0 ./../build/opteemin-programmer-uart-stm32mp157c-ed1/bl2/stm32mp1_clk.o
                0x2fff93f4                mp15_clksrc
 .bss.mp15_pll  0x2fff94a4       0xd0 ./../build/opteemin-programmer-uart-stm32mp157c-ed1/bl2/stm32mp1_clk.o
                0x2fff94a4                mp15_pll
 .bss.refcount_lock
                0x2fff9574        0x4 ./../build/opteemin-programmer-uart-stm32mp157c-ed1/bl2/stm32mp1_clk.o
 .bss.gate_refcounts
                0x2fff9578       0xec ./../build/opteemin-programmer-uart-stm32mp157c-ed1/bl2/stm32mp1_clk.o
 .bss.reg_lock  0x2fff9664        0x4 ./../build/opteemin-programmer-uart-stm32mp157c-ed1/bl2/stm32mp1_clk.o
 .bss.stm32mp1_osc
                0x2fff9668       0x18 ./../build/opteemin-programmer-uart-stm32mp157c-ed1/bl2/stm32mp1_clk.o
 .bss.stm32_clock_data
                0x2fff9680        0x4 ./../build/opteemin-programmer-uart-stm32mp157c-ed1/bl2/stm32mp1_clk.o
 .bss.stm32_iwdg
                0x2fff9684       0x20 ./../build/opteemin-programmer-uart-stm32mp157c-ed1/bl2/stm32_iwdg.o
 .bss.nvmem_dev_array
                0x2fff96a4        0xc ./../build/opteemin-programmer-uart-stm32mp157c-ed1/bl2/nvmem.o
 .bss.static_bkpreg_zones_end.0
                0x2fff96b0        0xc ./../build/opteemin-programmer-uart-stm32mp157c-ed1/bl2/stm32mp_tamp_nvram_core.o
 .bss.nvram_drv_data
                0x2fff96bc       0x2c ./../build/opteemin-programmer-uart-stm32mp157c-ed1/bl2/stm32mp_tamp_nvram_core.o
 .bss.pmic_i2c_addr
                0x2fff96e8        0x4 ./../build/opteemin-programmer-uart-stm32mp157c-ed1/bl2/stm32mp_pmic.o
 .bss.i2c_handle
                0x2fff96ec       0x24 ./../build/opteemin-programmer-uart-stm32mp157c-ed1/bl2/stm32mp_pmic.o
 .bss.pmic_i2c_handle
                0x2fff9710        0x4 ./../build/opteemin-programmer-uart-stm32mp157c-ed1/bl2/stpmic1.o
 .bss.rdev_array
                0x2fff9714      0x17c ./../build/opteemin-programmer-uart-stm32mp157c-ed1/bl2/regulator_core.o
 .bss.data      0x2fff9890       0x68 ./../build/opteemin-programmer-uart-stm32mp157c-ed1/bl2/regulator_fixed.o
 .bss.dtb_infos
                0x2fff98f8       0x60 ./../build/opteemin-programmer-uart-stm32mp157c-ed1/bl2/fconf_dyn_cfg_getter.o
 .bss.tf_mapped_regions
                0x2fff9958        0x8 ./../build/opteemin-programmer-uart-stm32mp157c-ed1/bl2/xlat_tables_context.o
 .bss.image_block_spec
                0x2fff9960        0x8 ./../build/opteemin-programmer-uart-stm32mp157c-ed1/bl2/bl2_io_storage.o
                0x2fff9960                image_block_spec
 .bss.memmap_dev_con
                0x2fff9968        0x4 ./../build/opteemin-programmer-uart-stm32mp157c-ed1/bl2/bl2_io_storage.o
 .bss.fip_dev_con
                0x2fff996c        0x4 ./../build/opteemin-programmer-uart-stm32mp157c-ed1/bl2/bl2_io_storage.o
 .bss.storage_dev_handle
                0x2fff9970        0x4 ./../build/opteemin-programmer-uart-stm32mp157c-ed1/bl2/bl2_io_storage.o
                0x2fff9970                storage_dev_handle
 .bss.fip_dev_handle
                0x2fff9974        0x4 ./../build/opteemin-programmer-uart-stm32mp157c-ed1/bl2/bl2_io_storage.o
                0x2fff9974                fip_dev_handle
 .bss.handle    0x2fff9978       0x58 ./../build/opteemin-programmer-uart-stm32mp157c-ed1/bl2/stm32cubeprogrammer_uart.o
                0x2fff9978                handle
 .bss.s_boot_mode.0
                0x2fff99d0        0xc ./../build/opteemin-programmer-uart-stm32mp157c-ed1/bl2/stm32mp_common.o
 .bss.s_core1_branch_address.4
                0x2fff99dc        0xc ./../build/opteemin-programmer-uart-stm32mp157c-ed1/bl2/stm32mp_common.o
 .bss.s_magic_number.6
                0x2fff99e8        0xc ./../build/opteemin-programmer-uart-stm32mp157c-ed1/bl2/stm32mp_common.o
 .bss.itf.8     0x2fff99f4        0x4 ./../build/opteemin-programmer-uart-stm32mp157c-ed1/bl2/stm32mp_common.o
 .bss.boot_action_saved
                0x2fff99f8        0x4 ./../build/opteemin-programmer-uart-stm32mp157c-ed1/bl2/stm32mp_common.o
 .bss.boot_ctx_address
                0x2fff99fc        0x4 ./../build/opteemin-programmer-uart-stm32mp157c-ed1/bl2/stm32mp_common.o
 .bss.lock      0x2fff9a00        0x4 ./../build/opteemin-programmer-uart-stm32mp157c-ed1/bl2/stm32mp_common.o
 .bss.console_clk
                0x2fff9a04        0x4 ./../build/opteemin-programmer-uart-stm32mp157c-ed1/bl2/stm32mp_common.o
 .bss.console   0x2fff9a08       0x14 ./../build/opteemin-programmer-uart-stm32mp157c-ed1/bl2/stm32mp_common.o
 .bss.size.1    0x2fff9a1c        0x4 ./../build/opteemin-programmer-uart-stm32mp157c-ed1/bl2/stm32mp_dt.o
 .bss.fdt       0x2fff9a20        0x4 ./../build/opteemin-programmer-uart-stm32mp157c-ed1/bl2/stm32mp_dt.o
 .bss.nb_regions
                0x2fff9a24        0x4 ./../build/opteemin-programmer-uart-stm32mp157c-ed1/bl2/stm32mp1_fconf_firewall.o
 .bss.part_number.0
                0x2fff9a28        0x4 ./../build/opteemin-programmer-uart-stm32mp157c-ed1/bl2/stm32mp1_private.o
 .bss.pmic_i2c_addr
                0x2fff9a2c        0x2 ./../build/opteemin-programmer-uart-stm32mp157c-ed1/bl2/stpmic1.o
 .bss.boot_itf_selected
                0x2fff9a2e        0x2 ./../build/opteemin-programmer-uart-stm32mp157c-ed1/bl2/stm32mp_common.o
 .bss.ddr_self_refresh
                0x2fff9a30        0x1 ./../build/opteemin-programmer-uart-stm32mp157c-ed1/bl2/stm32mp1_ram.o
 .bss.host_interface_reenable_request
                0x2fff9a31        0x1 ./../build/opteemin-programmer-uart-stm32mp157c-ed1/bl2/stm32mp_ddr.o
 .bss.axi_port_reenable_request
                0x2fff9a32        0x1 ./../build/opteemin-programmer-uart-stm32mp157c-ed1/bl2/stm32mp_ddr.o
 .bss.ldo3_special_mode
                0x2fff9a33        0x1 ./../build/opteemin-programmer-uart-stm32mp157c-ed1/bl2/stpmic1.o
 .bss.init_done.0
                0x2fff9a34        0x1 ./../build/opteemin-programmer-uart-stm32mp157c-ed1/bl2/stm32cubeprogrammer_uart.o
 .bss.initialized.1
                0x2fff9a35        0x1 ./../build/opteemin-programmer-uart-stm32mp157c-ed1/bl2/stm32mp_common.o
 .bss.initialized.5
                0x2fff9a36        0x1 ./../build/opteemin-programmer-uart-stm32mp157c-ed1/bl2/stm32mp_common.o
 .bss.initialized.7
                0x2fff9a37        0x1 ./../build/opteemin-programmer-uart-stm32mp157c-ed1/bl2/stm32mp_common.o
 .bss.fconf_stm32mp_uuids
                0x2fff9a38       0x70 ./../build/opteemin-programmer-uart-stm32mp157c-ed1/bl2/stm32mp_fconf_io.o
 *(SORT_BY_ALIGNMENT(COMMON))
                0x2fff9ac0                        . = ALIGN (0x40)
 *fill*         0x2fff9aa8       0x18 
                0x2fff9ac0                        __BAKERY_LOCK_START__ = .
                0x2fff9ac0                        __PERCPU_BAKERY_LOCK_START__ = .
 *(SORT_BY_ALIGNMENT(.bakery_lock))
                0x2fff9ac0                        . = ALIGN (0x40)
                0x2fff9ac0                        __PERCPU_BAKERY_LOCK_END__ = .
                0x00000000                        __PERCPU_BAKERY_LOCK_SIZE__ = ABSOLUTE ((__PERCPU_BAKERY_LOCK_END__ - __PERCPU_BAKERY_LOCK_START__))
                0x2fff9ac0                        . = (. + (__PERCPU_BAKERY_LOCK_SIZE__ * 0x1))
                0x2fff9ac0                        __BAKERY_LOCK_END__ = .
                0x2fff9ac0                        . = ALIGN (0x40)
                0x2fff9ac0                        __PMF_TIMESTAMP_START__ = .
 *(SORT_BY_ALIGNMENT(.pmf_timestamp_array))
                0x2fff9ac0                        . = ALIGN (0x40)
                0x2fff9ac0                        __PMF_PERCPU_TIMESTAMP_END__ = .
                0x00000000                        __PERCPU_TIMESTAMP_SIZE__ = ABSOLUTE ((. - __PMF_TIMESTAMP_START__))
                0x2fff9ac0                        . = (. + (__PERCPU_TIMESTAMP_SIZE__ * 0x1))
                0x2fff9ac0                        __PMF_TIMESTAMP_END__ = .
                0x2fff9ac0                        . = ALIGN (0x10)
                0x2fff9ac0                        __BASE_XLAT_TABLE_START__ = .
 *(SORT_BY_ALIGNMENT(.base_xlat_table))
 .base_xlat_table
                0x2fff9ac0       0x20 ./../build/opteemin-programmer-uart-stm32mp157c-ed1/bl2/xlat_tables_context.o
                0x2fff9ae0                        __BASE_XLAT_TABLE_END__ = .
                0x2fff9ae0                        __BSS_END__ = .

.xlat_table     0x2fffa000     0x2000
                0x2fffa000                        __XLAT_TABLE_START__ = .
 *(SORT_BY_ALIGNMENT(.xlat_table))
 .xlat_table    0x2fffa000     0x2000 ./../build/opteemin-programmer-uart-stm32mp157c-ed1/bl2/xlat_tables_context.o
                0x2fffc000                        __XLAT_TABLE_END__ = .
                0x2fffc000                        __RW_END__ = .
                0x2fffc000                        __BL2_END__ = .

/DISCARD/
 *(SORT_BY_ALIGNMENT(.dynsym) SORT_BY_ALIGNMENT(.dynstr) SORT_BY_ALIGNMENT(.hash) SORT_BY_ALIGNMENT(.gnu.hash))
                0x00000920                        __BSS_SIZE__ = SIZEOF (.bss)
                0x2fffc000                        RAM_REGION_END = .
                0x00000001                        ASSERT ((. <= 0x2ffff000), BL2 image has exceeded its limit.)
LOAD ./../build/opteemin-programmer-uart-stm32mp157c-ed1/bl2/build_message.o
LOAD ./../build/opteemin-programmer-uart-stm32mp157c-ed1/bl2/bl2_arch_setup.o
LOAD ./../build/opteemin-programmer-uart-stm32mp157c-ed1/bl2/bl2_image_load_v2.o
LOAD ./../build/opteemin-programmer-uart-stm32mp157c-ed1/bl2/bl2_main.o
LOAD ./../build/opteemin-programmer-uart-stm32mp157c-ed1/bl2/bl_common.o
LOAD ./../build/opteemin-programmer-uart-stm32mp157c-ed1/bl2/desc_image_load.o
LOAD ./../build/opteemin-programmer-uart-stm32mp157c-ed1/bl2/fdt_wrappers.o
LOAD ./../build/opteemin-programmer-uart-stm32mp157c-ed1/bl2/tf_log.o
LOAD ./../build/opteemin-programmer-uart-stm32mp157c-ed1/bl2/uuid.o
LOAD ./../build/opteemin-programmer-uart-stm32mp157c-ed1/bl2/tzc400.o
LOAD ./../build/opteemin-programmer-uart-stm32mp157c-ed1/bl2/clk.o
LOAD ./../build/opteemin-programmer-uart-stm32mp157c-ed1/bl2/multi_console.o
LOAD ./../build/opteemin-programmer-uart-stm32mp157c-ed1/bl2/delay_timer.o
LOAD ./../build/opteemin-programmer-uart-stm32mp157c-ed1/bl2/generic_delay_timer.o
LOAD ./../build/opteemin-programmer-uart-stm32mp157c-ed1/bl2/io_block.o
LOAD ./../build/opteemin-programmer-uart-stm32mp157c-ed1/bl2/io_fip.o
LOAD ./../build/opteemin-programmer-uart-stm32mp157c-ed1/bl2/io_memmap.o
LOAD ./../build/opteemin-programmer-uart-stm32mp157c-ed1/bl2/io_mtd.o
LOAD ./../build/opteemin-programmer-uart-stm32mp157c-ed1/bl2/io_storage.o
LOAD ./../build/opteemin-programmer-uart-stm32mp157c-ed1/bl2/bsec2.o
LOAD ./../build/opteemin-programmer-uart-stm32mp157c-ed1/bl2/stm32mp1_clk.o
LOAD ./../build/opteemin-programmer-uart-stm32mp157c-ed1/bl2/stm32mp_clkfunc.o
LOAD ./../build/opteemin-programmer-uart-stm32mp157c-ed1/bl2/stm32_hash.o
LOAD ./../build/opteemin-programmer-uart-stm32mp157c-ed1/bl2/stm32mp1_ddr.o
LOAD ./../build/opteemin-programmer-uart-stm32mp157c-ed1/bl2/stm32mp1_ddr_helpers.o
LOAD ./../build/opteemin-programmer-uart-stm32mp157c-ed1/bl2/stm32mp1_ram.o
LOAD ./../build/opteemin-programmer-uart-stm32mp157c-ed1/bl2/stm32mp_ddr.o
LOAD ./../build/opteemin-programmer-uart-stm32mp157c-ed1/bl2/stm32mp_ddr_test.o
LOAD ./../build/opteemin-programmer-uart-stm32mp157c-ed1/bl2/stm32mp_ram.o
LOAD ./../build/opteemin-programmer-uart-stm32mp157c-ed1/bl2/stm32_gpio.o
LOAD ./../build/opteemin-programmer-uart-stm32mp157c-ed1/bl2/stm32_i2c.o
LOAD ./../build/opteemin-programmer-uart-stm32mp157c-ed1/bl2/stm32_iwdg.o
LOAD ./../build/opteemin-programmer-uart-stm32mp157c-ed1/bl2/nvmem.o
LOAD ./../build/opteemin-programmer-uart-stm32mp157c-ed1/bl2/stm32mp_tamp_nvram_core.o
LOAD ./../build/opteemin-programmer-uart-stm32mp157c-ed1/bl2/stm32mp_tamp_nvram_mp1.o
LOAD ./../build/opteemin-programmer-uart-stm32mp157c-ed1/bl2/stm32mp_pmic.o
LOAD ./../build/opteemin-programmer-uart-stm32mp157c-ed1/bl2/stpmic1.o
LOAD ./../build/opteemin-programmer-uart-stm32mp157c-ed1/bl2/regulator_core.o
LOAD ./../build/opteemin-programmer-uart-stm32mp157c-ed1/bl2/regulator_fixed.o
LOAD ./../build/opteemin-programmer-uart-stm32mp157c-ed1/bl2/regulator_gpio.o
LOAD ./../build/opteemin-programmer-uart-stm32mp157c-ed1/bl2/stm32mp1_reset.o
LOAD ./../build/opteemin-programmer-uart-stm32mp157c-ed1/bl2/stm32_uart.o
LOAD ./../build/opteemin-programmer-uart-stm32mp157c-ed1/bl2/ctzdi2.o
LOAD ./../build/opteemin-programmer-uart-stm32mp157c-ed1/bl2/divdi3.o
LOAD ./../build/opteemin-programmer-uart-stm32mp157c-ed1/bl2/divmoddi4.o
LOAD ./../build/opteemin-programmer-uart-stm32mp157c-ed1/bl2/lshrdi3.o
LOAD ./../build/opteemin-programmer-uart-stm32mp157c-ed1/bl2/popcountdi2.o
LOAD ./../build/opteemin-programmer-uart-stm32mp157c-ed1/bl2/popcountsi2.o
LOAD ./../build/opteemin-programmer-uart-stm32mp157c-ed1/bl2/udivmoddi4.o
LOAD ./../build/opteemin-programmer-uart-stm32mp157c-ed1/bl2/pmuv3.o
LOAD ./../build/opteemin-programmer-uart-stm32mp157c-ed1/bl2/fconf.o
LOAD ./../build/opteemin-programmer-uart-stm32mp157c-ed1/bl2/fconf_dyn_cfg_getter.o
LOAD ./../build/opteemin-programmer-uart-stm32mp157c-ed1/bl2/optee_utils.o
LOAD ./../build/opteemin-programmer-uart-stm32mp157c-ed1/bl2/xlat_tables_arch.o
LOAD ./../build/opteemin-programmer-uart-stm32mp157c-ed1/bl2/xlat_tables_context.o
LOAD ./../build/opteemin-programmer-uart-stm32mp157c-ed1/bl2/xlat_tables_core.o
LOAD ./../build/opteemin-programmer-uart-stm32mp157c-ed1/bl2/xlat_tables_utils.o
LOAD ./../build/opteemin-programmer-uart-stm32mp157c-ed1/bl2/adler32.o
LOAD ./../build/opteemin-programmer-uart-stm32mp157c-ed1/bl2/crc32.o
LOAD ./../build/opteemin-programmer-uart-stm32mp157c-ed1/bl2/inffast.o
LOAD ./../build/opteemin-programmer-uart-stm32mp157c-ed1/bl2/inflate.o
LOAD ./../build/opteemin-programmer-uart-stm32mp157c-ed1/bl2/inftrees.o
LOAD ./../build/opteemin-programmer-uart-stm32mp157c-ed1/bl2/tf_gunzip.o
LOAD ./../build/opteemin-programmer-uart-stm32mp157c-ed1/bl2/zutil.o
LOAD ./../build/opteemin-programmer-uart-stm32mp157c-ed1/bl2/plat_common.o
LOAD ./../build/opteemin-programmer-uart-stm32mp157c-ed1/bl2/plat_bl_common.o
LOAD ./../build/opteemin-programmer-uart-stm32mp157c-ed1/bl2/plat_log_common.o
LOAD ./../build/opteemin-programmer-uart-stm32mp157c-ed1/bl2/bl2_io_storage.o
LOAD ./../build/opteemin-programmer-uart-stm32mp157c-ed1/bl2/plat_image_load.o
LOAD ./../build/opteemin-programmer-uart-stm32mp157c-ed1/bl2/stm32cubeprogrammer_uart.o
LOAD ./../build/opteemin-programmer-uart-stm32mp157c-ed1/bl2/stm32mp_common.o
LOAD ./../build/opteemin-programmer-uart-stm32mp157c-ed1/bl2/stm32mp_dt.o
LOAD ./../build/opteemin-programmer-uart-stm32mp157c-ed1/bl2/stm32mp_fconf_fuse.o
LOAD ./../build/opteemin-programmer-uart-stm32mp157c-ed1/bl2/stm32mp_fconf_io.o
LOAD ./../build/opteemin-programmer-uart-stm32mp157c-ed1/bl2/bl2_plat_setup.o
LOAD ./../build/opteemin-programmer-uart-stm32mp157c-ed1/bl2/plat_bl2_mem_params_desc.o
LOAD ./../build/opteemin-programmer-uart-stm32mp157c-ed1/bl2/plat_ddr.o
LOAD ./../build/opteemin-programmer-uart-stm32mp157c-ed1/bl2/stm32mp1_context.o
LOAD ./../build/opteemin-programmer-uart-stm32mp157c-ed1/bl2/stm32mp1_critic_power.o
LOAD ./../build/opteemin-programmer-uart-stm32mp157c-ed1/bl2/stm32mp1_dbgmcu.o
LOAD ./../build/opteemin-programmer-uart-stm32mp157c-ed1/bl2/stm32mp1_fconf_firewall.o
LOAD ./../build/opteemin-programmer-uart-stm32mp157c-ed1/bl2/stm32mp1_private.o
LOAD ./../build/opteemin-programmer-uart-stm32mp157c-ed1/bl2/stm32mp1_syscfg.o
LOAD ./../build/opteemin-programmer-uart-stm32mp157c-ed1/bl2/bl2_el3_entrypoint.o
LOAD ./../build/opteemin-programmer-uart-stm32mp157c-ed1/bl2/bl2_el3_exceptions.o
LOAD ./../build/opteemin-programmer-uart-stm32mp157c-ed1/bl2/bl2_run_next_image.o
LOAD ./../build/opteemin-programmer-uart-stm32mp157c-ed1/bl2/debug.o
LOAD ./../build/opteemin-programmer-uart-stm32mp157c-ed1/bl2/stm32_console.o
LOAD ./../build/opteemin-programmer-uart-stm32mp157c-ed1/bl2/cache_helpers.o
LOAD ./../build/opteemin-programmer-uart-stm32mp157c-ed1/bl2/misc_helpers.o
LOAD ./../build/opteemin-programmer-uart-stm32mp157c-ed1/bl2/aeabi_ldivmod.o
LOAD ./../build/opteemin-programmer-uart-stm32mp157c-ed1/bl2/aeabi_memcpy.o
LOAD ./../build/opteemin-programmer-uart-stm32mp157c-ed1/bl2/aeabi_memset.o
LOAD ./../build/opteemin-programmer-uart-stm32mp157c-ed1/bl2/aeabi_uldivmod.o
LOAD ./../build/opteemin-programmer-uart-stm32mp157c-ed1/bl2/cortex_a7.o
LOAD ./../build/opteemin-programmer-uart-stm32mp157c-ed1/bl2/cpu_helpers.o
LOAD ./../build/opteemin-programmer-uart-stm32mp157c-ed1/bl2/spinlock.o
LOAD ./../build/opteemin-programmer-uart-stm32mp157c-ed1/bl2/enable_mmu.o
LOAD ./../build/opteemin-programmer-uart-stm32mp157c-ed1/bl2/platform_helpers.o
LOAD ./../build/opteemin-programmer-uart-stm32mp157c-ed1/bl2/platform_up_stack.o
LOAD ./../build/opteemin-programmer-uart-stm32mp157c-ed1/bl2/stm32mp1_critic_power_wrapper.o
LOAD ./../build/opteemin-programmer-uart-stm32mp157c-ed1/bl2/stm32mp1_helper.o
LOAD ./../build/opteemin-programmer-uart-stm32mp157c-ed1/lib/libfdt.a
LOAD ./../build/opteemin-programmer-uart-stm32mp157c-ed1/lib/libc.a
OUTPUT(../build/opteemin-programmer-uart-stm32mp157c-ed1/bl2/bl2.elf elf32-littlearm)
LOAD linker stubs

.debug_info     0x00000000    0x40dcf
 .debug_info    0x00000000       0xa6 ./../build/opteemin-programmer-uart-stm32mp157c-ed1/bl2/build_message.o
 .debug_info    0x000000a6       0xc6 ./../build/opteemin-programmer-uart-stm32mp157c-ed1/bl2/bl2_arch_setup.o
 .debug_info    0x0000016c      0x582 ./../build/opteemin-programmer-uart-stm32mp157c-ed1/bl2/bl2_image_load_v2.o
 .debug_info    0x000006ee      0x436 ./../build/opteemin-programmer-uart-stm32mp157c-ed1/bl2/bl2_main.o
 .debug_info    0x00000b24      0x70f ./../build/opteemin-programmer-uart-stm32mp157c-ed1/bl2/bl_common.o
 .debug_info    0x00001233      0x964 ./../build/opteemin-programmer-uart-stm32mp157c-ed1/bl2/desc_image_load.o
 .debug_info    0x00001b97     0x1b58 ./../build/opteemin-programmer-uart-stm32mp157c-ed1/bl2/fdt_wrappers.o
 .debug_info    0x000036ef      0x2c5 ./../build/opteemin-programmer-uart-stm32mp157c-ed1/bl2/tf_log.o
 .debug_info    0x000039b4      0x653 ./../build/opteemin-programmer-uart-stm32mp157c-ed1/bl2/uuid.o
 .debug_info    0x00004007     0x14c0 ./../build/opteemin-programmer-uart-stm32mp157c-ed1/bl2/tzc400.o
 .debug_info    0x000054c7      0x2f5 ./../build/opteemin-programmer-uart-stm32mp157c-ed1/bl2/clk.o
 .debug_info    0x000057bc      0x513 ./../build/opteemin-programmer-uart-stm32mp157c-ed1/bl2/multi_console.o
 .debug_info    0x00005ccf      0x2d3 ./../build/opteemin-programmer-uart-stm32mp157c-ed1/bl2/delay_timer.o
 .debug_info    0x00005fa2      0x33d ./../build/opteemin-programmer-uart-stm32mp157c-ed1/bl2/generic_delay_timer.o
 .debug_info    0x000062df     0x12a8 ./../build/opteemin-programmer-uart-stm32mp157c-ed1/bl2/io_fip.o
 .debug_info    0x00007587      0xb78 ./../build/opteemin-programmer-uart-stm32mp157c-ed1/bl2/io_memmap.o
 .debug_info    0x000080ff     0x1029 ./../build/opteemin-programmer-uart-stm32mp157c-ed1/bl2/io_storage.o
 .debug_info    0x00009128     0x1655 ./../build/opteemin-programmer-uart-stm32mp157c-ed1/bl2/bsec2.o
 .debug_info    0x0000a77d     0x625b ./../build/opteemin-programmer-uart-stm32mp157c-ed1/bl2/stm32mp1_clk.o
 .debug_info    0x000109d8      0xeb4 ./../build/opteemin-programmer-uart-stm32mp157c-ed1/bl2/stm32mp_clkfunc.o
 .debug_info    0x0001188c     0x409e ./../build/opteemin-programmer-uart-stm32mp157c-ed1/bl2/stm32mp1_ddr.o
 .debug_info    0x0001592a     0x429d ./../build/opteemin-programmer-uart-stm32mp157c-ed1/bl2/stm32mp1_ddr_helpers.o
 .debug_info    0x00019bc7     0x1be7 ./../build/opteemin-programmer-uart-stm32mp157c-ed1/bl2/stm32mp1_ram.o
 .debug_info    0x0001b7ae     0x2518 ./../build/opteemin-programmer-uart-stm32mp157c-ed1/bl2/stm32mp_ddr.o
 .debug_info    0x0001dcc6      0x808 ./../build/opteemin-programmer-uart-stm32mp157c-ed1/bl2/stm32mp_ddr_test.o
 .debug_info    0x0001e4ce      0x3f7 ./../build/opteemin-programmer-uart-stm32mp157c-ed1/bl2/stm32mp_ram.o
 .debug_info    0x0001e8c5     0x1674 ./../build/opteemin-programmer-uart-stm32mp157c-ed1/bl2/stm32_gpio.o
 .debug_info    0x0001ff39     0x31e5 ./../build/opteemin-programmer-uart-stm32mp157c-ed1/bl2/stm32_i2c.o
 .debug_info    0x0002311e      0xa0c ./../build/opteemin-programmer-uart-stm32mp157c-ed1/bl2/stm32_iwdg.o
 .debug_info    0x00023b2a      0x7c0 ./../build/opteemin-programmer-uart-stm32mp157c-ed1/bl2/nvmem.o
 .debug_info    0x000242ea     0x13f0 ./../build/opteemin-programmer-uart-stm32mp157c-ed1/bl2/stm32mp_tamp_nvram_core.o
 .debug_info    0x000256da      0x31b ./../build/opteemin-programmer-uart-stm32mp157c-ed1/bl2/stm32mp_tamp_nvram_mp1.o
 .debug_info    0x000259f5     0x13f1 ./../build/opteemin-programmer-uart-stm32mp157c-ed1/bl2/stm32mp_pmic.o
 .debug_info    0x00026de6     0x1072 ./../build/opteemin-programmer-uart-stm32mp157c-ed1/bl2/stpmic1.o
 .debug_info    0x00027e58     0x12e9 ./../build/opteemin-programmer-uart-stm32mp157c-ed1/bl2/regulator_core.o
 .debug_info    0x00029141      0x5fc ./../build/opteemin-programmer-uart-stm32mp157c-ed1/bl2/regulator_fixed.o
 .debug_info    0x0002973d      0x751 ./../build/opteemin-programmer-uart-stm32mp157c-ed1/bl2/stm32mp1_reset.o
 .debug_info    0x00029e8e     0x1160 ./../build/opteemin-programmer-uart-stm32mp157c-ed1/bl2/stm32_uart.o
 .debug_info    0x0002afee      0x171 ./../build/opteemin-programmer-uart-stm32mp157c-ed1/bl2/ctzdi2.o
 .debug_info    0x0002b15f      0x20b ./../build/opteemin-programmer-uart-stm32mp157c-ed1/bl2/udivmoddi4.o
 .debug_info    0x0002b36a      0x4fb ./../build/opteemin-programmer-uart-stm32mp157c-ed1/bl2/fconf.o
 .debug_info    0x0002b865      0x8af ./../build/opteemin-programmer-uart-stm32mp157c-ed1/bl2/fconf_dyn_cfg_getter.o
 .debug_info    0x0002c114      0x649 ./../build/opteemin-programmer-uart-stm32mp157c-ed1/bl2/optee_utils.o
 .debug_info    0x0002c75d      0x948 ./../build/opteemin-programmer-uart-stm32mp157c-ed1/bl2/xlat_tables_arch.o
 .debug_info    0x0002d0a5      0xa92 ./../build/opteemin-programmer-uart-stm32mp157c-ed1/bl2/xlat_tables_context.o
 .debug_info    0x0002db37     0x1872 ./../build/opteemin-programmer-uart-stm32mp157c-ed1/bl2/xlat_tables_core.o
 .debug_info    0x0002f3a9      0x9d9 ./../build/opteemin-programmer-uart-stm32mp157c-ed1/bl2/xlat_tables_utils.o
 .debug_info    0x0002fd82      0x4bc ./../build/opteemin-programmer-uart-stm32mp157c-ed1/bl2/plat_bl_common.o
 .debug_info    0x0003023e      0x163 ./../build/opteemin-programmer-uart-stm32mp157c-ed1/bl2/plat_log_common.o
 .debug_info    0x000303a1      0xe21 ./../build/opteemin-programmer-uart-stm32mp157c-ed1/bl2/bl2_io_storage.o
 .debug_info    0x000311c2      0x3f5 ./../build/opteemin-programmer-uart-stm32mp157c-ed1/bl2/plat_image_load.o
 .debug_info    0x000315b7     0x11f8 ./../build/opteemin-programmer-uart-stm32mp157c-ed1/bl2/stm32cubeprogrammer_uart.o
 .debug_info    0x000327af     0x1c23 ./../build/opteemin-programmer-uart-stm32mp157c-ed1/bl2/stm32mp_common.o
 .debug_info    0x000343d2     0x13ae ./../build/opteemin-programmer-uart-stm32mp157c-ed1/bl2/stm32mp_dt.o
 .debug_info    0x00035780      0x66e ./../build/opteemin-programmer-uart-stm32mp157c-ed1/bl2/stm32mp_fconf_fuse.o
 .debug_info    0x00035dee      0x794 ./../build/opteemin-programmer-uart-stm32mp157c-ed1/bl2/stm32mp_fconf_io.o
 .debug_info    0x00036582     0x1d3f ./../build/opteemin-programmer-uart-stm32mp157c-ed1/bl2/bl2_plat_setup.o
 .debug_info    0x000382c1      0x3be ./../build/opteemin-programmer-uart-stm32mp157c-ed1/bl2/plat_bl2_mem_params_desc.o
 .debug_info    0x0003867f      0x6cb ./../build/opteemin-programmer-uart-stm32mp157c-ed1/bl2/plat_ddr.o
 .debug_info    0x00038d4a      0x6b0 ./../build/opteemin-programmer-uart-stm32mp157c-ed1/bl2/stm32mp1_context.o
 .debug_info    0x000393fa      0x39a ./../build/opteemin-programmer-uart-stm32mp157c-ed1/bl2/stm32mp1_critic_power.o
 .debug_info    0x00039794      0x31f ./../build/opteemin-programmer-uart-stm32mp157c-ed1/bl2/stm32mp1_dbgmcu.o
 .debug_info    0x00039ab3      0x67c ./../build/opteemin-programmer-uart-stm32mp157c-ed1/bl2/stm32mp1_fconf_firewall.o
 .debug_info    0x0003a12f      0xae9 ./../build/opteemin-programmer-uart-stm32mp157c-ed1/bl2/stm32mp1_private.o
 .debug_info    0x0003ac18      0xb0b ./../build/opteemin-programmer-uart-stm32mp157c-ed1/bl2/stm32mp1_syscfg.o
 .debug_info    0x0003b723       0x32 ./../build/opteemin-programmer-uart-stm32mp157c-ed1/bl2/bl2_el3_entrypoint.o
 .debug_info    0x0003b755       0x23 ./../build/opteemin-programmer-uart-stm32mp157c-ed1/bl2/bl2_el3_exceptions.o
 .debug_info    0x0003b778       0x30 ./../build/opteemin-programmer-uart-stm32mp157c-ed1/bl2/bl2_run_next_image.o
 .debug_info    0x0003b7a8       0x71 ./../build/opteemin-programmer-uart-stm32mp157c-ed1/bl2/debug.o
 .debug_info    0x0003b819       0x72 ./../build/opteemin-programmer-uart-stm32mp157c-ed1/bl2/stm32_console.o
 .debug_info    0x0003b88b       0x9a ./../build/opteemin-programmer-uart-stm32mp157c-ed1/bl2/cache_helpers.o
 .debug_info    0x0003b925       0x72 ./../build/opteemin-programmer-uart-stm32mp157c-ed1/bl2/misc_helpers.o
 .debug_info    0x0003b997       0x30 ./../build/opteemin-programmer-uart-stm32mp157c-ed1/bl2/aeabi_uldivmod.o
 .debug_info    0x0003b9c7       0x5b ./../build/opteemin-programmer-uart-stm32mp157c-ed1/bl2/cortex_a7.o
 .debug_info    0x0003ba22       0x5b ./../build/opteemin-programmer-uart-stm32mp157c-ed1/bl2/cpu_helpers.o
 .debug_info    0x0003ba7d       0x3a ./../build/opteemin-programmer-uart-stm32mp157c-ed1/bl2/spinlock.o
 .debug_info    0x0003bab7       0x3a ./../build/opteemin-programmer-uart-stm32mp157c-ed1/bl2/enable_mmu.o
 .debug_info    0x0003baf1       0x3a ./../build/opteemin-programmer-uart-stm32mp157c-ed1/bl2/platform_up_stack.o
 .debug_info    0x0003bb2b       0x31 ./../build/opteemin-programmer-uart-stm32mp157c-ed1/bl2/stm32mp1_critic_power_wrapper.o
 .debug_info    0x0003bb5c       0xdb ./../build/opteemin-programmer-uart-stm32mp157c-ed1/bl2/stm32mp1_helper.o
 .debug_info    0x0003bc37      0xdb0 ./../build/opteemin-programmer-uart-stm32mp157c-ed1/lib/libfdt.a(fdt.o)
 .debug_info    0x0003c9e7      0x5ba ./../build/opteemin-programmer-uart-stm32mp157c-ed1/lib/libfdt.a(fdt_addresses.o)
 .debug_info    0x0003cfa1     0x274c ./../build/opteemin-programmer-uart-stm32mp157c-ed1/lib/libfdt.a(fdt_ro.o)
 .debug_info    0x0003f6ed      0x158 ./../build/opteemin-programmer-uart-stm32mp157c-ed1/lib/libc.a(assert.o)
 .debug_info    0x0003f845       0xd0 ./../build/opteemin-programmer-uart-stm32mp157c-ed1/lib/libc.a(memchr.o)
 .debug_info    0x0003f915      0x106 ./../build/opteemin-programmer-uart-stm32mp157c-ed1/lib/libc.a(memcmp.o)
 .debug_info    0x0003fa1b       0xdd ./../build/opteemin-programmer-uart-stm32mp157c-ed1/lib/libc.a(memcpy.o)
 .debug_info    0x0003faf8      0x152 ./../build/opteemin-programmer-uart-stm32mp157c-ed1/lib/libc.a(memmove.o)
 .debug_info    0x0003fc4a      0x137 ./../build/opteemin-programmer-uart-stm32mp157c-ed1/lib/libc.a(memset.o)
 .debug_info    0x0003fd81      0x6aa ./../build/opteemin-programmer-uart-stm32mp157c-ed1/lib/libc.a(printf.o)
 .debug_info    0x0004042b      0x4ad ./../build/opteemin-programmer-uart-stm32mp157c-ed1/lib/libc.a(snprintf.o)
 .debug_info    0x000408d8       0xac ./../build/opteemin-programmer-uart-stm32mp157c-ed1/lib/libc.a(strchr.o)
 .debug_info    0x00040984       0x8e ./../build/opteemin-programmer-uart-stm32mp157c-ed1/lib/libc.a(strcmp.o)
 .debug_info    0x00040a12      0x10f ./../build/opteemin-programmer-uart-stm32mp157c-ed1/lib/libc.a(strlcpy.o)
 .debug_info    0x00040b21       0x9a ./../build/opteemin-programmer-uart-stm32mp157c-ed1/lib/libc.a(strlen.o)
 .debug_info    0x00040bbb       0xb3 ./../build/opteemin-programmer-uart-stm32mp157c-ed1/lib/libc.a(strncmp.o)
 .debug_info    0x00040c6e       0xa1 ./../build/opteemin-programmer-uart-stm32mp157c-ed1/lib/libc.a(strnlen.o)
 .debug_info    0x00040d0f       0xc0 ./../build/opteemin-programmer-uart-stm32mp157c-ed1/lib/libc.a(strrchr.o)

.debug_abbrev   0x00000000     0xc882
 .debug_abbrev  0x00000000       0x47 ./../build/opteemin-programmer-uart-stm32mp157c-ed1/bl2/build_message.o
 .debug_abbrev  0x00000047       0x69 ./../build/opteemin-programmer-uart-stm32mp157c-ed1/bl2/bl2_arch_setup.o
 .debug_abbrev  0x000000b0      0x184 ./../build/opteemin-programmer-uart-stm32mp157c-ed1/bl2/bl2_image_load_v2.o
 .debug_abbrev  0x00000234      0x1b5 ./../build/opteemin-programmer-uart-stm32mp157c-ed1/bl2/bl2_main.o
 .debug_abbrev  0x000003e9      0x285 ./../build/opteemin-programmer-uart-stm32mp157c-ed1/bl2/bl_common.o
 .debug_abbrev  0x0000066e      0x2be ./../build/opteemin-programmer-uart-stm32mp157c-ed1/bl2/desc_image_load.o
 .debug_abbrev  0x0000092c      0x3d6 ./../build/opteemin-programmer-uart-stm32mp157c-ed1/bl2/fdt_wrappers.o
 .debug_abbrev  0x00000d02      0x191 ./../build/opteemin-programmer-uart-stm32mp157c-ed1/bl2/tf_log.o
 .debug_abbrev  0x00000e93      0x237 ./../build/opteemin-programmer-uart-stm32mp157c-ed1/bl2/uuid.o
 .debug_abbrev  0x000010ca      0x2d4 ./../build/opteemin-programmer-uart-stm32mp157c-ed1/bl2/tzc400.o
 .debug_abbrev  0x0000139e      0x148 ./../build/opteemin-programmer-uart-stm32mp157c-ed1/bl2/clk.o
 .debug_abbrev  0x000014e6      0x27a ./../build/opteemin-programmer-uart-stm32mp157c-ed1/bl2/multi_console.o
 .debug_abbrev  0x00001760      0x177 ./../build/opteemin-programmer-uart-stm32mp157c-ed1/bl2/delay_timer.o
 .debug_abbrev  0x000018d7      0x267 ./../build/opteemin-programmer-uart-stm32mp157c-ed1/bl2/generic_delay_timer.o
 .debug_abbrev  0x00001b3e      0x3b7 ./../build/opteemin-programmer-uart-stm32mp157c-ed1/bl2/io_fip.o
 .debug_abbrev  0x00001ef5      0x2c2 ./../build/opteemin-programmer-uart-stm32mp157c-ed1/bl2/io_memmap.o
 .debug_abbrev  0x000021b7      0x34a ./../build/opteemin-programmer-uart-stm32mp157c-ed1/bl2/io_storage.o
 .debug_abbrev  0x00002501      0x42f ./../build/opteemin-programmer-uart-stm32mp157c-ed1/bl2/bsec2.o
 .debug_abbrev  0x00002930      0x637 ./../build/opteemin-programmer-uart-stm32mp157c-ed1/bl2/stm32mp1_clk.o
 .debug_abbrev  0x00002f67      0x317 ./../build/opteemin-programmer-uart-stm32mp157c-ed1/bl2/stm32mp_clkfunc.o
 .debug_abbrev  0x0000327e      0x425 ./../build/opteemin-programmer-uart-stm32mp157c-ed1/bl2/stm32mp1_ddr.o
 .debug_abbrev  0x000036a3      0x381 ./../build/opteemin-programmer-uart-stm32mp157c-ed1/bl2/stm32mp1_ddr_helpers.o
 .debug_abbrev  0x00003a24      0x317 ./../build/opteemin-programmer-uart-stm32mp157c-ed1/bl2/stm32mp1_ram.o
 .debug_abbrev  0x00003d3b      0x3a2 ./../build/opteemin-programmer-uart-stm32mp157c-ed1/bl2/stm32mp_ddr.o
 .debug_abbrev  0x000040dd      0x168 ./../build/opteemin-programmer-uart-stm32mp157c-ed1/bl2/stm32mp_ddr_test.o
 .debug_abbrev  0x00004245      0x19d ./../build/opteemin-programmer-uart-stm32mp157c-ed1/bl2/stm32mp_ram.o
 .debug_abbrev  0x000043e2      0x402 ./../build/opteemin-programmer-uart-stm32mp157c-ed1/bl2/stm32_gpio.o
 .debug_abbrev  0x000047e4      0x41b ./../build/opteemin-programmer-uart-stm32mp157c-ed1/bl2/stm32_i2c.o
 .debug_abbrev  0x00004bff      0x324 ./../build/opteemin-programmer-uart-stm32mp157c-ed1/bl2/stm32_iwdg.o
 .debug_abbrev  0x00004f23      0x260 ./../build/opteemin-programmer-uart-stm32mp157c-ed1/bl2/nvmem.o
 .debug_abbrev  0x00005183      0x462 ./../build/opteemin-programmer-uart-stm32mp157c-ed1/bl2/stm32mp_tamp_nvram_core.o
 .debug_abbrev  0x000055e5      0x10e ./../build/opteemin-programmer-uart-stm32mp157c-ed1/bl2/stm32mp_tamp_nvram_mp1.o
 .debug_abbrev  0x000056f3      0x4bb ./../build/opteemin-programmer-uart-stm32mp157c-ed1/bl2/stm32mp_pmic.o
 .debug_abbrev  0x00005bae      0x2aa ./../build/opteemin-programmer-uart-stm32mp157c-ed1/bl2/stpmic1.o
 .debug_abbrev  0x00005e58      0x496 ./../build/opteemin-programmer-uart-stm32mp157c-ed1/bl2/regulator_core.o
 .debug_abbrev  0x000062ee      0x23f ./../build/opteemin-programmer-uart-stm32mp157c-ed1/bl2/regulator_fixed.o
 .debug_abbrev  0x0000652d      0x1d1 ./../build/opteemin-programmer-uart-stm32mp157c-ed1/bl2/stm32mp1_reset.o
 .debug_abbrev  0x000066fe      0x3ab ./../build/opteemin-programmer-uart-stm32mp157c-ed1/bl2/stm32_uart.o
 .debug_abbrev  0x00006aa9       0xe2 ./../build/opteemin-programmer-uart-stm32mp157c-ed1/bl2/ctzdi2.o
 .debug_abbrev  0x00006b8b      0x119 ./../build/opteemin-programmer-uart-stm32mp157c-ed1/bl2/udivmoddi4.o
 .debug_abbrev  0x00006ca4      0x22b ./../build/opteemin-programmer-uart-stm32mp157c-ed1/bl2/fconf.o
 .debug_abbrev  0x00006ecf      0x278 ./../build/opteemin-programmer-uart-stm32mp157c-ed1/bl2/fconf_dyn_cfg_getter.o
 .debug_abbrev  0x00007147      0x1d5 ./../build/opteemin-programmer-uart-stm32mp157c-ed1/bl2/optee_utils.o
 .debug_abbrev  0x0000731c      0x301 ./../build/opteemin-programmer-uart-stm32mp157c-ed1/bl2/xlat_tables_arch.o
 .debug_abbrev  0x0000761d      0x2a5 ./../build/opteemin-programmer-uart-stm32mp157c-ed1/bl2/xlat_tables_context.o
 .debug_abbrev  0x000078c2      0x4c1 ./../build/opteemin-programmer-uart-stm32mp157c-ed1/bl2/xlat_tables_core.o
 .debug_abbrev  0x00007d83      0x2db ./../build/opteemin-programmer-uart-stm32mp157c-ed1/bl2/xlat_tables_utils.o
 .debug_abbrev  0x0000805e      0x2b3 ./../build/opteemin-programmer-uart-stm32mp157c-ed1/bl2/plat_bl_common.o
 .debug_abbrev  0x00008311       0xdd ./../build/opteemin-programmer-uart-stm32mp157c-ed1/bl2/plat_log_common.o
 .debug_abbrev  0x000083ee      0x3ae ./../build/opteemin-programmer-uart-stm32mp157c-ed1/bl2/bl2_io_storage.o
 .debug_abbrev  0x0000879c      0x14b ./../build/opteemin-programmer-uart-stm32mp157c-ed1/bl2/plat_image_load.o
 .debug_abbrev  0x000088e7      0x3e0 ./../build/opteemin-programmer-uart-stm32mp157c-ed1/bl2/stm32cubeprogrammer_uart.o
 .debug_abbrev  0x00008cc7      0x541 ./../build/opteemin-programmer-uart-stm32mp157c-ed1/bl2/stm32mp_common.o
 .debug_abbrev  0x00009208      0x338 ./../build/opteemin-programmer-uart-stm32mp157c-ed1/bl2/stm32mp_dt.o
 .debug_abbrev  0x00009540      0x24c ./../build/opteemin-programmer-uart-stm32mp157c-ed1/bl2/stm32mp_fconf_fuse.o
 .debug_abbrev  0x0000978c      0x2b2 ./../build/opteemin-programmer-uart-stm32mp157c-ed1/bl2/stm32mp_fconf_io.o
 .debug_abbrev  0x00009a3e      0x4a1 ./../build/opteemin-programmer-uart-stm32mp157c-ed1/bl2/bl2_plat_setup.o
 .debug_abbrev  0x00009edf       0xea ./../build/opteemin-programmer-uart-stm32mp157c-ed1/bl2/plat_bl2_mem_params_desc.o
 .debug_abbrev  0x00009fc9      0x235 ./../build/opteemin-programmer-uart-stm32mp157c-ed1/bl2/plat_ddr.o
 .debug_abbrev  0x0000a1fe      0x270 ./../build/opteemin-programmer-uart-stm32mp157c-ed1/bl2/stm32mp1_context.o
 .debug_abbrev  0x0000a46e      0x1f9 ./../build/opteemin-programmer-uart-stm32mp157c-ed1/bl2/stm32mp1_critic_power.o
 .debug_abbrev  0x0000a667      0x1ca ./../build/opteemin-programmer-uart-stm32mp157c-ed1/bl2/stm32mp1_dbgmcu.o
 .debug_abbrev  0x0000a831      0x253 ./../build/opteemin-programmer-uart-stm32mp157c-ed1/bl2/stm32mp1_fconf_firewall.o
 .debug_abbrev  0x0000aa84      0x3b7 ./../build/opteemin-programmer-uart-stm32mp157c-ed1/bl2/stm32mp1_private.o
 .debug_abbrev  0x0000ae3b      0x2c0 ./../build/opteemin-programmer-uart-stm32mp157c-ed1/bl2/stm32mp1_syscfg.o
 .debug_abbrev  0x0000b0fb       0x28 ./../build/opteemin-programmer-uart-stm32mp157c-ed1/bl2/bl2_el3_entrypoint.o
 .debug_abbrev  0x0000b123       0x14 ./../build/opteemin-programmer-uart-stm32mp157c-ed1/bl2/bl2_el3_exceptions.o
 .debug_abbrev  0x0000b137       0x28 ./../build/opteemin-programmer-uart-stm32mp157c-ed1/bl2/bl2_run_next_image.o
 .debug_abbrev  0x0000b15f       0x26 ./../build/opteemin-programmer-uart-stm32mp157c-ed1/bl2/debug.o
 .debug_abbrev  0x0000b185       0x26 ./../build/opteemin-programmer-uart-stm32mp157c-ed1/bl2/stm32_console.o
 .debug_abbrev  0x0000b1ab       0x26 ./../build/opteemin-programmer-uart-stm32mp157c-ed1/bl2/cache_helpers.o
 .debug_abbrev  0x0000b1d1       0x26 ./../build/opteemin-programmer-uart-stm32mp157c-ed1/bl2/misc_helpers.o
 .debug_abbrev  0x0000b1f7       0x28 ./../build/opteemin-programmer-uart-stm32mp157c-ed1/bl2/aeabi_uldivmod.o
 .debug_abbrev  0x0000b21f       0x24 ./../build/opteemin-programmer-uart-stm32mp157c-ed1/bl2/cortex_a7.o
 .debug_abbrev  0x0000b243       0x26 ./../build/opteemin-programmer-uart-stm32mp157c-ed1/bl2/cpu_helpers.o
 .debug_abbrev  0x0000b269       0x26 ./../build/opteemin-programmer-uart-stm32mp157c-ed1/bl2/spinlock.o
 .debug_abbrev  0x0000b28f       0x26 ./../build/opteemin-programmer-uart-stm32mp157c-ed1/bl2/enable_mmu.o
 .debug_abbrev  0x0000b2b5       0x24 ./../build/opteemin-programmer-uart-stm32mp157c-ed1/bl2/platform_up_stack.o
 .debug_abbrev  0x0000b2d9       0x28 ./../build/opteemin-programmer-uart-stm32mp157c-ed1/bl2/stm32mp1_critic_power_wrapper.o
 .debug_abbrev  0x0000b301       0x26 ./../build/opteemin-programmer-uart-stm32mp157c-ed1/bl2/stm32mp1_helper.o
 .debug_abbrev  0x0000b327      0x2e7 ./../build/opteemin-programmer-uart-stm32mp157c-ed1/lib/libfdt.a(fdt.o)
 .debug_abbrev  0x0000b60e      0x1d8 ./../build/opteemin-programmer-uart-stm32mp157c-ed1/lib/libfdt.a(fdt_addresses.o)
 .debug_abbrev  0x0000b7e6      0x399 ./../build/opteemin-programmer-uart-stm32mp157c-ed1/lib/libfdt.a(fdt_ro.o)
 .debug_abbrev  0x0000bb7f       0xf9 ./../build/opteemin-programmer-uart-stm32mp157c-ed1/lib/libc.a(assert.o)
 .debug_abbrev  0x0000bc78       0x9b ./../build/opteemin-programmer-uart-stm32mp157c-ed1/lib/libc.a(memchr.o)
 .debug_abbrev  0x0000bd13       0x94 ./../build/opteemin-programmer-uart-stm32mp157c-ed1/lib/libc.a(memcmp.o)
 .debug_abbrev  0x0000bda7       0xa1 ./../build/opteemin-programmer-uart-stm32mp157c-ed1/lib/libc.a(memcpy.o)
 .debug_abbrev  0x0000be48       0xd1 ./../build/opteemin-programmer-uart-stm32mp157c-ed1/lib/libc.a(memmove.o)
 .debug_abbrev  0x0000bf19       0xc8 ./../build/opteemin-programmer-uart-stm32mp157c-ed1/lib/libc.a(memset.o)
 .debug_abbrev  0x0000bfe1      0x273 ./../build/opteemin-programmer-uart-stm32mp157c-ed1/lib/libc.a(printf.o)
 .debug_abbrev  0x0000c254      0x277 ./../build/opteemin-programmer-uart-stm32mp157c-ed1/lib/libc.a(snprintf.o)
 .debug_abbrev  0x0000c4cb       0x80 ./../build/opteemin-programmer-uart-stm32mp157c-ed1/lib/libc.a(strchr.o)
 .debug_abbrev  0x0000c54b       0x6c ./../build/opteemin-programmer-uart-stm32mp157c-ed1/lib/libc.a(strcmp.o)
 .debug_abbrev  0x0000c5b7       0xa3 ./../build/opteemin-programmer-uart-stm32mp157c-ed1/lib/libc.a(strlcpy.o)
 .debug_abbrev  0x0000c65a       0x84 ./../build/opteemin-programmer-uart-stm32mp157c-ed1/lib/libc.a(strlen.o)
 .debug_abbrev  0x0000c6de       0x7b ./../build/opteemin-programmer-uart-stm32mp157c-ed1/lib/libc.a(strncmp.o)
 .debug_abbrev  0x0000c759       0x95 ./../build/opteemin-programmer-uart-stm32mp157c-ed1/lib/libc.a(strnlen.o)
 .debug_abbrev  0x0000c7ee       0x94 ./../build/opteemin-programmer-uart-stm32mp157c-ed1/lib/libc.a(strrchr.o)

.debug_aranges  0x00000000     0x1cd0
 .debug_aranges
                0x00000000       0x18 ./../build/opteemin-programmer-uart-stm32mp157c-ed1/bl2/build_message.o
 .debug_aranges
                0x00000018       0x20 ./../build/opteemin-programmer-uart-stm32mp157c-ed1/bl2/bl2_arch_setup.o
 .debug_aranges
                0x00000038       0x20 ./../build/opteemin-programmer-uart-stm32mp157c-ed1/bl2/bl2_image_load_v2.o
 .debug_aranges
                0x00000058       0x28 ./../build/opteemin-programmer-uart-stm32mp157c-ed1/bl2/bl2_main.o
 .debug_aranges
                0x00000080       0x38 ./../build/opteemin-programmer-uart-stm32mp157c-ed1/bl2/bl_common.o
 .debug_aranges
                0x000000b8       0x58 ./../build/opteemin-programmer-uart-stm32mp157c-ed1/bl2/desc_image_load.o
 .debug_aranges
                0x00000110       0xa8 ./../build/opteemin-programmer-uart-stm32mp157c-ed1/bl2/fdt_wrappers.o
 .debug_aranges
                0x000001b8       0x30 ./../build/opteemin-programmer-uart-stm32mp157c-ed1/bl2/tf_log.o
 .debug_aranges
                0x000001e8       0x48 ./../build/opteemin-programmer-uart-stm32mp157c-ed1/bl2/uuid.o
 .debug_aranges
                0x00000230       0x58 ./../build/opteemin-programmer-uart-stm32mp157c-ed1/bl2/tzc400.o
 .debug_aranges
                0x00000288       0x48 ./../build/opteemin-programmer-uart-stm32mp157c-ed1/bl2/clk.o
 .debug_aranges
                0x000002d0       0x58 ./../build/opteemin-programmer-uart-stm32mp157c-ed1/bl2/multi_console.o
 .debug_aranges
                0x00000328       0x30 ./../build/opteemin-programmer-uart-stm32mp157c-ed1/bl2/delay_timer.o
 .debug_aranges
                0x00000358       0x30 ./../build/opteemin-programmer-uart-stm32mp157c-ed1/bl2/generic_delay_timer.o
 .debug_aranges
                0x00000388       0x68 ./../build/opteemin-programmer-uart-stm32mp157c-ed1/bl2/io_fip.o
 .debug_aranges
                0x000003f0       0x68 ./../build/opteemin-programmer-uart-stm32mp157c-ed1/bl2/io_memmap.o
 .debug_aranges
                0x00000458       0x80 ./../build/opteemin-programmer-uart-stm32mp157c-ed1/bl2/io_storage.o
 .debug_aranges
                0x000004d8       0xc0 ./../build/opteemin-programmer-uart-stm32mp157c-ed1/bl2/bsec2.o
 .debug_aranges
                0x00000598       0xe0 ./../build/opteemin-programmer-uart-stm32mp157c-ed1/bl2/stm32mp1_clk.o
 .debug_aranges
                0x00000678       0x70 ./../build/opteemin-programmer-uart-stm32mp157c-ed1/bl2/stm32mp_clkfunc.o
 .debug_aranges
                0x000006e8       0x38 ./../build/opteemin-programmer-uart-stm32mp157c-ed1/bl2/stm32mp1_ddr.o
 .debug_aranges
                0x00000720       0x48 ./../build/opteemin-programmer-uart-stm32mp157c-ed1/bl2/stm32mp1_ddr_helpers.o
 .debug_aranges
                0x00000768       0x38 ./../build/opteemin-programmer-uart-stm32mp157c-ed1/bl2/stm32mp1_ram.o
 .debug_aranges
                0x000007a0       0x78 ./../build/opteemin-programmer-uart-stm32mp157c-ed1/bl2/stm32mp_ddr.o
 .debug_aranges
                0x00000818       0x38 ./../build/opteemin-programmer-uart-stm32mp157c-ed1/bl2/stm32mp_ddr_test.o
 .debug_aranges
                0x00000850       0x28 ./../build/opteemin-programmer-uart-stm32mp157c-ed1/bl2/stm32mp_ram.o
 .debug_aranges
                0x00000878       0x58 ./../build/opteemin-programmer-uart-stm32mp157c-ed1/bl2/stm32_gpio.o
 .debug_aranges
                0x000008d0       0x88 ./../build/opteemin-programmer-uart-stm32mp157c-ed1/bl2/stm32_i2c.o
 .debug_aranges
                0x00000958       0x30 ./../build/opteemin-programmer-uart-stm32mp157c-ed1/bl2/stm32_iwdg.o
 .debug_aranges
                0x00000988       0x40 ./../build/opteemin-programmer-uart-stm32mp157c-ed1/bl2/nvmem.o
 .debug_aranges
                0x000009c8       0x68 ./../build/opteemin-programmer-uart-stm32mp157c-ed1/bl2/stm32mp_tamp_nvram_core.o
 .debug_aranges
                0x00000a30       0x28 ./../build/opteemin-programmer-uart-stm32mp157c-ed1/bl2/stm32mp_tamp_nvram_mp1.o
 .debug_aranges
                0x00000a58       0x88 ./../build/opteemin-programmer-uart-stm32mp157c-ed1/bl2/stm32mp_pmic.o
 .debug_aranges
                0x00000ae0       0xc0 ./../build/opteemin-programmer-uart-stm32mp157c-ed1/bl2/stpmic1.o
 .debug_aranges
                0x00000ba0       0x90 ./../build/opteemin-programmer-uart-stm32mp157c-ed1/bl2/regulator_core.o
 .debug_aranges
                0x00000c30       0x30 ./../build/opteemin-programmer-uart-stm32mp157c-ed1/bl2/regulator_fixed.o
 .debug_aranges
                0x00000c60       0x30 ./../build/opteemin-programmer-uart-stm32mp157c-ed1/bl2/stm32mp1_reset.o
 .debug_aranges
                0x00000c90       0x48 ./../build/opteemin-programmer-uart-stm32mp157c-ed1/bl2/stm32_uart.o
 .debug_aranges
                0x00000cd8       0x20 ./../build/opteemin-programmer-uart-stm32mp157c-ed1/bl2/ctzdi2.o
 .debug_aranges
                0x00000cf8       0x20 ./../build/opteemin-programmer-uart-stm32mp157c-ed1/bl2/udivmoddi4.o
 .debug_aranges
                0x00000d18       0x28 ./../build/opteemin-programmer-uart-stm32mp157c-ed1/bl2/fconf.o
 .debug_aranges
                0x00000d40       0x38 ./../build/opteemin-programmer-uart-stm32mp157c-ed1/bl2/fconf_dyn_cfg_getter.o
 .debug_aranges
                0x00000d78       0x30 ./../build/opteemin-programmer-uart-stm32mp157c-ed1/bl2/optee_utils.o
 .debug_aranges
                0x00000da8       0x78 ./../build/opteemin-programmer-uart-stm32mp157c-ed1/bl2/xlat_tables_arch.o
 .debug_aranges
                0x00000e20       0x78 ./../build/opteemin-programmer-uart-stm32mp157c-ed1/bl2/xlat_tables_context.o
 .debug_aranges
                0x00000e98       0x90 ./../build/opteemin-programmer-uart-stm32mp157c-ed1/bl2/xlat_tables_core.o
 .debug_aranges
                0x00000f28       0x48 ./../build/opteemin-programmer-uart-stm32mp157c-ed1/bl2/xlat_tables_utils.o
 .debug_aranges
                0x00000f70       0x78 ./../build/opteemin-programmer-uart-stm32mp157c-ed1/bl2/plat_bl_common.o
 .debug_aranges
                0x00000fe8       0x20 ./../build/opteemin-programmer-uart-stm32mp157c-ed1/bl2/plat_log_common.o
 .debug_aranges
                0x00001008       0x50 ./../build/opteemin-programmer-uart-stm32mp157c-ed1/bl2/bl2_io_storage.o
 .debug_aranges
                0x00001058       0x30 ./../build/opteemin-programmer-uart-stm32mp157c-ed1/bl2/plat_image_load.o
 .debug_aranges
                0x00001088       0x38 ./../build/opteemin-programmer-uart-stm32mp157c-ed1/bl2/stm32cubeprogrammer_uart.o
 .debug_aranges
                0x000010c0      0x128 ./../build/opteemin-programmer-uart-stm32mp157c-ed1/bl2/stm32mp_common.o
 .debug_aranges
                0x000011e8       0xb8 ./../build/opteemin-programmer-uart-stm32mp157c-ed1/bl2/stm32mp_dt.o
 .debug_aranges
                0x000012a0       0x20 ./../build/opteemin-programmer-uart-stm32mp157c-ed1/bl2/stm32mp_fconf_fuse.o
 .debug_aranges
                0x000012c0       0x20 ./../build/opteemin-programmer-uart-stm32mp157c-ed1/bl2/stm32mp_fconf_io.o
 .debug_aranges
                0x000012e0       0x40 ./../build/opteemin-programmer-uart-stm32mp157c-ed1/bl2/bl2_plat_setup.o
 .debug_aranges
                0x00001320       0x18 ./../build/opteemin-programmer-uart-stm32mp157c-ed1/bl2/plat_bl2_mem_params_desc.o
 .debug_aranges
                0x00001338       0x20 ./../build/opteemin-programmer-uart-stm32mp157c-ed1/bl2/plat_ddr.o
 .debug_aranges
                0x00001358       0x48 ./../build/opteemin-programmer-uart-stm32mp157c-ed1/bl2/stm32mp1_context.o
 .debug_aranges
                0x000013a0       0x28 ./../build/opteemin-programmer-uart-stm32mp157c-ed1/bl2/stm32mp1_critic_power.o
 .debug_aranges
                0x000013c8       0x30 ./../build/opteemin-programmer-uart-stm32mp157c-ed1/bl2/stm32mp1_dbgmcu.o
 .debug_aranges
                0x000013f8       0x38 ./../build/opteemin-programmer-uart-stm32mp157c-ed1/bl2/stm32mp1_fconf_firewall.o
 .debug_aranges
                0x00001430       0xd0 ./../build/opteemin-programmer-uart-stm32mp157c-ed1/bl2/stm32mp1_private.o
 .debug_aranges
                0x00001500       0x48 ./../build/opteemin-programmer-uart-stm32mp157c-ed1/bl2/stm32mp1_syscfg.o
 .debug_aranges
                0x00001548       0x20 ./../build/opteemin-programmer-uart-stm32mp157c-ed1/bl2/bl2_el3_entrypoint.o
 .debug_aranges
                0x00001568       0x20 ./../build/opteemin-programmer-uart-stm32mp157c-ed1/bl2/bl2_el3_exceptions.o
 .debug_aranges
                0x00001588       0x20 ./../build/opteemin-programmer-uart-stm32mp157c-ed1/bl2/bl2_run_next_image.o
 .debug_aranges
                0x000015a8       0x50 ./../build/opteemin-programmer-uart-stm32mp157c-ed1/bl2/debug.o
 .debug_aranges
                0x000015f8       0x50 ./../build/opteemin-programmer-uart-stm32mp157c-ed1/bl2/stm32_console.o
 .debug_aranges
                0x00001648       0x60 ./../build/opteemin-programmer-uart-stm32mp157c-ed1/bl2/cache_helpers.o
 .debug_aranges
                0x000016a8       0x48 ./../build/opteemin-programmer-uart-stm32mp157c-ed1/bl2/misc_helpers.o
 .debug_aranges
                0x000016f0       0x20 ./../build/opteemin-programmer-uart-stm32mp157c-ed1/bl2/aeabi_uldivmod.o
 .debug_aranges
                0x00001710       0x40 ./../build/opteemin-programmer-uart-stm32mp157c-ed1/bl2/cortex_a7.o
 .debug_aranges
                0x00001750       0x40 ./../build/opteemin-programmer-uart-stm32mp157c-ed1/bl2/cpu_helpers.o
 .debug_aranges
                0x00001790       0x28 ./../build/opteemin-programmer-uart-stm32mp157c-ed1/bl2/spinlock.o
 .debug_aranges
                0x000017b8       0x28 ./../build/opteemin-programmer-uart-stm32mp157c-ed1/bl2/enable_mmu.o
 .debug_aranges
                0x000017e0       0x28 ./../build/opteemin-programmer-uart-stm32mp157c-ed1/bl2/platform_up_stack.o
 .debug_aranges
                0x00001808       0x20 ./../build/opteemin-programmer-uart-stm32mp157c-ed1/bl2/stm32mp1_critic_power_wrapper.o
 .debug_aranges
                0x00001828       0x88 ./../build/opteemin-programmer-uart-stm32mp157c-ed1/bl2/stm32mp1_helper.o
 .debug_aranges
                0x000018b0       0x88 ./../build/opteemin-programmer-uart-stm32mp157c-ed1/lib/libfdt.a(fdt.o)
 .debug_aranges
                0x00001938       0x38 ./../build/opteemin-programmer-uart-stm32mp157c-ed1/lib/libfdt.a(fdt_addresses.o)
 .debug_aranges
                0x00001970      0x160 ./../build/opteemin-programmer-uart-stm32mp157c-ed1/lib/libfdt.a(fdt_ro.o)
 .debug_aranges
                0x00001ad0       0x20 ./../build/opteemin-programmer-uart-stm32mp157c-ed1/lib/libc.a(assert.o)
 .debug_aranges
                0x00001af0       0x20 ./../build/opteemin-programmer-uart-stm32mp157c-ed1/lib/libc.a(memchr.o)
 .debug_aranges
                0x00001b10       0x20 ./../build/opteemin-programmer-uart-stm32mp157c-ed1/lib/libc.a(memcmp.o)
 .debug_aranges
                0x00001b30       0x20 ./../build/opteemin-programmer-uart-stm32mp157c-ed1/lib/libc.a(memcpy.o)
 .debug_aranges
                0x00001b50       0x20 ./../build/opteemin-programmer-uart-stm32mp157c-ed1/lib/libc.a(memmove.o)
 .debug_aranges
                0x00001b70       0x20 ./../build/opteemin-programmer-uart-stm32mp157c-ed1/lib/libc.a(memset.o)
 .debug_aranges
                0x00001b90       0x30 ./../build/opteemin-programmer-uart-stm32mp157c-ed1/lib/libc.a(printf.o)
 .debug_aranges
                0x00001bc0       0x30 ./../build/opteemin-programmer-uart-stm32mp157c-ed1/lib/libc.a(snprintf.o)
 .debug_aranges
                0x00001bf0       0x20 ./../build/opteemin-programmer-uart-stm32mp157c-ed1/lib/libc.a(strchr.o)
 .debug_aranges
                0x00001c10       0x20 ./../build/opteemin-programmer-uart-stm32mp157c-ed1/lib/libc.a(strcmp.o)
 .debug_aranges
                0x00001c30       0x20 ./../build/opteemin-programmer-uart-stm32mp157c-ed1/lib/libc.a(strlcpy.o)
 .debug_aranges
                0x00001c50       0x20 ./../build/opteemin-programmer-uart-stm32mp157c-ed1/lib/libc.a(strlen.o)
 .debug_aranges
                0x00001c70       0x20 ./../build/opteemin-programmer-uart-stm32mp157c-ed1/lib/libc.a(strncmp.o)
 .debug_aranges
                0x00001c90       0x20 ./../build/opteemin-programmer-uart-stm32mp157c-ed1/lib/libc.a(strnlen.o)
 .debug_aranges
                0x00001cb0       0x20 ./../build/opteemin-programmer-uart-stm32mp157c-ed1/lib/libc.a(strrchr.o)

.debug_line     0x00000000    0x1e633
 .debug_line    0x00000000       0x28 ./../build/opteemin-programmer-uart-stm32mp157c-ed1/bl2/build_message.o
 .debug_line    0x00000028       0x8a ./../build/opteemin-programmer-uart-stm32mp157c-ed1/bl2/bl2_arch_setup.o
 .debug_line    0x000000b2      0x24a ./../build/opteemin-programmer-uart-stm32mp157c-ed1/bl2/bl2_image_load_v2.o
 .debug_line    0x000002fc      0x19f ./../build/opteemin-programmer-uart-stm32mp157c-ed1/bl2/bl2_main.o
 .debug_line    0x0000049b      0x356 ./../build/opteemin-programmer-uart-stm32mp157c-ed1/bl2/bl_common.o
 .debug_line    0x000007f1      0x617 ./../build/opteemin-programmer-uart-stm32mp157c-ed1/bl2/desc_image_load.o
 .debug_line    0x00000e08      0xad2 ./../build/opteemin-programmer-uart-stm32mp157c-ed1/bl2/fdt_wrappers.o
 .debug_line    0x000018da      0x201 ./../build/opteemin-programmer-uart-stm32mp157c-ed1/bl2/tf_log.o
 .debug_line    0x00001adb      0x30d ./../build/opteemin-programmer-uart-stm32mp157c-ed1/bl2/uuid.o
 .debug_line    0x00001de8      0x88d ./../build/opteemin-programmer-uart-stm32mp157c-ed1/bl2/tzc400.o
 .debug_line    0x00002675      0x1b3 ./../build/opteemin-programmer-uart-stm32mp157c-ed1/bl2/clk.o
 .debug_line    0x00002828      0x316 ./../build/opteemin-programmer-uart-stm32mp157c-ed1/bl2/multi_console.o
 .debug_line    0x00002b3e      0x1e7 ./../build/opteemin-programmer-uart-stm32mp157c-ed1/bl2/delay_timer.o
 .debug_line    0x00002d25      0x24d ./../build/opteemin-programmer-uart-stm32mp157c-ed1/bl2/generic_delay_timer.o
 .debug_line    0x00002f72      0x731 ./../build/opteemin-programmer-uart-stm32mp157c-ed1/bl2/io_fip.o
 .debug_line    0x000036a3      0x4b6 ./../build/opteemin-programmer-uart-stm32mp157c-ed1/bl2/io_memmap.o
 .debug_line    0x00003b59      0x5f0 ./../build/opteemin-programmer-uart-stm32mp157c-ed1/bl2/io_storage.o
 .debug_line    0x00004149      0xe01 ./../build/opteemin-programmer-uart-stm32mp157c-ed1/bl2/bsec2.o
 .debug_line    0x00004f4a     0x2d43 ./../build/opteemin-programmer-uart-stm32mp157c-ed1/bl2/stm32mp1_clk.o
 .debug_line    0x00007c8d      0x732 ./../build/opteemin-programmer-uart-stm32mp157c-ed1/bl2/stm32mp_clkfunc.o
 .debug_line    0x000083bf     0x145e ./../build/opteemin-programmer-uart-stm32mp157c-ed1/bl2/stm32mp1_ddr.o
 .debug_line    0x0000981d     0x17c7 ./../build/opteemin-programmer-uart-stm32mp157c-ed1/bl2/stm32mp1_ddr_helpers.o
 .debug_line    0x0000afe4      0x57d ./../build/opteemin-programmer-uart-stm32mp157c-ed1/bl2/stm32mp1_ram.o
 .debug_line    0x0000b561      0xb99 ./../build/opteemin-programmer-uart-stm32mp157c-ed1/bl2/stm32mp_ddr.o
 .debug_line    0x0000c0fa      0x4ca ./../build/opteemin-programmer-uart-stm32mp157c-ed1/bl2/stm32mp_ddr_test.o
 .debug_line    0x0000c5c4      0x21a ./../build/opteemin-programmer-uart-stm32mp157c-ed1/bl2/stm32mp_ram.o
 .debug_line    0x0000c7de      0x9e9 ./../build/opteemin-programmer-uart-stm32mp157c-ed1/bl2/stm32_gpio.o
 .debug_line    0x0000d1c7     0x1add ./../build/opteemin-programmer-uart-stm32mp157c-ed1/bl2/stm32_i2c.o
 .debug_line    0x0000eca4      0x518 ./../build/opteemin-programmer-uart-stm32mp157c-ed1/bl2/stm32_iwdg.o
 .debug_line    0x0000f1bc      0x2fa ./../build/opteemin-programmer-uart-stm32mp157c-ed1/bl2/nvmem.o
 .debug_line    0x0000f4b6      0x962 ./../build/opteemin-programmer-uart-stm32mp157c-ed1/bl2/stm32mp_tamp_nvram_core.o
 .debug_line    0x0000fe18      0x119 ./../build/opteemin-programmer-uart-stm32mp157c-ed1/bl2/stm32mp_tamp_nvram_mp1.o
 .debug_line    0x0000ff31      0x773 ./../build/opteemin-programmer-uart-stm32mp157c-ed1/bl2/stm32mp_pmic.o
 .debug_line    0x000106a4      0x6e4 ./../build/opteemin-programmer-uart-stm32mp157c-ed1/bl2/stpmic1.o
 .debug_line    0x00010d88      0x998 ./../build/opteemin-programmer-uart-stm32mp157c-ed1/bl2/regulator_core.o
 .debug_line    0x00011720      0x286 ./../build/opteemin-programmer-uart-stm32mp157c-ed1/bl2/regulator_fixed.o
 .debug_line    0x000119a6      0x415 ./../build/opteemin-programmer-uart-stm32mp157c-ed1/bl2/stm32mp1_reset.o
 .debug_line    0x00011dbb      0x89e ./../build/opteemin-programmer-uart-stm32mp157c-ed1/bl2/stm32_uart.o
 .debug_line    0x00012659       0xc6 ./../build/opteemin-programmer-uart-stm32mp157c-ed1/bl2/ctzdi2.o
 .debug_line    0x0001271f      0x385 ./../build/opteemin-programmer-uart-stm32mp157c-ed1/bl2/udivmoddi4.o
 .debug_line    0x00012aa4      0x2a7 ./../build/opteemin-programmer-uart-stm32mp157c-ed1/bl2/fconf.o
 .debug_line    0x00012d4b      0x3f8 ./../build/opteemin-programmer-uart-stm32mp157c-ed1/bl2/fconf_dyn_cfg_getter.o
 .debug_line    0x00013143      0x343 ./../build/opteemin-programmer-uart-stm32mp157c-ed1/bl2/optee_utils.o
 .debug_line    0x00013486      0x54b ./../build/opteemin-programmer-uart-stm32mp157c-ed1/bl2/xlat_tables_arch.o
 .debug_line    0x000139d1      0x39c ./../build/opteemin-programmer-uart-stm32mp157c-ed1/bl2/xlat_tables_context.o
 .debug_line    0x00013d6d     0x106b ./../build/opteemin-programmer-uart-stm32mp157c-ed1/bl2/xlat_tables_core.o
 .debug_line    0x00014dd8      0x5f2 ./../build/opteemin-programmer-uart-stm32mp157c-ed1/bl2/xlat_tables_utils.o
 .debug_line    0x000153ca      0x2a9 ./../build/opteemin-programmer-uart-stm32mp157c-ed1/bl2/plat_bl_common.o
 .debug_line    0x00015673       0xce ./../build/opteemin-programmer-uart-stm32mp157c-ed1/bl2/plat_log_common.o
 .debug_line    0x00015741      0x4d3 ./../build/opteemin-programmer-uart-stm32mp157c-ed1/bl2/bl2_io_storage.o
 .debug_line    0x00015c14      0x130 ./../build/opteemin-programmer-uart-stm32mp157c-ed1/bl2/plat_image_load.o
 .debug_line    0x00015d44      0x9b0 ./../build/opteemin-programmer-uart-stm32mp157c-ed1/bl2/stm32cubeprogrammer_uart.o
 .debug_line    0x000166f4      0xbe1 ./../build/opteemin-programmer-uart-stm32mp157c-ed1/bl2/stm32mp_common.o
 .debug_line    0x000172d5      0x978 ./../build/opteemin-programmer-uart-stm32mp157c-ed1/bl2/stm32mp_dt.o
 .debug_line    0x00017c4d      0x34a ./../build/opteemin-programmer-uart-stm32mp157c-ed1/bl2/stm32mp_fconf_fuse.o
 .debug_line    0x00017f97      0x34d ./../build/opteemin-programmer-uart-stm32mp157c-ed1/bl2/stm32mp_fconf_io.o
 .debug_line    0x000182e4      0xcb7 ./../build/opteemin-programmer-uart-stm32mp157c-ed1/bl2/bl2_plat_setup.o
 .debug_line    0x00018f9b      0x111 ./../build/opteemin-programmer-uart-stm32mp157c-ed1/bl2/plat_bl2_mem_params_desc.o
 .debug_line    0x000190ac      0x2e2 ./../build/opteemin-programmer-uart-stm32mp157c-ed1/bl2/plat_ddr.o
 .debug_line    0x0001938e      0x3c5 ./../build/opteemin-programmer-uart-stm32mp157c-ed1/bl2/stm32mp1_context.o
 .debug_line    0x00019753      0x29d ./../build/opteemin-programmer-uart-stm32mp157c-ed1/bl2/stm32mp1_critic_power.o
 .debug_line    0x000199f0      0x1fc ./../build/opteemin-programmer-uart-stm32mp157c-ed1/bl2/stm32mp1_dbgmcu.o
 .debug_line    0x00019bec      0x34d ./../build/opteemin-programmer-uart-stm32mp157c-ed1/bl2/stm32mp1_fconf_firewall.o
 .debug_line    0x00019f39      0x77f ./../build/opteemin-programmer-uart-stm32mp157c-ed1/bl2/stm32mp1_private.o
 .debug_line    0x0001a6b8      0x5bb ./../build/opteemin-programmer-uart-stm32mp157c-ed1/bl2/stm32mp1_syscfg.o
 .debug_line    0x0001ac73       0x64 ./../build/opteemin-programmer-uart-stm32mp157c-ed1/bl2/bl2_el3_entrypoint.o
 .debug_line    0x0001acd7       0x58 ./../build/opteemin-programmer-uart-stm32mp157c-ed1/bl2/bl2_el3_exceptions.o
 .debug_line    0x0001ad2f       0x60 ./../build/opteemin-programmer-uart-stm32mp157c-ed1/bl2/bl2_run_next_image.o
 .debug_line    0x0001ad8f       0xed ./../build/opteemin-programmer-uart-stm32mp157c-ed1/bl2/debug.o
 .debug_line    0x0001ae7c      0x10c ./../build/opteemin-programmer-uart-stm32mp157c-ed1/bl2/stm32_console.o
 .debug_line    0x0001af88       0xfb ./../build/opteemin-programmer-uart-stm32mp157c-ed1/bl2/cache_helpers.o
 .debug_line    0x0001b083      0x10b ./../build/opteemin-programmer-uart-stm32mp157c-ed1/bl2/misc_helpers.o
 .debug_line    0x0001b18e       0x68 ./../build/opteemin-programmer-uart-stm32mp157c-ed1/bl2/aeabi_uldivmod.o
 .debug_line    0x0001b1f6       0xa5 ./../build/opteemin-programmer-uart-stm32mp157c-ed1/bl2/cortex_a7.o
 .debug_line    0x0001b29b       0xbd ./../build/opteemin-programmer-uart-stm32mp157c-ed1/bl2/cpu_helpers.o
 .debug_line    0x0001b358       0x71 ./../build/opteemin-programmer-uart-stm32mp157c-ed1/bl2/spinlock.o
 .debug_line    0x0001b3c9       0xa5 ./../build/opteemin-programmer-uart-stm32mp157c-ed1/bl2/enable_mmu.o
 .debug_line    0x0001b46e       0x6c ./../build/opteemin-programmer-uart-stm32mp157c-ed1/bl2/platform_up_stack.o
 .debug_line    0x0001b4da       0x84 ./../build/opteemin-programmer-uart-stm32mp157c-ed1/bl2/stm32mp1_critic_power_wrapper.o
 .debug_line    0x0001b55e      0x1b3 ./../build/opteemin-programmer-uart-stm32mp157c-ed1/bl2/stm32mp1_helper.o
 .debug_line    0x0001b711      0x7d2 ./../build/opteemin-programmer-uart-stm32mp157c-ed1/lib/libfdt.a(fdt.o)
 .debug_line    0x0001bee3      0x2c6 ./../build/opteemin-programmer-uart-stm32mp157c-ed1/lib/libfdt.a(fdt_addresses.o)
 .debug_line    0x0001c1a9     0x1280 ./../build/opteemin-programmer-uart-stm32mp157c-ed1/lib/libfdt.a(fdt_ro.o)
 .debug_line    0x0001d429       0xe1 ./../build/opteemin-programmer-uart-stm32mp157c-ed1/lib/libc.a(assert.o)
 .debug_line    0x0001d50a       0x89 ./../build/opteemin-programmer-uart-stm32mp157c-ed1/lib/libc.a(memchr.o)
 .debug_line    0x0001d593       0xa3 ./../build/opteemin-programmer-uart-stm32mp157c-ed1/lib/libc.a(memcmp.o)
 .debug_line    0x0001d636       0x8c ./../build/opteemin-programmer-uart-stm32mp157c-ed1/lib/libc.a(memcpy.o)
 .debug_line    0x0001d6c2       0xe4 ./../build/opteemin-programmer-uart-stm32mp157c-ed1/lib/libc.a(memmove.o)
 .debug_line    0x0001d7a6      0x109 ./../build/opteemin-programmer-uart-stm32mp157c-ed1/lib/libc.a(memset.o)
 .debug_line    0x0001d8af      0x448 ./../build/opteemin-programmer-uart-stm32mp157c-ed1/lib/libc.a(printf.o)
 .debug_line    0x0001dcf7      0x572 ./../build/opteemin-programmer-uart-stm32mp157c-ed1/lib/libc.a(snprintf.o)
 .debug_line    0x0001e269       0x6c ./../build/opteemin-programmer-uart-stm32mp157c-ed1/lib/libc.a(strchr.o)
 .debug_line    0x0001e2d5       0x66 ./../build/opteemin-programmer-uart-stm32mp157c-ed1/lib/libc.a(strcmp.o)
 .debug_line    0x0001e33b       0xc3 ./../build/opteemin-programmer-uart-stm32mp157c-ed1/lib/libc.a(strlcpy.o)
 .debug_line    0x0001e3fe       0x7b ./../build/opteemin-programmer-uart-stm32mp157c-ed1/lib/libc.a(strlen.o)
 .debug_line    0x0001e479       0xa9 ./../build/opteemin-programmer-uart-stm32mp157c-ed1/lib/libc.a(strncmp.o)
 .debug_line    0x0001e522       0x9e ./../build/opteemin-programmer-uart-stm32mp157c-ed1/lib/libc.a(strnlen.o)
 .debug_line    0x0001e5c0       0x73 ./../build/opteemin-programmer-uart-stm32mp157c-ed1/lib/libc.a(strrchr.o)

.debug_str      0x00000000     0x8e01
 .debug_str     0x00000000     0x8e01 ./../build/opteemin-programmer-uart-stm32mp157c-ed1/bl2/build_message.o
                                0x15f (size before relaxing)
 .debug_str     0x00008e01      0x207 ./../build/opteemin-programmer-uart-stm32mp157c-ed1/bl2/bl2_arch_setup.o
 .debug_str     0x00008e01      0x4c6 ./../build/opteemin-programmer-uart-stm32mp157c-ed1/bl2/bl2_image_load_v2.o
 .debug_str     0x00008e01      0x3e3 ./../build/opteemin-programmer-uart-stm32mp157c-ed1/bl2/bl2_main.o
 .debug_str     0x00008e01      0x45e ./../build/opteemin-programmer-uart-stm32mp157c-ed1/bl2/bl_common.o
 .debug_str     0x00008e01      0x6a8 ./../build/opteemin-programmer-uart-stm32mp157c-ed1/bl2/desc_image_load.o
 .debug_str     0x00008e01      0x73e ./../build/opteemin-programmer-uart-stm32mp157c-ed1/bl2/fdt_wrappers.o
 .debug_str     0x00008e01      0x2cb ./../build/opteemin-programmer-uart-stm32mp157c-ed1/bl2/tf_log.o
 .debug_str     0x00008e01      0x292 ./../build/opteemin-programmer-uart-stm32mp157c-ed1/bl2/uuid.o
 .debug_str     0x00008e01      0x62c ./../build/opteemin-programmer-uart-stm32mp157c-ed1/bl2/tzc400.o
 .debug_str     0x00008e01      0x257 ./../build/opteemin-programmer-uart-stm32mp157c-ed1/bl2/clk.o
 .debug_str     0x00008e01      0x323 ./../build/opteemin-programmer-uart-stm32mp157c-ed1/bl2/multi_console.o
 .debug_str     0x00008e01      0x2f1 ./../build/opteemin-programmer-uart-stm32mp157c-ed1/bl2/delay_timer.o
 .debug_str     0x00008e01      0x345 ./../build/opteemin-programmer-uart-stm32mp157c-ed1/bl2/generic_delay_timer.o
 .debug_str     0x00008e01      0x846 ./../build/opteemin-programmer-uart-stm32mp157c-ed1/bl2/io_fip.o
 .debug_str     0x00008e01      0x5e8 ./../build/opteemin-programmer-uart-stm32mp157c-ed1/bl2/io_memmap.o
 .debug_str     0x00008e01      0x5b2 ./../build/opteemin-programmer-uart-stm32mp157c-ed1/bl2/io_storage.o
 .debug_str     0x00008e01      0x4f9 ./../build/opteemin-programmer-uart-stm32mp157c-ed1/bl2/bsec2.o
 .debug_str     0x00008e01     0x150a ./../build/opteemin-programmer-uart-stm32mp157c-ed1/bl2/stm32mp1_clk.o
 .debug_str     0x00008e01      0x550 ./../build/opteemin-programmer-uart-stm32mp157c-ed1/bl2/stm32mp_clkfunc.o
 .debug_str     0x00008e01      0xffc ./../build/opteemin-programmer-uart-stm32mp157c-ed1/bl2/stm32mp1_ddr.o
 .debug_str     0x00008e01      0xb10 ./../build/opteemin-programmer-uart-stm32mp157c-ed1/bl2/stm32mp1_ddr_helpers.o
 .debug_str     0x00008e01      0xe70 ./../build/opteemin-programmer-uart-stm32mp157c-ed1/bl2/stm32mp1_ram.o
 .debug_str     0x00008e01      0xdfe ./../build/opteemin-programmer-uart-stm32mp157c-ed1/bl2/stm32mp_ddr.o
 .debug_str     0x00008e01      0x308 ./../build/opteemin-programmer-uart-stm32mp157c-ed1/bl2/stm32mp_ddr_test.o
 .debug_str     0x00008e01      0x2e7 ./../build/opteemin-programmer-uart-stm32mp157c-ed1/bl2/stm32mp_ram.o
 .debug_str     0x00008e01      0x56d ./../build/opteemin-programmer-uart-stm32mp157c-ed1/bl2/stm32_gpio.o
 .debug_str     0x00008e01      0x96e ./../build/opteemin-programmer-uart-stm32mp157c-ed1/bl2/stm32_i2c.o
 .debug_str     0x00008e01      0x4c1 ./../build/opteemin-programmer-uart-stm32mp157c-ed1/bl2/stm32_iwdg.o
 .debug_str     0x00008e01      0x42b ./../build/opteemin-programmer-uart-stm32mp157c-ed1/bl2/nvmem.o
 .debug_str     0x00008e01      0x7d7 ./../build/opteemin-programmer-uart-stm32mp157c-ed1/bl2/stm32mp_tamp_nvram_core.o
 .debug_str     0x00008e01      0x411 ./../build/opteemin-programmer-uart-stm32mp157c-ed1/bl2/stm32mp_tamp_nvram_mp1.o
 .debug_str     0x00008e01      0xb19 ./../build/opteemin-programmer-uart-stm32mp157c-ed1/bl2/stm32mp_pmic.o
 .debug_str     0x00008e01      0x7e9 ./../build/opteemin-programmer-uart-stm32mp157c-ed1/bl2/stpmic1.o
 .debug_str     0x00008e01      0x58d ./../build/opteemin-programmer-uart-stm32mp157c-ed1/bl2/regulator_core.o
 .debug_str     0x00008e01      0x3f0 ./../build/opteemin-programmer-uart-stm32mp157c-ed1/bl2/regulator_fixed.o
 .debug_str     0x00008e01      0x36a ./../build/opteemin-programmer-uart-stm32mp157c-ed1/bl2/stm32mp1_reset.o
 .debug_str     0x00008e01      0x609 ./../build/opteemin-programmer-uart-stm32mp157c-ed1/bl2/stm32_uart.o
 .debug_str     0x00008e01      0x247 ./../build/opteemin-programmer-uart-stm32mp157c-ed1/bl2/ctzdi2.o
 .debug_str     0x00008e01      0x272 ./../build/opteemin-programmer-uart-stm32mp157c-ed1/bl2/udivmoddi4.o
 .debug_str     0x00008e01      0x401 ./../build/opteemin-programmer-uart-stm32mp157c-ed1/bl2/fconf.o
 .debug_str     0x00008e01      0x50e ./../build/opteemin-programmer-uart-stm32mp157c-ed1/bl2/fconf_dyn_cfg_getter.o
 .debug_str     0x00008e01      0x455 ./../build/opteemin-programmer-uart-stm32mp157c-ed1/bl2/optee_utils.o
 .debug_str     0x00008e01      0x51b ./../build/opteemin-programmer-uart-stm32mp157c-ed1/bl2/xlat_tables_arch.o
 .debug_str     0x00008e01      0x61e ./../build/opteemin-programmer-uart-stm32mp157c-ed1/bl2/xlat_tables_context.o
 .debug_str     0x00008e01      0x8de ./../build/opteemin-programmer-uart-stm32mp157c-ed1/bl2/xlat_tables_core.o
 .debug_str     0x00008e01      0x548 ./../build/opteemin-programmer-uart-stm32mp157c-ed1/bl2/xlat_tables_utils.o
 .debug_str     0x00008e01      0x452 ./../build/opteemin-programmer-uart-stm32mp157c-ed1/bl2/plat_bl_common.o
 .debug_str     0x00008e01      0x276 ./../build/opteemin-programmer-uart-stm32mp157c-ed1/bl2/plat_log_common.o
 .debug_str     0x00008e01      0x991 ./../build/opteemin-programmer-uart-stm32mp157c-ed1/bl2/bl2_io_storage.o
 .debug_str     0x00008e01      0x46d ./../build/opteemin-programmer-uart-stm32mp157c-ed1/bl2/plat_image_load.o
 .debug_str     0x00008e01      0x690 ./../build/opteemin-programmer-uart-stm32mp157c-ed1/bl2/stm32cubeprogrammer_uart.o
 .debug_str     0x00008e01      0xd46 ./../build/opteemin-programmer-uart-stm32mp157c-ed1/bl2/stm32mp_common.o
 .debug_str     0x00008e01      0x76e ./../build/opteemin-programmer-uart-stm32mp157c-ed1/bl2/stm32mp_dt.o
 .debug_str     0x00008e01      0x44f ./../build/opteemin-programmer-uart-stm32mp157c-ed1/bl2/stm32mp_fconf_fuse.o
 .debug_str     0x00008e01      0x567 ./../build/opteemin-programmer-uart-stm32mp157c-ed1/bl2/stm32mp_fconf_io.o
 .debug_str     0x00008e01      0xfaf ./../build/opteemin-programmer-uart-stm32mp157c-ed1/bl2/bl2_plat_setup.o
 .debug_str     0x00008e01      0x459 ./../build/opteemin-programmer-uart-stm32mp157c-ed1/bl2/plat_bl2_mem_params_desc.o
 .debug_str     0x00008e01      0x405 ./../build/opteemin-programmer-uart-stm32mp157c-ed1/bl2/plat_ddr.o
 .debug_str     0x00008e01      0x484 ./../build/opteemin-programmer-uart-stm32mp157c-ed1/bl2/stm32mp1_context.o
 .debug_str     0x00008e01      0x3c4 ./../build/opteemin-programmer-uart-stm32mp157c-ed1/bl2/stm32mp1_critic_power.o
 .debug_str     0x00008e01      0x2d1 ./../build/opteemin-programmer-uart-stm32mp157c-ed1/bl2/stm32mp1_dbgmcu.o
 .debug_str     0x00008e01      0x47e ./../build/opteemin-programmer-uart-stm32mp157c-ed1/bl2/stm32mp1_fconf_firewall.o
 .debug_str     0x00008e01      0x6e0 ./../build/opteemin-programmer-uart-stm32mp157c-ed1/bl2/stm32mp1_private.o
 .debug_str     0x00008e01      0x4c8 ./../build/opteemin-programmer-uart-stm32mp157c-ed1/bl2/stm32mp1_syscfg.o
 .debug_str     0x00008e01       0x61 ./../build/opteemin-programmer-uart-stm32mp157c-ed1/bl2/bl2_el3_entrypoint.o
 .debug_str     0x00008e01       0x52 ./../build/opteemin-programmer-uart-stm32mp157c-ed1/bl2/bl2_el3_exceptions.o
 .debug_str     0x00008e01       0x65 ./../build/opteemin-programmer-uart-stm32mp157c-ed1/bl2/bl2_run_next_image.o
 .debug_str     0x00008e01       0xb2 ./../build/opteemin-programmer-uart-stm32mp157c-ed1/bl2/debug.o
 .debug_str     0x00008e01       0xf8 ./../build/opteemin-programmer-uart-stm32mp157c-ed1/bl2/stm32_console.o
 .debug_str     0x00008e01       0xd6 ./../build/opteemin-programmer-uart-stm32mp157c-ed1/bl2/cache_helpers.o
 .debug_str     0x00008e01       0xac ./../build/opteemin-programmer-uart-stm32mp157c-ed1/bl2/misc_helpers.o
 .debug_str     0x00008e01       0x70 ./../build/opteemin-programmer-uart-stm32mp157c-ed1/bl2/aeabi_uldivmod.o
 .debug_str     0x00008e01       0xbf ./../build/opteemin-programmer-uart-stm32mp157c-ed1/bl2/cortex_a7.o
 .debug_str     0x00008e01       0x9c ./../build/opteemin-programmer-uart-stm32mp157c-ed1/bl2/cpu_helpers.o
 .debug_str     0x00008e01       0x6e ./../build/opteemin-programmer-uart-stm32mp157c-ed1/bl2/spinlock.o
 .debug_str     0x00008e01       0x89 ./../build/opteemin-programmer-uart-stm32mp157c-ed1/bl2/enable_mmu.o
 .debug_str     0x00008e01       0x7d ./../build/opteemin-programmer-uart-stm32mp157c-ed1/bl2/platform_up_stack.o
 .debug_str     0x00008e01       0x7d ./../build/opteemin-programmer-uart-stm32mp157c-ed1/bl2/stm32mp1_critic_power_wrapper.o
 .debug_str     0x00008e01      0x196 ./../build/opteemin-programmer-uart-stm32mp157c-ed1/bl2/stm32mp1_helper.o
 .debug_str     0x00008e01      0x4b4 ./../build/opteemin-programmer-uart-stm32mp157c-ed1/lib/libfdt.a(fdt.o)
 .debug_str     0x00008e01      0x2b4 ./../build/opteemin-programmer-uart-stm32mp157c-ed1/lib/libfdt.a(fdt_addresses.o)
 .debug_str     0x00008e01      0x8c2 ./../build/opteemin-programmer-uart-stm32mp157c-ed1/lib/libfdt.a(fdt_ro.o)
 .debug_str     0x00008e01      0x220 ./../build/opteemin-programmer-uart-stm32mp157c-ed1/lib/libc.a(assert.o)
 .debug_str     0x00008e01      0x17b ./../build/opteemin-programmer-uart-stm32mp157c-ed1/lib/libc.a(memchr.o)
 .debug_str     0x00008e01      0x17b ./../build/opteemin-programmer-uart-stm32mp157c-ed1/lib/libc.a(memcmp.o)
 .debug_str     0x00008e01      0x172 ./../build/opteemin-programmer-uart-stm32mp157c-ed1/lib/libc.a(memcpy.o)
 .debug_str     0x00008e01      0x17b ./../build/opteemin-programmer-uart-stm32mp157c-ed1/lib/libc.a(memmove.o)
 .debug_str     0x00008e01      0x1f0 ./../build/opteemin-programmer-uart-stm32mp157c-ed1/lib/libc.a(memset.o)
 .debug_str     0x00008e01      0x26a ./../build/opteemin-programmer-uart-stm32mp157c-ed1/lib/libc.a(printf.o)
 .debug_str     0x00008e01      0x29a ./../build/opteemin-programmer-uart-stm32mp157c-ed1/lib/libc.a(snprintf.o)
 .debug_str     0x00008e01      0x16b ./../build/opteemin-programmer-uart-stm32mp157c-ed1/lib/libc.a(strchr.o)
 .debug_str     0x00008e01      0x154 ./../build/opteemin-programmer-uart-stm32mp157c-ed1/lib/libc.a(strcmp.o)
 .debug_str     0x00008e01      0x1dc ./../build/opteemin-programmer-uart-stm32mp157c-ed1/lib/libc.a(strlcpy.o)
 .debug_str     0x00008e01      0x179 ./../build/opteemin-programmer-uart-stm32mp157c-ed1/lib/libc.a(strlen.o)
 .debug_str     0x00008e01      0x174 ./../build/opteemin-programmer-uart-stm32mp157c-ed1/lib/libc.a(strncmp.o)
 .debug_str     0x00008e01      0x164 ./../build/opteemin-programmer-uart-stm32mp157c-ed1/lib/libc.a(strnlen.o)
 .debug_str     0x00008e01      0x172 ./../build/opteemin-programmer-uart-stm32mp157c-ed1/lib/libc.a(strrchr.o)

.comment        0x00000000       0x12
 .comment       0x00000000       0x12 ./../build/opteemin-programmer-uart-stm32mp157c-ed1/bl2/build_message.o
                                 0x13 (size before relaxing)
 .comment       0x00000012       0x13 ./../build/opteemin-programmer-uart-stm32mp157c-ed1/bl2/bl2_arch_setup.o
 .comment       0x00000012       0x13 ./../build/opteemin-programmer-uart-stm32mp157c-ed1/bl2/bl2_image_load_v2.o
 .comment       0x00000012       0x13 ./../build/opteemin-programmer-uart-stm32mp157c-ed1/bl2/bl2_main.o
 .comment       0x00000012       0x13 ./../build/opteemin-programmer-uart-stm32mp157c-ed1/bl2/bl_common.o
 .comment       0x00000012       0x13 ./../build/opteemin-programmer-uart-stm32mp157c-ed1/bl2/desc_image_load.o
 .comment       0x00000012       0x13 ./../build/opteemin-programmer-uart-stm32mp157c-ed1/bl2/fdt_wrappers.o
 .comment       0x00000012       0x13 ./../build/opteemin-programmer-uart-stm32mp157c-ed1/bl2/tf_log.o
 .comment       0x00000012       0x13 ./../build/opteemin-programmer-uart-stm32mp157c-ed1/bl2/uuid.o
 .comment       0x00000012       0x13 ./../build/opteemin-programmer-uart-stm32mp157c-ed1/bl2/tzc400.o
 .comment       0x00000012       0x13 ./../build/opteemin-programmer-uart-stm32mp157c-ed1/bl2/clk.o
 .comment       0x00000012       0x13 ./../build/opteemin-programmer-uart-stm32mp157c-ed1/bl2/multi_console.o
 .comment       0x00000012       0x13 ./../build/opteemin-programmer-uart-stm32mp157c-ed1/bl2/delay_timer.o
 .comment       0x00000012       0x13 ./../build/opteemin-programmer-uart-stm32mp157c-ed1/bl2/generic_delay_timer.o
 .comment       0x00000012       0x13 ./../build/opteemin-programmer-uart-stm32mp157c-ed1/bl2/io_fip.o
 .comment       0x00000012       0x13 ./../build/opteemin-programmer-uart-stm32mp157c-ed1/bl2/io_memmap.o
 .comment       0x00000012       0x13 ./../build/opteemin-programmer-uart-stm32mp157c-ed1/bl2/io_storage.o
 .comment       0x00000012       0x13 ./../build/opteemin-programmer-uart-stm32mp157c-ed1/bl2/bsec2.o
 .comment       0x00000012       0x13 ./../build/opteemin-programmer-uart-stm32mp157c-ed1/bl2/stm32mp1_clk.o
 .comment       0x00000012       0x13 ./../build/opteemin-programmer-uart-stm32mp157c-ed1/bl2/stm32mp_clkfunc.o
 .comment       0x00000012       0x13 ./../build/opteemin-programmer-uart-stm32mp157c-ed1/bl2/stm32mp1_ddr.o
 .comment       0x00000012       0x13 ./../build/opteemin-programmer-uart-stm32mp157c-ed1/bl2/stm32mp1_ddr_helpers.o
 .comment       0x00000012       0x13 ./../build/opteemin-programmer-uart-stm32mp157c-ed1/bl2/stm32mp1_ram.o
 .comment       0x00000012       0x13 ./../build/opteemin-programmer-uart-stm32mp157c-ed1/bl2/stm32mp_ddr.o
 .comment       0x00000012       0x13 ./../build/opteemin-programmer-uart-stm32mp157c-ed1/bl2/stm32mp_ddr_test.o
 .comment       0x00000012       0x13 ./../build/opteemin-programmer-uart-stm32mp157c-ed1/bl2/stm32mp_ram.o
 .comment       0x00000012       0x13 ./../build/opteemin-programmer-uart-stm32mp157c-ed1/bl2/stm32_gpio.o
 .comment       0x00000012       0x13 ./../build/opteemin-programmer-uart-stm32mp157c-ed1/bl2/stm32_i2c.o
 .comment       0x00000012       0x13 ./../build/opteemin-programmer-uart-stm32mp157c-ed1/bl2/stm32_iwdg.o
 .comment       0x00000012       0x13 ./../build/opteemin-programmer-uart-stm32mp157c-ed1/bl2/nvmem.o
 .comment       0x00000012       0x13 ./../build/opteemin-programmer-uart-stm32mp157c-ed1/bl2/stm32mp_tamp_nvram_core.o
 .comment       0x00000012       0x13 ./../build/opteemin-programmer-uart-stm32mp157c-ed1/bl2/stm32mp_tamp_nvram_mp1.o
 .comment       0x00000012       0x13 ./../build/opteemin-programmer-uart-stm32mp157c-ed1/bl2/stm32mp_pmic.o
 .comment       0x00000012       0x13 ./../build/opteemin-programmer-uart-stm32mp157c-ed1/bl2/stpmic1.o
 .comment       0x00000012       0x13 ./../build/opteemin-programmer-uart-stm32mp157c-ed1/bl2/regulator_core.o
 .comment       0x00000012       0x13 ./../build/opteemin-programmer-uart-stm32mp157c-ed1/bl2/regulator_fixed.o
 .comment       0x00000012       0x13 ./../build/opteemin-programmer-uart-stm32mp157c-ed1/bl2/stm32mp1_reset.o
 .comment       0x00000012       0x13 ./../build/opteemin-programmer-uart-stm32mp157c-ed1/bl2/stm32_uart.o
 .comment       0x00000012       0x13 ./../build/opteemin-programmer-uart-stm32mp157c-ed1/bl2/ctzdi2.o
 .comment       0x00000012       0x13 ./../build/opteemin-programmer-uart-stm32mp157c-ed1/bl2/udivmoddi4.o
 .comment       0x00000012       0x13 ./../build/opteemin-programmer-uart-stm32mp157c-ed1/bl2/fconf.o
 .comment       0x00000012       0x13 ./../build/opteemin-programmer-uart-stm32mp157c-ed1/bl2/fconf_dyn_cfg_getter.o
 .comment       0x00000012       0x13 ./../build/opteemin-programmer-uart-stm32mp157c-ed1/bl2/optee_utils.o
 .comment       0x00000012       0x13 ./../build/opteemin-programmer-uart-stm32mp157c-ed1/bl2/xlat_tables_arch.o
 .comment       0x00000012       0x13 ./../build/opteemin-programmer-uart-stm32mp157c-ed1/bl2/xlat_tables_context.o
 .comment       0x00000012       0x13 ./../build/opteemin-programmer-uart-stm32mp157c-ed1/bl2/xlat_tables_core.o
 .comment       0x00000012       0x13 ./../build/opteemin-programmer-uart-stm32mp157c-ed1/bl2/xlat_tables_utils.o
 .comment       0x00000012       0x13 ./../build/opteemin-programmer-uart-stm32mp157c-ed1/bl2/plat_bl_common.o
 .comment       0x00000012       0x13 ./../build/opteemin-programmer-uart-stm32mp157c-ed1/bl2/plat_log_common.o
 .comment       0x00000012       0x13 ./../build/opteemin-programmer-uart-stm32mp157c-ed1/bl2/bl2_io_storage.o
 .comment       0x00000012       0x13 ./../build/opteemin-programmer-uart-stm32mp157c-ed1/bl2/plat_image_load.o
 .comment       0x00000012       0x13 ./../build/opteemin-programmer-uart-stm32mp157c-ed1/bl2/stm32cubeprogrammer_uart.o
 .comment       0x00000012       0x13 ./../build/opteemin-programmer-uart-stm32mp157c-ed1/bl2/stm32mp_common.o
 .comment       0x00000012       0x13 ./../build/opteemin-programmer-uart-stm32mp157c-ed1/bl2/stm32mp_dt.o
 .comment       0x00000012       0x13 ./../build/opteemin-programmer-uart-stm32mp157c-ed1/bl2/stm32mp_fconf_fuse.o
 .comment       0x00000012       0x13 ./../build/opteemin-programmer-uart-stm32mp157c-ed1/bl2/stm32mp_fconf_io.o
 .comment       0x00000012       0x13 ./../build/opteemin-programmer-uart-stm32mp157c-ed1/bl2/bl2_plat_setup.o
 .comment       0x00000012       0x13 ./../build/opteemin-programmer-uart-stm32mp157c-ed1/bl2/plat_bl2_mem_params_desc.o
 .comment       0x00000012       0x13 ./../build/opteemin-programmer-uart-stm32mp157c-ed1/bl2/plat_ddr.o
 .comment       0x00000012       0x13 ./../build/opteemin-programmer-uart-stm32mp157c-ed1/bl2/stm32mp1_context.o
 .comment       0x00000012       0x13 ./../build/opteemin-programmer-uart-stm32mp157c-ed1/bl2/stm32mp1_critic_power.o
 .comment       0x00000012       0x13 ./../build/opteemin-programmer-uart-stm32mp157c-ed1/bl2/stm32mp1_dbgmcu.o
 .comment       0x00000012       0x13 ./../build/opteemin-programmer-uart-stm32mp157c-ed1/bl2/stm32mp1_fconf_firewall.o
 .comment       0x00000012       0x13 ./../build/opteemin-programmer-uart-stm32mp157c-ed1/bl2/stm32mp1_private.o
 .comment       0x00000012       0x13 ./../build/opteemin-programmer-uart-stm32mp157c-ed1/bl2/stm32mp1_syscfg.o
 .comment       0x00000012       0x13 ./../build/opteemin-programmer-uart-stm32mp157c-ed1/lib/libfdt.a(fdt.o)
 .comment       0x00000012       0x13 ./../build/opteemin-programmer-uart-stm32mp157c-ed1/lib/libfdt.a(fdt_addresses.o)
 .comment       0x00000012       0x13 ./../build/opteemin-programmer-uart-stm32mp157c-ed1/lib/libfdt.a(fdt_ro.o)
 .comment       0x00000012       0x13 ./../build/opteemin-programmer-uart-stm32mp157c-ed1/lib/libc.a(assert.o)
 .comment       0x00000012       0x13 ./../build/opteemin-programmer-uart-stm32mp157c-ed1/lib/libc.a(memchr.o)
 .comment       0x00000012       0x13 ./../build/opteemin-programmer-uart-stm32mp157c-ed1/lib/libc.a(memcmp.o)
 .comment       0x00000012       0x13 ./../build/opteemin-programmer-uart-stm32mp157c-ed1/lib/libc.a(memcpy.o)
 .comment       0x00000012       0x13 ./../build/opteemin-programmer-uart-stm32mp157c-ed1/lib/libc.a(memmove.o)
 .comment       0x00000012       0x13 ./../build/opteemin-programmer-uart-stm32mp157c-ed1/lib/libc.a(memset.o)
 .comment       0x00000012       0x13 ./../build/opteemin-programmer-uart-stm32mp157c-ed1/lib/libc.a(printf.o)
 .comment       0x00000012       0x13 ./../build/opteemin-programmer-uart-stm32mp157c-ed1/lib/libc.a(snprintf.o)
 .comment       0x00000012       0x13 ./../build/opteemin-programmer-uart-stm32mp157c-ed1/lib/libc.a(strchr.o)
 .comment       0x00000012       0x13 ./../build/opteemin-programmer-uart-stm32mp157c-ed1/lib/libc.a(strcmp.o)
 .comment       0x00000012       0x13 ./../build/opteemin-programmer-uart-stm32mp157c-ed1/lib/libc.a(strlcpy.o)
 .comment       0x00000012       0x13 ./../build/opteemin-programmer-uart-stm32mp157c-ed1/lib/libc.a(strlen.o)
 .comment       0x00000012       0x13 ./../build/opteemin-programmer-uart-stm32mp157c-ed1/lib/libc.a(strncmp.o)
 .comment       0x00000012       0x13 ./../build/opteemin-programmer-uart-stm32mp157c-ed1/lib/libc.a(strnlen.o)
 .comment       0x00000012       0x13 ./../build/opteemin-programmer-uart-stm32mp157c-ed1/lib/libc.a(strrchr.o)

.note.GNU-stack
                0x00000000        0x0
 .note.GNU-stack
                0x00000000        0x0 ./../build/opteemin-programmer-uart-stm32mp157c-ed1/bl2/build_message.o
 .note.GNU-stack
                0x00000000        0x0 ./../build/opteemin-programmer-uart-stm32mp157c-ed1/bl2/bl2_arch_setup.o
 .note.GNU-stack
                0x00000000        0x0 ./../build/opteemin-programmer-uart-stm32mp157c-ed1/bl2/bl2_image_load_v2.o
 .note.GNU-stack
                0x00000000        0x0 ./../build/opteemin-programmer-uart-stm32mp157c-ed1/bl2/bl2_main.o
 .note.GNU-stack
                0x00000000        0x0 ./../build/opteemin-programmer-uart-stm32mp157c-ed1/bl2/bl_common.o
 .note.GNU-stack
                0x00000000        0x0 ./../build/opteemin-programmer-uart-stm32mp157c-ed1/bl2/desc_image_load.o
 .note.GNU-stack
                0x00000000        0x0 ./../build/opteemin-programmer-uart-stm32mp157c-ed1/bl2/fdt_wrappers.o
 .note.GNU-stack
                0x00000000        0x0 ./../build/opteemin-programmer-uart-stm32mp157c-ed1/bl2/tf_log.o
 .note.GNU-stack
                0x00000000        0x0 ./../build/opteemin-programmer-uart-stm32mp157c-ed1/bl2/uuid.o
 .note.GNU-stack
                0x00000000        0x0 ./../build/opteemin-programmer-uart-stm32mp157c-ed1/bl2/tzc400.o
 .note.GNU-stack
                0x00000000        0x0 ./../build/opteemin-programmer-uart-stm32mp157c-ed1/bl2/clk.o
 .note.GNU-stack
                0x00000000        0x0 ./../build/opteemin-programmer-uart-stm32mp157c-ed1/bl2/multi_console.o
 .note.GNU-stack
                0x00000000        0x0 ./../build/opteemin-programmer-uart-stm32mp157c-ed1/bl2/delay_timer.o
 .note.GNU-stack
                0x00000000        0x0 ./../build/opteemin-programmer-uart-stm32mp157c-ed1/bl2/generic_delay_timer.o
 .note.GNU-stack
                0x00000000        0x0 ./../build/opteemin-programmer-uart-stm32mp157c-ed1/bl2/io_fip.o
 .note.GNU-stack
                0x00000000        0x0 ./../build/opteemin-programmer-uart-stm32mp157c-ed1/bl2/io_memmap.o
 .note.GNU-stack
                0x00000000        0x0 ./../build/opteemin-programmer-uart-stm32mp157c-ed1/bl2/io_storage.o
 .note.GNU-stack
                0x00000000        0x0 ./../build/opteemin-programmer-uart-stm32mp157c-ed1/bl2/bsec2.o
 .note.GNU-stack
                0x00000000        0x0 ./../build/opteemin-programmer-uart-stm32mp157c-ed1/bl2/stm32mp1_clk.o
 .note.GNU-stack
                0x00000000        0x0 ./../build/opteemin-programmer-uart-stm32mp157c-ed1/bl2/stm32mp_clkfunc.o
 .note.GNU-stack
                0x00000000        0x0 ./../build/opteemin-programmer-uart-stm32mp157c-ed1/bl2/stm32mp1_ddr.o
 .note.GNU-stack
                0x00000000        0x0 ./../build/opteemin-programmer-uart-stm32mp157c-ed1/bl2/stm32mp1_ddr_helpers.o
 .note.GNU-stack
                0x00000000        0x0 ./../build/opteemin-programmer-uart-stm32mp157c-ed1/bl2/stm32mp1_ram.o
 .note.GNU-stack
                0x00000000        0x0 ./../build/opteemin-programmer-uart-stm32mp157c-ed1/bl2/stm32mp_ddr.o
 .note.GNU-stack
                0x00000000        0x0 ./../build/opteemin-programmer-uart-stm32mp157c-ed1/bl2/stm32mp_ddr_test.o
 .note.GNU-stack
                0x00000000        0x0 ./../build/opteemin-programmer-uart-stm32mp157c-ed1/bl2/stm32mp_ram.o
 .note.GNU-stack
                0x00000000        0x0 ./../build/opteemin-programmer-uart-stm32mp157c-ed1/bl2/stm32_gpio.o
 .note.GNU-stack
                0x00000000        0x0 ./../build/opteemin-programmer-uart-stm32mp157c-ed1/bl2/stm32_i2c.o
 .note.GNU-stack
                0x00000000        0x0 ./../build/opteemin-programmer-uart-stm32mp157c-ed1/bl2/stm32_iwdg.o
 .note.GNU-stack
                0x00000000        0x0 ./../build/opteemin-programmer-uart-stm32mp157c-ed1/bl2/nvmem.o
 .note.GNU-stack
                0x00000000        0x0 ./../build/opteemin-programmer-uart-stm32mp157c-ed1/bl2/stm32mp_tamp_nvram_core.o
 .note.GNU-stack
                0x00000000        0x0 ./../build/opteemin-programmer-uart-stm32mp157c-ed1/bl2/stm32mp_tamp_nvram_mp1.o
 .note.GNU-stack
                0x00000000        0x0 ./../build/opteemin-programmer-uart-stm32mp157c-ed1/bl2/stm32mp_pmic.o
 .note.GNU-stack
                0x00000000        0x0 ./../build/opteemin-programmer-uart-stm32mp157c-ed1/bl2/stpmic1.o
 .note.GNU-stack
                0x00000000        0x0 ./../build/opteemin-programmer-uart-stm32mp157c-ed1/bl2/regulator_core.o
 .note.GNU-stack
                0x00000000        0x0 ./../build/opteemin-programmer-uart-stm32mp157c-ed1/bl2/regulator_fixed.o
 .note.GNU-stack
                0x00000000        0x0 ./../build/opteemin-programmer-uart-stm32mp157c-ed1/bl2/stm32mp1_reset.o
 .note.GNU-stack
                0x00000000        0x0 ./../build/opteemin-programmer-uart-stm32mp157c-ed1/bl2/stm32_uart.o
 .note.GNU-stack
                0x00000000        0x0 ./../build/opteemin-programmer-uart-stm32mp157c-ed1/bl2/ctzdi2.o
 .note.GNU-stack
                0x00000000        0x0 ./../build/opteemin-programmer-uart-stm32mp157c-ed1/bl2/udivmoddi4.o
 .note.GNU-stack
                0x00000000        0x0 ./../build/opteemin-programmer-uart-stm32mp157c-ed1/bl2/fconf.o
 .note.GNU-stack
                0x00000000        0x0 ./../build/opteemin-programmer-uart-stm32mp157c-ed1/bl2/fconf_dyn_cfg_getter.o
 .note.GNU-stack
                0x00000000        0x0 ./../build/opteemin-programmer-uart-stm32mp157c-ed1/bl2/optee_utils.o
 .note.GNU-stack
                0x00000000        0x0 ./../build/opteemin-programmer-uart-stm32mp157c-ed1/bl2/xlat_tables_arch.o
 .note.GNU-stack
                0x00000000        0x0 ./../build/opteemin-programmer-uart-stm32mp157c-ed1/bl2/xlat_tables_context.o
 .note.GNU-stack
                0x00000000        0x0 ./../build/opteemin-programmer-uart-stm32mp157c-ed1/bl2/xlat_tables_core.o
 .note.GNU-stack
                0x00000000        0x0 ./../build/opteemin-programmer-uart-stm32mp157c-ed1/bl2/xlat_tables_utils.o
 .note.GNU-stack
                0x00000000        0x0 ./../build/opteemin-programmer-uart-stm32mp157c-ed1/bl2/plat_bl_common.o
 .note.GNU-stack
                0x00000000        0x0 ./../build/opteemin-programmer-uart-stm32mp157c-ed1/bl2/plat_log_common.o
 .note.GNU-stack
                0x00000000        0x0 ./../build/opteemin-programmer-uart-stm32mp157c-ed1/bl2/bl2_io_storage.o
 .note.GNU-stack
                0x00000000        0x0 ./../build/opteemin-programmer-uart-stm32mp157c-ed1/bl2/plat_image_load.o
 .note.GNU-stack
                0x00000000        0x0 ./../build/opteemin-programmer-uart-stm32mp157c-ed1/bl2/stm32cubeprogrammer_uart.o
 .note.GNU-stack
                0x00000000        0x0 ./../build/opteemin-programmer-uart-stm32mp157c-ed1/bl2/stm32mp_common.o
 .note.GNU-stack
                0x00000000        0x0 ./../build/opteemin-programmer-uart-stm32mp157c-ed1/bl2/stm32mp_dt.o
 .note.GNU-stack
                0x00000000        0x0 ./../build/opteemin-programmer-uart-stm32mp157c-ed1/bl2/stm32mp_fconf_fuse.o
 .note.GNU-stack
                0x00000000        0x0 ./../build/opteemin-programmer-uart-stm32mp157c-ed1/bl2/stm32mp_fconf_io.o
 .note.GNU-stack
                0x00000000        0x0 ./../build/opteemin-programmer-uart-stm32mp157c-ed1/bl2/bl2_plat_setup.o
 .note.GNU-stack
                0x00000000        0x0 ./../build/opteemin-programmer-uart-stm32mp157c-ed1/bl2/plat_bl2_mem_params_desc.o
 .note.GNU-stack
                0x00000000        0x0 ./../build/opteemin-programmer-uart-stm32mp157c-ed1/bl2/plat_ddr.o
 .note.GNU-stack
                0x00000000        0x0 ./../build/opteemin-programmer-uart-stm32mp157c-ed1/bl2/stm32mp1_context.o
 .note.GNU-stack
                0x00000000        0x0 ./../build/opteemin-programmer-uart-stm32mp157c-ed1/bl2/stm32mp1_critic_power.o
 .note.GNU-stack
                0x00000000        0x0 ./../build/opteemin-programmer-uart-stm32mp157c-ed1/bl2/stm32mp1_dbgmcu.o
 .note.GNU-stack
                0x00000000        0x0 ./../build/opteemin-programmer-uart-stm32mp157c-ed1/bl2/stm32mp1_fconf_firewall.o
 .note.GNU-stack
                0x00000000        0x0 ./../build/opteemin-programmer-uart-stm32mp157c-ed1/bl2/stm32mp1_private.o
 .note.GNU-stack
                0x00000000        0x0 ./../build/opteemin-programmer-uart-stm32mp157c-ed1/bl2/stm32mp1_syscfg.o
 .note.GNU-stack
                0x00000000        0x0 ./../build/opteemin-programmer-uart-stm32mp157c-ed1/bl2/aeabi_uldivmod.o
 .note.GNU-stack
                0x00000000        0x0 ./../build/opteemin-programmer-uart-stm32mp157c-ed1/lib/libfdt.a(fdt.o)
 .note.GNU-stack
                0x00000000        0x0 ./../build/opteemin-programmer-uart-stm32mp157c-ed1/lib/libfdt.a(fdt_addresses.o)
 .note.GNU-stack
                0x00000000        0x0 ./../build/opteemin-programmer-uart-stm32mp157c-ed1/lib/libfdt.a(fdt_ro.o)
 .note.GNU-stack
                0x00000000        0x0 ./../build/opteemin-programmer-uart-stm32mp157c-ed1/lib/libc.a(assert.o)
 .note.GNU-stack
                0x00000000        0x0 ./../build/opteemin-programmer-uart-stm32mp157c-ed1/lib/libc.a(memchr.o)
 .note.GNU-stack
                0x00000000        0x0 ./../build/opteemin-programmer-uart-stm32mp157c-ed1/lib/libc.a(memcmp.o)
 .note.GNU-stack
                0x00000000        0x0 ./../build/opteemin-programmer-uart-stm32mp157c-ed1/lib/libc.a(memcpy.o)
 .note.GNU-stack
                0x00000000        0x0 ./../build/opteemin-programmer-uart-stm32mp157c-ed1/lib/libc.a(memmove.o)
 .note.GNU-stack
                0x00000000        0x0 ./../build/opteemin-programmer-uart-stm32mp157c-ed1/lib/libc.a(memset.o)
 .note.GNU-stack
                0x00000000        0x0 ./../build/opteemin-programmer-uart-stm32mp157c-ed1/lib/libc.a(printf.o)
 .note.GNU-stack
                0x00000000        0x0 ./../build/opteemin-programmer-uart-stm32mp157c-ed1/lib/libc.a(snprintf.o)
 .note.GNU-stack
                0x00000000        0x0 ./../build/opteemin-programmer-uart-stm32mp157c-ed1/lib/libc.a(strchr.o)
 .note.GNU-stack
                0x00000000        0x0 ./../build/opteemin-programmer-uart-stm32mp157c-ed1/lib/libc.a(strcmp.o)
 .note.GNU-stack
                0x00000000        0x0 ./../build/opteemin-programmer-uart-stm32mp157c-ed1/lib/libc.a(strlcpy.o)
 .note.GNU-stack
                0x00000000        0x0 ./../build/opteemin-programmer-uart-stm32mp157c-ed1/lib/libc.a(strlen.o)
 .note.GNU-stack
                0x00000000        0x0 ./../build/opteemin-programmer-uart-stm32mp157c-ed1/lib/libc.a(strncmp.o)
 .note.GNU-stack
                0x00000000        0x0 ./../build/opteemin-programmer-uart-stm32mp157c-ed1/lib/libc.a(strnlen.o)
 .note.GNU-stack
                0x00000000        0x0 ./../build/opteemin-programmer-uart-stm32mp157c-ed1/lib/libc.a(strrchr.o)

.ARM.attributes
                0x00000000       0x35
 .ARM.attributes
                0x00000000       0x33 ./../build/opteemin-programmer-uart-stm32mp157c-ed1/bl2/build_message.o
 .ARM.attributes
                0x00000033       0x33 ./../build/opteemin-programmer-uart-stm32mp157c-ed1/bl2/bl2_arch_setup.o
 .ARM.attributes
                0x00000066       0x33 ./../build/opteemin-programmer-uart-stm32mp157c-ed1/bl2/bl2_image_load_v2.o
 .ARM.attributes
                0x00000099       0x33 ./../build/opteemin-programmer-uart-stm32mp157c-ed1/bl2/bl2_main.o
 .ARM.attributes
                0x000000cc       0x33 ./../build/opteemin-programmer-uart-stm32mp157c-ed1/bl2/bl_common.o
 .ARM.attributes
                0x000000ff       0x33 ./../build/opteemin-programmer-uart-stm32mp157c-ed1/bl2/desc_image_load.o
 .ARM.attributes
                0x00000132       0x33 ./../build/opteemin-programmer-uart-stm32mp157c-ed1/bl2/fdt_wrappers.o
 .ARM.attributes
                0x00000165       0x33 ./../build/opteemin-programmer-uart-stm32mp157c-ed1/bl2/tf_log.o
 .ARM.attributes
                0x00000198       0x33 ./../build/opteemin-programmer-uart-stm32mp157c-ed1/bl2/uuid.o
 .ARM.attributes
                0x000001cb       0x33 ./../build/opteemin-programmer-uart-stm32mp157c-ed1/bl2/tzc400.o
 .ARM.attributes
                0x000001fe       0x33 ./../build/opteemin-programmer-uart-stm32mp157c-ed1/bl2/clk.o
 .ARM.attributes
                0x00000231       0x33 ./../build/opteemin-programmer-uart-stm32mp157c-ed1/bl2/multi_console.o
 .ARM.attributes
                0x00000264       0x33 ./../build/opteemin-programmer-uart-stm32mp157c-ed1/bl2/delay_timer.o
 .ARM.attributes
                0x00000297       0x33 ./../build/opteemin-programmer-uart-stm32mp157c-ed1/bl2/generic_delay_timer.o
 .ARM.attributes
                0x000002ca       0x33 ./../build/opteemin-programmer-uart-stm32mp157c-ed1/bl2/io_fip.o
 .ARM.attributes
                0x000002fd       0x33 ./../build/opteemin-programmer-uart-stm32mp157c-ed1/bl2/io_memmap.o
 .ARM.attributes
                0x00000330       0x33 ./../build/opteemin-programmer-uart-stm32mp157c-ed1/bl2/io_storage.o
 .ARM.attributes
                0x00000363       0x33 ./../build/opteemin-programmer-uart-stm32mp157c-ed1/bl2/bsec2.o
 .ARM.attributes
                0x00000396       0x33 ./../build/opteemin-programmer-uart-stm32mp157c-ed1/bl2/stm32mp1_clk.o
 .ARM.attributes
                0x000003c9       0x33 ./../build/opteemin-programmer-uart-stm32mp157c-ed1/bl2/stm32mp_clkfunc.o
 .ARM.attributes
                0x000003fc       0x33 ./../build/opteemin-programmer-uart-stm32mp157c-ed1/bl2/stm32mp1_ddr.o
 .ARM.attributes
                0x0000042f       0x33 ./../build/opteemin-programmer-uart-stm32mp157c-ed1/bl2/stm32mp1_ddr_helpers.o
 .ARM.attributes
                0x00000462       0x33 ./../build/opteemin-programmer-uart-stm32mp157c-ed1/bl2/stm32mp1_ram.o
 .ARM.attributes
                0x00000495       0x33 ./../build/opteemin-programmer-uart-stm32mp157c-ed1/bl2/stm32mp_ddr.o
 .ARM.attributes
                0x000004c8       0x33 ./../build/opteemin-programmer-uart-stm32mp157c-ed1/bl2/stm32mp_ddr_test.o
 .ARM.attributes
                0x000004fb       0x33 ./../build/opteemin-programmer-uart-stm32mp157c-ed1/bl2/stm32mp_ram.o
 .ARM.attributes
                0x0000052e       0x33 ./../build/opteemin-programmer-uart-stm32mp157c-ed1/bl2/stm32_gpio.o
 .ARM.attributes
                0x00000561       0x33 ./../build/opteemin-programmer-uart-stm32mp157c-ed1/bl2/stm32_i2c.o
 .ARM.attributes
                0x00000594       0x33 ./../build/opteemin-programmer-uart-stm32mp157c-ed1/bl2/stm32_iwdg.o
 .ARM.attributes
                0x000005c7       0x33 ./../build/opteemin-programmer-uart-stm32mp157c-ed1/bl2/nvmem.o
 .ARM.attributes
                0x000005fa       0x33 ./../build/opteemin-programmer-uart-stm32mp157c-ed1/bl2/stm32mp_tamp_nvram_core.o
 .ARM.attributes
                0x0000062d       0x33 ./../build/opteemin-programmer-uart-stm32mp157c-ed1/bl2/stm32mp_tamp_nvram_mp1.o
 .ARM.attributes
                0x00000660       0x33 ./../build/opteemin-programmer-uart-stm32mp157c-ed1/bl2/stm32mp_pmic.o
 .ARM.attributes
                0x00000693       0x33 ./../build/opteemin-programmer-uart-stm32mp157c-ed1/bl2/stpmic1.o
 .ARM.attributes
                0x000006c6       0x33 ./../build/opteemin-programmer-uart-stm32mp157c-ed1/bl2/regulator_core.o
 .ARM.attributes
                0x000006f9       0x33 ./../build/opteemin-programmer-uart-stm32mp157c-ed1/bl2/regulator_fixed.o
 .ARM.attributes
                0x0000072c       0x33 ./../build/opteemin-programmer-uart-stm32mp157c-ed1/bl2/stm32mp1_reset.o
 .ARM.attributes
                0x0000075f       0x33 ./../build/opteemin-programmer-uart-stm32mp157c-ed1/bl2/stm32_uart.o
 .ARM.attributes
                0x00000792       0x33 ./../build/opteemin-programmer-uart-stm32mp157c-ed1/bl2/ctzdi2.o
 .ARM.attributes
                0x000007c5       0x33 ./../build/opteemin-programmer-uart-stm32mp157c-ed1/bl2/udivmoddi4.o
 .ARM.attributes
                0x000007f8       0x33 ./../build/opteemin-programmer-uart-stm32mp157c-ed1/bl2/fconf.o
 .ARM.attributes
                0x0000082b       0x33 ./../build/opteemin-programmer-uart-stm32mp157c-ed1/bl2/fconf_dyn_cfg_getter.o
 .ARM.attributes
                0x0000085e       0x33 ./../build/opteemin-programmer-uart-stm32mp157c-ed1/bl2/optee_utils.o
 .ARM.attributes
                0x00000891       0x33 ./../build/opteemin-programmer-uart-stm32mp157c-ed1/bl2/xlat_tables_arch.o
 .ARM.attributes
                0x000008c4       0x33 ./../build/opteemin-programmer-uart-stm32mp157c-ed1/bl2/xlat_tables_context.o
 .ARM.attributes
                0x000008f7       0x33 ./../build/opteemin-programmer-uart-stm32mp157c-ed1/bl2/xlat_tables_core.o
 .ARM.attributes
                0x0000092a       0x33 ./../build/opteemin-programmer-uart-stm32mp157c-ed1/bl2/xlat_tables_utils.o
 .ARM.attributes
                0x0000095d       0x33 ./../build/opteemin-programmer-uart-stm32mp157c-ed1/bl2/plat_bl_common.o
 .ARM.attributes
                0x00000990       0x33 ./../build/opteemin-programmer-uart-stm32mp157c-ed1/bl2/plat_log_common.o
 .ARM.attributes
                0x000009c3       0x33 ./../build/opteemin-programmer-uart-stm32mp157c-ed1/bl2/bl2_io_storage.o
 .ARM.attributes
                0x000009f6       0x33 ./../build/opteemin-programmer-uart-stm32mp157c-ed1/bl2/plat_image_load.o
 .ARM.attributes
                0x00000a29       0x33 ./../build/opteemin-programmer-uart-stm32mp157c-ed1/bl2/stm32cubeprogrammer_uart.o
 .ARM.attributes
                0x00000a5c       0x33 ./../build/opteemin-programmer-uart-stm32mp157c-ed1/bl2/stm32mp_common.o
 .ARM.attributes
                0x00000a8f       0x33 ./../build/opteemin-programmer-uart-stm32mp157c-ed1/bl2/stm32mp_dt.o
 .ARM.attributes
                0x00000ac2       0x33 ./../build/opteemin-programmer-uart-stm32mp157c-ed1/bl2/stm32mp_fconf_fuse.o
 .ARM.attributes
                0x00000af5       0x33 ./../build/opteemin-programmer-uart-stm32mp157c-ed1/bl2/stm32mp_fconf_io.o
 .ARM.attributes
                0x00000b28       0x33 ./../build/opteemin-programmer-uart-stm32mp157c-ed1/bl2/bl2_plat_setup.o
 .ARM.attributes
                0x00000b5b       0x33 ./../build/opteemin-programmer-uart-stm32mp157c-ed1/bl2/plat_bl2_mem_params_desc.o
 .ARM.attributes
                0x00000b8e       0x33 ./../build/opteemin-programmer-uart-stm32mp157c-ed1/bl2/plat_ddr.o
 .ARM.attributes
                0x00000bc1       0x33 ./../build/opteemin-programmer-uart-stm32mp157c-ed1/bl2/stm32mp1_context.o
 .ARM.attributes
                0x00000bf4       0x33 ./../build/opteemin-programmer-uart-stm32mp157c-ed1/bl2/stm32mp1_critic_power.o
 .ARM.attributes
                0x00000c27       0x33 ./../build/opteemin-programmer-uart-stm32mp157c-ed1/bl2/stm32mp1_dbgmcu.o
 .ARM.attributes
                0x00000c5a       0x33 ./../build/opteemin-programmer-uart-stm32mp157c-ed1/bl2/stm32mp1_fconf_firewall.o
 .ARM.attributes
                0x00000c8d       0x33 ./../build/opteemin-programmer-uart-stm32mp157c-ed1/bl2/stm32mp1_private.o
 .ARM.attributes
                0x00000cc0       0x33 ./../build/opteemin-programmer-uart-stm32mp157c-ed1/bl2/stm32mp1_syscfg.o
 .ARM.attributes
                0x00000cf3       0x27 ./../build/opteemin-programmer-uart-stm32mp157c-ed1/bl2/bl2_el3_entrypoint.o
 .ARM.attributes
                0x00000d1a       0x27 ./../build/opteemin-programmer-uart-stm32mp157c-ed1/bl2/bl2_el3_exceptions.o
 .ARM.attributes
                0x00000d41       0x27 ./../build/opteemin-programmer-uart-stm32mp157c-ed1/bl2/bl2_run_next_image.o
 .ARM.attributes
                0x00000d68       0x27 ./../build/opteemin-programmer-uart-stm32mp157c-ed1/bl2/debug.o
 .ARM.attributes
                0x00000d8f       0x27 ./../build/opteemin-programmer-uart-stm32mp157c-ed1/bl2/stm32_console.o
 .ARM.attributes
                0x00000db6       0x27 ./../build/opteemin-programmer-uart-stm32mp157c-ed1/bl2/cache_helpers.o
 .ARM.attributes
                0x00000ddd       0x27 ./../build/opteemin-programmer-uart-stm32mp157c-ed1/bl2/misc_helpers.o
 .ARM.attributes
                0x00000e04       0x27 ./../build/opteemin-programmer-uart-stm32mp157c-ed1/bl2/aeabi_uldivmod.o
 .ARM.attributes
                0x00000e2b       0x27 ./../build/opteemin-programmer-uart-stm32mp157c-ed1/bl2/cortex_a7.o
 .ARM.attributes
                0x00000e52       0x27 ./../build/opteemin-programmer-uart-stm32mp157c-ed1/bl2/cpu_helpers.o
 .ARM.attributes
                0x00000e79       0x27 ./../build/opteemin-programmer-uart-stm32mp157c-ed1/bl2/spinlock.o
 .ARM.attributes
                0x00000ea0       0x27 ./../build/opteemin-programmer-uart-stm32mp157c-ed1/bl2/enable_mmu.o
 .ARM.attributes
                0x00000ec7       0x27 ./../build/opteemin-programmer-uart-stm32mp157c-ed1/bl2/platform_up_stack.o
 .ARM.attributes
                0x00000eee       0x27 ./../build/opteemin-programmer-uart-stm32mp157c-ed1/bl2/stm32mp1_critic_power_wrapper.o
 .ARM.attributes
                0x00000f15       0x27 ./../build/opteemin-programmer-uart-stm32mp157c-ed1/bl2/stm32mp1_helper.o
 .ARM.attributes
                0x00000f3c       0x33 ./../build/opteemin-programmer-uart-stm32mp157c-ed1/lib/libfdt.a(fdt.o)
 .ARM.attributes
                0x00000f6f       0x33 ./../build/opteemin-programmer-uart-stm32mp157c-ed1/lib/libfdt.a(fdt_addresses.o)
 .ARM.attributes
                0x00000fa2       0x33 ./../build/opteemin-programmer-uart-stm32mp157c-ed1/lib/libfdt.a(fdt_ro.o)
 .ARM.attributes
                0x00000fd5       0x33 ./../build/opteemin-programmer-uart-stm32mp157c-ed1/lib/libc.a(assert.o)
 .ARM.attributes
                0x00001008       0x33 ./../build/opteemin-programmer-uart-stm32mp157c-ed1/lib/libc.a(memchr.o)
 .ARM.attributes
                0x0000103b       0x33 ./../build/opteemin-programmer-uart-stm32mp157c-ed1/lib/libc.a(memcmp.o)
 .ARM.attributes
                0x0000106e       0x33 ./../build/opteemin-programmer-uart-stm32mp157c-ed1/lib/libc.a(memcpy.o)
 .ARM.attributes
                0x000010a1       0x33 ./../build/opteemin-programmer-uart-stm32mp157c-ed1/lib/libc.a(memmove.o)
 .ARM.attributes
                0x000010d4       0x33 ./../build/opteemin-programmer-uart-stm32mp157c-ed1/lib/libc.a(memset.o)
 .ARM.attributes
                0x00001107       0x33 ./../build/opteemin-programmer-uart-stm32mp157c-ed1/lib/libc.a(printf.o)
 .ARM.attributes
                0x0000113a       0x33 ./../build/opteemin-programmer-uart-stm32mp157c-ed1/lib/libc.a(snprintf.o)
 .ARM.attributes
                0x0000116d       0x33 ./../build/opteemin-programmer-uart-stm32mp157c-ed1/lib/libc.a(strchr.o)
 .ARM.attributes
                0x000011a0       0x33 ./../build/opteemin-programmer-uart-stm32mp157c-ed1/lib/libc.a(strcmp.o)
 .ARM.attributes
                0x000011d3       0x33 ./../build/opteemin-programmer-uart-stm32mp157c-ed1/lib/libc.a(strlcpy.o)
 .ARM.attributes
                0x00001206       0x33 ./../build/opteemin-programmer-uart-stm32mp157c-ed1/lib/libc.a(strlen.o)
 .ARM.attributes
                0x00001239       0x33 ./../build/opteemin-programmer-uart-stm32mp157c-ed1/lib/libc.a(strncmp.o)
 .ARM.attributes
                0x0000126c       0x33 ./../build/opteemin-programmer-uart-stm32mp157c-ed1/lib/libc.a(strnlen.o)
 .ARM.attributes
                0x0000129f       0x33 ./../build/opteemin-programmer-uart-stm32mp157c-ed1/lib/libc.a(strrchr.o)

.debug_ranges   0x00000000     0x5038
 .debug_ranges  0x00000000       0x10 ./../build/opteemin-programmer-uart-stm32mp157c-ed1/bl2/bl2_arch_setup.o
 .debug_ranges  0x00000010       0x10 ./../build/opteemin-programmer-uart-stm32mp157c-ed1/bl2/bl2_image_load_v2.o
 .debug_ranges  0x00000020       0x18 ./../build/opteemin-programmer-uart-stm32mp157c-ed1/bl2/bl2_main.o
 .debug_ranges  0x00000038       0x60 ./../build/opteemin-programmer-uart-stm32mp157c-ed1/bl2/bl_common.o
 .debug_ranges  0x00000098       0x60 ./../build/opteemin-programmer-uart-stm32mp157c-ed1/bl2/desc_image_load.o
 .debug_ranges  0x000000f8      0x140 ./../build/opteemin-programmer-uart-stm32mp157c-ed1/bl2/fdt_wrappers.o
 .debug_ranges  0x00000238       0x20 ./../build/opteemin-programmer-uart-stm32mp157c-ed1/bl2/tf_log.o
 .debug_ranges  0x00000258      0x118 ./../build/opteemin-programmer-uart-stm32mp157c-ed1/bl2/uuid.o
 .debug_ranges  0x00000370      0x248 ./../build/opteemin-programmer-uart-stm32mp157c-ed1/bl2/tzc400.o
 .debug_ranges  0x000005b8       0x38 ./../build/opteemin-programmer-uart-stm32mp157c-ed1/bl2/clk.o
 .debug_ranges  0x000005f0       0x78 ./../build/opteemin-programmer-uart-stm32mp157c-ed1/bl2/multi_console.o
 .debug_ranges  0x00000668       0x40 ./../build/opteemin-programmer-uart-stm32mp157c-ed1/bl2/delay_timer.o
 .debug_ranges  0x000006a8       0x38 ./../build/opteemin-programmer-uart-stm32mp157c-ed1/bl2/generic_delay_timer.o
 .debug_ranges  0x000006e0      0x140 ./../build/opteemin-programmer-uart-stm32mp157c-ed1/bl2/io_fip.o
 .debug_ranges  0x00000820       0x88 ./../build/opteemin-programmer-uart-stm32mp157c-ed1/bl2/io_memmap.o
 .debug_ranges  0x000008a8      0x110 ./../build/opteemin-programmer-uart-stm32mp157c-ed1/bl2/io_storage.o
 .debug_ranges  0x000009b8      0x398 ./../build/opteemin-programmer-uart-stm32mp157c-ed1/bl2/bsec2.o
 .debug_ranges  0x00000d50      0xb30 ./../build/opteemin-programmer-uart-stm32mp157c-ed1/bl2/stm32mp1_clk.o
 .debug_ranges  0x00001880      0x108 ./../build/opteemin-programmer-uart-stm32mp157c-ed1/bl2/stm32mp_clkfunc.o
 .debug_ranges  0x00001988      0x450 ./../build/opteemin-programmer-uart-stm32mp157c-ed1/bl2/stm32mp1_ddr.o
 .debug_ranges  0x00001dd8      0x1d8 ./../build/opteemin-programmer-uart-stm32mp157c-ed1/bl2/stm32mp1_ddr_helpers.o
 .debug_ranges  0x00001fb0       0x88 ./../build/opteemin-programmer-uart-stm32mp157c-ed1/bl2/stm32mp1_ram.o
 .debug_ranges  0x00002038      0x1e8 ./../build/opteemin-programmer-uart-stm32mp157c-ed1/bl2/stm32mp_ddr.o
 .debug_ranges  0x00002220      0x120 ./../build/opteemin-programmer-uart-stm32mp157c-ed1/bl2/stm32mp_ddr_test.o
 .debug_ranges  0x00002340       0x18 ./../build/opteemin-programmer-uart-stm32mp157c-ed1/bl2/stm32mp_ram.o
 .debug_ranges  0x00002358      0x260 ./../build/opteemin-programmer-uart-stm32mp157c-ed1/bl2/stm32_gpio.o
 .debug_ranges  0x000025b8      0x790 ./../build/opteemin-programmer-uart-stm32mp157c-ed1/bl2/stm32_i2c.o
 .debug_ranges  0x00002d48      0x108 ./../build/opteemin-programmer-uart-stm32mp157c-ed1/bl2/stm32_iwdg.o
 .debug_ranges  0x00002e50       0x50 ./../build/opteemin-programmer-uart-stm32mp157c-ed1/bl2/nvmem.o
 .debug_ranges  0x00002ea0      0x1d8 ./../build/opteemin-programmer-uart-stm32mp157c-ed1/bl2/stm32mp_tamp_nvram_core.o
 .debug_ranges  0x00003078       0x18 ./../build/opteemin-programmer-uart-stm32mp157c-ed1/bl2/stm32mp_tamp_nvram_mp1.o
 .debug_ranges  0x00003090      0x128 ./../build/opteemin-programmer-uart-stm32mp157c-ed1/bl2/stm32mp_pmic.o
 .debug_ranges  0x000031b8       0xb0 ./../build/opteemin-programmer-uart-stm32mp157c-ed1/bl2/stpmic1.o
 .debug_ranges  0x00003268      0x110 ./../build/opteemin-programmer-uart-stm32mp157c-ed1/bl2/regulator_core.o
 .debug_ranges  0x00003378       0x50 ./../build/opteemin-programmer-uart-stm32mp157c-ed1/bl2/regulator_fixed.o
 .debug_ranges  0x000033c8      0x120 ./../build/opteemin-programmer-uart-stm32mp157c-ed1/bl2/stm32mp1_reset.o
 .debug_ranges  0x000034e8      0x278 ./../build/opteemin-programmer-uart-stm32mp157c-ed1/bl2/stm32_uart.o
 .debug_ranges  0x00003760       0x10 ./../build/opteemin-programmer-uart-stm32mp157c-ed1/bl2/ctzdi2.o
 .debug_ranges  0x00003770       0x28 ./../build/opteemin-programmer-uart-stm32mp157c-ed1/bl2/udivmoddi4.o
 .debug_ranges  0x00003798       0x18 ./../build/opteemin-programmer-uart-stm32mp157c-ed1/bl2/fconf.o
 .debug_ranges  0x000037b0       0x70 ./../build/opteemin-programmer-uart-stm32mp157c-ed1/bl2/fconf_dyn_cfg_getter.o
 .debug_ranges  0x00003820       0x20 ./../build/opteemin-programmer-uart-stm32mp157c-ed1/bl2/optee_utils.o
 .debug_ranges  0x00003840       0xe0 ./../build/opteemin-programmer-uart-stm32mp157c-ed1/bl2/xlat_tables_arch.o
 .debug_ranges  0x00003920       0x68 ./../build/opteemin-programmer-uart-stm32mp157c-ed1/bl2/xlat_tables_context.o
 .debug_ranges  0x00003988      0x2a0 ./../build/opteemin-programmer-uart-stm32mp157c-ed1/bl2/xlat_tables_core.o
 .debug_ranges  0x00003c28      0x100 ./../build/opteemin-programmer-uart-stm32mp157c-ed1/bl2/xlat_tables_utils.o
 .debug_ranges  0x00003d28       0x68 ./../build/opteemin-programmer-uart-stm32mp157c-ed1/bl2/plat_bl_common.o
 .debug_ranges  0x00003d90       0x10 ./../build/opteemin-programmer-uart-stm32mp157c-ed1/bl2/plat_log_common.o
 .debug_ranges  0x00003da0       0x78 ./../build/opteemin-programmer-uart-stm32mp157c-ed1/bl2/bl2_io_storage.o
 .debug_ranges  0x00003e18       0x20 ./../build/opteemin-programmer-uart-stm32mp157c-ed1/bl2/plat_image_load.o
 .debug_ranges  0x00003e38      0x170 ./../build/opteemin-programmer-uart-stm32mp157c-ed1/bl2/stm32cubeprogrammer_uart.o
 .debug_ranges  0x00003fa8      0x198 ./../build/opteemin-programmer-uart-stm32mp157c-ed1/bl2/stm32mp_common.o
 .debug_ranges  0x00004140      0x130 ./../build/opteemin-programmer-uart-stm32mp157c-ed1/bl2/stm32mp_dt.o
 .debug_ranges  0x00004270       0x98 ./../build/opteemin-programmer-uart-stm32mp157c-ed1/bl2/stm32mp_fconf_fuse.o
 .debug_ranges  0x00004308       0x58 ./../build/opteemin-programmer-uart-stm32mp157c-ed1/bl2/stm32mp_fconf_io.o
 .debug_ranges  0x00004360      0x110 ./../build/opteemin-programmer-uart-stm32mp157c-ed1/bl2/bl2_plat_setup.o
 .debug_ranges  0x00004470       0x60 ./../build/opteemin-programmer-uart-stm32mp157c-ed1/bl2/plat_ddr.o
 .debug_ranges  0x000044d0       0x58 ./../build/opteemin-programmer-uart-stm32mp157c-ed1/bl2/stm32mp1_context.o
 .debug_ranges  0x00004528       0x30 ./../build/opteemin-programmer-uart-stm32mp157c-ed1/bl2/stm32mp1_critic_power.o
 .debug_ranges  0x00004558       0x50 ./../build/opteemin-programmer-uart-stm32mp157c-ed1/bl2/stm32mp1_dbgmcu.o
 .debug_ranges  0x000045a8       0x48 ./../build/opteemin-programmer-uart-stm32mp157c-ed1/bl2/stm32mp1_fconf_firewall.o
 .debug_ranges  0x000045f0       0xf0 ./../build/opteemin-programmer-uart-stm32mp157c-ed1/bl2/stm32mp1_private.o
 .debug_ranges  0x000046e0      0x138 ./../build/opteemin-programmer-uart-stm32mp157c-ed1/bl2/stm32mp1_syscfg.o
 .debug_ranges  0x00004818       0x48 ./../build/opteemin-programmer-uart-stm32mp157c-ed1/bl2/debug.o
 .debug_ranges  0x00004860       0x48 ./../build/opteemin-programmer-uart-stm32mp157c-ed1/bl2/stm32_console.o
 .debug_ranges  0x000048a8       0x58 ./../build/opteemin-programmer-uart-stm32mp157c-ed1/bl2/cache_helpers.o
 .debug_ranges  0x00004900       0x40 ./../build/opteemin-programmer-uart-stm32mp157c-ed1/bl2/misc_helpers.o
 .debug_ranges  0x00004940       0x38 ./../build/opteemin-programmer-uart-stm32mp157c-ed1/bl2/cortex_a7.o
 .debug_ranges  0x00004978       0x38 ./../build/opteemin-programmer-uart-stm32mp157c-ed1/bl2/cpu_helpers.o
 .debug_ranges  0x000049b0       0x20 ./../build/opteemin-programmer-uart-stm32mp157c-ed1/bl2/spinlock.o
 .debug_ranges  0x000049d0       0x20 ./../build/opteemin-programmer-uart-stm32mp157c-ed1/bl2/enable_mmu.o
 .debug_ranges  0x000049f0       0x20 ./../build/opteemin-programmer-uart-stm32mp157c-ed1/bl2/platform_up_stack.o
 .debug_ranges  0x00004a10       0x80 ./../build/opteemin-programmer-uart-stm32mp157c-ed1/bl2/stm32mp1_helper.o
 .debug_ranges  0x00004a90      0x108 ./../build/opteemin-programmer-uart-stm32mp157c-ed1/lib/libfdt.a(fdt.o)
 .debug_ranges  0x00004b98       0x28 ./../build/opteemin-programmer-uart-stm32mp157c-ed1/lib/libfdt.a(fdt_addresses.o)
 .debug_ranges  0x00004bc0      0x290 ./../build/opteemin-programmer-uart-stm32mp157c-ed1/lib/libfdt.a(fdt_ro.o)
 .debug_ranges  0x00004e50       0x10 ./../build/opteemin-programmer-uart-stm32mp157c-ed1/lib/libc.a(assert.o)
 .debug_ranges  0x00004e60       0x10 ./../build/opteemin-programmer-uart-stm32mp157c-ed1/lib/libc.a(memchr.o)
 .debug_ranges  0x00004e70       0x10 ./../build/opteemin-programmer-uart-stm32mp157c-ed1/lib/libc.a(memcmp.o)
 .debug_ranges  0x00004e80       0x10 ./../build/opteemin-programmer-uart-stm32mp157c-ed1/lib/libc.a(memcpy.o)
 .debug_ranges  0x00004e90       0x28 ./../build/opteemin-programmer-uart-stm32mp157c-ed1/lib/libc.a(memmove.o)
 .debug_ranges  0x00004eb8       0x10 ./../build/opteemin-programmer-uart-stm32mp157c-ed1/lib/libc.a(memset.o)
 .debug_ranges  0x00004ec8       0xc0 ./../build/opteemin-programmer-uart-stm32mp157c-ed1/lib/libc.a(printf.o)
 .debug_ranges  0x00004f88       0x40 ./../build/opteemin-programmer-uart-stm32mp157c-ed1/lib/libc.a(snprintf.o)
 .debug_ranges  0x00004fc8       0x10 ./../build/opteemin-programmer-uart-stm32mp157c-ed1/lib/libc.a(strchr.o)
 .debug_ranges  0x00004fd8       0x10 ./../build/opteemin-programmer-uart-stm32mp157c-ed1/lib/libc.a(strcmp.o)
 .debug_ranges  0x00004fe8       0x10 ./../build/opteemin-programmer-uart-stm32mp157c-ed1/lib/libc.a(strlcpy.o)
 .debug_ranges  0x00004ff8       0x10 ./../build/opteemin-programmer-uart-stm32mp157c-ed1/lib/libc.a(strlen.o)
 .debug_ranges  0x00005008       0x10 ./../build/opteemin-programmer-uart-stm32mp157c-ed1/lib/libc.a(strncmp.o)
 .debug_ranges  0x00005018       0x10 ./../build/opteemin-programmer-uart-stm32mp157c-ed1/lib/libc.a(strnlen.o)
 .debug_ranges  0x00005028       0x10 ./../build/opteemin-programmer-uart-stm32mp157c-ed1/lib/libc.a(strrchr.o)

.debug_frame    0x00000000     0x48a4
 .debug_frame   0x00000000       0x20 ./../build/opteemin-programmer-uart-stm32mp157c-ed1/bl2/bl2_arch_setup.o
 .debug_frame   0x00000020       0x34 ./../build/opteemin-programmer-uart-stm32mp157c-ed1/bl2/bl2_image_load_v2.o
 .debug_frame   0x00000054       0x48 ./../build/opteemin-programmer-uart-stm32mp157c-ed1/bl2/bl2_main.o
 .debug_frame   0x0000009c       0x78 ./../build/opteemin-programmer-uart-stm32mp157c-ed1/bl2/bl_common.o
 .debug_frame   0x00000114       0xe0 ./../build/opteemin-programmer-uart-stm32mp157c-ed1/bl2/desc_image_load.o
 .debug_frame   0x000001f4      0x294 ./../build/opteemin-programmer-uart-stm32mp157c-ed1/bl2/fdt_wrappers.o
 .debug_frame   0x00000488       0x80 ./../build/opteemin-programmer-uart-stm32mp157c-ed1/bl2/tf_log.o
 .debug_frame   0x00000508       0x98 ./../build/opteemin-programmer-uart-stm32mp157c-ed1/bl2/uuid.o
 .debug_frame   0x000005a0       0xec ./../build/opteemin-programmer-uart-stm32mp157c-ed1/bl2/tzc400.o
 .debug_frame   0x0000068c       0xb4 ./../build/opteemin-programmer-uart-stm32mp157c-ed1/bl2/clk.o
 .debug_frame   0x00000740       0xd4 ./../build/opteemin-programmer-uart-stm32mp157c-ed1/bl2/multi_console.o
 .debug_frame   0x00000814       0x58 ./../build/opteemin-programmer-uart-stm32mp157c-ed1/bl2/delay_timer.o
 .debug_frame   0x0000086c       0x4c ./../build/opteemin-programmer-uart-stm32mp157c-ed1/bl2/generic_delay_timer.o
 .debug_frame   0x000008b8      0x12c ./../build/opteemin-programmer-uart-stm32mp157c-ed1/bl2/io_fip.o
 .debug_frame   0x000009e4      0x10c ./../build/opteemin-programmer-uart-stm32mp157c-ed1/bl2/io_memmap.o
 .debug_frame   0x00000af0      0x1c4 ./../build/opteemin-programmer-uart-stm32mp157c-ed1/bl2/io_storage.o
 .debug_frame   0x00000cb4      0x250 ./../build/opteemin-programmer-uart-stm32mp157c-ed1/bl2/bsec2.o
 .debug_frame   0x00000f04      0x2f0 ./../build/opteemin-programmer-uart-stm32mp157c-ed1/bl2/stm32mp1_clk.o
 .debug_frame   0x000011f4      0x170 ./../build/opteemin-programmer-uart-stm32mp157c-ed1/bl2/stm32mp_clkfunc.o
 .debug_frame   0x00001364       0x98 ./../build/opteemin-programmer-uart-stm32mp157c-ed1/bl2/stm32mp1_ddr.o
 .debug_frame   0x000013fc       0xc0 ./../build/opteemin-programmer-uart-stm32mp157c-ed1/bl2/stm32mp1_ddr_helpers.o
 .debug_frame   0x000014bc       0x7c ./../build/opteemin-programmer-uart-stm32mp157c-ed1/bl2/stm32mp1_ram.o
 .debug_frame   0x00001538      0x130 ./../build/opteemin-programmer-uart-stm32mp157c-ed1/bl2/stm32mp_ddr.o
 .debug_frame   0x00001668       0x68 ./../build/opteemin-programmer-uart-stm32mp157c-ed1/bl2/stm32mp_ddr_test.o
 .debug_frame   0x000016d0       0x58 ./../build/opteemin-programmer-uart-stm32mp157c-ed1/bl2/stm32mp_ram.o
 .debug_frame   0x00001728      0x140 ./../build/opteemin-programmer-uart-stm32mp157c-ed1/bl2/stm32_gpio.o
 .debug_frame   0x00001868      0x1f8 ./../build/opteemin-programmer-uart-stm32mp157c-ed1/bl2/stm32_i2c.o
 .debug_frame   0x00001a60       0x80 ./../build/opteemin-programmer-uart-stm32mp157c-ed1/bl2/stm32_iwdg.o
 .debug_frame   0x00001ae0       0xa4 ./../build/opteemin-programmer-uart-stm32mp157c-ed1/bl2/nvmem.o
 .debug_frame   0x00001b84      0x180 ./../build/opteemin-programmer-uart-stm32mp157c-ed1/bl2/stm32mp_tamp_nvram_core.o
 .debug_frame   0x00001d04       0x30 ./../build/opteemin-programmer-uart-stm32mp157c-ed1/bl2/stm32mp_tamp_nvram_mp1.o
 .debug_frame   0x00001d34      0x160 ./../build/opteemin-programmer-uart-stm32mp157c-ed1/bl2/stm32mp_pmic.o
 .debug_frame   0x00001e94      0x264 ./../build/opteemin-programmer-uart-stm32mp157c-ed1/bl2/stpmic1.o
 .debug_frame   0x000020f8      0x194 ./../build/opteemin-programmer-uart-stm32mp157c-ed1/bl2/regulator_core.o
 .debug_frame   0x0000228c       0x5c ./../build/opteemin-programmer-uart-stm32mp157c-ed1/bl2/regulator_fixed.o
 .debug_frame   0x000022e8       0x70 ./../build/opteemin-programmer-uart-stm32mp157c-ed1/bl2/stm32mp1_reset.o
 .debug_frame   0x00002358       0xb4 ./../build/opteemin-programmer-uart-stm32mp157c-ed1/bl2/stm32_uart.o
 .debug_frame   0x0000240c       0x20 ./../build/opteemin-programmer-uart-stm32mp157c-ed1/bl2/ctzdi2.o
 .debug_frame   0x0000242c       0x30 ./../build/opteemin-programmer-uart-stm32mp157c-ed1/bl2/udivmoddi4.o
 .debug_frame   0x0000245c       0x50 ./../build/opteemin-programmer-uart-stm32mp157c-ed1/bl2/fconf.o
 .debug_frame   0x000024ac       0x88 ./../build/opteemin-programmer-uart-stm32mp157c-ed1/bl2/fconf_dyn_cfg_getter.o
 .debug_frame   0x00002534       0x68 ./../build/opteemin-programmer-uart-stm32mp157c-ed1/bl2/optee_utils.o
 .debug_frame   0x0000259c      0x100 ./../build/opteemin-programmer-uart-stm32mp157c-ed1/bl2/xlat_tables_arch.o
 .debug_frame   0x0000269c      0x138 ./../build/opteemin-programmer-uart-stm32mp157c-ed1/bl2/xlat_tables_context.o
 .debug_frame   0x000027d4      0x258 ./../build/opteemin-programmer-uart-stm32mp157c-ed1/bl2/xlat_tables_core.o
 .debug_frame   0x00002a2c       0xc4 ./../build/opteemin-programmer-uart-stm32mp157c-ed1/bl2/xlat_tables_utils.o
 .debug_frame   0x00002af0       0xf0 ./../build/opteemin-programmer-uart-stm32mp157c-ed1/bl2/plat_bl_common.o
 .debug_frame   0x00002be0       0x20 ./../build/opteemin-programmer-uart-stm32mp157c-ed1/bl2/plat_log_common.o
 .debug_frame   0x00002c00       0xb0 ./../build/opteemin-programmer-uart-stm32mp157c-ed1/bl2/bl2_io_storage.o
 .debug_frame   0x00002cb0       0x48 ./../build/opteemin-programmer-uart-stm32mp157c-ed1/bl2/plat_image_load.o
 .debug_frame   0x00002cf8       0x94 ./../build/opteemin-programmer-uart-stm32mp157c-ed1/bl2/stm32cubeprogrammer_uart.o
 .debug_frame   0x00002d8c      0x340 ./../build/opteemin-programmer-uart-stm32mp157c-ed1/bl2/stm32mp_common.o
 .debug_frame   0x000030cc      0x268 ./../build/opteemin-programmer-uart-stm32mp157c-ed1/bl2/stm32mp_dt.o
 .debug_frame   0x00003334       0x40 ./../build/opteemin-programmer-uart-stm32mp157c-ed1/bl2/stm32mp_fconf_fuse.o
 .debug_frame   0x00003374       0x40 ./../build/opteemin-programmer-uart-stm32mp157c-ed1/bl2/stm32mp_fconf_io.o
 .debug_frame   0x000033b4       0xb8 ./../build/opteemin-programmer-uart-stm32mp157c-ed1/bl2/bl2_plat_setup.o
 .debug_frame   0x0000346c       0x34 ./../build/opteemin-programmer-uart-stm32mp157c-ed1/bl2/plat_ddr.o
 .debug_frame   0x000034a0       0xbc ./../build/opteemin-programmer-uart-stm32mp157c-ed1/bl2/stm32mp1_context.o
 .debug_frame   0x0000355c       0x50 ./../build/opteemin-programmer-uart-stm32mp157c-ed1/bl2/stm32mp1_critic_power.o
 .debug_frame   0x000035ac       0x58 ./../build/opteemin-programmer-uart-stm32mp157c-ed1/bl2/stm32mp1_dbgmcu.o
 .debug_frame   0x00003604       0x8c ./../build/opteemin-programmer-uart-stm32mp157c-ed1/bl2/stm32mp1_fconf_firewall.o
 .debug_frame   0x00003690      0x220 ./../build/opteemin-programmer-uart-stm32mp157c-ed1/bl2/stm32mp1_private.o
 .debug_frame   0x000038b0       0xa8 ./../build/opteemin-programmer-uart-stm32mp157c-ed1/bl2/stm32mp1_syscfg.o
 .debug_frame   0x00003958       0x20 ./../build/opteemin-programmer-uart-stm32mp157c-ed1/bl2/bl2_el3_entrypoint.o
 .debug_frame   0x00003978       0x20 ./../build/opteemin-programmer-uart-stm32mp157c-ed1/bl2/bl2_run_next_image.o
 .debug_frame   0x00003998       0x80 ./../build/opteemin-programmer-uart-stm32mp157c-ed1/bl2/debug.o
 .debug_frame   0x00003a18       0x80 ./../build/opteemin-programmer-uart-stm32mp157c-ed1/bl2/stm32_console.o
 .debug_frame   0x00003a98       0xa0 ./../build/opteemin-programmer-uart-stm32mp157c-ed1/bl2/cache_helpers.o
 .debug_frame   0x00003b38       0x70 ./../build/opteemin-programmer-uart-stm32mp157c-ed1/bl2/misc_helpers.o
 .debug_frame   0x00003ba8       0x60 ./../build/opteemin-programmer-uart-stm32mp157c-ed1/bl2/cortex_a7.o
 .debug_frame   0x00003c08       0x60 ./../build/opteemin-programmer-uart-stm32mp157c-ed1/bl2/cpu_helpers.o
 .debug_frame   0x00003c68       0x30 ./../build/opteemin-programmer-uart-stm32mp157c-ed1/bl2/spinlock.o
 .debug_frame   0x00003c98       0x30 ./../build/opteemin-programmer-uart-stm32mp157c-ed1/bl2/enable_mmu.o
 .debug_frame   0x00003cc8       0x30 ./../build/opteemin-programmer-uart-stm32mp157c-ed1/bl2/platform_up_stack.o
 .debug_frame   0x00003cf8       0x20 ./../build/opteemin-programmer-uart-stm32mp157c-ed1/bl2/stm32mp1_critic_power_wrapper.o
 .debug_frame   0x00003d18       0xf0 ./../build/opteemin-programmer-uart-stm32mp157c-ed1/bl2/stm32mp1_helper.o
 .debug_frame   0x00003e08      0x198 ./../build/opteemin-programmer-uart-stm32mp157c-ed1/lib/libfdt.a(fdt.o)
 .debug_frame   0x00003fa0       0x8c ./../build/opteemin-programmer-uart-stm32mp157c-ed1/lib/libfdt.a(fdt_addresses.o)
 .debug_frame   0x0000402c      0x548 ./../build/opteemin-programmer-uart-stm32mp157c-ed1/lib/libfdt.a(fdt_ro.o)
 .debug_frame   0x00004574       0x28 ./../build/opteemin-programmer-uart-stm32mp157c-ed1/lib/libc.a(assert.o)
 .debug_frame   0x0000459c       0x28 ./../build/opteemin-programmer-uart-stm32mp157c-ed1/lib/libc.a(memchr.o)
 .debug_frame   0x000045c4       0x28 ./../build/opteemin-programmer-uart-stm32mp157c-ed1/lib/libc.a(memcmp.o)
 .debug_frame   0x000045ec       0x28 ./../build/opteemin-programmer-uart-stm32mp157c-ed1/lib/libc.a(memcpy.o)
 .debug_frame   0x00004614       0x3c ./../build/opteemin-programmer-uart-stm32mp157c-ed1/lib/libc.a(memmove.o)
 .debug_frame   0x00004650       0x2c ./../build/opteemin-programmer-uart-stm32mp157c-ed1/lib/libc.a(memset.o)
 .debug_frame   0x0000467c       0x9c ./../build/opteemin-programmer-uart-stm32mp157c-ed1/lib/libc.a(printf.o)
 .debug_frame   0x00004718       0x94 ./../build/opteemin-programmer-uart-stm32mp157c-ed1/lib/libc.a(snprintf.o)
 .debug_frame   0x000047ac       0x20 ./../build/opteemin-programmer-uart-stm32mp157c-ed1/lib/libc.a(strchr.o)
 .debug_frame   0x000047cc       0x20 ./../build/opteemin-programmer-uart-stm32mp157c-ed1/lib/libc.a(strcmp.o)
 .debug_frame   0x000047ec       0x28 ./../build/opteemin-programmer-uart-stm32mp157c-ed1/lib/libc.a(strlcpy.o)
 .debug_frame   0x00004814       0x20 ./../build/opteemin-programmer-uart-stm32mp157c-ed1/lib/libc.a(strlen.o)
 .debug_frame   0x00004834       0x28 ./../build/opteemin-programmer-uart-stm32mp157c-ed1/lib/libc.a(strncmp.o)
 .debug_frame   0x0000485c       0x20 ./../build/opteemin-programmer-uart-stm32mp157c-ed1/lib/libc.a(strnlen.o)
 .debug_frame   0x0000487c       0x28 ./../build/opteemin-programmer-uart-stm32mp157c-ed1/lib/libc.a(strrchr.o)

.debug_loc      0x00000000    0x2ac34
 .debug_loc     0x00000000      0x170 ./../build/opteemin-programmer-uart-stm32mp157c-ed1/bl2/bl2_image_load_v2.o
 .debug_loc     0x00000170       0xdb ./../build/opteemin-programmer-uart-stm32mp157c-ed1/bl2/bl2_main.o
 .debug_loc     0x0000024b      0x276 ./../build/opteemin-programmer-uart-stm32mp157c-ed1/bl2/bl_common.o
 .debug_loc     0x000004c1      0x97b ./../build/opteemin-programmer-uart-stm32mp157c-ed1/bl2/desc_image_load.o
 .debug_loc     0x00000e3c     0x1d21 ./../build/opteemin-programmer-uart-stm32mp157c-ed1/bl2/fdt_wrappers.o
 .debug_loc     0x00002b5d      0x16e ./../build/opteemin-programmer-uart-stm32mp157c-ed1/bl2/tf_log.o
 .debug_loc     0x00002ccb      0x69c ./../build/opteemin-programmer-uart-stm32mp157c-ed1/bl2/uuid.o
 .debug_loc     0x00003367     0x1287 ./../build/opteemin-programmer-uart-stm32mp157c-ed1/bl2/tzc400.o
 .debug_loc     0x000045ee      0x1be ./../build/opteemin-programmer-uart-stm32mp157c-ed1/bl2/clk.o
 .debug_loc     0x000047ac      0x30b ./../build/opteemin-programmer-uart-stm32mp157c-ed1/bl2/multi_console.o
 .debug_loc     0x00004ab7      0x156 ./../build/opteemin-programmer-uart-stm32mp157c-ed1/bl2/delay_timer.o
 .debug_loc     0x00004c0d       0xc5 ./../build/opteemin-programmer-uart-stm32mp157c-ed1/bl2/generic_delay_timer.o
 .debug_loc     0x00004cd2      0xdc9 ./../build/opteemin-programmer-uart-stm32mp157c-ed1/bl2/io_fip.o
 .debug_loc     0x00005a9b      0x9df ./../build/opteemin-programmer-uart-stm32mp157c-ed1/bl2/io_memmap.o
 .debug_loc     0x0000647a     0x114b ./../build/opteemin-programmer-uart-stm32mp157c-ed1/bl2/io_storage.o
 .debug_loc     0x000075c5     0x119d ./../build/opteemin-programmer-uart-stm32mp157c-ed1/bl2/bsec2.o
 .debug_loc     0x00008762     0x56b5 ./../build/opteemin-programmer-uart-stm32mp157c-ed1/bl2/stm32mp1_clk.o
 .debug_loc     0x0000de17      0x789 ./../build/opteemin-programmer-uart-stm32mp157c-ed1/bl2/stm32mp_clkfunc.o
 .debug_loc     0x0000e5a0     0x1e5c ./../build/opteemin-programmer-uart-stm32mp157c-ed1/bl2/stm32mp1_ddr.o
 .debug_loc     0x000103fc     0x2b65 ./../build/opteemin-programmer-uart-stm32mp157c-ed1/bl2/stm32mp1_ddr_helpers.o
 .debug_loc     0x00012f61      0x31d ./../build/opteemin-programmer-uart-stm32mp157c-ed1/bl2/stm32mp1_ram.o
 .debug_loc     0x0001327e     0x1155 ./../build/opteemin-programmer-uart-stm32mp157c-ed1/bl2/stm32mp_ddr.o
 .debug_loc     0x000143d3      0x6f2 ./../build/opteemin-programmer-uart-stm32mp157c-ed1/bl2/stm32mp_ddr_test.o
 .debug_loc     0x00014ac5      0x18f ./../build/opteemin-programmer-uart-stm32mp157c-ed1/bl2/stm32mp_ram.o
 .debug_loc     0x00014c54     0x1361 ./../build/opteemin-programmer-uart-stm32mp157c-ed1/bl2/stm32_gpio.o
 .debug_loc     0x00015fb5     0x3131 ./../build/opteemin-programmer-uart-stm32mp157c-ed1/bl2/stm32_i2c.o
 .debug_loc     0x000190e6      0x57a ./../build/opteemin-programmer-uart-stm32mp157c-ed1/bl2/stm32_iwdg.o
 .debug_loc     0x00019660      0x693 ./../build/opteemin-programmer-uart-stm32mp157c-ed1/bl2/nvmem.o
 .debug_loc     0x00019cf3     0x100b ./../build/opteemin-programmer-uart-stm32mp157c-ed1/bl2/stm32mp_tamp_nvram_core.o
 .debug_loc     0x0001acfe       0x2b ./../build/opteemin-programmer-uart-stm32mp157c-ed1/bl2/stm32mp_tamp_nvram_mp1.o
 .debug_loc     0x0001ad29      0x813 ./../build/opteemin-programmer-uart-stm32mp157c-ed1/bl2/stm32mp_pmic.o
 .debug_loc     0x0001b53c      0x787 ./../build/opteemin-programmer-uart-stm32mp157c-ed1/bl2/stpmic1.o
 .debug_loc     0x0001bcc3      0xb32 ./../build/opteemin-programmer-uart-stm32mp157c-ed1/bl2/regulator_core.o
 .debug_loc     0x0001c7f5      0x1ac ./../build/opteemin-programmer-uart-stm32mp157c-ed1/bl2/regulator_fixed.o
 .debug_loc     0x0001c9a1      0x46a ./../build/opteemin-programmer-uart-stm32mp157c-ed1/bl2/stm32mp1_reset.o
 .debug_loc     0x0001ce0b      0xb52 ./../build/opteemin-programmer-uart-stm32mp157c-ed1/bl2/stm32_uart.o
 .debug_loc     0x0001d95d       0x47 ./../build/opteemin-programmer-uart-stm32mp157c-ed1/bl2/ctzdi2.o
 .debug_loc     0x0001d9a4      0x31d ./../build/opteemin-programmer-uart-stm32mp157c-ed1/bl2/udivmoddi4.o
 .debug_loc     0x0001dcc1      0x123 ./../build/opteemin-programmer-uart-stm32mp157c-ed1/bl2/fconf.o
 .debug_loc     0x0001dde4      0x421 ./../build/opteemin-programmer-uart-stm32mp157c-ed1/bl2/fconf_dyn_cfg_getter.o
 .debug_loc     0x0001e205      0x31d ./../build/opteemin-programmer-uart-stm32mp157c-ed1/bl2/optee_utils.o
 .debug_loc     0x0001e522      0x579 ./../build/opteemin-programmer-uart-stm32mp157c-ed1/bl2/xlat_tables_arch.o
 .debug_loc     0x0001ea9b      0x5f2 ./../build/opteemin-programmer-uart-stm32mp157c-ed1/bl2/xlat_tables_context.o
 .debug_loc     0x0001f08d     0x184f ./../build/opteemin-programmer-uart-stm32mp157c-ed1/bl2/xlat_tables_core.o
 .debug_loc     0x000208dc      0x969 ./../build/opteemin-programmer-uart-stm32mp157c-ed1/bl2/xlat_tables_utils.o
 .debug_loc     0x00021245      0x1e9 ./../build/opteemin-programmer-uart-stm32mp157c-ed1/bl2/plat_bl_common.o
 .debug_loc     0x0002142e       0xa2 ./../build/opteemin-programmer-uart-stm32mp157c-ed1/bl2/plat_log_common.o
 .debug_loc     0x000214d0      0x498 ./../build/opteemin-programmer-uart-stm32mp157c-ed1/bl2/bl2_io_storage.o
 .debug_loc     0x00021968       0x22 ./../build/opteemin-programmer-uart-stm32mp157c-ed1/bl2/plat_image_load.o
 .debug_loc     0x0002198a      0xa8c ./../build/opteemin-programmer-uart-stm32mp157c-ed1/bl2/stm32cubeprogrammer_uart.o
 .debug_loc     0x00022416      0xaf5 ./../build/opteemin-programmer-uart-stm32mp157c-ed1/bl2/stm32mp_common.o
 .debug_loc     0x00022f0b      0xb08 ./../build/opteemin-programmer-uart-stm32mp157c-ed1/bl2/stm32mp_dt.o
 .debug_loc     0x00023a13      0x259 ./../build/opteemin-programmer-uart-stm32mp157c-ed1/bl2/stm32mp_fconf_fuse.o
 .debug_loc     0x00023c6c      0x163 ./../build/opteemin-programmer-uart-stm32mp157c-ed1/bl2/stm32mp_fconf_io.o
 .debug_loc     0x00023dcf      0xa22 ./../build/opteemin-programmer-uart-stm32mp157c-ed1/bl2/bl2_plat_setup.o
 .debug_loc     0x000247f1      0x318 ./../build/opteemin-programmer-uart-stm32mp157c-ed1/bl2/plat_ddr.o
 .debug_loc     0x00024b09       0xe9 ./../build/opteemin-programmer-uart-stm32mp157c-ed1/bl2/stm32mp1_context.o
 .debug_loc     0x00024bf2      0x119 ./../build/opteemin-programmer-uart-stm32mp157c-ed1/bl2/stm32mp1_critic_power.o
 .debug_loc     0x00024d0b      0x127 ./../build/opteemin-programmer-uart-stm32mp157c-ed1/bl2/stm32mp1_dbgmcu.o
 .debug_loc     0x00024e32      0x2c1 ./../build/opteemin-programmer-uart-stm32mp157c-ed1/bl2/stm32mp1_fconf_firewall.o
 .debug_loc     0x000250f3      0x5c6 ./../build/opteemin-programmer-uart-stm32mp157c-ed1/bl2/stm32mp1_private.o
 .debug_loc     0x000256b9      0x5b9 ./../build/opteemin-programmer-uart-stm32mp157c-ed1/bl2/stm32mp1_syscfg.o
 .debug_loc     0x00025c72      0xa24 ./../build/opteemin-programmer-uart-stm32mp157c-ed1/lib/libfdt.a(fdt.o)
 .debug_loc     0x00026696      0x543 ./../build/opteemin-programmer-uart-stm32mp157c-ed1/lib/libfdt.a(fdt_addresses.o)
 .debug_loc     0x00026bd9     0x24e3 ./../build/opteemin-programmer-uart-stm32mp157c-ed1/lib/libfdt.a(fdt_ro.o)
 .debug_loc     0x000290bc       0x70 ./../build/opteemin-programmer-uart-stm32mp157c-ed1/lib/libc.a(assert.o)
 .debug_loc     0x0002912c      0x14c ./../build/opteemin-programmer-uart-stm32mp157c-ed1/lib/libc.a(memchr.o)
 .debug_loc     0x00029278      0x132 ./../build/opteemin-programmer-uart-stm32mp157c-ed1/lib/libc.a(memcmp.o)
 .debug_loc     0x000293aa       0xb4 ./../build/opteemin-programmer-uart-stm32mp157c-ed1/lib/libc.a(memcpy.o)
 .debug_loc     0x0002945e      0x188 ./../build/opteemin-programmer-uart-stm32mp157c-ed1/lib/libc.a(memmove.o)
 .debug_loc     0x000295e6      0x185 ./../build/opteemin-programmer-uart-stm32mp157c-ed1/lib/libc.a(memset.o)
 .debug_loc     0x0002976b      0x918 ./../build/opteemin-programmer-uart-stm32mp157c-ed1/lib/libc.a(printf.o)
 .debug_loc     0x0002a083      0x73f ./../build/opteemin-programmer-uart-stm32mp157c-ed1/lib/libc.a(snprintf.o)
 .debug_loc     0x0002a7c2       0x71 ./../build/opteemin-programmer-uart-stm32mp157c-ed1/lib/libc.a(strchr.o)
 .debug_loc     0x0002a833       0x71 ./../build/opteemin-programmer-uart-stm32mp157c-ed1/lib/libc.a(strcmp.o)
 .debug_loc     0x0002a8a4      0x13e ./../build/opteemin-programmer-uart-stm32mp157c-ed1/lib/libc.a(strlcpy.o)
 .debug_loc     0x0002a9e2       0x4d ./../build/opteemin-programmer-uart-stm32mp157c-ed1/lib/libc.a(strlen.o)
 .debug_loc     0x0002aa2f      0x12e ./../build/opteemin-programmer-uart-stm32mp157c-ed1/lib/libc.a(strncmp.o)
 .debug_loc     0x0002ab5d       0x38 ./../build/opteemin-programmer-uart-stm32mp157c-ed1/lib/libc.a(strnlen.o)
 .debug_loc     0x0002ab95       0x9f ./../build/opteemin-programmer-uart-stm32mp157c-ed1/lib/libc.a(strrchr.o)
