Archive member included to satisfy reference by file (symbol)

./../build/optee-emmc-stm32mp157d-ev1/lib/libfdt.a(fdt.o)
                              ./../build/optee-emmc-stm32mp157d-ev1/bl2/fconf.o (fdt_check_header)
./../build/optee-emmc-stm32mp157d-ev1/lib/libfdt.a(fdt_addresses.o)
                              ./../build/optee-emmc-stm32mp157d-ev1/bl2/fdt_wrappers.o (fdt_address_cells)
./../build/optee-emmc-stm32mp157d-ev1/lib/libfdt.a(fdt_ro.o)
                              ./../build/optee-emmc-stm32mp157d-ev1/bl2/fdt_wrappers.o (fdt_get_name)
./../build/optee-emmc-stm32mp157d-ev1/lib/libfdt.a(fdt_rw.o)
                              ./../build/optee-emmc-stm32mp157d-ev1/lib/libfdt.a(fdt_addresses.o) (fdt_appendprop)
./../build/optee-emmc-stm32mp157d-ev1/lib/libfdt.a(fdt_strerror.o)
                              ./../build/optee-emmc-stm32mp157d-ev1/bl2/fdt_wrappers.o (fdt_strerror)
./../build/optee-emmc-stm32mp157d-ev1/lib/libfdt.a(fdt_wip.o)
                              ./../build/optee-emmc-stm32mp157d-ev1/bl2/fdt_wrappers.o (fdt_setprop_inplace_namelen_partial)
./../build/optee-emmc-stm32mp157d-ev1/lib/libc.a(assert.o)
                              ./../build/optee-emmc-stm32mp157d-ev1/bl2/bl2_image_load_v2.o (__assert)
./../build/optee-emmc-stm32mp157d-ev1/lib/libc.a(memchr.o)
                              ./../build/optee-emmc-stm32mp157d-ev1/lib/libfdt.a(fdt_ro.o) (memchr)
./../build/optee-emmc-stm32mp157d-ev1/lib/libc.a(memcmp.o)
                              ./../build/optee-emmc-stm32mp157d-ev1/bl2/uuid.o (memcmp)
./../build/optee-emmc-stm32mp157d-ev1/lib/libc.a(memcpy.o)
                              ./../build/optee-emmc-stm32mp157d-ev1/bl2/fdt_wrappers.o (memcpy)
./../build/optee-emmc-stm32mp157d-ev1/lib/libc.a(memmove.o)
                              ./../build/optee-emmc-stm32mp157d-ev1/bl2/xlat_tables_core.o (memmove)
./../build/optee-emmc-stm32mp157d-ev1/lib/libc.a(memset.o)
                              ./../build/optee-emmc-stm32mp157d-ev1/bl2/uuid.o (memset)
./../build/optee-emmc-stm32mp157d-ev1/lib/libc.a(printf.o)
                              ./../build/optee-emmc-stm32mp157d-ev1/bl2/tf_log.o (vprintf)
./../build/optee-emmc-stm32mp157d-ev1/lib/libc.a(snprintf.o)
                              ./../build/optee-emmc-stm32mp157d-ev1/bl2/stm32mp1_clk.o (snprintf)
./../build/optee-emmc-stm32mp157d-ev1/lib/libc.a(strchr.o)
                              ./../build/optee-emmc-stm32mp157d-ev1/bl2/fdt_wrappers.o (strchr)
./../build/optee-emmc-stm32mp157d-ev1/lib/libc.a(strcmp.o)
                              ./../build/optee-emmc-stm32mp157d-ev1/bl2/partition.o (strcmp)
./../build/optee-emmc-stm32mp157d-ev1/lib/libc.a(strlcpy.o)
                              ./../build/optee-emmc-stm32mp157d-ev1/bl2/fdt_wrappers.o (strlcpy)
./../build/optee-emmc-stm32mp157d-ev1/lib/libc.a(strlen.o)
                              ./../build/optee-emmc-stm32mp157d-ev1/bl2/fdt_wrappers.o (strlen)
./../build/optee-emmc-stm32mp157d-ev1/lib/libc.a(strncmp.o)
                              ./../build/optee-emmc-stm32mp157d-ev1/bl2/fdt_wrappers.o (strncmp)
./../build/optee-emmc-stm32mp157d-ev1/lib/libc.a(strnlen.o)
                              ./../build/optee-emmc-stm32mp157d-ev1/bl2/uuid.o (strnlen)
./../build/optee-emmc-stm32mp157d-ev1/lib/libc.a(strrchr.o)
                              ./../build/optee-emmc-stm32mp157d-ev1/lib/libfdt.a(fdt_ro.o) (strrchr)

Discarded input sections

 .text          0x00000000        0x0 ./../build/optee-emmc-stm32mp157d-ev1/bl2/build_message.o
 .data          0x00000000        0x0 ./../build/optee-emmc-stm32mp157d-ev1/bl2/build_message.o
 .bss           0x00000000        0x0 ./../build/optee-emmc-stm32mp157d-ev1/bl2/build_message.o
 .rodata.version
                0x00000000        0x8 ./../build/optee-emmc-stm32mp157d-ev1/bl2/build_message.o
 .text          0x00000000        0x0 ./../build/optee-emmc-stm32mp157d-ev1/bl2/bl2_arch_setup.o
 .data          0x00000000        0x0 ./../build/optee-emmc-stm32mp157d-ev1/bl2/bl2_arch_setup.o
 .bss           0x00000000        0x0 ./../build/optee-emmc-stm32mp157d-ev1/bl2/bl2_arch_setup.o
 .text          0x00000000        0x0 ./../build/optee-emmc-stm32mp157d-ev1/bl2/bl2_image_load_v2.o
 .data          0x00000000        0x0 ./../build/optee-emmc-stm32mp157d-ev1/bl2/bl2_image_load_v2.o
 .bss           0x00000000        0x0 ./../build/optee-emmc-stm32mp157d-ev1/bl2/bl2_image_load_v2.o
 .text          0x00000000        0x0 ./../build/optee-emmc-stm32mp157d-ev1/bl2/bl2_main.o
 .data          0x00000000        0x0 ./../build/optee-emmc-stm32mp157d-ev1/bl2/bl2_main.o
 .bss           0x00000000        0x0 ./../build/optee-emmc-stm32mp157d-ev1/bl2/bl2_main.o
 .text          0x00000000        0x0 ./../build/optee-emmc-stm32mp157d-ev1/bl2/bl_common.o
 .data          0x00000000        0x0 ./../build/optee-emmc-stm32mp157d-ev1/bl2/bl_common.o
 .bss           0x00000000        0x0 ./../build/optee-emmc-stm32mp157d-ev1/bl2/bl_common.o
 .text.page_align
                0x00000000       0x14 ./../build/optee-emmc-stm32mp157d-ev1/bl2/bl_common.o
 .text.get_version
                0x00000000        0x8 ./../build/optee-emmc-stm32mp157d-ev1/bl2/bl_common.o
 .text          0x00000000        0x0 ./../build/optee-emmc-stm32mp157d-ev1/bl2/desc_image_load.o
 .data          0x00000000        0x0 ./../build/optee-emmc-stm32mp157d-ev1/bl2/desc_image_load.o
 .bss           0x00000000        0x0 ./../build/optee-emmc-stm32mp157d-ev1/bl2/desc_image_load.o
 .text.bl31_params_parse_helper
                0x00000000       0x98 ./../build/optee-emmc-stm32mp157d-ev1/bl2/desc_image_load.o
 .text          0x00000000        0x0 ./../build/optee-emmc-stm32mp157d-ev1/bl2/fdt_wrappers.o
 .data          0x00000000        0x0 ./../build/optee-emmc-stm32mp157d-ev1/bl2/fdt_wrappers.o
 .bss           0x00000000        0x0 ./../build/optee-emmc-stm32mp157d-ev1/bl2/fdt_wrappers.o
 .text.fdt_read_prop_cells
                0x00000000       0x1e ./../build/optee-emmc-stm32mp157d-ev1/bl2/fdt_wrappers.o
 .text.fdt_read_uint64_default
                0x00000000       0x20 ./../build/optee-emmc-stm32mp157d-ev1/bl2/fdt_wrappers.o
 .text.fdtw_read_bytes
                0x00000000       0x84 ./../build/optee-emmc-stm32mp157d-ev1/bl2/fdt_wrappers.o
 .rodata.fdtw_write_inplace_cells.str1.1
                0x00000000       0x2a ./../build/optee-emmc-stm32mp157d-ev1/bl2/fdt_wrappers.o
 .text.fdtw_write_inplace_cells
                0x00000000       0x70 ./../build/optee-emmc-stm32mp157d-ev1/bl2/fdt_wrappers.o
 .rodata.fdtw_write_inplace_bytes.str1.1
                0x00000000       0x27 ./../build/optee-emmc-stm32mp157d-ev1/bl2/fdt_wrappers.o
 .text.fdtw_write_inplace_bytes
                0x00000000       0xac ./../build/optee-emmc-stm32mp157d-ev1/bl2/fdt_wrappers.o
 .rodata.fdt_get_reg_props_by_index.str1.1
                0x00000000       0x2a ./../build/optee-emmc-stm32mp157d-ev1/bl2/fdt_wrappers.o
 .text.fdt_get_reg_props_by_index
                0x00000000       0xa0 ./../build/optee-emmc-stm32mp157d-ev1/bl2/fdt_wrappers.o
 .rodata.fdt_get_reg_props_by_name.str1.1
                0x00000000        0xa ./../build/optee-emmc-stm32mp157d-ev1/bl2/fdt_wrappers.o
 .text.fdt_get_reg_props_by_name
                0x00000000       0x30 ./../build/optee-emmc-stm32mp157d-ev1/bl2/fdt_wrappers.o
 .rodata.fdtw_translate_address.str1.1
                0x00000000       0x6d ./../build/optee-emmc-stm32mp157d-ev1/bl2/fdt_wrappers.o
 .text.fdtw_translate_address
                0x00000000      0x164 ./../build/optee-emmc-stm32mp157d-ev1/bl2/fdt_wrappers.o
 .rodata.fdtw_for_each_cpu.str1.1
                0x00000000        0xb ./../build/optee-emmc-stm32mp157d-ev1/bl2/fdt_wrappers.o
 .text.fdtw_for_each_cpu
                0x00000000       0x7c ./../build/optee-emmc-stm32mp157d-ev1/bl2/fdt_wrappers.o
 .rodata.fdtw_find_or_add_subnode.str1.1
                0x00000000        0xd ./../build/optee-emmc-stm32mp157d-ev1/bl2/fdt_wrappers.o
 .text.fdtw_find_or_add_subnode
                0x00000000       0x40 ./../build/optee-emmc-stm32mp157d-ev1/bl2/fdt_wrappers.o
 .rodata.__func__.0
                0x00000000       0x19 ./../build/optee-emmc-stm32mp157d-ev1/bl2/fdt_wrappers.o
 .text          0x00000000        0x0 ./../build/optee-emmc-stm32mp157d-ev1/bl2/tf_log.o
 .data          0x00000000        0x0 ./../build/optee-emmc-stm32mp157d-ev1/bl2/tf_log.o
 .bss           0x00000000        0x0 ./../build/optee-emmc-stm32mp157d-ev1/bl2/tf_log.o
 .text.tf_log_newline
                0x00000000       0x3c ./../build/optee-emmc-stm32mp157d-ev1/bl2/tf_log.o
 .text.tf_log_set_max_level
                0x00000000       0x30 ./../build/optee-emmc-stm32mp157d-ev1/bl2/tf_log.o
 .text          0x00000000        0x0 ./../build/optee-emmc-stm32mp157d-ev1/bl2/uuid.o
 .data          0x00000000        0x0 ./../build/optee-emmc-stm32mp157d-ev1/bl2/uuid.o
 .bss           0x00000000        0x0 ./../build/optee-emmc-stm32mp157d-ev1/bl2/uuid.o
 .text.uuid_match
                0x00000000       0x10 ./../build/optee-emmc-stm32mp157d-ev1/bl2/uuid.o
 .text.copy_uuid
                0x00000000       0x12 ./../build/optee-emmc-stm32mp157d-ev1/bl2/uuid.o
 .text.is_null_uuid
                0x00000000       0x20 ./../build/optee-emmc-stm32mp157d-ev1/bl2/uuid.o
 .text          0x00000000        0x0 ./../build/optee-emmc-stm32mp157d-ev1/bl2/tzc400.o
 .data          0x00000000        0x0 ./../build/optee-emmc-stm32mp157d-ev1/bl2/tzc400.o
 .bss           0x00000000        0x0 ./../build/optee-emmc-stm32mp157d-ev1/bl2/tzc400.o
 .rodata.tzc400_it_handler.str1.1
                0x00000000       0x93 ./../build/optee-emmc-stm32mp157d-ev1/bl2/tzc400.o
 .text.tzc400_it_handler
                0x00000000       0xac ./../build/optee-emmc-stm32mp157d-ev1/bl2/tzc400.o
 .text          0x00000000        0x0 ./../build/optee-emmc-stm32mp157d-ev1/bl2/clk.o
 .data          0x00000000        0x0 ./../build/optee-emmc-stm32mp157d-ev1/bl2/clk.o
 .bss           0x00000000        0x0 ./../build/optee-emmc-stm32mp157d-ev1/bl2/clk.o
 .text.clk_get_parent
                0x00000000       0x24 ./../build/optee-emmc-stm32mp157d-ev1/bl2/clk.o
 .text          0x00000000        0x0 ./../build/optee-emmc-stm32mp157d-ev1/bl2/multi_console.o
 .data          0x00000000        0x0 ./../build/optee-emmc-stm32mp157d-ev1/bl2/multi_console.o
 .bss           0x00000000        0x0 ./../build/optee-emmc-stm32mp157d-ev1/bl2/multi_console.o
 .text.console_unregister
                0x00000000       0x2c ./../build/optee-emmc-stm32mp157d-ev1/bl2/multi_console.o
 .text.console_switch_state
                0x00000000        0xc ./../build/optee-emmc-stm32mp157d-ev1/bl2/multi_console.o
 .text          0x00000000        0x0 ./../build/optee-emmc-stm32mp157d-ev1/bl2/delay_timer.o
 .data          0x00000000        0x0 ./../build/optee-emmc-stm32mp157d-ev1/bl2/delay_timer.o
 .bss           0x00000000        0x0 ./../build/optee-emmc-stm32mp157d-ev1/bl2/delay_timer.o
 .text          0x00000000        0x0 ./../build/optee-emmc-stm32mp157d-ev1/bl2/generic_delay_timer.o
 .data          0x00000000        0x0 ./../build/optee-emmc-stm32mp157d-ev1/bl2/generic_delay_timer.o
 .bss           0x00000000        0x0 ./../build/optee-emmc-stm32mp157d-ev1/bl2/generic_delay_timer.o
 .text          0x00000000        0x0 ./../build/optee-emmc-stm32mp157d-ev1/bl2/fwu.o
 .data          0x00000000        0x0 ./../build/optee-emmc-stm32mp157d-ev1/bl2/fwu.o
 .bss           0x00000000        0x0 ./../build/optee-emmc-stm32mp157d-ev1/bl2/fwu.o
 .text.fwu_get_active_bank_state
                0x00000000       0x3c ./../build/optee-emmc-stm32mp157d-ev1/bl2/fwu.o
 .text          0x00000000        0x0 ./../build/optee-emmc-stm32mp157d-ev1/bl2/io_block.o
 .data          0x00000000        0x0 ./../build/optee-emmc-stm32mp157d-ev1/bl2/io_block.o
 .bss           0x00000000        0x0 ./../build/optee-emmc-stm32mp157d-ev1/bl2/io_block.o
 .text          0x00000000        0x0 ./../build/optee-emmc-stm32mp157d-ev1/bl2/io_fip.o
 .data          0x00000000        0x0 ./../build/optee-emmc-stm32mp157d-ev1/bl2/io_fip.o
 .bss           0x00000000        0x0 ./../build/optee-emmc-stm32mp157d-ev1/bl2/io_fip.o
 .text.fip_dev_get_plat_toc_flag
                0x00000000       0x1c ./../build/optee-emmc-stm32mp157d-ev1/bl2/io_fip.o
 .text          0x00000000        0x0 ./../build/optee-emmc-stm32mp157d-ev1/bl2/io_mtd.o
 .data          0x00000000        0x0 ./../build/optee-emmc-stm32mp157d-ev1/bl2/io_mtd.o
 .bss           0x00000000        0x0 ./../build/optee-emmc-stm32mp157d-ev1/bl2/io_mtd.o
 .text.device_type_mtd
                0x00000000        0x4 ./../build/optee-emmc-stm32mp157d-ev1/bl2/io_mtd.o
 .text.mtd_close
                0x00000000        0x8 ./../build/optee-emmc-stm32mp157d-ev1/bl2/io_mtd.o
 .rodata.mtd_read.str1.1
                0x00000000       0x14 ./../build/optee-emmc-stm32mp157d-ev1/bl2/io_mtd.o
 .text.mtd_read
                0x00000000       0x84 ./../build/optee-emmc-stm32mp157d-ev1/bl2/io_mtd.o
 .rodata.mtd_add_extra_offset.constprop.0.str1.1
                0x00000000       0x14 ./../build/optee-emmc-stm32mp157d-ev1/bl2/io_mtd.o
 .text.mtd_add_extra_offset.constprop.0
                0x00000000       0x2c ./../build/optee-emmc-stm32mp157d-ev1/bl2/io_mtd.o
 .text.mtd_open
                0x00000000       0x44 ./../build/optee-emmc-stm32mp157d-ev1/bl2/io_mtd.o
 .text.mtd_seek
                0x00000000       0x84 ./../build/optee-emmc-stm32mp157d-ev1/bl2/io_mtd.o
 .text.mtd_dev_close
                0x00000000       0x3c ./../build/optee-emmc-stm32mp157d-ev1/bl2/io_mtd.o
 .text.mtd_dev_open
                0x00000000       0x4c ./../build/optee-emmc-stm32mp157d-ev1/bl2/io_mtd.o
 .text.register_io_dev_mtd
                0x00000000       0x1c ./../build/optee-emmc-stm32mp157d-ev1/bl2/io_mtd.o
 .rodata.__func__.0
                0x00000000       0x15 ./../build/optee-emmc-stm32mp157d-ev1/bl2/io_mtd.o
 .bss.dev_info_pool
                0x00000000        0x8 ./../build/optee-emmc-stm32mp157d-ev1/bl2/io_mtd.o
 .bss.state_pool
                0x00000000       0x20 ./../build/optee-emmc-stm32mp157d-ev1/bl2/io_mtd.o
 .rodata.mtd_dev_funcs
                0x00000000       0x24 ./../build/optee-emmc-stm32mp157d-ev1/bl2/io_mtd.o
 .rodata.mtd_dev_connector
                0x00000000        0x4 ./../build/optee-emmc-stm32mp157d-ev1/bl2/io_mtd.o
 .debug_info    0x00000000      0xdcc ./../build/optee-emmc-stm32mp157d-ev1/bl2/io_mtd.o
 .debug_abbrev  0x00000000      0x33a ./../build/optee-emmc-stm32mp157d-ev1/bl2/io_mtd.o
 .debug_loc     0x00000000      0xa79 ./../build/optee-emmc-stm32mp157d-ev1/bl2/io_mtd.o
 .debug_aranges
                0x00000000       0x60 ./../build/optee-emmc-stm32mp157d-ev1/bl2/io_mtd.o
 .debug_ranges  0x00000000       0xb8 ./../build/optee-emmc-stm32mp157d-ev1/bl2/io_mtd.o
 .debug_line    0x00000000      0x4f9 ./../build/optee-emmc-stm32mp157d-ev1/bl2/io_mtd.o
 .debug_str     0x00000000      0x622 ./../build/optee-emmc-stm32mp157d-ev1/bl2/io_mtd.o
 .comment       0x00000000       0x13 ./../build/optee-emmc-stm32mp157d-ev1/bl2/io_mtd.o
 .note.GNU-stack
                0x00000000        0x0 ./../build/optee-emmc-stm32mp157d-ev1/bl2/io_mtd.o
 .debug_frame   0x00000000       0xfc ./../build/optee-emmc-stm32mp157d-ev1/bl2/io_mtd.o
 .ARM.attributes
                0x00000000       0x33 ./../build/optee-emmc-stm32mp157d-ev1/bl2/io_mtd.o
 .text          0x00000000        0x0 ./../build/optee-emmc-stm32mp157d-ev1/bl2/io_storage.o
 .data          0x00000000        0x0 ./../build/optee-emmc-stm32mp157d-ev1/bl2/io_storage.o
 .bss           0x00000000        0x0 ./../build/optee-emmc-stm32mp157d-ev1/bl2/io_storage.o
 .text.io_write
                0x00000000       0x48 ./../build/optee-emmc-stm32mp157d-ev1/bl2/io_storage.o
 .text          0x00000000        0x0 ./../build/optee-emmc-stm32mp157d-ev1/bl2/mmc.o
 .data          0x00000000        0x0 ./../build/optee-emmc-stm32mp157d-ev1/bl2/mmc.o
 .bss           0x00000000        0x0 ./../build/optee-emmc-stm32mp157d-ev1/bl2/mmc.o
 .text.mmc_send_part_switch_cmd
                0x00000000       0x44 ./../build/optee-emmc-stm32mp157d-ev1/bl2/mmc.o
 .text.mmc_write_blocks
                0x00000000       0xd0 ./../build/optee-emmc-stm32mp157d-ev1/bl2/mmc.o
 .text.mmc_erase_blocks
                0x00000000       0x6c ./../build/optee-emmc-stm32mp157d-ev1/bl2/mmc.o
 .rodata.mmc_part_switch_current_boot.str1.1
                0x00000000       0x5e ./../build/optee-emmc-stm32mp157d-ev1/bl2/mmc.o
 .text.mmc_part_switch_current_boot
                0x00000000       0x48 ./../build/optee-emmc-stm32mp157d-ev1/bl2/mmc.o
 .rodata.mmc_part_switch_user.str1.1
                0x00000000       0x29 ./../build/optee-emmc-stm32mp157d-ev1/bl2/mmc.o
 .text.mmc_part_switch_user
                0x00000000       0x28 ./../build/optee-emmc-stm32mp157d-ev1/bl2/mmc.o
 .text.mmc_boot_part_size
                0x00000000       0x10 ./../build/optee-emmc-stm32mp157d-ev1/bl2/mmc.o
 .text.mmc_boot_part_read_blocks
                0x00000000       0x2c ./../build/optee-emmc-stm32mp157d-ev1/bl2/mmc.o
 .text          0x00000000        0x0 ./../build/optee-emmc-stm32mp157d-ev1/bl2/gpt.o
 .data          0x00000000        0x0 ./../build/optee-emmc-stm32mp157d-ev1/bl2/gpt.o
 .bss           0x00000000        0x0 ./../build/optee-emmc-stm32mp157d-ev1/bl2/gpt.o
 .text          0x00000000        0x0 ./../build/optee-emmc-stm32mp157d-ev1/bl2/partition.o
 .data          0x00000000        0x0 ./../build/optee-emmc-stm32mp157d-ev1/bl2/partition.o
 .bss           0x00000000        0x0 ./../build/optee-emmc-stm32mp157d-ev1/bl2/partition.o
 .text.get_partition_entry_list
                0x00000000        0x8 ./../build/optee-emmc-stm32mp157d-ev1/bl2/partition.o
 .text.gpt_partition_init
                0x00000000        0x6 ./../build/optee-emmc-stm32mp157d-ev1/bl2/partition.o
 .text          0x00000000        0x0 ./../build/optee-emmc-stm32mp157d-ev1/bl2/bsec2.o
 .data          0x00000000        0x0 ./../build/optee-emmc-stm32mp157d-ev1/bl2/bsec2.o
 .bss           0x00000000        0x0 ./../build/optee-emmc-stm32mp157d-ev1/bl2/bsec2.o
 .text.bsec_permanent_lock_otp
                0x00000000       0x98 ./../build/optee-emmc-stm32mp157d-ev1/bl2/bsec2.o
 .text.bsec_write_scratch
                0x00000000        0xc ./../build/optee-emmc-stm32mp157d-ev1/bl2/bsec2.o
 .text.bsec_set_sr_lock
                0x00000000       0x40 ./../build/optee-emmc-stm32mp157d-ev1/bl2/bsec2.o
 .text.bsec_set_sw_lock
                0x00000000       0x40 ./../build/optee-emmc-stm32mp157d-ev1/bl2/bsec2.o
 .text.bsec_set_sp_lock
                0x00000000       0x40 ./../build/optee-emmc-stm32mp157d-ev1/bl2/bsec2.o
 .text.bsec_get_state
                0x00000000       0x18 ./../build/optee-emmc-stm32mp157d-ev1/bl2/bsec2.o
 .text          0x00000000        0x0 ./../build/optee-emmc-stm32mp157d-ev1/bl2/stm32mp1_clk.o
 .data          0x00000000        0x0 ./../build/optee-emmc-stm32mp157d-ev1/bl2/stm32mp1_clk.o
 .bss           0x00000000        0x0 ./../build/optee-emmc-stm32mp157d-ev1/bl2/stm32mp1_clk.o
 .text.clk_mux_get_parent
                0x00000000       0x3c ./../build/optee-emmc-stm32mp157d-ev1/bl2/stm32mp1_clk.o
 .text.stm32mp1_rcc_is_secure
                0x00000000        0xe ./../build/optee-emmc-stm32mp157d-ev1/bl2/stm32mp1_clk.o
 .text.stm32mp1_rcc_is_mckprot
                0x00000000       0x14 ./../build/optee-emmc-stm32mp157d-ev1/bl2/stm32mp1_clk.o
 .text.stm32mp1_clk_mcuss_protect
                0x00000000       0x1a ./../build/optee-emmc-stm32mp157d-ev1/bl2/stm32mp1_clk.o
 .text          0x00000000        0x0 ./../build/optee-emmc-stm32mp157d-ev1/bl2/stm32mp_clkfunc.o
 .data          0x00000000        0x0 ./../build/optee-emmc-stm32mp157d-ev1/bl2/stm32mp_clkfunc.o
 .bss           0x00000000        0x0 ./../build/optee-emmc-stm32mp157d-ev1/bl2/stm32mp_clkfunc.o
 .rodata.fdt_get_rcc_node.str1.1
                0x00000000       0x10 ./../build/optee-emmc-stm32mp157d-ev1/bl2/stm32mp_clkfunc.o
 .text.fdt_get_rcc_node
                0x00000000       0x24 ./../build/optee-emmc-stm32mp157d-ev1/bl2/stm32mp_clkfunc.o
 .text.fdt_rcc_read_uint32_array
                0x00000000       0x36 ./../build/optee-emmc-stm32mp157d-ev1/bl2/stm32mp_clkfunc.o
 .text.fdt_rcc_subnode_offset
                0x00000000       0x32 ./../build/optee-emmc-stm32mp157d-ev1/bl2/stm32mp_clkfunc.o
 .text.fdt_rcc_read_prop
                0x00000000       0x32 ./../build/optee-emmc-stm32mp157d-ev1/bl2/stm32mp_clkfunc.o
 .rodata.fdt_get_uart_clock_freq.str1.1
                0x00000000       0x10 ./../build/optee-emmc-stm32mp157d-ev1/bl2/stm32mp_clkfunc.o
 .text.fdt_get_uart_clock_freq
                0x00000000       0x30 ./../build/optee-emmc-stm32mp157d-ev1/bl2/stm32mp_clkfunc.o
 .bss.node.0    0x00000000        0x4 ./../build/optee-emmc-stm32mp157d-ev1/bl2/stm32mp_clkfunc.o
 .text          0x00000000        0x0 ./../build/optee-emmc-stm32mp157d-ev1/bl2/stm32_hash.o
 .data          0x00000000        0x0 ./../build/optee-emmc-stm32mp157d-ev1/bl2/stm32_hash.o
 .bss           0x00000000        0x0 ./../build/optee-emmc-stm32mp157d-ev1/bl2/stm32_hash.o
 .rodata.hash_write_data.str1.1
                0x00000000       0x13 ./../build/optee-emmc-stm32mp157d-ev1/bl2/stm32_hash.o
 .text.hash_write_data
                0x00000000       0x64 ./../build/optee-emmc-stm32mp157d-ev1/bl2/stm32_hash.o
 .rodata.stm32_hash_update.str1.1
                0x00000000       0x1f ./../build/optee-emmc-stm32mp157d-ev1/bl2/stm32_hash.o
 .text.stm32_hash_update
                0x00000000       0xb8 ./../build/optee-emmc-stm32mp157d-ev1/bl2/stm32_hash.o
 .text.stm32_hash_final
                0x00000000       0xfc ./../build/optee-emmc-stm32mp157d-ev1/bl2/stm32_hash.o
 .text.stm32_hash_final_update
                0x00000000       0x16 ./../build/optee-emmc-stm32mp157d-ev1/bl2/stm32_hash.o
 .rodata.stm32_hash_init.str1.1
                0x00000000       0x1b ./../build/optee-emmc-stm32mp157d-ev1/bl2/stm32_hash.o
 .text.stm32_hash_init
                0x00000000       0x70 ./../build/optee-emmc-stm32mp157d-ev1/bl2/stm32_hash.o
 .rodata.stm32_hash_register.str1.1
                0x00000000       0x12 ./../build/optee-emmc-stm32mp157d-ev1/bl2/stm32_hash.o
 .text.stm32_hash_register
                0x00000000       0x8c ./../build/optee-emmc-stm32mp157d-ev1/bl2/stm32_hash.o
 .rodata.__func__.0
                0x00000000       0x10 ./../build/optee-emmc-stm32mp157d-ev1/bl2/stm32_hash.o
 .rodata.__func__.1
                0x00000000       0x16 ./../build/optee-emmc-stm32mp157d-ev1/bl2/stm32_hash.o
 .rodata.__func__.2
                0x00000000        0xf ./../build/optee-emmc-stm32mp157d-ev1/bl2/stm32_hash.o
 .bss.stm32_remain
                0x00000000        0x8 ./../build/optee-emmc-stm32mp157d-ev1/bl2/stm32_hash.o
 .bss.stm32_hash
                0x00000000        0xc ./../build/optee-emmc-stm32mp157d-ev1/bl2/stm32_hash.o
 .debug_info    0x00000000     0x1241 ./../build/optee-emmc-stm32mp157d-ev1/bl2/stm32_hash.o
 .debug_abbrev  0x00000000      0x469 ./../build/optee-emmc-stm32mp157d-ev1/bl2/stm32_hash.o
 .debug_loc     0x00000000      0xbad ./../build/optee-emmc-stm32mp157d-ev1/bl2/stm32_hash.o
 .debug_aranges
                0x00000000       0x48 ./../build/optee-emmc-stm32mp157d-ev1/bl2/stm32_hash.o
 .debug_ranges  0x00000000      0x2a0 ./../build/optee-emmc-stm32mp157d-ev1/bl2/stm32_hash.o
 .debug_line    0x00000000      0x8d1 ./../build/optee-emmc-stm32mp157d-ev1/bl2/stm32_hash.o
 .debug_str     0x00000000      0x614 ./../build/optee-emmc-stm32mp157d-ev1/bl2/stm32_hash.o
 .comment       0x00000000       0x13 ./../build/optee-emmc-stm32mp157d-ev1/bl2/stm32_hash.o
 .note.GNU-stack
                0x00000000        0x0 ./../build/optee-emmc-stm32mp157d-ev1/bl2/stm32_hash.o
 .debug_frame   0x00000000       0xf0 ./../build/optee-emmc-stm32mp157d-ev1/bl2/stm32_hash.o
 .ARM.attributes
                0x00000000       0x33 ./../build/optee-emmc-stm32mp157d-ev1/bl2/stm32_hash.o
 .text          0x00000000        0x0 ./../build/optee-emmc-stm32mp157d-ev1/bl2/stm32mp1_ddr.o
 .data          0x00000000        0x0 ./../build/optee-emmc-stm32mp157d-ev1/bl2/stm32mp1_ddr.o
 .bss           0x00000000        0x0 ./../build/optee-emmc-stm32mp157d-ev1/bl2/stm32mp1_ddr.o
 .text          0x00000000        0x0 ./../build/optee-emmc-stm32mp157d-ev1/bl2/stm32mp1_ddr_helpers.o
 .data          0x00000000        0x0 ./../build/optee-emmc-stm32mp157d-ev1/bl2/stm32mp1_ddr_helpers.o
 .bss           0x00000000        0x0 ./../build/optee-emmc-stm32mp157d-ev1/bl2/stm32mp1_ddr_helpers.o
 .text          0x00000000        0x0 ./../build/optee-emmc-stm32mp157d-ev1/bl2/stm32mp1_ram.o
 .data          0x00000000        0x0 ./../build/optee-emmc-stm32mp157d-ev1/bl2/stm32mp1_ram.o
 .bss           0x00000000        0x0 ./../build/optee-emmc-stm32mp157d-ev1/bl2/stm32mp1_ram.o
 .text          0x00000000        0x0 ./../build/optee-emmc-stm32mp157d-ev1/bl2/stm32mp_ddr.o
 .data          0x00000000        0x0 ./../build/optee-emmc-stm32mp157d-ev1/bl2/stm32mp_ddr.o
 .bss           0x00000000        0x0 ./../build/optee-emmc-stm32mp157d-ev1/bl2/stm32mp_ddr.o
 .text          0x00000000        0x0 ./../build/optee-emmc-stm32mp157d-ev1/bl2/stm32mp_ddr_test.o
 .data          0x00000000        0x0 ./../build/optee-emmc-stm32mp157d-ev1/bl2/stm32mp_ddr_test.o
 .bss           0x00000000        0x0 ./../build/optee-emmc-stm32mp157d-ev1/bl2/stm32mp_ddr_test.o
 .text          0x00000000        0x0 ./../build/optee-emmc-stm32mp157d-ev1/bl2/stm32mp_ram.o
 .data          0x00000000        0x0 ./../build/optee-emmc-stm32mp157d-ev1/bl2/stm32mp_ram.o
 .bss           0x00000000        0x0 ./../build/optee-emmc-stm32mp157d-ev1/bl2/stm32mp_ram.o
 .text          0x00000000        0x0 ./../build/optee-emmc-stm32mp157d-ev1/bl2/stm32_gpio.o
 .data          0x00000000        0x0 ./../build/optee-emmc-stm32mp157d-ev1/bl2/stm32_gpio.o
 .bss           0x00000000        0x0 ./../build/optee-emmc-stm32mp157d-ev1/bl2/stm32_gpio.o
 .text.set_gpio_secure_cfg
                0x00000000       0x4c ./../build/optee-emmc-stm32mp157d-ev1/bl2/stm32_gpio.o
 .text.set_gpio_reset_cfg
                0x00000000       0x2e ./../build/optee-emmc-stm32mp157d-ev1/bl2/stm32_gpio.o
 .text.set_gpio_level
                0x00000000       0x48 ./../build/optee-emmc-stm32mp157d-ev1/bl2/stm32_gpio.o
 .text.get_gpio_level
                0x00000000       0x40 ./../build/optee-emmc-stm32mp157d-ev1/bl2/stm32_gpio.o
 .text.set_gpio_config
                0x00000000       0x30 ./../build/optee-emmc-stm32mp157d-ev1/bl2/stm32_gpio.o
 .text          0x00000000        0x0 ./../build/optee-emmc-stm32mp157d-ev1/bl2/stm32_i2c.o
 .data          0x00000000        0x0 ./../build/optee-emmc-stm32mp157d-ev1/bl2/stm32_i2c.o
 .bss           0x00000000        0x0 ./../build/optee-emmc-stm32mp157d-ev1/bl2/stm32_i2c.o
 .text.stm32_i2c_master_transmit
                0x00000000       0x18 ./../build/optee-emmc-stm32mp157d-ev1/bl2/stm32_i2c.o
 .text.stm32_i2c_master_receive
                0x00000000       0x14 ./../build/optee-emmc-stm32mp157d-ev1/bl2/stm32_i2c.o
 .text          0x00000000        0x0 ./../build/optee-emmc-stm32mp157d-ev1/bl2/stm32_iwdg.o
 .data          0x00000000        0x0 ./../build/optee-emmc-stm32mp157d-ev1/bl2/stm32_iwdg.o
 .bss           0x00000000        0x0 ./../build/optee-emmc-stm32mp157d-ev1/bl2/stm32_iwdg.o
 .text          0x00000000        0x0 ./../build/optee-emmc-stm32mp157d-ev1/bl2/stm32_sdmmc2.o
 .data          0x00000000        0x0 ./../build/optee-emmc-stm32mp157d-ev1/bl2/stm32_sdmmc2.o
 .bss           0x00000000        0x0 ./../build/optee-emmc-stm32mp157d-ev1/bl2/stm32_sdmmc2.o
 .text.stm32_sdmmc2_mmc_get_device_size
                0x00000000       0x10 ./../build/optee-emmc-stm32mp157d-ev1/bl2/stm32_sdmmc2.o
 .text          0x00000000        0x0 ./../build/optee-emmc-stm32mp157d-ev1/bl2/nvmem.o
 .data          0x00000000        0x0 ./../build/optee-emmc-stm32mp157d-ev1/bl2/nvmem.o
 .bss           0x00000000        0x0 ./../build/optee-emmc-stm32mp157d-ev1/bl2/nvmem.o
 .text          0x00000000        0x0 ./../build/optee-emmc-stm32mp157d-ev1/bl2/stm32mp_tamp_nvram_core.o
 .data          0x00000000        0x0 ./../build/optee-emmc-stm32mp157d-ev1/bl2/stm32mp_tamp_nvram_core.o
 .bss           0x00000000        0x0 ./../build/optee-emmc-stm32mp157d-ev1/bl2/stm32mp_tamp_nvram_core.o
 .text.stm32_tamp_nvram_reg_field_write
                0x00000000       0x72 ./../build/optee-emmc-stm32mp157d-ev1/bl2/stm32mp_tamp_nvram_core.o
 .text          0x00000000        0x0 ./../build/optee-emmc-stm32mp157d-ev1/bl2/stm32mp_tamp_nvram_mp1.o
 .data          0x00000000        0x0 ./../build/optee-emmc-stm32mp157d-ev1/bl2/stm32mp_tamp_nvram_mp1.o
 .bss           0x00000000        0x0 ./../build/optee-emmc-stm32mp157d-ev1/bl2/stm32mp_tamp_nvram_mp1.o
 .text          0x00000000        0x0 ./../build/optee-emmc-stm32mp157d-ev1/bl2/stm32mp_pmic.o
 .data          0x00000000        0x0 ./../build/optee-emmc-stm32mp157d-ev1/bl2/stm32mp_pmic.o
 .bss           0x00000000        0x0 ./../build/optee-emmc-stm32mp157d-ev1/bl2/stm32mp_pmic.o
 .text          0x00000000        0x0 ./../build/optee-emmc-stm32mp157d-ev1/bl2/stpmic1.o
 .data          0x00000000        0x0 ./../build/optee-emmc-stm32mp157d-ev1/bl2/stpmic1.o
 .bss           0x00000000        0x0 ./../build/optee-emmc-stm32mp157d-ev1/bl2/stpmic1.o
 .text.stpmic1_dump_regulators
                0x00000000        0x2 ./../build/optee-emmc-stm32mp157d-ev1/bl2/stpmic1.o
 .text          0x00000000        0x0 ./../build/optee-emmc-stm32mp157d-ev1/bl2/regulator_core.o
 .data          0x00000000        0x0 ./../build/optee-emmc-stm32mp157d-ev1/bl2/regulator_core.o
 .bss           0x00000000        0x0 ./../build/optee-emmc-stm32mp157d-ev1/bl2/regulator_core.o
 .text.regulator_get_by_name
                0x00000000       0x48 ./../build/optee-emmc-stm32mp157d-ev1/bl2/regulator_core.o
 .rodata.regulator_is_enabled.str1.1
                0x00000000       0x24 ./../build/optee-emmc-stm32mp157d-ev1/bl2/regulator_core.o
 .text.regulator_is_enabled
                0x00000000       0x4c ./../build/optee-emmc-stm32mp157d-ev1/bl2/regulator_core.o
 .rodata.regulator_set_flag.str1.1
                0x00000000       0x3d ./../build/optee-emmc-stm32mp157d-ev1/bl2/regulator_core.o
 .text.regulator_set_flag
                0x00000000       0x78 ./../build/optee-emmc-stm32mp157d-ev1/bl2/regulator_core.o
 .rodata.__func__.1
                0x00000000       0x16 ./../build/optee-emmc-stm32mp157d-ev1/bl2/regulator_core.o
 .text          0x00000000        0x0 ./../build/optee-emmc-stm32mp157d-ev1/bl2/regulator_fixed.o
 .data          0x00000000        0x0 ./../build/optee-emmc-stm32mp157d-ev1/bl2/regulator_fixed.o
 .bss           0x00000000        0x0 ./../build/optee-emmc-stm32mp157d-ev1/bl2/regulator_fixed.o
 .text          0x00000000        0x0 ./../build/optee-emmc-stm32mp157d-ev1/bl2/regulator_gpio.o
 .data          0x00000000        0x0 ./../build/optee-emmc-stm32mp157d-ev1/bl2/regulator_gpio.o
 .bss           0x00000000        0x0 ./../build/optee-emmc-stm32mp157d-ev1/bl2/regulator_gpio.o
 .rodata.gpio_regulator_register.str1.1
                0x00000000       0x63 ./../build/optee-emmc-stm32mp157d-ev1/bl2/regulator_gpio.o
 .text.gpio_regulator_register
                0x00000000       0x44 ./../build/optee-emmc-stm32mp157d-ev1/bl2/regulator_gpio.o
 .debug_info    0x00000000      0x6dd ./../build/optee-emmc-stm32mp157d-ev1/bl2/regulator_gpio.o
 .debug_abbrev  0x00000000      0x21f ./../build/optee-emmc-stm32mp157d-ev1/bl2/regulator_gpio.o
 .debug_loc     0x00000000       0x58 ./../build/optee-emmc-stm32mp157d-ev1/bl2/regulator_gpio.o
 .debug_aranges
                0x00000000       0x20 ./../build/optee-emmc-stm32mp157d-ev1/bl2/regulator_gpio.o
 .debug_ranges  0x00000000       0x10 ./../build/optee-emmc-stm32mp157d-ev1/bl2/regulator_gpio.o
 .debug_line    0x00000000      0x1d8 ./../build/optee-emmc-stm32mp157d-ev1/bl2/regulator_gpio.o
 .debug_str     0x00000000      0x4e3 ./../build/optee-emmc-stm32mp157d-ev1/bl2/regulator_gpio.o
 .comment       0x00000000       0x13 ./../build/optee-emmc-stm32mp157d-ev1/bl2/regulator_gpio.o
 .note.GNU-stack
                0x00000000        0x0 ./../build/optee-emmc-stm32mp157d-ev1/bl2/regulator_gpio.o
 .debug_frame   0x00000000       0x2c ./../build/optee-emmc-stm32mp157d-ev1/bl2/regulator_gpio.o
 .ARM.attributes
                0x00000000       0x33 ./../build/optee-emmc-stm32mp157d-ev1/bl2/regulator_gpio.o
 .text          0x00000000        0x0 ./../build/optee-emmc-stm32mp157d-ev1/bl2/stm32mp1_reset.o
 .data          0x00000000        0x0 ./../build/optee-emmc-stm32mp157d-ev1/bl2/stm32mp1_reset.o
 .bss           0x00000000        0x0 ./../build/optee-emmc-stm32mp157d-ev1/bl2/stm32mp1_reset.o
 .text          0x00000000        0x0 ./../build/optee-emmc-stm32mp157d-ev1/bl2/ctzdi2.o
 .data          0x00000000        0x0 ./../build/optee-emmc-stm32mp157d-ev1/bl2/ctzdi2.o
 .bss           0x00000000        0x0 ./../build/optee-emmc-stm32mp157d-ev1/bl2/ctzdi2.o
 .text          0x00000000        0x0 ./../build/optee-emmc-stm32mp157d-ev1/bl2/divdi3.o
 .data          0x00000000        0x0 ./../build/optee-emmc-stm32mp157d-ev1/bl2/divdi3.o
 .bss           0x00000000        0x0 ./../build/optee-emmc-stm32mp157d-ev1/bl2/divdi3.o
 .text.__divdi3
                0x00000000       0x3e ./../build/optee-emmc-stm32mp157d-ev1/bl2/divdi3.o
 .debug_info    0x00000000      0x1f2 ./../build/optee-emmc-stm32mp157d-ev1/bl2/divdi3.o
 .debug_abbrev  0x00000000      0x124 ./../build/optee-emmc-stm32mp157d-ev1/bl2/divdi3.o
 .debug_loc     0x00000000       0xd2 ./../build/optee-emmc-stm32mp157d-ev1/bl2/divdi3.o
 .debug_aranges
                0x00000000       0x20 ./../build/optee-emmc-stm32mp157d-ev1/bl2/divdi3.o
 .debug_ranges  0x00000000       0x28 ./../build/optee-emmc-stm32mp157d-ev1/bl2/divdi3.o
 .debug_line    0x00000000      0x10e ./../build/optee-emmc-stm32mp157d-ev1/bl2/divdi3.o
 .debug_str     0x00000000      0x24b ./../build/optee-emmc-stm32mp157d-ev1/bl2/divdi3.o
 .comment       0x00000000       0x13 ./../build/optee-emmc-stm32mp157d-ev1/bl2/divdi3.o
 .note.GNU-stack
                0x00000000        0x0 ./../build/optee-emmc-stm32mp157d-ev1/bl2/divdi3.o
 .debug_frame   0x00000000       0x30 ./../build/optee-emmc-stm32mp157d-ev1/bl2/divdi3.o
 .ARM.attributes
                0x00000000       0x33 ./../build/optee-emmc-stm32mp157d-ev1/bl2/divdi3.o
 .text          0x00000000        0x0 ./../build/optee-emmc-stm32mp157d-ev1/bl2/divmoddi4.o
 .data          0x00000000        0x0 ./../build/optee-emmc-stm32mp157d-ev1/bl2/divmoddi4.o
 .bss           0x00000000        0x0 ./../build/optee-emmc-stm32mp157d-ev1/bl2/divmoddi4.o
 .text.__divmoddi4
                0x00000000       0x54 ./../build/optee-emmc-stm32mp157d-ev1/bl2/divmoddi4.o
 .debug_info    0x00000000      0x19b ./../build/optee-emmc-stm32mp157d-ev1/bl2/divmoddi4.o
 .debug_abbrev  0x00000000      0x106 ./../build/optee-emmc-stm32mp157d-ev1/bl2/divmoddi4.o
 .debug_loc     0x00000000       0x8c ./../build/optee-emmc-stm32mp157d-ev1/bl2/divmoddi4.o
 .debug_aranges
                0x00000000       0x20 ./../build/optee-emmc-stm32mp157d-ev1/bl2/divmoddi4.o
 .debug_ranges  0x00000000       0x10 ./../build/optee-emmc-stm32mp157d-ev1/bl2/divmoddi4.o
 .debug_line    0x00000000      0x10b ./../build/optee-emmc-stm32mp157d-ev1/bl2/divmoddi4.o
 .debug_str     0x00000000      0x259 ./../build/optee-emmc-stm32mp157d-ev1/bl2/divmoddi4.o
 .comment       0x00000000       0x13 ./../build/optee-emmc-stm32mp157d-ev1/bl2/divmoddi4.o
 .note.GNU-stack
                0x00000000        0x0 ./../build/optee-emmc-stm32mp157d-ev1/bl2/divmoddi4.o
 .debug_frame   0x00000000       0x34 ./../build/optee-emmc-stm32mp157d-ev1/bl2/divmoddi4.o
 .ARM.attributes
                0x00000000       0x33 ./../build/optee-emmc-stm32mp157d-ev1/bl2/divmoddi4.o
 .text          0x00000000        0x0 ./../build/optee-emmc-stm32mp157d-ev1/bl2/lshrdi3.o
 .data          0x00000000        0x0 ./../build/optee-emmc-stm32mp157d-ev1/bl2/lshrdi3.o
 .bss           0x00000000        0x0 ./../build/optee-emmc-stm32mp157d-ev1/bl2/lshrdi3.o
 .text.__lshrdi3
                0x00000000       0x26 ./../build/optee-emmc-stm32mp157d-ev1/bl2/lshrdi3.o
 .debug_info    0x00000000      0x18c ./../build/optee-emmc-stm32mp157d-ev1/bl2/lshrdi3.o
 .debug_abbrev  0x00000000       0xdf ./../build/optee-emmc-stm32mp157d-ev1/bl2/lshrdi3.o
 .debug_loc     0x00000000       0x97 ./../build/optee-emmc-stm32mp157d-ev1/bl2/lshrdi3.o
 .debug_aranges
                0x00000000       0x20 ./../build/optee-emmc-stm32mp157d-ev1/bl2/lshrdi3.o
 .debug_ranges  0x00000000       0x10 ./../build/optee-emmc-stm32mp157d-ev1/bl2/lshrdi3.o
 .debug_line    0x00000000       0xf2 ./../build/optee-emmc-stm32mp157d-ev1/bl2/lshrdi3.o
 .debug_str     0x00000000      0x26e ./../build/optee-emmc-stm32mp157d-ev1/bl2/lshrdi3.o
 .comment       0x00000000       0x13 ./../build/optee-emmc-stm32mp157d-ev1/bl2/lshrdi3.o
 .note.GNU-stack
                0x00000000        0x0 ./../build/optee-emmc-stm32mp157d-ev1/bl2/lshrdi3.o
 .debug_frame   0x00000000       0x28 ./../build/optee-emmc-stm32mp157d-ev1/bl2/lshrdi3.o
 .ARM.attributes
                0x00000000       0x33 ./../build/optee-emmc-stm32mp157d-ev1/bl2/lshrdi3.o
 .text          0x00000000        0x0 ./../build/optee-emmc-stm32mp157d-ev1/bl2/popcountdi2.o
 .data          0x00000000        0x0 ./../build/optee-emmc-stm32mp157d-ev1/bl2/popcountdi2.o
 .bss           0x00000000        0x0 ./../build/optee-emmc-stm32mp157d-ev1/bl2/popcountdi2.o
 .text.__popcountdi2
                0x00000000       0x52 ./../build/optee-emmc-stm32mp157d-ev1/bl2/popcountdi2.o
 .debug_info    0x00000000      0x125 ./../build/optee-emmc-stm32mp157d-ev1/bl2/popcountdi2.o
 .debug_abbrev  0x00000000       0x7d ./../build/optee-emmc-stm32mp157d-ev1/bl2/popcountdi2.o
 .debug_loc     0x00000000       0xa3 ./../build/optee-emmc-stm32mp157d-ev1/bl2/popcountdi2.o
 .debug_aranges
                0x00000000       0x20 ./../build/optee-emmc-stm32mp157d-ev1/bl2/popcountdi2.o
 .debug_ranges  0x00000000       0x10 ./../build/optee-emmc-stm32mp157d-ev1/bl2/popcountdi2.o
 .debug_line    0x00000000      0x109 ./../build/optee-emmc-stm32mp157d-ev1/bl2/popcountdi2.o
 .debug_str     0x00000000      0x24f ./../build/optee-emmc-stm32mp157d-ev1/bl2/popcountdi2.o
 .comment       0x00000000       0x13 ./../build/optee-emmc-stm32mp157d-ev1/bl2/popcountdi2.o
 .note.GNU-stack
                0x00000000        0x0 ./../build/optee-emmc-stm32mp157d-ev1/bl2/popcountdi2.o
 .debug_frame   0x00000000       0x20 ./../build/optee-emmc-stm32mp157d-ev1/bl2/popcountdi2.o
 .ARM.attributes
                0x00000000       0x33 ./../build/optee-emmc-stm32mp157d-ev1/bl2/popcountdi2.o
 .text          0x00000000        0x0 ./../build/optee-emmc-stm32mp157d-ev1/bl2/popcountsi2.o
 .data          0x00000000        0x0 ./../build/optee-emmc-stm32mp157d-ev1/bl2/popcountsi2.o
 .bss           0x00000000        0x0 ./../build/optee-emmc-stm32mp157d-ev1/bl2/popcountsi2.o
 .text.__popcountsi2
                0x00000000       0x2a ./../build/optee-emmc-stm32mp157d-ev1/bl2/popcountsi2.o
 .debug_info    0x00000000       0xfa ./../build/optee-emmc-stm32mp157d-ev1/bl2/popcountsi2.o
 .debug_abbrev  0x00000000       0x7d ./../build/optee-emmc-stm32mp157d-ev1/bl2/popcountsi2.o
 .debug_loc     0x00000000      0x17c ./../build/optee-emmc-stm32mp157d-ev1/bl2/popcountsi2.o
 .debug_aranges
                0x00000000       0x20 ./../build/optee-emmc-stm32mp157d-ev1/bl2/popcountsi2.o
 .debug_ranges  0x00000000       0x10 ./../build/optee-emmc-stm32mp157d-ev1/bl2/popcountsi2.o
 .debug_line    0x00000000       0xc1 ./../build/optee-emmc-stm32mp157d-ev1/bl2/popcountsi2.o
 .debug_str     0x00000000      0x23f ./../build/optee-emmc-stm32mp157d-ev1/bl2/popcountsi2.o
 .comment       0x00000000       0x13 ./../build/optee-emmc-stm32mp157d-ev1/bl2/popcountsi2.o
 .note.GNU-stack
                0x00000000        0x0 ./../build/optee-emmc-stm32mp157d-ev1/bl2/popcountsi2.o
 .debug_frame   0x00000000       0x20 ./../build/optee-emmc-stm32mp157d-ev1/bl2/popcountsi2.o
 .ARM.attributes
                0x00000000       0x33 ./../build/optee-emmc-stm32mp157d-ev1/bl2/popcountsi2.o
 .text          0x00000000        0x0 ./../build/optee-emmc-stm32mp157d-ev1/bl2/udivmoddi4.o
 .data          0x00000000        0x0 ./../build/optee-emmc-stm32mp157d-ev1/bl2/udivmoddi4.o
 .bss           0x00000000        0x0 ./../build/optee-emmc-stm32mp157d-ev1/bl2/udivmoddi4.o
 .text          0x00000000        0x0 ./../build/optee-emmc-stm32mp157d-ev1/bl2/pmuv3.o
 .data          0x00000000        0x0 ./../build/optee-emmc-stm32mp157d-ev1/bl2/pmuv3.o
 .bss           0x00000000        0x0 ./../build/optee-emmc-stm32mp157d-ev1/bl2/pmuv3.o
 .text.pmuv3_init_el3
                0x00000000       0x1e ./../build/optee-emmc-stm32mp157d-ev1/bl2/pmuv3.o
 .debug_info    0x00000000      0x1e9 ./../build/optee-emmc-stm32mp157d-ev1/bl2/pmuv3.o
 .debug_abbrev  0x00000000      0x14f ./../build/optee-emmc-stm32mp157d-ev1/bl2/pmuv3.o
 .debug_loc     0x00000000       0xba ./../build/optee-emmc-stm32mp157d-ev1/bl2/pmuv3.o
 .debug_aranges
                0x00000000       0x20 ./../build/optee-emmc-stm32mp157d-ev1/bl2/pmuv3.o
 .debug_ranges  0x00000000       0x40 ./../build/optee-emmc-stm32mp157d-ev1/bl2/pmuv3.o
 .debug_line    0x00000000      0x11b ./../build/optee-emmc-stm32mp157d-ev1/bl2/pmuv3.o
 .debug_str     0x00000000      0x258 ./../build/optee-emmc-stm32mp157d-ev1/bl2/pmuv3.o
 .comment       0x00000000       0x13 ./../build/optee-emmc-stm32mp157d-ev1/bl2/pmuv3.o
 .note.GNU-stack
                0x00000000        0x0 ./../build/optee-emmc-stm32mp157d-ev1/bl2/pmuv3.o
 .debug_frame   0x00000000       0x20 ./../build/optee-emmc-stm32mp157d-ev1/bl2/pmuv3.o
 .ARM.attributes
                0x00000000       0x33 ./../build/optee-emmc-stm32mp157d-ev1/bl2/pmuv3.o
 .text          0x00000000        0x0 ./../build/optee-emmc-stm32mp157d-ev1/bl2/fconf.o
 .data          0x00000000        0x0 ./../build/optee-emmc-stm32mp157d-ev1/bl2/fconf.o
 .bss           0x00000000        0x0 ./../build/optee-emmc-stm32mp157d-ev1/bl2/fconf.o
 .text.fconf_load_config
                0x00000000       0x60 ./../build/optee-emmc-stm32mp157d-ev1/bl2/fconf.o
 .text          0x00000000        0x0 ./../build/optee-emmc-stm32mp157d-ev1/bl2/fconf_dyn_cfg_getter.o
 .data          0x00000000        0x0 ./../build/optee-emmc-stm32mp157d-ev1/bl2/fconf_dyn_cfg_getter.o
 .bss           0x00000000        0x0 ./../build/optee-emmc-stm32mp157d-ev1/bl2/fconf_dyn_cfg_getter.o
 .text          0x00000000        0x0 ./../build/optee-emmc-stm32mp157d-ev1/bl2/optee_utils.o
 .data          0x00000000        0x0 ./../build/optee-emmc-stm32mp157d-ev1/bl2/optee_utils.o
 .bss           0x00000000        0x0 ./../build/optee-emmc-stm32mp157d-ev1/bl2/optee_utils.o
 .text          0x00000000        0x0 ./../build/optee-emmc-stm32mp157d-ev1/bl2/xlat_tables_arch.o
 .data          0x00000000        0x0 ./../build/optee-emmc-stm32mp157d-ev1/bl2/xlat_tables_arch.o
 .bss           0x00000000        0x0 ./../build/optee-emmc-stm32mp157d-ev1/bl2/xlat_tables_arch.o
 .text.xlat_arch_is_granule_size_supported
                0x00000000        0xa ./../build/optee-emmc-stm32mp157d-ev1/bl2/xlat_tables_arch.o
 .text.xlat_arch_get_max_supported_granule_size
                0x00000000        0x6 ./../build/optee-emmc-stm32mp157d-ev1/bl2/xlat_tables_arch.o
 .text          0x00000000        0x0 ./../build/optee-emmc-stm32mp157d-ev1/bl2/xlat_tables_context.o
 .data          0x00000000        0x0 ./../build/optee-emmc-stm32mp157d-ev1/bl2/xlat_tables_context.o
 .bss           0x00000000        0x0 ./../build/optee-emmc-stm32mp157d-ev1/bl2/xlat_tables_context.o
 .text.mmap_add_region_alloc_va
                0x00000000       0x30 ./../build/optee-emmc-stm32mp157d-ev1/bl2/xlat_tables_context.o
 .text.mmap_add_alloc_va
                0x00000000       0x2c ./../build/optee-emmc-stm32mp157d-ev1/bl2/xlat_tables_context.o
 .text.mmap_add_dynamic_region_alloc_va
                0x00000000       0x30 ./../build/optee-emmc-stm32mp157d-ev1/bl2/xlat_tables_context.o
 .text.xlat_get_mem_attributes
                0x00000000       0x10 ./../build/optee-emmc-stm32mp157d-ev1/bl2/xlat_tables_context.o
 .text.xlat_change_mem_attributes
                0x00000000       0x10 ./../build/optee-emmc-stm32mp157d-ev1/bl2/xlat_tables_context.o
 .text.enable_mmu_hyp
                0x00000000       0x34 ./../build/optee-emmc-stm32mp157d-ev1/bl2/xlat_tables_context.o
 .text          0x00000000        0x0 ./../build/optee-emmc-stm32mp157d-ev1/bl2/xlat_tables_core.o
 .data          0x00000000        0x0 ./../build/optee-emmc-stm32mp157d-ev1/bl2/xlat_tables_core.o
 .bss           0x00000000        0x0 ./../build/optee-emmc-stm32mp157d-ev1/bl2/xlat_tables_core.o
 .text.mmap_alloc_va_align_ctx.isra.0
                0x00000000       0x32 ./../build/optee-emmc-stm32mp157d-ev1/bl2/xlat_tables_core.o
 .text.mmap_add_region_alloc_va_ctx
                0x00000000       0x38 ./../build/optee-emmc-stm32mp157d-ev1/bl2/xlat_tables_core.o
 .text.mmap_add_dynamic_region_alloc_va_ctx
                0x00000000       0x2a ./../build/optee-emmc-stm32mp157d-ev1/bl2/xlat_tables_core.o
 .text.xlat_setup_dynamic_ctx
                0x00000000       0x62 ./../build/optee-emmc-stm32mp157d-ev1/bl2/xlat_tables_core.o
 .text          0x00000000        0x0 ./../build/optee-emmc-stm32mp157d-ev1/bl2/xlat_tables_utils.o
 .data          0x00000000        0x0 ./../build/optee-emmc-stm32mp157d-ev1/bl2/xlat_tables_utils.o
 .bss           0x00000000        0x0 ./../build/optee-emmc-stm32mp157d-ev1/bl2/xlat_tables_utils.o
 .rodata.find_xlat_table_entry.str1.1
                0x00000000       0x53 ./../build/optee-emmc-stm32mp157d-ev1/bl2/xlat_tables_utils.o
 .text.find_xlat_table_entry
                0x00000000       0x8c ./../build/optee-emmc-stm32mp157d-ev1/bl2/xlat_tables_utils.o
 .rodata.xlat_get_mem_attributes_internal.str1.1
                0x00000000       0x1f ./../build/optee-emmc-stm32mp157d-ev1/bl2/xlat_tables_utils.o
 .text.xlat_get_mem_attributes_internal
                0x00000000      0x118 ./../build/optee-emmc-stm32mp157d-ev1/bl2/xlat_tables_utils.o
 .text.xlat_get_mem_attributes_ctx
                0x00000000       0x12 ./../build/optee-emmc-stm32mp157d-ev1/bl2/xlat_tables_utils.o
 .rodata.xlat_change_mem_attributes_ctx.str1.1
                0x00000000      0x152 ./../build/optee-emmc-stm32mp157d-ev1/bl2/xlat_tables_utils.o
 .text.xlat_change_mem_attributes_ctx
                0x00000000      0x194 ./../build/optee-emmc-stm32mp157d-ev1/bl2/xlat_tables_utils.o
 .rodata.__func__.0
                0x00000000       0x1f ./../build/optee-emmc-stm32mp157d-ev1/bl2/xlat_tables_utils.o
 .text          0x00000000        0x0 ./../build/optee-emmc-stm32mp157d-ev1/bl2/adler32.o
 .data          0x00000000        0x0 ./../build/optee-emmc-stm32mp157d-ev1/bl2/adler32.o
 .bss           0x00000000        0x0 ./../build/optee-emmc-stm32mp157d-ev1/bl2/adler32.o
 .text.adler32_combine_
                0x00000000       0x70 ./../build/optee-emmc-stm32mp157d-ev1/bl2/adler32.o
 .text.adler32_z
                0x00000000      0x226 ./../build/optee-emmc-stm32mp157d-ev1/bl2/adler32.o
 .text.adler32  0x00000000        0x4 ./../build/optee-emmc-stm32mp157d-ev1/bl2/adler32.o
 .text.adler32_combine
                0x00000000        0x4 ./../build/optee-emmc-stm32mp157d-ev1/bl2/adler32.o
 .text.adler32_combine64
                0x00000000        0x4 ./../build/optee-emmc-stm32mp157d-ev1/bl2/adler32.o
 .debug_info    0x00000000      0x314 ./../build/optee-emmc-stm32mp157d-ev1/bl2/adler32.o
 .debug_abbrev  0x00000000      0x153 ./../build/optee-emmc-stm32mp157d-ev1/bl2/adler32.o
 .debug_loc     0x00000000      0x991 ./../build/optee-emmc-stm32mp157d-ev1/bl2/adler32.o
 .debug_aranges
                0x00000000       0x40 ./../build/optee-emmc-stm32mp157d-ev1/bl2/adler32.o
 .debug_ranges  0x00000000       0x30 ./../build/optee-emmc-stm32mp157d-ev1/bl2/adler32.o
 .debug_line    0x00000000      0x352 ./../build/optee-emmc-stm32mp157d-ev1/bl2/adler32.o
 .debug_str     0x00000000      0x228 ./../build/optee-emmc-stm32mp157d-ev1/bl2/adler32.o
 .comment       0x00000000       0x13 ./../build/optee-emmc-stm32mp157d-ev1/bl2/adler32.o
 .note.GNU-stack
                0x00000000        0x0 ./../build/optee-emmc-stm32mp157d-ev1/bl2/adler32.o
 .debug_frame   0x00000000       0x8c ./../build/optee-emmc-stm32mp157d-ev1/bl2/adler32.o
 .ARM.attributes
                0x00000000       0x33 ./../build/optee-emmc-stm32mp157d-ev1/bl2/adler32.o
 .text          0x00000000        0x0 ./../build/optee-emmc-stm32mp157d-ev1/bl2/crc32.o
 .data          0x00000000        0x0 ./../build/optee-emmc-stm32mp157d-ev1/bl2/crc32.o
 .bss           0x00000000        0x0 ./../build/optee-emmc-stm32mp157d-ev1/bl2/crc32.o
 .text.multmodp
                0x00000000       0x2c ./../build/optee-emmc-stm32mp157d-ev1/bl2/crc32.o
 .text.x2nmodp.constprop.0
                0x00000000       0x2c ./../build/optee-emmc-stm32mp157d-ev1/bl2/crc32.o
 .text.get_crc_table
                0x00000000        0x8 ./../build/optee-emmc-stm32mp157d-ev1/bl2/crc32.o
 .text.crc32_combine64
                0x00000000       0x16 ./../build/optee-emmc-stm32mp157d-ev1/bl2/crc32.o
 .text.crc32_combine
                0x00000000        0x4 ./../build/optee-emmc-stm32mp157d-ev1/bl2/crc32.o
 .text.crc32_combine_gen64
                0x00000000        0x4 ./../build/optee-emmc-stm32mp157d-ev1/bl2/crc32.o
 .text.crc32_combine_gen
                0x00000000        0x4 ./../build/optee-emmc-stm32mp157d-ev1/bl2/crc32.o
 .text.crc32_combine_op
                0x00000000       0x10 ./../build/optee-emmc-stm32mp157d-ev1/bl2/crc32.o
 .rodata.x2n_table
                0x00000000       0x80 ./../build/optee-emmc-stm32mp157d-ev1/bl2/crc32.o
 .text          0x00000000        0x0 ./../build/optee-emmc-stm32mp157d-ev1/bl2/inffast.o
 .data          0x00000000        0x0 ./../build/optee-emmc-stm32mp157d-ev1/bl2/inffast.o
 .bss           0x00000000        0x0 ./../build/optee-emmc-stm32mp157d-ev1/bl2/inffast.o
 .rodata.inflate_fast.str1.1
                0x00000000       0x50 ./../build/optee-emmc-stm32mp157d-ev1/bl2/inffast.o
 .text.inflate_fast
                0x00000000      0x36c ./../build/optee-emmc-stm32mp157d-ev1/bl2/inffast.o
 .debug_info    0x00000000      0x80e ./../build/optee-emmc-stm32mp157d-ev1/bl2/inffast.o
 .debug_abbrev  0x00000000      0x196 ./../build/optee-emmc-stm32mp157d-ev1/bl2/inffast.o
 .debug_loc     0x00000000      0x8e2 ./../build/optee-emmc-stm32mp157d-ev1/bl2/inffast.o
 .debug_aranges
                0x00000000       0x20 ./../build/optee-emmc-stm32mp157d-ev1/bl2/inffast.o
 .debug_ranges  0x00000000       0x10 ./../build/optee-emmc-stm32mp157d-ev1/bl2/inffast.o
 .debug_line    0x00000000      0x5db ./../build/optee-emmc-stm32mp157d-ev1/bl2/inffast.o
 .debug_str     0x00000000      0x4a9 ./../build/optee-emmc-stm32mp157d-ev1/bl2/inffast.o
 .comment       0x00000000       0x13 ./../build/optee-emmc-stm32mp157d-ev1/bl2/inffast.o
 .note.GNU-stack
                0x00000000        0x0 ./../build/optee-emmc-stm32mp157d-ev1/bl2/inffast.o
 .debug_frame   0x00000000       0x40 ./../build/optee-emmc-stm32mp157d-ev1/bl2/inffast.o
 .ARM.attributes
                0x00000000       0x33 ./../build/optee-emmc-stm32mp157d-ev1/bl2/inffast.o
 .text          0x00000000        0x0 ./../build/optee-emmc-stm32mp157d-ev1/bl2/inflate.o
 .data          0x00000000        0x0 ./../build/optee-emmc-stm32mp157d-ev1/bl2/inflate.o
 .bss           0x00000000        0x0 ./../build/optee-emmc-stm32mp157d-ev1/bl2/inflate.o
 .text.syncsearch
                0x00000000       0x34 ./../build/optee-emmc-stm32mp157d-ev1/bl2/inflate.o
 .text.updatewindow
                0x00000000       0x9c ./../build/optee-emmc-stm32mp157d-ev1/bl2/inflate.o
 .text.inflateStateCheck
                0x00000000       0x2a ./../build/optee-emmc-stm32mp157d-ev1/bl2/inflate.o
 .text.inflateResetKeep
                0x00000000       0x5c ./../build/optee-emmc-stm32mp157d-ev1/bl2/inflate.o
 .text.inflateReset
                0x00000000       0x22 ./../build/optee-emmc-stm32mp157d-ev1/bl2/inflate.o
 .text.inflateReset2
                0x00000000       0x5c ./../build/optee-emmc-stm32mp157d-ev1/bl2/inflate.o
 .text.inflateInit2_
                0x00000000       0x6c ./../build/optee-emmc-stm32mp157d-ev1/bl2/inflate.o
 .text.inflateInit_
                0x00000000        0xa ./../build/optee-emmc-stm32mp157d-ev1/bl2/inflate.o
 .text.inflatePrime
                0x00000000       0x42 ./../build/optee-emmc-stm32mp157d-ev1/bl2/inflate.o
 .rodata.inflate.str1.1
                0x00000000      0x1cd ./../build/optee-emmc-stm32mp157d-ev1/bl2/inflate.o
 .text.inflate  0x00000000      0xe28 ./../build/optee-emmc-stm32mp157d-ev1/bl2/inflate.o
 .text.inflateEnd
                0x00000000       0x2e ./../build/optee-emmc-stm32mp157d-ev1/bl2/inflate.o
 .text.inflateGetDictionary
                0x00000000       0x44 ./../build/optee-emmc-stm32mp157d-ev1/bl2/inflate.o
 .text.inflateSetDictionary
                0x00000000       0x64 ./../build/optee-emmc-stm32mp157d-ev1/bl2/inflate.o
 .text.inflateGetHeader
                0x00000000       0x1e ./../build/optee-emmc-stm32mp157d-ev1/bl2/inflate.o
 .text.inflateSync
                0x00000000       0xc6 ./../build/optee-emmc-stm32mp157d-ev1/bl2/inflate.o
 .text.inflateSyncPoint
                0x00000000       0x26 ./../build/optee-emmc-stm32mp157d-ev1/bl2/inflate.o
 .text.inflateCopy
                0x00000000       0xba ./../build/optee-emmc-stm32mp157d-ev1/bl2/inflate.o
 .text.inflateUndermine
                0x00000000       0x22 ./../build/optee-emmc-stm32mp157d-ev1/bl2/inflate.o
 .text.inflateValidate
                0x00000000       0x26 ./../build/optee-emmc-stm32mp157d-ev1/bl2/inflate.o
 .text.inflateMark
                0x00000000       0x44 ./../build/optee-emmc-stm32mp157d-ev1/bl2/inflate.o
 .text.inflateCodesUsed
                0x00000000       0x1e ./../build/optee-emmc-stm32mp157d-ev1/bl2/inflate.o
 .rodata.distfix.0
                0x00000000       0x80 ./../build/optee-emmc-stm32mp157d-ev1/bl2/inflate.o
 .rodata.lenfix.1
                0x00000000      0x800 ./../build/optee-emmc-stm32mp157d-ev1/bl2/inflate.o
 .rodata.order.2
                0x00000000       0x26 ./../build/optee-emmc-stm32mp157d-ev1/bl2/inflate.o
 .debug_info    0x00000000     0x1789 ./../build/optee-emmc-stm32mp157d-ev1/bl2/inflate.o
 .debug_abbrev  0x00000000      0x41c ./../build/optee-emmc-stm32mp157d-ev1/bl2/inflate.o
 .debug_loc     0x00000000     0x2101 ./../build/optee-emmc-stm32mp157d-ev1/bl2/inflate.o
 .debug_aranges
                0x00000000       0xc0 ./../build/optee-emmc-stm32mp157d-ev1/bl2/inflate.o
 .debug_ranges  0x00000000       0xb0 ./../build/optee-emmc-stm32mp157d-ev1/bl2/inflate.o
 .debug_line    0x00000000     0x2173 ./../build/optee-emmc-stm32mp157d-ev1/bl2/inflate.o
 .debug_str     0x00000000      0x68e ./../build/optee-emmc-stm32mp157d-ev1/bl2/inflate.o
 .comment       0x00000000       0x13 ./../build/optee-emmc-stm32mp157d-ev1/bl2/inflate.o
 .note.GNU-stack
                0x00000000        0x0 ./../build/optee-emmc-stm32mp157d-ev1/bl2/inflate.o
 .debug_frame   0x00000000      0x278 ./../build/optee-emmc-stm32mp157d-ev1/bl2/inflate.o
 .ARM.attributes
                0x00000000       0x33 ./../build/optee-emmc-stm32mp157d-ev1/bl2/inflate.o
 .text          0x00000000        0x0 ./../build/optee-emmc-stm32mp157d-ev1/bl2/inftrees.o
 .data          0x00000000        0x0 ./../build/optee-emmc-stm32mp157d-ev1/bl2/inftrees.o
 .bss           0x00000000        0x0 ./../build/optee-emmc-stm32mp157d-ev1/bl2/inftrees.o
 .text.inflate_table
                0x00000000      0x304 ./../build/optee-emmc-stm32mp157d-ev1/bl2/inftrees.o
 .rodata.dext.0
                0x00000000       0x40 ./../build/optee-emmc-stm32mp157d-ev1/bl2/inftrees.o
 .rodata.dbase.1
                0x00000000       0x40 ./../build/optee-emmc-stm32mp157d-ev1/bl2/inftrees.o
 .rodata.lext.2
                0x00000000       0x3e ./../build/optee-emmc-stm32mp157d-ev1/bl2/inftrees.o
 .rodata.lbase.3
                0x00000000       0x3e ./../build/optee-emmc-stm32mp157d-ev1/bl2/inftrees.o
 .rodata.inflate_copyright
                0x00000000       0x2d ./../build/optee-emmc-stm32mp157d-ev1/bl2/inftrees.o
 .debug_info    0x00000000      0x3c0 ./../build/optee-emmc-stm32mp157d-ev1/bl2/inftrees.o
 .debug_abbrev  0x00000000      0x126 ./../build/optee-emmc-stm32mp157d-ev1/bl2/inftrees.o
 .debug_loc     0x00000000      0x779 ./../build/optee-emmc-stm32mp157d-ev1/bl2/inftrees.o
 .debug_aranges
                0x00000000       0x20 ./../build/optee-emmc-stm32mp157d-ev1/bl2/inftrees.o
 .debug_ranges  0x00000000       0x10 ./../build/optee-emmc-stm32mp157d-ev1/bl2/inftrees.o
 .debug_line    0x00000000      0x498 ./../build/optee-emmc-stm32mp157d-ev1/bl2/inftrees.o
 .debug_str     0x00000000      0x261 ./../build/optee-emmc-stm32mp157d-ev1/bl2/inftrees.o
 .comment       0x00000000       0x13 ./../build/optee-emmc-stm32mp157d-ev1/bl2/inftrees.o
 .note.GNU-stack
                0x00000000        0x0 ./../build/optee-emmc-stm32mp157d-ev1/bl2/inftrees.o
 .debug_frame   0x00000000       0x40 ./../build/optee-emmc-stm32mp157d-ev1/bl2/inftrees.o
 .ARM.attributes
                0x00000000       0x33 ./../build/optee-emmc-stm32mp157d-ev1/bl2/inftrees.o
 .text          0x00000000        0x0 ./../build/optee-emmc-stm32mp157d-ev1/bl2/tf_gunzip.o
 .data          0x00000000        0x0 ./../build/optee-emmc-stm32mp157d-ev1/bl2/tf_gunzip.o
 .bss           0x00000000        0x0 ./../build/optee-emmc-stm32mp157d-ev1/bl2/tf_gunzip.o
 .text.zfree    0x00000000        0x2 ./../build/optee-emmc-stm32mp157d-ev1/bl2/tf_gunzip.o
 .text.zcalloc  0x00000000       0x34 ./../build/optee-emmc-stm32mp157d-ev1/bl2/tf_gunzip.o
 .rodata.gunzip.str1.1
                0x00000000       0x52 ./../build/optee-emmc-stm32mp157d-ev1/bl2/tf_gunzip.o
 .text.gunzip   0x00000000       0xb0 ./../build/optee-emmc-stm32mp157d-ev1/bl2/tf_gunzip.o
 .bss.zalloc_current
                0x00000000        0x4 ./../build/optee-emmc-stm32mp157d-ev1/bl2/tf_gunzip.o
 .bss.zalloc_end
                0x00000000        0x4 ./../build/optee-emmc-stm32mp157d-ev1/bl2/tf_gunzip.o
 .text          0x00000000        0x0 ./../build/optee-emmc-stm32mp157d-ev1/bl2/zutil.o
 .data          0x00000000        0x0 ./../build/optee-emmc-stm32mp157d-ev1/bl2/zutil.o
 .bss           0x00000000        0x0 ./../build/optee-emmc-stm32mp157d-ev1/bl2/zutil.o
 .rodata.zlibVersion.str1.1
                0x00000000        0x4 ./../build/optee-emmc-stm32mp157d-ev1/bl2/zutil.o
 .text.zlibVersion
                0x00000000        0x8 ./../build/optee-emmc-stm32mp157d-ev1/bl2/zutil.o
 .text.zlibCompileFlags
                0x00000000        0x4 ./../build/optee-emmc-stm32mp157d-ev1/bl2/zutil.o
 .text.zError   0x00000000       0x10 ./../build/optee-emmc-stm32mp157d-ev1/bl2/zutil.o
 .text.zmemcpy  0x00000000       0x14 ./../build/optee-emmc-stm32mp157d-ev1/bl2/zutil.o
 .text.zmemcmp  0x00000000       0x24 ./../build/optee-emmc-stm32mp157d-ev1/bl2/zutil.o
 .text.zmemzero
                0x00000000       0x10 ./../build/optee-emmc-stm32mp157d-ev1/bl2/zutil.o
 .rodata.str1.1
                0x00000000       0x75 ./../build/optee-emmc-stm32mp157d-ev1/bl2/zutil.o
 .rodata.z_errmsg
                0x00000000       0x28 ./../build/optee-emmc-stm32mp157d-ev1/bl2/zutil.o
 .debug_info    0x00000000      0x242 ./../build/optee-emmc-stm32mp157d-ev1/bl2/zutil.o
 .debug_abbrev  0x00000000      0x134 ./../build/optee-emmc-stm32mp157d-ev1/bl2/zutil.o
 .debug_loc     0x00000000      0x1f1 ./../build/optee-emmc-stm32mp157d-ev1/bl2/zutil.o
 .debug_aranges
                0x00000000       0x48 ./../build/optee-emmc-stm32mp157d-ev1/bl2/zutil.o
 .debug_ranges  0x00000000       0x38 ./../build/optee-emmc-stm32mp157d-ev1/bl2/zutil.o
 .debug_line    0x00000000      0x1a0 ./../build/optee-emmc-stm32mp157d-ev1/bl2/zutil.o
 .debug_str     0x00000000      0x204 ./../build/optee-emmc-stm32mp157d-ev1/bl2/zutil.o
 .comment       0x00000000       0x13 ./../build/optee-emmc-stm32mp157d-ev1/bl2/zutil.o
 .note.GNU-stack
                0x00000000        0x0 ./../build/optee-emmc-stm32mp157d-ev1/bl2/zutil.o
 .debug_frame   0x00000000       0x7c ./../build/optee-emmc-stm32mp157d-ev1/bl2/zutil.o
 .ARM.attributes
                0x00000000       0x33 ./../build/optee-emmc-stm32mp157d-ev1/bl2/zutil.o
 .text          0x00000000        0x0 ./../build/optee-emmc-stm32mp157d-ev1/bl2/plat_common.o
 .data          0x00000000        0x0 ./../build/optee-emmc-stm32mp157d-ev1/bl2/plat_common.o
 .bss           0x00000000        0x0 ./../build/optee-emmc-stm32mp157d-ev1/bl2/plat_common.o
 .text.bl32_plat_enable_mmu
                0x00000000        0x4 ./../build/optee-emmc-stm32mp157d-ev1/bl2/plat_common.o
 .debug_info    0x00000000      0x110 ./../build/optee-emmc-stm32mp157d-ev1/bl2/plat_common.o
 .debug_abbrev  0x00000000       0xb3 ./../build/optee-emmc-stm32mp157d-ev1/bl2/plat_common.o
 .debug_loc     0x00000000       0x2b ./../build/optee-emmc-stm32mp157d-ev1/bl2/plat_common.o
 .debug_aranges
                0x00000000       0x20 ./../build/optee-emmc-stm32mp157d-ev1/bl2/plat_common.o
 .debug_ranges  0x00000000       0x10 ./../build/optee-emmc-stm32mp157d-ev1/bl2/plat_common.o
 .debug_line    0x00000000       0xbf ./../build/optee-emmc-stm32mp157d-ev1/bl2/plat_common.o
 .debug_str     0x00000000      0x23d ./../build/optee-emmc-stm32mp157d-ev1/bl2/plat_common.o
 .comment       0x00000000       0x13 ./../build/optee-emmc-stm32mp157d-ev1/bl2/plat_common.o
 .note.GNU-stack
                0x00000000        0x0 ./../build/optee-emmc-stm32mp157d-ev1/bl2/plat_common.o
 .debug_frame   0x00000000       0x20 ./../build/optee-emmc-stm32mp157d-ev1/bl2/plat_common.o
 .ARM.attributes
                0x00000000       0x33 ./../build/optee-emmc-stm32mp157d-ev1/bl2/plat_common.o
 .text          0x00000000        0x0 ./../build/optee-emmc-stm32mp157d-ev1/bl2/plat_bl_common.o
 .data          0x00000000        0x0 ./../build/optee-emmc-stm32mp157d-ev1/bl2/plat_bl_common.o
 .bss           0x00000000        0x0 ./../build/optee-emmc-stm32mp157d-ev1/bl2/plat_bl_common.o
 .text.plat_get_soc_version
                0x00000000        0x6 ./../build/optee-emmc-stm32mp157d-ev1/bl2/plat_bl_common.o
 .text.plat_get_soc_revision
                0x00000000        0x6 ./../build/optee-emmc-stm32mp157d-ev1/bl2/plat_bl_common.o
 .text.plat_is_smccc_feature_available
                0x00000000        0x6 ./../build/optee-emmc-stm32mp157d-ev1/bl2/plat_bl_common.o
 .text.bl2_el3_plat_prepare_exit
                0x00000000        0x2 ./../build/optee-emmc-stm32mp157d-ev1/bl2/plat_bl_common.o
 .text.bl2_plat_handle_pre_image_load
                0x00000000        0x4 ./../build/optee-emmc-stm32mp157d-ev1/bl2/plat_bl_common.o
 .text.bl2_plat_handle_post_image_load
                0x00000000        0x4 ./../build/optee-emmc-stm32mp157d-ev1/bl2/plat_bl_common.o
 .text.plat_try_next_boot_source
                0x00000000        0x4 ./../build/optee-emmc-stm32mp157d-ev1/bl2/plat_bl_common.o
 .text.plat_try_backup_partitions
                0x00000000        0x4 ./../build/optee-emmc-stm32mp157d-ev1/bl2/plat_bl_common.o
 .rodata.plat_get_enc_key_info.str1.1
                0x00000000       0x3e ./../build/optee-emmc-stm32mp157d-ev1/bl2/plat_bl_common.o
 .text.plat_get_enc_key_info
                0x00000000       0x40 ./../build/optee-emmc-stm32mp157d-ev1/bl2/plat_bl_common.o
 .text.setup_page_tables
                0x00000000       0x16 ./../build/optee-emmc-stm32mp157d-ev1/bl2/plat_bl_common.o
 .text          0x00000000        0x0 ./../build/optee-emmc-stm32mp157d-ev1/bl2/plat_log_common.o
 .data          0x00000000        0x0 ./../build/optee-emmc-stm32mp157d-ev1/bl2/plat_log_common.o
 .bss           0x00000000        0x0 ./../build/optee-emmc-stm32mp157d-ev1/bl2/plat_log_common.o
 .text          0x00000000        0x0 ./../build/optee-emmc-stm32mp157d-ev1/bl2/bl2_io_storage.o
 .data          0x00000000        0x0 ./../build/optee-emmc-stm32mp157d-ev1/bl2/bl2_io_storage.o
 .bss           0x00000000        0x0 ./../build/optee-emmc-stm32mp157d-ev1/bl2/bl2_io_storage.o
 .text.stm32mp_io_exit
                0x00000000       0x20 ./../build/optee-emmc-stm32mp157d-ev1/bl2/bl2_io_storage.o
 .text          0x00000000        0x0 ./../build/optee-emmc-stm32mp157d-ev1/bl2/plat_image_load.o
 .data          0x00000000        0x0 ./../build/optee-emmc-stm32mp157d-ev1/bl2/plat_image_load.o
 .bss           0x00000000        0x0 ./../build/optee-emmc-stm32mp157d-ev1/bl2/plat_image_load.o
 .text          0x00000000        0x0 ./../build/optee-emmc-stm32mp157d-ev1/bl2/stm32mp_common.o
 .data          0x00000000        0x0 ./../build/optee-emmc-stm32mp157d-ev1/bl2/stm32mp_common.o
 .bss           0x00000000        0x0 ./../build/optee-emmc-stm32mp157d-ev1/bl2/stm32mp_common.o
 .text.plat_get_ns_image_entrypoint
                0x00000000        0x8 ./../build/optee-emmc-stm32mp157d-ev1/bl2/stm32mp_common.o
 .rodata.stm32_lock_enc_key_otp.str1.1
                0x00000000        0xc ./../build/optee-emmc-stm32mp157d-ev1/bl2/stm32mp_common.o
 .text.stm32_lock_enc_key_otp
                0x00000000       0x48 ./../build/optee-emmc-stm32mp157d-ev1/bl2/stm32mp_common.o
 .rodata.stm32_get_uid_otp.str1.1
                0x00000000       0x5e ./../build/optee-emmc-stm32mp157d-ev1/bl2/stm32mp_common.o
 .text.stm32_get_uid_otp
                0x00000000       0x60 ./../build/optee-emmc-stm32mp157d-ev1/bl2/stm32mp_common.o
 .rodata.stm32_get_enc_key_otp_idx_len.str1.1
                0x00000000       0x19 ./../build/optee-emmc-stm32mp157d-ev1/bl2/stm32mp_common.o
 .text.stm32_get_enc_key_otp_idx_len
                0x00000000       0x4c ./../build/optee-emmc-stm32mp157d-ev1/bl2/stm32mp_common.o
 .text.stm32mp_uart_console_is_running
                0x00000000       0x28 ./../build/optee-emmc-stm32mp157d-ev1/bl2/stm32mp_common.o
 .text.plat_is_smccc_feature_available
                0x00000000       0x10 ./../build/optee-emmc-stm32mp157d-ev1/bl2/stm32mp_common.o
 .text.plat_get_soc_version
                0x00000000        0xe ./../build/optee-emmc-stm32mp157d-ev1/bl2/stm32mp_common.o
 .text.plat_get_soc_revision
                0x00000000        0xc ./../build/optee-emmc-stm32mp157d-ev1/bl2/stm32mp_common.o
 .text.stm32_get_boot_interface
                0x00000000       0x50 ./../build/optee-emmc-stm32mp157d-ev1/bl2/stm32mp_common.o
 .bss.itf.8     0x00000000        0x4 ./../build/optee-emmc-stm32mp157d-ev1/bl2/stm32mp_common.o
 .rodata.__func__.9
                0x00000000       0x1e ./../build/optee-emmc-stm32mp157d-ev1/bl2/stm32mp_common.o
 .bss.idx.10    0x00000000        0x4 ./../build/optee-emmc-stm32mp157d-ev1/bl2/stm32mp_common.o
 .bss.len.11    0x00000000        0x4 ./../build/optee-emmc-stm32mp157d-ev1/bl2/stm32mp_common.o
 .text          0x00000000        0x0 ./../build/optee-emmc-stm32mp157d-ev1/bl2/stm32mp_dt.o
 .data          0x00000000        0x0 ./../build/optee-emmc-stm32mp157d-ev1/bl2/stm32mp_dt.o
 .bss           0x00000000        0x0 ./../build/optee-emmc-stm32mp157d-ev1/bl2/stm32mp_dt.o
 .rodata.dt_get_cpu_regulator.str1.1
                0x00000000       0x10 ./../build/optee-emmc-stm32mp157d-ev1/bl2/stm32mp_dt.o
 .text.dt_get_cpu_regulator
                0x00000000       0x2c ./../build/optee-emmc-stm32mp157d-ev1/bl2/stm32mp_dt.o
 .rodata.dt_get_sysram_regulator.str1.1
                0x00000000       0x12 ./../build/optee-emmc-stm32mp157d-ev1/bl2/stm32mp_dt.o
 .text.dt_get_sysram_regulator
                0x00000000       0x74 ./../build/optee-emmc-stm32mp157d-ev1/bl2/stm32mp_dt.o
 .rodata.fdt_get_gpio_bank_pin_count.str1.1
                0x00000000       0x1c ./../build/optee-emmc-stm32mp157d-ev1/bl2/stm32mp_dt.o
 .text.fdt_get_gpio_bank_pin_count
                0x00000000       0xd4 ./../build/optee-emmc-stm32mp157d-ev1/bl2/stm32mp_dt.o
 .text          0x00000000        0x0 ./../build/optee-emmc-stm32mp157d-ev1/bl2/stm32mp_fconf_fuse.o
 .data          0x00000000        0x0 ./../build/optee-emmc-stm32mp157d-ev1/bl2/stm32mp_fconf_fuse.o
 .bss           0x00000000        0x0 ./../build/optee-emmc-stm32mp157d-ev1/bl2/stm32mp_fconf_fuse.o
 .text          0x00000000        0x0 ./../build/optee-emmc-stm32mp157d-ev1/bl2/stm32mp_fconf_io.o
 .data          0x00000000        0x0 ./../build/optee-emmc-stm32mp157d-ev1/bl2/stm32mp_fconf_io.o
 .bss           0x00000000        0x0 ./../build/optee-emmc-stm32mp157d-ev1/bl2/stm32mp_fconf_io.o
 .text          0x00000000        0x0 ./../build/optee-emmc-stm32mp157d-ev1/bl2/bl2_plat_setup.o
 .data          0x00000000        0x0 ./../build/optee-emmc-stm32mp157d-ev1/bl2/bl2_plat_setup.o
 .bss           0x00000000        0x0 ./../build/optee-emmc-stm32mp157d-ev1/bl2/bl2_plat_setup.o
 .text          0x00000000        0x0 ./../build/optee-emmc-stm32mp157d-ev1/bl2/plat_bl2_mem_params_desc.o
 .data          0x00000000        0x0 ./../build/optee-emmc-stm32mp157d-ev1/bl2/plat_bl2_mem_params_desc.o
 .bss           0x00000000        0x0 ./../build/optee-emmc-stm32mp157d-ev1/bl2/plat_bl2_mem_params_desc.o
 .text          0x00000000        0x0 ./../build/optee-emmc-stm32mp157d-ev1/bl2/plat_ddr.o
 .data          0x00000000        0x0 ./../build/optee-emmc-stm32mp157d-ev1/bl2/plat_ddr.o
 .bss           0x00000000        0x0 ./../build/optee-emmc-stm32mp157d-ev1/bl2/plat_ddr.o
 .text          0x00000000        0x0 ./../build/optee-emmc-stm32mp157d-ev1/bl2/stm32mp1_context.o
 .data          0x00000000        0x0 ./../build/optee-emmc-stm32mp157d-ev1/bl2/stm32mp1_context.o
 .bss           0x00000000        0x0 ./../build/optee-emmc-stm32mp157d-ev1/bl2/stm32mp1_context.o
 .text          0x00000000        0x0 ./../build/optee-emmc-stm32mp157d-ev1/bl2/stm32mp1_critic_power.o
 .data          0x00000000        0x0 ./../build/optee-emmc-stm32mp157d-ev1/bl2/stm32mp1_critic_power.o
 .bss           0x00000000        0x0 ./../build/optee-emmc-stm32mp157d-ev1/bl2/stm32mp1_critic_power.o
 .text          0x00000000        0x0 ./../build/optee-emmc-stm32mp157d-ev1/bl2/stm32mp1_dbgmcu.o
 .data          0x00000000        0x0 ./../build/optee-emmc-stm32mp157d-ev1/bl2/stm32mp1_dbgmcu.o
 .bss           0x00000000        0x0 ./../build/optee-emmc-stm32mp157d-ev1/bl2/stm32mp1_dbgmcu.o
 .text          0x00000000        0x0 ./../build/optee-emmc-stm32mp157d-ev1/bl2/stm32mp1_fconf_firewall.o
 .data          0x00000000        0x0 ./../build/optee-emmc-stm32mp157d-ev1/bl2/stm32mp1_fconf_firewall.o
 .bss           0x00000000        0x0 ./../build/optee-emmc-stm32mp157d-ev1/bl2/stm32mp1_fconf_firewall.o
 .text          0x00000000        0x0 ./../build/optee-emmc-stm32mp157d-ev1/bl2/stm32mp1_private.o
 .data          0x00000000        0x0 ./../build/optee-emmc-stm32mp157d-ev1/bl2/stm32mp1_private.o
 .bss           0x00000000        0x0 ./../build/optee-emmc-stm32mp157d-ev1/bl2/stm32mp1_private.o
 .text.stm32_gpio_is_secure_at_reset
                0x00000000        0xa ./../build/optee-emmc-stm32mp157d-ev1/bl2/stm32mp1_private.o
 .rodata.stm32_get_gpio_bank_pinctrl_node.str1.1
                0x00000000       0x2e ./../build/optee-emmc-stm32mp157d-ev1/bl2/stm32mp1_private.o
 .text.stm32_get_gpio_bank_pinctrl_node
                0x00000000       0x2c ./../build/optee-emmc-stm32mp157d-ev1/bl2/stm32mp1_private.o
 .text.stm32_get_header_address
                0x00000000        0x8 ./../build/optee-emmc-stm32mp157d-ev1/bl2/stm32mp1_private.o
 .text.stm32mp_is_single_core
                0x00000000       0x2c ./../build/optee-emmc-stm32mp157d-ev1/bl2/stm32mp1_private.o
 .text.stm32mp_is_auth_supported
                0x00000000       0x40 ./../build/optee-emmc-stm32mp157d-ev1/bl2/stm32mp1_private.o
 .text          0x00000000        0x0 ./../build/optee-emmc-stm32mp157d-ev1/bl2/stm32mp1_syscfg.o
 .data          0x00000000        0x0 ./../build/optee-emmc-stm32mp157d-ev1/bl2/stm32mp1_syscfg.o
 .bss           0x00000000        0x0 ./../build/optee-emmc-stm32mp157d-ev1/bl2/stm32mp1_syscfg.o
 .text.stm32mp_syscfg_disable_io_compensation
                0x00000000       0x44 ./../build/optee-emmc-stm32mp157d-ev1/bl2/stm32mp1_syscfg.o
 .text.stm32mp_syscfg_get_chip_version
                0x00000000       0x10 ./../build/optee-emmc-stm32mp157d-ev1/bl2/stm32mp1_syscfg.o
 .text.stm32mp_syscfg_get_chip_dev_id
                0x00000000       0x10 ./../build/optee-emmc-stm32mp157d-ev1/bl2/stm32mp1_syscfg.o
 .text          0x00000000        0x0 ./../build/optee-emmc-stm32mp157d-ev1/bl2/bl2_el3_entrypoint.o
 .data          0x00000000        0x0 ./../build/optee-emmc-stm32mp157d-ev1/bl2/bl2_el3_entrypoint.o
 .bss           0x00000000        0x0 ./../build/optee-emmc-stm32mp157d-ev1/bl2/bl2_el3_entrypoint.o
 .text          0x00000000        0x0 ./../build/optee-emmc-stm32mp157d-ev1/bl2/bl2_el3_exceptions.o
 .data          0x00000000        0x0 ./../build/optee-emmc-stm32mp157d-ev1/bl2/bl2_el3_exceptions.o
 .bss           0x00000000        0x0 ./../build/optee-emmc-stm32mp157d-ev1/bl2/bl2_el3_exceptions.o
 .text          0x00000000        0x0 ./../build/optee-emmc-stm32mp157d-ev1/bl2/bl2_run_next_image.o
 .data          0x00000000        0x0 ./../build/optee-emmc-stm32mp157d-ev1/bl2/bl2_run_next_image.o
 .bss           0x00000000        0x0 ./../build/optee-emmc-stm32mp157d-ev1/bl2/bl2_run_next_image.o
 .text          0x00000000        0x0 ./../build/optee-emmc-stm32mp157d-ev1/bl2/debug.o
 .data          0x00000000        0x0 ./../build/optee-emmc-stm32mp157d-ev1/bl2/debug.o
 .bss           0x00000000        0x0 ./../build/optee-emmc-stm32mp157d-ev1/bl2/debug.o
 .text          0x00000000        0x0 ./../build/optee-emmc-stm32mp157d-ev1/bl2/stm32_console.o
 .data          0x00000000        0x0 ./../build/optee-emmc-stm32mp157d-ev1/bl2/stm32_console.o
 .bss           0x00000000        0x0 ./../build/optee-emmc-stm32mp157d-ev1/bl2/stm32_console.o
 .text.asm.console_stm32_core_getc
                0x00000000        0x8 ./../build/optee-emmc-stm32mp157d-ev1/bl2/stm32_console.o
 .text          0x00000000        0x0 ./../build/optee-emmc-stm32mp157d-ev1/bl2/cache_helpers.o
 .data          0x00000000        0x0 ./../build/optee-emmc-stm32mp157d-ev1/bl2/cache_helpers.o
 .bss           0x00000000        0x0 ./../build/optee-emmc-stm32mp157d-ev1/bl2/cache_helpers.o
 .text.asm.dcsw_op_louis
                0x00000000       0x14 ./../build/optee-emmc-stm32mp157d-ev1/bl2/cache_helpers.o
 .text.asm.dcsw_op_level1
                0x00000000       0x10 ./../build/optee-emmc-stm32mp157d-ev1/bl2/cache_helpers.o
 .text.asm.dcsw_op_level2
                0x00000000       0x10 ./../build/optee-emmc-stm32mp157d-ev1/bl2/cache_helpers.o
 .text.asm.dcsw_op_level3
                0x00000000       0x10 ./../build/optee-emmc-stm32mp157d-ev1/bl2/cache_helpers.o
 .text          0x00000000        0x0 ./../build/optee-emmc-stm32mp157d-ev1/bl2/misc_helpers.o
 .data          0x00000000        0x0 ./../build/optee-emmc-stm32mp157d-ev1/bl2/misc_helpers.o
 .bss           0x00000000        0x0 ./../build/optee-emmc-stm32mp157d-ev1/bl2/misc_helpers.o
 .text.asm.smc  0x00000000        0x8 ./../build/optee-emmc-stm32mp157d-ev1/bl2/misc_helpers.o
 .text.asm.memcpy4
                0x00000000       0x4c ./../build/optee-emmc-stm32mp157d-ev1/bl2/misc_helpers.o
 .rodata.str1.1
                0x00000000       0x1b ./../build/optee-emmc-stm32mp157d-ev1/bl2/misc_helpers.o
 .text.asm.fixup_gdt_reloc
                0x00000000       0xec ./../build/optee-emmc-stm32mp157d-ev1/bl2/misc_helpers.o
 .text          0x00000000       0x24 ./../build/optee-emmc-stm32mp157d-ev1/bl2/aeabi_ldivmod.o
 .data          0x00000000        0x0 ./../build/optee-emmc-stm32mp157d-ev1/bl2/aeabi_ldivmod.o
 .bss           0x00000000        0x0 ./../build/optee-emmc-stm32mp157d-ev1/bl2/aeabi_ldivmod.o
 .note.GNU-stack
                0x00000000        0x0 ./../build/optee-emmc-stm32mp157d-ev1/bl2/aeabi_ldivmod.o
 .debug_line    0x00000000       0x67 ./../build/optee-emmc-stm32mp157d-ev1/bl2/aeabi_ldivmod.o
 .debug_info    0x00000000       0x30 ./../build/optee-emmc-stm32mp157d-ev1/bl2/aeabi_ldivmod.o
 .debug_abbrev  0x00000000       0x28 ./../build/optee-emmc-stm32mp157d-ev1/bl2/aeabi_ldivmod.o
 .debug_aranges
                0x00000000       0x20 ./../build/optee-emmc-stm32mp157d-ev1/bl2/aeabi_ldivmod.o
 .debug_str     0x00000000       0x77 ./../build/optee-emmc-stm32mp157d-ev1/bl2/aeabi_ldivmod.o
 .ARM.attributes
                0x00000000       0x27 ./../build/optee-emmc-stm32mp157d-ev1/bl2/aeabi_ldivmod.o
 .text          0x00000000        0x4 ./../build/optee-emmc-stm32mp157d-ev1/bl2/aeabi_memcpy.o
 .data          0x00000000        0x0 ./../build/optee-emmc-stm32mp157d-ev1/bl2/aeabi_memcpy.o
 .bss           0x00000000        0x0 ./../build/optee-emmc-stm32mp157d-ev1/bl2/aeabi_memcpy.o
 .note.GNU-stack
                0x00000000        0x0 ./../build/optee-emmc-stm32mp157d-ev1/bl2/aeabi_memcpy.o
 .debug_line    0x00000000       0x5c ./../build/optee-emmc-stm32mp157d-ev1/bl2/aeabi_memcpy.o
 .debug_info    0x00000000       0x46 ./../build/optee-emmc-stm32mp157d-ev1/bl2/aeabi_memcpy.o
 .debug_abbrev  0x00000000       0x28 ./../build/optee-emmc-stm32mp157d-ev1/bl2/aeabi_memcpy.o
 .debug_aranges
                0x00000000       0x20 ./../build/optee-emmc-stm32mp157d-ev1/bl2/aeabi_memcpy.o
 .debug_str     0x00000000       0x95 ./../build/optee-emmc-stm32mp157d-ev1/bl2/aeabi_memcpy.o
 .ARM.attributes
                0x00000000       0x27 ./../build/optee-emmc-stm32mp157d-ev1/bl2/aeabi_memcpy.o
 .text          0x00000000       0x1c ./../build/optee-emmc-stm32mp157d-ev1/bl2/aeabi_memset.o
 .data          0x00000000        0x0 ./../build/optee-emmc-stm32mp157d-ev1/bl2/aeabi_memset.o
 .bss           0x00000000        0x0 ./../build/optee-emmc-stm32mp157d-ev1/bl2/aeabi_memset.o
 .note.GNU-stack
                0x00000000        0x0 ./../build/optee-emmc-stm32mp157d-ev1/bl2/aeabi_memset.o
 .debug_line    0x00000000       0x64 ./../build/optee-emmc-stm32mp157d-ev1/bl2/aeabi_memset.o
 .debug_info    0x00000000       0x67 ./../build/optee-emmc-stm32mp157d-ev1/bl2/aeabi_memset.o
 .debug_abbrev  0x00000000       0x28 ./../build/optee-emmc-stm32mp157d-ev1/bl2/aeabi_memset.o
 .debug_aranges
                0x00000000       0x20 ./../build/optee-emmc-stm32mp157d-ev1/bl2/aeabi_memset.o
 .debug_str     0x00000000       0xc4 ./../build/optee-emmc-stm32mp157d-ev1/bl2/aeabi_memset.o
 .ARM.attributes
                0x00000000       0x27 ./../build/optee-emmc-stm32mp157d-ev1/bl2/aeabi_memset.o
 .data          0x00000000        0x0 ./../build/optee-emmc-stm32mp157d-ev1/bl2/aeabi_uldivmod.o
 .bss           0x00000000        0x0 ./../build/optee-emmc-stm32mp157d-ev1/bl2/aeabi_uldivmod.o
 .text          0x00000000        0x0 ./../build/optee-emmc-stm32mp157d-ev1/bl2/cortex_a7.o
 .data          0x00000000        0x0 ./../build/optee-emmc-stm32mp157d-ev1/bl2/cortex_a7.o
 .bss           0x00000000        0x0 ./../build/optee-emmc-stm32mp157d-ev1/bl2/cortex_a7.o
 .text.asm.cortex_a7_disable_smp
                0x00000000       0x18 ./../build/optee-emmc-stm32mp157d-ev1/bl2/cortex_a7.o
 .text.asm.cortex_a7_core_pwr_dwn
                0x00000000       0x30 ./../build/optee-emmc-stm32mp157d-ev1/bl2/cortex_a7.o
 .rodata.str1.1
                0x00000000       0x1d ./../build/optee-emmc-stm32mp157d-ev1/bl2/cortex_a7.o
 .text.asm.cortex_a7_cluster_pwr_dwn
                0x00000000       0x3c ./../build/optee-emmc-stm32mp157d-ev1/bl2/cortex_a7.o
 .text          0x00000000        0x0 ./../build/optee-emmc-stm32mp157d-ev1/bl2/cpu_helpers.o
 .data          0x00000000        0x0 ./../build/optee-emmc-stm32mp157d-ev1/bl2/cpu_helpers.o
 .bss           0x00000000        0x0 ./../build/optee-emmc-stm32mp157d-ev1/bl2/cpu_helpers.o
 .text.asm.cpu_get_rev_var
                0x00000000       0x10 ./../build/optee-emmc-stm32mp157d-ev1/bl2/cpu_helpers.o
 .text.asm.cpu_rev_var_ls
                0x00000000       0x10 ./../build/optee-emmc-stm32mp157d-ev1/bl2/cpu_helpers.o
 .text.asm.cpu_rev_var_hs
                0x00000000       0x10 ./../build/optee-emmc-stm32mp157d-ev1/bl2/cpu_helpers.o
 .text          0x00000000        0x0 ./../build/optee-emmc-stm32mp157d-ev1/bl2/spinlock.o
 .data          0x00000000        0x0 ./../build/optee-emmc-stm32mp157d-ev1/bl2/spinlock.o
 .bss           0x00000000        0x0 ./../build/optee-emmc-stm32mp157d-ev1/bl2/spinlock.o
 .text          0x00000000        0x0 ./../build/optee-emmc-stm32mp157d-ev1/bl2/enable_mmu.o
 .data          0x00000000        0x0 ./../build/optee-emmc-stm32mp157d-ev1/bl2/enable_mmu.o
 .bss           0x00000000        0x0 ./../build/optee-emmc-stm32mp157d-ev1/bl2/enable_mmu.o
 .text.asm.enable_mmu_direct_hyp
                0x00000000       0x74 ./../build/optee-emmc-stm32mp157d-ev1/bl2/enable_mmu.o
 .text          0x00000000        0x0 ./../build/optee-emmc-stm32mp157d-ev1/bl2/platform_helpers.o
 .data          0x00000000        0x0 ./../build/optee-emmc-stm32mp157d-ev1/bl2/platform_helpers.o
 .bss           0x00000000        0x0 ./../build/optee-emmc-stm32mp157d-ev1/bl2/platform_helpers.o
 .text.asm.plat_report_exception
                0x00000000        0x4 ./../build/optee-emmc-stm32mp157d-ev1/bl2/platform_helpers.o
 .text.asm.plat_report_prefetch_abort
                0x00000000        0x4 ./../build/optee-emmc-stm32mp157d-ev1/bl2/platform_helpers.o
 .text.asm.plat_report_data_abort
                0x00000000        0x4 ./../build/optee-emmc-stm32mp157d-ev1/bl2/platform_helpers.o
 .text.asm.plat_reset_handler
                0x00000000        0x4 ./../build/optee-emmc-stm32mp157d-ev1/bl2/platform_helpers.o
 .text.asm.plat_disable_acp
                0x00000000        0x4 ./../build/optee-emmc-stm32mp157d-ev1/bl2/platform_helpers.o
 .text.asm.platform_mem_init
                0x00000000        0x4 ./../build/optee-emmc-stm32mp157d-ev1/bl2/platform_helpers.o
 .text.asm.bl1_plat_prepare_exit
                0x00000000        0x4 ./../build/optee-emmc-stm32mp157d-ev1/bl2/platform_helpers.o
 .text.asm.plat_panic_handler
                0x00000000        0x4 ./../build/optee-emmc-stm32mp157d-ev1/bl2/platform_helpers.o
 .debug_line    0x00000000       0xc3 ./../build/optee-emmc-stm32mp157d-ev1/bl2/platform_helpers.o
 .debug_info    0x00000000       0x7c ./../build/optee-emmc-stm32mp157d-ev1/bl2/platform_helpers.o
 .debug_abbrev  0x00000000       0x24 ./../build/optee-emmc-stm32mp157d-ev1/bl2/platform_helpers.o
 .debug_aranges
                0x00000000       0x58 ./../build/optee-emmc-stm32mp157d-ev1/bl2/platform_helpers.o
 .debug_str     0x00000000      0x108 ./../build/optee-emmc-stm32mp157d-ev1/bl2/platform_helpers.o
 .debug_ranges  0x00000000       0x50 ./../build/optee-emmc-stm32mp157d-ev1/bl2/platform_helpers.o
 .debug_frame   0x00000000       0x90 ./../build/optee-emmc-stm32mp157d-ev1/bl2/platform_helpers.o
 .ARM.attributes
                0x00000000       0x27 ./../build/optee-emmc-stm32mp157d-ev1/bl2/platform_helpers.o
 .text          0x00000000        0x0 ./../build/optee-emmc-stm32mp157d-ev1/bl2/platform_up_stack.o
 .data          0x00000000        0x0 ./../build/optee-emmc-stm32mp157d-ev1/bl2/platform_up_stack.o
 .bss           0x00000000        0x0 ./../build/optee-emmc-stm32mp157d-ev1/bl2/platform_up_stack.o
 .text.asm.plat_get_my_stack
                0x00000000        0xc ./../build/optee-emmc-stm32mp157d-ev1/bl2/platform_up_stack.o
 .text          0x00000000        0x0 ./../build/optee-emmc-stm32mp157d-ev1/bl2/stm32mp1_critic_power_wrapper.o
 .bss           0x00000000        0x0 ./../build/optee-emmc-stm32mp157d-ev1/bl2/stm32mp1_critic_power_wrapper.o
 .text          0x00000000        0x0 ./../build/optee-emmc-stm32mp157d-ev1/bl2/stm32mp1_helper.o
 .data          0x00000000        0x0 ./../build/optee-emmc-stm32mp157d-ev1/bl2/stm32mp1_helper.o
 .bss           0x00000000        0x0 ./../build/optee-emmc-stm32mp157d-ev1/bl2/stm32mp1_helper.o
 .text.asm.plat_stm32mp1_get_core_pos
                0x00000000       0x10 ./../build/optee-emmc-stm32mp157d-ev1/bl2/stm32mp1_helper.o
 .text.asm.plat_my_core_pos
                0x00000000        0x8 ./../build/optee-emmc-stm32mp157d-ev1/bl2/stm32mp1_helper.o
 .text          0x00000000        0x0 ./../build/optee-emmc-stm32mp157d-ev1/lib/libfdt.a(fdt.o)
 .data          0x00000000        0x0 ./../build/optee-emmc-stm32mp157d-ev1/lib/libfdt.a(fdt.o)
 .bss           0x00000000        0x0 ./../build/optee-emmc-stm32mp157d-ev1/lib/libfdt.a(fdt.o)
 .text.fdt_find_string_
                0x00000000       0x30 ./../build/optee-emmc-stm32mp157d-ev1/lib/libfdt.a(fdt.o)
 .text.fdt_move
                0x00000000       0x30 ./../build/optee-emmc-stm32mp157d-ev1/lib/libfdt.a(fdt.o)
 .text          0x00000000        0x0 ./../build/optee-emmc-stm32mp157d-ev1/lib/libfdt.a(fdt_addresses.o)
 .data          0x00000000        0x0 ./../build/optee-emmc-stm32mp157d-ev1/lib/libfdt.a(fdt_addresses.o)
 .bss           0x00000000        0x0 ./../build/optee-emmc-stm32mp157d-ev1/lib/libfdt.a(fdt_addresses.o)
 .rodata.fdt_size_cells.str1.1
                0x00000000        0xc ./../build/optee-emmc-stm32mp157d-ev1/lib/libfdt.a(fdt_addresses.o)
 .text.fdt_size_cells
                0x00000000       0x14 ./../build/optee-emmc-stm32mp157d-ev1/lib/libfdt.a(fdt_addresses.o)
 .text.fdt_appendprop_addrrange
                0x00000000       0xce ./../build/optee-emmc-stm32mp157d-ev1/lib/libfdt.a(fdt_addresses.o)
 .text          0x00000000        0x0 ./../build/optee-emmc-stm32mp157d-ev1/lib/libfdt.a(fdt_ro.o)
 .data          0x00000000        0x0 ./../build/optee-emmc-stm32mp157d-ev1/lib/libfdt.a(fdt_ro.o)
 .bss           0x00000000        0x0 ./../build/optee-emmc-stm32mp157d-ev1/lib/libfdt.a(fdt_ro.o)
 .text.fdt64_ld_
                0x00000000        0xa ./../build/optee-emmc-stm32mp157d-ev1/lib/libfdt.a(fdt_ro.o)
 .text.fdt_mem_rsv
                0x00000000       0x24 ./../build/optee-emmc-stm32mp157d-ev1/lib/libfdt.a(fdt_ro.o)
 .text.fdt_string
                0x00000000        0x6 ./../build/optee-emmc-stm32mp157d-ev1/lib/libfdt.a(fdt_ro.o)
 .text.fdt_get_mem_rsv
                0x00000000       0x3c ./../build/optee-emmc-stm32mp157d-ev1/lib/libfdt.a(fdt_ro.o)
 .text.fdt_num_mem_rsv
                0x00000000       0x26 ./../build/optee-emmc-stm32mp157d-ev1/lib/libfdt.a(fdt_ro.o)
 .text.fdt_get_property_by_offset
                0x00000000       0x28 ./../build/optee-emmc-stm32mp157d-ev1/lib/libfdt.a(fdt_ro.o)
 .text.fdt_get_property_namelen
                0x00000000       0x34 ./../build/optee-emmc-stm32mp157d-ev1/lib/libfdt.a(fdt_ro.o)
 .text.fdt_get_property
                0x00000000       0x22 ./../build/optee-emmc-stm32mp157d-ev1/lib/libfdt.a(fdt_ro.o)
 .text.fdt_getprop_by_offset
                0x00000000       0x68 ./../build/optee-emmc-stm32mp157d-ev1/lib/libfdt.a(fdt_ro.o)
 .text.fdt_find_max_phandle
                0x00000000       0x3c ./../build/optee-emmc-stm32mp157d-ev1/lib/libfdt.a(fdt_ro.o)
 .text.fdt_generate_phandle
                0x00000000       0x28 ./../build/optee-emmc-stm32mp157d-ev1/lib/libfdt.a(fdt_ro.o)
 .text.fdt_get_alias
                0x00000000       0x1a ./../build/optee-emmc-stm32mp157d-ev1/lib/libfdt.a(fdt_ro.o)
 .text.fdt_get_path
                0x00000000       0xca ./../build/optee-emmc-stm32mp157d-ev1/lib/libfdt.a(fdt_ro.o)
 .text.fdt_node_offset_by_prop_value
                0x00000000       0x58 ./../build/optee-emmc-stm32mp157d-ev1/lib/libfdt.a(fdt_ro.o)
 .text.fdt_stringlist_count
                0x00000000       0x38 ./../build/optee-emmc-stm32mp157d-ev1/lib/libfdt.a(fdt_ro.o)
 .text.fdt_stringlist_get
                0x00000000       0x5c ./../build/optee-emmc-stm32mp157d-ev1/lib/libfdt.a(fdt_ro.o)
 .text          0x00000000        0x0 ./../build/optee-emmc-stm32mp157d-ev1/lib/libfdt.a(fdt_rw.o)
 .data          0x00000000        0x0 ./../build/optee-emmc-stm32mp157d-ev1/lib/libfdt.a(fdt_rw.o)
 .bss           0x00000000        0x0 ./../build/optee-emmc-stm32mp157d-ev1/lib/libfdt.a(fdt_rw.o)
 .text.cpu_to_fdt32
                0x00000000        0x4 ./../build/optee-emmc-stm32mp157d-ev1/lib/libfdt.a(fdt_rw.o)
 .text.cpu_to_fdt64
                0x00000000        0x8 ./../build/optee-emmc-stm32mp157d-ev1/lib/libfdt.a(fdt_rw.o)
 .text.fdt32_ld
                0x00000000       0x18 ./../build/optee-emmc-stm32mp157d-ev1/lib/libfdt.a(fdt_rw.o)
 .text.fdt_blocks_misordered_
                0x00000000       0x52 ./../build/optee-emmc-stm32mp157d-ev1/lib/libfdt.a(fdt_rw.o)
 .text.fdt_splice_
                0x00000000       0x6a ./../build/optee-emmc-stm32mp157d-ev1/lib/libfdt.a(fdt_rw.o)
 .text.fdt_splice_mem_rsv_
                0x00000000       0x3c ./../build/optee-emmc-stm32mp157d-ev1/lib/libfdt.a(fdt_rw.o)
 .text.fdt_rw_probe_
                0x00000000       0x46 ./../build/optee-emmc-stm32mp157d-ev1/lib/libfdt.a(fdt_rw.o)
 .text.fdt_packblocks_
                0x00000000       0x82 ./../build/optee-emmc-stm32mp157d-ev1/lib/libfdt.a(fdt_rw.o)
 .text.fdt_splice_struct_
                0x00000000       0x36 ./../build/optee-emmc-stm32mp157d-ev1/lib/libfdt.a(fdt_rw.o)
 .text.fdt_add_property_
                0x00000000       0xfc ./../build/optee-emmc-stm32mp157d-ev1/lib/libfdt.a(fdt_rw.o)
 .text.fdt_add_mem_rsv
                0x00000000       0x56 ./../build/optee-emmc-stm32mp157d-ev1/lib/libfdt.a(fdt_rw.o)
 .text.fdt_del_mem_rsv
                0x00000000       0x42 ./../build/optee-emmc-stm32mp157d-ev1/lib/libfdt.a(fdt_rw.o)
 .text.fdt_set_name
                0x00000000       0x5a ./../build/optee-emmc-stm32mp157d-ev1/lib/libfdt.a(fdt_rw.o)
 .text.fdt_setprop_placeholder
                0x00000000       0x7a ./../build/optee-emmc-stm32mp157d-ev1/lib/libfdt.a(fdt_rw.o)
 .text.fdt_setprop
                0x00000000       0x26 ./../build/optee-emmc-stm32mp157d-ev1/lib/libfdt.a(fdt_rw.o)
 .text.fdt_appendprop
                0x00000000       0x8a ./../build/optee-emmc-stm32mp157d-ev1/lib/libfdt.a(fdt_rw.o)
 .text.fdt_delprop
                0x00000000       0x3e ./../build/optee-emmc-stm32mp157d-ev1/lib/libfdt.a(fdt_rw.o)
 .text.fdt_add_subnode_namelen
                0x00000000       0xaa ./../build/optee-emmc-stm32mp157d-ev1/lib/libfdt.a(fdt_rw.o)
 .text.fdt_add_subnode
                0x00000000       0x1e ./../build/optee-emmc-stm32mp157d-ev1/lib/libfdt.a(fdt_rw.o)
 .text.fdt_del_node
                0x00000000       0x38 ./../build/optee-emmc-stm32mp157d-ev1/lib/libfdt.a(fdt_rw.o)
 .text.fdt_open_into
                0x00000000      0x118 ./../build/optee-emmc-stm32mp157d-ev1/lib/libfdt.a(fdt_rw.o)
 .text.fdt_pack
                0x00000000       0x56 ./../build/optee-emmc-stm32mp157d-ev1/lib/libfdt.a(fdt_rw.o)
 .debug_info    0x00000000     0x2c00 ./../build/optee-emmc-stm32mp157d-ev1/lib/libfdt.a(fdt_rw.o)
 .debug_abbrev  0x00000000      0x4a4 ./../build/optee-emmc-stm32mp157d-ev1/lib/libfdt.a(fdt_rw.o)
 .debug_loc     0x00000000     0x229c ./../build/optee-emmc-stm32mp157d-ev1/lib/libfdt.a(fdt_rw.o)
 .debug_aranges
                0x00000000       0xc8 ./../build/optee-emmc-stm32mp157d-ev1/lib/libfdt.a(fdt_rw.o)
 .debug_ranges  0x00000000      0x420 ./../build/optee-emmc-stm32mp157d-ev1/lib/libfdt.a(fdt_rw.o)
 .debug_line    0x00000000     0x104c ./../build/optee-emmc-stm32mp157d-ev1/lib/libfdt.a(fdt_rw.o)
 .debug_str     0x00000000      0x866 ./../build/optee-emmc-stm32mp157d-ev1/lib/libfdt.a(fdt_rw.o)
 .comment       0x00000000       0x13 ./../build/optee-emmc-stm32mp157d-ev1/lib/libfdt.a(fdt_rw.o)
 .note.GNU-stack
                0x00000000        0x0 ./../build/optee-emmc-stm32mp157d-ev1/lib/libfdt.a(fdt_rw.o)
 .debug_frame   0x00000000      0x2f8 ./../build/optee-emmc-stm32mp157d-ev1/lib/libfdt.a(fdt_rw.o)
 .ARM.attributes
                0x00000000       0x33 ./../build/optee-emmc-stm32mp157d-ev1/lib/libfdt.a(fdt_rw.o)
 .text          0x00000000        0x0 ./../build/optee-emmc-stm32mp157d-ev1/lib/libfdt.a(fdt_strerror.o)
 .data          0x00000000        0x0 ./../build/optee-emmc-stm32mp157d-ev1/lib/libfdt.a(fdt_strerror.o)
 .bss           0x00000000        0x0 ./../build/optee-emmc-stm32mp157d-ev1/lib/libfdt.a(fdt_strerror.o)
 .rodata.fdt_strerror.str1.1
                0x00000000       0x31 ./../build/optee-emmc-stm32mp157d-ev1/lib/libfdt.a(fdt_strerror.o)
 .text.fdt_strerror
                0x00000000       0x3c ./../build/optee-emmc-stm32mp157d-ev1/lib/libfdt.a(fdt_strerror.o)
 .rodata.str1.1
                0x00000000      0x150 ./../build/optee-emmc-stm32mp157d-ev1/lib/libfdt.a(fdt_strerror.o)
 .rodata.fdt_errtable
                0x00000000       0x50 ./../build/optee-emmc-stm32mp157d-ev1/lib/libfdt.a(fdt_strerror.o)
 .debug_info    0x00000000       0xfe ./../build/optee-emmc-stm32mp157d-ev1/lib/libfdt.a(fdt_strerror.o)
 .debug_abbrev  0x00000000       0xca ./../build/optee-emmc-stm32mp157d-ev1/lib/libfdt.a(fdt_strerror.o)
 .debug_loc     0x00000000       0xd7 ./../build/optee-emmc-stm32mp157d-ev1/lib/libfdt.a(fdt_strerror.o)
 .debug_aranges
                0x00000000       0x20 ./../build/optee-emmc-stm32mp157d-ev1/lib/libfdt.a(fdt_strerror.o)
 .debug_ranges  0x00000000       0x28 ./../build/optee-emmc-stm32mp157d-ev1/lib/libfdt.a(fdt_strerror.o)
 .debug_line    0x00000000       0x89 ./../build/optee-emmc-stm32mp157d-ev1/lib/libfdt.a(fdt_strerror.o)
 .debug_str     0x00000000      0x1fb ./../build/optee-emmc-stm32mp157d-ev1/lib/libfdt.a(fdt_strerror.o)
 .comment       0x00000000       0x13 ./../build/optee-emmc-stm32mp157d-ev1/lib/libfdt.a(fdt_strerror.o)
 .note.GNU-stack
                0x00000000        0x0 ./../build/optee-emmc-stm32mp157d-ev1/lib/libfdt.a(fdt_strerror.o)
 .debug_frame   0x00000000       0x20 ./../build/optee-emmc-stm32mp157d-ev1/lib/libfdt.a(fdt_strerror.o)
 .ARM.attributes
                0x00000000       0x33 ./../build/optee-emmc-stm32mp157d-ev1/lib/libfdt.a(fdt_strerror.o)
 .text          0x00000000        0x0 ./../build/optee-emmc-stm32mp157d-ev1/lib/libfdt.a(fdt_wip.o)
 .data          0x00000000        0x0 ./../build/optee-emmc-stm32mp157d-ev1/lib/libfdt.a(fdt_wip.o)
 .bss           0x00000000        0x0 ./../build/optee-emmc-stm32mp157d-ev1/lib/libfdt.a(fdt_wip.o)
 .text.fdt_setprop_inplace_namelen_partial
                0x00000000       0x30 ./../build/optee-emmc-stm32mp157d-ev1/lib/libfdt.a(fdt_wip.o)
 .text.fdt_setprop_inplace
                0x00000000       0x4a ./../build/optee-emmc-stm32mp157d-ev1/lib/libfdt.a(fdt_wip.o)
 .text.fdt_nop_property
                0x00000000       0x2c ./../build/optee-emmc-stm32mp157d-ev1/lib/libfdt.a(fdt_wip.o)
 .text.fdt_node_end_offset_
                0x00000000       0x20 ./../build/optee-emmc-stm32mp157d-ev1/lib/libfdt.a(fdt_wip.o)
 .text.fdt_nop_node
                0x00000000       0x30 ./../build/optee-emmc-stm32mp157d-ev1/lib/libfdt.a(fdt_wip.o)
 .debug_info    0x00000000      0x86e ./../build/optee-emmc-stm32mp157d-ev1/lib/libfdt.a(fdt_wip.o)
 .debug_abbrev  0x00000000      0x269 ./../build/optee-emmc-stm32mp157d-ev1/lib/libfdt.a(fdt_wip.o)
 .debug_loc     0x00000000      0x615 ./../build/optee-emmc-stm32mp157d-ev1/lib/libfdt.a(fdt_wip.o)
 .debug_aranges
                0x00000000       0x40 ./../build/optee-emmc-stm32mp157d-ev1/lib/libfdt.a(fdt_wip.o)
 .debug_ranges  0x00000000       0x90 ./../build/optee-emmc-stm32mp157d-ev1/lib/libfdt.a(fdt_wip.o)
 .debug_line    0x00000000      0x2d8 ./../build/optee-emmc-stm32mp157d-ev1/lib/libfdt.a(fdt_wip.o)
 .debug_str     0x00000000      0x381 ./../build/optee-emmc-stm32mp157d-ev1/lib/libfdt.a(fdt_wip.o)
 .comment       0x00000000       0x13 ./../build/optee-emmc-stm32mp157d-ev1/lib/libfdt.a(fdt_wip.o)
 .note.GNU-stack
                0x00000000        0x0 ./../build/optee-emmc-stm32mp157d-ev1/lib/libfdt.a(fdt_wip.o)
 .debug_frame   0x00000000       0xb4 ./../build/optee-emmc-stm32mp157d-ev1/lib/libfdt.a(fdt_wip.o)
 .ARM.attributes
                0x00000000       0x33 ./../build/optee-emmc-stm32mp157d-ev1/lib/libfdt.a(fdt_wip.o)
 .text          0x00000000        0x0 ./../build/optee-emmc-stm32mp157d-ev1/lib/libc.a(assert.o)
 .data          0x00000000        0x0 ./../build/optee-emmc-stm32mp157d-ev1/lib/libc.a(assert.o)
 .bss           0x00000000        0x0 ./../build/optee-emmc-stm32mp157d-ev1/lib/libc.a(assert.o)
 .text          0x00000000        0x0 ./../build/optee-emmc-stm32mp157d-ev1/lib/libc.a(memchr.o)
 .data          0x00000000        0x0 ./../build/optee-emmc-stm32mp157d-ev1/lib/libc.a(memchr.o)
 .bss           0x00000000        0x0 ./../build/optee-emmc-stm32mp157d-ev1/lib/libc.a(memchr.o)
 .text          0x00000000        0x0 ./../build/optee-emmc-stm32mp157d-ev1/lib/libc.a(memcmp.o)
 .data          0x00000000        0x0 ./../build/optee-emmc-stm32mp157d-ev1/lib/libc.a(memcmp.o)
 .bss           0x00000000        0x0 ./../build/optee-emmc-stm32mp157d-ev1/lib/libc.a(memcmp.o)
 .text          0x00000000        0x0 ./../build/optee-emmc-stm32mp157d-ev1/lib/libc.a(memcpy.o)
 .data          0x00000000        0x0 ./../build/optee-emmc-stm32mp157d-ev1/lib/libc.a(memcpy.o)
 .bss           0x00000000        0x0 ./../build/optee-emmc-stm32mp157d-ev1/lib/libc.a(memcpy.o)
 .text          0x00000000        0x0 ./../build/optee-emmc-stm32mp157d-ev1/lib/libc.a(memmove.o)
 .data          0x00000000        0x0 ./../build/optee-emmc-stm32mp157d-ev1/lib/libc.a(memmove.o)
 .bss           0x00000000        0x0 ./../build/optee-emmc-stm32mp157d-ev1/lib/libc.a(memmove.o)
 .text          0x00000000        0x0 ./../build/optee-emmc-stm32mp157d-ev1/lib/libc.a(memset.o)
 .data          0x00000000        0x0 ./../build/optee-emmc-stm32mp157d-ev1/lib/libc.a(memset.o)
 .bss           0x00000000        0x0 ./../build/optee-emmc-stm32mp157d-ev1/lib/libc.a(memset.o)
 .text          0x00000000        0x0 ./../build/optee-emmc-stm32mp157d-ev1/lib/libc.a(printf.o)
 .data          0x00000000        0x0 ./../build/optee-emmc-stm32mp157d-ev1/lib/libc.a(printf.o)
 .bss           0x00000000        0x0 ./../build/optee-emmc-stm32mp157d-ev1/lib/libc.a(printf.o)
 .text          0x00000000        0x0 ./../build/optee-emmc-stm32mp157d-ev1/lib/libc.a(snprintf.o)
 .data          0x00000000        0x0 ./../build/optee-emmc-stm32mp157d-ev1/lib/libc.a(snprintf.o)
 .bss           0x00000000        0x0 ./../build/optee-emmc-stm32mp157d-ev1/lib/libc.a(snprintf.o)
 .text          0x00000000        0x0 ./../build/optee-emmc-stm32mp157d-ev1/lib/libc.a(strchr.o)
 .data          0x00000000        0x0 ./../build/optee-emmc-stm32mp157d-ev1/lib/libc.a(strchr.o)
 .bss           0x00000000        0x0 ./../build/optee-emmc-stm32mp157d-ev1/lib/libc.a(strchr.o)
 .text          0x00000000        0x0 ./../build/optee-emmc-stm32mp157d-ev1/lib/libc.a(strcmp.o)
 .data          0x00000000        0x0 ./../build/optee-emmc-stm32mp157d-ev1/lib/libc.a(strcmp.o)
 .bss           0x00000000        0x0 ./../build/optee-emmc-stm32mp157d-ev1/lib/libc.a(strcmp.o)
 .text          0x00000000        0x0 ./../build/optee-emmc-stm32mp157d-ev1/lib/libc.a(strlcpy.o)
 .data          0x00000000        0x0 ./../build/optee-emmc-stm32mp157d-ev1/lib/libc.a(strlcpy.o)
 .bss           0x00000000        0x0 ./../build/optee-emmc-stm32mp157d-ev1/lib/libc.a(strlcpy.o)
 .text          0x00000000        0x0 ./../build/optee-emmc-stm32mp157d-ev1/lib/libc.a(strlen.o)
 .data          0x00000000        0x0 ./../build/optee-emmc-stm32mp157d-ev1/lib/libc.a(strlen.o)
 .bss           0x00000000        0x0 ./../build/optee-emmc-stm32mp157d-ev1/lib/libc.a(strlen.o)
 .text          0x00000000        0x0 ./../build/optee-emmc-stm32mp157d-ev1/lib/libc.a(strncmp.o)
 .data          0x00000000        0x0 ./../build/optee-emmc-stm32mp157d-ev1/lib/libc.a(strncmp.o)
 .bss           0x00000000        0x0 ./../build/optee-emmc-stm32mp157d-ev1/lib/libc.a(strncmp.o)
 .text          0x00000000        0x0 ./../build/optee-emmc-stm32mp157d-ev1/lib/libc.a(strnlen.o)
 .data          0x00000000        0x0 ./../build/optee-emmc-stm32mp157d-ev1/lib/libc.a(strnlen.o)
 .bss           0x00000000        0x0 ./../build/optee-emmc-stm32mp157d-ev1/lib/libc.a(strnlen.o)
 .text          0x00000000        0x0 ./../build/optee-emmc-stm32mp157d-ev1/lib/libc.a(strrchr.o)
 .data          0x00000000        0x0 ./../build/optee-emmc-stm32mp157d-ev1/lib/libc.a(strrchr.o)
 .bss           0x00000000        0x0 ./../build/optee-emmc-stm32mp157d-ev1/lib/libc.a(strrchr.o)

Memory Configuration

Name             Origin             Length             Attributes
RAM              0x2ffe9000         0x00016000         xrw
*default*        0x00000000         0xffffffff

Linker script and memory map

                0x2ffe9000                        RAM_REGION_START = ORIGIN (RAM)
                0x00016000                        RAM_REGION_LENGTH = LENGTH (RAM)
                0x2ffe9000                        . = 0x2ffe9000
                0x00000001                        ASSERT ((. == ALIGN (0x1000)), BL2_BASE address is not aligned on a page boundary.)

.ro             0x2ffe9000    0x11000
                0x2ffe9000                        __RO_START__ = .
                0x2ffe9000                        __TEXT_RESIDENT_START__ = .
 *bl2_el3_entrypoint.o(SORT_BY_ALIGNMENT(.text*))
 .text.asm.bl2_entrypoint
                0x2ffe9000      0x160 ./../build/optee-emmc-stm32mp157d-ev1/bl2/bl2_el3_entrypoint.o
                0x2ffe9000                bl2_entrypoint
 *(SORT_BY_ALIGNMENT(.text.asm.*))
 .text.asm.bl2_run_next_image
                0x2ffe9160       0x48 ./../build/optee-emmc-stm32mp157d-ev1/bl2/bl2_run_next_image.o
                0x2ffe9160                bl2_run_next_image
 .text.asm.asm_assert
                0x2ffe91a8       0x7c ./../build/optee-emmc-stm32mp157d-ev1/bl2/debug.o
                0x2ffe91a8                asm_assert
 .text.asm.asm_print_str
                0x2ffe9224       0x1c ./../build/optee-emmc-stm32mp157d-ev1/bl2/debug.o
                0x2ffe9224                asm_print_str
 .text.asm.asm_print_hex
                0x2ffe9240       0x34 ./../build/optee-emmc-stm32mp157d-ev1/bl2/debug.o
                0x2ffe9240                asm_print_hex
                0x2ffe9244                asm_print_hex_bits
 .text.asm.el3_panic
                0x2ffe9274       0x3c ./../build/optee-emmc-stm32mp157d-ev1/bl2/debug.o
                0x2ffe9274                el3_panic
 .text.asm.report_exception
                0x2ffe92b0       0x14 ./../build/optee-emmc-stm32mp157d-ev1/bl2/debug.o
                0x2ffe92b0                report_exception
 .text.asm.report_prefetch_abort
                0x2ffe92c4       0x10 ./../build/optee-emmc-stm32mp157d-ev1/bl2/debug.o
                0x2ffe92c4                report_prefetch_abort
 .text.asm.report_data_abort
                0x2ffe92d4       0x10 ./../build/optee-emmc-stm32mp157d-ev1/bl2/debug.o
                0x2ffe92d4                report_data_abort
 .text.asm.console_stm32_core_init
                0x2ffe92e4       0xac ./../build/optee-emmc-stm32mp157d-ev1/bl2/stm32_console.o
                0x2ffe92e4                console_stm32_core_init
 .text.asm.console_stm32_register
                0x2ffe9390       0x50 ./../build/optee-emmc-stm32mp157d-ev1/bl2/stm32_console.o
                0x2ffe9390                console_stm32_register
 .text.asm.console_stm32_core_putc
                0x2ffe93e0       0x24 ./../build/optee-emmc-stm32mp157d-ev1/bl2/stm32_console.o
                0x2ffe93e0                console_stm32_core_putc
 .text.asm.console_stm32_putc
                0x2ffe9404       0x20 ./../build/optee-emmc-stm32mp157d-ev1/bl2/stm32_console.o
                0x2ffe9404                console_stm32_putc
 .text.asm.console_stm32_core_flush
                0x2ffe9424       0x34 ./../build/optee-emmc-stm32mp157d-ev1/bl2/stm32_console.o
                0x2ffe9424                console_stm32_core_flush
 .text.asm.console_stm32_flush
                0x2ffe9458       0x20 ./../build/optee-emmc-stm32mp157d-ev1/bl2/stm32_console.o
                0x2ffe9458                console_stm32_flush
 .text.asm.flush_dcache_range
                0x2ffe9478       0x3c ./../build/optee-emmc-stm32mp157d-ev1/bl2/cache_helpers.o
                0x2ffe9478                flush_dcache_range
 .text.asm.clean_dcache_range
                0x2ffe94b4       0x3c ./../build/optee-emmc-stm32mp157d-ev1/bl2/cache_helpers.o
                0x2ffe94b4                clean_dcache_range
 .text.asm.inv_dcache_range
                0x2ffe94f0       0x3c ./../build/optee-emmc-stm32mp157d-ev1/bl2/cache_helpers.o
                0x2ffe94f0                inv_dcache_range
 .text.asm.do_dcsw_op
                0x2ffe952c       0xc8 ./../build/optee-emmc-stm32mp157d-ev1/bl2/cache_helpers.o
 .text.asm.dcsw_op_all
                0x2ffe95f4       0x14 ./../build/optee-emmc-stm32mp157d-ev1/bl2/cache_helpers.o
                0x2ffe95f4                dcsw_op_all
 .text.asm.zeromem
                0x2ffe9608       0x64 ./../build/optee-emmc-stm32mp157d-ev1/bl2/misc_helpers.o
                0x2ffe9608                zeromem
                0x2ffe9608                zero_normalmem
 .text.asm.disable_mmu_secure
                0x2ffe966c       0x1c ./../build/optee-emmc-stm32mp157d-ev1/bl2/misc_helpers.o
                0x2ffe966c                disable_mmu_secure
 .text.asm.disable_mmu_icache_secure
                0x2ffe9688        0xc ./../build/optee-emmc-stm32mp157d-ev1/bl2/misc_helpers.o
                0x2ffe9688                disable_mmu_icache_secure
 .text.asm.cortex_a7_enable_smp
                0x2ffe9694       0x14 ./../build/optee-emmc-stm32mp157d-ev1/bl2/cortex_a7.o
 .text.asm.cortex_a7_reset_func
                0x2ffe96a8        0x4 ./../build/optee-emmc-stm32mp157d-ev1/bl2/cortex_a7.o
 .text.asm.reset_handler
                0x2ffe96ac       0x38 ./../build/optee-emmc-stm32mp157d-ev1/bl2/cpu_helpers.o
                0x2ffe96ac                reset_handler
 .text.asm.get_cpu_ops_ptr
                0x2ffe96e4       0x5c ./../build/optee-emmc-stm32mp157d-ev1/bl2/cpu_helpers.o
                0x2ffe96e4                get_cpu_ops_ptr
 .text.asm.spin_lock
                0x2ffe9740       0x24 ./../build/optee-emmc-stm32mp157d-ev1/bl2/spinlock.o
                0x2ffe9740                spin_lock
 .text.asm.spin_unlock
                0x2ffe9764       0x18 ./../build/optee-emmc-stm32mp157d-ev1/bl2/spinlock.o
                0x2ffe9764                spin_unlock
 .text.asm.enable_mmu_direct_svc_mon
                0x2ffe977c       0x80 ./../build/optee-emmc-stm32mp157d-ev1/bl2/enable_mmu.o
                0x2ffe977c                enable_mmu_direct_svc_mon
 .text.asm.plat_set_my_stack
                0x2ffe97fc       0x10 ./../build/optee-emmc-stm32mp157d-ev1/bl2/platform_up_stack.o
                0x2ffe97fc                plat_set_my_stack
 .text.asm.stm32_pwr_down_wfi_wrapper
                0x2ffe980c       0x88 ./../build/optee-emmc-stm32mp157d-ev1/bl2/stm32mp1_critic_power_wrapper.o
                0x2ffe980c                stm32_pwr_down_wfi_wrapper
 .text.asm.platform_mem_init
                0x2ffe9894        0x4 ./../build/optee-emmc-stm32mp157d-ev1/bl2/stm32mp1_helper.o
                0x2ffe9894                platform_mem_init
 .text.asm.plat_report_exception
                0x2ffe9898       0x64 ./../build/optee-emmc-stm32mp157d-ev1/bl2/stm32mp1_helper.o
                0x2ffe9898                plat_report_exception
 .text.asm.plat_report_prefetch_abort
                0x2ffe98fc       0x58 ./../build/optee-emmc-stm32mp157d-ev1/bl2/stm32mp1_helper.o
                0x2ffe98fc                plat_report_prefetch_abort
 .text.asm.plat_report_data_abort
                0x2ffe9954       0x58 ./../build/optee-emmc-stm32mp157d-ev1/bl2/stm32mp1_helper.o
                0x2ffe9954                plat_report_data_abort
 .text.asm.plat_reset_handler
                0x2ffe99ac        0x4 ./../build/optee-emmc-stm32mp157d-ev1/bl2/stm32mp1_helper.o
                0x2ffe99ac                plat_reset_handler
 .text.asm.plat_get_my_entrypoint
                0x2ffe99b0        0x8 ./../build/optee-emmc-stm32mp157d-ev1/bl2/stm32mp1_helper.o
                0x2ffe99b0                plat_get_my_entrypoint
 .text.asm.plat_secondary_cold_boot_setup
                0x2ffe99b8        0x4 ./../build/optee-emmc-stm32mp157d-ev1/bl2/stm32mp1_helper.o
                0x2ffe99b8                plat_secondary_cold_boot_setup
 .text.asm.plat_is_my_cpu_primary
                0x2ffe99bc       0x20 ./../build/optee-emmc-stm32mp157d-ev1/bl2/stm32mp1_helper.o
                0x2ffe99bc                plat_is_my_cpu_primary
 .text.asm.plat_crash_console_init
                0x2ffe99dc       0xc0 ./../build/optee-emmc-stm32mp157d-ev1/bl2/stm32mp1_helper.o
                0x2ffe99dc                plat_crash_console_init
 .text.asm.plat_crash_console_flush
                0x2ffe9a9c        0xc ./../build/optee-emmc-stm32mp157d-ev1/bl2/stm32mp1_helper.o
                0x2ffe9a9c                plat_crash_console_flush
 .text.asm.plat_crash_console_putc
                0x2ffe9aa8        0xc ./../build/optee-emmc-stm32mp157d-ev1/bl2/stm32mp1_helper.o
                0x2ffe9aa8                plat_crash_console_putc
 .text.asm.plat_panic_handler
                0x2ffe9ab4       0x14 ./../build/optee-emmc-stm32mp157d-ev1/bl2/stm32mp1_helper.o
                0x2ffe9ab4                plat_panic_handler
                0x2ffe9ac8                        __TEXT_RESIDENT_END__ = .
 *(SORT_BY_ALIGNMENT(.text*))
 .text.bl2_load_images
                0x2ffe9ac8      0x118 ./../build/optee-emmc-stm32mp157d-ev1/bl2/bl2_image_load_v2.o
                0x2ffe9ac8                bl2_load_images
 .text.bl2_main
                0x2ffe9be0       0x54 ./../build/optee-emmc-stm32mp157d-ev1/bl2/bl2_main.o
                0x2ffe9be0                bl2_main
 .text.load_auth_image
                0x2ffe9c34      0x10c ./../build/optee-emmc-stm32mp157d-ev1/bl2/bl_common.o
                0x2ffe9c34                load_auth_image
 .text.print_entry_point_info
                0x2ffe9d40       0x20 ./../build/optee-emmc-stm32mp157d-ev1/bl2/bl_common.o
                0x2ffe9d40                print_entry_point_info
 .text.flush_bl_params_desc_args
                0x2ffe9d60       0x34 ./../build/optee-emmc-stm32mp157d-ev1/bl2/desc_image_load.o
                0x2ffe9d60                flush_bl_params_desc_args
 .text.flush_bl_params_desc
                0x2ffe9d94       0x1c ./../build/optee-emmc-stm32mp157d-ev1/bl2/desc_image_load.o
                0x2ffe9d94                flush_bl_params_desc
 .text.get_bl_params_node_index
                0x2ffe9db0       0x44 ./../build/optee-emmc-stm32mp157d-ev1/bl2/desc_image_load.o
                0x2ffe9db0                get_bl_params_node_index
 .text.get_bl_mem_params_node
                0x2ffe9df4       0x30 ./../build/optee-emmc-stm32mp157d-ev1/bl2/desc_image_load.o
                0x2ffe9df4                get_bl_mem_params_node
 .text.get_bl_load_info_from_mem_params_desc
                0x2ffe9e24       0x50 ./../build/optee-emmc-stm32mp157d-ev1/bl2/desc_image_load.o
                0x2ffe9e24                get_bl_load_info_from_mem_params_desc
 .text.get_next_bl_params_from_mem_params_desc
                0x2ffe9e74       0xc0 ./../build/optee-emmc-stm32mp157d-ev1/bl2/desc_image_load.o
                0x2ffe9e74                get_next_bl_params_from_mem_params_desc
 .text.populate_next_bl_params_config
                0x2ffe9f34       0x68 ./../build/optee-emmc-stm32mp157d-ev1/bl2/desc_image_load.o
                0x2ffe9f34                populate_next_bl_params_config
 .text.fdt_read_uint32_array
                0x2ffe9f9c       0x70 ./../build/optee-emmc-stm32mp157d-ev1/bl2/fdt_wrappers.o
                0x2ffe9f9c                fdt_read_uint32_array
 .text.fdtw_read_string
                0x2ffea00c       0x88 ./../build/optee-emmc-stm32mp157d-ev1/bl2/fdt_wrappers.o
                0x2ffea00c                fdtw_read_string
 .text.fdtw_read_uuid
                0x2ffea094       0x54 ./../build/optee-emmc-stm32mp157d-ev1/bl2/fdt_wrappers.o
                0x2ffea094                fdtw_read_uuid
 .text.fdt_get_stdout_node_offset
                0x2ffea0e8       0x74 ./../build/optee-emmc-stm32mp157d-ev1/bl2/fdt_wrappers.o
                0x2ffea0e8                fdt_get_stdout_node_offset
 .text.tf_log   0x2ffea15c       0x5c ./../build/optee-emmc-stm32mp157d-ev1/bl2/tf_log.o
                0x2ffea15c                tf_log
 .text.read_uuid
                0x2ffea1b8       0xc8 ./../build/optee-emmc-stm32mp157d-ev1/bl2/uuid.o
                0x2ffea1b8                read_uuid
 .text.tzc400_set_action
                0x2ffea280       0x24 ./../build/optee-emmc-stm32mp157d-ev1/bl2/tzc400.o
                0x2ffea280                tzc400_set_action
 .text.tzc400_init
                0x2ffea2a4       0x5c ./../build/optee-emmc-stm32mp157d-ev1/bl2/tzc400.o
                0x2ffea2a4                tzc400_init
 .text.tzc400_configure_region0
                0x2ffea300       0x2c ./../build/optee-emmc-stm32mp157d-ev1/bl2/tzc400.o
                0x2ffea300                tzc400_configure_region0
 .text.tzc400_configure_region
                0x2ffea32c       0xc4 ./../build/optee-emmc-stm32mp157d-ev1/bl2/tzc400.o
                0x2ffea32c                tzc400_configure_region
 .text.tzc400_update_filters
                0x2ffea3f0       0x44 ./../build/optee-emmc-stm32mp157d-ev1/bl2/tzc400.o
                0x2ffea3f0                tzc400_update_filters
 .text.tzc400_enable_filters
                0x2ffea434       0x68 ./../build/optee-emmc-stm32mp157d-ev1/bl2/tzc400.o
                0x2ffea434                tzc400_enable_filters
 .text.tzc400_disable_filters
                0x2ffea49c       0x50 ./../build/optee-emmc-stm32mp157d-ev1/bl2/tzc400.o
                0x2ffea49c                tzc400_disable_filters
 .text.clk_enable
                0x2ffea4ec       0x24 ./../build/optee-emmc-stm32mp157d-ev1/bl2/clk.o
                0x2ffea4ec                clk_enable
 .text.clk_disable
                0x2ffea510       0x24 ./../build/optee-emmc-stm32mp157d-ev1/bl2/clk.o
                0x2ffea510                clk_disable
 .text.clk_get_rate
                0x2ffea534       0x24 ./../build/optee-emmc-stm32mp157d-ev1/bl2/clk.o
                0x2ffea534                clk_get_rate
 .text.clk_is_enabled
                0x2ffea558       0x24 ./../build/optee-emmc-stm32mp157d-ev1/bl2/clk.o
                0x2ffea558                clk_is_enabled
 .text.clk_register
                0x2ffea57c       0x30 ./../build/optee-emmc-stm32mp157d-ev1/bl2/clk.o
                0x2ffea57c                clk_register
 .text.console_is_registered
                0x2ffea5ac       0x28 ./../build/optee-emmc-stm32mp157d-ev1/bl2/multi_console.o
                0x2ffea5ac                console_is_registered
 .text.console_register
                0x2ffea5d4       0x40 ./../build/optee-emmc-stm32mp157d-ev1/bl2/multi_console.o
                0x2ffea5d4                console_register
 .text.console_set_scope
                0x2ffea614       0x1c ./../build/optee-emmc-stm32mp157d-ev1/bl2/multi_console.o
                0x2ffea614                console_set_scope
 .text.console_putc
                0x2ffea630       0x58 ./../build/optee-emmc-stm32mp157d-ev1/bl2/multi_console.o
                0x2ffea630                console_putc
 .text.console_flush
                0x2ffea688       0x28 ./../build/optee-emmc-stm32mp157d-ev1/bl2/multi_console.o
                0x2ffea688                console_flush
 .text.udelay   0x2ffea6b0       0x70 ./../build/optee-emmc-stm32mp157d-ev1/bl2/delay_timer.o
                0x2ffea6b0                udelay
 .text.timer_init
                0x2ffea720       0x28 ./../build/optee-emmc-stm32mp157d-ev1/bl2/delay_timer.o
                0x2ffea720                timer_init
 .text.generic_delay_timer_init_args
                0x2ffea748       0x18 ./../build/optee-emmc-stm32mp157d-ev1/bl2/generic_delay_timer.o
                0x2ffea748                generic_delay_timer_init_args
 .text.generic_delay_timer_init
                0x2ffea760       0x54 ./../build/optee-emmc-stm32mp157d-ev1/bl2/generic_delay_timer.o
                0x2ffea760                generic_delay_timer_init
 .text.fwu_metadata_load
                0x2ffea7b4      0x178 ./../build/optee-emmc-stm32mp157d-ev1/bl2/fwu.o
 .text.fwu_get_alternate_boot_bank
                0x2ffea92c       0x90 ./../build/optee-emmc-stm32mp157d-ev1/bl2/fwu.o
                0x2ffea92c                fwu_get_alternate_boot_bank
 .text.fwu_get_metadata
                0x2ffea9bc       0x24 ./../build/optee-emmc-stm32mp157d-ev1/bl2/fwu.o
                0x2ffea9bc                fwu_get_metadata
 .text.fwu_init
                0x2ffea9e0       0x48 ./../build/optee-emmc-stm32mp157d-ev1/bl2/fwu.o
                0x2ffea9e0                fwu_init
 .text.block_seek
                0x2ffeaa28       0x54 ./../build/optee-emmc-stm32mp157d-ev1/bl2/io_block.o
 .text.block_open
                0x2ffeaa7c       0x4c ./../build/optee-emmc-stm32mp157d-ev1/bl2/io_block.o
 .text.block_write
                0x2ffeaac8      0x11c ./../build/optee-emmc-stm32mp157d-ev1/bl2/io_block.o
 .text.block_read
                0x2ffeabe4       0xe4 ./../build/optee-emmc-stm32mp157d-ev1/bl2/io_block.o
 .text.block_dev_close
                0x2ffeacc8       0x48 ./../build/optee-emmc-stm32mp157d-ev1/bl2/io_block.o
 .text.block_dev_open
                0x2ffead10       0x78 ./../build/optee-emmc-stm32mp157d-ev1/bl2/io_block.o
 .text.register_io_dev_block
                0x2ffead88       0x2c ./../build/optee-emmc-stm32mp157d-ev1/bl2/io_block.o
                0x2ffead88                register_io_dev_block
 .text.fip_file_close
                0x2ffeadb4       0x20 ./../build/optee-emmc-stm32mp157d-ev1/bl2/io_fip.o
 .text.fip_dev_init
                0x2ffeadd4       0x9c ./../build/optee-emmc-stm32mp157d-ev1/bl2/io_fip.o
 .text.fip_file_read
                0x2ffeae70       0xb4 ./../build/optee-emmc-stm32mp157d-ev1/bl2/io_fip.o
 .text.fip_file_len
                0x2ffeaf24       0x24 ./../build/optee-emmc-stm32mp157d-ev1/bl2/io_fip.o
 .text.fip_file_open
                0x2ffeaf48       0xf0 ./../build/optee-emmc-stm32mp157d-ev1/bl2/io_fip.o
 .text.fip_dev_close
                0x2ffeb038       0x50 ./../build/optee-emmc-stm32mp157d-ev1/bl2/io_fip.o
 .text.fip_dev_open
                0x2ffeb088       0x4c ./../build/optee-emmc-stm32mp157d-ev1/bl2/io_fip.o
 .text.register_io_dev_fip
                0x2ffeb0d4       0x2c ./../build/optee-emmc-stm32mp157d-ev1/bl2/io_fip.o
                0x2ffeb0d4                register_io_dev_fip
 .text.free_entity.isra.0
                0x2ffeb100       0x40 ./../build/optee-emmc-stm32mp157d-ev1/bl2/io_storage.o
 .text.io_register_device
                0x2ffeb140       0x28 ./../build/optee-emmc-stm32mp157d-ev1/bl2/io_storage.o
                0x2ffeb140                io_register_device
 .text.io_dev_open
                0x2ffeb168       0x28 ./../build/optee-emmc-stm32mp157d-ev1/bl2/io_storage.o
                0x2ffeb168                io_dev_open
 .text.io_dev_init
                0x2ffeb190       0x34 ./../build/optee-emmc-stm32mp157d-ev1/bl2/io_storage.o
                0x2ffeb190                io_dev_init
 .text.io_dev_close
                0x2ffeb1c4       0x30 ./../build/optee-emmc-stm32mp157d-ev1/bl2/io_storage.o
                0x2ffeb1c4                io_dev_close
 .text.io_open  0x2ffeb1f4       0x94 ./../build/optee-emmc-stm32mp157d-ev1/bl2/io_storage.o
                0x2ffeb1f4                io_open
 .text.io_seek  0x2ffeb288       0x4c ./../build/optee-emmc-stm32mp157d-ev1/bl2/io_storage.o
                0x2ffeb288                io_seek
 .text.io_size  0x2ffeb2d4       0x34 ./../build/optee-emmc-stm32mp157d-ev1/bl2/io_storage.o
                0x2ffeb2d4                io_size
 .text.io_read  0x2ffeb308       0x48 ./../build/optee-emmc-stm32mp157d-ev1/bl2/io_storage.o
                0x2ffeb308                io_read
 .text.io_close
                0x2ffeb350       0x30 ./../build/optee-emmc-stm32mp157d-ev1/bl2/io_storage.o
                0x2ffeb350                io_close
 .text.mmc_send_cmd
                0x2ffeb380       0x40 ./../build/optee-emmc-stm32mp157d-ev1/bl2/mmc.o
 .text.mmc_device_state
                0x2ffeb3c0       0x54 ./../build/optee-emmc-stm32mp157d-ev1/bl2/mmc.o
 .text.sd_switch.constprop.0
                0x2ffeb414       0x44 ./../build/optee-emmc-stm32mp157d-ev1/bl2/mmc.o
 .text.mmc_read_blocks
                0x2ffeb458       0xd8 ./../build/optee-emmc-stm32mp157d-ev1/bl2/mmc.o
                0x2ffeb458                mmc_read_blocks
 .text.mmc_init
                0x2ffeb530      0x4d4 ./../build/optee-emmc-stm32mp157d-ev1/bl2/mmc.o
                0x2ffeb530                mmc_init
 .text.parse_gpt_entry
                0x2ffeba04       0xb0 ./../build/optee-emmc-stm32mp157d-ev1/bl2/gpt.o
                0x2ffeba04                parse_gpt_entry
 .text.load_gpt_header
                0x2ffebab4       0x80 ./../build/optee-emmc-stm32mp157d-ev1/bl2/partition.o
 .text.load_partition_gpt
                0x2ffebb34       0x6c ./../build/optee-emmc-stm32mp157d-ev1/bl2/partition.o
 .text.load_partition_table
                0x2ffebba0      0x204 ./../build/optee-emmc-stm32mp157d-ev1/bl2/partition.o
                0x2ffebba0                load_partition_table
 .text.get_partition_entry
                0x2ffebda4       0x34 ./../build/optee-emmc-stm32mp157d-ev1/bl2/partition.o
                0x2ffebda4                get_partition_entry
 .text.get_partition_entry_by_type
                0x2ffebdd8       0x38 ./../build/optee-emmc-stm32mp157d-ev1/bl2/partition.o
                0x2ffebdd8                get_partition_entry_by_type
 .text.get_partition_entry_by_guid
                0x2ffebe10       0x38 ./../build/optee-emmc-stm32mp157d-ev1/bl2/partition.o
                0x2ffebe10                get_partition_entry_by_guid
 .text.partition_init
                0x2ffebe48       0x1c ./../build/optee-emmc-stm32mp157d-ev1/bl2/partition.o
                0x2ffebe48                partition_init
 .text.is_otp_invalid_mode
                0x2ffebe64       0x28 ./../build/optee-emmc-stm32mp157d-ev1/bl2/bsec2.o
 .text.bsec_lock
                0x2ffebe8c       0x18 ./../build/optee-emmc-stm32mp157d-ev1/bl2/bsec2.o
 .text.bsec_unlock
                0x2ffebea4       0x18 ./../build/optee-emmc-stm32mp157d-ev1/bl2/bsec2.o
 .text.bsec_power_safmem
                0x2ffebebc       0x58 ./../build/optee-emmc-stm32mp157d-ev1/bl2/bsec2.o
 .text.otp_bank_offset
                0x2ffebf14       0x18 ./../build/optee-emmc-stm32mp157d-ev1/bl2/bsec2.o
 .text.bsec_check_error
                0x2ffebf2c       0x34 ./../build/optee-emmc-stm32mp157d-ev1/bl2/bsec2.o
 .text.bsec_probe
                0x2ffebf60       0x3c ./../build/optee-emmc-stm32mp157d-ev1/bl2/bsec2.o
                0x2ffebf60                bsec_probe
 .text.bsec_read_debug_conf
                0x2ffebf9c        0xc ./../build/optee-emmc-stm32mp157d-ev1/bl2/bsec2.o
                0x2ffebf9c                bsec_read_debug_conf
 .text.bsec_read_sr_lock
                0x2ffebfa8       0x34 ./../build/optee-emmc-stm32mp157d-ev1/bl2/bsec2.o
                0x2ffebfa8                bsec_read_sr_lock
 .text.bsec_read_sw_lock
                0x2ffebfdc       0x34 ./../build/optee-emmc-stm32mp157d-ev1/bl2/bsec2.o
                0x2ffebfdc                bsec_read_sw_lock
 .text.bsec_write_otp
                0x2ffec010       0x4c ./../build/optee-emmc-stm32mp157d-ev1/bl2/bsec2.o
                0x2ffec010                bsec_write_otp
 .text.bsec_read_sp_lock
                0x2ffec05c       0x34 ./../build/optee-emmc-stm32mp157d-ev1/bl2/bsec2.o
                0x2ffec05c                bsec_read_sp_lock
 .text.bsec_program_otp
                0x2ffec090       0xf0 ./../build/optee-emmc-stm32mp157d-ev1/bl2/bsec2.o
                0x2ffec090                bsec_program_otp
 .text.bsec_shadow_read_otp
                0x2ffec180       0xb8 ./../build/optee-emmc-stm32mp157d-ev1/bl2/bsec2.o
                0x2ffec180                bsec_shadow_read_otp
 .text.stm32mp1_check_pll_conf
                0x2ffec238       0xfc ./../build/optee-emmc-stm32mp157d-ev1/bl2/stm32mp1_clk.o
 .text.stm32mp1_pll_config_output
                0x2ffec334       0x34 ./../build/optee-emmc-stm32mp157d-ev1/bl2/stm32mp1_clk.o
 .text.stm32mp1_clk_get_gated_id
                0x2ffec368       0x34 ./../build/optee-emmc-stm32mp157d-ev1/bl2/stm32mp1_clk.o
 .text.stm32mp1_clk_get_parent
                0x2ffec39c       0x78 ./../build/optee-emmc-stm32mp157d-ev1/bl2/stm32mp1_clk.o
 .text.stm32mp_clk_is_enabled
                0x2ffec414       0x40 ./../build/optee-emmc-stm32mp157d-ev1/bl2/stm32mp1_clk.o
 .text.stm32mp_clk_disable
                0x2ffec454       0x90 ./../build/optee-emmc-stm32mp157d-ev1/bl2/stm32mp1_clk.o
 .text.stm32mp_clk_enable
                0x2ffec4e4       0x8c ./../build/optee-emmc-stm32mp157d-ev1/bl2/stm32mp1_clk.o
 .text.stm32_clk_configure_mux
                0x2ffec570       0x90 ./../build/optee-emmc-stm32mp157d-ev1/bl2/stm32mp1_clk.o
 .text.stm32mp1_read_pll_freq
                0x2ffec600       0xac ./../build/optee-emmc-stm32mp157d-ev1/bl2/stm32mp1_clk.o
 .text.stm32mp_clk_get_rate
                0x2ffec6ac      0x204 ./../build/optee-emmc-stm32mp157d-ev1/bl2/stm32mp1_clk.o
 .text.stm32mp1_osc_wait.isra.0
                0x2ffec8b0       0x54 ./../build/optee-emmc-stm32mp157d-ev1/bl2/stm32mp1_clk.o
 .text.clk_stm32_set_div
                0x2ffec904       0x94 ./../build/optee-emmc-stm32mp157d-ev1/bl2/stm32mp1_clk.o
                0x2ffec904                clk_stm32_set_div
 .text.stm32mp1_clk_rcc_regs_lock
                0x2ffec998        0xc ./../build/optee-emmc-stm32mp157d-ev1/bl2/stm32mp1_clk.o
                0x2ffec998                stm32mp1_clk_rcc_regs_lock
 .text.stm32mp1_clk_rcc_regs_unlock
                0x2ffec9a4        0xc ./../build/optee-emmc-stm32mp157d-ev1/bl2/stm32mp1_clk.o
                0x2ffec9a4                stm32mp1_clk_rcc_regs_unlock
 .text.stm32mp1_clk_init
                0x2ffec9b0      0x944 ./../build/optee-emmc-stm32mp157d-ev1/bl2/stm32mp1_clk.o
                0x2ffec9b0                stm32mp1_clk_init
 .text.stm32mp1_clk_probe
                0x2ffed2f4      0x214 ./../build/optee-emmc-stm32mp157d-ev1/bl2/stm32mp1_clk.o
                0x2ffed2f4                stm32mp1_clk_probe
 .text.fdt_osc_read_freq
                0x2ffed508       0x8c ./../build/optee-emmc-stm32mp157d-ev1/bl2/stm32mp_clkfunc.o
                0x2ffed508                fdt_osc_read_freq
 .text.fdt_clk_read_bool
                0x2ffed594       0x68 ./../build/optee-emmc-stm32mp157d-ev1/bl2/stm32mp_clkfunc.o
                0x2ffed594                fdt_clk_read_bool
 .text.fdt_clk_read_uint32_default
                0x2ffed5fc       0x64 ./../build/optee-emmc-stm32mp157d-ev1/bl2/stm32mp_clkfunc.o
                0x2ffed5fc                fdt_clk_read_uint32_default
 .text.fdt_get_clock_id
                0x2ffed660       0x34 ./../build/optee-emmc-stm32mp157d-ev1/bl2/stm32mp_clkfunc.o
                0x2ffed660                fdt_get_clock_id
 .text.stm32mp_stgen_config
                0x2ffed694       0x4c ./../build/optee-emmc-stm32mp157d-ev1/bl2/stm32mp_clkfunc.o
                0x2ffed694                stm32mp_stgen_config
 .text.stm32mp_stgen_restore_rate
                0x2ffed6e0       0x10 ./../build/optee-emmc-stm32mp157d-ev1/bl2/stm32mp_clkfunc.o
                0x2ffed6e0                stm32mp_stgen_restore_rate
 .text.stm32mp1_ddr_init
                0x2ffed6f0      0x4b4 ./../build/optee-emmc-stm32mp157d-ev1/bl2/stm32mp1_ddr.o
                0x2ffed6f0                stm32mp1_ddr_init
 .text.ddr_sw_self_refresh_exit
                0x2ffedba4      0x1e4 ./../build/optee-emmc-stm32mp157d-ev1/bl2/stm32mp1_ddr_helpers.o
                0x2ffedba4                ddr_sw_self_refresh_exit
 .text.ddr_read_sr_mode
                0x2ffedd88       0x18 ./../build/optee-emmc-stm32mp157d-ev1/bl2/stm32mp1_ddr_helpers.o
                0x2ffedd88                ddr_read_sr_mode
 .text.ddr_set_sr_mode
                0x2ffedda0      0x1f0 ./../build/optee-emmc-stm32mp157d-ev1/bl2/stm32mp1_ddr_helpers.o
                0x2ffedda0                ddr_set_sr_mode
 .text.stm32mp1_ddr_setup
                0x2ffedf90      0x154 ./../build/optee-emmc-stm32mp157d-ev1/bl2/stm32mp1_ram.o
 .text.stm32mp1_ddr_clk_enable
                0x2ffee0e4       0x48 ./../build/optee-emmc-stm32mp157d-ev1/bl2/stm32mp1_ram.o
                0x2ffee0e4                stm32mp1_ddr_clk_enable
 .text.stm32mp1_ddr_is_restored
                0x2ffee12c        0xc ./../build/optee-emmc-stm32mp157d-ev1/bl2/stm32mp1_ram.o
                0x2ffee12c                stm32mp1_ddr_is_restored
 .text.stm32mp1_ddr_probe
                0x2ffee138       0x3c ./../build/optee-emmc-stm32mp157d-ev1/bl2/stm32mp1_ram.o
                0x2ffee138                stm32mp1_ddr_probe
 .text.stm32mp_ddr_set_reg
                0x2ffee174       0x48 ./../build/optee-emmc-stm32mp157d-ev1/bl2/stm32mp_ddr.o
                0x2ffee174                stm32mp_ddr_set_reg
 .text.stm32mp_ddr_sw_selfref_entry
                0x2ffee1bc       0x58 ./../build/optee-emmc-stm32mp157d-ev1/bl2/stm32mp_ddr.o
                0x2ffee1bc                stm32mp_ddr_sw_selfref_entry
 .text.stm32mp_ddr_set_qd3_update_conditions
                0x2ffee214       0x4c ./../build/optee-emmc-stm32mp157d-ev1/bl2/stm32mp_ddr.o
                0x2ffee214                stm32mp_ddr_set_qd3_update_conditions
 .text.stm32mp_ddr_unset_qd3_update_conditions
                0x2ffee260       0x38 ./../build/optee-emmc-stm32mp157d-ev1/bl2/stm32mp_ddr.o
                0x2ffee260                stm32mp_ddr_unset_qd3_update_conditions
 .text.stm32mp_ddr_dt_get_info
                0x2ffee298       0x50 ./../build/optee-emmc-stm32mp157d-ev1/bl2/stm32mp_ram.o
                0x2ffee298                stm32mp_ddr_dt_get_info
 .text.stm32mp_ddr_dt_get_param
                0x2ffee2e8       0x54 ./../build/optee-emmc-stm32mp157d-ev1/bl2/stm32mp_ram.o
                0x2ffee2e8                stm32mp_ddr_dt_get_param
 .text.set_gpio.isra.0
                0x2ffee33c       0xf0 ./../build/optee-emmc-stm32mp157d-ev1/bl2/stm32_gpio.o
 .text.dt_set_pinctrl_config
                0x2ffee42c      0x240 ./../build/optee-emmc-stm32mp157d-ev1/bl2/stm32_gpio.o
                0x2ffee42c                dt_set_pinctrl_config
 .text.i2c_transfer_config.isra.0
                0x2ffee66c       0x2c ./../build/optee-emmc-stm32mp157d-ev1/bl2/stm32_i2c.o
 .text.i2c_read.isra.0
                0x2ffee698      0x1f0 ./../build/optee-emmc-stm32mp157d-ev1/bl2/stm32_i2c.o
 .text.i2c_write
                0x2ffee888      0x218 ./../build/optee-emmc-stm32mp157d-ev1/bl2/stm32_i2c.o
 .text.stm32_i2c_get_setup_from_fdt
                0x2ffeeaa0       0x64 ./../build/optee-emmc-stm32mp157d-ev1/bl2/stm32_i2c.o
                0x2ffeeaa0                stm32_i2c_get_setup_from_fdt
 .text.stm32_i2c_init
                0x2ffeeb04      0x434 ./../build/optee-emmc-stm32mp157d-ev1/bl2/stm32_i2c.o
                0x2ffeeb04                stm32_i2c_init
 .text.stm32_i2c_is_device_ready
                0x2ffeef38      0x130 ./../build/optee-emmc-stm32mp157d-ev1/bl2/stm32_i2c.o
                0x2ffeef38                stm32_i2c_is_device_ready
 .text.fdt_get_clk_by_name
                0x2ffef068       0x4c ./../build/optee-emmc-stm32mp157d-ev1/bl2/stm32_iwdg.o
 .text.stm32_iwdg_refresh
                0x2ffef0b4       0x40 ./../build/optee-emmc-stm32mp157d-ev1/bl2/stm32_iwdg.o
                0x2ffef0b4                stm32_iwdg_refresh
 .text.stm32_iwdg_init
                0x2ffef0f4      0x184 ./../build/optee-emmc-stm32mp157d-ev1/bl2/stm32_iwdg.o
                0x2ffef0f4                stm32_iwdg_init
 .text.stm32_sdmmc2_set_ios
                0x2ffef278       0x78 ./../build/optee-emmc-stm32mp157d-ev1/bl2/stm32_sdmmc2.o
 .text.stm32_sdmmc2_init
                0x2ffef2f0       0x8c ./../build/optee-emmc-stm32mp157d-ev1/bl2/stm32_sdmmc2.o
 .text.stm32_sdmmc2_send_cmd
                0x2ffef37c      0x318 ./../build/optee-emmc-stm32mp157d-ev1/bl2/stm32_sdmmc2.o
 .text.stm32_sdmmc2_read
                0x2ffef694      0x138 ./../build/optee-emmc-stm32mp157d-ev1/bl2/stm32_sdmmc2.o
 .text.stm32_sdmmc2_prepare
                0x2ffef7cc       0xb4 ./../build/optee-emmc-stm32mp157d-ev1/bl2/stm32_sdmmc2.o
 .text.stm32_sdmmc2_mmc_init
                0x2ffef880      0x184 ./../build/optee-emmc-stm32mp157d-ev1/bl2/stm32_sdmmc2.o
                0x2ffef880                stm32_sdmmc2_mmc_init
 .text.nvmem_driver_register
                0x2ffefa04       0x24 ./../build/optee-emmc-stm32mp157d-ev1/bl2/nvmem.o
                0x2ffefa04                nvmem_driver_register
 .text.nvmem_get_cell_by_index
                0x2ffefa28       0x90 ./../build/optee-emmc-stm32mp157d-ev1/bl2/nvmem.o
                0x2ffefa28                nvmem_get_cell_by_index
 .text.nvmem_get_cell_by_name
                0x2ffefab8       0x2c ./../build/optee-emmc-stm32mp157d-ev1/bl2/nvmem.o
                0x2ffefab8                nvmem_get_cell_by_name
 .text.stm32_tamp_nvram_write_bkp
                0x2ffefae4       0x68 ./../build/optee-emmc-stm32mp157d-ev1/bl2/stm32mp_tamp_nvram_core.o
 .text.stm32_tamp_nvram_read_bkp.constprop.0.isra.0
                0x2ffefb4c       0x68 ./../build/optee-emmc-stm32mp157d-ev1/bl2/stm32mp_tamp_nvram_core.o
 .text.stm32_tamp_nvram_read_cell
                0x2ffefbb4       0xa4 ./../build/optee-emmc-stm32mp157d-ev1/bl2/stm32mp_tamp_nvram_core.o
 .text.stm32_tamp_nvram_write_cell
                0x2ffefc58       0xc4 ./../build/optee-emmc-stm32mp157d-ev1/bl2/stm32mp_tamp_nvram_core.o
 .text.stm32_tamp_nvram_update_rights
                0x2ffefd1c       0xc4 ./../build/optee-emmc-stm32mp157d-ev1/bl2/stm32mp_tamp_nvram_core.o
                0x2ffefd1c                stm32_tamp_nvram_update_rights
 .text.stm32_tamp_nvram_init
                0x2ffefde0       0xc4 ./../build/optee-emmc-stm32mp157d-ev1/bl2/stm32mp_tamp_nvram_core.o
                0x2ffefde0                stm32_tamp_nvram_init
 .text.stm32_tamp_nvram_get_cdata
                0x2ffefea4        0x8 ./../build/optee-emmc-stm32mp157d-ev1/bl2/stm32mp_tamp_nvram_mp1.o
                0x2ffefea4                stm32_tamp_nvram_get_cdata
 .text.stm32_tamp_nvram_get_access_rights
                0x2ffefeac        0x8 ./../build/optee-emmc-stm32mp157d-ev1/bl2/stm32mp_tamp_nvram_mp1.o
                0x2ffefeac                stm32_tamp_nvram_get_access_rights
 .text.dt_get_pmic_node
                0x2ffefeb4       0x24 ./../build/optee-emmc-stm32mp157d-ev1/bl2/stm32mp_pmic.o
 .text.handle_pmic_property
                0x2ffefed8       0x30 ./../build/optee-emmc-stm32mp157d-ev1/bl2/stm32mp_pmic.o
 .text.dt_pmic_status
                0x2ffeff08       0x34 ./../build/optee-emmc-stm32mp157d-ev1/bl2/stm32mp_pmic.o
                0x2ffeff08                dt_pmic_status
 .text.initialize_pmic_i2c
                0x2ffeff3c      0x10c ./../build/optee-emmc-stm32mp157d-ev1/bl2/stm32mp_pmic.o
                0x2ffeff3c                initialize_pmic_i2c
 .text.initialize_pmic
                0x2fff0048      0x114 ./../build/optee-emmc-stm32mp157d-ev1/bl2/stm32mp_pmic.o
                0x2fff0048                initialize_pmic
 .text.print_pmic_info_and_debug
                0x2fff015c       0x30 ./../build/optee-emmc-stm32mp157d-ev1/bl2/stm32mp_pmic.o
                0x2fff015c                print_pmic_info_and_debug
 .text.get_regulator_data
                0x2fff018c       0x44 ./../build/optee-emmc-stm32mp157d-ev1/bl2/stpmic1.o
 .text.stpmic1_regulator_levels_mv
                0x2fff01d0       0x40 ./../build/optee-emmc-stm32mp157d-ev1/bl2/stpmic1.o
                0x2fff01d0                stpmic1_regulator_levels_mv
 .text.stpmic1_register_read
                0x2fff0210       0x28 ./../build/optee-emmc-stm32mp157d-ev1/bl2/stpmic1.o
                0x2fff0210                stpmic1_register_read
 .text.stpmic1_regulator_voltage_get
                0x2fff0238       0x90 ./../build/optee-emmc-stm32mp157d-ev1/bl2/stpmic1.o
                0x2fff0238                stpmic1_regulator_voltage_get
 .text.stpmic1_register_write
                0x2fff02c8       0x60 ./../build/optee-emmc-stm32mp157d-ev1/bl2/stpmic1.o
                0x2fff02c8                stpmic1_register_write
 .text.stpmic1_regulator_voltage_set
                0x2fff0328       0x98 ./../build/optee-emmc-stm32mp157d-ev1/bl2/stpmic1.o
                0x2fff0328                stpmic1_regulator_voltage_set
 .text.stpmic1_regulator_sink_mode_set
                0x2fff03c0       0x30 ./../build/optee-emmc-stm32mp157d-ev1/bl2/stpmic1.o
                0x2fff03c0                stpmic1_regulator_sink_mode_set
 .text.stpmic1_regulator_bypass_mode_set
                0x2fff03f0       0x30 ./../build/optee-emmc-stm32mp157d-ev1/bl2/stpmic1.o
                0x2fff03f0                stpmic1_regulator_bypass_mode_set
 .text.stpmic1_active_discharge_mode_set
                0x2fff0420       0x3c ./../build/optee-emmc-stm32mp157d-ev1/bl2/stpmic1.o
                0x2fff0420                stpmic1_active_discharge_mode_set
 .text.stpmic1_bind_i2c
                0x2fff045c       0x14 ./../build/optee-emmc-stm32mp157d-ev1/bl2/stpmic1.o
                0x2fff045c                stpmic1_bind_i2c
 .text.regulator_get_by_supply_name
                0x2fff0470       0x74 ./../build/optee-emmc-stm32mp157d-ev1/bl2/regulator_core.o
                0x2fff0470                regulator_get_by_supply_name
 .text.regulator_enable
                0x2fff04e4       0x30 ./../build/optee-emmc-stm32mp157d-ev1/bl2/regulator_core.o
                0x2fff04e4                regulator_enable
 .text.regulator_disable
                0x2fff0514       0x3c ./../build/optee-emmc-stm32mp157d-ev1/bl2/regulator_core.o
                0x2fff0514                regulator_disable
 .text.regulator_get_voltage
                0x2fff0550       0x4c ./../build/optee-emmc-stm32mp157d-ev1/bl2/regulator_core.o
                0x2fff0550                regulator_get_voltage
 .text.regulator_set_voltage
                0x2fff059c       0x6c ./../build/optee-emmc-stm32mp157d-ev1/bl2/regulator_core.o
                0x2fff059c                regulator_set_voltage
 .text.regulator_list_voltages
                0x2fff0608       0xe0 ./../build/optee-emmc-stm32mp157d-ev1/bl2/regulator_core.o
                0x2fff0608                regulator_list_voltages
 .text.regulator_get_range
                0x2fff06e8       0x20 ./../build/optee-emmc-stm32mp157d-ev1/bl2/regulator_core.o
                0x2fff06e8                regulator_get_range
 .text.regulator_register
                0x2fff0708      0x180 ./../build/optee-emmc-stm32mp157d-ev1/bl2/regulator_core.o
                0x2fff0708                regulator_register
 .text.fixed_regulator_register
                0x2fff0888       0xc8 ./../build/optee-emmc-stm32mp157d-ev1/bl2/regulator_fixed.o
                0x2fff0888                fixed_regulator_register
 .text.stm32mp_reset_assert
                0x2fff0950       0x60 ./../build/optee-emmc-stm32mp157d-ev1/bl2/stm32mp1_reset.o
                0x2fff0950                stm32mp_reset_assert
 .text.stm32mp_reset_deassert
                0x2fff09b0       0x60 ./../build/optee-emmc-stm32mp157d-ev1/bl2/stm32mp1_reset.o
                0x2fff09b0                stm32mp_reset_deassert
 .text.fconf_populate
                0x2fff0a10       0x88 ./../build/optee-emmc-stm32mp157d-ev1/bl2/fconf.o
                0x2fff0a10                fconf_populate
 .text.set_config_info
                0x2fff0a98       0x40 ./../build/optee-emmc-stm32mp157d-ev1/bl2/fconf_dyn_cfg_getter.o
                0x2fff0a98                set_config_info
 .text.fconf_populate_dtb_registry
                0x2fff0ad8      0x10c ./../build/optee-emmc-stm32mp157d-ev1/bl2/fconf_dyn_cfg_getter.o
                0x2fff0ad8                fconf_populate_dtb_registry
 .text.dyn_cfg_dtb_info_get_index
                0x2fff0be4       0x20 ./../build/optee-emmc-stm32mp157d-ev1/bl2/fconf_dyn_cfg_getter.o
                0x2fff0be4                dyn_cfg_dtb_info_get_index
 .text.dyn_cfg_dtb_info_getter
                0x2fff0c04       0x28 ./../build/optee-emmc-stm32mp157d-ev1/bl2/fconf_dyn_cfg_getter.o
                0x2fff0c04                dyn_cfg_dtb_info_getter
 .text.parse_optee_image
                0x2fff0c2c       0x60 ./../build/optee-emmc-stm32mp157d-ev1/bl2/optee_utils.o
 .text.optee_header_is_valid
                0x2fff0c8c       0x24 ./../build/optee-emmc-stm32mp157d-ev1/bl2/optee_utils.o
                0x2fff0c8c                optee_header_is_valid
 .text.parse_optee_header
                0x2fff0cb0      0x114 ./../build/optee-emmc-stm32mp157d-ev1/bl2/optee_utils.o
                0x2fff0cb0                parse_optee_header
 .text.xlat_arch_regime_get_xn_desc
                0x2fff0dc4       0x28 ./../build/optee-emmc-stm32mp157d-ev1/bl2/xlat_tables_arch.o
                0x2fff0dc4                xlat_arch_regime_get_xn_desc
 .text.xlat_arch_tlbi_va
                0x2fff0dec       0x2c ./../build/optee-emmc-stm32mp157d-ev1/bl2/xlat_tables_arch.o
                0x2fff0dec                xlat_arch_tlbi_va
 .text.xlat_arch_current_el
                0x2fff0e18       0x3c ./../build/optee-emmc-stm32mp157d-ev1/bl2/xlat_tables_arch.o
                0x2fff0e18                xlat_arch_current_el
 .text.is_mmu_enabled_ctx
                0x2fff0e54       0x40 ./../build/optee-emmc-stm32mp157d-ev1/bl2/xlat_tables_arch.o
                0x2fff0e54                is_mmu_enabled_ctx
 .text.setup_mmu_cfg
                0x2fff0e94       0xac ./../build/optee-emmc-stm32mp157d-ev1/bl2/xlat_tables_arch.o
                0x2fff0e94                setup_mmu_cfg
 .text.mmap_add_region
                0x2fff0f40       0x28 ./../build/optee-emmc-stm32mp157d-ev1/bl2/xlat_tables_context.o
                0x2fff0f40                mmap_add_region
 .text.mmap_add
                0x2fff0f68        0xc ./../build/optee-emmc-stm32mp157d-ev1/bl2/xlat_tables_context.o
                0x2fff0f68                mmap_add
 .text.mmap_add_dynamic_region
                0x2fff0f74       0x28 ./../build/optee-emmc-stm32mp157d-ev1/bl2/xlat_tables_context.o
                0x2fff0f74                mmap_add_dynamic_region
 .text.mmap_remove_dynamic_region
                0x2fff0f9c       0x10 ./../build/optee-emmc-stm32mp157d-ev1/bl2/xlat_tables_context.o
                0x2fff0f9c                mmap_remove_dynamic_region
 .text.init_xlat_tables
                0x2fff0fac       0x3c ./../build/optee-emmc-stm32mp157d-ev1/bl2/xlat_tables_context.o
                0x2fff0fac                init_xlat_tables
 .text.enable_mmu_svc_mon
                0x2fff0fe8       0x34 ./../build/optee-emmc-stm32mp157d-ev1/bl2/xlat_tables_context.o
                0x2fff0fe8                enable_mmu_svc_mon
 .text.xlat_table_get_index
                0x2fff101c       0x28 ./../build/optee-emmc-stm32mp157d-ev1/bl2/xlat_tables_core.o
 .text.xlat_tables_unmap_region
                0x2fff1044      0x138 ./../build/optee-emmc-stm32mp157d-ev1/bl2/xlat_tables_core.o
 .text.xlat_desc
                0x2fff117c       0xc4 ./../build/optee-emmc-stm32mp157d-ev1/bl2/xlat_tables_core.o
                0x2fff117c                xlat_desc
 .text.xlat_tables_map_region
                0x2fff1240      0x1ac ./../build/optee-emmc-stm32mp157d-ev1/bl2/xlat_tables_core.o
 .text.mmap_add_region_ctx
                0x2fff13ec       0xf0 ./../build/optee-emmc-stm32mp157d-ev1/bl2/xlat_tables_core.o
                0x2fff13ec                mmap_add_region_ctx
 .text.mmap_add_dynamic_region_ctx
                0x2fff14dc      0x154 ./../build/optee-emmc-stm32mp157d-ev1/bl2/xlat_tables_core.o
                0x2fff14dc                mmap_add_dynamic_region_ctx
 .text.mmap_remove_dynamic_region_ctx
                0x2fff1630      0x108 ./../build/optee-emmc-stm32mp157d-ev1/bl2/xlat_tables_core.o
                0x2fff1630                mmap_remove_dynamic_region_ctx
 .text.init_xlat_tables_ctx
                0x2fff1738      0x140 ./../build/optee-emmc-stm32mp157d-ev1/bl2/xlat_tables_core.o
                0x2fff1738                init_xlat_tables_ctx
 .text.crc32_z  0x2fff1878       0xc8 ./../build/optee-emmc-stm32mp157d-ev1/bl2/crc32.o
                0x2fff1878                crc32_z
 .text.plat_log_get_prefix
                0x2fff1940       0x24 ./../build/optee-emmc-stm32mp157d-ev1/bl2/plat_log_common.o
                0x2fff1940                plat_log_get_prefix
 .text.open_fip
                0x2fff1964       0x10 ./../build/optee-emmc-stm32mp157d-ev1/bl2/bl2_io_storage.o
                0x2fff1964                open_fip
 .text.open_storage
                0x2fff1974       0x10 ./../build/optee-emmc-stm32mp157d-ev1/bl2/bl2_io_storage.o
                0x2fff1974                open_storage
 .text.stm32mp_io_setup
                0x2fff1984      0x180 ./../build/optee-emmc-stm32mp157d-ev1/bl2/bl2_io_storage.o
                0x2fff1984                stm32mp_io_setup
 .text.bl2_plat_handle_pre_image_load
                0x2fff1b04       0x60 ./../build/optee-emmc-stm32mp157d-ev1/bl2/bl2_io_storage.o
                0x2fff1b04                bl2_plat_handle_pre_image_load
 .text.plat_get_image_source
                0x2fff1b64       0x44 ./../build/optee-emmc-stm32mp157d-ev1/bl2/bl2_io_storage.o
                0x2fff1b64                plat_get_image_source
 .text.plat_fwu_get_boot_idx
                0x2fff1ba8       0xac ./../build/optee-emmc-stm32mp157d-ev1/bl2/bl2_io_storage.o
                0x2fff1ba8                plat_fwu_get_boot_idx
 .text.plat_fwu_set_images_source
                0x2fff1c54       0x98 ./../build/optee-emmc-stm32mp157d-ev1/bl2/bl2_io_storage.o
                0x2fff1c54                plat_fwu_set_images_source
 .text.plat_fwu_set_metadata_image_source
                0x2fff1cec       0xb4 ./../build/optee-emmc-stm32mp157d-ev1/bl2/bl2_io_storage.o
                0x2fff1cec                plat_fwu_set_metadata_image_source
 .text.stm32_get_bootinfo_cell
                0x2fff1da0       0x3c ./../build/optee-emmc-stm32mp157d-ev1/bl2/stm32mp_common.o
 .text.stm32mp_save_boot_ctx_address
                0x2fff1ddc       0x40 ./../build/optee-emmc-stm32mp157d-ev1/bl2/stm32mp_common.o
                0x2fff1ddc                stm32mp_save_boot_ctx_address
 .text.stm32mp_get_boot_ctx_address
                0x2fff1e1c        0xc ./../build/optee-emmc-stm32mp157d-ev1/bl2/stm32mp_common.o
                0x2fff1e1c                stm32mp_get_boot_ctx_address
 .text.stm32mp_get_boot_itf_selected
                0x2fff1e28        0xc ./../build/optee-emmc-stm32mp157d-ev1/bl2/stm32mp_common.o
                0x2fff1e28                stm32mp_get_boot_itf_selected
 .text.stm32mp_get_boot_action
                0x2fff1e34        0xc ./../build/optee-emmc-stm32mp157d-ev1/bl2/stm32mp_common.o
                0x2fff1e34                stm32mp_get_boot_action
 .text.stm32mp_ddrctrl_base
                0x2fff1e40        0x8 ./../build/optee-emmc-stm32mp157d-ev1/bl2/stm32mp_common.o
                0x2fff1e40                stm32mp_ddrctrl_base
 .text.stm32mp_ddrphyc_base
                0x2fff1e48        0x8 ./../build/optee-emmc-stm32mp157d-ev1/bl2/stm32mp_common.o
                0x2fff1e48                stm32mp_ddrphyc_base
 .text.stm32mp_pwr_base
                0x2fff1e50        0x8 ./../build/optee-emmc-stm32mp157d-ev1/bl2/stm32mp_common.o
                0x2fff1e50                stm32mp_pwr_base
 .text.stm32mp_pwr_regs_lock
                0x2fff1e58       0x18 ./../build/optee-emmc-stm32mp157d-ev1/bl2/stm32mp_common.o
                0x2fff1e58                stm32mp_pwr_regs_lock
 .text.stm32mp_pwr_regs_unlock
                0x2fff1e70       0x18 ./../build/optee-emmc-stm32mp157d-ev1/bl2/stm32mp_common.o
                0x2fff1e70                stm32mp_pwr_regs_unlock
 .text.stm32_get_otp_index
                0x2fff1e88       0x20 ./../build/optee-emmc-stm32mp157d-ev1/bl2/stm32mp_common.o
                0x2fff1e88                stm32_get_otp_index
 .text.stm32_get_otp_value_from_idx
                0x2fff1ea8       0x30 ./../build/optee-emmc-stm32mp157d-ev1/bl2/stm32mp_common.o
                0x2fff1ea8                stm32_get_otp_value_from_idx
 .text.stm32_get_otp_value
                0x2fff1ed8       0x44 ./../build/optee-emmc-stm32mp157d-ev1/bl2/stm32mp_common.o
                0x2fff1ed8                stm32_get_otp_value
 .text.stm32mp_uart_console_setup
                0x2fff1f1c       0x94 ./../build/optee-emmc-stm32mp157d-ev1/bl2/stm32mp_common.o
                0x2fff1f1c                stm32mp_uart_console_setup
 .text.stm32_display_board_info
                0x2fff1fb0       0x2c ./../build/optee-emmc-stm32mp157d-ev1/bl2/stm32mp_common.o
                0x2fff1fb0                stm32_display_board_info
 .text.stm32_get_magic_number_cell
                0x2fff1fdc       0x34 ./../build/optee-emmc-stm32mp157d-ev1/bl2/stm32mp_common.o
                0x2fff1fdc                stm32_get_magic_number_cell
 .text.stm32_get_core1_branch_address_cell
                0x2fff2010       0x34 ./../build/optee-emmc-stm32mp157d-ev1/bl2/stm32mp_common.o
                0x2fff2010                stm32_get_core1_branch_address_cell
 .text.stm32_get_fwu_info_cell
                0x2fff2044       0x34 ./../build/optee-emmc-stm32mp157d-ev1/bl2/stm32mp_common.o
                0x2fff2044                stm32_get_fwu_info_cell
 .text.stm32_get_boot_mode_cell
                0x2fff2078       0x34 ./../build/optee-emmc-stm32mp157d-ev1/bl2/stm32mp_common.o
                0x2fff2078                stm32_get_boot_mode_cell
 .text.stm32_save_boot_info
                0x2fff20ac       0xcc ./../build/optee-emmc-stm32mp157d-ev1/bl2/stm32mp_common.o
                0x2fff20ac                stm32_save_boot_info
 .text.stm32_get_and_dec_fwu_trial_boot_cnt
                0x2fff2178       0x60 ./../build/optee-emmc-stm32mp157d-ev1/bl2/stm32mp_common.o
                0x2fff2178                stm32_get_and_dec_fwu_trial_boot_cnt
 .text.fdt_get_node_parent_address_cells
                0x2fff21d8       0x24 ./../build/optee-emmc-stm32mp157d-ev1/bl2/stm32mp_dt.o
 .text.dt_open_and_check
                0x2fff21fc       0x14 ./../build/optee-emmc-stm32mp157d-ev1/bl2/stm32mp_dt.o
                0x2fff21fc                dt_open_and_check
 .text.fdt_get_address
                0x2fff2210       0x14 ./../build/optee-emmc-stm32mp157d-ev1/bl2/stm32mp_dt.o
                0x2fff2210                fdt_get_address
 .text.fdt_check_node
                0x2fff2224       0x20 ./../build/optee-emmc-stm32mp157d-ev1/bl2/stm32mp_dt.o
                0x2fff2224                fdt_check_node
 .text.fdt_get_status
                0x2fff2244       0x74 ./../build/optee-emmc-stm32mp157d-ev1/bl2/stm32mp_dt.o
                0x2fff2244                fdt_get_status
 .text.dt_set_stdout_pinctrl
                0x2fff22b8       0x20 ./../build/optee-emmc-stm32mp157d-ev1/bl2/stm32mp_dt.o
                0x2fff22b8                dt_set_stdout_pinctrl
 .text.dt_fill_device_info
                0x2fff22d8       0x88 ./../build/optee-emmc-stm32mp157d-ev1/bl2/stm32mp_dt.o
                0x2fff22d8                dt_fill_device_info
 .text.dt_get_node
                0x2fff2360       0x28 ./../build/optee-emmc-stm32mp157d-ev1/bl2/stm32mp_dt.o
                0x2fff2360                dt_get_node
 .text.dt_get_stdout_uart_info
                0x2fff2388       0x28 ./../build/optee-emmc-stm32mp157d-ev1/bl2/stm32mp_dt.o
                0x2fff2388                dt_get_stdout_uart_info
 .text.dt_match_instance_by_compatible
                0x2fff23b0       0x70 ./../build/optee-emmc-stm32mp157d-ev1/bl2/stm32mp_dt.o
                0x2fff23b0                dt_match_instance_by_compatible
 .text.dt_get_ddr_size
                0x2fff2420       0x58 ./../build/optee-emmc-stm32mp157d-ev1/bl2/stm32mp_dt.o
                0x2fff2420                dt_get_ddr_size
 .text.dt_get_vdd_regulator
                0x2fff2478       0x30 ./../build/optee-emmc-stm32mp157d-ev1/bl2/stm32mp_dt.o
                0x2fff2478                dt_get_vdd_regulator
 .text.dt_get_board_model
                0x2fff24a8       0x30 ./../build/optee-emmc-stm32mp157d-ev1/bl2/stm32mp_dt.o
                0x2fff24a8                dt_get_board_model
 .text.dt_find_otp_name
                0x2fff24d8       0xa8 ./../build/optee-emmc-stm32mp157d-ev1/bl2/stm32mp_dt.o
                0x2fff24d8                dt_find_otp_name
 .text.dt_get_otp_by_phandle
                0x2fff2580       0x88 ./../build/optee-emmc-stm32mp157d-ev1/bl2/stm32mp_dt.o
                0x2fff2580                dt_get_otp_by_phandle
 .text.fconf_populate_stm32mp_fuse_provisioning
                0x2fff2608      0x128 ./../build/optee-emmc-stm32mp157d-ev1/bl2/stm32mp_fconf_fuse.o
 .text.fconf_populate_stm32mp_io_policies
                0x2fff2730       0xd8 ./../build/optee-emmc-stm32mp157d-ev1/bl2/stm32mp_fconf_io.o
                0x2fff2730                fconf_populate_stm32mp_io_policies
 .text.bl2_platform_setup
                0x2fff2808       0x74 ./../build/optee-emmc-stm32mp157d-ev1/bl2/bl2_plat_setup.o
                0x2fff2808                bl2_platform_setup
 .text.bl2_el3_plat_arch_setup
                0x2fff287c      0x3e0 ./../build/optee-emmc-stm32mp157d-ev1/bl2/bl2_plat_setup.o
                0x2fff287c                bl2_el3_plat_arch_setup
 .text.bl2_plat_handle_post_image_load
                0x2fff2c5c      0x20c ./../build/optee-emmc-stm32mp157d-ev1/bl2/bl2_plat_setup.o
                0x2fff2c5c                bl2_plat_handle_post_image_load
 .text.stm32mp_board_ddr_power_init
                0x2fff2e68      0x124 ./../build/optee-emmc-stm32mp157d-ev1/bl2/plat_ddr.o
                0x2fff2e68                stm32mp_board_ddr_power_init
 .text.stm32_pm_get_optee_ep
                0x2fff2f8c       0x58 ./../build/optee-emmc-stm32mp157d-ev1/bl2/stm32mp1_context.o
                0x2fff2f8c                stm32_pm_get_optee_ep
 .text.stm32_context_save_bl2_param
                0x2fff2fe4       0x54 ./../build/optee-emmc-stm32mp157d-ev1/bl2/stm32mp1_context.o
                0x2fff2fe4                stm32_context_save_bl2_param
 .text.stm32_pm_context_is_valid
                0x2fff3038       0x80 ./../build/optee-emmc-stm32mp157d-ev1/bl2/stm32mp1_context.o
                0x2fff3038                stm32_pm_context_is_valid
 .text.stm32_restore_ddr_training_area
                0x2fff30b8       0x3c ./../build/optee-emmc-stm32mp157d-ev1/bl2/stm32mp1_context.o
                0x2fff30b8                stm32_restore_ddr_training_area
 .text.stm32_pwr_down_wfi_load
                0x2fff30f4       0x80 ./../build/optee-emmc-stm32mp157d-ev1/bl2/stm32mp1_critic_power.o
                0x2fff30f4                stm32_pwr_down_wfi_load
 .text.stm32mp1_dbgmcu_init
                0x2fff3174       0x30 ./../build/optee-emmc-stm32mp157d-ev1/bl2/stm32mp1_dbgmcu.o
 .text.stm32mp1_dbgmcu_get_chip_version
                0x2fff31a4       0x2c ./../build/optee-emmc-stm32mp157d-ev1/bl2/stm32mp1_dbgmcu.o
                0x2fff31a4                stm32mp1_dbgmcu_get_chip_version
 .text.stm32mp1_dbgmcu_get_chip_dev_id
                0x2fff31d0       0x30 ./../build/optee-emmc-stm32mp157d-ev1/bl2/stm32mp1_dbgmcu.o
                0x2fff31d0                stm32mp1_dbgmcu_get_chip_dev_id
 .text.fconf_populate_stm32mp1_firewall
                0x2fff3200       0xcc ./../build/optee-emmc-stm32mp157d-ev1/bl2/stm32mp1_fconf_firewall.o
 .text.stm32mp1_arch_security_setup
                0x2fff32cc       0x34 ./../build/optee-emmc-stm32mp157d-ev1/bl2/stm32mp1_fconf_firewall.o
                0x2fff32cc                stm32mp1_arch_security_setup
 .text.stm32mp1_security_setup
                0x2fff3300       0x5c ./../build/optee-emmc-stm32mp157d-ev1/bl2/stm32mp1_fconf_firewall.o
                0x2fff3300                stm32mp1_security_setup
 .text.configure_mmu
                0x2fff335c       0x1c ./../build/optee-emmc-stm32mp157d-ev1/bl2/stm32mp1_private.o
                0x2fff335c                configure_mmu
 .text.stm32_get_gpio_bank_base
                0x2fff3378       0x28 ./../build/optee-emmc-stm32mp157d-ev1/bl2/stm32mp1_private.o
                0x2fff3378                stm32_get_gpio_bank_base
 .text.stm32_get_gpio_bank_offset
                0x2fff33a0       0x20 ./../build/optee-emmc-stm32mp157d-ev1/bl2/stm32mp1_private.o
                0x2fff33a0                stm32_get_gpio_bank_offset
 .text.stm32_get_gpio_bank_clock
                0x2fff33c0       0x20 ./../build/optee-emmc-stm32mp157d-ev1/bl2/stm32mp1_private.o
                0x2fff33c0                stm32_get_gpio_bank_clock
 .text.stm32mp_get_chip_version
                0x2fff33e0       0x24 ./../build/optee-emmc-stm32mp157d-ev1/bl2/stm32mp1_private.o
                0x2fff33e0                stm32mp_get_chip_version
 .text.stm32mp_get_chip_dev_id
                0x2fff3404       0x24 ./../build/optee-emmc-stm32mp157d-ev1/bl2/stm32mp1_private.o
                0x2fff3404                stm32mp_get_chip_dev_id
 .text.stm32mp_get_part_number
                0x2fff3428       0x34 ./../build/optee-emmc-stm32mp157d-ev1/bl2/stm32mp1_private.o
                0x2fff3428                stm32mp_get_part_number
 .text.stm32mp_get_soc_name
                0x2fff345c      0x148 ./../build/optee-emmc-stm32mp157d-ev1/bl2/stm32mp1_private.o
                0x2fff345c                stm32mp_get_soc_name
 .text.stm32mp_print_cpuinfo
                0x2fff35a4       0x1c ./../build/optee-emmc-stm32mp157d-ev1/bl2/stm32mp1_private.o
                0x2fff35a4                stm32mp_print_cpuinfo
 .text.stm32mp_print_boardinfo
                0x2fff35c0       0x24 ./../build/optee-emmc-stm32mp157d-ev1/bl2/stm32mp1_private.o
                0x2fff35c0                stm32mp_print_boardinfo
 .text.stm32mp_check_closed_device
                0x2fff35e4       0x2c ./../build/optee-emmc-stm32mp157d-ev1/bl2/stm32mp1_private.o
                0x2fff35e4                stm32mp_check_closed_device
 .text.stm32_iwdg_get_instance
                0x2fff3610       0x28 ./../build/optee-emmc-stm32mp157d-ev1/bl2/stm32mp1_private.o
                0x2fff3610                stm32_iwdg_get_instance
 .text.stm32_iwdg_get_otp_config
                0x2fff3638       0x30 ./../build/optee-emmc-stm32mp157d-ev1/bl2/stm32mp1_private.o
                0x2fff3638                stm32_iwdg_get_otp_config
 .text.stm32mp_skip_boot_device_after_standby
                0x2fff3668       0x2c ./../build/optee-emmc-stm32mp157d-ev1/bl2/stm32mp1_private.o
                0x2fff3668                stm32mp_skip_boot_device_after_standby
 .text.stm32mp_bkpram_get_access
                0x2fff3694       0x20 ./../build/optee-emmc-stm32mp157d-ev1/bl2/stm32mp1_private.o
                0x2fff3694                stm32mp_bkpram_get_access
 .text.stm32mp_syscfg_enable_io_compensation_start
                0x2fff36b4       0x18 ./../build/optee-emmc-stm32mp157d-ev1/bl2/stm32mp1_syscfg.o
                0x2fff36b4                stm32mp_syscfg_enable_io_compensation_start
 .text.stm32mp_syscfg_init
                0x2fff36cc       0x8c ./../build/optee-emmc-stm32mp157d-ev1/bl2/stm32mp1_syscfg.o
                0x2fff36cc                stm32mp_syscfg_init
 .text.stm32mp_syscfg_enable_io_compensation_finish
                0x2fff3758       0x50 ./../build/optee-emmc-stm32mp157d-ev1/bl2/stm32mp1_syscfg.o
                0x2fff3758                stm32mp_syscfg_enable_io_compensation_finish
 .text          0x2fff37a8       0x24 ./../build/optee-emmc-stm32mp157d-ev1/bl2/aeabi_uldivmod.o
                0x2fff37a8                __aeabi_uldivmod
 .text.fdt_ro_probe_
                0x2fff37cc       0x74 ./../build/optee-emmc-stm32mp157d-ev1/lib/libfdt.a(fdt.o)
                0x2fff37cc                fdt_ro_probe_
 .text.fdt_check_header
                0x2fff3840       0xd0 ./../build/optee-emmc-stm32mp157d-ev1/lib/libfdt.a(fdt.o)
                0x2fff3840                fdt_check_header
 .text.fdt_address_cells
                0x2fff3910       0x1c ./../build/optee-emmc-stm32mp157d-ev1/lib/libfdt.a(fdt_addresses.o)
                0x2fff3910                fdt_address_cells
 .text.fdt_get_string
                0x2fff392c       0xb0 ./../build/optee-emmc-stm32mp157d-ev1/lib/libfdt.a(fdt_ro.o)
                0x2fff392c                fdt_get_string
 .text.fdt_get_phandle
                0x2fff39dc       0x44 ./../build/optee-emmc-stm32mp157d-ev1/lib/libfdt.a(fdt_ro.o)
                0x2fff39dc                fdt_get_phandle
 .text.fdt_get_alias_namelen
                0x2fff3a20       0x2c ./../build/optee-emmc-stm32mp157d-ev1/lib/libfdt.a(fdt_ro.o)
                0x2fff3a20                fdt_get_alias_namelen
 .text.fdt_node_check_compatible
                0x2fff3a4c       0x28 ./../build/optee-emmc-stm32mp157d-ev1/lib/libfdt.a(fdt_ro.o)
                0x2fff3a4c                fdt_node_check_compatible
 .text.__assert
                0x2fff3a74       0x18 ./../build/optee-emmc-stm32mp157d-ev1/lib/libc.a(assert.o)
                0x2fff3a74                __assert
 .text.vprintf  0x2fff3a8c      0x1c4 ./../build/optee-emmc-stm32mp157d-ev1/lib/libc.a(printf.o)
                0x2fff3a8c                vprintf
 .text.vsnprintf
                0x2fff3c50      0x2d0 ./../build/optee-emmc-stm32mp157d-ev1/lib/libc.a(snprintf.o)
                0x2fff3c50                vsnprintf
 .text.bl2_arch_setup
                0x2fff3f20        0x2 ./../build/optee-emmc-stm32mp157d-ev1/bl2/bl2_arch_setup.o
                0x2fff3f20                bl2_arch_setup
 .text.bl2_el3_setup
                0x2fff3f22        0xe ./../build/optee-emmc-stm32mp157d-ev1/bl2/bl2_main.o
                0x2fff3f22                bl2_el3_setup
 .text.fdt32_to_cpu
                0x2fff3f30        0x4 ./../build/optee-emmc-stm32mp157d-ev1/bl2/fdt_wrappers.o
 .text.fdt_read_uint32
                0x2fff3f34       0x10 ./../build/optee-emmc-stm32mp157d-ev1/bl2/fdt_wrappers.o
                0x2fff3f34                fdt_read_uint32
 .text.fdt_read_uint32_default
                0x2fff3f44       0x18 ./../build/optee-emmc-stm32mp157d-ev1/bl2/fdt_wrappers.o
                0x2fff3f44                fdt_read_uint32_default
 .text.fdt_read_uint64
                0x2fff3f5c       0x28 ./../build/optee-emmc-stm32mp157d-ev1/bl2/fdt_wrappers.o
                0x2fff3f5c                fdt_read_uint64
 .text.hex_val  0x2fff3f84       0x2e ./../build/optee-emmc-stm32mp157d-ev1/bl2/uuid.o
 .text.read_hex.part.0
                0x2fff3fb2       0x3a ./../build/optee-emmc-stm32mp157d-ev1/bl2/uuid.o
 .text.putchar  0x2fff3fec       0x14 ./../build/optee-emmc-stm32mp157d-ev1/bl2/multi_console.o
                0x2fff3fec                putchar
 .text.mdelay   0x2fff4000        0xa ./../build/optee-emmc-stm32mp157d-ev1/bl2/delay_timer.o
                0x2fff4000                mdelay
 .text.get_timer_value
                0x2fff400a        0x8 ./../build/optee-emmc-stm32mp157d-ev1/bl2/generic_delay_timer.o
 .text.device_type_block
                0x2fff4012        0x4 ./../build/optee-emmc-stm32mp157d-ev1/bl2/io_block.o
                0x2fff4012                device_type_block
 .text.block_close
                0x2fff4016        0x8 ./../build/optee-emmc-stm32mp157d-ev1/bl2/io_block.o
 .text.device_type_fip
                0x2fff401e        0x4 ./../build/optee-emmc-stm32mp157d-ev1/bl2/io_fip.o
 .text.is_valid_dev
                0x2fff4022       0x18 ./../build/optee-emmc-stm32mp157d-ev1/bl2/io_storage.o
 .text.is_valid_entity
                0x2fff403a       0x10 ./../build/optee-emmc-stm32mp157d-ev1/bl2/io_storage.o
 .text.bsec_read_otp
                0x2fff404a       0x2c ./../build/optee-emmc-stm32mp157d-ev1/bl2/bsec2.o
                0x2fff404a                bsec_read_otp
 .text.clock_is_always_on
                0x2fff4076       0x20 ./../build/optee-emmc-stm32mp157d-ev1/bl2/stm32mp1_clk.o
 .text.stm32mp1_clk_lock
                0x2fff4096       0x16 ./../build/optee-emmc-stm32mp157d-ev1/bl2/stm32mp1_clk.o
 .text.stm32mp1_clk_unlock
                0x2fff40ac       0x16 ./../build/optee-emmc-stm32mp157d-ev1/bl2/stm32mp1_clk.o
 .text.stm32_clk_parse_fdt_by_name
                0x2fff40c2       0x36 ./../build/optee-emmc-stm32mp157d-ev1/bl2/stm32mp1_clk.o
 .text.stm32mp1_pll_configure_src
                0x2fff40f8       0x18 ./../build/optee-emmc-stm32mp157d-ev1/bl2/stm32mp1_clk.o
 .text.stm32mp1_mode_register_write.isra.0
                0x2fff4110       0x22 ./../build/optee-emmc-stm32mp157d-ev1/bl2/stm32mp1_ddr.o
 .text.stm32mp1_ddrphy_idone_wait
                0x2fff4132       0x4a ./../build/optee-emmc-stm32mp157d-ev1/bl2/stm32mp1_ddr.o
 .text.stm32mp1_wait_operating_mode
                0x2fff417c       0x4e ./../build/optee-emmc-stm32mp157d-ev1/bl2/stm32mp1_ddr.o
 .text.ddr_enable_clock
                0x2fff41ca       0x2a ./../build/optee-emmc-stm32mp157d-ev1/bl2/stm32mp1_ddr_helpers.o
                0x2fff41ca                ddr_enable_clock
 .text.ddr_get_io_calibration_val
                0x2fff41f4       0x10 ./../build/optee-emmc-stm32mp157d-ev1/bl2/stm32mp1_ddr_helpers.o
                0x2fff41f4                ddr_get_io_calibration_val
 .text.ddr_standby_sr_entry
                0x2fff4204      0x17e ./../build/optee-emmc-stm32mp157d-ev1/bl2/stm32mp1_ddr_helpers.o
                0x2fff4204                ddr_standby_sr_entry
 .text.stm32mp_ddr_start_sw_done
                0x2fff4382        0xe ./../build/optee-emmc-stm32mp157d-ev1/bl2/stm32mp_ddr.o
                0x2fff4382                stm32mp_ddr_start_sw_done
 .text.stm32mp_ddr_wait_sw_done_ack
                0x2fff4390       0x3a ./../build/optee-emmc-stm32mp157d-ev1/bl2/stm32mp_ddr.o
                0x2fff4390                stm32mp_ddr_wait_sw_done_ack
 .text.stm32mp_ddr_enable_axi_port
                0x2fff43ca       0x1a ./../build/optee-emmc-stm32mp157d-ev1/bl2/stm32mp_ddr.o
                0x2fff43ca                stm32mp_ddr_enable_axi_port
 .text.stm32mp_ddr_disable_axi_port
                0x2fff43e4       0x46 ./../build/optee-emmc-stm32mp157d-ev1/bl2/stm32mp_ddr.o
                0x2fff43e4                stm32mp_ddr_disable_axi_port
 .text.stm32mp_ddr_enable_host_interface
                0x2fff442a        0xe ./../build/optee-emmc-stm32mp157d-ev1/bl2/stm32mp_ddr.o
                0x2fff442a                stm32mp_ddr_enable_host_interface
 .text.stm32mp_ddr_disable_host_interface
                0x2fff4438       0x4a ./../build/optee-emmc-stm32mp157d-ev1/bl2/stm32mp_ddr.o
                0x2fff4438                stm32mp_ddr_disable_host_interface
 .text.stm32mp_ddr_sw_selfref_exit
                0x2fff4482        0xa ./../build/optee-emmc-stm32mp157d-ev1/bl2/stm32mp_ddr.o
                0x2fff4482                stm32mp_ddr_sw_selfref_exit
 .text.stm32mp_ddr_wait_refresh_update_done_ack
                0x2fff448c       0x4c ./../build/optee-emmc-stm32mp157d-ev1/bl2/stm32mp_ddr.o
                0x2fff448c                stm32mp_ddr_wait_refresh_update_done_ack
 .text.stm32mp_ddr_test_rw_access
                0x2fff44d8       0x1a ./../build/optee-emmc-stm32mp157d-ev1/bl2/stm32mp_ddr_test.o
                0x2fff44d8                stm32mp_ddr_test_rw_access
 .text.stm32mp_ddr_test_data_bus
                0x2fff44f2       0x1e ./../build/optee-emmc-stm32mp157d-ev1/bl2/stm32mp_ddr_test.o
                0x2fff44f2                stm32mp_ddr_test_data_bus
 .text.stm32mp_ddr_test_addr_bus
                0x2fff4510       0x86 ./../build/optee-emmc-stm32mp157d-ev1/bl2/stm32mp_ddr_test.o
                0x2fff4510                stm32mp_ddr_test_addr_bus
 .text.stm32mp_ddr_check_size
                0x2fff4596       0x2e ./../build/optee-emmc-stm32mp157d-ev1/bl2/stm32mp_ddr_test.o
                0x2fff4596                stm32mp_ddr_check_size
 .text.fdt32_to_cpu
                0x2fff45c4        0x4 ./../build/optee-emmc-stm32mp157d-ev1/bl2/stm32_gpio.o
 .text.i2c_wait_flag
                0x2fff45c8       0x44 ./../build/optee-emmc-stm32mp157d-ev1/bl2/stm32_i2c.o
 .text.i2c_ack_failed
                0x2fff460c       0x8c ./../build/optee-emmc-stm32mp157d-ev1/bl2/stm32_i2c.o
 .text.i2c_wait_txis
                0x2fff4698       0x42 ./../build/optee-emmc-stm32mp157d-ev1/bl2/stm32_i2c.o
 .text.i2c_wait_stop
                0x2fff46da       0x42 ./../build/optee-emmc-stm32mp157d-ev1/bl2/stm32_i2c.o
 .text.stm32_i2c_mem_write
                0x2fff471c       0x1c ./../build/optee-emmc-stm32mp157d-ev1/bl2/stm32_i2c.o
                0x2fff471c                stm32_i2c_mem_write
 .text.stm32_i2c_mem_read
                0x2fff4738       0x12 ./../build/optee-emmc-stm32mp157d-ev1/bl2/stm32_i2c.o
                0x2fff4738                stm32_i2c_mem_read
 .text.stm32_sdmmc2_write
                0x2fff474a        0x4 ./../build/optee-emmc-stm32mp157d-ev1/bl2/stm32_sdmmc2.o
 .text.stm32_sdmmc2_stop_transfer
                0x2fff474e       0x20 ./../build/optee-emmc-stm32mp157d-ev1/bl2/stm32_sdmmc2.o
 .text.plat_sdmmc2_use_dma
                0x2fff476e        0x4 ./../build/optee-emmc-stm32mp157d-ev1/bl2/stm32_sdmmc2.o
                0x2fff476e                plat_sdmmc2_use_dma
 .text.nvmem_cell_read
                0x2fff4772       0x18 ./../build/optee-emmc-stm32mp157d-ev1/bl2/nvmem.o
                0x2fff4772                nvmem_cell_read
 .text.nvmem_cell_write
                0x2fff478a       0x10 ./../build/optee-emmc-stm32mp157d-ev1/bl2/nvmem.o
                0x2fff478a                nvmem_cell_write
 .text.fdt32_to_cpu
                0x2fff479a        0x4 ./../build/optee-emmc-stm32mp157d-ev1/bl2/stm32mp_tamp_nvram_core.o
 .text.stm32_tamp_nvram_reg_get_zone
                0x2fff479e       0x2a ./../build/optee-emmc-stm32mp157d-ev1/bl2/stm32mp_tamp_nvram_core.o
                0x2fff479e                stm32_tamp_nvram_reg_get_zone
 .text.stm32_tamp_nvram_reg_field_read
                0x2fff47c8       0x30 ./../build/optee-emmc-stm32mp157d-ev1/bl2/stm32mp_tamp_nvram_core.o
                0x2fff47c8                stm32_tamp_nvram_reg_field_read
 .text.pmic_set_flag
                0x2fff47f8       0x44 ./../build/optee-emmc-stm32mp157d-ev1/bl2/stm32mp_pmic.o
 .text.pmic_list_voltages
                0x2fff483c        0x6 ./../build/optee-emmc-stm32mp157d-ev1/bl2/stm32mp_pmic.o
 .text.pmic_get_voltage
                0x2fff4842        0x6 ./../build/optee-emmc-stm32mp157d-ev1/bl2/stm32mp_pmic.o
 .text.pmic_set_voltage
                0x2fff4848        0x6 ./../build/optee-emmc-stm32mp157d-ev1/bl2/stm32mp_pmic.o
 .text.pmic_get_state
                0x2fff484e        0xa ./../build/optee-emmc-stm32mp157d-ev1/bl2/stm32mp_pmic.o
 .text.pmic_set_state
                0x2fff4858        0xc ./../build/optee-emmc-stm32mp157d-ev1/bl2/stm32mp_pmic.o
 .text.pmic_voltages_init
                0x2fff4864        0x4 ./../build/optee-emmc-stm32mp157d-ev1/bl2/stm32mp_pmic.o
                0x2fff4864                pmic_voltages_init
 .text.pmic_switch_off
                0x2fff4868       0x16 ./../build/optee-emmc-stm32mp157d-ev1/bl2/stm32mp_pmic.o
                0x2fff4868                pmic_switch_off
 .text.stpmic1_is_regulator_enabled
                0x2fff487e       0x2e ./../build/optee-emmc-stm32mp157d-ev1/bl2/stpmic1.o
                0x2fff487e                stpmic1_is_regulator_enabled
 .text.stpmic1_register_update
                0x2fff48ac       0x2e ./../build/optee-emmc-stm32mp157d-ev1/bl2/stpmic1.o
                0x2fff48ac                stpmic1_register_update
 .text.stpmic1_powerctrl_on
                0x2fff48da        0xa ./../build/optee-emmc-stm32mp157d-ev1/bl2/stpmic1.o
                0x2fff48da                stpmic1_powerctrl_on
 .text.stpmic1_switch_off
                0x2fff48e4        0xa ./../build/optee-emmc-stm32mp157d-ev1/bl2/stpmic1.o
                0x2fff48e4                stpmic1_switch_off
 .text.stpmic1_regulator_enable
                0x2fff48ee       0x14 ./../build/optee-emmc-stm32mp157d-ev1/bl2/stpmic1.o
                0x2fff48ee                stpmic1_regulator_enable
 .text.stpmic1_regulator_disable
                0x2fff4902       0x14 ./../build/optee-emmc-stm32mp157d-ev1/bl2/stpmic1.o
                0x2fff4902                stpmic1_regulator_disable
 .text.stpmic1_regulator_pull_down_set
                0x2fff4916       0x24 ./../build/optee-emmc-stm32mp157d-ev1/bl2/stpmic1.o
                0x2fff4916                stpmic1_regulator_pull_down_set
 .text.stpmic1_regulator_mask_reset_set
                0x2fff493a       0x24 ./../build/optee-emmc-stm32mp157d-ev1/bl2/stpmic1.o
                0x2fff493a                stpmic1_regulator_mask_reset_set
 .text.stpmic1_regulator_icc_set
                0x2fff495e       0x24 ./../build/optee-emmc-stm32mp157d-ev1/bl2/stpmic1.o
                0x2fff495e                stpmic1_regulator_icc_set
 .text.stpmic1_get_version
                0x2fff4982       0x1e ./../build/optee-emmc-stm32mp157d-ev1/bl2/stpmic1.o
                0x2fff4982                stpmic1_get_version
 .text.fdt32_to_cpu
                0x2fff49a0        0x4 ./../build/optee-emmc-stm32mp157d-ev1/bl2/regulator_core.o
 .text.unlock_driver.isra.0
                0x2fff49a4        0xa ./../build/optee-emmc-stm32mp157d-ev1/bl2/regulator_core.o
 .text.lock_driver.isra.0
                0x2fff49ae        0xa ./../build/optee-emmc-stm32mp157d-ev1/bl2/regulator_core.o
 .text.regulator_set_min_voltage
                0x2fff49b8        0x6 ./../build/optee-emmc-stm32mp157d-ev1/bl2/regulator_core.o
                0x2fff49b8                regulator_set_min_voltage
 .text.fixed_set_state
                0x2fff49be        0x4 ./../build/optee-emmc-stm32mp157d-ev1/bl2/regulator_fixed.o
 .text.fixed_get_state
                0x2fff49c2        0x4 ./../build/optee-emmc-stm32mp157d-ev1/bl2/regulator_fixed.o
 .text.stm32mp_system_reset
                0x2fff49c6       0x14 ./../build/optee-emmc-stm32mp157d-ev1/bl2/stm32mp1_reset.o
                0x2fff49c6                stm32mp_system_reset
 .text.__ctzdi2
                0x2fff49da       0x22 ./../build/optee-emmc-stm32mp157d-ev1/bl2/ctzdi2.o
                0x2fff49da                __ctzdi2
 .text.__udivmoddi4
                0x2fff49fc      0x180 ./../build/optee-emmc-stm32mp157d-ev1/bl2/udivmoddi4.o
                0x2fff49fc                __udivmoddi4
 .text.xlat_arch_get_pas
                0x2fff4b7c       0x10 ./../build/optee-emmc-stm32mp157d-ev1/bl2/xlat_tables_arch.o
                0x2fff4b7c                xlat_arch_get_pas
 .text.xlat_arch_get_max_supported_pa
                0x2fff4b8c        0x8 ./../build/optee-emmc-stm32mp157d-ev1/bl2/xlat_tables_arch.o
                0x2fff4b8c                xlat_arch_get_max_supported_pa
 .text.xlat_get_min_virt_addr_space_size
                0x2fff4b94        0x6 ./../build/optee-emmc-stm32mp157d-ev1/bl2/xlat_tables_arch.o
                0x2fff4b94                xlat_get_min_virt_addr_space_size
 .text.is_dcache_enabled
                0x2fff4b9a       0x1c ./../build/optee-emmc-stm32mp157d-ev1/bl2/xlat_tables_arch.o
                0x2fff4b9a                is_dcache_enabled
 .text.xlat_arch_tlbi_va_sync
                0x2fff4bb6       0x10 ./../build/optee-emmc-stm32mp157d-ev1/bl2/xlat_tables_arch.o
                0x2fff4bb6                xlat_arch_tlbi_va_sync
 .text.mmap_add_region_check
                0x2fff4bc6      0x12e ./../build/optee-emmc-stm32mp157d-ev1/bl2/xlat_tables_core.o
 .text.xlat_clean_dcache_range
                0x2fff4cf4       0x1a ./../build/optee-emmc-stm32mp157d-ev1/bl2/xlat_tables_core.o
 .text.mmap_add_ctx
                0x2fff4d0e       0x18 ./../build/optee-emmc-stm32mp157d-ev1/bl2/xlat_tables_core.o
                0x2fff4d0e                mmap_add_ctx
 .text.xlat_mmap_print
                0x2fff4d26        0x2 ./../build/optee-emmc-stm32mp157d-ev1/bl2/xlat_tables_utils.o
                0x2fff4d26                xlat_mmap_print
 .text.xlat_tables_print
                0x2fff4d28        0x2 ./../build/optee-emmc-stm32mp157d-ev1/bl2/xlat_tables_utils.o
                0x2fff4d28                xlat_tables_print
 .text.crc32    0x2fff4d2a        0x4 ./../build/optee-emmc-stm32mp157d-ev1/bl2/crc32.o
                0x2fff4d2a                crc32
 .text.tf_crc32
                0x2fff4d2e        0x4 ./../build/optee-emmc-stm32mp157d-ev1/bl2/tf_gunzip.o
                0x2fff4d2e                tf_crc32
 .text.plat_error_handler
                0x2fff4d32        0x4 ./../build/optee-emmc-stm32mp157d-ev1/bl2/plat_bl_common.o
                0x2fff4d32                plat_error_handler
 .text.bl2_plat_preload_setup
                0x2fff4d36        0x2 ./../build/optee-emmc-stm32mp157d-ev1/bl2/plat_bl_common.o
                0x2fff4d36                bl2_plat_preload_setup
 .text.plat_try_backup_partitions
                0x2fff4d38        0x4 ./../build/optee-emmc-stm32mp157d-ev1/bl2/bl2_io_storage.o
                0x2fff4d38                plat_try_backup_partitions
 .text.plat_fwu_is_enabled
                0x2fff4d3c        0xe ./../build/optee-emmc-stm32mp157d-ev1/bl2/bl2_io_storage.o
                0x2fff4d3c                plat_fwu_is_enabled
 .text.plat_flush_next_bl_params
                0x2fff4d4a        0x4 ./../build/optee-emmc-stm32mp157d-ev1/bl2/plat_image_load.o
                0x2fff4d4a                plat_flush_next_bl_params
 .text.plat_get_bl_image_load_info
                0x2fff4d4e        0x4 ./../build/optee-emmc-stm32mp157d-ev1/bl2/plat_image_load.o
                0x2fff4d4e                plat_get_bl_image_load_info
 .text.plat_get_next_bl_params
                0x2fff4d52       0x10 ./../build/optee-emmc-stm32mp157d-ev1/bl2/plat_image_load.o
                0x2fff4d52                plat_get_next_bl_params
 .text.stm32_nvmem_cell_clrset
                0x2fff4d62       0x32 ./../build/optee-emmc-stm32mp157d-ev1/bl2/stm32mp_common.o
 .text.plat_get_syscnt_freq2
                0x2fff4d94        0x6 ./../build/optee-emmc-stm32mp157d-ev1/bl2/stm32mp_common.o
                0x2fff4d94                plat_get_syscnt_freq2
 .text.stm32mp_rcc_base
                0x2fff4d9a        0x6 ./../build/optee-emmc-stm32mp157d-ev1/bl2/stm32mp_common.o
                0x2fff4d9a                stm32mp_rcc_base
 .text.stm32mp_lock_available
                0x2fff4da0       0x10 ./../build/optee-emmc-stm32mp157d-ev1/bl2/stm32mp_common.o
                0x2fff4da0                stm32mp_lock_available
 .text.stm32mp_map_ddr_non_cacheable
                0x2fff4db0       0x1e ./../build/optee-emmc-stm32mp157d-ev1/bl2/stm32mp_common.o
                0x2fff4db0                stm32mp_map_ddr_non_cacheable
 .text.stm32mp_unmap_ddr
                0x2fff4dce        0xc ./../build/optee-emmc-stm32mp157d-ev1/bl2/stm32mp_common.o
                0x2fff4dce                stm32mp_unmap_ddr
 .text.stm32_fwu_set_boot_idx
                0x2fff4dda       0x28 ./../build/optee-emmc-stm32mp157d-ev1/bl2/stm32mp_common.o
                0x2fff4dda                stm32_fwu_set_boot_idx
 .text.stm32_set_max_fwu_trial_boot_cnt
                0x2fff4e02       0x22 ./../build/optee-emmc-stm32mp157d-ev1/bl2/stm32mp_common.o
                0x2fff4e02                stm32_set_max_fwu_trial_boot_cnt
 .text.stm32_clear_fwu_trial_boot_cnt
                0x2fff4e24       0x22 ./../build/optee-emmc-stm32mp157d-ev1/bl2/stm32mp_common.o
                0x2fff4e24                stm32_clear_fwu_trial_boot_cnt
 .text.fdt32_to_cpu
                0x2fff4e46        0x4 ./../build/optee-emmc-stm32mp157d-ev1/bl2/stm32mp_dt.o
 .text.dt_get_pwr_vdd_voltage
                0x2fff4e4a       0x22 ./../build/optee-emmc-stm32mp157d-ev1/bl2/stm32mp_dt.o
                0x2fff4e4a                dt_get_pwr_vdd_voltage
 .text.bl2_el3_early_platform_setup
                0x2fff4e6c        0x4 ./../build/optee-emmc-stm32mp157d-ev1/bl2/bl2_plat_setup.o
                0x2fff4e6c                bl2_el3_early_platform_setup
 .text.bl2_el3_plat_prepare_exit
                0x2fff4e70        0x4 ./../build/optee-emmc-stm32mp157d-ev1/bl2/bl2_plat_setup.o
                0x2fff4e70                bl2_el3_plat_prepare_exit
 .text.stm32_clean_context
                0x2fff4e74       0x24 ./../build/optee-emmc-stm32mp157d-ev1/bl2/stm32mp1_context.o
                0x2fff4e74                stm32_clean_context
 .text.stm32_get_zdata_from_context
                0x2fff4e98       0x1c ./../build/optee-emmc-stm32mp157d-ev1/bl2/stm32mp1_context.o
                0x2fff4e98                stm32_get_zdata_from_context
 .text.stm32_pwr_cstop_critic_exit
                0x2fff4eb4       0x1a ./../build/optee-emmc-stm32mp157d-ev1/bl2/stm32mp1_critic_power.o
                0x2fff4eb4                stm32_pwr_cstop_critic_exit
 .text.fdt32_to_cpu
                0x2fff4ece        0x4 ./../build/optee-emmc-stm32mp157d-ev1/bl2/stm32mp1_fconf_firewall.o
 .text.stm32mp1_addr_inside_backupsram
                0x2fff4ed2       0x10 ./../build/optee-emmc-stm32mp157d-ev1/bl2/stm32mp1_private.o
                0x2fff4ed2                stm32mp1_addr_inside_backupsram
 .text.stm32mp_is_wakeup_from_standby
                0x2fff4ee2       0x46 ./../build/optee-emmc-stm32mp157d-ev1/bl2/stm32mp1_private.o
                0x2fff4ee2                stm32mp_is_wakeup_from_standby
 .text.fdt32_ld
                0x2fff4f28       0x18 ./../build/optee-emmc-stm32mp157d-ev1/lib/libfdt.a(fdt.o)
 .text.fdt_header_size_
                0x2fff4f40       0x1a ./../build/optee-emmc-stm32mp157d-ev1/lib/libfdt.a(fdt.o)
                0x2fff4f40                fdt_header_size_
 .text.fdt_header_size
                0x2fff4f5a       0x10 ./../build/optee-emmc-stm32mp157d-ev1/lib/libfdt.a(fdt.o)
                0x2fff4f5a                fdt_header_size
 .text.fdt_offset_ptr
                0x2fff4f6a       0x54 ./../build/optee-emmc-stm32mp157d-ev1/lib/libfdt.a(fdt.o)
                0x2fff4f6a                fdt_offset_ptr
 .text.fdt_next_tag
                0x2fff4fbe       0xbc ./../build/optee-emmc-stm32mp157d-ev1/lib/libfdt.a(fdt.o)
                0x2fff4fbe                fdt_next_tag
 .text.fdt_check_node_offset_
                0x2fff507a       0x24 ./../build/optee-emmc-stm32mp157d-ev1/lib/libfdt.a(fdt.o)
                0x2fff507a                fdt_check_node_offset_
 .text.fdt_check_prop_offset_
                0x2fff509e       0x24 ./../build/optee-emmc-stm32mp157d-ev1/lib/libfdt.a(fdt.o)
                0x2fff509e                fdt_check_prop_offset_
 .text.fdt_next_node
                0x2fff50c2       0x6e ./../build/optee-emmc-stm32mp157d-ev1/lib/libfdt.a(fdt.o)
                0x2fff50c2                fdt_next_node
 .text.fdt_first_subnode
                0x2fff5130       0x26 ./../build/optee-emmc-stm32mp157d-ev1/lib/libfdt.a(fdt.o)
                0x2fff5130                fdt_first_subnode
 .text.fdt_next_subnode
                0x2fff5156       0x2a ./../build/optee-emmc-stm32mp157d-ev1/lib/libfdt.a(fdt.o)
                0x2fff5156                fdt_next_subnode
 .text.fdt_cells
                0x2fff5180       0x2a ./../build/optee-emmc-stm32mp157d-ev1/lib/libfdt.a(fdt_addresses.o)
 .text.fdt32_ld
                0x2fff51aa       0x18 ./../build/optee-emmc-stm32mp157d-ev1/lib/libfdt.a(fdt_ro.o)
 .text.nextprop_
                0x2fff51c2       0x32 ./../build/optee-emmc-stm32mp157d-ev1/lib/libfdt.a(fdt_ro.o)
 .text.fdt32_ld_.isra.0
                0x2fff51f4        0x4 ./../build/optee-emmc-stm32mp157d-ev1/lib/libfdt.a(fdt_ro.o)
 .text.fdt_get_property_by_offset_
                0x2fff51f8       0x34 ./../build/optee-emmc-stm32mp157d-ev1/lib/libfdt.a(fdt_ro.o)
 .text.fdt_get_name
                0x2fff522c       0x62 ./../build/optee-emmc-stm32mp157d-ev1/lib/libfdt.a(fdt_ro.o)
                0x2fff522c                fdt_get_name
 .text.fdt_subnode_offset_namelen
                0x2fff528e       0x7a ./../build/optee-emmc-stm32mp157d-ev1/lib/libfdt.a(fdt_ro.o)
                0x2fff528e                fdt_subnode_offset_namelen
 .text.fdt_subnode_offset
                0x2fff5308       0x1e ./../build/optee-emmc-stm32mp157d-ev1/lib/libfdt.a(fdt_ro.o)
                0x2fff5308                fdt_subnode_offset
 .text.fdt_first_property_offset
                0x2fff5326       0x18 ./../build/optee-emmc-stm32mp157d-ev1/lib/libfdt.a(fdt_ro.o)
                0x2fff5326                fdt_first_property_offset
 .text.fdt_next_property_offset
                0x2fff533e       0x18 ./../build/optee-emmc-stm32mp157d-ev1/lib/libfdt.a(fdt_ro.o)
                0x2fff533e                fdt_next_property_offset
 .text.fdt_get_property_namelen_
                0x2fff5356       0x7c ./../build/optee-emmc-stm32mp157d-ev1/lib/libfdt.a(fdt_ro.o)
 .text.fdt_getprop_namelen
                0x2fff53d2       0x40 ./../build/optee-emmc-stm32mp157d-ev1/lib/libfdt.a(fdt_ro.o)
                0x2fff53d2                fdt_getprop_namelen
 .text.fdt_getprop
                0x2fff5412       0x22 ./../build/optee-emmc-stm32mp157d-ev1/lib/libfdt.a(fdt_ro.o)
                0x2fff5412                fdt_getprop
 .text.fdt_path_offset_namelen
                0x2fff5434       0x94 ./../build/optee-emmc-stm32mp157d-ev1/lib/libfdt.a(fdt_ro.o)
                0x2fff5434                fdt_path_offset_namelen
 .text.fdt_path_offset
                0x2fff54c8       0x1a ./../build/optee-emmc-stm32mp157d-ev1/lib/libfdt.a(fdt_ro.o)
                0x2fff54c8                fdt_path_offset
 .text.fdt_supernode_atdepth_offset
                0x2fff54e2       0x6c ./../build/optee-emmc-stm32mp157d-ev1/lib/libfdt.a(fdt_ro.o)
                0x2fff54e2                fdt_supernode_atdepth_offset
 .text.fdt_node_depth
                0x2fff554e       0x20 ./../build/optee-emmc-stm32mp157d-ev1/lib/libfdt.a(fdt_ro.o)
                0x2fff554e                fdt_node_depth
 .text.fdt_parent_offset
                0x2fff556e       0x20 ./../build/optee-emmc-stm32mp157d-ev1/lib/libfdt.a(fdt_ro.o)
                0x2fff556e                fdt_parent_offset
 .text.fdt_node_offset_by_phandle
                0x2fff558e       0x42 ./../build/optee-emmc-stm32mp157d-ev1/lib/libfdt.a(fdt_ro.o)
                0x2fff558e                fdt_node_offset_by_phandle
 .text.fdt_stringlist_contains
                0x2fff55d0       0x46 ./../build/optee-emmc-stm32mp157d-ev1/lib/libfdt.a(fdt_ro.o)
                0x2fff55d0                fdt_stringlist_contains
 .text.fdt_stringlist_search
                0x2fff5616       0x66 ./../build/optee-emmc-stm32mp157d-ev1/lib/libfdt.a(fdt_ro.o)
                0x2fff5616                fdt_stringlist_search
 .text.fdt_node_offset_by_compatible
                0x2fff567c       0x36 ./../build/optee-emmc-stm32mp157d-ev1/lib/libfdt.a(fdt_ro.o)
                0x2fff567c                fdt_node_offset_by_compatible
 .text.memchr   0x2fff56b2       0x1c ./../build/optee-emmc-stm32mp157d-ev1/lib/libc.a(memchr.o)
                0x2fff56b2                memchr
 .text.memcmp   0x2fff56ce       0x1c ./../build/optee-emmc-stm32mp157d-ev1/lib/libc.a(memcmp.o)
                0x2fff56ce                memcmp
 .text.memcpy   0x2fff56ea       0x16 ./../build/optee-emmc-stm32mp157d-ev1/lib/libc.a(memcpy.o)
                0x2fff56ea                memcpy
 .text.memmove  0x2fff5700       0x2c ./../build/optee-emmc-stm32mp157d-ev1/lib/libc.a(memmove.o)
                0x2fff5700                memmove
 .text.memset   0x2fff572c       0x42 ./../build/optee-emmc-stm32mp157d-ev1/lib/libc.a(memset.o)
                0x2fff572c                memset
 .text.unsigned_num_print.part.0
                0x2fff576e       0x92 ./../build/optee-emmc-stm32mp157d-ev1/lib/libc.a(printf.o)
 .text.printf   0x2fff5800       0x1a ./../build/optee-emmc-stm32mp157d-ev1/lib/libc.a(printf.o)
                0x2fff5800                printf
 .text.unsigned_num_print
                0x2fff581a       0xca ./../build/optee-emmc-stm32mp157d-ev1/lib/libc.a(snprintf.o)
 .text.snprintf
                0x2fff58e4       0x1a ./../build/optee-emmc-stm32mp157d-ev1/lib/libc.a(snprintf.o)
                0x2fff58e4                snprintf
 .text.strchr   0x2fff58fe       0x16 ./../build/optee-emmc-stm32mp157d-ev1/lib/libc.a(strchr.o)
                0x2fff58fe                strchr
 .text.strcmp   0x2fff5914       0x18 ./../build/optee-emmc-stm32mp157d-ev1/lib/libc.a(strcmp.o)
                0x2fff5914                strcmp
 .text.strlcpy  0x2fff592c       0x28 ./../build/optee-emmc-stm32mp157d-ev1/lib/libc.a(strlcpy.o)
                0x2fff592c                strlcpy
 .text.strlen   0x2fff5954       0x10 ./../build/optee-emmc-stm32mp157d-ev1/lib/libc.a(strlen.o)
                0x2fff5954                strlen
 .text.strncmp  0x2fff5964       0x28 ./../build/optee-emmc-stm32mp157d-ev1/lib/libc.a(strncmp.o)
                0x2fff5964                strncmp
 .text.strnlen  0x2fff598c       0x14 ./../build/optee-emmc-stm32mp157d-ev1/lib/libc.a(strnlen.o)
                0x2fff598c                strnlen
 .text.strrchr  0x2fff59a0       0x1a ./../build/optee-emmc-stm32mp157d-ev1/lib/libc.a(strrchr.o)
                0x2fff59a0                strrchr
 *(SORT_BY_ALIGNMENT(.rodata*))
 *fill*         0x2fff59ba        0x6 
 .rodata.stm32mp1_mmap
                0x2fff59c0       0x48 ./../build/optee-emmc-stm32mp157d-ev1/bl2/stm32mp1_private.o
 .rodata.block_dev_funcs
                0x2fff5a08       0x24 ./../build/optee-emmc-stm32mp157d-ev1/bl2/io_block.o
 .rodata.block_dev_connector
                0x2fff5a2c        0x4 ./../build/optee-emmc-stm32mp157d-ev1/bl2/io_block.o
 .rodata.fip_dev_funcs
                0x2fff5a30       0x24 ./../build/optee-emmc-stm32mp157d-ev1/bl2/io_fip.o
 .rodata.fip_dev_connector
                0x2fff5a54        0x4 ./../build/optee-emmc-stm32mp157d-ev1/bl2/io_fip.o
 .rodata.stm32mp_clk_ops
                0x2fff5a58       0x14 ./../build/optee-emmc-stm32mp157d-ev1/bl2/stm32mp1_clk.o
 .rodata.stm32mp1_clk_pll
                0x2fff5a6c       0x80 ./../build/optee-emmc-stm32mp157d-ev1/bl2/stm32mp1_clk.o
 .rodata.stm32mp1_clk_sel
                0x2fff5aec      0x108 ./../build/optee-emmc-stm32mp157d-ev1/bl2/stm32mp1_clk.o
 .rodata        0x2fff5bf4       0x40 ./../build/optee-emmc-stm32mp157d-ev1/bl2/stm32mp1_clk.o
 .rodata.ddr_registers
                0x2fff5c34       0x60 ./../build/optee-emmc-stm32mp157d-ev1/bl2/stm32mp1_ddr.o
 .rodata        0x2fff5c94       0x48 ./../build/optee-emmc-stm32mp157d-ev1/bl2/stm32mp1_ram.o
 .rodata.i2c_specs
                0x2fff5cdc       0x60 ./../build/optee-emmc-stm32mp157d-ev1/bl2/stm32_i2c.o
 .rodata.stm32_sdmmc2_ops
                0x2fff5d3c       0x18 ./../build/optee-emmc-stm32mp157d-ev1/bl2/stm32_sdmmc2.o
 .rodata.stm32_tamp_nvram_nvmem_ops
                0x2fff5d54        0x8 ./../build/optee-emmc-stm32mp157d-ev1/bl2/stm32mp_tamp_nvram_core.o
 .rodata.stm32mp1_tamp_nvram
                0x2fff5d5c        0x8 ./../build/optee-emmc-stm32mp157d-ev1/bl2/stm32mp_tamp_nvram_mp1.o
 .rodata.mp1_zone_cfg_fields
                0x2fff5d64       0x18 ./../build/optee-emmc-stm32mp157d-ev1/bl2/stm32mp_tamp_nvram_mp1.o
 .rodata.pmic_regs
                0x2fff5d7c      0x118 ./../build/optee-emmc-stm32mp157d-ev1/bl2/stm32mp_pmic.o
 .rodata.pmic_ops
                0x2fff5e94       0x20 ./../build/optee-emmc-stm32mp157d-ev1/bl2/stm32mp_pmic.o
 .rodata.regulators_table
                0x2fff5eb4      0x118 ./../build/optee-emmc-stm32mp157d-ev1/bl2/stpmic1.o
 .rodata.crc_table
                0x2fff5fcc      0x400 ./../build/optee-emmc-stm32mp157d-ev1/bl2/crc32.o
 .rodata.plat_prefix_str
                0x2fff63cc       0x14 ./../build/optee-emmc-stm32mp157d-ev1/bl2/plat_log_common.o
 .rodata        0x2fff63e0       0x10 ./../build/optee-emmc-stm32mp157d-ev1/bl2/bl2_io_storage.o
 .rodata.load_info
                0x2fff63f0       0x38 ./../build/optee-emmc-stm32mp157d-ev1/bl2/stm32mp_fconf_io.o
 .rodata        0x2fff6428       0x10 ./../build/optee-emmc-stm32mp157d-ev1/bl2/bl2_plat_setup.o
 .rodata.CSWTCH.28
                0x2fff6438       0x10 ./../build/optee-emmc-stm32mp157d-ev1/bl2/stm32mp1_private.o
 .rodata.CSWTCH.27
                0x2fff6448       0x10 ./../build/optee-emmc-stm32mp157d-ev1/bl2/stm32mp1_private.o
 .rodata.stm32mp1_clk_gate
                0x2fff6458      0x1d8 ./../build/optee-emmc-stm32mp157d-ev1/bl2/stm32mp1_clk.o
 .rodata.parent_mp15
                0x2fff6630      0x108 ./../build/optee-emmc-stm32mp157d-ev1/bl2/stm32mp1_clk.o
 .rodata.dividers_mp15
                0x2fff6738       0x96 ./../build/optee-emmc-stm32mp157d-ev1/bl2/stm32mp1_clk.o
 .rodata.ddrphy_timing
                0x2fff67ce       0x28 ./../build/optee-emmc-stm32mp157d-ev1/bl2/stm32mp1_ddr.o
 .rodata.ddrphy_reg
                0x2fff67f6       0x2c ./../build/optee-emmc-stm32mp157d-ev1/bl2/stm32mp1_ddr.o
 .rodata.ddr_perf
                0x2fff6822       0x44 ./../build/optee-emmc-stm32mp157d-ev1/bl2/stm32mp1_ddr.o
 .rodata.ddr_map
                0x2fff6866       0x24 ./../build/optee-emmc-stm32mp157d-ev1/bl2/stm32mp1_ddr.o
 .rodata.ddr_timing
                0x2fff688a       0x30 ./../build/optee-emmc-stm32mp157d-ev1/bl2/stm32mp1_ddr.o
 .rodata.ddr_reg
                0x2fff68ba       0x64 ./../build/optee-emmc-stm32mp157d-ev1/bl2/stm32mp1_ddr.o
 .rodata.fixed_5v_voltage_table
                0x2fff691e        0x2 ./../build/optee-emmc-stm32mp157d-ev1/bl2/stpmic1.o
 .rodata.vref_ddr_voltage_table
                0x2fff6920        0x2 ./../build/optee-emmc-stm32mp157d-ev1/bl2/stpmic1.o
 .rodata.ldo4_voltage_table
                0x2fff6922        0x2 ./../build/optee-emmc-stm32mp157d-ev1/bl2/stpmic1.o
 .rodata.ldo6_voltage_table
                0x2fff6924       0x32 ./../build/optee-emmc-stm32mp157d-ev1/bl2/stpmic1.o
 .rodata.ldo5_voltage_table
                0x2fff6956       0x3e ./../build/optee-emmc-stm32mp157d-ev1/bl2/stpmic1.o
 .rodata.ldo3_special_mode_table
                0x2fff6994        0x2 ./../build/optee-emmc-stm32mp157d-ev1/bl2/stpmic1.o
 .rodata.ldo3_voltage_table
                0x2fff6996       0x3e ./../build/optee-emmc-stm32mp157d-ev1/bl2/stpmic1.o
 .rodata.ldo2_voltage_table
                0x2fff69d4       0x32 ./../build/optee-emmc-stm32mp157d-ev1/bl2/stpmic1.o
 .rodata.ldo1_voltage_table
                0x2fff6a06       0x32 ./../build/optee-emmc-stm32mp157d-ev1/bl2/stpmic1.o
 .rodata.buck4_voltage_table
                0x2fff6a38       0x7a ./../build/optee-emmc-stm32mp157d-ev1/bl2/stpmic1.o
 .rodata.buck3_voltage_table
                0x2fff6ab2       0x70 ./../build/optee-emmc-stm32mp157d-ev1/bl2/stpmic1.o
 .rodata.buck2_voltage_table
                0x2fff6b22       0x4a ./../build/optee-emmc-stm32mp157d-ev1/bl2/stpmic1.o
 .rodata.buck1_voltage_table
                0x2fff6b6c       0x80 ./../build/optee-emmc-stm32mp157d-ev1/bl2/stpmic1.o
 .rodata.version_string
                0x2fff6bec       0x35 ./../build/optee-emmc-stm32mp157d-ev1/bl2/build_message.o
                0x2fff6bec                version_string
 .rodata.build_message
                0x2fff6c21       0x1e ./../build/optee-emmc-stm32mp157d-ev1/bl2/build_message.o
                0x2fff6c21                build_message
 .rodata.bl2_load_images.str1.1
                0x2fff6c3f     0x2b58 ./../build/optee-emmc-stm32mp157d-ev1/bl2/bl2_image_load_v2.o
                                0x11a (size before relaxing)
 .rodata.bl2_main.str1.1
                0x2fff9797       0x1e ./../build/optee-emmc-stm32mp157d-ev1/bl2/bl2_main.o
 .rodata.load_auth_image.str1.1
                0x2fff9797      0x12d ./../build/optee-emmc-stm32mp157d-ev1/bl2/bl_common.o
 .rodata.print_entry_point_info.str1.1
                0x2fff9797       0x2c ./../build/optee-emmc-stm32mp157d-ev1/bl2/bl_common.o
 .rodata.flush_bl_params_desc_args.str1.1
                0x2fff9797       0x19 ./../build/optee-emmc-stm32mp157d-ev1/bl2/desc_image_load.o
 .rodata.CSWTCH.28
                0x2fff9797        0x3 ./../build/optee-emmc-stm32mp157d-ev1/bl2/desc_image_load.o
 .rodata.fdt_read_uint32_array.str1.1
                0x2fff979a       0x31 ./../build/optee-emmc-stm32mp157d-ev1/bl2/fdt_wrappers.o
 .rodata.fdtw_read_bytes.str1.1
                0x2fff979a       0x23 ./../build/optee-emmc-stm32mp157d-ev1/bl2/fdt_wrappers.o
 .rodata.fdtw_read_string.str1.1
                0x2fff979a       0x32 ./../build/optee-emmc-stm32mp157d-ev1/bl2/fdt_wrappers.o
 .rodata.fdt_get_stdout_node_offset.str1.1
                0x2fff979a       0x23 ./../build/optee-emmc-stm32mp157d-ev1/bl2/fdt_wrappers.o
 .rodata.tf_log.str1.1
                0x2fff979a       0x10 ./../build/optee-emmc-stm32mp157d-ev1/bl2/tf_log.o
 .rodata.read_uuid.str1.1
                0x2fff979a       0x30 ./../build/optee-emmc-stm32mp157d-ev1/bl2/uuid.o
 .rodata.tzc400_set_action.str1.1
                0x2fff979a       0x19 ./../build/optee-emmc-stm32mp157d-ev1/bl2/tzc400.o
 .rodata.tzc400_init.str1.1
                0x2fff979a       0x24 ./../build/optee-emmc-stm32mp157d-ev1/bl2/tzc400.o
 .rodata.tzc400_enable_filters.str1.1
                0x2fff979a       0x32 ./../build/optee-emmc-stm32mp157d-ev1/bl2/tzc400.o
 .rodata.clk_enable.str1.1
                0x2fff979a       0x12 ./../build/optee-emmc-stm32mp157d-ev1/bl2/clk.o
 .rodata.console_unregister.str1.1
                0x2fff979a       0x20 ./../build/optee-emmc-stm32mp157d-ev1/bl2/multi_console.o
 .rodata.udelay.str1.1
                0x2fff979a       0x22 ./../build/optee-emmc-stm32mp157d-ev1/bl2/delay_timer.o
 .rodata.generic_delay_timer_init.str1.1
                0x2fff979a       0x2a ./../build/optee-emmc-stm32mp157d-ev1/bl2/generic_delay_timer.o
 .rodata.fwu_metadata_load.str1.1
                0x2fff979a      0x261 ./../build/optee-emmc-stm32mp157d-ev1/bl2/fwu.o
 .rodata.fwu_get_active_bank_state.str1.1
                0x2fff979a       0x12 ./../build/optee-emmc-stm32mp157d-ev1/bl2/fwu.o
 .rodata.fwu_init.str1.1
                0x2fff979a       0x60 ./../build/optee-emmc-stm32mp157d-ev1/bl2/fwu.o
 .rodata.block_seek.str1.1
                0x2fff979a       0x16 ./../build/optee-emmc-stm32mp157d-ev1/bl2/io_block.o
 .rodata.fip_dev_init.str1.1
                0x2fff979a       0x97 ./../build/optee-emmc-stm32mp157d-ev1/bl2/io_fip.o
 .rodata.fip_file_read.str1.1
                0x2fff979a       0x58 ./../build/optee-emmc-stm32mp157d-ev1/bl2/io_fip.o
 .rodata.fip_file_open.str1.1
                0x2fff979a       0x97 ./../build/optee-emmc-stm32mp157d-ev1/bl2/io_fip.o
 .rodata.uuid_null.0
                0x2fff979a       0x10 ./../build/optee-emmc-stm32mp157d-ev1/bl2/io_fip.o
 .rodata.free_entity.isra.0.str1.1
                0x2fff97aa       0x18 ./../build/optee-emmc-stm32mp157d-ev1/bl2/io_storage.o
 .rodata.mmc_device_state.str1.1
                0x2fff97aa       0x20 ./../build/optee-emmc-stm32mp157d-ev1/bl2/mmc.o
 .rodata.mmc_read_blocks.str1.1
                0x2fff97aa       0x12 ./../build/optee-emmc-stm32mp157d-ev1/bl2/mmc.o
 .rodata.mmc_init.str1.1
                0x2fff97aa       0x95 ./../build/optee-emmc-stm32mp157d-ev1/bl2/mmc.o
 .rodata.sd_tran_speed_base
                0x2fff97aa       0x10 ./../build/optee-emmc-stm32mp157d-ev1/bl2/mmc.o
 .rodata.tran_speed_base
                0x2fff97ba       0x10 ./../build/optee-emmc-stm32mp157d-ev1/bl2/mmc.o
 .rodata.parse_gpt_entry.str1.1
                0x2fff97ca       0x18 ./../build/optee-emmc-stm32mp157d-ev1/bl2/gpt.o
 .rodata.load_gpt_header.str1.1
                0x2fff97ca       0x3f ./../build/optee-emmc-stm32mp157d-ev1/bl2/partition.o
 .rodata.load_partition_table.str1.1
                0x2fff97ca       0x69 ./../build/optee-emmc-stm32mp157d-ev1/bl2/partition.o
 .rodata.partition_init.str1.1
                0x2fff97ca       0x2f ./../build/optee-emmc-stm32mp157d-ev1/bl2/partition.o
 .rodata.is_otp_invalid_mode.str1.1
                0x2fff97ca       0x1a ./../build/optee-emmc-stm32mp157d-ev1/bl2/bsec2.o
 .rodata.otp_bank_offset.str1.1
                0x2fff97ca       0x18 ./../build/optee-emmc-stm32mp157d-ev1/bl2/bsec2.o
 .rodata.bsec_write_otp.str1.1
                0x2fff97ca       0x2a ./../build/optee-emmc-stm32mp157d-ev1/bl2/bsec2.o
 .rodata.bsec_program_otp.str1.1
                0x2fff97ca       0xa8 ./../build/optee-emmc-stm32mp157d-ev1/bl2/bsec2.o
 .rodata.bsec_shadow_read_otp.str1.1
                0x2fff97ca       0x60 ./../build/optee-emmc-stm32mp157d-ev1/bl2/bsec2.o
 .rodata.stm32mp1_clk_get_gated_id.str1.1
                0x2fff97ca       0x1b ./../build/optee-emmc-stm32mp157d-ev1/bl2/stm32mp1_clk.o
 .rodata.stm32mp_clk_disable.str1.1
                0x2fff97ca       0x3d ./../build/optee-emmc-stm32mp157d-ev1/bl2/stm32mp1_clk.o
 .rodata.stm32mp_clk_enable.str1.1
                0x2fff97ca       0x44 ./../build/optee-emmc-stm32mp157d-ev1/bl2/stm32mp1_clk.o
 .rodata.stm32mp1_osc_wait.isra.0.str1.1
                0x2fff97ca       0x2c ./../build/optee-emmc-stm32mp157d-ev1/bl2/stm32mp1_clk.o
 .rodata.stm32mp1_clk_init.str1.1
                0x2fff97ca       0x45 ./../build/optee-emmc-stm32mp157d-ev1/bl2/stm32mp1_clk.o
 .rodata.stm32mp1_clk_probe.str1.1
                0x2fff97ca       0x62 ./../build/optee-emmc-stm32mp157d-ev1/bl2/stm32mp1_clk.o
 .rodata.__func__.0
                0x2fff97ca       0x1a ./../build/optee-emmc-stm32mp157d-ev1/bl2/stm32mp1_clk.o
 .rodata.stm32mp1_axi_div
                0x2fff97e4        0x8 ./../build/optee-emmc-stm32mp157d-ev1/bl2/stm32mp1_clk.o
 .rodata.stm32mp1_mpu_apbx_div
                0x2fff97ec        0x8 ./../build/optee-emmc-stm32mp157d-ev1/bl2/stm32mp1_clk.o
 .rodata.stm32mp1_mcu_div
                0x2fff97f4       0x10 ./../build/optee-emmc-stm32mp157d-ev1/bl2/stm32mp1_clk.o
 .rodata.pllncfgr2
                0x2fff9804        0x3 ./../build/optee-emmc-stm32mp157d-ev1/bl2/stm32mp1_clk.o
 .rodata.stm32mp1_pll
                0x2fff9807        0x4 ./../build/optee-emmc-stm32mp157d-ev1/bl2/stm32mp1_clk.o
 .rodata.rtc_parents
                0x2fff980b        0x4 ./../build/optee-emmc-stm32mp157d-ev1/bl2/stm32mp1_clk.o
 .rodata.per_parents
                0x2fff980f        0x3 ./../build/optee-emmc-stm32mp157d-ev1/bl2/stm32mp1_clk.o
 .rodata.mpu_parents
                0x2fff9812        0x4 ./../build/optee-emmc-stm32mp157d-ev1/bl2/stm32mp1_clk.o
 .rodata.usbo_parents
                0x2fff9816        0x2 ./../build/optee-emmc-stm32mp157d-ev1/bl2/stm32mp1_clk.o
 .rodata.usbphy_parents
                0x2fff9818        0x3 ./../build/optee-emmc-stm32mp157d-ev1/bl2/stm32mp1_clk.o
 .rodata.mcuss_parents
                0x2fff981b        0x4 ./../build/optee-emmc-stm32mp157d-ev1/bl2/stm32mp1_clk.o
 .rodata.axiss_parents
                0x2fff981f        0x3 ./../build/optee-emmc-stm32mp157d-ev1/bl2/stm32mp1_clk.o
 .rodata.fmc_parents
                0x2fff9822        0x4 ./../build/optee-emmc-stm32mp157d-ev1/bl2/stm32mp1_clk.o
 .rodata.qspi_parents
                0x2fff9826        0x4 ./../build/optee-emmc-stm32mp157d-ev1/bl2/stm32mp1_clk.o
 .rodata.sdmmc3_parents
                0x2fff982a        0x4 ./../build/optee-emmc-stm32mp157d-ev1/bl2/stm32mp1_clk.o
 .rodata.sdmmc12_parents
                0x2fff982e        0x4 ./../build/optee-emmc-stm32mp157d-ev1/bl2/stm32mp1_clk.o
 .rodata.uart234578_parents
                0x2fff9832        0x5 ./../build/optee-emmc-stm32mp157d-ev1/bl2/stm32mp1_clk.o
 .rodata.uart6_parents
                0x2fff9837        0x5 ./../build/optee-emmc-stm32mp157d-ev1/bl2/stm32mp1_clk.o
 .rodata.rng1_parents
                0x2fff983c        0x4 ./../build/optee-emmc-stm32mp157d-ev1/bl2/stm32mp1_clk.o
 .rodata.usart1_parents
                0x2fff9840        0x6 ./../build/optee-emmc-stm32mp157d-ev1/bl2/stm32mp1_clk.o
 .rodata.spi6_parents
                0x2fff9846        0x6 ./../build/optee-emmc-stm32mp157d-ev1/bl2/stm32mp1_clk.o
 .rodata.i2c46_parents
                0x2fff984c        0x4 ./../build/optee-emmc-stm32mp157d-ev1/bl2/stm32mp1_clk.o
 .rodata.stgen_parents
                0x2fff9850        0x2 ./../build/optee-emmc-stm32mp157d-ev1/bl2/stm32mp1_clk.o
 .rodata.i2c35_parents
                0x2fff9852        0x4 ./../build/optee-emmc-stm32mp157d-ev1/bl2/stm32mp1_clk.o
 .rodata.i2c12_parents
                0x2fff9856        0x4 ./../build/optee-emmc-stm32mp157d-ev1/bl2/stm32mp1_clk.o
 .rodata.parent_id_clock_id
                0x2fff985a       0x23 ./../build/optee-emmc-stm32mp157d-ev1/bl2/stm32mp1_clk.o
 .rodata.str1.1
                0x2fff987d       0x31 ./../build/optee-emmc-stm32mp157d-ev1/bl2/stm32mp1_clk.o
 .rodata.fdt_osc_read_freq.str1.1
                0x2fff987d       0x18 ./../build/optee-emmc-stm32mp157d-ev1/bl2/stm32mp_clkfunc.o
 .rodata.fdt_get_clock_id.str1.1
                0x2fff987d        0x7 ./../build/optee-emmc-stm32mp157d-ev1/bl2/stm32mp_clkfunc.o
 .rodata.stm32mp1_ddr_init.str1.1
                0x2fff987d       0x31 ./../build/optee-emmc-stm32mp157d-ev1/bl2/stm32mp1_ddr.o
 .rodata.str1.1
                0x2fff987d       0x17 ./../build/optee-emmc-stm32mp157d-ev1/bl2/stm32mp1_ddr.o
 .rodata.ddr_set_sr_mode.str1.1
                0x2fff987d       0x1c ./../build/optee-emmc-stm32mp157d-ev1/bl2/stm32mp1_ddr_helpers.o
 .rodata.CSWTCH.37
                0x2fff987d        0xa ./../build/optee-emmc-stm32mp157d-ev1/bl2/stm32mp1_ddr_helpers.o
 .rodata.stm32mp1_ddr_setup.str1.1
                0x2fff9887      0x10f ./../build/optee-emmc-stm32mp157d-ev1/bl2/stm32mp1_ram.o
 .rodata.stm32mp1_ddr_clk_enable.str1.1
                0x2fff9887       0x2f ./../build/optee-emmc-stm32mp157d-ev1/bl2/stm32mp1_ram.o
 .rodata.__func__.0
                0x2fff9887       0x13 ./../build/optee-emmc-stm32mp157d-ev1/bl2/stm32mp1_ram.o
 .rodata.str1.1
                0x2fff989a       0x49 ./../build/optee-emmc-stm32mp157d-ev1/bl2/stm32mp1_ram.o
 .rodata.stm32mp_ddr_set_reg.str1.1
                0x2fff989a       0x1b ./../build/optee-emmc-stm32mp157d-ev1/bl2/stm32mp_ddr.o
 .rodata.stm32mp_ddr_dt_get_info.str1.1
                0x2fff989a       0x23 ./../build/optee-emmc-stm32mp157d-ev1/bl2/stm32mp_ram.o
 .rodata.stm32mp_ddr_dt_get_param.str1.1
                0x2fff989a       0x1f ./../build/optee-emmc-stm32mp157d-ev1/bl2/stm32mp_ram.o
 .rodata.__func__.0
                0x2fff989a       0x19 ./../build/optee-emmc-stm32mp157d-ev1/bl2/stm32mp_ram.o
 .rodata.set_gpio.isra.0.str1.1
                0x2fff98b3       0x1d ./../build/optee-emmc-stm32mp157d-ev1/bl2/stm32_gpio.o
 .rodata.dt_set_pinctrl_config.str1.1
                0x2fff98b3       0x90 ./../build/optee-emmc-stm32mp157d-ev1/bl2/stm32_gpio.o
 .rodata.stm32_i2c_get_setup_from_fdt.str1.1
                0x2fff98b3       0x5d ./../build/optee-emmc-stm32mp157d-ev1/bl2/stm32_i2c.o
 .rodata.stm32_i2c_init.str1.1
                0x2fff98b3      0x146 ./../build/optee-emmc-stm32mp157d-ev1/bl2/stm32_i2c.o
 .rodata.fdt_get_clk_by_name.str1.1
                0x2fff98b3       0x13 ./../build/optee-emmc-stm32mp157d-ev1/bl2/stm32_iwdg.o
 .rodata.stm32_iwdg_init.str1.1
                0x2fff98b3       0x71 ./../build/optee-emmc-stm32mp157d-ev1/bl2/stm32_iwdg.o
 .rodata.stm32_sdmmc2_send_cmd.str1.1
                0x2fff98b3      0x104 ./../build/optee-emmc-stm32mp157d-ev1/bl2/stm32_sdmmc2.o
 .rodata.stm32_sdmmc2_read.str1.1
                0x2fff98b3       0x5b ./../build/optee-emmc-stm32mp157d-ev1/bl2/stm32_sdmmc2.o
 .rodata.stm32_sdmmc2_prepare.str1.1
                0x2fff98b3        0xf ./../build/optee-emmc-stm32mp157d-ev1/bl2/stm32_sdmmc2.o
 .rodata.stm32_sdmmc2_mmc_init.str1.1
                0x2fff98b3       0x5f ./../build/optee-emmc-stm32mp157d-ev1/bl2/stm32_sdmmc2.o
 .rodata.__func__.0
                0x2fff98b3       0x1a ./../build/optee-emmc-stm32mp157d-ev1/bl2/stm32_sdmmc2.o
 .rodata.__func__.1
                0x2fff98cd       0x12 ./../build/optee-emmc-stm32mp157d-ev1/bl2/stm32_sdmmc2.o
 .rodata.__func__.2
                0x2fff98df       0x16 ./../build/optee-emmc-stm32mp157d-ev1/bl2/stm32_sdmmc2.o
 .rodata.nvmem_driver_register.str1.1
                0x2fff98f5       0x4a ./../build/optee-emmc-stm32mp157d-ev1/bl2/nvmem.o
 .rodata.nvmem_get_cell_by_index.str1.1
                0x2fff98f5       0x3f ./../build/optee-emmc-stm32mp157d-ev1/bl2/nvmem.o
 .rodata.nvmem_get_cell_by_name.str1.1
                0x2fff98f5       0x11 ./../build/optee-emmc-stm32mp157d-ev1/bl2/nvmem.o
 .rodata.__func__.0
                0x2fff98f5       0x12 ./../build/optee-emmc-stm32mp157d-ev1/bl2/nvmem.o
 .rodata.stm32_tamp_nvram_write_bkp.str1.1
                0x2fff9907       0x27 ./../build/optee-emmc-stm32mp157d-ev1/bl2/stm32mp_tamp_nvram_core.o
 .rodata.stm32_tamp_nvram_read_cell.str1.1
                0x2fff9907       0x19 ./../build/optee-emmc-stm32mp157d-ev1/bl2/stm32mp_tamp_nvram_core.o
 .rodata.stm32_tamp_nvram_update_rights.str1.1
                0x2fff9907       0x86 ./../build/optee-emmc-stm32mp157d-ev1/bl2/stm32mp_tamp_nvram_core.o
 .rodata.stm32_tamp_nvram_init.str1.1
                0x2fff9907       0x1c ./../build/optee-emmc-stm32mp157d-ev1/bl2/stm32mp_tamp_nvram_core.o
 .rodata.dt_get_pmic_node.str1.1
                0x2fff9907        0xb ./../build/optee-emmc-stm32mp157d-ev1/bl2/stm32mp_pmic.o
 .rodata.handle_pmic_property.str1.1
                0x2fff9907       0x10 ./../build/optee-emmc-stm32mp157d-ev1/bl2/stm32mp_pmic.o
 .rodata.initialize_pmic_i2c.str1.1
                0x2fff9907       0x59 ./../build/optee-emmc-stm32mp157d-ev1/bl2/stm32mp_pmic.o
 .rodata.initialize_pmic.str1.1
                0x2fff9907       0x83 ./../build/optee-emmc-stm32mp157d-ev1/bl2/stm32mp_pmic.o
 .rodata.print_pmic_info_and_debug.str1.1
                0x2fff9907       0x31 ./../build/optee-emmc-stm32mp157d-ev1/bl2/stm32mp_pmic.o
 .rodata.__func__.0
                0x2fff9907        0xe ./../build/optee-emmc-stm32mp157d-ev1/bl2/stm32mp_pmic.o
 .rodata.str1.1
                0x2fff9915       0x55 ./../build/optee-emmc-stm32mp157d-ev1/bl2/stm32mp_pmic.o
 .rodata.stpmic1_regulator_levels_mv.str1.1
                0x2fff9915        0x5 ./../build/optee-emmc-stm32mp157d-ev1/bl2/stpmic1.o
 .rodata.stpmic1_regulator_voltage_get.str1.1
                0x2fff9915        0xe ./../build/optee-emmc-stm32mp157d-ev1/bl2/stpmic1.o
 .rodata.stpmic1_active_discharge_mode_set.str1.1
                0x2fff9915       0x10 ./../build/optee-emmc-stm32mp157d-ev1/bl2/stpmic1.o
 .rodata.str1.1
                0x2fff9915       0x3b ./../build/optee-emmc-stm32mp157d-ev1/bl2/stpmic1.o
 .rodata.regulator_get_by_name.str1.1
                0x2fff9915       0x39 ./../build/optee-emmc-stm32mp157d-ev1/bl2/regulator_core.o
 .rodata.regulator_get_by_supply_name.str1.1
                0x2fff9915       0x25 ./../build/optee-emmc-stm32mp157d-ev1/bl2/regulator_core.o
 .rodata.regulator_get_voltage.str1.1
                0x2fff9915       0x26 ./../build/optee-emmc-stm32mp157d-ev1/bl2/regulator_core.o
 .rodata.regulator_set_voltage.str1.1
                0x2fff9915       0x23 ./../build/optee-emmc-stm32mp157d-ev1/bl2/regulator_core.o
 .rodata.regulator_list_voltages.str1.1
                0x2fff9915       0x98 ./../build/optee-emmc-stm32mp157d-ev1/bl2/regulator_core.o
 .rodata.regulator_register.str1.1
                0x2fff9915      0x101 ./../build/optee-emmc-stm32mp157d-ev1/bl2/regulator_core.o
 .rodata.__func__.0
                0x2fff9915       0x19 ./../build/optee-emmc-stm32mp157d-ev1/bl2/regulator_core.o
 .rodata.fixed_regulator_register.str1.1
                0x2fff992e       0x58 ./../build/optee-emmc-stm32mp157d-ev1/bl2/regulator_fixed.o
 .rodata.__func__.0
                0x2fff992e       0x19 ./../build/optee-emmc-stm32mp157d-ev1/bl2/regulator_fixed.o
 .rodata.fconf_load_config.str1.1
                0x2fff9947       0x52 ./../build/optee-emmc-stm32mp157d-ev1/bl2/fconf.o
 .rodata.fconf_populate.str1.1
                0x2fff9947       0xa0 ./../build/optee-emmc-stm32mp157d-ev1/bl2/fconf.o
 .rodata.set_config_info.str1.1
                0x2fff9947       0x3e ./../build/optee-emmc-stm32mp157d-ev1/bl2/fconf_dyn_cfg_getter.o
 .rodata.fconf_populate_dtb_registry.str1.1
                0x2fff9947       0xd1 ./../build/optee-emmc-stm32mp157d-ev1/bl2/fconf_dyn_cfg_getter.o
 .rodata.dyn_cfg_dtb_info_getter.str1.1
                0x2fff9947       0x1e ./../build/optee-emmc-stm32mp157d-ev1/bl2/fconf_dyn_cfg_getter.o
 .rodata.str1.1
                0x2fff9947       0x12 ./../build/optee-emmc-stm32mp157d-ev1/bl2/fconf_dyn_cfg_getter.o
 .rodata.parse_optee_image.str1.1
                0x2fff9947       0x4d ./../build/optee-emmc-stm32mp157d-ev1/bl2/optee_utils.o
 .rodata.parse_optee_header.str1.1
                0x2fff9947      0x125 ./../build/optee-emmc-stm32mp157d-ev1/bl2/optee_utils.o
 .rodata.xlat_arch_regime_get_xn_desc.str1.1
                0x2fff9947       0x2e ./../build/optee-emmc-stm32mp157d-ev1/bl2/xlat_tables_arch.o
 .rodata.mmap_add_alloc_va.str1.1
                0x2fff9947       0x29 ./../build/optee-emmc-stm32mp157d-ev1/bl2/xlat_tables_context.o
 .rodata.xlat_table_get_index.str1.1
                0x2fff9947       0x26 ./../build/optee-emmc-stm32mp157d-ev1/bl2/xlat_tables_core.o
 .rodata.mmap_add_region_ctx.str1.1
                0x2fff9947       0x2b ./../build/optee-emmc-stm32mp157d-ev1/bl2/xlat_tables_core.o
 .rodata.init_xlat_tables_ctx.str1.1
                0x2fff9947       0x4f ./../build/optee-emmc-stm32mp157d-ev1/bl2/xlat_tables_core.o
 .rodata.str1.1
                0x2fff9947       0x32 ./../build/optee-emmc-stm32mp157d-ev1/bl2/plat_log_common.o
 .rodata.stm32mp_io_setup.str1.1
                0x2fff9947      0x133 ./../build/optee-emmc-stm32mp157d-ev1/bl2/bl2_io_storage.o
 .rodata.bl2_plat_handle_pre_image_load.str1.1
                0x2fff9947       0x10 ./../build/optee-emmc-stm32mp157d-ev1/bl2/bl2_io_storage.o
 .rodata.plat_fwu_get_boot_idx.str1.1
                0x2fff9947       0xba ./../build/optee-emmc-stm32mp157d-ev1/bl2/bl2_io_storage.o
 .rodata.plat_fwu_set_images_source.str1.1
                0x2fff9947       0x6c ./../build/optee-emmc-stm32mp157d-ev1/bl2/bl2_io_storage.o
 .rodata.plat_fwu_set_metadata_image_source.str1.1
                0x2fff9947       0x3a ./../build/optee-emmc-stm32mp157d-ev1/bl2/bl2_io_storage.o
 .rodata.__func__.0
                0x2fff9947       0x16 ./../build/optee-emmc-stm32mp157d-ev1/bl2/bl2_io_storage.o
 .rodata.stm32_get_bootinfo_cell.str1.1
                0x2fff995d       0x14 ./../build/optee-emmc-stm32mp157d-ev1/bl2/stm32mp_common.o
 .rodata.stm32_get_otp_index.str1.1
                0x2fff995d       0x20 ./../build/optee-emmc-stm32mp157d-ev1/bl2/stm32mp_common.o
 .rodata.stm32_get_otp_value_from_idx.str1.1
                0x2fff995d       0x1a ./../build/optee-emmc-stm32mp157d-ev1/bl2/stm32mp_common.o
 .rodata.stm32_get_otp_value.str1.1
                0x2fff995d       0x16 ./../build/optee-emmc-stm32mp157d-ev1/bl2/stm32mp_common.o
 .rodata.stm32_display_board_info.str1.1
                0x2fff995d       0x25 ./../build/optee-emmc-stm32mp157d-ev1/bl2/stm32mp_common.o
 .rodata.stm32_get_magic_number_cell.str1.1
                0x2fff995d        0xd ./../build/optee-emmc-stm32mp157d-ev1/bl2/stm32mp_common.o
 .rodata.stm32_get_core1_branch_address_cell.str1.1
                0x2fff995d       0x15 ./../build/optee-emmc-stm32mp157d-ev1/bl2/stm32mp_common.o
 .rodata.stm32_get_fwu_info_cell.str1.1
                0x2fff995d        0x9 ./../build/optee-emmc-stm32mp157d-ev1/bl2/stm32mp_common.o
 .rodata.stm32_get_boot_mode_cell.str1.1
                0x2fff995d        0xa ./../build/optee-emmc-stm32mp157d-ev1/bl2/stm32mp_common.o
 .rodata.fdt_get_status.str1.1
                0x2fff995d       0x1a ./../build/optee-emmc-stm32mp157d-ev1/bl2/stm32mp_dt.o
 .rodata.dt_fill_device_info.str1.1
                0x2fff995d       0x2e ./../build/optee-emmc-stm32mp157d-ev1/bl2/stm32mp_dt.o
 .rodata.dt_get_ddr_size.str1.1
                0x2fff995d       0x3d ./../build/optee-emmc-stm32mp157d-ev1/bl2/stm32mp_dt.o
 .rodata.dt_get_vdd_regulator.str1.1
                0x2fff995d       0x18 ./../build/optee-emmc-stm32mp157d-ev1/bl2/stm32mp_dt.o
 .rodata.dt_get_board_model.str1.1
                0x2fff995d        0x8 ./../build/optee-emmc-stm32mp157d-ev1/bl2/stm32mp_dt.o
 .rodata.dt_find_otp_name.str1.1
                0x2fff995d       0x76 ./../build/optee-emmc-stm32mp157d-ev1/bl2/stm32mp_dt.o
 .rodata.__func__.0
                0x2fff995d       0x10 ./../build/optee-emmc-stm32mp157d-ev1/bl2/stm32mp_dt.o
 .rodata.fconf_populate_stm32mp_fuse_provisioning.str1.1
                0x2fff996d       0x8b ./../build/optee-emmc-stm32mp157d-ev1/bl2/stm32mp_fconf_fuse.o
 .rodata.str1.1
                0x2fff996d       0x13 ./../build/optee-emmc-stm32mp157d-ev1/bl2/stm32mp_fconf_fuse.o
 .rodata.fconf_populate_stm32mp_io_policies.str1.1
                0x2fff996d       0x99 ./../build/optee-emmc-stm32mp157d-ev1/bl2/stm32mp_fconf_io.o
 .rodata.str1.1
                0x2fff996d       0x6f ./../build/optee-emmc-stm32mp157d-ev1/bl2/stm32mp_fconf_io.o
 .rodata.bl2_platform_setup.str1.1
                0x2fff996d       0x35 ./../build/optee-emmc-stm32mp157d-ev1/bl2/bl2_plat_setup.o
 .rodata.bl2_el3_plat_arch_setup.str1.1
                0x2fff996d      0x3c5 ./../build/optee-emmc-stm32mp157d-ev1/bl2/bl2_plat_setup.o
 .rodata.bl2_plat_handle_post_image_load.str1.1
                0x2fff996d       0x26 ./../build/optee-emmc-stm32mp157d-ev1/bl2/bl2_plat_setup.o
 .rodata.debug_msg
                0x2fff996d      0x1d5 ./../build/optee-emmc-stm32mp157d-ev1/bl2/bl2_plat_setup.o
 .rodata.stm32mp_board_ddr_power_init.str1.1
                0x2fff9b42       0x4d ./../build/optee-emmc-stm32mp157d-ev1/bl2/plat_ddr.o
 .rodata.__func__.0
                0x2fff9b42       0x14 ./../build/optee-emmc-stm32mp157d-ev1/bl2/plat_ddr.o
 .rodata.stm32_pm_get_optee_ep.str1.1
                0x2fff9b56       0x18 ./../build/optee-emmc-stm32mp157d-ev1/bl2/stm32mp1_context.o
 .rodata.stm32_pm_context_is_valid.str1.1
                0x2fff9b56       0x33 ./../build/optee-emmc-stm32mp157d-ev1/bl2/stm32mp1_context.o
 .rodata.stm32_pwr_down_wfi_load.str1.1
                0x2fff9b56       0x3a ./../build/optee-emmc-stm32mp157d-ev1/bl2/stm32mp1_critic_power.o
 .rodata.stm32mp1_dbgmcu_init.str1.1
                0x2fff9b56       0x36 ./../build/optee-emmc-stm32mp157d-ev1/bl2/stm32mp1_dbgmcu.o
 .rodata.stm32mp1_dbgmcu_get_chip_version.str1.1
                0x2fff9b56       0x23 ./../build/optee-emmc-stm32mp157d-ev1/bl2/stm32mp1_dbgmcu.o
 .rodata.fconf_populate_stm32mp1_firewall.str1.1
                0x2fff9b56       0x68 ./../build/optee-emmc-stm32mp157d-ev1/bl2/stm32mp1_fconf_firewall.o
 .rodata.stm32mp1_security_setup.str1.1
                0x2fff9b56       0x2b ./../build/optee-emmc-stm32mp157d-ev1/bl2/stm32mp1_fconf_firewall.o
 .rodata.str1.1
                0x2fff9b56       0x1c ./../build/optee-emmc-stm32mp157d-ev1/bl2/stm32mp1_fconf_firewall.o
 .rodata.stm32_get_gpio_bank_base.str1.1
                0x2fff9b56       0x24 ./../build/optee-emmc-stm32mp157d-ev1/bl2/stm32mp1_private.o
 .rodata.stm32mp_get_chip_version.str1.1
                0x2fff9b56       0x29 ./../build/optee-emmc-stm32mp157d-ev1/bl2/stm32mp1_private.o
 .rodata.stm32mp_get_chip_dev_id.str1.1
                0x2fff9b56       0x26 ./../build/optee-emmc-stm32mp157d-ev1/bl2/stm32mp1_private.o
 .rodata.stm32mp_get_part_number.str1.1
                0x2fff9b56       0x10 ./../build/optee-emmc-stm32mp157d-ev1/bl2/stm32mp1_private.o
 .rodata.stm32mp_get_soc_name.str1.1
                0x2fff9b56       0x65 ./../build/optee-emmc-stm32mp157d-ev1/bl2/stm32mp1_private.o
 .rodata.stm32mp_print_cpuinfo.str1.1
                0x2fff9b56        0xa ./../build/optee-emmc-stm32mp157d-ev1/bl2/stm32mp1_private.o
 .rodata.stm32mp_print_boardinfo.str1.1
                0x2fff9b56        0x9 ./../build/optee-emmc-stm32mp157d-ev1/bl2/stm32mp1_private.o
 .rodata.stm32mp_check_closed_device.str1.1
                0x2fff9b56        0x9 ./../build/optee-emmc-stm32mp157d-ev1/bl2/stm32mp1_private.o
 .rodata.stm32_iwdg_get_otp_config.str1.1
                0x2fff9b56        0x8 ./../build/optee-emmc-stm32mp157d-ev1/bl2/stm32mp1_private.o
 .rodata.str1.1
                0x2fff9b56       0x12 ./../build/optee-emmc-stm32mp157d-ev1/bl2/stm32mp1_private.o
 .rodata.stm32mp_syscfg_init.str1.1
                0x2fff9b56       0x97 ./../build/optee-emmc-stm32mp157d-ev1/bl2/stm32mp1_syscfg.o
 .rodata.stm32mp_syscfg_enable_io_compensation_finish.str1.1
                0x2fff9b56       0x21 ./../build/optee-emmc-stm32mp157d-ev1/bl2/stm32mp1_syscfg.o
 .rodata.str1.1
                0x2fff9b56       0x29 ./../build/optee-emmc-stm32mp157d-ev1/bl2/bl2_el3_entrypoint.o
 .rodata.assert_str
                0x2fff9b7f       0x15 ./../build/optee-emmc-stm32mp157d-ev1/bl2/debug.o
 .rodata.panic_str
                0x2fff9b94       0x14 ./../build/optee-emmc-stm32mp157d-ev1/bl2/debug.o
 .rodata.str1.1
                0x2fff9ba8       0x28 ./../build/optee-emmc-stm32mp157d-ev1/bl2/stm32_console.o
 .rodata.errata_entries
                0x2fff9bd0        0x0 ./../build/optee-emmc-stm32mp157d-ev1/bl2/cortex_a7.o
 .rodata.str1.1
                0x2fff9bd0       0x1f ./../build/optee-emmc-stm32mp157d-ev1/bl2/cpu_helpers.o
 .rodata.str1.1
                0x2fff9bef       0x28 ./../build/optee-emmc-stm32mp157d-ev1/bl2/enable_mmu.o
 .rodata.rev_err_str
                0x2fff9c17       0x92 ./../build/optee-emmc-stm32mp157d-ev1/bl2/stm32mp1_helper.o
 .rodata.fdt_address_cells.str1.1
                0x2fff9ca9        0xf ./../build/optee-emmc-stm32mp157d-ev1/lib/libfdt.a(fdt_addresses.o)
 .rodata.fdt_get_phandle.str1.1
                0x2fff9ca9       0x16 ./../build/optee-emmc-stm32mp157d-ev1/lib/libfdt.a(fdt_ro.o)
 .rodata.fdt_get_alias_namelen.str1.1
                0x2fff9ca9        0x9 ./../build/optee-emmc-stm32mp157d-ev1/lib/libfdt.a(fdt_ro.o)
 .rodata.fdt_node_check_compatible.str1.1
                0x2fff9ca9        0xb ./../build/optee-emmc-stm32mp157d-ev1/lib/libfdt.a(fdt_ro.o)
 .rodata.__assert.str1.1
                0x2fff9ca9        0xf ./../build/optee-emmc-stm32mp157d-ev1/lib/libc.a(assert.o)
 .rodata.vprintf.str1.1
                0x2fff9ca9       0x15 ./../build/optee-emmc-stm32mp157d-ev1/lib/libc.a(printf.o)
 .rodata.vsnprintf.str1.1
                0x2fff9ca9        0x3 ./../build/optee-emmc-stm32mp157d-ev1/lib/libc.a(snprintf.o)
                0x2fff9d34                        . = ALIGN (0x4)
 *fill*         0x2fff9ca9        0x3 
                0x2fff9cac                        __RT_SVC_DESCS_START__ = .
 *(SORT_BY_ALIGNMENT(.rt_svc_descs))
                0x2fff9cac                        __RT_SVC_DESCS_END__ = .
                0x2fff9cac                        . = ALIGN (0x4)
                0x2fff9cac                        __FCONF_POPULATOR_START__ = .
 *(SORT_BY_ALIGNMENT(.fconf_populator))
 .fconf_populator
                0x2fff9cac        0xc ./../build/optee-emmc-stm32mp157d-ev1/bl2/fconf_dyn_cfg_getter.o
 .fconf_populator
                0x2fff9cb8        0xc ./../build/optee-emmc-stm32mp157d-ev1/bl2/stm32mp_fconf_fuse.o
 .fconf_populator
                0x2fff9cc4        0xc ./../build/optee-emmc-stm32mp157d-ev1/bl2/stm32mp_fconf_io.o
 .fconf_populator
                0x2fff9cd0        0xc ./../build/optee-emmc-stm32mp157d-ev1/bl2/stm32mp1_fconf_firewall.o
                0x2fff9cdc                        __FCONF_POPULATOR_END__ = .
                0x2fff9cdc                        . = ALIGN (0x4)
                0x2fff9cdc                        __PMF_SVC_DESCS_START__ = .
 *(SORT_BY_ALIGNMENT(.pmf_svc_descs))
                0x2fff9cdc                        __PMF_SVC_DESCS_END__ = .
                0x2fff9cdc                        . = ALIGN (0x4)
                0x2fff9cdc                        __PARSER_LIB_DESCS_START__ = .
 *(SORT_BY_ALIGNMENT(.img_parser_lib_descs))
                0x2fff9cdc                        __PARSER_LIB_DESCS_END__ = .
                0x2fff9cdc                        . = ALIGN (0x4)
                0x2fff9cdc                        __CPU_OPS_START__ = .
 *(SORT_BY_ALIGNMENT(.cpu_ops))
 .cpu_ops       0x2fff9cdc       0x10 ./../build/optee-emmc-stm32mp157d-ev1/bl2/cortex_a7.o
                0x2fff9cec                        __CPU_OPS_END__ = .
                0x2fff9cec                        . = ALIGN (0x4)
                0x2fff9cec                        __GOT_START__ = .
 *(SORT_BY_ALIGNMENT(.got))
                0x2fff9cec                        __GOT_END__ = .
 *(SORT_BY_ALIGNMENT(.vectors))
 *fill*         0x2fff9cec       0x14 
 .vectors       0x2fff9d00       0x20 ./../build/optee-emmc-stm32mp157d-ev1/bl2/bl2_el3_exceptions.o
                0x2fff9d00                bl2_vector_table
 .vectors.__stub
                0x2fff9d20       0x38 linker stubs
                0x2fff9d58                        __RO_END_UNALIGNED__ = .
                0x2fffa000                        . = ALIGN (0x1000)
 *fill*         0x2fff9d58      0x2a8 
                0x2fffa000                        __RO_END__ = .
                0x00000001                        ASSERT ((__CPU_OPS_END__ > __CPU_OPS_START__), cpu_ops not defined for this platform.)
                0x2fffa000                        __RW_START__ = .

.glue_7         0x2fffa000        0x0
 .glue_7        0x2fffa000        0x0 linker stubs

.glue_7t        0x2fffa000        0x0
 .glue_7t       0x2fffa000        0x0 linker stubs

.vfp11_veneer   0x2fffa000        0x0
 .vfp11_veneer  0x2fffa000        0x0 linker stubs

.v4_bx          0x2fffa000        0x0
 .v4_bx         0x2fffa000        0x0 linker stubs

.iplt           0x2fffa000        0x0
 .iplt          0x2fffa000        0x0 ./../build/optee-emmc-stm32mp157d-ev1/bl2/bl2_image_load_v2.o

.data           0x2fffa000      0x5c1
                0x2fffa000                        __DATA_START__ = .
 *(SORT_BY_ALIGNMENT(.data*))
 .data.tf_xlat_ctx
                0x2fffa000       0x48 ./../build/optee-emmc-stm32mp157d-ev1/bl2/xlat_tables_context.o
 .data.max_log_level
                0x2fffa048        0x4 ./../build/optee-emmc-stm32mp157d-ev1/bl2/tf_log.o
 .data.stm32mp15_clock_data
                0x2fffa04c       0x18 ./../build/optee-emmc-stm32mp157d-ev1/bl2/stm32mp1_clk.o
 .data.stm32mp15_clock_pdata
                0x2fffa064       0x1c ./../build/optee-emmc-stm32mp157d-ev1/bl2/stm32mp1_clk.o
                0x2fffa064                stm32mp15_clock_pdata
 .data.stm32mp_osc_node_label
                0x2fffa080       0x18 ./../build/optee-emmc-stm32mp157d-ev1/bl2/stm32mp1_clk.o
                0x2fffa080                stm32mp_osc_node_label
 .data.mp1_bkpreg_access
                0x2fffa098        0xc ./../build/optee-emmc-stm32mp157d-ev1/bl2/stm32mp_tamp_nvram_mp1.o
 .data.i2c_node.1
                0x2fffa0a4        0x4 ./../build/optee-emmc-stm32mp157d-ev1/bl2/stm32mp_pmic.o
 .data.node.2   0x2fffa0a8        0x4 ./../build/optee-emmc-stm32mp157d-ev1/bl2/stm32mp_pmic.o
 .data.status.3
                0x2fffa0ac        0x4 ./../build/optee-emmc-stm32mp157d-ev1/bl2/stm32mp_pmic.o
 .data.fixed_ops
                0x2fffa0b0       0x20 ./../build/optee-emmc-stm32mp157d-ev1/bl2/regulator_fixed.o
 .data.dtb_info_pool
                0x2fffa0d0       0x10 ./../build/optee-emmc-stm32mp157d-ev1/bl2/fconf_dyn_cfg_getter.o
 .data.boot_idx.1
                0x2fffa0e0        0x4 ./../build/optee-emmc-stm32mp157d-ev1/bl2/bl2_io_storage.o
 .data.mmc_block_dev_spec
                0x2fffa0e4       0x14 ./../build/optee-emmc-stm32mp157d-ev1/bl2/bl2_io_storage.o
 .data.fconf_stm32mp_uuids_pool
                0x2fffa0f8       0x10 ./../build/optee-emmc-stm32mp157d-ev1/bl2/stm32mp_fconf_io.o
 .data.policies
                0x2fffa108      0x214 ./../build/optee-emmc-stm32mp157d-ev1/bl2/stm32mp_fconf_io.o
                0x2fffa108                policies
 .data.gpt_block_spec
                0x2fffa31c        0x8 ./../build/optee-emmc-stm32mp157d-ev1/bl2/stm32mp_fconf_io.o
 .data.bl_mem_params_desc_num
                0x2fffa324        0x4 ./../build/optee-emmc-stm32mp157d-ev1/bl2/plat_bl2_mem_params_desc.o
                0x2fffa324                bl_mem_params_desc_num
 .data.bl_mem_params_desc_ptr
                0x2fffa328        0x4 ./../build/optee-emmc-stm32mp157d-ev1/bl2/plat_bl2_mem_params_desc.o
                0x2fffa328                bl_mem_params_desc_ptr
 .data.bl2_mem_params_descs
                0x2fffa32c      0x284 ./../build/optee-emmc-stm32mp157d-ev1/bl2/plat_bl2_mem_params_desc.o
 .data.skip.0   0x2fffa5b0        0x4 ./../build/optee-emmc-stm32mp157d-ev1/bl2/stm32mp1_private.o
 .data          0x2fffa5b4        0xc ./../build/optee-emmc-stm32mp157d-ev1/bl2/stm32mp1_critic_power_wrapper.o
 .data.console_state
                0x2fffa5c0        0x1 ./../build/optee-emmc-stm32mp157d-ev1/bl2/multi_console.o
                0x2fffa5c1                        __DATA_END__ = .
                0x2fffa000                        __DATA_RAM_START__ = __DATA_START__
                0x2fffa5c1                        __DATA_RAM_END__ = __DATA_END__

.igot.plt       0x2fffa5c4        0x0
 .igot.plt      0x2fffa5c4        0x0 ./../build/optee-emmc-stm32mp157d-ev1/bl2/bl2_image_load_v2.o

.rel.dyn        0x2fffa5c4        0x0
                0x2fffa5c4                        __RELA_START__ = .
 *(SORT_BY_ALIGNMENT(.rel*))
 .rel.iplt      0x2fffa5c4        0x0 ./../build/optee-emmc-stm32mp157d-ev1/bl2/bl2_image_load_v2.o
                0x2fffa5c4                        __RELA_END__ = .

.stacks         0x2fffa600      0xc00
                0x2fffa600                        __STACKS_START__ = .
 *(SORT_BY_ALIGNMENT(.tzfw_normal_stacks))
 .tzfw_normal_stacks
                0x2fffa600      0xc00 ./../build/optee-emmc-stm32mp157d-ev1/bl2/platform_up_stack.o
                0x2fffb200                        __STACKS_END__ = .

.bss            0x2fffb200     0x1220
                0x2fffb200                        __BSS_START__ = .
 *(SORT_BY_ALIGNMENT(.bss*))
 .bss.block_buffer
                0x2fffb200      0x200 ./../build/optee-emmc-stm32mp157d-ev1/bl2/bl2_io_storage.o
 .bss.scr       0x2fffb400        0x8 ./../build/optee-emmc-stm32mp157d-ev1/bl2/mmc.o
 *fill*         0x2fffb408        0x8 
 .bss.mmc_ext_csd
                0x2fffb410      0x200 ./../build/optee-emmc-stm32mp157d-ev1/bl2/mmc.o
 .bss.state_pool
                0x2fffb610       0x18 ./../build/optee-emmc-stm32mp157d-ev1/bl2/io_block.o
 .bss.current_fip_file
                0x2fffb628       0x30 ./../build/optee-emmc-stm32mp157d-ev1/bl2/io_fip.o
 .bss.list      0x2fffb658      0x218 ./../build/optee-emmc-stm32mp157d-ev1/bl2/partition.o
 .bss.ddr_priv_data
                0x2fffb870       0x20 ./../build/optee-emmc-stm32mp157d-ev1/bl2/stm32mp1_ram.o
 .bss.tf_mmap   0x2fffb890       0xc0 ./../build/optee-emmc-stm32mp157d-ev1/bl2/xlat_tables_context.o
 .bss.mmu_cfg_params
                0x2fffb950       0x18 ./../build/optee-emmc-stm32mp157d-ev1/bl2/xlat_tables_context.o
                0x2fffb950                mmu_cfg_params
 .bss.mmc_info  0x2fffb968       0x18 ./../build/optee-emmc-stm32mp157d-ev1/bl2/bl2_io_storage.o
 .bss.next_bl_params
                0x2fffb980        0xc ./../build/optee-emmc-stm32mp157d-ev1/bl2/desc_image_load.o
 .bss.bl_load_info
                0x2fffb98c        0xc ./../build/optee-emmc-stm32mp157d-ev1/bl2/desc_image_load.o
 .bss.tzc400    0x2fffb998        0x8 ./../build/optee-emmc-stm32mp157d-ev1/bl2/tzc400.o
 .bss.ops       0x2fffb9a0        0x4 ./../build/optee-emmc-stm32mp157d-ev1/bl2/clk.o
 .bss.console_list
                0x2fffb9a4        0x4 ./../build/optee-emmc-stm32mp157d-ev1/bl2/multi_console.o
                0x2fffb9a4                console_list
 .bss.timer_ops
                0x2fffb9a8        0x4 ./../build/optee-emmc-stm32mp157d-ev1/bl2/delay_timer.o
 .bss.ops       0x2fffb9ac        0xc ./../build/optee-emmc-stm32mp157d-ev1/bl2/generic_delay_timer.o
 .bss.block_dev_count
                0x2fffb9b8        0x4 ./../build/optee-emmc-stm32mp157d-ev1/bl2/io_block.o
 .bss.dev_info_pool
                0x2fffb9bc        0x8 ./../build/optee-emmc-stm32mp157d-ev1/bl2/io_block.o
 .bss.fip_dev_count
                0x2fffb9c4        0x4 ./../build/optee-emmc-stm32mp157d-ev1/bl2/io_fip.o
 .bss.dev_info_pool
                0x2fffb9c8        0x8 ./../build/optee-emmc-stm32mp157d-ev1/bl2/io_fip.o
 .bss.state_pool
                0x2fffb9d0        0x8 ./../build/optee-emmc-stm32mp157d-ev1/bl2/io_fip.o
 .bss.backend_image_spec
                0x2fffb9d8        0x4 ./../build/optee-emmc-stm32mp157d-ev1/bl2/io_fip.o
 .bss.backend_dev_handle
                0x2fffb9dc        0x4 ./../build/optee-emmc-stm32mp157d-ev1/bl2/io_fip.o
 .bss.dev_count
                0x2fffb9e0        0x4 ./../build/optee-emmc-stm32mp157d-ev1/bl2/io_storage.o
 .bss.entity_count
                0x2fffb9e4        0x4 ./../build/optee-emmc-stm32mp157d-ev1/bl2/io_storage.o
 .bss.entity_map
                0x2fffb9e8       0x10 ./../build/optee-emmc-stm32mp157d-ev1/bl2/io_storage.o
 .bss.entity_pool
                0x2fffb9f8       0x20 ./../build/optee-emmc-stm32mp157d-ev1/bl2/io_storage.o
 .bss.rca       0x2fffba18        0x4 ./../build/optee-emmc-stm32mp157d-ev1/bl2/mmc.o
 .bss.mmc_dev_info
                0x2fffba1c        0x4 ./../build/optee-emmc-stm32mp157d-ev1/bl2/mmc.o
 .bss.mmc_flags
                0x2fffba20        0x4 ./../build/optee-emmc-stm32mp157d-ev1/bl2/mmc.o
 .bss.mmc_csd   0x2fffba24       0x10 ./../build/optee-emmc-stm32mp157d-ev1/bl2/mmc.o
 .bss.mmc_ocr_value
                0x2fffba34        0x4 ./../build/optee-emmc-stm32mp157d-ev1/bl2/mmc.o
 .bss.ops       0x2fffba38        0x4 ./../build/optee-emmc-stm32mp157d-ev1/bl2/mmc.o
 .bss.bsec_spinlock
                0x2fffba3c        0x4 ./../build/optee-emmc-stm32mp157d-ev1/bl2/bsec2.o
 .bss.mp15_clkdiv
                0x2fffba40       0x64 ./../build/optee-emmc-stm32mp157d-ev1/bl2/stm32mp1_clk.o
                0x2fffba40                mp15_clkdiv
 .bss.mp15_clksrc
                0x2fffbaa4       0xb0 ./../build/optee-emmc-stm32mp157d-ev1/bl2/stm32mp1_clk.o
                0x2fffbaa4                mp15_clksrc
 .bss.mp15_pll  0x2fffbb54       0xd0 ./../build/optee-emmc-stm32mp157d-ev1/bl2/stm32mp1_clk.o
                0x2fffbb54                mp15_pll
 .bss.refcount_lock
                0x2fffbc24        0x4 ./../build/optee-emmc-stm32mp157d-ev1/bl2/stm32mp1_clk.o
 .bss.gate_refcounts
                0x2fffbc28       0xec ./../build/optee-emmc-stm32mp157d-ev1/bl2/stm32mp1_clk.o
 .bss.reg_lock  0x2fffbd14        0x4 ./../build/optee-emmc-stm32mp157d-ev1/bl2/stm32mp1_clk.o
 .bss.stm32mp1_osc
                0x2fffbd18       0x18 ./../build/optee-emmc-stm32mp157d-ev1/bl2/stm32mp1_clk.o
 .bss.stm32_clock_data
                0x2fffbd30        0x4 ./../build/optee-emmc-stm32mp157d-ev1/bl2/stm32mp1_clk.o
 .bss.stm32_iwdg
                0x2fffbd34       0x20 ./../build/optee-emmc-stm32mp157d-ev1/bl2/stm32_iwdg.o
 .bss.sdmmc2_params
                0x2fffbd54       0x34 ./../build/optee-emmc-stm32mp157d-ev1/bl2/stm32_sdmmc2.o
 .bss.nvmem_dev_array
                0x2fffbd88        0xc ./../build/optee-emmc-stm32mp157d-ev1/bl2/nvmem.o
 .bss.static_bkpreg_zones_end.0
                0x2fffbd94        0xc ./../build/optee-emmc-stm32mp157d-ev1/bl2/stm32mp_tamp_nvram_core.o
 .bss.nvram_drv_data
                0x2fffbda0       0x2c ./../build/optee-emmc-stm32mp157d-ev1/bl2/stm32mp_tamp_nvram_core.o
 .bss.pmic_i2c_addr
                0x2fffbdcc        0x4 ./../build/optee-emmc-stm32mp157d-ev1/bl2/stm32mp_pmic.o
 .bss.i2c_handle
                0x2fffbdd0       0x24 ./../build/optee-emmc-stm32mp157d-ev1/bl2/stm32mp_pmic.o
 .bss.pmic_i2c_handle
                0x2fffbdf4        0x4 ./../build/optee-emmc-stm32mp157d-ev1/bl2/stpmic1.o
 .bss.rdev_array
                0x2fffbdf8      0x17c ./../build/optee-emmc-stm32mp157d-ev1/bl2/regulator_core.o
 .bss.data      0x2fffbf74       0x68 ./../build/optee-emmc-stm32mp157d-ev1/bl2/regulator_fixed.o
 .bss.dtb_infos
                0x2fffbfdc       0x60 ./../build/optee-emmc-stm32mp157d-ev1/bl2/fconf_dyn_cfg_getter.o
 .bss.tf_mapped_regions
                0x2fffc03c        0x8 ./../build/optee-emmc-stm32mp157d-ev1/bl2/xlat_tables_context.o
 .bss.image_block_spec
                0x2fffc044        0x8 ./../build/optee-emmc-stm32mp157d-ev1/bl2/bl2_io_storage.o
                0x2fffc044                image_block_spec
 .bss.mmc_dev_con
                0x2fffc04c        0x4 ./../build/optee-emmc-stm32mp157d-ev1/bl2/bl2_io_storage.o
 .bss.fip_dev_con
                0x2fffc050        0x4 ./../build/optee-emmc-stm32mp157d-ev1/bl2/bl2_io_storage.o
 .bss.storage_dev_handle
                0x2fffc054        0x4 ./../build/optee-emmc-stm32mp157d-ev1/bl2/bl2_io_storage.o
                0x2fffc054                storage_dev_handle
 .bss.fip_dev_handle
                0x2fffc058        0x4 ./../build/optee-emmc-stm32mp157d-ev1/bl2/bl2_io_storage.o
                0x2fffc058                fip_dev_handle
 .bss.s_boot_mode.0
                0x2fffc05c        0xc ./../build/optee-emmc-stm32mp157d-ev1/bl2/stm32mp_common.o
 .bss.s_fwu_info.2
                0x2fffc068        0xc ./../build/optee-emmc-stm32mp157d-ev1/bl2/stm32mp_common.o
 .bss.s_core1_branch_address.4
                0x2fffc074        0xc ./../build/optee-emmc-stm32mp157d-ev1/bl2/stm32mp_common.o
 .bss.s_magic_number.6
                0x2fffc080        0xc ./../build/optee-emmc-stm32mp157d-ev1/bl2/stm32mp_common.o
 .bss.boot_action_saved
                0x2fffc08c        0x4 ./../build/optee-emmc-stm32mp157d-ev1/bl2/stm32mp_common.o
 .bss.boot_ctx_address
                0x2fffc090        0x4 ./../build/optee-emmc-stm32mp157d-ev1/bl2/stm32mp_common.o
 .bss.lock      0x2fffc094        0x4 ./../build/optee-emmc-stm32mp157d-ev1/bl2/stm32mp_common.o
 .bss.console_clk
                0x2fffc098        0x4 ./../build/optee-emmc-stm32mp157d-ev1/bl2/stm32mp_common.o
 .bss.console   0x2fffc09c       0x14 ./../build/optee-emmc-stm32mp157d-ev1/bl2/stm32mp_common.o
 .bss.size.1    0x2fffc0b0        0x4 ./../build/optee-emmc-stm32mp157d-ev1/bl2/stm32mp_dt.o
 .bss.fdt       0x2fffc0b4        0x4 ./../build/optee-emmc-stm32mp157d-ev1/bl2/stm32mp_dt.o
 .bss.metadata_block_spec
                0x2fffc0b8        0x8 ./../build/optee-emmc-stm32mp157d-ev1/bl2/stm32mp_fconf_io.o
 .bss.nb_regions
                0x2fffc0c0        0x4 ./../build/optee-emmc-stm32mp157d-ev1/bl2/stm32mp1_fconf_firewall.o
 .bss.part_number.1
                0x2fffc0c4        0x4 ./../build/optee-emmc-stm32mp157d-ev1/bl2/stm32mp1_private.o
 .bss.sd_switch_func_status
                0x2fffc0c8       0x40 ./../build/optee-emmc-stm32mp157d-ev1/bl2/mmc.o
 .bss.pmic_i2c_addr
                0x2fffc108        0x2 ./../build/optee-emmc-stm32mp157d-ev1/bl2/stpmic1.o
 .bss.boot_itf_selected
                0x2fffc10a        0x2 ./../build/optee-emmc-stm32mp157d-ev1/bl2/stm32mp_common.o
 .bss.is_metadata_initialized
                0x2fffc10c        0x1 ./../build/optee-emmc-stm32mp157d-ev1/bl2/fwu.o
 .bss.metadata  0x2fffc10d       0x78 ./../build/optee-emmc-stm32mp157d-ev1/bl2/fwu.o
 .bss.mbr_sector
                0x2fffc185      0x200 ./../build/optee-emmc-stm32mp157d-ev1/bl2/partition.o
 .bss.ddr_self_refresh
                0x2fffc385        0x1 ./../build/optee-emmc-stm32mp157d-ev1/bl2/stm32mp1_ram.o
 .bss.host_interface_reenable_request
                0x2fffc386        0x1 ./../build/optee-emmc-stm32mp157d-ev1/bl2/stm32mp_ddr.o
 .bss.axi_port_reenable_request
                0x2fffc387        0x1 ./../build/optee-emmc-stm32mp157d-ev1/bl2/stm32mp_ddr.o
 .bss.next_cmd_is_acmd
                0x2fffc388        0x1 ./../build/optee-emmc-stm32mp157d-ev1/bl2/stm32_sdmmc2.o
 .bss.ldo3_special_mode
                0x2fffc389        0x1 ./../build/optee-emmc-stm32mp157d-ev1/bl2/stpmic1.o
 .bss.gpt_init_done.4
                0x2fffc38a        0x1 ./../build/optee-emmc-stm32mp157d-ev1/bl2/bl2_io_storage.o
 .bss.initialized.1
                0x2fffc38b        0x1 ./../build/optee-emmc-stm32mp157d-ev1/bl2/stm32mp_common.o
 .bss.initialized.3
                0x2fffc38c        0x1 ./../build/optee-emmc-stm32mp157d-ev1/bl2/stm32mp_common.o
 .bss.initialized.5
                0x2fffc38d        0x1 ./../build/optee-emmc-stm32mp157d-ev1/bl2/stm32mp_common.o
 .bss.initialized.7
                0x2fffc38e        0x1 ./../build/optee-emmc-stm32mp157d-ev1/bl2/stm32mp_common.o
 .bss.fconf_stm32mp_uuids
                0x2fffc38f       0x70 ./../build/optee-emmc-stm32mp157d-ev1/bl2/stm32mp_fconf_io.o
 *(SORT_BY_ALIGNMENT(COMMON))
                0x2fffc400                        . = ALIGN (0x40)
 *fill*         0x2fffc3ff        0x1 
                0x2fffc400                        __BAKERY_LOCK_START__ = .
                0x2fffc400                        __PERCPU_BAKERY_LOCK_START__ = .
 *(SORT_BY_ALIGNMENT(.bakery_lock))
                0x2fffc400                        . = ALIGN (0x40)
                0x2fffc400                        __PERCPU_BAKERY_LOCK_END__ = .
                0x00000000                        __PERCPU_BAKERY_LOCK_SIZE__ = ABSOLUTE ((__PERCPU_BAKERY_LOCK_END__ - __PERCPU_BAKERY_LOCK_START__))
                0x2fffc400                        . = (. + (__PERCPU_BAKERY_LOCK_SIZE__ * 0x1))
                0x2fffc400                        __BAKERY_LOCK_END__ = .
                0x2fffc400                        . = ALIGN (0x40)
                0x2fffc400                        __PMF_TIMESTAMP_START__ = .
 *(SORT_BY_ALIGNMENT(.pmf_timestamp_array))
                0x2fffc400                        . = ALIGN (0x40)
                0x2fffc400                        __PMF_PERCPU_TIMESTAMP_END__ = .
                0x00000000                        __PERCPU_TIMESTAMP_SIZE__ = ABSOLUTE ((. - __PMF_TIMESTAMP_START__))
                0x2fffc400                        . = (. + (__PERCPU_TIMESTAMP_SIZE__ * 0x1))
                0x2fffc400                        __PMF_TIMESTAMP_END__ = .
                0x2fffc400                        . = ALIGN (0x10)
                0x2fffc400                        __BASE_XLAT_TABLE_START__ = .
 *(SORT_BY_ALIGNMENT(.base_xlat_table))
 .base_xlat_table
                0x2fffc400       0x20 ./../build/optee-emmc-stm32mp157d-ev1/bl2/xlat_tables_context.o
                0x2fffc420                        __BASE_XLAT_TABLE_END__ = .
                0x2fffc420                        __BSS_END__ = .

.xlat_table     0x2fffd000     0x2000
                0x2fffd000                        __XLAT_TABLE_START__ = .
 *(SORT_BY_ALIGNMENT(.xlat_table))
 .xlat_table    0x2fffd000     0x2000 ./../build/optee-emmc-stm32mp157d-ev1/bl2/xlat_tables_context.o
                0x2ffff000                        __XLAT_TABLE_END__ = .
                0x2ffff000                        __RW_END__ = .
                0x2ffff000                        __BL2_END__ = .

/DISCARD/
 *(SORT_BY_ALIGNMENT(.dynsym) SORT_BY_ALIGNMENT(.dynstr) SORT_BY_ALIGNMENT(.hash) SORT_BY_ALIGNMENT(.gnu.hash))
                0x00001220                        __BSS_SIZE__ = SIZEOF (.bss)
                0x2ffff000                        RAM_REGION_END = .
                0x00000001                        ASSERT ((. <= 0x2ffff000), BL2 image has exceeded its limit.)
LOAD ./../build/optee-emmc-stm32mp157d-ev1/bl2/build_message.o
LOAD ./../build/optee-emmc-stm32mp157d-ev1/bl2/bl2_arch_setup.o
LOAD ./../build/optee-emmc-stm32mp157d-ev1/bl2/bl2_image_load_v2.o
LOAD ./../build/optee-emmc-stm32mp157d-ev1/bl2/bl2_main.o
LOAD ./../build/optee-emmc-stm32mp157d-ev1/bl2/bl_common.o
LOAD ./../build/optee-emmc-stm32mp157d-ev1/bl2/desc_image_load.o
LOAD ./../build/optee-emmc-stm32mp157d-ev1/bl2/fdt_wrappers.o
LOAD ./../build/optee-emmc-stm32mp157d-ev1/bl2/tf_log.o
LOAD ./../build/optee-emmc-stm32mp157d-ev1/bl2/uuid.o
LOAD ./../build/optee-emmc-stm32mp157d-ev1/bl2/tzc400.o
LOAD ./../build/optee-emmc-stm32mp157d-ev1/bl2/clk.o
LOAD ./../build/optee-emmc-stm32mp157d-ev1/bl2/multi_console.o
LOAD ./../build/optee-emmc-stm32mp157d-ev1/bl2/delay_timer.o
LOAD ./../build/optee-emmc-stm32mp157d-ev1/bl2/generic_delay_timer.o
LOAD ./../build/optee-emmc-stm32mp157d-ev1/bl2/fwu.o
LOAD ./../build/optee-emmc-stm32mp157d-ev1/bl2/io_block.o
LOAD ./../build/optee-emmc-stm32mp157d-ev1/bl2/io_fip.o
LOAD ./../build/optee-emmc-stm32mp157d-ev1/bl2/io_mtd.o
LOAD ./../build/optee-emmc-stm32mp157d-ev1/bl2/io_storage.o
LOAD ./../build/optee-emmc-stm32mp157d-ev1/bl2/mmc.o
LOAD ./../build/optee-emmc-stm32mp157d-ev1/bl2/gpt.o
LOAD ./../build/optee-emmc-stm32mp157d-ev1/bl2/partition.o
LOAD ./../build/optee-emmc-stm32mp157d-ev1/bl2/bsec2.o
LOAD ./../build/optee-emmc-stm32mp157d-ev1/bl2/stm32mp1_clk.o
LOAD ./../build/optee-emmc-stm32mp157d-ev1/bl2/stm32mp_clkfunc.o
LOAD ./../build/optee-emmc-stm32mp157d-ev1/bl2/stm32_hash.o
LOAD ./../build/optee-emmc-stm32mp157d-ev1/bl2/stm32mp1_ddr.o
LOAD ./../build/optee-emmc-stm32mp157d-ev1/bl2/stm32mp1_ddr_helpers.o
LOAD ./../build/optee-emmc-stm32mp157d-ev1/bl2/stm32mp1_ram.o
LOAD ./../build/optee-emmc-stm32mp157d-ev1/bl2/stm32mp_ddr.o
LOAD ./../build/optee-emmc-stm32mp157d-ev1/bl2/stm32mp_ddr_test.o
LOAD ./../build/optee-emmc-stm32mp157d-ev1/bl2/stm32mp_ram.o
LOAD ./../build/optee-emmc-stm32mp157d-ev1/bl2/stm32_gpio.o
LOAD ./../build/optee-emmc-stm32mp157d-ev1/bl2/stm32_i2c.o
LOAD ./../build/optee-emmc-stm32mp157d-ev1/bl2/stm32_iwdg.o
LOAD ./../build/optee-emmc-stm32mp157d-ev1/bl2/stm32_sdmmc2.o
LOAD ./../build/optee-emmc-stm32mp157d-ev1/bl2/nvmem.o
LOAD ./../build/optee-emmc-stm32mp157d-ev1/bl2/stm32mp_tamp_nvram_core.o
LOAD ./../build/optee-emmc-stm32mp157d-ev1/bl2/stm32mp_tamp_nvram_mp1.o
LOAD ./../build/optee-emmc-stm32mp157d-ev1/bl2/stm32mp_pmic.o
LOAD ./../build/optee-emmc-stm32mp157d-ev1/bl2/stpmic1.o
LOAD ./../build/optee-emmc-stm32mp157d-ev1/bl2/regulator_core.o
LOAD ./../build/optee-emmc-stm32mp157d-ev1/bl2/regulator_fixed.o
LOAD ./../build/optee-emmc-stm32mp157d-ev1/bl2/regulator_gpio.o
LOAD ./../build/optee-emmc-stm32mp157d-ev1/bl2/stm32mp1_reset.o
LOAD ./../build/optee-emmc-stm32mp157d-ev1/bl2/ctzdi2.o
LOAD ./../build/optee-emmc-stm32mp157d-ev1/bl2/divdi3.o
LOAD ./../build/optee-emmc-stm32mp157d-ev1/bl2/divmoddi4.o
LOAD ./../build/optee-emmc-stm32mp157d-ev1/bl2/lshrdi3.o
LOAD ./../build/optee-emmc-stm32mp157d-ev1/bl2/popcountdi2.o
LOAD ./../build/optee-emmc-stm32mp157d-ev1/bl2/popcountsi2.o
LOAD ./../build/optee-emmc-stm32mp157d-ev1/bl2/udivmoddi4.o
LOAD ./../build/optee-emmc-stm32mp157d-ev1/bl2/pmuv3.o
LOAD ./../build/optee-emmc-stm32mp157d-ev1/bl2/fconf.o
LOAD ./../build/optee-emmc-stm32mp157d-ev1/bl2/fconf_dyn_cfg_getter.o
LOAD ./../build/optee-emmc-stm32mp157d-ev1/bl2/optee_utils.o
LOAD ./../build/optee-emmc-stm32mp157d-ev1/bl2/xlat_tables_arch.o
LOAD ./../build/optee-emmc-stm32mp157d-ev1/bl2/xlat_tables_context.o
LOAD ./../build/optee-emmc-stm32mp157d-ev1/bl2/xlat_tables_core.o
LOAD ./../build/optee-emmc-stm32mp157d-ev1/bl2/xlat_tables_utils.o
LOAD ./../build/optee-emmc-stm32mp157d-ev1/bl2/adler32.o
LOAD ./../build/optee-emmc-stm32mp157d-ev1/bl2/crc32.o
LOAD ./../build/optee-emmc-stm32mp157d-ev1/bl2/inffast.o
LOAD ./../build/optee-emmc-stm32mp157d-ev1/bl2/inflate.o
LOAD ./../build/optee-emmc-stm32mp157d-ev1/bl2/inftrees.o
LOAD ./../build/optee-emmc-stm32mp157d-ev1/bl2/tf_gunzip.o
LOAD ./../build/optee-emmc-stm32mp157d-ev1/bl2/zutil.o
LOAD ./../build/optee-emmc-stm32mp157d-ev1/bl2/plat_common.o
LOAD ./../build/optee-emmc-stm32mp157d-ev1/bl2/plat_bl_common.o
LOAD ./../build/optee-emmc-stm32mp157d-ev1/bl2/plat_log_common.o
LOAD ./../build/optee-emmc-stm32mp157d-ev1/bl2/bl2_io_storage.o
LOAD ./../build/optee-emmc-stm32mp157d-ev1/bl2/plat_image_load.o
LOAD ./../build/optee-emmc-stm32mp157d-ev1/bl2/stm32mp_common.o
LOAD ./../build/optee-emmc-stm32mp157d-ev1/bl2/stm32mp_dt.o
LOAD ./../build/optee-emmc-stm32mp157d-ev1/bl2/stm32mp_fconf_fuse.o
LOAD ./../build/optee-emmc-stm32mp157d-ev1/bl2/stm32mp_fconf_io.o
LOAD ./../build/optee-emmc-stm32mp157d-ev1/bl2/bl2_plat_setup.o
LOAD ./../build/optee-emmc-stm32mp157d-ev1/bl2/plat_bl2_mem_params_desc.o
LOAD ./../build/optee-emmc-stm32mp157d-ev1/bl2/plat_ddr.o
LOAD ./../build/optee-emmc-stm32mp157d-ev1/bl2/stm32mp1_context.o
LOAD ./../build/optee-emmc-stm32mp157d-ev1/bl2/stm32mp1_critic_power.o
LOAD ./../build/optee-emmc-stm32mp157d-ev1/bl2/stm32mp1_dbgmcu.o
LOAD ./../build/optee-emmc-stm32mp157d-ev1/bl2/stm32mp1_fconf_firewall.o
LOAD ./../build/optee-emmc-stm32mp157d-ev1/bl2/stm32mp1_private.o
LOAD ./../build/optee-emmc-stm32mp157d-ev1/bl2/stm32mp1_syscfg.o
LOAD ./../build/optee-emmc-stm32mp157d-ev1/bl2/bl2_el3_entrypoint.o
LOAD ./../build/optee-emmc-stm32mp157d-ev1/bl2/bl2_el3_exceptions.o
LOAD ./../build/optee-emmc-stm32mp157d-ev1/bl2/bl2_run_next_image.o
LOAD ./../build/optee-emmc-stm32mp157d-ev1/bl2/debug.o
LOAD ./../build/optee-emmc-stm32mp157d-ev1/bl2/stm32_console.o
LOAD ./../build/optee-emmc-stm32mp157d-ev1/bl2/cache_helpers.o
LOAD ./../build/optee-emmc-stm32mp157d-ev1/bl2/misc_helpers.o
LOAD ./../build/optee-emmc-stm32mp157d-ev1/bl2/aeabi_ldivmod.o
LOAD ./../build/optee-emmc-stm32mp157d-ev1/bl2/aeabi_memcpy.o
LOAD ./../build/optee-emmc-stm32mp157d-ev1/bl2/aeabi_memset.o
LOAD ./../build/optee-emmc-stm32mp157d-ev1/bl2/aeabi_uldivmod.o
LOAD ./../build/optee-emmc-stm32mp157d-ev1/bl2/cortex_a7.o
LOAD ./../build/optee-emmc-stm32mp157d-ev1/bl2/cpu_helpers.o
LOAD ./../build/optee-emmc-stm32mp157d-ev1/bl2/spinlock.o
LOAD ./../build/optee-emmc-stm32mp157d-ev1/bl2/enable_mmu.o
LOAD ./../build/optee-emmc-stm32mp157d-ev1/bl2/platform_helpers.o
LOAD ./../build/optee-emmc-stm32mp157d-ev1/bl2/platform_up_stack.o
LOAD ./../build/optee-emmc-stm32mp157d-ev1/bl2/stm32mp1_critic_power_wrapper.o
LOAD ./../build/optee-emmc-stm32mp157d-ev1/bl2/stm32mp1_helper.o
LOAD ./../build/optee-emmc-stm32mp157d-ev1/lib/libfdt.a
LOAD ./../build/optee-emmc-stm32mp157d-ev1/lib/libc.a
OUTPUT(../build/optee-emmc-stm32mp157d-ev1/bl2/bl2.elf elf32-littlearm)
LOAD linker stubs

.debug_info     0x00000000    0x467d8
 .debug_info    0x00000000       0xa6 ./../build/optee-emmc-stm32mp157d-ev1/bl2/build_message.o
 .debug_info    0x000000a6       0xc6 ./../build/optee-emmc-stm32mp157d-ev1/bl2/bl2_arch_setup.o
 .debug_info    0x0000016c      0x582 ./../build/optee-emmc-stm32mp157d-ev1/bl2/bl2_image_load_v2.o
 .debug_info    0x000006ee      0x46a ./../build/optee-emmc-stm32mp157d-ev1/bl2/bl2_main.o
 .debug_info    0x00000b58      0x70a ./../build/optee-emmc-stm32mp157d-ev1/bl2/bl_common.o
 .debug_info    0x00001262      0x964 ./../build/optee-emmc-stm32mp157d-ev1/bl2/desc_image_load.o
 .debug_info    0x00001bc6     0x1b58 ./../build/optee-emmc-stm32mp157d-ev1/bl2/fdt_wrappers.o
 .debug_info    0x0000371e      0x2c5 ./../build/optee-emmc-stm32mp157d-ev1/bl2/tf_log.o
 .debug_info    0x000039e3      0x653 ./../build/optee-emmc-stm32mp157d-ev1/bl2/uuid.o
 .debug_info    0x00004036     0x14c0 ./../build/optee-emmc-stm32mp157d-ev1/bl2/tzc400.o
 .debug_info    0x000054f6      0x2f5 ./../build/optee-emmc-stm32mp157d-ev1/bl2/clk.o
 .debug_info    0x000057eb      0x513 ./../build/optee-emmc-stm32mp157d-ev1/bl2/multi_console.o
 .debug_info    0x00005cfe      0x2d3 ./../build/optee-emmc-stm32mp157d-ev1/bl2/delay_timer.o
 .debug_info    0x00005fd1      0x33d ./../build/optee-emmc-stm32mp157d-ev1/bl2/generic_delay_timer.o
 .debug_info    0x0000630e      0x79e ./../build/optee-emmc-stm32mp157d-ev1/bl2/fwu.o
 .debug_info    0x00006aac      0xe6e ./../build/optee-emmc-stm32mp157d-ev1/bl2/io_block.o
 .debug_info    0x0000791a     0x12a8 ./../build/optee-emmc-stm32mp157d-ev1/bl2/io_fip.o
 .debug_info    0x00008bc2     0x1029 ./../build/optee-emmc-stm32mp157d-ev1/bl2/io_storage.o
 .debug_info    0x00009beb     0x1bb7 ./../build/optee-emmc-stm32mp157d-ev1/bl2/mmc.o
 .debug_info    0x0000b7a2      0x436 ./../build/optee-emmc-stm32mp157d-ev1/bl2/gpt.o
 .debug_info    0x0000bbd8     0x1259 ./../build/optee-emmc-stm32mp157d-ev1/bl2/partition.o
 .debug_info    0x0000ce31     0x1655 ./../build/optee-emmc-stm32mp157d-ev1/bl2/bsec2.o
 .debug_info    0x0000e486     0x6232 ./../build/optee-emmc-stm32mp157d-ev1/bl2/stm32mp1_clk.o
 .debug_info    0x000146b8      0xeb4 ./../build/optee-emmc-stm32mp157d-ev1/bl2/stm32mp_clkfunc.o
 .debug_info    0x0001556c     0x409e ./../build/optee-emmc-stm32mp157d-ev1/bl2/stm32mp1_ddr.o
 .debug_info    0x0001960a     0x429d ./../build/optee-emmc-stm32mp157d-ev1/bl2/stm32mp1_ddr_helpers.o
 .debug_info    0x0001d8a7     0x1be7 ./../build/optee-emmc-stm32mp157d-ev1/bl2/stm32mp1_ram.o
 .debug_info    0x0001f48e     0x2518 ./../build/optee-emmc-stm32mp157d-ev1/bl2/stm32mp_ddr.o
 .debug_info    0x000219a6      0x808 ./../build/optee-emmc-stm32mp157d-ev1/bl2/stm32mp_ddr_test.o
 .debug_info    0x000221ae      0x3f7 ./../build/optee-emmc-stm32mp157d-ev1/bl2/stm32mp_ram.o
 .debug_info    0x000225a5     0x1674 ./../build/optee-emmc-stm32mp157d-ev1/bl2/stm32_gpio.o
 .debug_info    0x00023c19     0x31e5 ./../build/optee-emmc-stm32mp157d-ev1/bl2/stm32_i2c.o
 .debug_info    0x00026dfe      0xa0c ./../build/optee-emmc-stm32mp157d-ev1/bl2/stm32_iwdg.o
 .debug_info    0x0002780a     0x21f5 ./../build/optee-emmc-stm32mp157d-ev1/bl2/stm32_sdmmc2.o
 .debug_info    0x000299ff      0x7c0 ./../build/optee-emmc-stm32mp157d-ev1/bl2/nvmem.o
 .debug_info    0x0002a1bf     0x13f0 ./../build/optee-emmc-stm32mp157d-ev1/bl2/stm32mp_tamp_nvram_core.o
 .debug_info    0x0002b5af      0x31b ./../build/optee-emmc-stm32mp157d-ev1/bl2/stm32mp_tamp_nvram_mp1.o
 .debug_info    0x0002b8ca     0x13f1 ./../build/optee-emmc-stm32mp157d-ev1/bl2/stm32mp_pmic.o
 .debug_info    0x0002ccbb     0x1072 ./../build/optee-emmc-stm32mp157d-ev1/bl2/stpmic1.o
 .debug_info    0x0002dd2d     0x12e9 ./../build/optee-emmc-stm32mp157d-ev1/bl2/regulator_core.o
 .debug_info    0x0002f016      0x5fc ./../build/optee-emmc-stm32mp157d-ev1/bl2/regulator_fixed.o
 .debug_info    0x0002f612      0x751 ./../build/optee-emmc-stm32mp157d-ev1/bl2/stm32mp1_reset.o
 .debug_info    0x0002fd63      0x171 ./../build/optee-emmc-stm32mp157d-ev1/bl2/ctzdi2.o
 .debug_info    0x0002fed4      0x20b ./../build/optee-emmc-stm32mp157d-ev1/bl2/udivmoddi4.o
 .debug_info    0x000300df      0x4fb ./../build/optee-emmc-stm32mp157d-ev1/bl2/fconf.o
 .debug_info    0x000305da      0x8af ./../build/optee-emmc-stm32mp157d-ev1/bl2/fconf_dyn_cfg_getter.o
 .debug_info    0x00030e89      0x649 ./../build/optee-emmc-stm32mp157d-ev1/bl2/optee_utils.o
 .debug_info    0x000314d2      0x948 ./../build/optee-emmc-stm32mp157d-ev1/bl2/xlat_tables_arch.o
 .debug_info    0x00031e1a      0xa92 ./../build/optee-emmc-stm32mp157d-ev1/bl2/xlat_tables_context.o
 .debug_info    0x000328ac     0x1872 ./../build/optee-emmc-stm32mp157d-ev1/bl2/xlat_tables_core.o
 .debug_info    0x0003411e      0x9d9 ./../build/optee-emmc-stm32mp157d-ev1/bl2/xlat_tables_utils.o
 .debug_info    0x00034af7      0x504 ./../build/optee-emmc-stm32mp157d-ev1/bl2/crc32.o
 .debug_info    0x00034ffb      0x5e2 ./../build/optee-emmc-stm32mp157d-ev1/bl2/tf_gunzip.o
 .debug_info    0x000355dd      0x4bc ./../build/optee-emmc-stm32mp157d-ev1/bl2/plat_bl_common.o
 .debug_info    0x00035a99      0x163 ./../build/optee-emmc-stm32mp157d-ev1/bl2/plat_log_common.o
 .debug_info    0x00035bfc     0x1cd7 ./../build/optee-emmc-stm32mp157d-ev1/bl2/bl2_io_storage.o
 .debug_info    0x000378d3      0x3f5 ./../build/optee-emmc-stm32mp157d-ev1/bl2/plat_image_load.o
 .debug_info    0x00037cc8     0x1f18 ./../build/optee-emmc-stm32mp157d-ev1/bl2/stm32mp_common.o
 .debug_info    0x00039be0     0x13ae ./../build/optee-emmc-stm32mp157d-ev1/bl2/stm32mp_dt.o
 .debug_info    0x0003af8e      0x66e ./../build/optee-emmc-stm32mp157d-ev1/bl2/stm32mp_fconf_fuse.o
 .debug_info    0x0003b5fc      0x7b8 ./../build/optee-emmc-stm32mp157d-ev1/bl2/stm32mp_fconf_io.o
 .debug_info    0x0003bdb4     0x1d13 ./../build/optee-emmc-stm32mp157d-ev1/bl2/bl2_plat_setup.o
 .debug_info    0x0003dac7      0x3be ./../build/optee-emmc-stm32mp157d-ev1/bl2/plat_bl2_mem_params_desc.o
 .debug_info    0x0003de85      0x6cb ./../build/optee-emmc-stm32mp157d-ev1/bl2/plat_ddr.o
 .debug_info    0x0003e550      0x6b0 ./../build/optee-emmc-stm32mp157d-ev1/bl2/stm32mp1_context.o
 .debug_info    0x0003ec00      0x39a ./../build/optee-emmc-stm32mp157d-ev1/bl2/stm32mp1_critic_power.o
 .debug_info    0x0003ef9a      0x31f ./../build/optee-emmc-stm32mp157d-ev1/bl2/stm32mp1_dbgmcu.o
 .debug_info    0x0003f2b9      0x67c ./../build/optee-emmc-stm32mp157d-ev1/bl2/stm32mp1_fconf_firewall.o
 .debug_info    0x0003f935      0xcec ./../build/optee-emmc-stm32mp157d-ev1/bl2/stm32mp1_private.o
 .debug_info    0x00040621      0xb0b ./../build/optee-emmc-stm32mp157d-ev1/bl2/stm32mp1_syscfg.o
 .debug_info    0x0004112c       0x32 ./../build/optee-emmc-stm32mp157d-ev1/bl2/bl2_el3_entrypoint.o
 .debug_info    0x0004115e       0x23 ./../build/optee-emmc-stm32mp157d-ev1/bl2/bl2_el3_exceptions.o
 .debug_info    0x00041181       0x30 ./../build/optee-emmc-stm32mp157d-ev1/bl2/bl2_run_next_image.o
 .debug_info    0x000411b1       0x71 ./../build/optee-emmc-stm32mp157d-ev1/bl2/debug.o
 .debug_info    0x00041222       0x72 ./../build/optee-emmc-stm32mp157d-ev1/bl2/stm32_console.o
 .debug_info    0x00041294       0x9a ./../build/optee-emmc-stm32mp157d-ev1/bl2/cache_helpers.o
 .debug_info    0x0004132e       0x72 ./../build/optee-emmc-stm32mp157d-ev1/bl2/misc_helpers.o
 .debug_info    0x000413a0       0x30 ./../build/optee-emmc-stm32mp157d-ev1/bl2/aeabi_uldivmod.o
 .debug_info    0x000413d0       0x5b ./../build/optee-emmc-stm32mp157d-ev1/bl2/cortex_a7.o
 .debug_info    0x0004142b       0x5b ./../build/optee-emmc-stm32mp157d-ev1/bl2/cpu_helpers.o
 .debug_info    0x00041486       0x3a ./../build/optee-emmc-stm32mp157d-ev1/bl2/spinlock.o
 .debug_info    0x000414c0       0x3a ./../build/optee-emmc-stm32mp157d-ev1/bl2/enable_mmu.o
 .debug_info    0x000414fa       0x3a ./../build/optee-emmc-stm32mp157d-ev1/bl2/platform_up_stack.o
 .debug_info    0x00041534       0x31 ./../build/optee-emmc-stm32mp157d-ev1/bl2/stm32mp1_critic_power_wrapper.o
 .debug_info    0x00041565       0xdb ./../build/optee-emmc-stm32mp157d-ev1/bl2/stm32mp1_helper.o
 .debug_info    0x00041640      0xdb0 ./../build/optee-emmc-stm32mp157d-ev1/lib/libfdt.a(fdt.o)
 .debug_info    0x000423f0      0x5ba ./../build/optee-emmc-stm32mp157d-ev1/lib/libfdt.a(fdt_addresses.o)
 .debug_info    0x000429aa     0x274c ./../build/optee-emmc-stm32mp157d-ev1/lib/libfdt.a(fdt_ro.o)
 .debug_info    0x000450f6      0x158 ./../build/optee-emmc-stm32mp157d-ev1/lib/libc.a(assert.o)
 .debug_info    0x0004524e       0xd0 ./../build/optee-emmc-stm32mp157d-ev1/lib/libc.a(memchr.o)
 .debug_info    0x0004531e      0x106 ./../build/optee-emmc-stm32mp157d-ev1/lib/libc.a(memcmp.o)
 .debug_info    0x00045424       0xdd ./../build/optee-emmc-stm32mp157d-ev1/lib/libc.a(memcpy.o)
 .debug_info    0x00045501      0x152 ./../build/optee-emmc-stm32mp157d-ev1/lib/libc.a(memmove.o)
 .debug_info    0x00045653      0x137 ./../build/optee-emmc-stm32mp157d-ev1/lib/libc.a(memset.o)
 .debug_info    0x0004578a      0x6aa ./../build/optee-emmc-stm32mp157d-ev1/lib/libc.a(printf.o)
 .debug_info    0x00045e34      0x4ad ./../build/optee-emmc-stm32mp157d-ev1/lib/libc.a(snprintf.o)
 .debug_info    0x000462e1       0xac ./../build/optee-emmc-stm32mp157d-ev1/lib/libc.a(strchr.o)
 .debug_info    0x0004638d       0x8e ./../build/optee-emmc-stm32mp157d-ev1/lib/libc.a(strcmp.o)
 .debug_info    0x0004641b      0x10f ./../build/optee-emmc-stm32mp157d-ev1/lib/libc.a(strlcpy.o)
 .debug_info    0x0004652a       0x9a ./../build/optee-emmc-stm32mp157d-ev1/lib/libc.a(strlen.o)
 .debug_info    0x000465c4       0xb3 ./../build/optee-emmc-stm32mp157d-ev1/lib/libc.a(strncmp.o)
 .debug_info    0x00046677       0xa1 ./../build/optee-emmc-stm32mp157d-ev1/lib/libc.a(strnlen.o)
 .debug_info    0x00046718       0xc0 ./../build/optee-emmc-stm32mp157d-ev1/lib/libc.a(strrchr.o)

.debug_abbrev   0x00000000     0xd8ad
 .debug_abbrev  0x00000000       0x47 ./../build/optee-emmc-stm32mp157d-ev1/bl2/build_message.o
 .debug_abbrev  0x00000047       0x69 ./../build/optee-emmc-stm32mp157d-ev1/bl2/bl2_arch_setup.o
 .debug_abbrev  0x000000b0      0x184 ./../build/optee-emmc-stm32mp157d-ev1/bl2/bl2_image_load_v2.o
 .debug_abbrev  0x00000234      0x1ca ./../build/optee-emmc-stm32mp157d-ev1/bl2/bl2_main.o
 .debug_abbrev  0x000003fe      0x269 ./../build/optee-emmc-stm32mp157d-ev1/bl2/bl_common.o
 .debug_abbrev  0x00000667      0x2be ./../build/optee-emmc-stm32mp157d-ev1/bl2/desc_image_load.o
 .debug_abbrev  0x00000925      0x3d6 ./../build/optee-emmc-stm32mp157d-ev1/bl2/fdt_wrappers.o
 .debug_abbrev  0x00000cfb      0x191 ./../build/optee-emmc-stm32mp157d-ev1/bl2/tf_log.o
 .debug_abbrev  0x00000e8c      0x237 ./../build/optee-emmc-stm32mp157d-ev1/bl2/uuid.o
 .debug_abbrev  0x000010c3      0x2d4 ./../build/optee-emmc-stm32mp157d-ev1/bl2/tzc400.o
 .debug_abbrev  0x00001397      0x148 ./../build/optee-emmc-stm32mp157d-ev1/bl2/clk.o
 .debug_abbrev  0x000014df      0x27a ./../build/optee-emmc-stm32mp157d-ev1/bl2/multi_console.o
 .debug_abbrev  0x00001759      0x177 ./../build/optee-emmc-stm32mp157d-ev1/bl2/delay_timer.o
 .debug_abbrev  0x000018d0      0x267 ./../build/optee-emmc-stm32mp157d-ev1/bl2/generic_delay_timer.o
 .debug_abbrev  0x00001b37      0x2db ./../build/optee-emmc-stm32mp157d-ev1/bl2/fwu.o
 .debug_abbrev  0x00001e12      0x342 ./../build/optee-emmc-stm32mp157d-ev1/bl2/io_block.o
 .debug_abbrev  0x00002154      0x3b7 ./../build/optee-emmc-stm32mp157d-ev1/bl2/io_fip.o
 .debug_abbrev  0x0000250b      0x34a ./../build/optee-emmc-stm32mp157d-ev1/bl2/io_storage.o
 .debug_abbrev  0x00002855      0x4fc ./../build/optee-emmc-stm32mp157d-ev1/bl2/mmc.o
 .debug_abbrev  0x00002d51      0x1c7 ./../build/optee-emmc-stm32mp157d-ev1/bl2/gpt.o
 .debug_abbrev  0x00002f18      0x3be ./../build/optee-emmc-stm32mp157d-ev1/bl2/partition.o
 .debug_abbrev  0x000032d6      0x42f ./../build/optee-emmc-stm32mp157d-ev1/bl2/bsec2.o
 .debug_abbrev  0x00003705      0x637 ./../build/optee-emmc-stm32mp157d-ev1/bl2/stm32mp1_clk.o
 .debug_abbrev  0x00003d3c      0x317 ./../build/optee-emmc-stm32mp157d-ev1/bl2/stm32mp_clkfunc.o
 .debug_abbrev  0x00004053      0x425 ./../build/optee-emmc-stm32mp157d-ev1/bl2/stm32mp1_ddr.o
 .debug_abbrev  0x00004478      0x381 ./../build/optee-emmc-stm32mp157d-ev1/bl2/stm32mp1_ddr_helpers.o
 .debug_abbrev  0x000047f9      0x317 ./../build/optee-emmc-stm32mp157d-ev1/bl2/stm32mp1_ram.o
 .debug_abbrev  0x00004b10      0x3a2 ./../build/optee-emmc-stm32mp157d-ev1/bl2/stm32mp_ddr.o
 .debug_abbrev  0x00004eb2      0x168 ./../build/optee-emmc-stm32mp157d-ev1/bl2/stm32mp_ddr_test.o
 .debug_abbrev  0x0000501a      0x19d ./../build/optee-emmc-stm32mp157d-ev1/bl2/stm32mp_ram.o
 .debug_abbrev  0x000051b7      0x402 ./../build/optee-emmc-stm32mp157d-ev1/bl2/stm32_gpio.o
 .debug_abbrev  0x000055b9      0x41b ./../build/optee-emmc-stm32mp157d-ev1/bl2/stm32_i2c.o
 .debug_abbrev  0x000059d4      0x324 ./../build/optee-emmc-stm32mp157d-ev1/bl2/stm32_iwdg.o
 .debug_abbrev  0x00005cf8      0x50c ./../build/optee-emmc-stm32mp157d-ev1/bl2/stm32_sdmmc2.o
 .debug_abbrev  0x00006204      0x260 ./../build/optee-emmc-stm32mp157d-ev1/bl2/nvmem.o
 .debug_abbrev  0x00006464      0x462 ./../build/optee-emmc-stm32mp157d-ev1/bl2/stm32mp_tamp_nvram_core.o
 .debug_abbrev  0x000068c6      0x10e ./../build/optee-emmc-stm32mp157d-ev1/bl2/stm32mp_tamp_nvram_mp1.o
 .debug_abbrev  0x000069d4      0x4bb ./../build/optee-emmc-stm32mp157d-ev1/bl2/stm32mp_pmic.o
 .debug_abbrev  0x00006e8f      0x2aa ./../build/optee-emmc-stm32mp157d-ev1/bl2/stpmic1.o
 .debug_abbrev  0x00007139      0x496 ./../build/optee-emmc-stm32mp157d-ev1/bl2/regulator_core.o
 .debug_abbrev  0x000075cf      0x23f ./../build/optee-emmc-stm32mp157d-ev1/bl2/regulator_fixed.o
 .debug_abbrev  0x0000780e      0x1d1 ./../build/optee-emmc-stm32mp157d-ev1/bl2/stm32mp1_reset.o
 .debug_abbrev  0x000079df       0xe2 ./../build/optee-emmc-stm32mp157d-ev1/bl2/ctzdi2.o
 .debug_abbrev  0x00007ac1      0x119 ./../build/optee-emmc-stm32mp157d-ev1/bl2/udivmoddi4.o
 .debug_abbrev  0x00007bda      0x22b ./../build/optee-emmc-stm32mp157d-ev1/bl2/fconf.o
 .debug_abbrev  0x00007e05      0x278 ./../build/optee-emmc-stm32mp157d-ev1/bl2/fconf_dyn_cfg_getter.o
 .debug_abbrev  0x0000807d      0x1d5 ./../build/optee-emmc-stm32mp157d-ev1/bl2/optee_utils.o
 .debug_abbrev  0x00008252      0x301 ./../build/optee-emmc-stm32mp157d-ev1/bl2/xlat_tables_arch.o
 .debug_abbrev  0x00008553      0x2a5 ./../build/optee-emmc-stm32mp157d-ev1/bl2/xlat_tables_context.o
 .debug_abbrev  0x000087f8      0x4c1 ./../build/optee-emmc-stm32mp157d-ev1/bl2/xlat_tables_core.o
 .debug_abbrev  0x00008cb9      0x2db ./../build/optee-emmc-stm32mp157d-ev1/bl2/xlat_tables_utils.o
 .debug_abbrev  0x00008f94      0x1cb ./../build/optee-emmc-stm32mp157d-ev1/bl2/crc32.o
 .debug_abbrev  0x0000915f      0x214 ./../build/optee-emmc-stm32mp157d-ev1/bl2/tf_gunzip.o
 .debug_abbrev  0x00009373      0x2b3 ./../build/optee-emmc-stm32mp157d-ev1/bl2/plat_bl_common.o
 .debug_abbrev  0x00009626       0xdd ./../build/optee-emmc-stm32mp157d-ev1/bl2/plat_log_common.o
 .debug_abbrev  0x00009703      0x44f ./../build/optee-emmc-stm32mp157d-ev1/bl2/bl2_io_storage.o
 .debug_abbrev  0x00009b52      0x14b ./../build/optee-emmc-stm32mp157d-ev1/bl2/plat_image_load.o
 .debug_abbrev  0x00009c9d      0x556 ./../build/optee-emmc-stm32mp157d-ev1/bl2/stm32mp_common.o
 .debug_abbrev  0x0000a1f3      0x338 ./../build/optee-emmc-stm32mp157d-ev1/bl2/stm32mp_dt.o
 .debug_abbrev  0x0000a52b      0x24c ./../build/optee-emmc-stm32mp157d-ev1/bl2/stm32mp_fconf_fuse.o
 .debug_abbrev  0x0000a777      0x2b2 ./../build/optee-emmc-stm32mp157d-ev1/bl2/stm32mp_fconf_io.o
 .debug_abbrev  0x0000aa29      0x4c3 ./../build/optee-emmc-stm32mp157d-ev1/bl2/bl2_plat_setup.o
 .debug_abbrev  0x0000aeec       0xea ./../build/optee-emmc-stm32mp157d-ev1/bl2/plat_bl2_mem_params_desc.o
 .debug_abbrev  0x0000afd6      0x235 ./../build/optee-emmc-stm32mp157d-ev1/bl2/plat_ddr.o
 .debug_abbrev  0x0000b20b      0x270 ./../build/optee-emmc-stm32mp157d-ev1/bl2/stm32mp1_context.o
 .debug_abbrev  0x0000b47b      0x1f9 ./../build/optee-emmc-stm32mp157d-ev1/bl2/stm32mp1_critic_power.o
 .debug_abbrev  0x0000b674      0x1ca ./../build/optee-emmc-stm32mp157d-ev1/bl2/stm32mp1_dbgmcu.o
 .debug_abbrev  0x0000b83e      0x253 ./../build/optee-emmc-stm32mp157d-ev1/bl2/stm32mp1_fconf_firewall.o
 .debug_abbrev  0x0000ba91      0x3d5 ./../build/optee-emmc-stm32mp157d-ev1/bl2/stm32mp1_private.o
 .debug_abbrev  0x0000be66      0x2c0 ./../build/optee-emmc-stm32mp157d-ev1/bl2/stm32mp1_syscfg.o
 .debug_abbrev  0x0000c126       0x28 ./../build/optee-emmc-stm32mp157d-ev1/bl2/bl2_el3_entrypoint.o
 .debug_abbrev  0x0000c14e       0x14 ./../build/optee-emmc-stm32mp157d-ev1/bl2/bl2_el3_exceptions.o
 .debug_abbrev  0x0000c162       0x28 ./../build/optee-emmc-stm32mp157d-ev1/bl2/bl2_run_next_image.o
 .debug_abbrev  0x0000c18a       0x26 ./../build/optee-emmc-stm32mp157d-ev1/bl2/debug.o
 .debug_abbrev  0x0000c1b0       0x26 ./../build/optee-emmc-stm32mp157d-ev1/bl2/stm32_console.o
 .debug_abbrev  0x0000c1d6       0x26 ./../build/optee-emmc-stm32mp157d-ev1/bl2/cache_helpers.o
 .debug_abbrev  0x0000c1fc       0x26 ./../build/optee-emmc-stm32mp157d-ev1/bl2/misc_helpers.o
 .debug_abbrev  0x0000c222       0x28 ./../build/optee-emmc-stm32mp157d-ev1/bl2/aeabi_uldivmod.o
 .debug_abbrev  0x0000c24a       0x24 ./../build/optee-emmc-stm32mp157d-ev1/bl2/cortex_a7.o
 .debug_abbrev  0x0000c26e       0x26 ./../build/optee-emmc-stm32mp157d-ev1/bl2/cpu_helpers.o
 .debug_abbrev  0x0000c294       0x26 ./../build/optee-emmc-stm32mp157d-ev1/bl2/spinlock.o
 .debug_abbrev  0x0000c2ba       0x26 ./../build/optee-emmc-stm32mp157d-ev1/bl2/enable_mmu.o
 .debug_abbrev  0x0000c2e0       0x24 ./../build/optee-emmc-stm32mp157d-ev1/bl2/platform_up_stack.o
 .debug_abbrev  0x0000c304       0x28 ./../build/optee-emmc-stm32mp157d-ev1/bl2/stm32mp1_critic_power_wrapper.o
 .debug_abbrev  0x0000c32c       0x26 ./../build/optee-emmc-stm32mp157d-ev1/bl2/stm32mp1_helper.o
 .debug_abbrev  0x0000c352      0x2e7 ./../build/optee-emmc-stm32mp157d-ev1/lib/libfdt.a(fdt.o)
 .debug_abbrev  0x0000c639      0x1d8 ./../build/optee-emmc-stm32mp157d-ev1/lib/libfdt.a(fdt_addresses.o)
 .debug_abbrev  0x0000c811      0x399 ./../build/optee-emmc-stm32mp157d-ev1/lib/libfdt.a(fdt_ro.o)
 .debug_abbrev  0x0000cbaa       0xf9 ./../build/optee-emmc-stm32mp157d-ev1/lib/libc.a(assert.o)
 .debug_abbrev  0x0000cca3       0x9b ./../build/optee-emmc-stm32mp157d-ev1/lib/libc.a(memchr.o)
 .debug_abbrev  0x0000cd3e       0x94 ./../build/optee-emmc-stm32mp157d-ev1/lib/libc.a(memcmp.o)
 .debug_abbrev  0x0000cdd2       0xa1 ./../build/optee-emmc-stm32mp157d-ev1/lib/libc.a(memcpy.o)
 .debug_abbrev  0x0000ce73       0xd1 ./../build/optee-emmc-stm32mp157d-ev1/lib/libc.a(memmove.o)
 .debug_abbrev  0x0000cf44       0xc8 ./../build/optee-emmc-stm32mp157d-ev1/lib/libc.a(memset.o)
 .debug_abbrev  0x0000d00c      0x273 ./../build/optee-emmc-stm32mp157d-ev1/lib/libc.a(printf.o)
 .debug_abbrev  0x0000d27f      0x277 ./../build/optee-emmc-stm32mp157d-ev1/lib/libc.a(snprintf.o)
 .debug_abbrev  0x0000d4f6       0x80 ./../build/optee-emmc-stm32mp157d-ev1/lib/libc.a(strchr.o)
 .debug_abbrev  0x0000d576       0x6c ./../build/optee-emmc-stm32mp157d-ev1/lib/libc.a(strcmp.o)
 .debug_abbrev  0x0000d5e2       0xa3 ./../build/optee-emmc-stm32mp157d-ev1/lib/libc.a(strlcpy.o)
 .debug_abbrev  0x0000d685       0x84 ./../build/optee-emmc-stm32mp157d-ev1/lib/libc.a(strlen.o)
 .debug_abbrev  0x0000d709       0x7b ./../build/optee-emmc-stm32mp157d-ev1/lib/libc.a(strncmp.o)
 .debug_abbrev  0x0000d784       0x95 ./../build/optee-emmc-stm32mp157d-ev1/lib/libc.a(strnlen.o)
 .debug_abbrev  0x0000d819       0x94 ./../build/optee-emmc-stm32mp157d-ev1/lib/libc.a(strrchr.o)

.debug_aranges  0x00000000     0x1ec8
 .debug_aranges
                0x00000000       0x18 ./../build/optee-emmc-stm32mp157d-ev1/bl2/build_message.o
 .debug_aranges
                0x00000018       0x20 ./../build/optee-emmc-stm32mp157d-ev1/bl2/bl2_arch_setup.o
 .debug_aranges
                0x00000038       0x20 ./../build/optee-emmc-stm32mp157d-ev1/bl2/bl2_image_load_v2.o
 .debug_aranges
                0x00000058       0x28 ./../build/optee-emmc-stm32mp157d-ev1/bl2/bl2_main.o
 .debug_aranges
                0x00000080       0x38 ./../build/optee-emmc-stm32mp157d-ev1/bl2/bl_common.o
 .debug_aranges
                0x000000b8       0x58 ./../build/optee-emmc-stm32mp157d-ev1/bl2/desc_image_load.o
 .debug_aranges
                0x00000110       0xa8 ./../build/optee-emmc-stm32mp157d-ev1/bl2/fdt_wrappers.o
 .debug_aranges
                0x000001b8       0x30 ./../build/optee-emmc-stm32mp157d-ev1/bl2/tf_log.o
 .debug_aranges
                0x000001e8       0x48 ./../build/optee-emmc-stm32mp157d-ev1/bl2/uuid.o
 .debug_aranges
                0x00000230       0x58 ./../build/optee-emmc-stm32mp157d-ev1/bl2/tzc400.o
 .debug_aranges
                0x00000288       0x48 ./../build/optee-emmc-stm32mp157d-ev1/bl2/clk.o
 .debug_aranges
                0x000002d0       0x58 ./../build/optee-emmc-stm32mp157d-ev1/bl2/multi_console.o
 .debug_aranges
                0x00000328       0x30 ./../build/optee-emmc-stm32mp157d-ev1/bl2/delay_timer.o
 .debug_aranges
                0x00000358       0x30 ./../build/optee-emmc-stm32mp157d-ev1/bl2/generic_delay_timer.o
 .debug_aranges
                0x00000388       0x40 ./../build/optee-emmc-stm32mp157d-ev1/bl2/fwu.o
 .debug_aranges
                0x000003c8       0x60 ./../build/optee-emmc-stm32mp157d-ev1/bl2/io_block.o
 .debug_aranges
                0x00000428       0x68 ./../build/optee-emmc-stm32mp157d-ev1/bl2/io_fip.o
 .debug_aranges
                0x00000490       0x80 ./../build/optee-emmc-stm32mp157d-ev1/bl2/io_storage.o
 .debug_aranges
                0x00000510       0x78 ./../build/optee-emmc-stm32mp157d-ev1/bl2/mmc.o
 .debug_aranges
                0x00000588       0x20 ./../build/optee-emmc-stm32mp157d-ev1/bl2/gpt.o
 .debug_aranges
                0x000005a8       0x60 ./../build/optee-emmc-stm32mp157d-ev1/bl2/partition.o
 .debug_aranges
                0x00000608       0xc0 ./../build/optee-emmc-stm32mp157d-ev1/bl2/bsec2.o
 .debug_aranges
                0x000006c8       0xe0 ./../build/optee-emmc-stm32mp157d-ev1/bl2/stm32mp1_clk.o
 .debug_aranges
                0x000007a8       0x70 ./../build/optee-emmc-stm32mp157d-ev1/bl2/stm32mp_clkfunc.o
 .debug_aranges
                0x00000818       0x38 ./../build/optee-emmc-stm32mp157d-ev1/bl2/stm32mp1_ddr.o
 .debug_aranges
                0x00000850       0x48 ./../build/optee-emmc-stm32mp157d-ev1/bl2/stm32mp1_ddr_helpers.o
 .debug_aranges
                0x00000898       0x38 ./../build/optee-emmc-stm32mp157d-ev1/bl2/stm32mp1_ram.o
 .debug_aranges
                0x000008d0       0x78 ./../build/optee-emmc-stm32mp157d-ev1/bl2/stm32mp_ddr.o
 .debug_aranges
                0x00000948       0x38 ./../build/optee-emmc-stm32mp157d-ev1/bl2/stm32mp_ddr_test.o
 .debug_aranges
                0x00000980       0x28 ./../build/optee-emmc-stm32mp157d-ev1/bl2/stm32mp_ram.o
 .debug_aranges
                0x000009a8       0x58 ./../build/optee-emmc-stm32mp157d-ev1/bl2/stm32_gpio.o
 .debug_aranges
                0x00000a00       0x88 ./../build/optee-emmc-stm32mp157d-ev1/bl2/stm32_i2c.o
 .debug_aranges
                0x00000a88       0x30 ./../build/optee-emmc-stm32mp157d-ev1/bl2/stm32_iwdg.o
 .debug_aranges
                0x00000ab8       0x68 ./../build/optee-emmc-stm32mp157d-ev1/bl2/stm32_sdmmc2.o
 .debug_aranges
                0x00000b20       0x40 ./../build/optee-emmc-stm32mp157d-ev1/bl2/nvmem.o
 .debug_aranges
                0x00000b60       0x68 ./../build/optee-emmc-stm32mp157d-ev1/bl2/stm32mp_tamp_nvram_core.o
 .debug_aranges
                0x00000bc8       0x28 ./../build/optee-emmc-stm32mp157d-ev1/bl2/stm32mp_tamp_nvram_mp1.o
 .debug_aranges
                0x00000bf0       0x88 ./../build/optee-emmc-stm32mp157d-ev1/bl2/stm32mp_pmic.o
 .debug_aranges
                0x00000c78       0xc0 ./../build/optee-emmc-stm32mp157d-ev1/bl2/stpmic1.o
 .debug_aranges
                0x00000d38       0x90 ./../build/optee-emmc-stm32mp157d-ev1/bl2/regulator_core.o
 .debug_aranges
                0x00000dc8       0x30 ./../build/optee-emmc-stm32mp157d-ev1/bl2/regulator_fixed.o
 .debug_aranges
                0x00000df8       0x30 ./../build/optee-emmc-stm32mp157d-ev1/bl2/stm32mp1_reset.o
 .debug_aranges
                0x00000e28       0x20 ./../build/optee-emmc-stm32mp157d-ev1/bl2/ctzdi2.o
 .debug_aranges
                0x00000e48       0x20 ./../build/optee-emmc-stm32mp157d-ev1/bl2/udivmoddi4.o
 .debug_aranges
                0x00000e68       0x28 ./../build/optee-emmc-stm32mp157d-ev1/bl2/fconf.o
 .debug_aranges
                0x00000e90       0x38 ./../build/optee-emmc-stm32mp157d-ev1/bl2/fconf_dyn_cfg_getter.o
 .debug_aranges
                0x00000ec8       0x30 ./../build/optee-emmc-stm32mp157d-ev1/bl2/optee_utils.o
 .debug_aranges
                0x00000ef8       0x78 ./../build/optee-emmc-stm32mp157d-ev1/bl2/xlat_tables_arch.o
 .debug_aranges
                0x00000f70       0x78 ./../build/optee-emmc-stm32mp157d-ev1/bl2/xlat_tables_context.o
 .debug_aranges
                0x00000fe8       0x90 ./../build/optee-emmc-stm32mp157d-ev1/bl2/xlat_tables_core.o
 .debug_aranges
                0x00001078       0x48 ./../build/optee-emmc-stm32mp157d-ev1/bl2/xlat_tables_utils.o
 .debug_aranges
                0x000010c0       0x68 ./../build/optee-emmc-stm32mp157d-ev1/bl2/crc32.o
 .debug_aranges
                0x00001128       0x38 ./../build/optee-emmc-stm32mp157d-ev1/bl2/tf_gunzip.o
 .debug_aranges
                0x00001160       0x78 ./../build/optee-emmc-stm32mp157d-ev1/bl2/plat_bl_common.o
 .debug_aranges
                0x000011d8       0x20 ./../build/optee-emmc-stm32mp157d-ev1/bl2/plat_log_common.o
 .debug_aranges
                0x000011f8       0x70 ./../build/optee-emmc-stm32mp157d-ev1/bl2/bl2_io_storage.o
 .debug_aranges
                0x00001268       0x30 ./../build/optee-emmc-stm32mp157d-ev1/bl2/plat_image_load.o
 .debug_aranges
                0x00001298      0x150 ./../build/optee-emmc-stm32mp157d-ev1/bl2/stm32mp_common.o
 .debug_aranges
                0x000013e8       0xb8 ./../build/optee-emmc-stm32mp157d-ev1/bl2/stm32mp_dt.o
 .debug_aranges
                0x000014a0       0x20 ./../build/optee-emmc-stm32mp157d-ev1/bl2/stm32mp_fconf_fuse.o
 .debug_aranges
                0x000014c0       0x20 ./../build/optee-emmc-stm32mp157d-ev1/bl2/stm32mp_fconf_io.o
 .debug_aranges
                0x000014e0       0x40 ./../build/optee-emmc-stm32mp157d-ev1/bl2/bl2_plat_setup.o
 .debug_aranges
                0x00001520       0x18 ./../build/optee-emmc-stm32mp157d-ev1/bl2/plat_bl2_mem_params_desc.o
 .debug_aranges
                0x00001538       0x20 ./../build/optee-emmc-stm32mp157d-ev1/bl2/plat_ddr.o
 .debug_aranges
                0x00001558       0x48 ./../build/optee-emmc-stm32mp157d-ev1/bl2/stm32mp1_context.o
 .debug_aranges
                0x000015a0       0x28 ./../build/optee-emmc-stm32mp157d-ev1/bl2/stm32mp1_critic_power.o
 .debug_aranges
                0x000015c8       0x30 ./../build/optee-emmc-stm32mp157d-ev1/bl2/stm32mp1_dbgmcu.o
 .debug_aranges
                0x000015f8       0x38 ./../build/optee-emmc-stm32mp157d-ev1/bl2/stm32mp1_fconf_firewall.o
 .debug_aranges
                0x00001630       0xc8 ./../build/optee-emmc-stm32mp157d-ev1/bl2/stm32mp1_private.o
 .debug_aranges
                0x000016f8       0x48 ./../build/optee-emmc-stm32mp157d-ev1/bl2/stm32mp1_syscfg.o
 .debug_aranges
                0x00001740       0x20 ./../build/optee-emmc-stm32mp157d-ev1/bl2/bl2_el3_entrypoint.o
 .debug_aranges
                0x00001760       0x20 ./../build/optee-emmc-stm32mp157d-ev1/bl2/bl2_el3_exceptions.o
 .debug_aranges
                0x00001780       0x20 ./../build/optee-emmc-stm32mp157d-ev1/bl2/bl2_run_next_image.o
 .debug_aranges
                0x000017a0       0x50 ./../build/optee-emmc-stm32mp157d-ev1/bl2/debug.o
 .debug_aranges
                0x000017f0       0x50 ./../build/optee-emmc-stm32mp157d-ev1/bl2/stm32_console.o
 .debug_aranges
                0x00001840       0x60 ./../build/optee-emmc-stm32mp157d-ev1/bl2/cache_helpers.o
 .debug_aranges
                0x000018a0       0x48 ./../build/optee-emmc-stm32mp157d-ev1/bl2/misc_helpers.o
 .debug_aranges
                0x000018e8       0x20 ./../build/optee-emmc-stm32mp157d-ev1/bl2/aeabi_uldivmod.o
 .debug_aranges
                0x00001908       0x40 ./../build/optee-emmc-stm32mp157d-ev1/bl2/cortex_a7.o
 .debug_aranges
                0x00001948       0x40 ./../build/optee-emmc-stm32mp157d-ev1/bl2/cpu_helpers.o
 .debug_aranges
                0x00001988       0x28 ./../build/optee-emmc-stm32mp157d-ev1/bl2/spinlock.o
 .debug_aranges
                0x000019b0       0x28 ./../build/optee-emmc-stm32mp157d-ev1/bl2/enable_mmu.o
 .debug_aranges
                0x000019d8       0x28 ./../build/optee-emmc-stm32mp157d-ev1/bl2/platform_up_stack.o
 .debug_aranges
                0x00001a00       0x20 ./../build/optee-emmc-stm32mp157d-ev1/bl2/stm32mp1_critic_power_wrapper.o
 .debug_aranges
                0x00001a20       0x88 ./../build/optee-emmc-stm32mp157d-ev1/bl2/stm32mp1_helper.o
 .debug_aranges
                0x00001aa8       0x88 ./../build/optee-emmc-stm32mp157d-ev1/lib/libfdt.a(fdt.o)
 .debug_aranges
                0x00001b30       0x38 ./../build/optee-emmc-stm32mp157d-ev1/lib/libfdt.a(fdt_addresses.o)
 .debug_aranges
                0x00001b68      0x160 ./../build/optee-emmc-stm32mp157d-ev1/lib/libfdt.a(fdt_ro.o)
 .debug_aranges
                0x00001cc8       0x20 ./../build/optee-emmc-stm32mp157d-ev1/lib/libc.a(assert.o)
 .debug_aranges
                0x00001ce8       0x20 ./../build/optee-emmc-stm32mp157d-ev1/lib/libc.a(memchr.o)
 .debug_aranges
                0x00001d08       0x20 ./../build/optee-emmc-stm32mp157d-ev1/lib/libc.a(memcmp.o)
 .debug_aranges
                0x00001d28       0x20 ./../build/optee-emmc-stm32mp157d-ev1/lib/libc.a(memcpy.o)
 .debug_aranges
                0x00001d48       0x20 ./../build/optee-emmc-stm32mp157d-ev1/lib/libc.a(memmove.o)
 .debug_aranges
                0x00001d68       0x20 ./../build/optee-emmc-stm32mp157d-ev1/lib/libc.a(memset.o)
 .debug_aranges
                0x00001d88       0x30 ./../build/optee-emmc-stm32mp157d-ev1/lib/libc.a(printf.o)
 .debug_aranges
                0x00001db8       0x30 ./../build/optee-emmc-stm32mp157d-ev1/lib/libc.a(snprintf.o)
 .debug_aranges
                0x00001de8       0x20 ./../build/optee-emmc-stm32mp157d-ev1/lib/libc.a(strchr.o)
 .debug_aranges
                0x00001e08       0x20 ./../build/optee-emmc-stm32mp157d-ev1/lib/libc.a(strcmp.o)
 .debug_aranges
                0x00001e28       0x20 ./../build/optee-emmc-stm32mp157d-ev1/lib/libc.a(strlcpy.o)
 .debug_aranges
                0x00001e48       0x20 ./../build/optee-emmc-stm32mp157d-ev1/lib/libc.a(strlen.o)
 .debug_aranges
                0x00001e68       0x20 ./../build/optee-emmc-stm32mp157d-ev1/lib/libc.a(strncmp.o)
 .debug_aranges
                0x00001e88       0x20 ./../build/optee-emmc-stm32mp157d-ev1/lib/libc.a(strnlen.o)
 .debug_aranges
                0x00001ea8       0x20 ./../build/optee-emmc-stm32mp157d-ev1/lib/libc.a(strrchr.o)

.debug_line     0x00000000    0x21018
 .debug_line    0x00000000       0x28 ./../build/optee-emmc-stm32mp157d-ev1/bl2/build_message.o
 .debug_line    0x00000028       0x8a ./../build/optee-emmc-stm32mp157d-ev1/bl2/bl2_arch_setup.o
 .debug_line    0x000000b2      0x24a ./../build/optee-emmc-stm32mp157d-ev1/bl2/bl2_image_load_v2.o
 .debug_line    0x000002fc      0x1ce ./../build/optee-emmc-stm32mp157d-ev1/bl2/bl2_main.o
 .debug_line    0x000004ca      0x347 ./../build/optee-emmc-stm32mp157d-ev1/bl2/bl_common.o
 .debug_line    0x00000811      0x617 ./../build/optee-emmc-stm32mp157d-ev1/bl2/desc_image_load.o
 .debug_line    0x00000e28      0xad2 ./../build/optee-emmc-stm32mp157d-ev1/bl2/fdt_wrappers.o
 .debug_line    0x000018fa      0x201 ./../build/optee-emmc-stm32mp157d-ev1/bl2/tf_log.o
 .debug_line    0x00001afb      0x30d ./../build/optee-emmc-stm32mp157d-ev1/bl2/uuid.o
 .debug_line    0x00001e08      0x88d ./../build/optee-emmc-stm32mp157d-ev1/bl2/tzc400.o
 .debug_line    0x00002695      0x1b3 ./../build/optee-emmc-stm32mp157d-ev1/bl2/clk.o
 .debug_line    0x00002848      0x316 ./../build/optee-emmc-stm32mp157d-ev1/bl2/multi_console.o
 .debug_line    0x00002b5e      0x1e7 ./../build/optee-emmc-stm32mp157d-ev1/bl2/delay_timer.o
 .debug_line    0x00002d45      0x24d ./../build/optee-emmc-stm32mp157d-ev1/bl2/generic_delay_timer.o
 .debug_line    0x00002f92      0x4b8 ./../build/optee-emmc-stm32mp157d-ev1/bl2/fwu.o
 .debug_line    0x0000344a      0x77f ./../build/optee-emmc-stm32mp157d-ev1/bl2/io_block.o
 .debug_line    0x00003bc9      0x731 ./../build/optee-emmc-stm32mp157d-ev1/bl2/io_fip.o
 .debug_line    0x000042fa      0x5f0 ./../build/optee-emmc-stm32mp157d-ev1/bl2/io_storage.o
 .debug_line    0x000048ea      0xd1b ./../build/optee-emmc-stm32mp157d-ev1/bl2/mmc.o
 .debug_line    0x00005605      0x22b ./../build/optee-emmc-stm32mp157d-ev1/bl2/gpt.o
 .debug_line    0x00005830      0x774 ./../build/optee-emmc-stm32mp157d-ev1/bl2/partition.o
 .debug_line    0x00005fa4      0xe01 ./../build/optee-emmc-stm32mp157d-ev1/bl2/bsec2.o
 .debug_line    0x00006da5     0x2d0e ./../build/optee-emmc-stm32mp157d-ev1/bl2/stm32mp1_clk.o
 .debug_line    0x00009ab3      0x732 ./../build/optee-emmc-stm32mp157d-ev1/bl2/stm32mp_clkfunc.o
 .debug_line    0x0000a1e5     0x145e ./../build/optee-emmc-stm32mp157d-ev1/bl2/stm32mp1_ddr.o
 .debug_line    0x0000b643     0x17c7 ./../build/optee-emmc-stm32mp157d-ev1/bl2/stm32mp1_ddr_helpers.o
 .debug_line    0x0000ce0a      0x57d ./../build/optee-emmc-stm32mp157d-ev1/bl2/stm32mp1_ram.o
 .debug_line    0x0000d387      0xb99 ./../build/optee-emmc-stm32mp157d-ev1/bl2/stm32mp_ddr.o
 .debug_line    0x0000df20      0x4ca ./../build/optee-emmc-stm32mp157d-ev1/bl2/stm32mp_ddr_test.o
 .debug_line    0x0000e3ea      0x21a ./../build/optee-emmc-stm32mp157d-ev1/bl2/stm32mp_ram.o
 .debug_line    0x0000e604      0x9e9 ./../build/optee-emmc-stm32mp157d-ev1/bl2/stm32_gpio.o
 .debug_line    0x0000efed     0x1add ./../build/optee-emmc-stm32mp157d-ev1/bl2/stm32_i2c.o
 .debug_line    0x00010aca      0x518 ./../build/optee-emmc-stm32mp157d-ev1/bl2/stm32_iwdg.o
 .debug_line    0x00010fe2     0x1190 ./../build/optee-emmc-stm32mp157d-ev1/bl2/stm32_sdmmc2.o
 .debug_line    0x00012172      0x2fa ./../build/optee-emmc-stm32mp157d-ev1/bl2/nvmem.o
 .debug_line    0x0001246c      0x962 ./../build/optee-emmc-stm32mp157d-ev1/bl2/stm32mp_tamp_nvram_core.o
 .debug_line    0x00012dce      0x119 ./../build/optee-emmc-stm32mp157d-ev1/bl2/stm32mp_tamp_nvram_mp1.o
 .debug_line    0x00012ee7      0x773 ./../build/optee-emmc-stm32mp157d-ev1/bl2/stm32mp_pmic.o
 .debug_line    0x0001365a      0x6e4 ./../build/optee-emmc-stm32mp157d-ev1/bl2/stpmic1.o
 .debug_line    0x00013d3e      0x998 ./../build/optee-emmc-stm32mp157d-ev1/bl2/regulator_core.o
 .debug_line    0x000146d6      0x286 ./../build/optee-emmc-stm32mp157d-ev1/bl2/regulator_fixed.o
 .debug_line    0x0001495c      0x415 ./../build/optee-emmc-stm32mp157d-ev1/bl2/stm32mp1_reset.o
 .debug_line    0x00014d71       0xc6 ./../build/optee-emmc-stm32mp157d-ev1/bl2/ctzdi2.o
 .debug_line    0x00014e37      0x385 ./../build/optee-emmc-stm32mp157d-ev1/bl2/udivmoddi4.o
 .debug_line    0x000151bc      0x2a7 ./../build/optee-emmc-stm32mp157d-ev1/bl2/fconf.o
 .debug_line    0x00015463      0x3f8 ./../build/optee-emmc-stm32mp157d-ev1/bl2/fconf_dyn_cfg_getter.o
 .debug_line    0x0001585b      0x343 ./../build/optee-emmc-stm32mp157d-ev1/bl2/optee_utils.o
 .debug_line    0x00015b9e      0x54b ./../build/optee-emmc-stm32mp157d-ev1/bl2/xlat_tables_arch.o
 .debug_line    0x000160e9      0x39c ./../build/optee-emmc-stm32mp157d-ev1/bl2/xlat_tables_context.o
 .debug_line    0x00016485     0x106b ./../build/optee-emmc-stm32mp157d-ev1/bl2/xlat_tables_core.o
 .debug_line    0x000174f0      0x5f2 ./../build/optee-emmc-stm32mp157d-ev1/bl2/xlat_tables_utils.o
 .debug_line    0x00017ae2      0x2e8 ./../build/optee-emmc-stm32mp157d-ev1/bl2/crc32.o
 .debug_line    0x00017dca      0x24c ./../build/optee-emmc-stm32mp157d-ev1/bl2/tf_gunzip.o
 .debug_line    0x00018016      0x2a9 ./../build/optee-emmc-stm32mp157d-ev1/bl2/plat_bl_common.o
 .debug_line    0x000182bf       0xce ./../build/optee-emmc-stm32mp157d-ev1/bl2/plat_log_common.o
 .debug_line    0x0001838d      0x950 ./../build/optee-emmc-stm32mp157d-ev1/bl2/bl2_io_storage.o
 .debug_line    0x00018cdd      0x130 ./../build/optee-emmc-stm32mp157d-ev1/bl2/plat_image_load.o
 .debug_line    0x00018e0d      0xd82 ./../build/optee-emmc-stm32mp157d-ev1/bl2/stm32mp_common.o
 .debug_line    0x00019b8f      0x978 ./../build/optee-emmc-stm32mp157d-ev1/bl2/stm32mp_dt.o
 .debug_line    0x0001a507      0x34a ./../build/optee-emmc-stm32mp157d-ev1/bl2/stm32mp_fconf_fuse.o
 .debug_line    0x0001a851      0x34d ./../build/optee-emmc-stm32mp157d-ev1/bl2/stm32mp_fconf_io.o
 .debug_line    0x0001ab9e      0xd49 ./../build/optee-emmc-stm32mp157d-ev1/bl2/bl2_plat_setup.o
 .debug_line    0x0001b8e7      0x111 ./../build/optee-emmc-stm32mp157d-ev1/bl2/plat_bl2_mem_params_desc.o
 .debug_line    0x0001b9f8      0x2e2 ./../build/optee-emmc-stm32mp157d-ev1/bl2/plat_ddr.o
 .debug_line    0x0001bcda      0x3c5 ./../build/optee-emmc-stm32mp157d-ev1/bl2/stm32mp1_context.o
 .debug_line    0x0001c09f      0x29d ./../build/optee-emmc-stm32mp157d-ev1/bl2/stm32mp1_critic_power.o
 .debug_line    0x0001c33c      0x1fc ./../build/optee-emmc-stm32mp157d-ev1/bl2/stm32mp1_dbgmcu.o
 .debug_line    0x0001c538      0x34d ./../build/optee-emmc-stm32mp157d-ev1/bl2/stm32mp1_fconf_firewall.o
 .debug_line    0x0001c885      0x818 ./../build/optee-emmc-stm32mp157d-ev1/bl2/stm32mp1_private.o
 .debug_line    0x0001d09d      0x5bb ./../build/optee-emmc-stm32mp157d-ev1/bl2/stm32mp1_syscfg.o
 .debug_line    0x0001d658       0x64 ./../build/optee-emmc-stm32mp157d-ev1/bl2/bl2_el3_entrypoint.o
 .debug_line    0x0001d6bc       0x58 ./../build/optee-emmc-stm32mp157d-ev1/bl2/bl2_el3_exceptions.o
 .debug_line    0x0001d714       0x60 ./../build/optee-emmc-stm32mp157d-ev1/bl2/bl2_run_next_image.o
 .debug_line    0x0001d774       0xed ./../build/optee-emmc-stm32mp157d-ev1/bl2/debug.o
 .debug_line    0x0001d861      0x10c ./../build/optee-emmc-stm32mp157d-ev1/bl2/stm32_console.o
 .debug_line    0x0001d96d       0xfb ./../build/optee-emmc-stm32mp157d-ev1/bl2/cache_helpers.o
 .debug_line    0x0001da68      0x10b ./../build/optee-emmc-stm32mp157d-ev1/bl2/misc_helpers.o
 .debug_line    0x0001db73       0x68 ./../build/optee-emmc-stm32mp157d-ev1/bl2/aeabi_uldivmod.o
 .debug_line    0x0001dbdb       0xa5 ./../build/optee-emmc-stm32mp157d-ev1/bl2/cortex_a7.o
 .debug_line    0x0001dc80       0xbd ./../build/optee-emmc-stm32mp157d-ev1/bl2/cpu_helpers.o
 .debug_line    0x0001dd3d       0x71 ./../build/optee-emmc-stm32mp157d-ev1/bl2/spinlock.o
 .debug_line    0x0001ddae       0xa5 ./../build/optee-emmc-stm32mp157d-ev1/bl2/enable_mmu.o
 .debug_line    0x0001de53       0x6c ./../build/optee-emmc-stm32mp157d-ev1/bl2/platform_up_stack.o
 .debug_line    0x0001debf       0x84 ./../build/optee-emmc-stm32mp157d-ev1/bl2/stm32mp1_critic_power_wrapper.o
 .debug_line    0x0001df43      0x1b3 ./../build/optee-emmc-stm32mp157d-ev1/bl2/stm32mp1_helper.o
 .debug_line    0x0001e0f6      0x7d2 ./../build/optee-emmc-stm32mp157d-ev1/lib/libfdt.a(fdt.o)
 .debug_line    0x0001e8c8      0x2c6 ./../build/optee-emmc-stm32mp157d-ev1/lib/libfdt.a(fdt_addresses.o)
 .debug_line    0x0001eb8e     0x1280 ./../build/optee-emmc-stm32mp157d-ev1/lib/libfdt.a(fdt_ro.o)
 .debug_line    0x0001fe0e       0xe1 ./../build/optee-emmc-stm32mp157d-ev1/lib/libc.a(assert.o)
 .debug_line    0x0001feef       0x89 ./../build/optee-emmc-stm32mp157d-ev1/lib/libc.a(memchr.o)
 .debug_line    0x0001ff78       0xa3 ./../build/optee-emmc-stm32mp157d-ev1/lib/libc.a(memcmp.o)
 .debug_line    0x0002001b       0x8c ./../build/optee-emmc-stm32mp157d-ev1/lib/libc.a(memcpy.o)
 .debug_line    0x000200a7       0xe4 ./../build/optee-emmc-stm32mp157d-ev1/lib/libc.a(memmove.o)
 .debug_line    0x0002018b      0x109 ./../build/optee-emmc-stm32mp157d-ev1/lib/libc.a(memset.o)
 .debug_line    0x00020294      0x448 ./../build/optee-emmc-stm32mp157d-ev1/lib/libc.a(printf.o)
 .debug_line    0x000206dc      0x572 ./../build/optee-emmc-stm32mp157d-ev1/lib/libc.a(snprintf.o)
 .debug_line    0x00020c4e       0x6c ./../build/optee-emmc-stm32mp157d-ev1/lib/libc.a(strchr.o)
 .debug_line    0x00020cba       0x66 ./../build/optee-emmc-stm32mp157d-ev1/lib/libc.a(strcmp.o)
 .debug_line    0x00020d20       0xc3 ./../build/optee-emmc-stm32mp157d-ev1/lib/libc.a(strlcpy.o)
 .debug_line    0x00020de3       0x7b ./../build/optee-emmc-stm32mp157d-ev1/lib/libc.a(strlen.o)
 .debug_line    0x00020e5e       0xa9 ./../build/optee-emmc-stm32mp157d-ev1/lib/libc.a(strncmp.o)
 .debug_line    0x00020f07       0x9e ./../build/optee-emmc-stm32mp157d-ev1/lib/libc.a(strnlen.o)
 .debug_line    0x00020fa5       0x73 ./../build/optee-emmc-stm32mp157d-ev1/lib/libc.a(strrchr.o)

.debug_str      0x00000000     0x99e4
 .debug_str     0x00000000     0x99e4 ./../build/optee-emmc-stm32mp157d-ev1/bl2/build_message.o
                                0x168 (size before relaxing)
 .debug_str     0x000099e4      0x210 ./../build/optee-emmc-stm32mp157d-ev1/bl2/bl2_arch_setup.o
 .debug_str     0x000099e4      0x4cf ./../build/optee-emmc-stm32mp157d-ev1/bl2/bl2_image_load_v2.o
 .debug_str     0x000099e4      0x40f ./../build/optee-emmc-stm32mp157d-ev1/bl2/bl2_main.o
 .debug_str     0x000099e4      0x44d ./../build/optee-emmc-stm32mp157d-ev1/bl2/bl_common.o
 .debug_str     0x000099e4      0x6b1 ./../build/optee-emmc-stm32mp157d-ev1/bl2/desc_image_load.o
 .debug_str     0x000099e4      0x747 ./../build/optee-emmc-stm32mp157d-ev1/bl2/fdt_wrappers.o
 .debug_str     0x000099e4      0x2d4 ./../build/optee-emmc-stm32mp157d-ev1/bl2/tf_log.o
 .debug_str     0x000099e4      0x29b ./../build/optee-emmc-stm32mp157d-ev1/bl2/uuid.o
 .debug_str     0x000099e4      0x635 ./../build/optee-emmc-stm32mp157d-ev1/bl2/tzc400.o
 .debug_str     0x000099e4      0x260 ./../build/optee-emmc-stm32mp157d-ev1/bl2/clk.o
 .debug_str     0x000099e4      0x32c ./../build/optee-emmc-stm32mp157d-ev1/bl2/multi_console.o
 .debug_str     0x000099e4      0x2fa ./../build/optee-emmc-stm32mp157d-ev1/bl2/delay_timer.o
 .debug_str     0x000099e4      0x34e ./../build/optee-emmc-stm32mp157d-ev1/bl2/generic_delay_timer.o
 .debug_str     0x000099e4      0x579 ./../build/optee-emmc-stm32mp157d-ev1/bl2/fwu.o
 .debug_str     0x000099e4      0x66f ./../build/optee-emmc-stm32mp157d-ev1/bl2/io_block.o
 .debug_str     0x000099e4      0x84f ./../build/optee-emmc-stm32mp157d-ev1/bl2/io_fip.o
 .debug_str     0x000099e4      0x5bb ./../build/optee-emmc-stm32mp157d-ev1/bl2/io_storage.o
 .debug_str     0x000099e4      0x956 ./../build/optee-emmc-stm32mp157d-ev1/bl2/mmc.o
 .debug_str     0x000099e4      0x32c ./../build/optee-emmc-stm32mp157d-ev1/bl2/gpt.o
 .debug_str     0x000099e4      0x719 ./../build/optee-emmc-stm32mp157d-ev1/bl2/partition.o
 .debug_str     0x000099e4      0x502 ./../build/optee-emmc-stm32mp157d-ev1/bl2/bsec2.o
 .debug_str     0x000099e4     0x1513 ./../build/optee-emmc-stm32mp157d-ev1/bl2/stm32mp1_clk.o
 .debug_str     0x000099e4      0x559 ./../build/optee-emmc-stm32mp157d-ev1/bl2/stm32mp_clkfunc.o
 .debug_str     0x000099e4     0x1005 ./../build/optee-emmc-stm32mp157d-ev1/bl2/stm32mp1_ddr.o
 .debug_str     0x000099e4      0xb19 ./../build/optee-emmc-stm32mp157d-ev1/bl2/stm32mp1_ddr_helpers.o
 .debug_str     0x000099e4      0xe79 ./../build/optee-emmc-stm32mp157d-ev1/bl2/stm32mp1_ram.o
 .debug_str     0x000099e4      0xe07 ./../build/optee-emmc-stm32mp157d-ev1/bl2/stm32mp_ddr.o
 .debug_str     0x000099e4      0x311 ./../build/optee-emmc-stm32mp157d-ev1/bl2/stm32mp_ddr_test.o
 .debug_str     0x000099e4      0x2f0 ./../build/optee-emmc-stm32mp157d-ev1/bl2/stm32mp_ram.o
 .debug_str     0x000099e4      0x576 ./../build/optee-emmc-stm32mp157d-ev1/bl2/stm32_gpio.o
 .debug_str     0x000099e4      0x977 ./../build/optee-emmc-stm32mp157d-ev1/bl2/stm32_i2c.o
 .debug_str     0x000099e4      0x4ca ./../build/optee-emmc-stm32mp157d-ev1/bl2/stm32_iwdg.o
 .debug_str     0x000099e4      0x934 ./../build/optee-emmc-stm32mp157d-ev1/bl2/stm32_sdmmc2.o
 .debug_str     0x000099e4      0x434 ./../build/optee-emmc-stm32mp157d-ev1/bl2/nvmem.o
 .debug_str     0x000099e4      0x7e0 ./../build/optee-emmc-stm32mp157d-ev1/bl2/stm32mp_tamp_nvram_core.o
 .debug_str     0x000099e4      0x41a ./../build/optee-emmc-stm32mp157d-ev1/bl2/stm32mp_tamp_nvram_mp1.o
 .debug_str     0x000099e4      0xb22 ./../build/optee-emmc-stm32mp157d-ev1/bl2/stm32mp_pmic.o
 .debug_str     0x000099e4      0x7f2 ./../build/optee-emmc-stm32mp157d-ev1/bl2/stpmic1.o
 .debug_str     0x000099e4      0x596 ./../build/optee-emmc-stm32mp157d-ev1/bl2/regulator_core.o
 .debug_str     0x000099e4      0x3f9 ./../build/optee-emmc-stm32mp157d-ev1/bl2/regulator_fixed.o
 .debug_str     0x000099e4      0x373 ./../build/optee-emmc-stm32mp157d-ev1/bl2/stm32mp1_reset.o
 .debug_str     0x000099e4      0x250 ./../build/optee-emmc-stm32mp157d-ev1/bl2/ctzdi2.o
 .debug_str     0x000099e4      0x27b ./../build/optee-emmc-stm32mp157d-ev1/bl2/udivmoddi4.o
 .debug_str     0x000099e4      0x40a ./../build/optee-emmc-stm32mp157d-ev1/bl2/fconf.o
 .debug_str     0x000099e4      0x517 ./../build/optee-emmc-stm32mp157d-ev1/bl2/fconf_dyn_cfg_getter.o
 .debug_str     0x000099e4      0x45e ./../build/optee-emmc-stm32mp157d-ev1/bl2/optee_utils.o
 .debug_str     0x000099e4      0x524 ./../build/optee-emmc-stm32mp157d-ev1/bl2/xlat_tables_arch.o
 .debug_str     0x000099e4      0x627 ./../build/optee-emmc-stm32mp157d-ev1/bl2/xlat_tables_context.o
 .debug_str     0x000099e4      0x8e7 ./../build/optee-emmc-stm32mp157d-ev1/bl2/xlat_tables_core.o
 .debug_str     0x000099e4      0x551 ./../build/optee-emmc-stm32mp157d-ev1/bl2/xlat_tables_utils.o
 .debug_str     0x000099e4      0x260 ./../build/optee-emmc-stm32mp157d-ev1/bl2/crc32.o
 .debug_str     0x000099e4      0x36a ./../build/optee-emmc-stm32mp157d-ev1/bl2/tf_gunzip.o
 .debug_str     0x000099e4      0x45b ./../build/optee-emmc-stm32mp157d-ev1/bl2/plat_bl_common.o
 .debug_str     0x000099e4      0x27f ./../build/optee-emmc-stm32mp157d-ev1/bl2/plat_log_common.o
 .debug_str     0x000099e4     0x10b8 ./../build/optee-emmc-stm32mp157d-ev1/bl2/bl2_io_storage.o
 .debug_str     0x000099e4      0x476 ./../build/optee-emmc-stm32mp157d-ev1/bl2/plat_image_load.o
 .debug_str     0x000099e4      0xdfe ./../build/optee-emmc-stm32mp157d-ev1/bl2/stm32mp_common.o
 .debug_str     0x000099e4      0x777 ./../build/optee-emmc-stm32mp157d-ev1/bl2/stm32mp_dt.o
 .debug_str     0x000099e4      0x458 ./../build/optee-emmc-stm32mp157d-ev1/bl2/stm32mp_fconf_fuse.o
 .debug_str     0x000099e4      0x593 ./../build/optee-emmc-stm32mp157d-ev1/bl2/stm32mp_fconf_io.o
 .debug_str     0x000099e4      0xfa7 ./../build/optee-emmc-stm32mp157d-ev1/bl2/bl2_plat_setup.o
 .debug_str     0x000099e4      0x462 ./../build/optee-emmc-stm32mp157d-ev1/bl2/plat_bl2_mem_params_desc.o
 .debug_str     0x000099e4      0x40e ./../build/optee-emmc-stm32mp157d-ev1/bl2/plat_ddr.o
 .debug_str     0x000099e4      0x48d ./../build/optee-emmc-stm32mp157d-ev1/bl2/stm32mp1_context.o
 .debug_str     0x000099e4      0x3cd ./../build/optee-emmc-stm32mp157d-ev1/bl2/stm32mp1_critic_power.o
 .debug_str     0x000099e4      0x2da ./../build/optee-emmc-stm32mp157d-ev1/bl2/stm32mp1_dbgmcu.o
 .debug_str     0x000099e4      0x487 ./../build/optee-emmc-stm32mp157d-ev1/bl2/stm32mp1_fconf_firewall.o
 .debug_str     0x000099e4      0x7ba ./../build/optee-emmc-stm32mp157d-ev1/bl2/stm32mp1_private.o
 .debug_str     0x000099e4      0x4d1 ./../build/optee-emmc-stm32mp157d-ev1/bl2/stm32mp1_syscfg.o
 .debug_str     0x000099e4       0x6a ./../build/optee-emmc-stm32mp157d-ev1/bl2/bl2_el3_entrypoint.o
 .debug_str     0x000099e4       0x5b ./../build/optee-emmc-stm32mp157d-ev1/bl2/bl2_el3_exceptions.o
 .debug_str     0x000099e4       0x6e ./../build/optee-emmc-stm32mp157d-ev1/bl2/bl2_run_next_image.o
 .debug_str     0x000099e4       0xbb ./../build/optee-emmc-stm32mp157d-ev1/bl2/debug.o
 .debug_str     0x000099e4      0x101 ./../build/optee-emmc-stm32mp157d-ev1/bl2/stm32_console.o
 .debug_str     0x000099e4       0xdf ./../build/optee-emmc-stm32mp157d-ev1/bl2/cache_helpers.o
 .debug_str     0x000099e4       0xb5 ./../build/optee-emmc-stm32mp157d-ev1/bl2/misc_helpers.o
 .debug_str     0x000099e4       0x79 ./../build/optee-emmc-stm32mp157d-ev1/bl2/aeabi_uldivmod.o
 .debug_str     0x000099e4       0xc8 ./../build/optee-emmc-stm32mp157d-ev1/bl2/cortex_a7.o
 .debug_str     0x000099e4       0xa5 ./../build/optee-emmc-stm32mp157d-ev1/bl2/cpu_helpers.o
 .debug_str     0x000099e4       0x77 ./../build/optee-emmc-stm32mp157d-ev1/bl2/spinlock.o
 .debug_str     0x000099e4       0x92 ./../build/optee-emmc-stm32mp157d-ev1/bl2/enable_mmu.o
 .debug_str     0x000099e4       0x86 ./../build/optee-emmc-stm32mp157d-ev1/bl2/platform_up_stack.o
 .debug_str     0x000099e4       0x86 ./../build/optee-emmc-stm32mp157d-ev1/bl2/stm32mp1_critic_power_wrapper.o
 .debug_str     0x000099e4      0x19f ./../build/optee-emmc-stm32mp157d-ev1/bl2/stm32mp1_helper.o
 .debug_str     0x000099e4      0x4bd ./../build/optee-emmc-stm32mp157d-ev1/lib/libfdt.a(fdt.o)
 .debug_str     0x000099e4      0x2bd ./../build/optee-emmc-stm32mp157d-ev1/lib/libfdt.a(fdt_addresses.o)
 .debug_str     0x000099e4      0x8cb ./../build/optee-emmc-stm32mp157d-ev1/lib/libfdt.a(fdt_ro.o)
 .debug_str     0x000099e4      0x229 ./../build/optee-emmc-stm32mp157d-ev1/lib/libc.a(assert.o)
 .debug_str     0x000099e4      0x184 ./../build/optee-emmc-stm32mp157d-ev1/lib/libc.a(memchr.o)
 .debug_str     0x000099e4      0x184 ./../build/optee-emmc-stm32mp157d-ev1/lib/libc.a(memcmp.o)
 .debug_str     0x000099e4      0x17b ./../build/optee-emmc-stm32mp157d-ev1/lib/libc.a(memcpy.o)
 .debug_str     0x000099e4      0x184 ./../build/optee-emmc-stm32mp157d-ev1/lib/libc.a(memmove.o)
 .debug_str     0x000099e4      0x1f9 ./../build/optee-emmc-stm32mp157d-ev1/lib/libc.a(memset.o)
 .debug_str     0x000099e4      0x273 ./../build/optee-emmc-stm32mp157d-ev1/lib/libc.a(printf.o)
 .debug_str     0x000099e4      0x2a3 ./../build/optee-emmc-stm32mp157d-ev1/lib/libc.a(snprintf.o)
 .debug_str     0x000099e4      0x174 ./../build/optee-emmc-stm32mp157d-ev1/lib/libc.a(strchr.o)
 .debug_str     0x000099e4      0x15d ./../build/optee-emmc-stm32mp157d-ev1/lib/libc.a(strcmp.o)
 .debug_str     0x000099e4      0x1e5 ./../build/optee-emmc-stm32mp157d-ev1/lib/libc.a(strlcpy.o)
 .debug_str     0x000099e4      0x182 ./../build/optee-emmc-stm32mp157d-ev1/lib/libc.a(strlen.o)
 .debug_str     0x000099e4      0x17d ./../build/optee-emmc-stm32mp157d-ev1/lib/libc.a(strncmp.o)
 .debug_str     0x000099e4      0x16d ./../build/optee-emmc-stm32mp157d-ev1/lib/libc.a(strnlen.o)
 .debug_str     0x000099e4      0x17b ./../build/optee-emmc-stm32mp157d-ev1/lib/libc.a(strrchr.o)

.comment        0x00000000       0x12
 .comment       0x00000000       0x12 ./../build/optee-emmc-stm32mp157d-ev1/bl2/build_message.o
                                 0x13 (size before relaxing)
 .comment       0x00000012       0x13 ./../build/optee-emmc-stm32mp157d-ev1/bl2/bl2_arch_setup.o
 .comment       0x00000012       0x13 ./../build/optee-emmc-stm32mp157d-ev1/bl2/bl2_image_load_v2.o
 .comment       0x00000012       0x13 ./../build/optee-emmc-stm32mp157d-ev1/bl2/bl2_main.o
 .comment       0x00000012       0x13 ./../build/optee-emmc-stm32mp157d-ev1/bl2/bl_common.o
 .comment       0x00000012       0x13 ./../build/optee-emmc-stm32mp157d-ev1/bl2/desc_image_load.o
 .comment       0x00000012       0x13 ./../build/optee-emmc-stm32mp157d-ev1/bl2/fdt_wrappers.o
 .comment       0x00000012       0x13 ./../build/optee-emmc-stm32mp157d-ev1/bl2/tf_log.o
 .comment       0x00000012       0x13 ./../build/optee-emmc-stm32mp157d-ev1/bl2/uuid.o
 .comment       0x00000012       0x13 ./../build/optee-emmc-stm32mp157d-ev1/bl2/tzc400.o
 .comment       0x00000012       0x13 ./../build/optee-emmc-stm32mp157d-ev1/bl2/clk.o
 .comment       0x00000012       0x13 ./../build/optee-emmc-stm32mp157d-ev1/bl2/multi_console.o
 .comment       0x00000012       0x13 ./../build/optee-emmc-stm32mp157d-ev1/bl2/delay_timer.o
 .comment       0x00000012       0x13 ./../build/optee-emmc-stm32mp157d-ev1/bl2/generic_delay_timer.o
 .comment       0x00000012       0x13 ./../build/optee-emmc-stm32mp157d-ev1/bl2/fwu.o
 .comment       0x00000012       0x13 ./../build/optee-emmc-stm32mp157d-ev1/bl2/io_block.o
 .comment       0x00000012       0x13 ./../build/optee-emmc-stm32mp157d-ev1/bl2/io_fip.o
 .comment       0x00000012       0x13 ./../build/optee-emmc-stm32mp157d-ev1/bl2/io_storage.o
 .comment       0x00000012       0x13 ./../build/optee-emmc-stm32mp157d-ev1/bl2/mmc.o
 .comment       0x00000012       0x13 ./../build/optee-emmc-stm32mp157d-ev1/bl2/gpt.o
 .comment       0x00000012       0x13 ./../build/optee-emmc-stm32mp157d-ev1/bl2/partition.o
 .comment       0x00000012       0x13 ./../build/optee-emmc-stm32mp157d-ev1/bl2/bsec2.o
 .comment       0x00000012       0x13 ./../build/optee-emmc-stm32mp157d-ev1/bl2/stm32mp1_clk.o
 .comment       0x00000012       0x13 ./../build/optee-emmc-stm32mp157d-ev1/bl2/stm32mp_clkfunc.o
 .comment       0x00000012       0x13 ./../build/optee-emmc-stm32mp157d-ev1/bl2/stm32mp1_ddr.o
 .comment       0x00000012       0x13 ./../build/optee-emmc-stm32mp157d-ev1/bl2/stm32mp1_ddr_helpers.o
 .comment       0x00000012       0x13 ./../build/optee-emmc-stm32mp157d-ev1/bl2/stm32mp1_ram.o
 .comment       0x00000012       0x13 ./../build/optee-emmc-stm32mp157d-ev1/bl2/stm32mp_ddr.o
 .comment       0x00000012       0x13 ./../build/optee-emmc-stm32mp157d-ev1/bl2/stm32mp_ddr_test.o
 .comment       0x00000012       0x13 ./../build/optee-emmc-stm32mp157d-ev1/bl2/stm32mp_ram.o
 .comment       0x00000012       0x13 ./../build/optee-emmc-stm32mp157d-ev1/bl2/stm32_gpio.o
 .comment       0x00000012       0x13 ./../build/optee-emmc-stm32mp157d-ev1/bl2/stm32_i2c.o
 .comment       0x00000012       0x13 ./../build/optee-emmc-stm32mp157d-ev1/bl2/stm32_iwdg.o
 .comment       0x00000012       0x13 ./../build/optee-emmc-stm32mp157d-ev1/bl2/stm32_sdmmc2.o
 .comment       0x00000012       0x13 ./../build/optee-emmc-stm32mp157d-ev1/bl2/nvmem.o
 .comment       0x00000012       0x13 ./../build/optee-emmc-stm32mp157d-ev1/bl2/stm32mp_tamp_nvram_core.o
 .comment       0x00000012       0x13 ./../build/optee-emmc-stm32mp157d-ev1/bl2/stm32mp_tamp_nvram_mp1.o
 .comment       0x00000012       0x13 ./../build/optee-emmc-stm32mp157d-ev1/bl2/stm32mp_pmic.o
 .comment       0x00000012       0x13 ./../build/optee-emmc-stm32mp157d-ev1/bl2/stpmic1.o
 .comment       0x00000012       0x13 ./../build/optee-emmc-stm32mp157d-ev1/bl2/regulator_core.o
 .comment       0x00000012       0x13 ./../build/optee-emmc-stm32mp157d-ev1/bl2/regulator_fixed.o
 .comment       0x00000012       0x13 ./../build/optee-emmc-stm32mp157d-ev1/bl2/stm32mp1_reset.o
 .comment       0x00000012       0x13 ./../build/optee-emmc-stm32mp157d-ev1/bl2/ctzdi2.o
 .comment       0x00000012       0x13 ./../build/optee-emmc-stm32mp157d-ev1/bl2/udivmoddi4.o
 .comment       0x00000012       0x13 ./../build/optee-emmc-stm32mp157d-ev1/bl2/fconf.o
 .comment       0x00000012       0x13 ./../build/optee-emmc-stm32mp157d-ev1/bl2/fconf_dyn_cfg_getter.o
 .comment       0x00000012       0x13 ./../build/optee-emmc-stm32mp157d-ev1/bl2/optee_utils.o
 .comment       0x00000012       0x13 ./../build/optee-emmc-stm32mp157d-ev1/bl2/xlat_tables_arch.o
 .comment       0x00000012       0x13 ./../build/optee-emmc-stm32mp157d-ev1/bl2/xlat_tables_context.o
 .comment       0x00000012       0x13 ./../build/optee-emmc-stm32mp157d-ev1/bl2/xlat_tables_core.o
 .comment       0x00000012       0x13 ./../build/optee-emmc-stm32mp157d-ev1/bl2/xlat_tables_utils.o
 .comment       0x00000012       0x13 ./../build/optee-emmc-stm32mp157d-ev1/bl2/crc32.o
 .comment       0x00000012       0x13 ./../build/optee-emmc-stm32mp157d-ev1/bl2/tf_gunzip.o
 .comment       0x00000012       0x13 ./../build/optee-emmc-stm32mp157d-ev1/bl2/plat_bl_common.o
 .comment       0x00000012       0x13 ./../build/optee-emmc-stm32mp157d-ev1/bl2/plat_log_common.o
 .comment       0x00000012       0x13 ./../build/optee-emmc-stm32mp157d-ev1/bl2/bl2_io_storage.o
 .comment       0x00000012       0x13 ./../build/optee-emmc-stm32mp157d-ev1/bl2/plat_image_load.o
 .comment       0x00000012       0x13 ./../build/optee-emmc-stm32mp157d-ev1/bl2/stm32mp_common.o
 .comment       0x00000012       0x13 ./../build/optee-emmc-stm32mp157d-ev1/bl2/stm32mp_dt.o
 .comment       0x00000012       0x13 ./../build/optee-emmc-stm32mp157d-ev1/bl2/stm32mp_fconf_fuse.o
 .comment       0x00000012       0x13 ./../build/optee-emmc-stm32mp157d-ev1/bl2/stm32mp_fconf_io.o
 .comment       0x00000012       0x13 ./../build/optee-emmc-stm32mp157d-ev1/bl2/bl2_plat_setup.o
 .comment       0x00000012       0x13 ./../build/optee-emmc-stm32mp157d-ev1/bl2/plat_bl2_mem_params_desc.o
 .comment       0x00000012       0x13 ./../build/optee-emmc-stm32mp157d-ev1/bl2/plat_ddr.o
 .comment       0x00000012       0x13 ./../build/optee-emmc-stm32mp157d-ev1/bl2/stm32mp1_context.o
 .comment       0x00000012       0x13 ./../build/optee-emmc-stm32mp157d-ev1/bl2/stm32mp1_critic_power.o
 .comment       0x00000012       0x13 ./../build/optee-emmc-stm32mp157d-ev1/bl2/stm32mp1_dbgmcu.o
 .comment       0x00000012       0x13 ./../build/optee-emmc-stm32mp157d-ev1/bl2/stm32mp1_fconf_firewall.o
 .comment       0x00000012       0x13 ./../build/optee-emmc-stm32mp157d-ev1/bl2/stm32mp1_private.o
 .comment       0x00000012       0x13 ./../build/optee-emmc-stm32mp157d-ev1/bl2/stm32mp1_syscfg.o
 .comment       0x00000012       0x13 ./../build/optee-emmc-stm32mp157d-ev1/lib/libfdt.a(fdt.o)
 .comment       0x00000012       0x13 ./../build/optee-emmc-stm32mp157d-ev1/lib/libfdt.a(fdt_addresses.o)
 .comment       0x00000012       0x13 ./../build/optee-emmc-stm32mp157d-ev1/lib/libfdt.a(fdt_ro.o)
 .comment       0x00000012       0x13 ./../build/optee-emmc-stm32mp157d-ev1/lib/libc.a(assert.o)
 .comment       0x00000012       0x13 ./../build/optee-emmc-stm32mp157d-ev1/lib/libc.a(memchr.o)
 .comment       0x00000012       0x13 ./../build/optee-emmc-stm32mp157d-ev1/lib/libc.a(memcmp.o)
 .comment       0x00000012       0x13 ./../build/optee-emmc-stm32mp157d-ev1/lib/libc.a(memcpy.o)
 .comment       0x00000012       0x13 ./../build/optee-emmc-stm32mp157d-ev1/lib/libc.a(memmove.o)
 .comment       0x00000012       0x13 ./../build/optee-emmc-stm32mp157d-ev1/lib/libc.a(memset.o)
 .comment       0x00000012       0x13 ./../build/optee-emmc-stm32mp157d-ev1/lib/libc.a(printf.o)
 .comment       0x00000012       0x13 ./../build/optee-emmc-stm32mp157d-ev1/lib/libc.a(snprintf.o)
 .comment       0x00000012       0x13 ./../build/optee-emmc-stm32mp157d-ev1/lib/libc.a(strchr.o)
 .comment       0x00000012       0x13 ./../build/optee-emmc-stm32mp157d-ev1/lib/libc.a(strcmp.o)
 .comment       0x00000012       0x13 ./../build/optee-emmc-stm32mp157d-ev1/lib/libc.a(strlcpy.o)
 .comment       0x00000012       0x13 ./../build/optee-emmc-stm32mp157d-ev1/lib/libc.a(strlen.o)
 .comment       0x00000012       0x13 ./../build/optee-emmc-stm32mp157d-ev1/lib/libc.a(strncmp.o)
 .comment       0x00000012       0x13 ./../build/optee-emmc-stm32mp157d-ev1/lib/libc.a(strnlen.o)
 .comment       0x00000012       0x13 ./../build/optee-emmc-stm32mp157d-ev1/lib/libc.a(strrchr.o)

.note.GNU-stack
                0x00000000        0x0
 .note.GNU-stack
                0x00000000        0x0 ./../build/optee-emmc-stm32mp157d-ev1/bl2/build_message.o
 .note.GNU-stack
                0x00000000        0x0 ./../build/optee-emmc-stm32mp157d-ev1/bl2/bl2_arch_setup.o
 .note.GNU-stack
                0x00000000        0x0 ./../build/optee-emmc-stm32mp157d-ev1/bl2/bl2_image_load_v2.o
 .note.GNU-stack
                0x00000000        0x0 ./../build/optee-emmc-stm32mp157d-ev1/bl2/bl2_main.o
 .note.GNU-stack
                0x00000000        0x0 ./../build/optee-emmc-stm32mp157d-ev1/bl2/bl_common.o
 .note.GNU-stack
                0x00000000        0x0 ./../build/optee-emmc-stm32mp157d-ev1/bl2/desc_image_load.o
 .note.GNU-stack
                0x00000000        0x0 ./../build/optee-emmc-stm32mp157d-ev1/bl2/fdt_wrappers.o
 .note.GNU-stack
                0x00000000        0x0 ./../build/optee-emmc-stm32mp157d-ev1/bl2/tf_log.o
 .note.GNU-stack
                0x00000000        0x0 ./../build/optee-emmc-stm32mp157d-ev1/bl2/uuid.o
 .note.GNU-stack
                0x00000000        0x0 ./../build/optee-emmc-stm32mp157d-ev1/bl2/tzc400.o
 .note.GNU-stack
                0x00000000        0x0 ./../build/optee-emmc-stm32mp157d-ev1/bl2/clk.o
 .note.GNU-stack
                0x00000000        0x0 ./../build/optee-emmc-stm32mp157d-ev1/bl2/multi_console.o
 .note.GNU-stack
                0x00000000        0x0 ./../build/optee-emmc-stm32mp157d-ev1/bl2/delay_timer.o
 .note.GNU-stack
                0x00000000        0x0 ./../build/optee-emmc-stm32mp157d-ev1/bl2/generic_delay_timer.o
 .note.GNU-stack
                0x00000000        0x0 ./../build/optee-emmc-stm32mp157d-ev1/bl2/fwu.o
 .note.GNU-stack
                0x00000000        0x0 ./../build/optee-emmc-stm32mp157d-ev1/bl2/io_block.o
 .note.GNU-stack
                0x00000000        0x0 ./../build/optee-emmc-stm32mp157d-ev1/bl2/io_fip.o
 .note.GNU-stack
                0x00000000        0x0 ./../build/optee-emmc-stm32mp157d-ev1/bl2/io_storage.o
 .note.GNU-stack
                0x00000000        0x0 ./../build/optee-emmc-stm32mp157d-ev1/bl2/mmc.o
 .note.GNU-stack
                0x00000000        0x0 ./../build/optee-emmc-stm32mp157d-ev1/bl2/gpt.o
 .note.GNU-stack
                0x00000000        0x0 ./../build/optee-emmc-stm32mp157d-ev1/bl2/partition.o
 .note.GNU-stack
                0x00000000        0x0 ./../build/optee-emmc-stm32mp157d-ev1/bl2/bsec2.o
 .note.GNU-stack
                0x00000000        0x0 ./../build/optee-emmc-stm32mp157d-ev1/bl2/stm32mp1_clk.o
 .note.GNU-stack
                0x00000000        0x0 ./../build/optee-emmc-stm32mp157d-ev1/bl2/stm32mp_clkfunc.o
 .note.GNU-stack
                0x00000000        0x0 ./../build/optee-emmc-stm32mp157d-ev1/bl2/stm32mp1_ddr.o
 .note.GNU-stack
                0x00000000        0x0 ./../build/optee-emmc-stm32mp157d-ev1/bl2/stm32mp1_ddr_helpers.o
 .note.GNU-stack
                0x00000000        0x0 ./../build/optee-emmc-stm32mp157d-ev1/bl2/stm32mp1_ram.o
 .note.GNU-stack
                0x00000000        0x0 ./../build/optee-emmc-stm32mp157d-ev1/bl2/stm32mp_ddr.o
 .note.GNU-stack
                0x00000000        0x0 ./../build/optee-emmc-stm32mp157d-ev1/bl2/stm32mp_ddr_test.o
 .note.GNU-stack
                0x00000000        0x0 ./../build/optee-emmc-stm32mp157d-ev1/bl2/stm32mp_ram.o
 .note.GNU-stack
                0x00000000        0x0 ./../build/optee-emmc-stm32mp157d-ev1/bl2/stm32_gpio.o
 .note.GNU-stack
                0x00000000        0x0 ./../build/optee-emmc-stm32mp157d-ev1/bl2/stm32_i2c.o
 .note.GNU-stack
                0x00000000        0x0 ./../build/optee-emmc-stm32mp157d-ev1/bl2/stm32_iwdg.o
 .note.GNU-stack
                0x00000000        0x0 ./../build/optee-emmc-stm32mp157d-ev1/bl2/stm32_sdmmc2.o
 .note.GNU-stack
                0x00000000        0x0 ./../build/optee-emmc-stm32mp157d-ev1/bl2/nvmem.o
 .note.GNU-stack
                0x00000000        0x0 ./../build/optee-emmc-stm32mp157d-ev1/bl2/stm32mp_tamp_nvram_core.o
 .note.GNU-stack
                0x00000000        0x0 ./../build/optee-emmc-stm32mp157d-ev1/bl2/stm32mp_tamp_nvram_mp1.o
 .note.GNU-stack
                0x00000000        0x0 ./../build/optee-emmc-stm32mp157d-ev1/bl2/stm32mp_pmic.o
 .note.GNU-stack
                0x00000000        0x0 ./../build/optee-emmc-stm32mp157d-ev1/bl2/stpmic1.o
 .note.GNU-stack
                0x00000000        0x0 ./../build/optee-emmc-stm32mp157d-ev1/bl2/regulator_core.o
 .note.GNU-stack
                0x00000000        0x0 ./../build/optee-emmc-stm32mp157d-ev1/bl2/regulator_fixed.o
 .note.GNU-stack
                0x00000000        0x0 ./../build/optee-emmc-stm32mp157d-ev1/bl2/stm32mp1_reset.o
 .note.GNU-stack
                0x00000000        0x0 ./../build/optee-emmc-stm32mp157d-ev1/bl2/ctzdi2.o
 .note.GNU-stack
                0x00000000        0x0 ./../build/optee-emmc-stm32mp157d-ev1/bl2/udivmoddi4.o
 .note.GNU-stack
                0x00000000        0x0 ./../build/optee-emmc-stm32mp157d-ev1/bl2/fconf.o
 .note.GNU-stack
                0x00000000        0x0 ./../build/optee-emmc-stm32mp157d-ev1/bl2/fconf_dyn_cfg_getter.o
 .note.GNU-stack
                0x00000000        0x0 ./../build/optee-emmc-stm32mp157d-ev1/bl2/optee_utils.o
 .note.GNU-stack
                0x00000000        0x0 ./../build/optee-emmc-stm32mp157d-ev1/bl2/xlat_tables_arch.o
 .note.GNU-stack
                0x00000000        0x0 ./../build/optee-emmc-stm32mp157d-ev1/bl2/xlat_tables_context.o
 .note.GNU-stack
                0x00000000        0x0 ./../build/optee-emmc-stm32mp157d-ev1/bl2/xlat_tables_core.o
 .note.GNU-stack
                0x00000000        0x0 ./../build/optee-emmc-stm32mp157d-ev1/bl2/xlat_tables_utils.o
 .note.GNU-stack
                0x00000000        0x0 ./../build/optee-emmc-stm32mp157d-ev1/bl2/crc32.o
 .note.GNU-stack
                0x00000000        0x0 ./../build/optee-emmc-stm32mp157d-ev1/bl2/tf_gunzip.o
 .note.GNU-stack
                0x00000000        0x0 ./../build/optee-emmc-stm32mp157d-ev1/bl2/plat_bl_common.o
 .note.GNU-stack
                0x00000000        0x0 ./../build/optee-emmc-stm32mp157d-ev1/bl2/plat_log_common.o
 .note.GNU-stack
                0x00000000        0x0 ./../build/optee-emmc-stm32mp157d-ev1/bl2/bl2_io_storage.o
 .note.GNU-stack
                0x00000000        0x0 ./../build/optee-emmc-stm32mp157d-ev1/bl2/plat_image_load.o
 .note.GNU-stack
                0x00000000        0x0 ./../build/optee-emmc-stm32mp157d-ev1/bl2/stm32mp_common.o
 .note.GNU-stack
                0x00000000        0x0 ./../build/optee-emmc-stm32mp157d-ev1/bl2/stm32mp_dt.o
 .note.GNU-stack
                0x00000000        0x0 ./../build/optee-emmc-stm32mp157d-ev1/bl2/stm32mp_fconf_fuse.o
 .note.GNU-stack
                0x00000000        0x0 ./../build/optee-emmc-stm32mp157d-ev1/bl2/stm32mp_fconf_io.o
 .note.GNU-stack
                0x00000000        0x0 ./../build/optee-emmc-stm32mp157d-ev1/bl2/bl2_plat_setup.o
 .note.GNU-stack
                0x00000000        0x0 ./../build/optee-emmc-stm32mp157d-ev1/bl2/plat_bl2_mem_params_desc.o
 .note.GNU-stack
                0x00000000        0x0 ./../build/optee-emmc-stm32mp157d-ev1/bl2/plat_ddr.o
 .note.GNU-stack
                0x00000000        0x0 ./../build/optee-emmc-stm32mp157d-ev1/bl2/stm32mp1_context.o
 .note.GNU-stack
                0x00000000        0x0 ./../build/optee-emmc-stm32mp157d-ev1/bl2/stm32mp1_critic_power.o
 .note.GNU-stack
                0x00000000        0x0 ./../build/optee-emmc-stm32mp157d-ev1/bl2/stm32mp1_dbgmcu.o
 .note.GNU-stack
                0x00000000        0x0 ./../build/optee-emmc-stm32mp157d-ev1/bl2/stm32mp1_fconf_firewall.o
 .note.GNU-stack
                0x00000000        0x0 ./../build/optee-emmc-stm32mp157d-ev1/bl2/stm32mp1_private.o
 .note.GNU-stack
                0x00000000        0x0 ./../build/optee-emmc-stm32mp157d-ev1/bl2/stm32mp1_syscfg.o
 .note.GNU-stack
                0x00000000        0x0 ./../build/optee-emmc-stm32mp157d-ev1/bl2/aeabi_uldivmod.o
 .note.GNU-stack
                0x00000000        0x0 ./../build/optee-emmc-stm32mp157d-ev1/lib/libfdt.a(fdt.o)
 .note.GNU-stack
                0x00000000        0x0 ./../build/optee-emmc-stm32mp157d-ev1/lib/libfdt.a(fdt_addresses.o)
 .note.GNU-stack
                0x00000000        0x0 ./../build/optee-emmc-stm32mp157d-ev1/lib/libfdt.a(fdt_ro.o)
 .note.GNU-stack
                0x00000000        0x0 ./../build/optee-emmc-stm32mp157d-ev1/lib/libc.a(assert.o)
 .note.GNU-stack
                0x00000000        0x0 ./../build/optee-emmc-stm32mp157d-ev1/lib/libc.a(memchr.o)
 .note.GNU-stack
                0x00000000        0x0 ./../build/optee-emmc-stm32mp157d-ev1/lib/libc.a(memcmp.o)
 .note.GNU-stack
                0x00000000        0x0 ./../build/optee-emmc-stm32mp157d-ev1/lib/libc.a(memcpy.o)
 .note.GNU-stack
                0x00000000        0x0 ./../build/optee-emmc-stm32mp157d-ev1/lib/libc.a(memmove.o)
 .note.GNU-stack
                0x00000000        0x0 ./../build/optee-emmc-stm32mp157d-ev1/lib/libc.a(memset.o)
 .note.GNU-stack
                0x00000000        0x0 ./../build/optee-emmc-stm32mp157d-ev1/lib/libc.a(printf.o)
 .note.GNU-stack
                0x00000000        0x0 ./../build/optee-emmc-stm32mp157d-ev1/lib/libc.a(snprintf.o)
 .note.GNU-stack
                0x00000000        0x0 ./../build/optee-emmc-stm32mp157d-ev1/lib/libc.a(strchr.o)
 .note.GNU-stack
                0x00000000        0x0 ./../build/optee-emmc-stm32mp157d-ev1/lib/libc.a(strcmp.o)
 .note.GNU-stack
                0x00000000        0x0 ./../build/optee-emmc-stm32mp157d-ev1/lib/libc.a(strlcpy.o)
 .note.GNU-stack
                0x00000000        0x0 ./../build/optee-emmc-stm32mp157d-ev1/lib/libc.a(strlen.o)
 .note.GNU-stack
                0x00000000        0x0 ./../build/optee-emmc-stm32mp157d-ev1/lib/libc.a(strncmp.o)
 .note.GNU-stack
                0x00000000        0x0 ./../build/optee-emmc-stm32mp157d-ev1/lib/libc.a(strnlen.o)
 .note.GNU-stack
                0x00000000        0x0 ./../build/optee-emmc-stm32mp157d-ev1/lib/libc.a(strrchr.o)

.ARM.attributes
                0x00000000       0x35
 .ARM.attributes
                0x00000000       0x33 ./../build/optee-emmc-stm32mp157d-ev1/bl2/build_message.o
 .ARM.attributes
                0x00000033       0x33 ./../build/optee-emmc-stm32mp157d-ev1/bl2/bl2_arch_setup.o
 .ARM.attributes
                0x00000066       0x33 ./../build/optee-emmc-stm32mp157d-ev1/bl2/bl2_image_load_v2.o
 .ARM.attributes
                0x00000099       0x33 ./../build/optee-emmc-stm32mp157d-ev1/bl2/bl2_main.o
 .ARM.attributes
                0x000000cc       0x33 ./../build/optee-emmc-stm32mp157d-ev1/bl2/bl_common.o
 .ARM.attributes
                0x000000ff       0x33 ./../build/optee-emmc-stm32mp157d-ev1/bl2/desc_image_load.o
 .ARM.attributes
                0x00000132       0x33 ./../build/optee-emmc-stm32mp157d-ev1/bl2/fdt_wrappers.o
 .ARM.attributes
                0x00000165       0x33 ./../build/optee-emmc-stm32mp157d-ev1/bl2/tf_log.o
 .ARM.attributes
                0x00000198       0x33 ./../build/optee-emmc-stm32mp157d-ev1/bl2/uuid.o
 .ARM.attributes
                0x000001cb       0x33 ./../build/optee-emmc-stm32mp157d-ev1/bl2/tzc400.o
 .ARM.attributes
                0x000001fe       0x33 ./../build/optee-emmc-stm32mp157d-ev1/bl2/clk.o
 .ARM.attributes
                0x00000231       0x33 ./../build/optee-emmc-stm32mp157d-ev1/bl2/multi_console.o
 .ARM.attributes
                0x00000264       0x33 ./../build/optee-emmc-stm32mp157d-ev1/bl2/delay_timer.o
 .ARM.attributes
                0x00000297       0x33 ./../build/optee-emmc-stm32mp157d-ev1/bl2/generic_delay_timer.o
 .ARM.attributes
                0x000002ca       0x33 ./../build/optee-emmc-stm32mp157d-ev1/bl2/fwu.o
 .ARM.attributes
                0x000002fd       0x33 ./../build/optee-emmc-stm32mp157d-ev1/bl2/io_block.o
 .ARM.attributes
                0x00000330       0x33 ./../build/optee-emmc-stm32mp157d-ev1/bl2/io_fip.o
 .ARM.attributes
                0x00000363       0x33 ./../build/optee-emmc-stm32mp157d-ev1/bl2/io_storage.o
 .ARM.attributes
                0x00000396       0x33 ./../build/optee-emmc-stm32mp157d-ev1/bl2/mmc.o
 .ARM.attributes
                0x000003c9       0x33 ./../build/optee-emmc-stm32mp157d-ev1/bl2/gpt.o
 .ARM.attributes
                0x000003fc       0x33 ./../build/optee-emmc-stm32mp157d-ev1/bl2/partition.o
 .ARM.attributes
                0x0000042f       0x33 ./../build/optee-emmc-stm32mp157d-ev1/bl2/bsec2.o
 .ARM.attributes
                0x00000462       0x33 ./../build/optee-emmc-stm32mp157d-ev1/bl2/stm32mp1_clk.o
 .ARM.attributes
                0x00000495       0x33 ./../build/optee-emmc-stm32mp157d-ev1/bl2/stm32mp_clkfunc.o
 .ARM.attributes
                0x000004c8       0x33 ./../build/optee-emmc-stm32mp157d-ev1/bl2/stm32mp1_ddr.o
 .ARM.attributes
                0x000004fb       0x33 ./../build/optee-emmc-stm32mp157d-ev1/bl2/stm32mp1_ddr_helpers.o
 .ARM.attributes
                0x0000052e       0x33 ./../build/optee-emmc-stm32mp157d-ev1/bl2/stm32mp1_ram.o
 .ARM.attributes
                0x00000561       0x33 ./../build/optee-emmc-stm32mp157d-ev1/bl2/stm32mp_ddr.o
 .ARM.attributes
                0x00000594       0x33 ./../build/optee-emmc-stm32mp157d-ev1/bl2/stm32mp_ddr_test.o
 .ARM.attributes
                0x000005c7       0x33 ./../build/optee-emmc-stm32mp157d-ev1/bl2/stm32mp_ram.o
 .ARM.attributes
                0x000005fa       0x33 ./../build/optee-emmc-stm32mp157d-ev1/bl2/stm32_gpio.o
 .ARM.attributes
                0x0000062d       0x33 ./../build/optee-emmc-stm32mp157d-ev1/bl2/stm32_i2c.o
 .ARM.attributes
                0x00000660       0x33 ./../build/optee-emmc-stm32mp157d-ev1/bl2/stm32_iwdg.o
 .ARM.attributes
                0x00000693       0x33 ./../build/optee-emmc-stm32mp157d-ev1/bl2/stm32_sdmmc2.o
 .ARM.attributes
                0x000006c6       0x33 ./../build/optee-emmc-stm32mp157d-ev1/bl2/nvmem.o
 .ARM.attributes
                0x000006f9       0x33 ./../build/optee-emmc-stm32mp157d-ev1/bl2/stm32mp_tamp_nvram_core.o
 .ARM.attributes
                0x0000072c       0x33 ./../build/optee-emmc-stm32mp157d-ev1/bl2/stm32mp_tamp_nvram_mp1.o
 .ARM.attributes
                0x0000075f       0x33 ./../build/optee-emmc-stm32mp157d-ev1/bl2/stm32mp_pmic.o
 .ARM.attributes
                0x00000792       0x33 ./../build/optee-emmc-stm32mp157d-ev1/bl2/stpmic1.o
 .ARM.attributes
                0x000007c5       0x33 ./../build/optee-emmc-stm32mp157d-ev1/bl2/regulator_core.o
 .ARM.attributes
                0x000007f8       0x33 ./../build/optee-emmc-stm32mp157d-ev1/bl2/regulator_fixed.o
 .ARM.attributes
                0x0000082b       0x33 ./../build/optee-emmc-stm32mp157d-ev1/bl2/stm32mp1_reset.o
 .ARM.attributes
                0x0000085e       0x33 ./../build/optee-emmc-stm32mp157d-ev1/bl2/ctzdi2.o
 .ARM.attributes
                0x00000891       0x33 ./../build/optee-emmc-stm32mp157d-ev1/bl2/udivmoddi4.o
 .ARM.attributes
                0x000008c4       0x33 ./../build/optee-emmc-stm32mp157d-ev1/bl2/fconf.o
 .ARM.attributes
                0x000008f7       0x33 ./../build/optee-emmc-stm32mp157d-ev1/bl2/fconf_dyn_cfg_getter.o
 .ARM.attributes
                0x0000092a       0x33 ./../build/optee-emmc-stm32mp157d-ev1/bl2/optee_utils.o
 .ARM.attributes
                0x0000095d       0x33 ./../build/optee-emmc-stm32mp157d-ev1/bl2/xlat_tables_arch.o
 .ARM.attributes
                0x00000990       0x33 ./../build/optee-emmc-stm32mp157d-ev1/bl2/xlat_tables_context.o
 .ARM.attributes
                0x000009c3       0x33 ./../build/optee-emmc-stm32mp157d-ev1/bl2/xlat_tables_core.o
 .ARM.attributes
                0x000009f6       0x33 ./../build/optee-emmc-stm32mp157d-ev1/bl2/xlat_tables_utils.o
 .ARM.attributes
                0x00000a29       0x33 ./../build/optee-emmc-stm32mp157d-ev1/bl2/crc32.o
 .ARM.attributes
                0x00000a5c       0x33 ./../build/optee-emmc-stm32mp157d-ev1/bl2/tf_gunzip.o
 .ARM.attributes
                0x00000a8f       0x33 ./../build/optee-emmc-stm32mp157d-ev1/bl2/plat_bl_common.o
 .ARM.attributes
                0x00000ac2       0x33 ./../build/optee-emmc-stm32mp157d-ev1/bl2/plat_log_common.o
 .ARM.attributes
                0x00000af5       0x33 ./../build/optee-emmc-stm32mp157d-ev1/bl2/bl2_io_storage.o
 .ARM.attributes
                0x00000b28       0x33 ./../build/optee-emmc-stm32mp157d-ev1/bl2/plat_image_load.o
 .ARM.attributes
                0x00000b5b       0x33 ./../build/optee-emmc-stm32mp157d-ev1/bl2/stm32mp_common.o
 .ARM.attributes
                0x00000b8e       0x33 ./../build/optee-emmc-stm32mp157d-ev1/bl2/stm32mp_dt.o
 .ARM.attributes
                0x00000bc1       0x33 ./../build/optee-emmc-stm32mp157d-ev1/bl2/stm32mp_fconf_fuse.o
 .ARM.attributes
                0x00000bf4       0x33 ./../build/optee-emmc-stm32mp157d-ev1/bl2/stm32mp_fconf_io.o
 .ARM.attributes
                0x00000c27       0x33 ./../build/optee-emmc-stm32mp157d-ev1/bl2/bl2_plat_setup.o
 .ARM.attributes
                0x00000c5a       0x33 ./../build/optee-emmc-stm32mp157d-ev1/bl2/plat_bl2_mem_params_desc.o
 .ARM.attributes
                0x00000c8d       0x33 ./../build/optee-emmc-stm32mp157d-ev1/bl2/plat_ddr.o
 .ARM.attributes
                0x00000cc0       0x33 ./../build/optee-emmc-stm32mp157d-ev1/bl2/stm32mp1_context.o
 .ARM.attributes
                0x00000cf3       0x33 ./../build/optee-emmc-stm32mp157d-ev1/bl2/stm32mp1_critic_power.o
 .ARM.attributes
                0x00000d26       0x33 ./../build/optee-emmc-stm32mp157d-ev1/bl2/stm32mp1_dbgmcu.o
 .ARM.attributes
                0x00000d59       0x33 ./../build/optee-emmc-stm32mp157d-ev1/bl2/stm32mp1_fconf_firewall.o
 .ARM.attributes
                0x00000d8c       0x33 ./../build/optee-emmc-stm32mp157d-ev1/bl2/stm32mp1_private.o
 .ARM.attributes
                0x00000dbf       0x33 ./../build/optee-emmc-stm32mp157d-ev1/bl2/stm32mp1_syscfg.o
 .ARM.attributes
                0x00000df2       0x27 ./../build/optee-emmc-stm32mp157d-ev1/bl2/bl2_el3_entrypoint.o
 .ARM.attributes
                0x00000e19       0x27 ./../build/optee-emmc-stm32mp157d-ev1/bl2/bl2_el3_exceptions.o
 .ARM.attributes
                0x00000e40       0x27 ./../build/optee-emmc-stm32mp157d-ev1/bl2/bl2_run_next_image.o
 .ARM.attributes
                0x00000e67       0x27 ./../build/optee-emmc-stm32mp157d-ev1/bl2/debug.o
 .ARM.attributes
                0x00000e8e       0x27 ./../build/optee-emmc-stm32mp157d-ev1/bl2/stm32_console.o
 .ARM.attributes
                0x00000eb5       0x27 ./../build/optee-emmc-stm32mp157d-ev1/bl2/cache_helpers.o
 .ARM.attributes
                0x00000edc       0x27 ./../build/optee-emmc-stm32mp157d-ev1/bl2/misc_helpers.o
 .ARM.attributes
                0x00000f03       0x27 ./../build/optee-emmc-stm32mp157d-ev1/bl2/aeabi_uldivmod.o
 .ARM.attributes
                0x00000f2a       0x27 ./../build/optee-emmc-stm32mp157d-ev1/bl2/cortex_a7.o
 .ARM.attributes
                0x00000f51       0x27 ./../build/optee-emmc-stm32mp157d-ev1/bl2/cpu_helpers.o
 .ARM.attributes
                0x00000f78       0x27 ./../build/optee-emmc-stm32mp157d-ev1/bl2/spinlock.o
 .ARM.attributes
                0x00000f9f       0x27 ./../build/optee-emmc-stm32mp157d-ev1/bl2/enable_mmu.o
 .ARM.attributes
                0x00000fc6       0x27 ./../build/optee-emmc-stm32mp157d-ev1/bl2/platform_up_stack.o
 .ARM.attributes
                0x00000fed       0x27 ./../build/optee-emmc-stm32mp157d-ev1/bl2/stm32mp1_critic_power_wrapper.o
 .ARM.attributes
                0x00001014       0x27 ./../build/optee-emmc-stm32mp157d-ev1/bl2/stm32mp1_helper.o
 .ARM.attributes
                0x0000103b       0x33 ./../build/optee-emmc-stm32mp157d-ev1/lib/libfdt.a(fdt.o)
 .ARM.attributes
                0x0000106e       0x33 ./../build/optee-emmc-stm32mp157d-ev1/lib/libfdt.a(fdt_addresses.o)
 .ARM.attributes
                0x000010a1       0x33 ./../build/optee-emmc-stm32mp157d-ev1/lib/libfdt.a(fdt_ro.o)
 .ARM.attributes
                0x000010d4       0x33 ./../build/optee-emmc-stm32mp157d-ev1/lib/libc.a(assert.o)
 .ARM.attributes
                0x00001107       0x33 ./../build/optee-emmc-stm32mp157d-ev1/lib/libc.a(memchr.o)
 .ARM.attributes
                0x0000113a       0x33 ./../build/optee-emmc-stm32mp157d-ev1/lib/libc.a(memcmp.o)
 .ARM.attributes
                0x0000116d       0x33 ./../build/optee-emmc-stm32mp157d-ev1/lib/libc.a(memcpy.o)
 .ARM.attributes
                0x000011a0       0x33 ./../build/optee-emmc-stm32mp157d-ev1/lib/libc.a(memmove.o)
 .ARM.attributes
                0x000011d3       0x33 ./../build/optee-emmc-stm32mp157d-ev1/lib/libc.a(memset.o)
 .ARM.attributes
                0x00001206       0x33 ./../build/optee-emmc-stm32mp157d-ev1/lib/libc.a(printf.o)
 .ARM.attributes
                0x00001239       0x33 ./../build/optee-emmc-stm32mp157d-ev1/lib/libc.a(snprintf.o)
 .ARM.attributes
                0x0000126c       0x33 ./../build/optee-emmc-stm32mp157d-ev1/lib/libc.a(strchr.o)
 .ARM.attributes
                0x0000129f       0x33 ./../build/optee-emmc-stm32mp157d-ev1/lib/libc.a(strcmp.o)
 .ARM.attributes
                0x000012d2       0x33 ./../build/optee-emmc-stm32mp157d-ev1/lib/libc.a(strlcpy.o)
 .ARM.attributes
                0x00001305       0x33 ./../build/optee-emmc-stm32mp157d-ev1/lib/libc.a(strlen.o)
 .ARM.attributes
                0x00001338       0x33 ./../build/optee-emmc-stm32mp157d-ev1/lib/libc.a(strncmp.o)
 .ARM.attributes
                0x0000136b       0x33 ./../build/optee-emmc-stm32mp157d-ev1/lib/libc.a(strnlen.o)
 .ARM.attributes
                0x0000139e       0x33 ./../build/optee-emmc-stm32mp157d-ev1/lib/libc.a(strrchr.o)

.debug_ranges   0x00000000     0x53c0
 .debug_ranges  0x00000000       0x10 ./../build/optee-emmc-stm32mp157d-ev1/bl2/bl2_arch_setup.o
 .debug_ranges  0x00000010       0x10 ./../build/optee-emmc-stm32mp157d-ev1/bl2/bl2_image_load_v2.o
 .debug_ranges  0x00000020       0x18 ./../build/optee-emmc-stm32mp157d-ev1/bl2/bl2_main.o
 .debug_ranges  0x00000038       0x50 ./../build/optee-emmc-stm32mp157d-ev1/bl2/bl_common.o
 .debug_ranges  0x00000088       0x60 ./../build/optee-emmc-stm32mp157d-ev1/bl2/desc_image_load.o
 .debug_ranges  0x000000e8      0x140 ./../build/optee-emmc-stm32mp157d-ev1/bl2/fdt_wrappers.o
 .debug_ranges  0x00000228       0x20 ./../build/optee-emmc-stm32mp157d-ev1/bl2/tf_log.o
 .debug_ranges  0x00000248      0x118 ./../build/optee-emmc-stm32mp157d-ev1/bl2/uuid.o
 .debug_ranges  0x00000360      0x248 ./../build/optee-emmc-stm32mp157d-ev1/bl2/tzc400.o
 .debug_ranges  0x000005a8       0x38 ./../build/optee-emmc-stm32mp157d-ev1/bl2/clk.o
 .debug_ranges  0x000005e0       0x78 ./../build/optee-emmc-stm32mp157d-ev1/bl2/multi_console.o
 .debug_ranges  0x00000658       0x40 ./../build/optee-emmc-stm32mp157d-ev1/bl2/delay_timer.o
 .debug_ranges  0x00000698       0x38 ./../build/optee-emmc-stm32mp157d-ev1/bl2/generic_delay_timer.o
 .debug_ranges  0x000006d0       0x50 ./../build/optee-emmc-stm32mp157d-ev1/bl2/fwu.o
 .debug_ranges  0x00000720       0xf8 ./../build/optee-emmc-stm32mp157d-ev1/bl2/io_block.o
 .debug_ranges  0x00000818      0x140 ./../build/optee-emmc-stm32mp157d-ev1/bl2/io_fip.o
 .debug_ranges  0x00000958      0x110 ./../build/optee-emmc-stm32mp157d-ev1/bl2/io_storage.o
 .debug_ranges  0x00000a68      0x198 ./../build/optee-emmc-stm32mp157d-ev1/bl2/mmc.o
 .debug_ranges  0x00000c00       0x60 ./../build/optee-emmc-stm32mp157d-ev1/bl2/gpt.o
 .debug_ranges  0x00000c60       0xf0 ./../build/optee-emmc-stm32mp157d-ev1/bl2/partition.o
 .debug_ranges  0x00000d50      0x398 ./../build/optee-emmc-stm32mp157d-ev1/bl2/bsec2.o
 .debug_ranges  0x000010e8      0xb20 ./../build/optee-emmc-stm32mp157d-ev1/bl2/stm32mp1_clk.o
 .debug_ranges  0x00001c08      0x108 ./../build/optee-emmc-stm32mp157d-ev1/bl2/stm32mp_clkfunc.o
 .debug_ranges  0x00001d10      0x450 ./../build/optee-emmc-stm32mp157d-ev1/bl2/stm32mp1_ddr.o
 .debug_ranges  0x00002160      0x1d8 ./../build/optee-emmc-stm32mp157d-ev1/bl2/stm32mp1_ddr_helpers.o
 .debug_ranges  0x00002338       0x88 ./../build/optee-emmc-stm32mp157d-ev1/bl2/stm32mp1_ram.o
 .debug_ranges  0x000023c0      0x1e8 ./../build/optee-emmc-stm32mp157d-ev1/bl2/stm32mp_ddr.o
 .debug_ranges  0x000025a8      0x120 ./../build/optee-emmc-stm32mp157d-ev1/bl2/stm32mp_ddr_test.o
 .debug_ranges  0x000026c8       0x18 ./../build/optee-emmc-stm32mp157d-ev1/bl2/stm32mp_ram.o
 .debug_ranges  0x000026e0      0x260 ./../build/optee-emmc-stm32mp157d-ev1/bl2/stm32_gpio.o
 .debug_ranges  0x00002940      0x790 ./../build/optee-emmc-stm32mp157d-ev1/bl2/stm32_i2c.o
 .debug_ranges  0x000030d0      0x108 ./../build/optee-emmc-stm32mp157d-ev1/bl2/stm32_iwdg.o
 .debug_ranges  0x000031d8      0x2d0 ./../build/optee-emmc-stm32mp157d-ev1/bl2/stm32_sdmmc2.o
 .debug_ranges  0x000034a8       0x50 ./../build/optee-emmc-stm32mp157d-ev1/bl2/nvmem.o
 .debug_ranges  0x000034f8      0x1d8 ./../build/optee-emmc-stm32mp157d-ev1/bl2/stm32mp_tamp_nvram_core.o
 .debug_ranges  0x000036d0       0x18 ./../build/optee-emmc-stm32mp157d-ev1/bl2/stm32mp_tamp_nvram_mp1.o
 .debug_ranges  0x000036e8      0x128 ./../build/optee-emmc-stm32mp157d-ev1/bl2/stm32mp_pmic.o
 .debug_ranges  0x00003810       0xb0 ./../build/optee-emmc-stm32mp157d-ev1/bl2/stpmic1.o
 .debug_ranges  0x000038c0      0x110 ./../build/optee-emmc-stm32mp157d-ev1/bl2/regulator_core.o
 .debug_ranges  0x000039d0       0x50 ./../build/optee-emmc-stm32mp157d-ev1/bl2/regulator_fixed.o
 .debug_ranges  0x00003a20      0x120 ./../build/optee-emmc-stm32mp157d-ev1/bl2/stm32mp1_reset.o
 .debug_ranges  0x00003b40       0x10 ./../build/optee-emmc-stm32mp157d-ev1/bl2/ctzdi2.o
 .debug_ranges  0x00003b50       0x28 ./../build/optee-emmc-stm32mp157d-ev1/bl2/udivmoddi4.o
 .debug_ranges  0x00003b78       0x18 ./../build/optee-emmc-stm32mp157d-ev1/bl2/fconf.o
 .debug_ranges  0x00003b90       0x70 ./../build/optee-emmc-stm32mp157d-ev1/bl2/fconf_dyn_cfg_getter.o
 .debug_ranges  0x00003c00       0x20 ./../build/optee-emmc-stm32mp157d-ev1/bl2/optee_utils.o
 .debug_ranges  0x00003c20       0xe0 ./../build/optee-emmc-stm32mp157d-ev1/bl2/xlat_tables_arch.o
 .debug_ranges  0x00003d00       0x68 ./../build/optee-emmc-stm32mp157d-ev1/bl2/xlat_tables_context.o
 .debug_ranges  0x00003d68      0x2a0 ./../build/optee-emmc-stm32mp157d-ev1/bl2/xlat_tables_core.o
 .debug_ranges  0x00004008      0x100 ./../build/optee-emmc-stm32mp157d-ev1/bl2/xlat_tables_utils.o
 .debug_ranges  0x00004108       0x58 ./../build/optee-emmc-stm32mp157d-ev1/bl2/crc32.o
 .debug_ranges  0x00004160       0x28 ./../build/optee-emmc-stm32mp157d-ev1/bl2/tf_gunzip.o
 .debug_ranges  0x00004188       0x68 ./../build/optee-emmc-stm32mp157d-ev1/bl2/plat_bl_common.o
 .debug_ranges  0x000041f0       0x10 ./../build/optee-emmc-stm32mp157d-ev1/bl2/plat_log_common.o
 .debug_ranges  0x00004200      0x100 ./../build/optee-emmc-stm32mp157d-ev1/bl2/bl2_io_storage.o
 .debug_ranges  0x00004300       0x20 ./../build/optee-emmc-stm32mp157d-ev1/bl2/plat_image_load.o
 .debug_ranges  0x00004320      0x1a8 ./../build/optee-emmc-stm32mp157d-ev1/bl2/stm32mp_common.o
 .debug_ranges  0x000044c8      0x130 ./../build/optee-emmc-stm32mp157d-ev1/bl2/stm32mp_dt.o
 .debug_ranges  0x000045f8       0x98 ./../build/optee-emmc-stm32mp157d-ev1/bl2/stm32mp_fconf_fuse.o
 .debug_ranges  0x00004690       0x58 ./../build/optee-emmc-stm32mp157d-ev1/bl2/stm32mp_fconf_io.o
 .debug_ranges  0x000046e8      0x118 ./../build/optee-emmc-stm32mp157d-ev1/bl2/bl2_plat_setup.o
 .debug_ranges  0x00004800       0x60 ./../build/optee-emmc-stm32mp157d-ev1/bl2/plat_ddr.o
 .debug_ranges  0x00004860       0x58 ./../build/optee-emmc-stm32mp157d-ev1/bl2/stm32mp1_context.o
 .debug_ranges  0x000048b8       0x30 ./../build/optee-emmc-stm32mp157d-ev1/bl2/stm32mp1_critic_power.o
 .debug_ranges  0x000048e8       0x50 ./../build/optee-emmc-stm32mp157d-ev1/bl2/stm32mp1_dbgmcu.o
 .debug_ranges  0x00004938       0x48 ./../build/optee-emmc-stm32mp157d-ev1/bl2/stm32mp1_fconf_firewall.o
 .debug_ranges  0x00004980       0xe8 ./../build/optee-emmc-stm32mp157d-ev1/bl2/stm32mp1_private.o
 .debug_ranges  0x00004a68      0x138 ./../build/optee-emmc-stm32mp157d-ev1/bl2/stm32mp1_syscfg.o
 .debug_ranges  0x00004ba0       0x48 ./../build/optee-emmc-stm32mp157d-ev1/bl2/debug.o
 .debug_ranges  0x00004be8       0x48 ./../build/optee-emmc-stm32mp157d-ev1/bl2/stm32_console.o
 .debug_ranges  0x00004c30       0x58 ./../build/optee-emmc-stm32mp157d-ev1/bl2/cache_helpers.o
 .debug_ranges  0x00004c88       0x40 ./../build/optee-emmc-stm32mp157d-ev1/bl2/misc_helpers.o
 .debug_ranges  0x00004cc8       0x38 ./../build/optee-emmc-stm32mp157d-ev1/bl2/cortex_a7.o
 .debug_ranges  0x00004d00       0x38 ./../build/optee-emmc-stm32mp157d-ev1/bl2/cpu_helpers.o
 .debug_ranges  0x00004d38       0x20 ./../build/optee-emmc-stm32mp157d-ev1/bl2/spinlock.o
 .debug_ranges  0x00004d58       0x20 ./../build/optee-emmc-stm32mp157d-ev1/bl2/enable_mmu.o
 .debug_ranges  0x00004d78       0x20 ./../build/optee-emmc-stm32mp157d-ev1/bl2/platform_up_stack.o
 .debug_ranges  0x00004d98       0x80 ./../build/optee-emmc-stm32mp157d-ev1/bl2/stm32mp1_helper.o
 .debug_ranges  0x00004e18      0x108 ./../build/optee-emmc-stm32mp157d-ev1/lib/libfdt.a(fdt.o)
 .debug_ranges  0x00004f20       0x28 ./../build/optee-emmc-stm32mp157d-ev1/lib/libfdt.a(fdt_addresses.o)
 .debug_ranges  0x00004f48      0x290 ./../build/optee-emmc-stm32mp157d-ev1/lib/libfdt.a(fdt_ro.o)
 .debug_ranges  0x000051d8       0x10 ./../build/optee-emmc-stm32mp157d-ev1/lib/libc.a(assert.o)
 .debug_ranges  0x000051e8       0x10 ./../build/optee-emmc-stm32mp157d-ev1/lib/libc.a(memchr.o)
 .debug_ranges  0x000051f8       0x10 ./../build/optee-emmc-stm32mp157d-ev1/lib/libc.a(memcmp.o)
 .debug_ranges  0x00005208       0x10 ./../build/optee-emmc-stm32mp157d-ev1/lib/libc.a(memcpy.o)
 .debug_ranges  0x00005218       0x28 ./../build/optee-emmc-stm32mp157d-ev1/lib/libc.a(memmove.o)
 .debug_ranges  0x00005240       0x10 ./../build/optee-emmc-stm32mp157d-ev1/lib/libc.a(memset.o)
 .debug_ranges  0x00005250       0xc0 ./../build/optee-emmc-stm32mp157d-ev1/lib/libc.a(printf.o)
 .debug_ranges  0x00005310       0x40 ./../build/optee-emmc-stm32mp157d-ev1/lib/libc.a(snprintf.o)
 .debug_ranges  0x00005350       0x10 ./../build/optee-emmc-stm32mp157d-ev1/lib/libc.a(strchr.o)
 .debug_ranges  0x00005360       0x10 ./../build/optee-emmc-stm32mp157d-ev1/lib/libc.a(strcmp.o)
 .debug_ranges  0x00005370       0x10 ./../build/optee-emmc-stm32mp157d-ev1/lib/libc.a(strlcpy.o)
 .debug_ranges  0x00005380       0x10 ./../build/optee-emmc-stm32mp157d-ev1/lib/libc.a(strlen.o)
 .debug_ranges  0x00005390       0x10 ./../build/optee-emmc-stm32mp157d-ev1/lib/libc.a(strncmp.o)
 .debug_ranges  0x000053a0       0x10 ./../build/optee-emmc-stm32mp157d-ev1/lib/libc.a(strnlen.o)
 .debug_ranges  0x000053b0       0x10 ./../build/optee-emmc-stm32mp157d-ev1/lib/libc.a(strrchr.o)

.debug_frame    0x00000000     0x4eb4
 .debug_frame   0x00000000       0x20 ./../build/optee-emmc-stm32mp157d-ev1/bl2/bl2_arch_setup.o
 .debug_frame   0x00000020       0x34 ./../build/optee-emmc-stm32mp157d-ev1/bl2/bl2_image_load_v2.o
 .debug_frame   0x00000054       0x48 ./../build/optee-emmc-stm32mp157d-ev1/bl2/bl2_main.o
 .debug_frame   0x0000009c       0x78 ./../build/optee-emmc-stm32mp157d-ev1/bl2/bl_common.o
 .debug_frame   0x00000114       0xe0 ./../build/optee-emmc-stm32mp157d-ev1/bl2/desc_image_load.o
 .debug_frame   0x000001f4      0x294 ./../build/optee-emmc-stm32mp157d-ev1/bl2/fdt_wrappers.o
 .debug_frame   0x00000488       0x80 ./../build/optee-emmc-stm32mp157d-ev1/bl2/tf_log.o
 .debug_frame   0x00000508       0x98 ./../build/optee-emmc-stm32mp157d-ev1/bl2/uuid.o
 .debug_frame   0x000005a0       0xec ./../build/optee-emmc-stm32mp157d-ev1/bl2/tzc400.o
 .debug_frame   0x0000068c       0xb4 ./../build/optee-emmc-stm32mp157d-ev1/bl2/clk.o
 .debug_frame   0x00000740       0xd4 ./../build/optee-emmc-stm32mp157d-ev1/bl2/multi_console.o
 .debug_frame   0x00000814       0x58 ./../build/optee-emmc-stm32mp157d-ev1/bl2/delay_timer.o
 .debug_frame   0x0000086c       0x4c ./../build/optee-emmc-stm32mp157d-ev1/bl2/generic_delay_timer.o
 .debug_frame   0x000008b8       0x98 ./../build/optee-emmc-stm32mp157d-ev1/bl2/fwu.o
 .debug_frame   0x00000950      0x114 ./../build/optee-emmc-stm32mp157d-ev1/bl2/io_block.o
 .debug_frame   0x00000a64      0x12c ./../build/optee-emmc-stm32mp157d-ev1/bl2/io_fip.o
 .debug_frame   0x00000b90      0x1c4 ./../build/optee-emmc-stm32mp157d-ev1/bl2/io_storage.o
 .debug_frame   0x00000d54      0x184 ./../build/optee-emmc-stm32mp157d-ev1/bl2/mmc.o
 .debug_frame   0x00000ed8       0x2c ./../build/optee-emmc-stm32mp157d-ev1/bl2/gpt.o
 .debug_frame   0x00000f04      0x130 ./../build/optee-emmc-stm32mp157d-ev1/bl2/partition.o
 .debug_frame   0x00001034      0x250 ./../build/optee-emmc-stm32mp157d-ev1/bl2/bsec2.o
 .debug_frame   0x00001284      0x2f0 ./../build/optee-emmc-stm32mp157d-ev1/bl2/stm32mp1_clk.o
 .debug_frame   0x00001574      0x170 ./../build/optee-emmc-stm32mp157d-ev1/bl2/stm32mp_clkfunc.o
 .debug_frame   0x000016e4       0x98 ./../build/optee-emmc-stm32mp157d-ev1/bl2/stm32mp1_ddr.o
 .debug_frame   0x0000177c       0xc0 ./../build/optee-emmc-stm32mp157d-ev1/bl2/stm32mp1_ddr_helpers.o
 .debug_frame   0x0000183c       0x7c ./../build/optee-emmc-stm32mp157d-ev1/bl2/stm32mp1_ram.o
 .debug_frame   0x000018b8      0x130 ./../build/optee-emmc-stm32mp157d-ev1/bl2/stm32mp_ddr.o
 .debug_frame   0x000019e8       0x68 ./../build/optee-emmc-stm32mp157d-ev1/bl2/stm32mp_ddr_test.o
 .debug_frame   0x00001a50       0x58 ./../build/optee-emmc-stm32mp157d-ev1/bl2/stm32mp_ram.o
 .debug_frame   0x00001aa8      0x140 ./../build/optee-emmc-stm32mp157d-ev1/bl2/stm32_gpio.o
 .debug_frame   0x00001be8      0x1f8 ./../build/optee-emmc-stm32mp157d-ev1/bl2/stm32_i2c.o
 .debug_frame   0x00001de0       0x80 ./../build/optee-emmc-stm32mp157d-ev1/bl2/stm32_iwdg.o
 .debug_frame   0x00001e60      0x160 ./../build/optee-emmc-stm32mp157d-ev1/bl2/stm32_sdmmc2.o
 .debug_frame   0x00001fc0       0xa4 ./../build/optee-emmc-stm32mp157d-ev1/bl2/nvmem.o
 .debug_frame   0x00002064      0x180 ./../build/optee-emmc-stm32mp157d-ev1/bl2/stm32mp_tamp_nvram_core.o
 .debug_frame   0x000021e4       0x30 ./../build/optee-emmc-stm32mp157d-ev1/bl2/stm32mp_tamp_nvram_mp1.o
 .debug_frame   0x00002214      0x160 ./../build/optee-emmc-stm32mp157d-ev1/bl2/stm32mp_pmic.o
 .debug_frame   0x00002374      0x264 ./../build/optee-emmc-stm32mp157d-ev1/bl2/stpmic1.o
 .debug_frame   0x000025d8      0x194 ./../build/optee-emmc-stm32mp157d-ev1/bl2/regulator_core.o
 .debug_frame   0x0000276c       0x5c ./../build/optee-emmc-stm32mp157d-ev1/bl2/regulator_fixed.o
 .debug_frame   0x000027c8       0x70 ./../build/optee-emmc-stm32mp157d-ev1/bl2/stm32mp1_reset.o
 .debug_frame   0x00002838       0x20 ./../build/optee-emmc-stm32mp157d-ev1/bl2/ctzdi2.o
 .debug_frame   0x00002858       0x30 ./../build/optee-emmc-stm32mp157d-ev1/bl2/udivmoddi4.o
 .debug_frame   0x00002888       0x50 ./../build/optee-emmc-stm32mp157d-ev1/bl2/fconf.o
 .debug_frame   0x000028d8       0x88 ./../build/optee-emmc-stm32mp157d-ev1/bl2/fconf_dyn_cfg_getter.o
 .debug_frame   0x00002960       0x68 ./../build/optee-emmc-stm32mp157d-ev1/bl2/optee_utils.o
 .debug_frame   0x000029c8      0x100 ./../build/optee-emmc-stm32mp157d-ev1/bl2/xlat_tables_arch.o
 .debug_frame   0x00002ac8      0x138 ./../build/optee-emmc-stm32mp157d-ev1/bl2/xlat_tables_context.o
 .debug_frame   0x00002c00      0x258 ./../build/optee-emmc-stm32mp157d-ev1/bl2/xlat_tables_core.o
 .debug_frame   0x00002e58       0xc4 ./../build/optee-emmc-stm32mp157d-ev1/bl2/xlat_tables_utils.o
 .debug_frame   0x00002f1c       0xec ./../build/optee-emmc-stm32mp157d-ev1/bl2/crc32.o
 .debug_frame   0x00003008       0x74 ./../build/optee-emmc-stm32mp157d-ev1/bl2/tf_gunzip.o
 .debug_frame   0x0000307c       0xf0 ./../build/optee-emmc-stm32mp157d-ev1/bl2/plat_bl_common.o
 .debug_frame   0x0000316c       0x20 ./../build/optee-emmc-stm32mp157d-ev1/bl2/plat_log_common.o
 .debug_frame   0x0000318c      0x13c ./../build/optee-emmc-stm32mp157d-ev1/bl2/bl2_io_storage.o
 .debug_frame   0x000032c8       0x48 ./../build/optee-emmc-stm32mp157d-ev1/bl2/plat_image_load.o
 .debug_frame   0x00003310      0x3d0 ./../build/optee-emmc-stm32mp157d-ev1/bl2/stm32mp_common.o
 .debug_frame   0x000036e0      0x268 ./../build/optee-emmc-stm32mp157d-ev1/bl2/stm32mp_dt.o
 .debug_frame   0x00003948       0x40 ./../build/optee-emmc-stm32mp157d-ev1/bl2/stm32mp_fconf_fuse.o
 .debug_frame   0x00003988       0x40 ./../build/optee-emmc-stm32mp157d-ev1/bl2/stm32mp_fconf_io.o
 .debug_frame   0x000039c8       0xac ./../build/optee-emmc-stm32mp157d-ev1/bl2/bl2_plat_setup.o
 .debug_frame   0x00003a74       0x34 ./../build/optee-emmc-stm32mp157d-ev1/bl2/plat_ddr.o
 .debug_frame   0x00003aa8       0xbc ./../build/optee-emmc-stm32mp157d-ev1/bl2/stm32mp1_context.o
 .debug_frame   0x00003b64       0x50 ./../build/optee-emmc-stm32mp157d-ev1/bl2/stm32mp1_critic_power.o
 .debug_frame   0x00003bb4       0x58 ./../build/optee-emmc-stm32mp157d-ev1/bl2/stm32mp1_dbgmcu.o
 .debug_frame   0x00003c0c       0x8c ./../build/optee-emmc-stm32mp157d-ev1/bl2/stm32mp1_fconf_firewall.o
 .debug_frame   0x00003c98      0x228 ./../build/optee-emmc-stm32mp157d-ev1/bl2/stm32mp1_private.o
 .debug_frame   0x00003ec0       0xa8 ./../build/optee-emmc-stm32mp157d-ev1/bl2/stm32mp1_syscfg.o
 .debug_frame   0x00003f68       0x20 ./../build/optee-emmc-stm32mp157d-ev1/bl2/bl2_el3_entrypoint.o
 .debug_frame   0x00003f88       0x20 ./../build/optee-emmc-stm32mp157d-ev1/bl2/bl2_run_next_image.o
 .debug_frame   0x00003fa8       0x80 ./../build/optee-emmc-stm32mp157d-ev1/bl2/debug.o
 .debug_frame   0x00004028       0x80 ./../build/optee-emmc-stm32mp157d-ev1/bl2/stm32_console.o
 .debug_frame   0x000040a8       0xa0 ./../build/optee-emmc-stm32mp157d-ev1/bl2/cache_helpers.o
 .debug_frame   0x00004148       0x70 ./../build/optee-emmc-stm32mp157d-ev1/bl2/misc_helpers.o
 .debug_frame   0x000041b8       0x60 ./../build/optee-emmc-stm32mp157d-ev1/bl2/cortex_a7.o
 .debug_frame   0x00004218       0x60 ./../build/optee-emmc-stm32mp157d-ev1/bl2/cpu_helpers.o
 .debug_frame   0x00004278       0x30 ./../build/optee-emmc-stm32mp157d-ev1/bl2/spinlock.o
 .debug_frame   0x000042a8       0x30 ./../build/optee-emmc-stm32mp157d-ev1/bl2/enable_mmu.o
 .debug_frame   0x000042d8       0x30 ./../build/optee-emmc-stm32mp157d-ev1/bl2/platform_up_stack.o
 .debug_frame   0x00004308       0x20 ./../build/optee-emmc-stm32mp157d-ev1/bl2/stm32mp1_critic_power_wrapper.o
 .debug_frame   0x00004328       0xf0 ./../build/optee-emmc-stm32mp157d-ev1/bl2/stm32mp1_helper.o
 .debug_frame   0x00004418      0x198 ./../build/optee-emmc-stm32mp157d-ev1/lib/libfdt.a(fdt.o)
 .debug_frame   0x000045b0       0x8c ./../build/optee-emmc-stm32mp157d-ev1/lib/libfdt.a(fdt_addresses.o)
 .debug_frame   0x0000463c      0x548 ./../build/optee-emmc-stm32mp157d-ev1/lib/libfdt.a(fdt_ro.o)
 .debug_frame   0x00004b84       0x28 ./../build/optee-emmc-stm32mp157d-ev1/lib/libc.a(assert.o)
 .debug_frame   0x00004bac       0x28 ./../build/optee-emmc-stm32mp157d-ev1/lib/libc.a(memchr.o)
 .debug_frame   0x00004bd4       0x28 ./../build/optee-emmc-stm32mp157d-ev1/lib/libc.a(memcmp.o)
 .debug_frame   0x00004bfc       0x28 ./../build/optee-emmc-stm32mp157d-ev1/lib/libc.a(memcpy.o)
 .debug_frame   0x00004c24       0x3c ./../build/optee-emmc-stm32mp157d-ev1/lib/libc.a(memmove.o)
 .debug_frame   0x00004c60       0x2c ./../build/optee-emmc-stm32mp157d-ev1/lib/libc.a(memset.o)
 .debug_frame   0x00004c8c       0x9c ./../build/optee-emmc-stm32mp157d-ev1/lib/libc.a(printf.o)
 .debug_frame   0x00004d28       0x94 ./../build/optee-emmc-stm32mp157d-ev1/lib/libc.a(snprintf.o)
 .debug_frame   0x00004dbc       0x20 ./../build/optee-emmc-stm32mp157d-ev1/lib/libc.a(strchr.o)
 .debug_frame   0x00004ddc       0x20 ./../build/optee-emmc-stm32mp157d-ev1/lib/libc.a(strcmp.o)
 .debug_frame   0x00004dfc       0x28 ./../build/optee-emmc-stm32mp157d-ev1/lib/libc.a(strlcpy.o)
 .debug_frame   0x00004e24       0x20 ./../build/optee-emmc-stm32mp157d-ev1/lib/libc.a(strlen.o)
 .debug_frame   0x00004e44       0x28 ./../build/optee-emmc-stm32mp157d-ev1/lib/libc.a(strncmp.o)
 .debug_frame   0x00004e6c       0x20 ./../build/optee-emmc-stm32mp157d-ev1/lib/libc.a(strnlen.o)
 .debug_frame   0x00004e8c       0x28 ./../build/optee-emmc-stm32mp157d-ev1/lib/libc.a(strrchr.o)

.debug_loc      0x00000000    0x2e2c9
 .debug_loc     0x00000000      0x170 ./../build/optee-emmc-stm32mp157d-ev1/bl2/bl2_image_load_v2.o
 .debug_loc     0x00000170       0xdb ./../build/optee-emmc-stm32mp157d-ev1/bl2/bl2_main.o
 .debug_loc     0x0000024b      0x308 ./../build/optee-emmc-stm32mp157d-ev1/bl2/bl_common.o
 .debug_loc     0x00000553      0x97b ./../build/optee-emmc-stm32mp157d-ev1/bl2/desc_image_load.o
 .debug_loc     0x00000ece     0x1d21 ./../build/optee-emmc-stm32mp157d-ev1/bl2/fdt_wrappers.o
 .debug_loc     0x00002bef      0x16e ./../build/optee-emmc-stm32mp157d-ev1/bl2/tf_log.o
 .debug_loc     0x00002d5d      0x69c ./../build/optee-emmc-stm32mp157d-ev1/bl2/uuid.o
 .debug_loc     0x000033f9     0x1287 ./../build/optee-emmc-stm32mp157d-ev1/bl2/tzc400.o
 .debug_loc     0x00004680      0x1be ./../build/optee-emmc-stm32mp157d-ev1/bl2/clk.o
 .debug_loc     0x0000483e      0x30b ./../build/optee-emmc-stm32mp157d-ev1/bl2/multi_console.o
 .debug_loc     0x00004b49      0x156 ./../build/optee-emmc-stm32mp157d-ev1/bl2/delay_timer.o
 .debug_loc     0x00004c9f       0xc5 ./../build/optee-emmc-stm32mp157d-ev1/bl2/generic_delay_timer.o
 .debug_loc     0x00004d64      0x302 ./../build/optee-emmc-stm32mp157d-ev1/bl2/fwu.o
 .debug_loc     0x00005066      0xdcb ./../build/optee-emmc-stm32mp157d-ev1/bl2/io_block.o
 .debug_loc     0x00005e31      0xdc9 ./../build/optee-emmc-stm32mp157d-ev1/bl2/io_fip.o
 .debug_loc     0x00006bfa     0x114b ./../build/optee-emmc-stm32mp157d-ev1/bl2/io_storage.o
 .debug_loc     0x00007d45     0x11eb ./../build/optee-emmc-stm32mp157d-ev1/bl2/mmc.o
 .debug_loc     0x00008f30      0x1a7 ./../build/optee-emmc-stm32mp157d-ev1/bl2/gpt.o
 .debug_loc     0x000090d7      0x890 ./../build/optee-emmc-stm32mp157d-ev1/bl2/partition.o
 .debug_loc     0x00009967     0x119d ./../build/optee-emmc-stm32mp157d-ev1/bl2/bsec2.o
 .debug_loc     0x0000ab04     0x569e ./../build/optee-emmc-stm32mp157d-ev1/bl2/stm32mp1_clk.o
 .debug_loc     0x000101a2      0x789 ./../build/optee-emmc-stm32mp157d-ev1/bl2/stm32mp_clkfunc.o
 .debug_loc     0x0001092b     0x1e5c ./../build/optee-emmc-stm32mp157d-ev1/bl2/stm32mp1_ddr.o
 .debug_loc     0x00012787     0x2b65 ./../build/optee-emmc-stm32mp157d-ev1/bl2/stm32mp1_ddr_helpers.o
 .debug_loc     0x000152ec      0x31d ./../build/optee-emmc-stm32mp157d-ev1/bl2/stm32mp1_ram.o
 .debug_loc     0x00015609     0x1155 ./../build/optee-emmc-stm32mp157d-ev1/bl2/stm32mp_ddr.o
 .debug_loc     0x0001675e      0x6f2 ./../build/optee-emmc-stm32mp157d-ev1/bl2/stm32mp_ddr_test.o
 .debug_loc     0x00016e50      0x18f ./../build/optee-emmc-stm32mp157d-ev1/bl2/stm32mp_ram.o
 .debug_loc     0x00016fdf     0x1361 ./../build/optee-emmc-stm32mp157d-ev1/bl2/stm32_gpio.o
 .debug_loc     0x00018340     0x3131 ./../build/optee-emmc-stm32mp157d-ev1/bl2/stm32_i2c.o
 .debug_loc     0x0001b471      0x57a ./../build/optee-emmc-stm32mp157d-ev1/bl2/stm32_iwdg.o
 .debug_loc     0x0001b9eb     0x1880 ./../build/optee-emmc-stm32mp157d-ev1/bl2/stm32_sdmmc2.o
 .debug_loc     0x0001d26b      0x693 ./../build/optee-emmc-stm32mp157d-ev1/bl2/nvmem.o
 .debug_loc     0x0001d8fe     0x100b ./../build/optee-emmc-stm32mp157d-ev1/bl2/stm32mp_tamp_nvram_core.o
 .debug_loc     0x0001e909       0x2b ./../build/optee-emmc-stm32mp157d-ev1/bl2/stm32mp_tamp_nvram_mp1.o
 .debug_loc     0x0001e934      0x813 ./../build/optee-emmc-stm32mp157d-ev1/bl2/stm32mp_pmic.o
 .debug_loc     0x0001f147      0x787 ./../build/optee-emmc-stm32mp157d-ev1/bl2/stpmic1.o
 .debug_loc     0x0001f8ce      0xb32 ./../build/optee-emmc-stm32mp157d-ev1/bl2/regulator_core.o
 .debug_loc     0x00020400      0x1ac ./../build/optee-emmc-stm32mp157d-ev1/bl2/regulator_fixed.o
 .debug_loc     0x000205ac      0x46a ./../build/optee-emmc-stm32mp157d-ev1/bl2/stm32mp1_reset.o
 .debug_loc     0x00020a16       0x47 ./../build/optee-emmc-stm32mp157d-ev1/bl2/ctzdi2.o
 .debug_loc     0x00020a5d      0x31d ./../build/optee-emmc-stm32mp157d-ev1/bl2/udivmoddi4.o
 .debug_loc     0x00020d7a      0x123 ./../build/optee-emmc-stm32mp157d-ev1/bl2/fconf.o
 .debug_loc     0x00020e9d      0x421 ./../build/optee-emmc-stm32mp157d-ev1/bl2/fconf_dyn_cfg_getter.o
 .debug_loc     0x000212be      0x31d ./../build/optee-emmc-stm32mp157d-ev1/bl2/optee_utils.o
 .debug_loc     0x000215db      0x579 ./../build/optee-emmc-stm32mp157d-ev1/bl2/xlat_tables_arch.o
 .debug_loc     0x00021b54      0x5f2 ./../build/optee-emmc-stm32mp157d-ev1/bl2/xlat_tables_context.o
 .debug_loc     0x00022146     0x184f ./../build/optee-emmc-stm32mp157d-ev1/bl2/xlat_tables_core.o
 .debug_loc     0x00023995      0x969 ./../build/optee-emmc-stm32mp157d-ev1/bl2/xlat_tables_utils.o
 .debug_loc     0x000242fe      0x5b1 ./../build/optee-emmc-stm32mp157d-ev1/bl2/crc32.o
 .debug_loc     0x000248af      0x332 ./../build/optee-emmc-stm32mp157d-ev1/bl2/tf_gunzip.o
 .debug_loc     0x00024be1      0x1e9 ./../build/optee-emmc-stm32mp157d-ev1/bl2/plat_bl_common.o
 .debug_loc     0x00024dca       0xa2 ./../build/optee-emmc-stm32mp157d-ev1/bl2/plat_log_common.o
 .debug_loc     0x00024e6c      0x93f ./../build/optee-emmc-stm32mp157d-ev1/bl2/bl2_io_storage.o
 .debug_loc     0x000257ab       0x22 ./../build/optee-emmc-stm32mp157d-ev1/bl2/plat_image_load.o
 .debug_loc     0x000257cd      0xcee ./../build/optee-emmc-stm32mp157d-ev1/bl2/stm32mp_common.o
 .debug_loc     0x000264bb      0xb08 ./../build/optee-emmc-stm32mp157d-ev1/bl2/stm32mp_dt.o
 .debug_loc     0x00026fc3      0x259 ./../build/optee-emmc-stm32mp157d-ev1/bl2/stm32mp_fconf_fuse.o
 .debug_loc     0x0002721c      0x163 ./../build/optee-emmc-stm32mp157d-ev1/bl2/stm32mp_fconf_io.o
 .debug_loc     0x0002737f      0xb14 ./../build/optee-emmc-stm32mp157d-ev1/bl2/bl2_plat_setup.o
 .debug_loc     0x00027e93      0x318 ./../build/optee-emmc-stm32mp157d-ev1/bl2/plat_ddr.o
 .debug_loc     0x000281ab       0xe9 ./../build/optee-emmc-stm32mp157d-ev1/bl2/stm32mp1_context.o
 .debug_loc     0x00028294      0x119 ./../build/optee-emmc-stm32mp157d-ev1/bl2/stm32mp1_critic_power.o
 .debug_loc     0x000283ad      0x127 ./../build/optee-emmc-stm32mp157d-ev1/bl2/stm32mp1_dbgmcu.o
 .debug_loc     0x000284d4      0x2c1 ./../build/optee-emmc-stm32mp157d-ev1/bl2/stm32mp1_fconf_firewall.o
 .debug_loc     0x00028795      0x5b9 ./../build/optee-emmc-stm32mp157d-ev1/bl2/stm32mp1_private.o
 .debug_loc     0x00028d4e      0x5b9 ./../build/optee-emmc-stm32mp157d-ev1/bl2/stm32mp1_syscfg.o
 .debug_loc     0x00029307      0xa24 ./../build/optee-emmc-stm32mp157d-ev1/lib/libfdt.a(fdt.o)
 .debug_loc     0x00029d2b      0x543 ./../build/optee-emmc-stm32mp157d-ev1/lib/libfdt.a(fdt_addresses.o)
 .debug_loc     0x0002a26e     0x24e3 ./../build/optee-emmc-stm32mp157d-ev1/lib/libfdt.a(fdt_ro.o)
 .debug_loc     0x0002c751       0x70 ./../build/optee-emmc-stm32mp157d-ev1/lib/libc.a(assert.o)
 .debug_loc     0x0002c7c1      0x14c ./../build/optee-emmc-stm32mp157d-ev1/lib/libc.a(memchr.o)
 .debug_loc     0x0002c90d      0x132 ./../build/optee-emmc-stm32mp157d-ev1/lib/libc.a(memcmp.o)
 .debug_loc     0x0002ca3f       0xb4 ./../build/optee-emmc-stm32mp157d-ev1/lib/libc.a(memcpy.o)
 .debug_loc     0x0002caf3      0x188 ./../build/optee-emmc-stm32mp157d-ev1/lib/libc.a(memmove.o)
 .debug_loc     0x0002cc7b      0x185 ./../build/optee-emmc-stm32mp157d-ev1/lib/libc.a(memset.o)
 .debug_loc     0x0002ce00      0x918 ./../build/optee-emmc-stm32mp157d-ev1/lib/libc.a(printf.o)
 .debug_loc     0x0002d718      0x73f ./../build/optee-emmc-stm32mp157d-ev1/lib/libc.a(snprintf.o)
 .debug_loc     0x0002de57       0x71 ./../build/optee-emmc-stm32mp157d-ev1/lib/libc.a(strchr.o)
 .debug_loc     0x0002dec8       0x71 ./../build/optee-emmc-stm32mp157d-ev1/lib/libc.a(strcmp.o)
 .debug_loc     0x0002df39      0x13e ./../build/optee-emmc-stm32mp157d-ev1/lib/libc.a(strlcpy.o)
 .debug_loc     0x0002e077       0x4d ./../build/optee-emmc-stm32mp157d-ev1/lib/libc.a(strlen.o)
 .debug_loc     0x0002e0c4      0x12e ./../build/optee-emmc-stm32mp157d-ev1/lib/libc.a(strncmp.o)
 .debug_loc     0x0002e1f2       0x38 ./../build/optee-emmc-stm32mp157d-ev1/lib/libc.a(strnlen.o)
 .debug_loc     0x0002e22a       0x9f ./../build/optee-emmc-stm32mp157d-ev1/lib/libc.a(strrchr.o)
