
/home/dangcaominh/STM32MP1/optee-os/optee-os/../build/optee-stm32mp157d-dk1/ta/avb/023f8f1a-292a-432b-8fc4-de8471358067.elf:     file format elf32-littlearm
/home/dangcaominh/STM32MP1/optee-os/optee-os/../build/optee-stm32mp157d-dk1/ta/avb/023f8f1a-292a-432b-8fc4-de8471358067.elf
architecture: armv7, flags 0x00000150:
HAS_SYMS, DYNAMIC, D_PAGED
start address 0x000004c4

Program Header:
    LOAD off    0x00001000 vaddr 0x00000000 paddr 0x00000000 align 2**12
         filesz 0x0000b1f0 memsz 0x0000b1f0 flags r-x
    LOAD off    0x0000d000 vaddr 0x0000c000 paddr 0x0000c000 align 2**12
         filesz 0x000003b8 memsz 0x00007c18 flags rw-
 DYNAMIC off    0x0000d000 vaddr 0x0000c000 paddr 0x0000c000 align 2**2
         filesz 0x00000088 memsz 0x00000088 flags rw-
   STACK off    0x00000000 vaddr 0x00000000 paddr 0x00000000 align 2**4
         filesz 0x00000000 memsz 0x00000000 flags rw-

Dynamic Section:
  HASH                 0x0000b1c0
  GNU_HASH             0x0000b0c4
  STRTAB               0x0000b188
  SYMTAB               0x0000b118
  STRSZ                0x00000036
  SYMENT               0x00000010
  DEBUG                0x00000000
  REL                  0x0000c0e8
  RELSZ                0x000001b0
  RELENT               0x00000008
  FLAGS_1              0x08000000
  RELCOUNT             0x00000021
private flags = 0x5000400: [Version5 EABI] [hard-float ABI]

Sections:
Idx Name          Size      VMA       LMA       File off  Algn
  0 .text         0000a060  00000000  00000000  00001000  2**3
                  CONTENTS, ALLOC, LOAD, READONLY, CODE
  1 .rodata       00001064  0000a060  0000a060  0000b060  2**2
                  CONTENTS, ALLOC, LOAD, READONLY, DATA
  2 .gnu.hash     00000030  0000b0c4  0000b0c4  0000c0c4  2**2
                  CONTENTS, ALLOC, LOAD, READONLY, DATA
  3 .ta_head      00000020  0000b0f8  0000b0f8  0000c0f8  2**3
                  CONTENTS, ALLOC, LOAD, READONLY, DATA
  4 .dynsym       00000070  0000b118  0000b118  0000c118  2**2
                  CONTENTS, ALLOC, LOAD, READONLY, DATA
  5 .dynstr       00000036  0000b188  0000b188  0000c188  2**0
                  CONTENTS, ALLOC, LOAD, READONLY, DATA
  6 .hash         00000030  0000b1c0  0000b1c0  0000c1c0  2**2
                  CONTENTS, ALLOC, LOAD, READONLY, DATA
  7 .dynamic      00000088  0000c000  0000c000  0000d000  2**2
                  CONTENTS, ALLOC, LOAD, DATA
  8 .got          00000060  0000c088  0000c088  0000d088  2**2
                  CONTENTS, ALLOC, LOAD, DATA
  9 .rel.got      000000a8  0000c1f0  0000c1f0  0000d1f0  2**2
                  CONTENTS, ALLOC, LOAD, READONLY, DATA
 10 .data         00000120  0000c298  0000c298  0000d298  2**2
                  CONTENTS, ALLOC, LOAD, DATA
 11 .bss          00007860  0000c3b8  0000c3b8  0000d3b8  2**2
                  ALLOC
 12 .debug_info   0001d326  00000000  00000000  0000d3b8  2**0
                  CONTENTS, READONLY, DEBUGGING, OCTETS
 13 .debug_abbrev 00004e72  00000000  00000000  0002a6de  2**0
                  CONTENTS, READONLY, DEBUGGING, OCTETS
 14 .debug_loclists 0001140b  00000000  00000000  0002f550  2**0
                  CONTENTS, READONLY, DEBUGGING, OCTETS
 15 .debug_aranges 00000648  00000000  00000000  00040960  2**3
                  CONTENTS, READONLY, DEBUGGING, OCTETS
 16 .debug_rnglists 00000aee  00000000  00000000  00040fa8  2**0
                  CONTENTS, READONLY, DEBUGGING, OCTETS
 17 .debug_macro  00031201  00000000  00000000  00041a96  2**0
                  CONTENTS, READONLY, DEBUGGING, OCTETS
 18 .debug_line   00012129  00000000  00000000  00072c97  2**0
                  CONTENTS, READONLY, DEBUGGING, OCTETS
 19 .debug_str    0001dce0  00000000  00000000  00084dc0  2**0
                  CONTENTS, READONLY, DEBUGGING, OCTETS
 20 .comment      00000012  00000000  00000000  000a2aa0  2**0
                  CONTENTS, READONLY
 21 .ARM.attributes 00000033  00000000  00000000  000a2ab2  2**0
                  CONTENTS, READONLY
 22 .debug_frame  00002d20  00000000  00000000  000a2ae8  2**2
                  CONTENTS, READONLY, DEBUGGING, OCTETS
 23 .rel.dyn      00000108  0000c0e8  0000c0e8  0000d0e8  2**2
                  CONTENTS, ALLOC, LOAD, READONLY, DATA
 24 .debug_line_str 00000122  00000000  00000000  000a5808  2**0
                  CONTENTS, READONLY, DEBUGGING, OCTETS
SYMBOL TABLE:
00000000 l    d  .text	00000000 .text
0000a060 l    d  .rodata	00000000 .rodata
0000b0c4 l    d  .gnu.hash	00000000 .gnu.hash
0000b0f8 l    d  .ta_head	00000000 .ta_head
0000b118 l    d  .dynsym	00000000 .dynsym
0000b188 l    d  .dynstr	00000000 .dynstr
0000b1c0 l    d  .hash	00000000 .hash
0000c000 l    d  .dynamic	00000000 .dynamic
0000c088 l    d  .got	00000000 .got
0000c1f0 l    d  .rel.got	00000000 .rel.got
0000c298 l    d  .data	00000000 .data
0000c3b8 l    d  .bss	00000000 .bss
00000000 l    d  .debug_info	00000000 .debug_info
00000000 l    d  .debug_abbrev	00000000 .debug_abbrev
00000000 l    d  .debug_loclists	00000000 .debug_loclists
00000000 l    d  .debug_aranges	00000000 .debug_aranges
00000000 l    d  .debug_rnglists	00000000 .debug_rnglists
00000000 l    d  .debug_macro	00000000 .debug_macro
00000000 l    d  .debug_line	00000000 .debug_line
00000000 l    d  .debug_str	00000000 .debug_str
00000000 l    d  .comment	00000000 .comment
00000000 l    d  .ARM.attributes	00000000 .ARM.attributes
00000000 l    d  .debug_frame	00000000 .debug_frame
0000c0e8 l    d  .rel.dyn	00000000 .rel.dyn
00000000 l    d  .debug_line_str	00000000 .debug_line_str
00000000 l    df *ABS*	00000000 entry.c
00000000 l     F .text	0000007c open_rb_state
0000007c l     F .text	00000044 get_named_object_name.constprop.0
0000ae09 l     O .rodata	00000009 rb_obj_name
0000ae12 l     O .rodata	00000013 __func__.1
0000ae25 l     O .rodata	00000014 __func__.0
0000ae39 l     O .rodata	0000001b __func__.2
00000000 l    df *ABS*	00000000 user_ta_header.c
0000a064 l     O .rodata	00000001 __compound_literal.6
0000a068 l     O .rodata	00000004 __compound_literal.5
0000a06c l     O .rodata	00000004 __compound_literal.4
0000a070 l     O .rodata	00000004 __compound_literal.3
0000a074 l     O .rodata	00000001 __compound_literal.2
0000a075 l     O .rodata	00000001 __compound_literal.1
0000a076 l     O .rodata	00000001 __compound_literal.0
0000fc10 l     O .bss	00000001 stack_canary_inited.0
00000000 l    df *ABS*	00000000 ta_entry_a32.o
00000000 l    df *ABS*	00000000 stack_check.c
00000000 l    df *ABS*	00000000 trace.c
0000ae54 l     O .rodata	00000005 lvl_strs.0
00000000 l    df *ABS*	00000000 snprintk.c
000007a0 l     F .text	0000079c kprintf.constprop.0
0000ae59 l     O .rodata	00000011 hexdigits
0000ae6a l     O .rodata	00000011 HEXDIGITS
00000000 l    df *ABS*	00000000 arm32_aeabi_ldivmod_a32.o
00000000 l    df *ABS*	00000000 arm32_aeabi_ldivmod.c
00000f84 l     F .text	0000008a ul_div_qr
00000000 l    df *ABS*	00000000 trace_ext.c
00000000 l    df *ABS*	00000000 tee_api.c
0000122c l     F .text	00000052 copy_param
0000127e l     F .text	00000052 copy_gp11_param
000012d0 l     F .text	00000070 check_mem_access_rights_params
00001340 l     F .text	00000028 buf_overlaps_no_share_heap
00001368 l     F .text	0000005c check_invoke_param
000013c4 l     F .text	00000064 update_out_param
00001428 l     F .text	00000064 update_out_gp11_param
000015d8 l     F .text	00000110 map_tmp_param
0000a084 l     O .rodata	0000000b __func__.0
0000c3b8 l     O .bss	00000004 tee_api_instance_data
00000000 l    df *ABS*	00000000 tee_api_objects.c
00000000 l    df *ABS*	00000000 tee_api_panic.c
00002ec4 l     F .text	00000020 check_access
00002ee8 l     F .text	00000006 check_res.part.0
00002eee l     F .text	0000002e __utee_check_outbuf_annotation.localalias
00002f54 l     F .text	00000018 __utee_check_attr_in_annotation.localalias
00000000 l    df *ABS*	00000000 tee_system_pta.c
00002f84 l     F .text	00000050 invoke_system_pta
0000a094 l     O .rodata	00000010 uuid.2
0000a0a4 l     O .rodata	0000000a __func__.1
0000a0ae l     O .rodata	00000017 __func__.0
0000c3c0 l     O .bss	00000004 sess.3
00000000 l    df *ABS*	00000000 user_ta_entry.c
0000317c l     F .text	0000006a _get_fn_array
000031e6 l     F .text	0000006a _fini_iterate_phdr_cb
00003250 l     F .text	0000001c ta_header_get_session
0000326c l     F .text	0000005a to_utee_params
000032c6 l     F .text	0000003c from_utee_params
00003302 l     F .text	00000062 _init_iterate_phdr_cb
00003460 l     F .text	0000006c ta_header_remove_session
0000ae7b l     O .rodata	00000016 __func__.0
0000c3c4 l     O .bss	00000004 _num_mod_init
0000c3c8 l     O .bss	00000001 init_done
0000c30c l     O .data	00000008 ta_sessions
0000c314 l     O .data	00000008 __phdr_info_head
00000000 l    df *ABS*	00000000 utee_syscalls_a32.o
00000000 l    df *ABS*	00000000 abort.c
00000000 l    df *ABS*	00000000 tee_api_arith_mpi.c
00003bc0 l     F .text	00000020 api_panic
00003be0 l     F .text	00000020 mpi_panic
00003c00 l     F .text	00000050 get_mpi
00003c50 l     F .text	00000040 copy_mpi_to_bigint
00003c90 l     F .text	000000e0 bigint_binary
00003d70 l     F .text	00000010 mpi_is_odd
00003d80 l     F .text	00000016 rng_read
00003d96 l     F .text	00000496 mpi_egcd
0000c400 l     O .bss	00003800 data.18
000045f4 l     F .text	00000148 bigint_binary_mod
0000ae91 l     O .rodata	00000008 __func__.15
0000ae99 l     O .rodata	0000000e __func__.11
0000aea7 l     O .rodata	00000009 __func__.2
0000aeb0 l     O .rodata	00000012 __func__.17
0000aec2 l     O .rodata	0000000f __func__.16
0000aed1 l     O .rodata	0000001f __func__.14
0000aef0 l     O .rodata	00000019 __func__.13
0000af09 l     O .rodata	00000012 __func__.7
0000af1b l     O .rodata	00000015 __func__.12
0000af30 l     O .rodata	0000000e __func__.10
0000af3e l     O .rodata	0000000e __func__.9
0000af4c l     O .rodata	0000000e __func__.8
0000af5a l     O .rodata	00000011 __func__.6
0000af6b l     O .rodata	00000018 __func__.5
0000af83 l     O .rodata	00000011 __func__.4
0000af94 l     O .rodata	0000001d __func__.3
0000afb1 l     O .rodata	00000019 __func__.1
0000afca l     O .rodata	00000015 __func__.0
00000000 l    df *ABS*	00000000 tee_api_property.c
00005484 l     F .text	00000050 propset_get
000054d4 l     F .text	00000014 is_propset_pseudo_handle
000054e8 l     F .text	000000c0 propget_get_ext_prop
000055a8 l     F .text	00000158 propget_get_property
0000a0c8 l     O .rodata	00000004 __compound_literal.3
0000a0cc l     O .rodata	00000004 __compound_literal.2
0000a0d0 l     O .rodata	00000004 __compound_literal.1
0000a0d4 l     O .rodata	00000004 __compound_literal.0
00000000 l    df *ABS*	00000000 tcb.c
0000afdf l     O .rodata	00000010 __func__.1
0000afef l     O .rodata	00000010 __func__.0
0000fc00 l     O .bss	00000004 _tls_size
0000fc04 l     O .bss	00000004 _tcb
00000000 l    df *ABS*	00000000 assert.c
00000000 l    df *ABS*	00000000 base64.c
0000afff l     O .rodata	00000041 base64_table
00000000 l    df *ABS*	00000000 bignum.c
000062f0 l     F .text	00000020 mbedtls_ct_bool
00006310 l     F .text	00000028 mbedtls_ct_mpi_sign_if
00006338 l     F .text	00000036 mpi_get_digit
000065cc l     F .text	00000036 mbedtls_mpi_resize_clear
00006b94 l     F .text	0000005e add_sub_mpi
000073e0 l     F .text	00000220 mbedtls_mpi_exp_mod_optionally_safe
00007804 l     F .text	0000008c mpi_check_small_factors
00007aa4 l     F .text	000001c8 mpi_miller_rabin
0000a0d8 l     O .rodata	000000a7 small_prime_gaps
0000a180 l     O .rodata	00000024 gcd_pairs
00000000 l    df *ABS*	00000000 bignum_core.c
000085dc l     F .text	00000020 mbedtls_ct_bool
000085fc l     F .text	0000003c mbedtls_ct_uint_lt
00008cf2 l     F .text	000001b6 mbedtls_mpi_core_exp_mod_optionally_safe
00000000 l    df *ABS*	00000000 constant_time.c
000090d4 l     F .text	00000020 mbedtls_ct_bool
000090f4 l     F .text	0000003c mbedtls_ct_uint_lt
00000000 l    df *ABS*	00000000 platform_util.c
0000c358 l     O .data	00000004 memset_func
00000000 l    df *ABS*	00000000 bget_malloc.c
000092d4 l     F .text	0000000a _assert_trap
000092de l     F .text	00000022 bget_buf_size.part.0
0000b040 l     O .rodata	0000000e __func__.2
0000b04e l     O .rodata	00000005 __func__.8
0000b053 l     O .rodata	00000006 __func__.7
0000b059 l     O .rodata	00000005 __func__.5
0000b05e l     O .rodata	00000006 __func__.6
0000b064 l     O .rodata	00000006 __func__.4
0000b06a l     O .rodata	00000007 __func__.3
0000b071 l     O .rodata	00000014 __func__.1
0000b085 l     O .rodata	00000013 __func__.0
0000c35c l     O .data	0000005c malloc_ctx
00000000 l    df *ABS*	00000000 snprintf.c
00000000 l    df *ABS*	00000000 memcpy.c
00000000 l    df *ABS*	00000000 mempool.c
0000b098 l     O .rodata	00000013 __func__.2
0000b0ab l     O .rodata	0000000b __func__.1
0000b0b6 l     O .rodata	0000000e __func__.0
00000000 l    df *ABS*	00000000 memset.c
00000000 l    df *ABS*	00000000 memchr.c
00000000 l    df *ABS*	00000000 strlen.c
00000000 l    df *ABS*	00000000 memmove.c
00000000 l    df *ABS*	00000000 strcmp.c
00000000 l    df *ABS*	00000000 strlcpy.c
00000000 l    df *ABS*	00000000 consttime_memcmp.c
00000000 l    df *ABS*	00000000 
0000c000 l     O *ABS*	00000000 _DYNAMIC
0000c088 l     O *ABS*	00000000 _GLOBAL_OFFSET_TABLE_
0000a030 l     F .text	00000010 ___utee_panic_from_thumb
0000a040 l     F .text	00000010 ___utee_log_from_thumb
0000a050 l     F .text	00000010 ___utee_cache_operation_from_thumb
000011d4 g     F .text	00000058 putchar
00004338 g     F .text	00000004 __GP11_TEE_BigIntConvertFromOctetString
00002390 g     F .text	000000b8 TEE_PopulateTransientObject
00008a06 g     F .text	0000003a mbedtls_mpi_core_add_if
000052f2 g     F .text	00000004 TEE_BigIntConvertToFMM
00004d8c g     F .text	00000008 TEE_BigIntSquareMod
0000473c g     F .text	00000148 TEE_BigIntShiftRight
00009b2a g     F .text	0000007e raw_malloc_add_pool
000030c0 g     F .text	000000bc tee_invoke_supp_plugin
00008edc g     F .text	0000005e mbedtls_mpi_core_fill_random
00006480 g     F .text	00000098 mbedtls_mpi_grow
0000107c g     F .text	000000a8 __l_divmod
00005d22 g     F .text	000000c6 __GP11_TEE_GetPropertyName
00001c54 g     F .text	00000088 TEE_Realloc
000088fc g     F .text	00000070 mbedtls_mpi_core_shift_r
00002f6e g     F .text	00000016 __utee_check_inout_annotation
00009978 g     F .text	00000008 raw_free
0000914a g     F .text	0000004e mbedtls_ct_memcmp_partial
0000113e g     F .text	00000072 printf
000049ec g     F .text	00000010 TEE_BigIntAbs
00002500 g     F .text	00000022 TEE_InitRefAttribute
00003720 g     F .text	00000014 _utee_log
00001894 g     F .text	000000fc TEE_InvokeTACommand
00002566 g     F .text	00000022 __GP11_TEE_InitValueAttribute
00002eee g     F .text	0000002e __utee_check_outbuf_annotation
00008898 g     F .text	00000064 mbedtls_mpi_core_write_be
0000641c g     F .text	00000024 mbedtls_mpi_init_mempool
000039bc g     F .text	00000014 _utee_cryp_random_number_generate
000068c0 g     F .text	0000000c mbedtls_mpi_write_binary
00000744 g     F .text	0000000e vsnprintk
00006c60 g     F .text	00000064 mbedtls_mpi_sub_int
00009f74 g     F .text	00000034 memmove
00009d08 g     F .text	00000054 snprintf
00004598 g     F .text	0000005c TEE_BigIntCmpS32
00001aa0 g     F .text	00000004 __GP11_TEE_MemMove
0000c308 g     O .data	00000004 __stack_chk_guard
00002544 g     F .text	00000022 TEE_InitValueAttribute
00006602 g     F .text	000000b2 mbedtls_mpi_shrink
00001ab0 g     F .text	00000004 __GP11_TEE_MemFill
000049fc g     F .text	00000020 TEE_BigIntAdd
0000391c g     F .text	00000014 _utee_cryp_obj_restrict_usage
00002522 g     F .text	00000022 __GP11_TEE_InitRefAttribute
0000a07c g     O .rodata	00000004 ta_heap_size
0000231c g     F .text	00000074 TEE_ResetTransientObject
00003a44 g     F .text	00000018 _utee_asymm_operate
0000615c g     F .text	0000000e _base64_enc_len
00006e3a g     F .text	00000156 mbedtls_mpi_read_string
0000273c g     F .text	0000008c __GP11_TEE_GenerateKey
00008a7e g     F .text	00000176 mbedtls_mpi_core_mla
00004a3c g     F .text	000000a8 TEE_BigIntNeg
00003ae0 g     F .text	00000014 _utee_storage_free_enum
00000000 g       .text	00000000 __text_start
00005e48 g     F .text	000000a0 TEE_GetNextProperty
00002a8c g     F .text	0000002c TEE_StartPersistentObjectEnumerator
00006906 g     F .text	00000012 mbedtls_mpi_shift_r
00009cf8 g     F .text	00000010 malloc_buffer_overlaps_heap
00003884 g     F .text	00000014 _utee_hash_init
00004d54 g     F .text	0000001c TEE_BigIntSubMod
00008064 g     F .text	00000244 mbedtls_mpi_gen_prime
00005b50 g     F .text	00000064 TEE_GetPropertyAsBinaryBlock
000067b4 g     F .text	00000020 mbedtls_mpi_get_bit
00008f3a g     F .text	0000009e mbedtls_mpi_core_random
0000a078 g     O .rodata	00000004 __ta_no_share_heap_size
00006888 g     F .text	0000002c mbedtls_mpi_read_binary
00000690 g     F .text	0000004c trace_printf
0000789e g     F .text	00000024 mbedtls_mpi_montmul
00003b94 g     F .text	00000014 _utee_cache_operation
00009d6c g     F .text	000000d8 memcpy
00008fee g     F .text	00000020 mbedtls_mpi_core_exp_mod
000052f6 g     F .text	0000009a TEE_BigIntConvertFromFMM
00002ee4 g     F .text	00000004 TEE_Panic
00009204 g     F .text	0000003c mbedtls_ct_memcpy_if
00000f6c g     F .text	00000018 __aeabi_uldivmod
000011b0 g     F .text	00000024 puts
00005390 g     F .text	000000f4 TEE_BigIntComputeFMM
00009cc8 g     F .text	00000010 malloc_get_stats
00001b4c g     F .text	00000016 TEE_GetREETime
00009cb0 g     F .text	00000018 raw_malloc_get_stats
000029fc g     F .text	00000068 TEE_AllocatePersistentObjectEnumerator
0000c29c g     O .data	0000006c ta_props
00001c14 g     F .text	00000004 __GP11_TEE_Malloc
000017c4 g     F .text	000000d0 __GP11_TEE_OpenTASession
00002f1e g     F .text	0000001c __utee_check_instring_annotation
00009a76 g     F .text	00000012 malloc
00000450 g     F .text	00000070 __ta_entry_c
00005d14 g     F .text	00000004 TEE_FreePropertyEnumerator
000026b0 g     F .text	0000008c TEE_GenerateKey
00009d5c g     F .text	0000000e vsnprintf
0000c298 g     O .data	00000004 trace_level
0000286c g     F .text	00000004 __GP11_TEE_OpenPersistentObject
0000452c g     F .text	0000006c TEE_BigIntCmp
0000a060 g     O .rodata	00000004 ta_num_props
0000978c g     F .text	00000080 bgetr
00003a74 g     F .text	00000018 _utee_storage_obj_open
00001aa8 g     F .text	00000004 __GP11_TEE_MemCompare
00009f28 g     F .text	00000010 mempool_free
00003898 g     F .text	00000014 _utee_hash_update
0000433c g     F .text	0000008c TEE_BigIntConvertToOctetString
00006848 g     F .text	00000008 mbedtls_mpi_bitlen
00004888 g     F .text	00000060 TEE_BigIntGetBit
0000a080 g     O .rodata	00000003 trace_ext_prefix
00003b1c g     F .text	00000014 _utee_storage_next_enum
00009966 g     F .text	00000012 raw_malloc
0000951c g     F .text	0000005c bgetz
00001a90 g     F .text	0000000c TEE_GetInstanceData
00001aca g     F .text	0000001e TEE_Wait
00006cc4 g     F .text	00000114 mbedtls_mpi_mul_mpi
00004884 g     F .text	00000004 __GP11_TEE_BigIntShiftRight
00001ce6 g     F .text	00000006 TEE_CacheFlush
00000520 g     F .text	00000170 trace_vprintf
000000c4 g     F .text	00000002 TA_DestroyEntryPoint
00006410 g     F .text	0000000c mbedtls_mpi_init
00003aa4 g     F .text	00000014 _utee_storage_obj_del
00006822 g     F .text	00000026 mbedtls_mpi_lsb
00006124 g     F .text	00000028 _assert_log
0000385c g     F .text	00000014 _utee_cryp_state_copy
000052ea g     F .text	00000004 TEE_BigIntFMMContextSizeInU32
00003040 g     F .text	00000080 tee_unmap
000029be g     F .text	0000003a TEE_RenamePersistentObject
00002448 g     F .text	000000b8 __GP11_TEE_PopulateTransientObject
0000422c g     F .text	00000044 _TEE_MathAPI_Init
00005ee8 g     F .text	0000017c __utee_tcb_init
00006bf2 g     F .text	00000004 mbedtls_mpi_add_mpi
00003ba8 g     F .text	00000018 abort
00007c6c g     F .text	0000003e mbedtls_mpi_random
000004c8 g     F .text	00000028 __stack_chk_fail
00002f3e g     F .text	00000016 __utee_check_out_annotation
0000fc11 g     O .bss	00004000 ta_heap
00004d94 g     F .text	000000f4 TEE_BigIntInvMod
00003364 g     F .text	000000ec __utee_call_elf_init_fn
00001dd8 g     F .text	00000090 __GP11_TEE_GetObjectInfo
000000ca g     F .text	00000002 TA_CloseSessionEntryPoint
0000378c g     F .text	00000014 _utee_close_ta_session
000052d6 g     F .text	00000004 __GP11_TEE_BigIntInitFMMContext
00001ef0 g     F .text	00000088 __GP11_TEE_GetObjectInfo1
000027c8 g     F .text	000000a4 TEE_OpenPersistentObject
00009052 g     F .text	00000018 mbedtls_mpi_core_check_zero_ct
00006bf6 g     F .text	00000006 mbedtls_mpi_sub_mpi
00009fe8 g     F .text	00000048 consttime_memcmp
0000370c g     F .text	00000014 _utee_return
00003734 g     F .text	00000014 __utee_panic
00009130 g     F .text	0000001a mbedtls_ct_memcmp
00006064 g     F .text	00000018 __tls_get_addr
000000cc g     F .text	00000384 TA_InvokeCommandEntryPoint
00003450 g     F .text	00000010 __utee_call_elf_fini_fn
00009b04 g     F .text	00000010 free_wipe
00009ec8 g     F .text	0000003c mempool_alloc
000036f8 g     F .text	00000014 _utee_panic
00009b18 g     F .text	00000012 raw_malloc_init_ctx
00009f04 g     F .text	00000024 mempool_calloc
00003b80 g     F .text	00000014 _utee_cryp_obj_generate_key
00003b58 g     F .text	00000014 _utee_storage_obj_trunc
00002640 g     F .text	00000070 TEE_CopyObjectAttributes
0000c31c g     O .data	0000003c tee_props
000037e0 g     F .text	00000014 _utee_unmask_cancellation
00005ce4 g     F .text	00000008 TEE_ResetPropertyEnumerator
00009a88 g     F .text	00000020 calloc
00001b62 g     F .text	000000b2 TEE_Malloc
00001590 g     F .text	00000048 TEE_CheckMemoryAccessRights
00005bb4 g     F .text	00000098 TEE_GetPropertyAsUUID
0000100e g     F .text	0000006e __ul_divmod
00003748 g     F .text	00000018 _utee_get_property
00004940 g     F .text	00000080 TEE_BigIntSetBit
0000677c g     F .text	00000038 mbedtls_mpi_lset
00002c68 g     F .text	0000008c TEE_ReadObjectData
00002008 g     F .text	000000c0 TEE_GetObjectBufferAttribute
000000c6 g     F .text	00000004 TA_OpenSessionEntryPoint
00009030 g     F .text	00000022 mbedtls_mpi_core_sub_int
0000607c g     F .text	000000a8 dl_iterate_phdr
00013c18 g       .bss	00000000 __ftrace_buf_end
0000c3fc g     O .bss	00000004 ta_param_types
00007316 g     F .text	00000066 mbedtls_mpi_div_int
00001cf4 g     F .text	0000002a __utee_from_attr
00008834 g     F .text	00000064 mbedtls_mpi_core_write_le
00007fc8 g     F .text	0000009c mbedtls_mpi_is_prime_ext
0000525c g     F .text	00000070 TEE_BigIntIsProbablePrime
00006dd8 g     F .text	00000062 mbedtls_mpi_mul_int
00002982 g     F .text	00000026 TEE_CloseAndDeletePersistentObject1
00007918 g     F .text	00000012 mbedtls_mpi_exp_mod
00006518 g     F .text	00000052 mbedtls_mpi_safe_cond_assign
00005700 g     F .text	0000018c TEE_GetPropertyAsString
0000636e g     F .text	000000a2 mbedtls_mpi_lt_mpi_ct
00004270 g     F .text	00000038 TEE_BigIntInit
000043c8 g     F .text	0000004c __GP11_TEE_BigIntConvertToOctetString
000049c0 g     F .text	0000002c TEE_BigIntAssign
00002f3a g     F .text	00000002 __utee_check_outstring_annotation
00001a9c g     F .text	00000004 TEE_MemMove
000092a8 g     F .text	00000018 mbedtls_platform_zeroize
000042ac g     F .text	0000008c TEE_BigIntConvertFromOctetString
00003a2c g     F .text	00000018 _utee_authenc_dec_final
00006918 g     F .text	0000005e mbedtls_mpi_cmp_abs
00003b30 g     F .text	00000014 _utee_storage_obj_read
00009f48 g     F .text	0000001c memchr
000014f0 g     F .text	00000050 TEE_UnmaskCancellation
00001d48 g     F .text	00000090 TEE_GetObjectInfo
000082a8 g     F .text	00000334 mbedtls_mpi_self_test
00002f1c g     F .text	00000002 __utee_check_gp11_outbuf_annotation
00003b6c g     F .text	00000014 _utee_storage_obj_seek
000022a8 g     F .text	00000074 TEE_FreeTransientObject
00008750 g     F .text	00000050 mbedtls_mpi_core_cond_swap
000037cc g     F .text	00000014 _utee_check_access_rights
000087ea g     F .text	0000004a mbedtls_mpi_core_read_be
00001990 g     F .text	000000f0 __GP11_TEE_InvokeTACommand
00006a00 g     F .text	00000064 mbedtls_mpi_cmp_int
0000622c g     F .text	000000c4 _base64_dec
00003af4 g     F .text	00000014 _utee_storage_reset_enum
00002f54 g     F .text	00000018 __utee_check_attr_in_annotation
000039fc g     F .text	00000018 _utee_authenc_update_payload
00004ce8 g     F .text	00000050 TEE_BigIntMod
00007600 g     F .text	0000006c mbedtls_mpi_mod_int
0000685c g     F .text	0000002c mbedtls_mpi_read_binary_le
00004bc6 g     F .text	00000122 TEE_BigIntDiv
00003944 g     F .text	00000014 _utee_cryp_obj_alloc
00013c18 g       .bss	00000000 __ftrace_buf_start
00009fbe g     F .text	0000002a strlcpy
000066b4 g     F .text	0000006a mbedtls_mpi_copy
00008638 g     F .text	00000006 mbedtls_mpi_core_clz
00009904 g     F .text	00000014 malloc_reset_stats
00005c4c g     F .text	00000098 TEE_GetPropertyAsIdentity
00000f3c g     F .text	00000016 __vsprintf
00005a1c g     F .text	00000098 TEE_GetPropertyAsU64
00003830 g     F .text	00000014 _utee_set_ta_time
000037a0 g     F .text	00000018 _utee_invoke_ta_command
00001f78 g     F .text	00000020 TEE_RestrictObjectUsage1
00009aa8 g     F .text	0000001c realloc
0000671e g     F .text	0000005e mbedtls_mpi_swap
00009e44 g     F .text	00000084 mempool_alloc_pool
00004ae4 g     F .text	000000dc TEE_BigIntMul
00009b14 g     F .text	00000004 raw_malloc_get_ctx_size
000068cc g     F .text	0000003a mbedtls_mpi_shift_l
00006976 g     F .text	0000008a mbedtls_mpi_cmp_mpi
00001aac g     F .text	00000004 TEE_MemFill
0000900e g     F .text	00000022 mbedtls_mpi_core_exp_mod_unsafe
00009cd8 g     F .text	00000010 malloc_add_pool
0000050c g     F .text	00000014 trace_get_level
00006a64 g     F .text	00000090 mbedtls_mpi_add_abs
00001f98 g     F .text	00000070 TEE_RestrictObjectUsage
000052de g     F .text	00000008 TEE_BigIntFMMSizeInU32
000058f0 g     F .text	00000094 TEE_GetPropertyAsBool
000099d0 g     F .text	000000a6 raw_realloc
000052cc g     F .text	00000004 TEE_BigIntInitFMM
00002208 g     F .text	00000014 TEE_CloseObject
000038c4 g     F .text	00000014 _utee_cipher_init
000034cc g     F .text	0000022c __utee_entry
00005984 g     F .text	00000098 TEE_GetPropertyAsU32
0000a060 g       .text	00000000 __text_end
00004e88 g     F .text	000000b0 TEE_BigIntRelativePrime
0000737c g     F .text	00000064 mbedtls_mpi_mod_mpi
000086c4 g     F .text	00000050 mbedtls_mpi_core_lt_ct
00003908 g     F .text	00000014 _utee_cryp_obj_get_info
00008a40 g     F .text	0000003e mbedtls_mpi_core_sub
0000980c g     F .text	00000098 bpool
00005cec g     F .text	00000028 TEE_AllocatePropertyEnumerator
00003844 g     F .text	00000018 _utee_cryp_state_alloc
000014a0 g     F .text	00000050 TEE_GetCancellationFlag
00002944 g     F .text	0000003e __GP11_TEE_CreatePersistentObject
0000793e g     F .text	00000136 mbedtls_mpi_gcd
00001b24 g     F .text	00000028 TEE_SetTAPersistentTime
000092c0 g     F .text	00000014 mbedtls_zeroize_and_free
000068b4 g     F .text	0000000c mbedtls_mpi_write_binary_le
00009f38 g     F .text	00000010 memset
00009918 g     F .text	0000004e raw_memalign
00001ae8 g     F .text	0000003c TEE_GetTAPersistentTime
000006dc g     F .text	00000002 dhex_dump
00008662 g     F .text	00000026 mbedtls_mpi_core_bigendian_to_host
00002870 g     F .text	000000d4 TEE_CreatePersistentObject
00001540 g     F .text	00000050 TEE_MaskCancellation
00002d9c g     F .text	00000038 TEE_TruncateObjectData
00003930 g     F .text	00000014 _utee_cryp_obj_get_attr
00001e68 g     F .text	00000088 TEE_GetObjectInfo1
000038f0 g     F .text	00000018 _utee_cipher_final
000004f0 g     F .text	0000001c trace_set_level
0000906a g     F .text	00000016 mbedtls_mpi_core_to_mont_rep
0000212c g     F .text	000000dc TEE_GetObjectValueAttribute
000020c8 g     F .text	00000064 __GP11_TEE_GetObjectBufferAttribute
00009240 g     F .text	00000054 mbedtls_ct_memcpy_offset
00003870 g     F .text	00000014 _utee_cryp_state_free
00009fa8 g     F .text	00000016 strcmp
00003774 g     F .text	00000018 _utee_open_ta_session
00004498 g     F .text	00000094 TEE_BigIntConvertToS32
00004a1c g     F .text	00000020 TEE_BigIntSub
00002eb0 g     F .text	00000012 __GP11_TEE_SeekObjectData
000004c0 g     F .text	00000004 tahead_get_trace_level
00003b08 g     F .text	00000014 _utee_storage_start_enum
00009198 g     F .text	0000006c mbedtls_ct_memmove_left
00002dd8 g     F .text	000000d8 TEE_SeekObjectData
00002fd4 g     F .text	0000006c tee_map_zi
00002dd4 g     F .text	00000004 __GP11_TEE_TruncateObjectData
000078c2 g     F .text	00000056 mbedtls_mpi_montred
00009ac4 g     F .text	00000020 memalign
000042a8 g     F .text	00000004 __GP11_TEE_BigIntInit
0000896c g     F .text	0000006c mbedtls_mpi_core_shift_l
00004414 g     F .text	00000084 TEE_BigIntConvertFromS32
00006bfc g     F .text	00000064 mbedtls_mpi_add_int
00003a14 g     F .text	00000018 _utee_authenc_enc_final
00009ce8 g     F .text	00000010 malloc_buffer_is_within_alloced
00003958 g     F .text	00000014 _utee_cryp_obj_close
000052d4 g     F .text	00000002 TEE_BigIntInitFMMContext
000037f4 g     F .text	00000014 _utee_mask_cancellation
0000c3d8 g     O .bss	00000004 __ta_no_share_malloc_ctx
00003ab8 g     F .text	00000014 _utee_storage_obj_rename
00002b90 g     F .text	000000d8 __GP11_TEE_GetNextPersistentObject
00002a78 g     F .text	00000014 TEE_ResetPersistentObjectEnumerator
00002d58 g     F .text	00000040 TEE_WriteObjectData
00001a80 g     F .text	00000004 __GP11_TEE_CheckMemoryAccessRights
00004bc0 g     F .text	00000006 TEE_BigIntSquare
00003b44 g     F .text	00000014 _utee_storage_obj_write
0000863e g     F .text	00000024 mbedtls_mpi_core_bitlen
000000c0 g     F .text	00000004 TA_CreateEntryPoint
000004c4 g     F .text	00000004 __ta_entry
0000fc11 g     O .bss	00000000 __ta_no_share_heap
000039e8 g     F .text	00000014 _utee_authenc_update_aad
00007890 g     F .text	0000000e mbedtls_mpi_montg_init
00000752 g     F .text	0000004e snprintk
000048e8 g     F .text	00000058 TEE_BigIntGetBitCount
00003994 g     F .text	00000014 _utee_cryp_obj_copy
00004d70 g     F .text	0000001c TEE_BigIntMulMod
00007caa g     F .text	0000031e mbedtls_mpi_inv_mod
00002f6c g     F .text	00000002 __utee_check_gp11_attr_in_annotation
0000c3dc g     O .bss	00000020 ta_params
00006f90 g     F .text	00000386 mbedtls_mpi_div_mpi
00002f3c g     F .text	00000002 __utee_check_gp11_outstring_annotation
00006850 g     F .text	0000000c mbedtls_mpi_size
00009300 g     F .text	0000021c bget
00002cf4 g     F .text	00000064 __GP11_TEE_ReadObjectData
00002290 g     F .text	00000018 TEE_AllocateTransientObject
000052ee g     F .text	00000004 __GP11_TEE_BigIntFMMContextSizeInU32
00005d18 g     F .text	0000000a TEE_StartPropertyEnumerator
00003808 g     F .text	00000014 _utee_wait
000067d4 g     F .text	0000004e mbedtls_mpi_set_bit
00008688 g     F .text	0000003c mbedtls_mpi_core_uint_le_mpi
00001c18 g     F .text	0000003c TEE_Free
00001cec g     F .text	00000006 TEE_CacheInvalidate
0000614c g     F .text	00000010 _assert_break
00008fd8 g     F .text	00000016 mbedtls_mpi_core_exp_mod_working_limbs
00004d38 g     F .text	0000001c TEE_BigIntAddMod
000052d0 g     F .text	00000004 __GP11_TEE_BigIntInitFMM
0000381c g     F .text	00000014 _utee_get_time
000089d8 g     F .text	0000002e mbedtls_mpi_core_add
00005de8 g     F .text	00000060 TEE_GetPropertyName
00001cdc g     F .text	00000004 __GP11_TEE_Realloc
00003980 g     F .text	00000014 _utee_cryp_obj_populate
000087a0 g     F .text	0000004a mbedtls_mpi_core_read_le
0000fc0c g     O .bss	00000004 mbedtls_ct_zero
00001d1e g     F .text	0000002a __utee_from_gp11_attr
00001aa4 g     F .text	00000004 TEE_MemCompare
000038d8 g     F .text	00000018 _utee_cipher_update
000006e0 g     F .text	00000064 __vsnprintf
0000c3cc g     O .bss	0000000c __elf_phdr_info
0000792a g     F .text	00000014 mbedtls_mpi_exp_mod_unsafe
00002a64 g     F .text	00000014 TEE_FreePersistentObjectEnumerator
000016e8 g     F .text	000000dc TEE_OpenTASession
00009294 g     F .text	00000014 mbedtls_ct_zeroize_if
00009080 g     F .text	00000054 mbedtls_mpi_core_from_mont_rep
00001124 g     F .text	00000014 trace_ext_puts
0000588c g     F .text	00000064 __GP11_TEE_GetPropertyAsString
00009bfa g     F .text	000000b6 raw_malloc_buffer_is_within_alloced
00001138 g     F .text	00000006 trace_ext_get_thread_id
00009ba8 g     F .text	00000052 raw_malloc_buffer_overlaps_heap
000029a8 g     F .text	00000016 TEE_CloseAndDeletePersistentObject
000039a8 g     F .text	00000014 _utee_cryp_derive_key
00006440 g     F .text	00000040 mbedtls_mpi_free
0000396c g     F .text	00000014 _utee_cryp_obj_reset
00001ce0 g     F .text	00000006 TEE_CacheClean
00003760 g     F .text	00000014 _utee_get_property_name_to_index
00008c58 g     F .text	0000009a mbedtls_mpi_core_montmul
00009980 g     F .text	00000050 raw_calloc
0000616a g     F .text	000000c2 _base64_enc
0000656a g     F .text	00000062 mbedtls_mpi_safe_cond_swap
000039d0 g     F .text	00000018 _utee_authenc_init
00002588 g     F .text	000000b8 TEE_CopyObjectAttributes1
000029f8 g     F .text	00000004 __GP11_TEE_RenamePersistentObject
00009f64 g     F .text	00000010 strlen
0000508c g     F .text	000001d0 TEE_BigIntComputeExtendedGcd
00003acc g     F .text	00000014 _utee_storage_alloc_enum
00004f38 g     F .text	00000154 TEE_BigIntExpMod
00001ab4 g     F .text	00000016 TEE_GetSystemTime
00003a5c g     F .text	00000018 _utee_asymm_verify
0000b0f8 g     O .ta_head	00000020 ta_head
00009578 g     F .text	00000214 brel
00005ab4 g     F .text	0000009c __GP11_TEE_GetPropertyAsBinaryBlock
00006af4 g     F .text	000000a0 mbedtls_mpi_sub_abs
00007a74 g     F .text	00000030 mbedtls_mpi_fill_random
0000221c g     F .text	00000074 __GP11_TEE_AllocateTransientObject
00001a84 g     F .text	0000000c TEE_SetInstanceData
000037b8 g     F .text	00000014 _utee_get_cancellation_flag
00008714 g     F .text	0000003c mbedtls_mpi_core_cond_assign
00000f54 g     F .text	00000018 __aeabi_ldivmod
0000766c g     F .text	00000198 mbedtls_mpi_write_string
00009ae4 g     F .text	00000012 aligned_alloc
00008c36 g     F .text	00000022 mbedtls_mpi_core_montmul_init
00002ab8 g     F .text	000000d8 TEE_GetNextPersistentObject
000052da g     F .text	00000004 TEE_BigIntInitFMMContext1
00002d98 g     F .text	00000004 __GP11_TEE_WriteObjectData
00008ea8 g     F .text	00000034 mbedtls_mpi_core_get_mont_r2_unsafe
0000148c g     F .text	00000014 TEE_CloseTASession
00003a8c g     F .text	00000018 _utee_storage_obj_create
000052e6 g     F .text	00000004 __GP11_TEE_BigIntFMMSizeInU32
00008bf4 g     F .text	00000042 mbedtls_mpi_core_mul
00009af6 g     F .text	0000000e free
000098a4 g     F .text	00000060 bstats
0000fc08 g     O .bss	00000004 mbedtls_mpi_mempool
000038ac g     F .text	00000018 _utee_hash_final



Disassembly of section .text:

00000000 <open_rb_state>:
open_rb_state():
/home/dangcaominh/STM32MP1/optee-os/optee-os/ta/avb/entry.c:39
       0:	4a1a      	ldr	r2, [pc, #104]	@ (6c <open_rb_state+0x6c>)
       2:	4b1b      	ldr	r3, [pc, #108]	@ (70 <open_rb_state+0x70>)
       4:	447a      	add	r2, pc
       6:	b570      	push	{r4, r5, r6, lr}
       8:	b086      	sub	sp, #24
/home/dangcaominh/STM32MP1/optee-os/optee-os/ta/avb/entry.c:44
       a:	4e1a      	ldr	r6, [pc, #104]	@ (74 <open_rb_state+0x74>)
/home/dangcaominh/STM32MP1/optee-os/optee-os/ta/avb/entry.c:39
       c:	4605      	mov	r5, r0
       e:	58d3      	ldr	r3, [r2, r3]
      10:	460c      	mov	r4, r1
/home/dangcaominh/STM32MP1/optee-os/optee-os/ta/avb/entry.c:44
      12:	447e      	add	r6, pc
      14:	2209      	movs	r2, #9
/home/dangcaominh/STM32MP1/optee-os/optee-os/ta/avb/entry.c:39
      16:	681b      	ldr	r3, [r3, #0]
      18:	9305      	str	r3, [sp, #20]
      1a:	f04f 0300 	mov.w	r3, #0
/home/dangcaominh/STM32MP1/optee-os/optee-os/ta/avb/entry.c:44
      1e:	2303      	movs	r3, #3
      20:	9100      	str	r1, [sp, #0]
      22:	4631      	mov	r1, r6
      24:	4810      	ldr	r0, [pc, #64]	@ (68 <open_rb_state+0x68>)
      26:	f002 fbcf 	bl	27c8 <TEE_OpenPersistentObject>
/home/dangcaominh/STM32MP1/optee-os/optee-os/ta/avb/entry.c:46
      2a:	b170      	cbz	r0, 4a <open_rb_state+0x4a>
create_rb_state():
/home/dangcaominh/STM32MP1/optee-os/optee-os/ta/avb/entry.c:32
      2c:	480e      	ldr	r0, [pc, #56]	@ (68 <open_rb_state+0x68>)
      2e:	2304      	movs	r3, #4
      30:	9302      	str	r3, [sp, #8]
      32:	ab04      	add	r3, sp, #16
      34:	9301      	str	r3, [sp, #4]
      36:	2300      	movs	r3, #0
      38:	9300      	str	r3, [sp, #0]
      3a:	2209      	movs	r2, #9
      3c:	9403      	str	r4, [sp, #12]
      3e:	f240 4303 	movw	r3, #1027	@ 0x403
      42:	9504      	str	r5, [sp, #16]
      44:	4631      	mov	r1, r6
      46:	f002 fc13 	bl	2870 <TEE_CreatePersistentObject>
open_rb_state():
/home/dangcaominh/STM32MP1/optee-os/optee-os/ta/avb/entry.c:39
      4a:	4a0b      	ldr	r2, [pc, #44]	@ (78 <open_rb_state+0x78>)
/home/dangcaominh/STM32MP1/optee-os/optee-os/ta/avb/entry.c:50
      4c:	4b08      	ldr	r3, [pc, #32]	@ (70 <open_rb_state+0x70>)
/home/dangcaominh/STM32MP1/optee-os/optee-os/ta/avb/entry.c:39
      4e:	447a      	add	r2, pc
/home/dangcaominh/STM32MP1/optee-os/optee-os/ta/avb/entry.c:50
      50:	58d3      	ldr	r3, [r2, r3]
      52:	681a      	ldr	r2, [r3, #0]
      54:	9b05      	ldr	r3, [sp, #20]
      56:	405a      	eors	r2, r3
      58:	f04f 0300 	mov.w	r3, #0
      5c:	d001      	beq.n	62 <open_rb_state+0x62>
      5e:	f000 fa33 	bl	4c8 <__stack_chk_fail>
      62:	b006      	add	sp, #24
      64:	bd70      	pop	{r4, r5, r6, pc}
      66:	bf00      	nop
      68:	80000100 	.word	0x80000100
      6c:	0000c080 	.word	0x0000c080
      70:	0000000c 	.word	0x0000000c
      74:	0000adf3 	.word	0x0000adf3
      78:	0000c036 	.word	0x0000c036

0000007c <get_named_object_name.constprop.0>:
get_named_object_name():
/home/dangcaominh/STM32MP1/optee-os/optee-os/ta/avb/entry.c:52
      7c:	e92d 41f0 	stmdb	sp!, {r4, r5, r6, r7, r8, lr}
/home/dangcaominh/STM32MP1/optee-os/optee-os/ta/avb/entry.c:58
      80:	f101 080c 	add.w	r8, r1, #12
      84:	f1b8 0f40 	cmp.w	r8, #64	@ 0x40
/home/dangcaominh/STM32MP1/optee-os/optee-os/ta/avb/entry.c:52
      88:	4607      	mov	r7, r0
      8a:	460d      	mov	r5, r1
      8c:	4614      	mov	r4, r2
      8e:	461e      	mov	r6, r3
/home/dangcaominh/STM32MP1/optee-os/optee-os/ta/avb/entry.c:58
      90:	d810      	bhi.n	b4 <get_named_object_name.constprop.0+0x38>
/home/dangcaominh/STM32MP1/optee-os/optee-os/ta/avb/entry.c:63
      92:	490a      	ldr	r1, [pc, #40]	@ (bc <get_named_object_name.constprop.0+0x40>)
      94:	220c      	movs	r2, #12
      96:	4620      	mov	r0, r4
      98:	4479      	add	r1, pc
      9a:	f001 fcff 	bl	1a9c <TEE_MemMove>
/home/dangcaominh/STM32MP1/optee-os/optee-os/ta/avb/entry.c:66
      9e:	462a      	mov	r2, r5
      a0:	4639      	mov	r1, r7
      a2:	f104 000c 	add.w	r0, r4, #12
      a6:	f001 fcf9 	bl	1a9c <TEE_MemMove>
/home/dangcaominh/STM32MP1/optee-os/optee-os/ta/avb/entry.c:68
      aa:	f8c6 8000 	str.w	r8, [r6]
/home/dangcaominh/STM32MP1/optee-os/optee-os/ta/avb/entry.c:70
      ae:	2000      	movs	r0, #0
/home/dangcaominh/STM32MP1/optee-os/optee-os/ta/avb/entry.c:71
      b0:	e8bd 81f0 	ldmia.w	sp!, {r4, r5, r6, r7, r8, pc}
/home/dangcaominh/STM32MP1/optee-os/optee-os/ta/avb/entry.c:60
      b4:	4800      	ldr	r0, [pc, #0]	@ (b8 <get_named_object_name.constprop.0+0x3c>)
      b6:	e7fb      	b.n	b0 <get_named_object_name.constprop.0+0x34>
      b8:	ffff0006 	.word	0xffff0006
      bc:	0000a108 	.word	0x0000a108

000000c0 <TA_CreateEntryPoint>:
TA_CreateEntryPoint():
/home/dangcaominh/STM32MP1/optee-os/optee-os/ta/avb/entry.c:364
      c0:	2000      	movs	r0, #0
      c2:	4770      	bx	lr

000000c4 <TA_DestroyEntryPoint>:
TA_DestroyEntryPoint():
/home/dangcaominh/STM32MP1/optee-os/optee-os/ta/avb/entry.c:368
      c4:	4770      	bx	lr

000000c6 <TA_OpenSessionEntryPoint>:
TA_OpenSessionEntryPoint():
/home/dangcaominh/STM32MP1/optee-os/optee-os/ta/avb/entry.c:375
      c6:	2000      	movs	r0, #0
      c8:	4770      	bx	lr

000000ca <TA_CloseSessionEntryPoint>:
TA_CloseSessionEntryPoint():
/home/dangcaominh/STM32MP1/optee-os/optee-os/ta/avb/entry.c:379
      ca:	4770      	bx	lr

000000cc <TA_InvokeCommandEntryPoint>:
TA_InvokeCommandEntryPoint():
/home/dangcaominh/STM32MP1/optee-os/optee-os/ta/avb/entry.c:384
      cc:	e92d 43f0 	stmdb	sp!, {r4, r5, r6, r7, r8, r9, lr}
      d0:	4614      	mov	r4, r2
      d2:	4ad4      	ldr	r2, [pc, #848]	@ (424 <TA_InvokeCommandEntryPoint+0x358>)
      d4:	461d      	mov	r5, r3
      d6:	4bd4      	ldr	r3, [pc, #848]	@ (428 <TA_InvokeCommandEntryPoint+0x35c>)
      d8:	b09d      	sub	sp, #116	@ 0x74
      da:	447a      	add	r2, pc
      dc:	58d3      	ldr	r3, [r2, r3]
      de:	681b      	ldr	r3, [r3, #0]
      e0:	931b      	str	r3, [sp, #108]	@ 0x6c
      e2:	f04f 0300 	mov.w	r3, #0
/home/dangcaominh/STM32MP1/optee-os/optee-os/ta/avb/entry.c:385
      e6:	2905      	cmp	r1, #5
      e8:	f200 817c 	bhi.w	3e4 <TA_InvokeCommandEntryPoint+0x318>
      ec:	e8df f011 	tbh	[pc, r1, lsl #1]
      f0:	00530006 	.word	0x00530006
      f4:	00b30099 	.word	0x00b30099
      f8:	013800e0 	.word	0x013800e0
read_rb_idx():
/home/dangcaominh/STM32MP1/optee-os/optee-os/ta/avb/entry.c:85
      fc:	2c21      	cmp	r4, #33	@ 0x21
      fe:	f040 816d 	bne.w	3dc <TA_InvokeCommandEntryPoint+0x310>
/home/dangcaominh/STM32MP1/optee-os/optee-os/ta/avb/entry.c:88
     102:	682e      	ldr	r6, [r5, #0]
get_slot_offset():
/home/dangcaominh/STM32MP1/optee-os/optee-os/ta/avb/entry.c:19
     104:	2eff      	cmp	r6, #255	@ 0xff
     106:	f200 8169 	bhi.w	3dc <TA_InvokeCommandEntryPoint+0x310>
read_rb_idx():
/home/dangcaominh/STM32MP1/optee-os/optee-os/ta/avb/entry.c:92
     10a:	a906      	add	r1, sp, #24
     10c:	2000      	movs	r0, #0
     10e:	f7ff ff77 	bl	0 <open_rb_state>
/home/dangcaominh/STM32MP1/optee-os/optee-os/ta/avb/entry.c:93
     112:	4604      	mov	r4, r0
     114:	b9e8      	cbnz	r0, 152 <TA_InvokeCommandEntryPoint+0x86>
get_slot_offset():
/home/dangcaominh/STM32MP1/optee-os/optee-os/ta/avb/entry.c:22
     116:	00f6      	lsls	r6, r6, #3
read_rb_idx():
/home/dangcaominh/STM32MP1/optee-os/optee-os/ta/avb/entry.c:96
     118:	4603      	mov	r3, r0
     11a:	9000      	str	r0, [sp, #0]
get_slot_offset():
/home/dangcaominh/STM32MP1/optee-os/optee-os/ta/avb/entry.c:22
     11c:	3604      	adds	r6, #4
read_rb_idx():
/home/dangcaominh/STM32MP1/optee-os/optee-os/ta/avb/entry.c:96
     11e:	9806      	ldr	r0, [sp, #24]
     120:	4632      	mov	r2, r6
     122:	f002 fe59 	bl	2dd8 <TEE_SeekObjectData>
/home/dangcaominh/STM32MP1/optee-os/optee-os/ta/avb/entry.c:97
     126:	4604      	mov	r4, r0
     128:	b980      	cbnz	r0, 14c <TA_InvokeCommandEntryPoint+0x80>
/home/dangcaominh/STM32MP1/optee-os/optee-os/ta/avb/entry.c:100
     12a:	9806      	ldr	r0, [sp, #24]
     12c:	af08      	add	r7, sp, #32
     12e:	ab05      	add	r3, sp, #20
     130:	2208      	movs	r2, #8
     132:	4639      	mov	r1, r7
     134:	f002 fd98 	bl	2c68 <TEE_ReadObjectData>
/home/dangcaominh/STM32MP1/optee-os/optee-os/ta/avb/entry.c:101
     138:	4604      	mov	r4, r0
     13a:	b938      	cbnz	r0, 14c <TA_InvokeCommandEntryPoint+0x80>
/home/dangcaominh/STM32MP1/optee-os/optee-os/ta/avb/entry.c:103
     13c:	9b05      	ldr	r3, [sp, #20]
/home/dangcaominh/STM32MP1/optee-os/optee-os/ta/avb/entry.c:111
     13e:	9806      	ldr	r0, [sp, #24]
/home/dangcaominh/STM32MP1/optee-os/optee-os/ta/avb/entry.c:103
     140:	2b08      	cmp	r3, #8
     142:	d113      	bne.n	16c <TA_InvokeCommandEntryPoint+0xa0>
/home/dangcaominh/STM32MP1/optee-os/optee-os/ta/avb/entry.c:121
     144:	9b09      	ldr	r3, [sp, #36]	@ 0x24
     146:	60ab      	str	r3, [r5, #8]
/home/dangcaominh/STM32MP1/optee-os/optee-os/ta/avb/entry.c:122
     148:	9b08      	ldr	r3, [sp, #32]
     14a:	60eb      	str	r3, [r5, #12]
/home/dangcaominh/STM32MP1/optee-os/optee-os/ta/avb/entry.c:124
     14c:	9806      	ldr	r0, [sp, #24]
write_rb_idx():
/home/dangcaominh/STM32MP1/optee-os/optee-os/ta/avb/entry.c:174
     14e:	f002 f85b 	bl	2208 <TEE_CloseObject>
TA_InvokeCommandEntryPoint():
/home/dangcaominh/STM32MP1/optee-os/optee-os/ta/avb/entry.c:384
     152:	4ab6      	ldr	r2, [pc, #728]	@ (42c <TA_InvokeCommandEntryPoint+0x360>)
/home/dangcaominh/STM32MP1/optee-os/optee-os/ta/avb/entry.c:402
     154:	4bb4      	ldr	r3, [pc, #720]	@ (428 <TA_InvokeCommandEntryPoint+0x35c>)
/home/dangcaominh/STM32MP1/optee-os/optee-os/ta/avb/entry.c:384
     156:	447a      	add	r2, pc
/home/dangcaominh/STM32MP1/optee-os/optee-os/ta/avb/entry.c:402
     158:	58d3      	ldr	r3, [r2, r3]
     15a:	681a      	ldr	r2, [r3, #0]
     15c:	9b1b      	ldr	r3, [sp, #108]	@ 0x6c
     15e:	405a      	eors	r2, r3
     160:	f04f 0300 	mov.w	r3, #0
     164:	f000 814d 	beq.w	402 <TA_InvokeCommandEntryPoint+0x336>
     168:	f000 f9ae 	bl	4c8 <__stack_chk_fail>
read_rb_idx():
/home/dangcaominh/STM32MP1/optee-os/optee-os/ta/avb/entry.c:104
     16c:	efc0 0010 	vmov.i32	d16, #0	@ 0x00000000
     170:	edcd 0b08 	vstr	d16, [sp, #32]
/home/dangcaominh/STM32MP1/optee-os/optee-os/ta/avb/entry.c:106
     174:	2b00      	cmp	r3, #0
     176:	d0e5      	beq.n	144 <TA_InvokeCommandEntryPoint+0x78>
/home/dangcaominh/STM32MP1/optee-os/optee-os/ta/avb/entry.c:111
     178:	9400      	str	r4, [sp, #0]
     17a:	4632      	mov	r2, r6
     17c:	4623      	mov	r3, r4
     17e:	f002 fe2b 	bl	2dd8 <TEE_SeekObjectData>
/home/dangcaominh/STM32MP1/optee-os/optee-os/ta/avb/entry.c:113
     182:	b930      	cbnz	r0, 192 <TA_InvokeCommandEntryPoint+0xc6>
/home/dangcaominh/STM32MP1/optee-os/optee-os/ta/avb/entry.c:115
     184:	9806      	ldr	r0, [sp, #24]
     186:	2208      	movs	r2, #8
     188:	4639      	mov	r1, r7
     18a:	f002 fde5 	bl	2d58 <TEE_WriteObjectData>
/home/dangcaominh/STM32MP1/optee-os/optee-os/ta/avb/entry.c:116
     18e:	2800      	cmp	r0, #0
     190:	d0d8      	beq.n	144 <TA_InvokeCommandEntryPoint+0x78>
/home/dangcaominh/STM32MP1/optee-os/optee-os/ta/avb/entry.c:111
     192:	4604      	mov	r4, r0
     194:	e7da      	b.n	14c <TA_InvokeCommandEntryPoint+0x80>
write_rb_idx():
/home/dangcaominh/STM32MP1/optee-os/optee-os/ta/avb/entry.c:141
     196:	2c11      	cmp	r4, #17
     198:	f040 8120 	bne.w	3dc <TA_InvokeCommandEntryPoint+0x310>
/home/dangcaominh/STM32MP1/optee-os/optee-os/ta/avb/entry.c:144
     19c:	682e      	ldr	r6, [r5, #0]
get_slot_offset():
/home/dangcaominh/STM32MP1/optee-os/optee-os/ta/avb/entry.c:19
     19e:	2eff      	cmp	r6, #255	@ 0xff
     1a0:	f200 811c 	bhi.w	3dc <TA_InvokeCommandEntryPoint+0x310>
write_rb_idx():
/home/dangcaominh/STM32MP1/optee-os/optee-os/ta/avb/entry.c:147
     1a4:	68ab      	ldr	r3, [r5, #8]
/home/dangcaominh/STM32MP1/optee-os/optee-os/ta/avb/entry.c:149
     1a6:	a905      	add	r1, sp, #20
/home/dangcaominh/STM32MP1/optee-os/optee-os/ta/avb/entry.c:147
     1a8:	68ea      	ldr	r2, [r5, #12]
/home/dangcaominh/STM32MP1/optee-os/optee-os/ta/avb/entry.c:149
     1aa:	2000      	movs	r0, #0
/home/dangcaominh/STM32MP1/optee-os/optee-os/ta/avb/entry.c:147
     1ac:	e9cd 2306 	strd	r2, r3, [sp, #24]
/home/dangcaominh/STM32MP1/optee-os/optee-os/ta/avb/entry.c:149
     1b0:	f7ff ff26 	bl	0 <open_rb_state>
/home/dangcaominh/STM32MP1/optee-os/optee-os/ta/avb/entry.c:150
     1b4:	4604      	mov	r4, r0
     1b6:	2800      	cmp	r0, #0
     1b8:	d1cb      	bne.n	152 <TA_InvokeCommandEntryPoint+0x86>
get_slot_offset():
/home/dangcaominh/STM32MP1/optee-os/optee-os/ta/avb/entry.c:22
     1ba:	00f5      	lsls	r5, r6, #3
write_rb_idx():
/home/dangcaominh/STM32MP1/optee-os/optee-os/ta/avb/entry.c:153
     1bc:	4603      	mov	r3, r0
     1be:	9000      	str	r0, [sp, #0]
get_slot_offset():
/home/dangcaominh/STM32MP1/optee-os/optee-os/ta/avb/entry.c:22
     1c0:	3504      	adds	r5, #4
write_rb_idx():
/home/dangcaominh/STM32MP1/optee-os/optee-os/ta/avb/entry.c:153
     1c2:	4606      	mov	r6, r0
     1c4:	462a      	mov	r2, r5
     1c6:	9805      	ldr	r0, [sp, #20]
     1c8:	f002 fe06 	bl	2dd8 <TEE_SeekObjectData>
/home/dangcaominh/STM32MP1/optee-os/optee-os/ta/avb/entry.c:154
     1cc:	4604      	mov	r4, r0
     1ce:	b9e8      	cbnz	r0, 20c <TA_InvokeCommandEntryPoint+0x140>
/home/dangcaominh/STM32MP1/optee-os/optee-os/ta/avb/entry.c:157
     1d0:	9805      	ldr	r0, [sp, #20]
     1d2:	ab04      	add	r3, sp, #16
     1d4:	2208      	movs	r2, #8
     1d6:	a908      	add	r1, sp, #32
     1d8:	f002 fd46 	bl	2c68 <TEE_ReadObjectData>
/home/dangcaominh/STM32MP1/optee-os/optee-os/ta/avb/entry.c:158
     1dc:	4604      	mov	r4, r0
     1de:	b9a8      	cbnz	r0, 20c <TA_InvokeCommandEntryPoint+0x140>
/home/dangcaominh/STM32MP1/optee-os/optee-os/ta/avb/entry.c:160
     1e0:	9b04      	ldr	r3, [sp, #16]
     1e2:	2b08      	cmp	r3, #8
     1e4:	d014      	beq.n	210 <TA_InvokeCommandEntryPoint+0x144>
/home/dangcaominh/STM32MP1/optee-os/optee-os/ta/avb/entry.c:161
     1e6:	efc0 0010 	vmov.i32	d16, #0	@ 0x00000000
     1ea:	edcd 0b08 	vstr	d16, [sp, #32]
/home/dangcaominh/STM32MP1/optee-os/optee-os/ta/avb/entry.c:168
     1ee:	9805      	ldr	r0, [sp, #20]
     1f0:	2300      	movs	r3, #0
     1f2:	9300      	str	r3, [sp, #0]
     1f4:	462a      	mov	r2, r5
     1f6:	4633      	mov	r3, r6
     1f8:	f002 fdee 	bl	2dd8 <TEE_SeekObjectData>
/home/dangcaominh/STM32MP1/optee-os/optee-os/ta/avb/entry.c:169
     1fc:	4604      	mov	r4, r0
     1fe:	b928      	cbnz	r0, 20c <TA_InvokeCommandEntryPoint+0x140>
/home/dangcaominh/STM32MP1/optee-os/optee-os/ta/avb/entry.c:172
     200:	9805      	ldr	r0, [sp, #20]
     202:	2208      	movs	r2, #8
     204:	a906      	add	r1, sp, #24
     206:	f002 fda7 	bl	2d58 <TEE_WriteObjectData>
     20a:	4604      	mov	r4, r0
/home/dangcaominh/STM32MP1/optee-os/optee-os/ta/avb/entry.c:174
     20c:	9805      	ldr	r0, [sp, #20]
     20e:	e79e      	b.n	14e <TA_InvokeCommandEntryPoint+0x82>
/home/dangcaominh/STM32MP1/optee-os/optee-os/ta/avb/entry.c:163
     210:	9a06      	ldr	r2, [sp, #24]
     212:	9b08      	ldr	r3, [sp, #32]
     214:	429a      	cmp	r2, r3
     216:	9b07      	ldr	r3, [sp, #28]
     218:	9a09      	ldr	r2, [sp, #36]	@ 0x24
     21a:	4193      	sbcs	r3, r2
     21c:	d2e7      	bcs.n	1ee <TA_InvokeCommandEntryPoint+0x122>
/home/dangcaominh/STM32MP1/optee-os/optee-os/ta/avb/entry.c:164
     21e:	4c7b      	ldr	r4, [pc, #492]	@ (40c <TA_InvokeCommandEntryPoint+0x340>)
     220:	e7f4      	b.n	20c <TA_InvokeCommandEntryPoint+0x140>
read_lock_state():
/home/dangcaominh/STM32MP1/optee-os/optee-os/ta/avb/entry.c:189
     222:	2c02      	cmp	r4, #2
     224:	f040 80da 	bne.w	3dc <TA_InvokeCommandEntryPoint+0x310>
/home/dangcaominh/STM32MP1/optee-os/optee-os/ta/avb/entry.c:192
     228:	a908      	add	r1, sp, #32
     22a:	2000      	movs	r0, #0
     22c:	f7ff fee8 	bl	0 <open_rb_state>
/home/dangcaominh/STM32MP1/optee-os/optee-os/ta/avb/entry.c:193
     230:	4604      	mov	r4, r0
     232:	2800      	cmp	r0, #0
     234:	d18d      	bne.n	152 <TA_InvokeCommandEntryPoint+0x86>
/home/dangcaominh/STM32MP1/optee-os/optee-os/ta/avb/entry.c:196
     236:	9808      	ldr	r0, [sp, #32]
     238:	ab06      	add	r3, sp, #24
     23a:	2204      	movs	r2, #4
     23c:	a905      	add	r1, sp, #20
     23e:	f002 fd13 	bl	2c68 <TEE_ReadObjectData>
/home/dangcaominh/STM32MP1/optee-os/optee-os/ta/avb/entry.c:197
     242:	4604      	mov	r4, r0
     244:	b928      	cbnz	r0, 252 <TA_InvokeCommandEntryPoint+0x186>
/home/dangcaominh/STM32MP1/optee-os/optee-os/ta/avb/entry.c:199
     246:	9b06      	ldr	r3, [sp, #24]
     248:	2b04      	cmp	r3, #4
/home/dangcaominh/STM32MP1/optee-os/optee-os/ta/avb/entry.c:208
     24a:	bf0a      	itet	eq
     24c:	9b05      	ldreq	r3, [sp, #20]
/home/dangcaominh/STM32MP1/optee-os/optee-os/ta/avb/entry.c:204
     24e:	4c70      	ldrne	r4, [pc, #448]	@ (410 <TA_InvokeCommandEntryPoint+0x344>)
/home/dangcaominh/STM32MP1/optee-os/optee-os/ta/avb/entry.c:208
     250:	602b      	streq	r3, [r5, #0]
write_lock_state():
/home/dangcaominh/STM32MP1/optee-os/optee-os/ta/avb/entry.c:248
     252:	9808      	ldr	r0, [sp, #32]
     254:	e77b      	b.n	14e <TA_InvokeCommandEntryPoint+0x82>
/home/dangcaominh/STM32MP1/optee-os/optee-os/ta/avb/entry.c:227
     256:	2c01      	cmp	r4, #1
     258:	f040 80c0 	bne.w	3dc <TA_InvokeCommandEntryPoint+0x310>
/home/dangcaominh/STM32MP1/optee-os/optee-os/ta/avb/entry.c:230
     25c:	6828      	ldr	r0, [r5, #0]
/home/dangcaominh/STM32MP1/optee-os/optee-os/ta/avb/entry.c:232
     25e:	a908      	add	r1, sp, #32
/home/dangcaominh/STM32MP1/optee-os/optee-os/ta/avb/entry.c:230
     260:	9004      	str	r0, [sp, #16]
/home/dangcaominh/STM32MP1/optee-os/optee-os/ta/avb/entry.c:232
     262:	f7ff fecd 	bl	0 <open_rb_state>
/home/dangcaominh/STM32MP1/optee-os/optee-os/ta/avb/entry.c:233
     266:	4604      	mov	r4, r0
     268:	2800      	cmp	r0, #0
     26a:	f47f af72 	bne.w	152 <TA_InvokeCommandEntryPoint+0x86>
/home/dangcaominh/STM32MP1/optee-os/optee-os/ta/avb/entry.c:236
     26e:	9808      	ldr	r0, [sp, #32]
     270:	ab06      	add	r3, sp, #24
     272:	2204      	movs	r2, #4
     274:	a905      	add	r1, sp, #20
     276:	f002 fcf7 	bl	2c68 <TEE_ReadObjectData>
/home/dangcaominh/STM32MP1/optee-os/optee-os/ta/avb/entry.c:237
     27a:	4604      	mov	r4, r0
     27c:	2800      	cmp	r0, #0
     27e:	d1e8      	bne.n	252 <TA_InvokeCommandEntryPoint+0x186>
/home/dangcaominh/STM32MP1/optee-os/optee-os/ta/avb/entry.c:239
     280:	9b06      	ldr	r3, [sp, #24]
     282:	2b04      	cmp	r3, #4
     284:	d103      	bne.n	28e <TA_InvokeCommandEntryPoint+0x1c2>
/home/dangcaominh/STM32MP1/optee-os/optee-os/ta/avb/entry.c:239 (discriminator 1)
     286:	e9dd 3204 	ldrd	r3, r2, [sp, #16]
     28a:	429a      	cmp	r2, r3
     28c:	d0e1      	beq.n	252 <TA_InvokeCommandEntryPoint+0x186>
/home/dangcaominh/STM32MP1/optee-os/optee-os/ta/avb/entry.c:242
     28e:	9808      	ldr	r0, [sp, #32]
     290:	2300      	movs	r3, #0
     292:	9300      	str	r3, [sp, #0]
     294:	2200      	movs	r2, #0
     296:	2300      	movs	r3, #0
     298:	f002 fd9e 	bl	2dd8 <TEE_SeekObjectData>
/home/dangcaominh/STM32MP1/optee-os/optee-os/ta/avb/entry.c:243
     29c:	4604      	mov	r4, r0
     29e:	2800      	cmp	r0, #0
     2a0:	d1d7      	bne.n	252 <TA_InvokeCommandEntryPoint+0x186>
/home/dangcaominh/STM32MP1/optee-os/optee-os/ta/avb/entry.c:246
     2a2:	9808      	ldr	r0, [sp, #32]
     2a4:	2204      	movs	r2, #4
     2a6:	a904      	add	r1, sp, #16
     2a8:	f002 fd56 	bl	2d58 <TEE_WriteObjectData>
     2ac:	4604      	mov	r4, r0
     2ae:	e7d0      	b.n	252 <TA_InvokeCommandEntryPoint+0x186>
read_persist_value():
/home/dangcaominh/STM32MP1/optee-os/optee-os/ta/avb/entry.c:321
     2b0:	2c75      	cmp	r4, #117	@ 0x75
/home/dangcaominh/STM32MP1/optee-os/optee-os/ta/avb/entry.c:312
     2b2:	f04f 0100 	mov.w	r1, #0
     2b6:	9105      	str	r1, [sp, #20]
/home/dangcaominh/STM32MP1/optee-os/optee-os/ta/avb/entry.c:314
     2b8:	9106      	str	r1, [sp, #24]
/home/dangcaominh/STM32MP1/optee-os/optee-os/ta/avb/entry.c:319
     2ba:	9108      	str	r1, [sp, #32]
/home/dangcaominh/STM32MP1/optee-os/optee-os/ta/avb/entry.c:321
     2bc:	f040 808e 	bne.w	3dc <TA_InvokeCommandEntryPoint+0x310>
/home/dangcaominh/STM32MP1/optee-os/optee-os/ta/avb/entry.c:326
     2c0:	68ef      	ldr	r7, [r5, #12]
/home/dangcaominh/STM32MP1/optee-os/optee-os/ta/avb/entry.c:325
     2c2:	e9d5 4900 	ldrd	r4, r9, [r5]
/home/dangcaominh/STM32MP1/optee-os/optee-os/ta/avb/entry.c:327
     2c6:	4638      	mov	r0, r7
     2c8:	f001 fc4b 	bl	1b62 <TEE_Malloc>
/home/dangcaominh/STM32MP1/optee-os/optee-os/ta/avb/entry.c:328
     2cc:	4606      	mov	r6, r0
     2ce:	2800      	cmp	r0, #0
     2d0:	f000 8086 	beq.w	3e0 <TA_InvokeCommandEntryPoint+0x314>
/home/dangcaominh/STM32MP1/optee-os/optee-os/ta/avb/entry.c:331
     2d4:	f10d 082c 	add.w	r8, sp, #44	@ 0x2c
     2d8:	4620      	mov	r0, r4
     2da:	ab06      	add	r3, sp, #24
     2dc:	4642      	mov	r2, r8
     2de:	4649      	mov	r1, r9
     2e0:	f7ff fecc 	bl	7c <get_named_object_name.constprop.0>
/home/dangcaominh/STM32MP1/optee-os/optee-os/ta/avb/entry.c:333
     2e4:	4604      	mov	r4, r0
     2e6:	b9b0      	cbnz	r0, 316 <TA_InvokeCommandEntryPoint+0x24a>
/home/dangcaominh/STM32MP1/optee-os/optee-os/ta/avb/entry.c:336
     2e8:	9a06      	ldr	r2, [sp, #24]
     2ea:	ab05      	add	r3, sp, #20
     2ec:	9300      	str	r3, [sp, #0]
     2ee:	4641      	mov	r1, r8
     2f0:	4848      	ldr	r0, [pc, #288]	@ (414 <TA_InvokeCommandEntryPoint+0x348>)
     2f2:	2303      	movs	r3, #3
     2f4:	f002 fa68 	bl	27c8 <TEE_OpenPersistentObject>
/home/dangcaominh/STM32MP1/optee-os/optee-os/ta/avb/entry.c:338
     2f8:	4604      	mov	r4, r0
     2fa:	b180      	cbz	r0, 31e <TA_InvokeCommandEntryPoint+0x252>
/home/dangcaominh/STM32MP1/optee-os/optee-os/ta/avb/entry.c:339
     2fc:	4b4c      	ldr	r3, [pc, #304]	@ (430 <TA_InvokeCommandEntryPoint+0x364>)
     2fe:	f240 1153 	movw	r1, #339	@ 0x153
     302:	9001      	str	r0, [sp, #4]
     304:	484b      	ldr	r0, [pc, #300]	@ (434 <TA_InvokeCommandEntryPoint+0x368>)
     306:	447b      	add	r3, pc
     308:	4478      	add	r0, pc
     30a:	9300      	str	r3, [sp, #0]
     30c:	2301      	movs	r3, #1
     30e:	461a      	mov	r2, r3
     310:	3009      	adds	r0, #9
     312:	f000 f9bd 	bl	690 <trace_printf>
write_persist_value():
/home/dangcaominh/STM32MP1/optee-os/optee-os/ta/avb/entry.c:297
     316:	4630      	mov	r0, r6
     318:	f001 fc7e 	bl	1c18 <TEE_Free>
/home/dangcaominh/STM32MP1/optee-os/optee-os/ta/avb/entry.c:299
     31c:	e719      	b.n	152 <TA_InvokeCommandEntryPoint+0x86>
read_persist_value():
/home/dangcaominh/STM32MP1/optee-os/optee-os/ta/avb/entry.c:343
     31e:	9805      	ldr	r0, [sp, #20]
     320:	ab08      	add	r3, sp, #32
     322:	463a      	mov	r2, r7
     324:	4631      	mov	r1, r6
     326:	f002 fc9f 	bl	2c68 <TEE_ReadObjectData>
/home/dangcaominh/STM32MP1/optee-os/optee-os/ta/avb/entry.c:344
     32a:	4604      	mov	r4, r0
     32c:	b180      	cbz	r0, 350 <TA_InvokeCommandEntryPoint+0x284>
/home/dangcaominh/STM32MP1/optee-os/optee-os/ta/avb/entry.c:345
     32e:	4b42      	ldr	r3, [pc, #264]	@ (438 <TA_InvokeCommandEntryPoint+0x36c>)
     330:	f240 1159 	movw	r1, #345	@ 0x159
     334:	9001      	str	r0, [sp, #4]
     336:	4841      	ldr	r0, [pc, #260]	@ (43c <TA_InvokeCommandEntryPoint+0x370>)
     338:	447b      	add	r3, pc
     33a:	4478      	add	r0, pc
     33c:	9300      	str	r3, [sp, #0]
     33e:	2301      	movs	r3, #1
     340:	461a      	mov	r2, r3
     342:	3009      	adds	r0, #9
     344:	f000 f9a4 	bl	690 <trace_printf>
/home/dangcaominh/STM32MP1/optee-os/optee-os/ta/avb/entry.c:354
     348:	9805      	ldr	r0, [sp, #20]
write_persist_value():
/home/dangcaominh/STM32MP1/optee-os/optee-os/ta/avb/entry.c:295
     34a:	f001 ff5d 	bl	2208 <TEE_CloseObject>
     34e:	e7e2      	b.n	316 <TA_InvokeCommandEntryPoint+0x24a>
read_persist_value():
/home/dangcaominh/STM32MP1/optee-os/optee-os/ta/avb/entry.c:349
     350:	68a8      	ldr	r0, [r5, #8]
     352:	463a      	mov	r2, r7
     354:	4631      	mov	r1, r6
     356:	f001 fba1 	bl	1a9c <TEE_MemMove>
/home/dangcaominh/STM32MP1/optee-os/optee-os/ta/avb/entry.c:352
     35a:	9b08      	ldr	r3, [sp, #32]
     35c:	60eb      	str	r3, [r5, #12]
     35e:	e7f3      	b.n	348 <TA_InvokeCommandEntryPoint+0x27c>
write_persist_value():
/home/dangcaominh/STM32MP1/optee-os/optee-os/ta/avb/entry.c:262
     360:	af0b      	add	r7, sp, #44	@ 0x2c
     362:	2100      	movs	r1, #0
     364:	2240      	movs	r2, #64	@ 0x40
     366:	4638      	mov	r0, r7
     368:	f009 fde6 	bl	9f38 <memset>
/home/dangcaominh/STM32MP1/optee-os/optee-os/ta/avb/entry.c:271
     36c:	2c55      	cmp	r4, #85	@ 0x55
/home/dangcaominh/STM32MP1/optee-os/optee-os/ta/avb/entry.c:263
     36e:	f04f 0100 	mov.w	r1, #0
     372:	9106      	str	r1, [sp, #24]
/home/dangcaominh/STM32MP1/optee-os/optee-os/ta/avb/entry.c:265
     374:	9108      	str	r1, [sp, #32]
/home/dangcaominh/STM32MP1/optee-os/optee-os/ta/avb/entry.c:271
     376:	d131      	bne.n	3dc <TA_InvokeCommandEntryPoint+0x310>
/home/dangcaominh/STM32MP1/optee-os/optee-os/ta/avb/entry.c:276
     378:	f8d5 800c 	ldr.w	r8, [r5, #12]
/home/dangcaominh/STM32MP1/optee-os/optee-os/ta/avb/entry.c:275
     37c:	e9d5 4900 	ldrd	r4, r9, [r5]
/home/dangcaominh/STM32MP1/optee-os/optee-os/ta/avb/entry.c:277
     380:	4640      	mov	r0, r8
     382:	f001 fbee 	bl	1b62 <TEE_Malloc>
/home/dangcaominh/STM32MP1/optee-os/optee-os/ta/avb/entry.c:278
     386:	4606      	mov	r6, r0
     388:	b350      	cbz	r0, 3e0 <TA_InvokeCommandEntryPoint+0x314>
/home/dangcaominh/STM32MP1/optee-os/optee-os/ta/avb/entry.c:281
     38a:	68a9      	ldr	r1, [r5, #8]
     38c:	4642      	mov	r2, r8
     38e:	f001 fb85 	bl	1a9c <TEE_MemMove>
/home/dangcaominh/STM32MP1/optee-os/optee-os/ta/avb/entry.c:283
     392:	4620      	mov	r0, r4
     394:	ab08      	add	r3, sp, #32
     396:	463a      	mov	r2, r7
     398:	4649      	mov	r1, r9
     39a:	f7ff fe6f 	bl	7c <get_named_object_name.constprop.0>
/home/dangcaominh/STM32MP1/optee-os/optee-os/ta/avb/entry.c:285
     39e:	4604      	mov	r4, r0
     3a0:	2800      	cmp	r0, #0
     3a2:	d1b8      	bne.n	316 <TA_InvokeCommandEntryPoint+0x24a>
/home/dangcaominh/STM32MP1/optee-os/optee-os/ta/avb/entry.c:288
     3a4:	9a08      	ldr	r2, [sp, #32]
     3a6:	ab06      	add	r3, sp, #24
     3a8:	9303      	str	r3, [sp, #12]
     3aa:	4639      	mov	r1, r7
     3ac:	e88d 0150 	stmia.w	sp, {r4, r6, r8}
     3b0:	4818      	ldr	r0, [pc, #96]	@ (414 <TA_InvokeCommandEntryPoint+0x348>)
     3b2:	f240 4303 	movw	r3, #1027	@ 0x403
     3b6:	f002 fa5b 	bl	2870 <TEE_CreatePersistentObject>
/home/dangcaominh/STM32MP1/optee-os/optee-os/ta/avb/entry.c:292
     3ba:	4604      	mov	r4, r0
     3bc:	b160      	cbz	r0, 3d8 <TA_InvokeCommandEntryPoint+0x30c>
/home/dangcaominh/STM32MP1/optee-os/optee-os/ta/avb/entry.c:293
     3be:	4b20      	ldr	r3, [pc, #128]	@ (440 <TA_InvokeCommandEntryPoint+0x374>)
     3c0:	f240 1125 	movw	r1, #293	@ 0x125
     3c4:	9001      	str	r0, [sp, #4]
     3c6:	481f      	ldr	r0, [pc, #124]	@ (444 <TA_InvokeCommandEntryPoint+0x378>)
     3c8:	447b      	add	r3, pc
     3ca:	4478      	add	r0, pc
     3cc:	9300      	str	r3, [sp, #0]
     3ce:	2301      	movs	r3, #1
     3d0:	461a      	mov	r2, r3
     3d2:	301c      	adds	r0, #28
     3d4:	f000 f95c 	bl	690 <trace_printf>
/home/dangcaominh/STM32MP1/optee-os/optee-os/ta/avb/entry.c:295
     3d8:	9806      	ldr	r0, [sp, #24]
     3da:	e7b6      	b.n	34a <TA_InvokeCommandEntryPoint+0x27e>
/home/dangcaominh/STM32MP1/optee-os/optee-os/ta/avb/entry.c:272
     3dc:	4c0e      	ldr	r4, [pc, #56]	@ (418 <TA_InvokeCommandEntryPoint+0x34c>)
     3de:	e6b8      	b.n	152 <TA_InvokeCommandEntryPoint+0x86>
/home/dangcaominh/STM32MP1/optee-os/optee-os/ta/avb/entry.c:279
     3e0:	4c0e      	ldr	r4, [pc, #56]	@ (41c <TA_InvokeCommandEntryPoint+0x350>)
TA_InvokeCommandEntryPoint():
/home/dangcaominh/STM32MP1/optee-os/optee-os/ta/avb/entry.c:397
     3e2:	e6b6      	b.n	152 <TA_InvokeCommandEntryPoint+0x86>
/home/dangcaominh/STM32MP1/optee-os/optee-os/ta/avb/entry.c:399
     3e4:	4b18      	ldr	r3, [pc, #96]	@ (448 <TA_InvokeCommandEntryPoint+0x37c>)
     3e6:	4819      	ldr	r0, [pc, #100]	@ (44c <TA_InvokeCommandEntryPoint+0x380>)
     3e8:	447b      	add	r3, pc
     3ea:	9300      	str	r3, [sp, #0]
     3ec:	2301      	movs	r3, #1
     3ee:	4478      	add	r0, pc
     3f0:	461a      	mov	r2, r3
     3f2:	9101      	str	r1, [sp, #4]
     3f4:	3030      	adds	r0, #48	@ 0x30
/home/dangcaominh/STM32MP1/optee-os/optee-os/ta/avb/entry.c:400
     3f6:	4c0a      	ldr	r4, [pc, #40]	@ (420 <TA_InvokeCommandEntryPoint+0x354>)
/home/dangcaominh/STM32MP1/optee-os/optee-os/ta/avb/entry.c:399
     3f8:	f240 118f 	movw	r1, #399	@ 0x18f
     3fc:	f000 f948 	bl	690 <trace_printf>
/home/dangcaominh/STM32MP1/optee-os/optee-os/ta/avb/entry.c:400
     400:	e6a7      	b.n	152 <TA_InvokeCommandEntryPoint+0x86>
/home/dangcaominh/STM32MP1/optee-os/optee-os/ta/avb/entry.c:402
     402:	4620      	mov	r0, r4
     404:	b01d      	add	sp, #116	@ 0x74
     406:	e8bd 83f0 	ldmia.w	sp!, {r4, r5, r6, r7, r8, r9, pc}
     40a:	bf00      	nop
     40c:	ffff000f 	.word	0xffff000f
     410:	f0100001 	.word	0xf0100001
     414:	80000100 	.word	0x80000100
     418:	ffff0006 	.word	0xffff0006
     41c:	ffff000c 	.word	0xffff000c
     420:	ffff000a 	.word	0xffff000a
     424:	0000bfaa 	.word	0x0000bfaa
     428:	0000000c 	.word	0x0000000c
     42c:	0000bf2e 	.word	0x0000bf2e
     430:	00009ea7 	.word	0x00009ea7
     434:	0000aafd 	.word	0x0000aafd
     438:	00009e9f 	.word	0x00009e9f
     43c:	0000aacb 	.word	0x0000aacb
     440:	00009e39 	.word	0x00009e39
     444:	0000aa3b 	.word	0x0000aa3b
     448:	00009e45 	.word	0x00009e45
     44c:	0000aa17 	.word	0x0000aa17

00000450 <__ta_entry_c>:
__ta_entry_c():
/home/dangcaominh/STM32MP1/optee-os/optee-os/../build/optee-stm32mp157d-dk1/export-ta_arm32/src/user_ta_header.c:55
     450:	f8df 805c 	ldr.w	r8, [pc, #92]	@ 4b0 <__ta_entry_c+0x60>
/home/dangcaominh/STM32MP1/optee-os/optee-os/../build/optee-stm32mp157d-dk1/export-ta_arm32/src/user_ta_header.c:51
     454:	4616      	mov	r6, r2
     456:	4a17      	ldr	r2, [pc, #92]	@ (4b4 <__ta_entry_c+0x64>)
     458:	4604      	mov	r4, r0
     45a:	b583      	push	{r0, r1, r7, lr}
     45c:	461f      	mov	r7, r3
     45e:	447a      	add	r2, pc
     460:	460d      	mov	r5, r1
     462:	4b15      	ldr	r3, [pc, #84]	@ (4b8 <__ta_entry_c+0x68>)
/home/dangcaominh/STM32MP1/optee-os/optee-os/../build/optee-stm32mp157d-dk1/export-ta_arm32/src/user_ta_header.c:55
     464:	44f8      	add	r8, pc
/home/dangcaominh/STM32MP1/optee-os/optee-os/../build/optee-stm32mp157d-dk1/export-ta_arm32/src/user_ta_header.c:51
     466:	58d3      	ldr	r3, [r2, r3]
     468:	f8df 9050 	ldr.w	r9, [pc, #80]	@ 4bc <__ta_entry_c+0x6c>
     46c:	681b      	ldr	r3, [r3, #0]
     46e:	9301      	str	r3, [sp, #4]
     470:	f04f 0300 	mov.w	r3, #0
/home/dangcaominh/STM32MP1/optee-os/optee-os/../build/optee-stm32mp157d-dk1/export-ta_arm32/src/user_ta_header.c:55
     474:	f898 3000 	ldrb.w	r3, [r8]
/home/dangcaominh/STM32MP1/optee-os/optee-os/../build/optee-stm32mp157d-dk1/export-ta_arm32/src/user_ta_header.c:51
     478:	44f9      	add	r9, pc
/home/dangcaominh/STM32MP1/optee-os/optee-os/../build/optee-stm32mp157d-dk1/export-ta_arm32/src/user_ta_header.c:55
     47a:	b98b      	cbnz	r3, 4a0 <__ta_entry_c+0x50>
/home/dangcaominh/STM32MP1/optee-os/optee-os/../build/optee-stm32mp157d-dk1/export-ta_arm32/src/user_ta_header.c:56
     47c:	9300      	str	r3, [sp, #0]
/home/dangcaominh/STM32MP1/optee-os/optee-os/../build/optee-stm32mp157d-dk1/export-ta_arm32/src/user_ta_header.c:58
     47e:	2104      	movs	r1, #4
     480:	4668      	mov	r0, sp
     482:	f003 ea9c 	blx	39bc <_utee_cryp_random_number_generate>
/home/dangcaominh/STM32MP1/optee-os/optee-os/../build/optee-stm32mp157d-dk1/export-ta_arm32/src/user_ta_header.c:60
     486:	b108      	cbz	r0, 48c <__ta_entry_c+0x3c>
/home/dangcaominh/STM32MP1/optee-os/optee-os/../build/optee-stm32mp157d-dk1/export-ta_arm32/src/user_ta_header.c:81
     488:	f003 e940 	blx	370c <_utee_return>
/home/dangcaominh/STM32MP1/optee-os/optee-os/../build/optee-stm32mp157d-dk1/export-ta_arm32/src/user_ta_header.c:66
     48c:	4b0a      	ldr	r3, [pc, #40]	@ (4b8 <__ta_entry_c+0x68>)
     48e:	f859 2003 	ldr.w	r2, [r9, r3]
/home/dangcaominh/STM32MP1/optee-os/optee-os/../build/optee-stm32mp157d-dk1/export-ta_arm32/src/user_ta_header.c:64
     492:	9b00      	ldr	r3, [sp, #0]
     494:	f023 03ff 	bic.w	r3, r3, #255	@ 0xff
/home/dangcaominh/STM32MP1/optee-os/optee-os/../build/optee-stm32mp157d-dk1/export-ta_arm32/src/user_ta_header.c:66
     498:	6013      	str	r3, [r2, #0]
/home/dangcaominh/STM32MP1/optee-os/optee-os/../build/optee-stm32mp157d-dk1/export-ta_arm32/src/user_ta_header.c:67
     49a:	2301      	movs	r3, #1
     49c:	f888 3000 	strb.w	r3, [r8]
/home/dangcaominh/STM32MP1/optee-os/optee-os/../build/optee-stm32mp157d-dk1/export-ta_arm32/src/user_ta_header.c:70
     4a0:	463b      	mov	r3, r7
     4a2:	4632      	mov	r2, r6
     4a4:	4629      	mov	r1, r5
     4a6:	4620      	mov	r0, r4
     4a8:	f003 f810 	bl	34cc <__utee_entry>
     4ac:	e7ec      	b.n	488 <__ta_entry_c+0x38>
     4ae:	bf00      	nop
     4b0:	0000f7a8 	.word	0x0000f7a8
     4b4:	0000bc26 	.word	0x0000bc26
     4b8:	0000000c 	.word	0x0000000c
     4bc:	0000bc0c 	.word	0x0000bc0c

000004c0 <tahead_get_trace_level>:
tahead_get_trace_level():
/home/dangcaominh/STM32MP1/optee-os/optee-os/../build/optee-stm32mp157d-dk1/export-ta_arm32/src/user_ta_header.c:193
     4c0:	2001      	movs	r0, #1
     4c2:	4770      	bx	lr

000004c4 <__ta_entry>:
__ta_entry():
/home/dangcaominh/STM32MP1/optee-os/optee-os/../build/optee-stm32mp157d-dk1/export-ta_arm32/src/ta_entry_a32.S:22
     4c4:	faffffe1 	blx	450 <__ta_entry_c>

000004c8 <__stack_chk_fail>:
__stack_chk_fail():
/home/dangcaominh/STM32MP1/optee-os/optee-os/lib/libutils/isoc/stack_check.c:25
     4c8:	4b08      	ldr	r3, [pc, #32]	@ (4ec <__stack_chk_fail+0x24>)
/home/dangcaominh/STM32MP1/optee-os/optee-os/lib/libutils/isoc/stack_check.c:24
     4ca:	b507      	push	{r0, r1, r2, lr}
/home/dangcaominh/STM32MP1/optee-os/optee-os/lib/libutils/isoc/stack_check.c:25
     4cc:	2100      	movs	r1, #0
     4ce:	447b      	add	r3, pc
     4d0:	4608      	mov	r0, r1
     4d2:	9300      	str	r3, [sp, #0]
     4d4:	2301      	movs	r3, #1
/home/dangcaominh/STM32MP1/optee-os/optee-os/lib/libutils/isoc/stack_check.c:27 (discriminator 1)
     4d6:	4c04      	ldr	r4, [pc, #16]	@ (4e8 <__stack_chk_fail+0x20>)
/home/dangcaominh/STM32MP1/optee-os/optee-os/lib/libutils/isoc/stack_check.c:25
     4d8:	461a      	mov	r2, r3
     4da:	f000 f8d9 	bl	690 <trace_printf>
/home/dangcaominh/STM32MP1/optee-os/optee-os/lib/libutils/isoc/stack_check.c:27 (discriminator 1)
     4de:	4620      	mov	r0, r4
     4e0:	f003 e90a 	blx	36f8 <_utee_panic>
/home/dangcaominh/STM32MP1/optee-os/optee-os/lib/libutils/isoc/stack_check.c:26
     4e4:	e7fb      	b.n	4de <__stack_chk_fail+0x16>
     4e6:	bf00      	nop
     4e8:	ffff300f 	.word	0xffff300f
     4ec:	00009e65 	.word	0x00009e65

000004f0 <trace_set_level>:
trace_set_level():
/home/dangcaominh/STM32MP1/optee-os/optee-os/lib/libutils/ext/trace.c:24
     4f0:	4b04      	ldr	r3, [pc, #16]	@ (504 <trace_set_level+0x14>)
/home/dangcaominh/STM32MP1/optee-os/optee-os/lib/libutils/ext/trace.c:28
     4f2:	2805      	cmp	r0, #5
     4f4:	4a04      	ldr	r2, [pc, #16]	@ (508 <trace_set_level+0x18>)
     4f6:	bf28      	it	cs
     4f8:	2004      	movcs	r0, #4
/home/dangcaominh/STM32MP1/optee-os/optee-os/lib/libutils/ext/trace.c:24
     4fa:	447b      	add	r3, pc
     4fc:	589b      	ldr	r3, [r3, r2]
     4fe:	6018      	str	r0, [r3, #0]
/home/dangcaominh/STM32MP1/optee-os/optee-os/lib/libutils/ext/trace.c:29
     500:	4770      	bx	lr
     502:	bf00      	nop
     504:	0000bb8a 	.word	0x0000bb8a
     508:	0000001c 	.word	0x0000001c

0000050c <trace_get_level>:
trace_get_level():
/home/dangcaominh/STM32MP1/optee-os/optee-os/lib/libutils/ext/trace.c:32
     50c:	4b02      	ldr	r3, [pc, #8]	@ (518 <trace_get_level+0xc>)
/home/dangcaominh/STM32MP1/optee-os/optee-os/lib/libutils/ext/trace.c:33
     50e:	4a03      	ldr	r2, [pc, #12]	@ (51c <trace_get_level+0x10>)
/home/dangcaominh/STM32MP1/optee-os/optee-os/lib/libutils/ext/trace.c:32
     510:	447b      	add	r3, pc
/home/dangcaominh/STM32MP1/optee-os/optee-os/lib/libutils/ext/trace.c:33
     512:	589b      	ldr	r3, [r3, r2]
/home/dangcaominh/STM32MP1/optee-os/optee-os/lib/libutils/ext/trace.c:34
     514:	6818      	ldr	r0, [r3, #0]
     516:	4770      	bx	lr
     518:	0000bb74 	.word	0x0000bb74
     51c:	0000001c 	.word	0x0000001c

00000520 <trace_vprintf>:
trace_vprintf():
/home/dangcaominh/STM32MP1/optee-os/optee-os/lib/libutils/ext/trace.c:113
     520:	e92d 4ff0 	stmdb	sp!, {r4, r5, r6, r7, r8, r9, sl, fp, lr}
     524:	4688      	mov	r8, r1
     526:	494d      	ldr	r1, [pc, #308]	@ (65c <trace_vprintf+0x13c>)
     528:	4614      	mov	r4, r2
     52a:	4a4d      	ldr	r2, [pc, #308]	@ (660 <trace_vprintf+0x140>)
     52c:	b0c7      	sub	sp, #284	@ 0x11c
     52e:	4479      	add	r1, pc
     530:	4607      	mov	r7, r0
     532:	4e4c      	ldr	r6, [pc, #304]	@ (664 <trace_vprintf+0x144>)
/home/dangcaominh/STM32MP1/optee-os/optee-os/lib/libutils/ext/trace.c:118
     534:	469b      	mov	fp, r3
/home/dangcaominh/STM32MP1/optee-os/optee-os/lib/libutils/ext/trace.c:113
     536:	588a      	ldr	r2, [r1, r2]
     538:	447e      	add	r6, pc
     53a:	f8dd 9140 	ldr.w	r9, [sp, #320]	@ 0x140
     53e:	6812      	ldr	r2, [r2, #0]
     540:	9245      	str	r2, [sp, #276]	@ 0x114
     542:	f04f 0200 	mov.w	r2, #0
/home/dangcaominh/STM32MP1/optee-os/optee-os/lib/libutils/ext/trace.c:118
     546:	2b00      	cmp	r3, #0
     548:	d072      	beq.n	630 <trace_vprintf+0x110>
/home/dangcaominh/STM32MP1/optee-os/optee-os/lib/libutils/ext/trace.c:118 (discriminator 1)
     54a:	4b47      	ldr	r3, [pc, #284]	@ (668 <trace_vprintf+0x148>)
     54c:	58f3      	ldr	r3, [r6, r3]
     54e:	681b      	ldr	r3, [r3, #0]
     550:	42a3      	cmp	r3, r4
     552:	db61      	blt.n	618 <trace_vprintf+0xf8>
trace_level_to_string():
/home/dangcaominh/STM32MP1/optee-os/optee-os/lib/libutils/ext/trace.c:54
     554:	4a45      	ldr	r2, [pc, #276]	@ (66c <trace_vprintf+0x14c>)
/home/dangcaominh/STM32MP1/optee-os/optee-os/lib/libutils/ext/trace.c:46
     556:	2c05      	cmp	r4, #5
     558:	bf34      	ite	cc
     55a:	4623      	movcc	r3, r4
     55c:	2300      	movcs	r3, #0
/home/dangcaominh/STM32MP1/optee-os/optee-os/lib/libutils/ext/trace.c:54
     55e:	447a      	add	r2, pc
     560:	5cd3      	ldrb	r3, [r2, r3]
trace_vprintf():
/home/dangcaominh/STM32MP1/optee-os/optee-os/lib/libutils/ext/trace.c:122
     562:	4a43      	ldr	r2, [pc, #268]	@ (670 <trace_vprintf+0x150>)
     564:	ad05      	add	r5, sp, #20
     566:	f44f 7180 	mov.w	r1, #256	@ 0x100
     56a:	4628      	mov	r0, r5
     56c:	447a      	add	r2, pc
     56e:	f000 f8f0 	bl	752 <snprintk>
/home/dangcaominh/STM32MP1/optee-os/optee-os/lib/libutils/ext/trace.c:124
     572:	f1b0 0a00 	subs.w	sl, r0, #0
     576:	db4f      	blt.n	618 <trace_vprintf+0xf8>
/home/dangcaominh/STM32MP1/optee-os/optee-os/lib/libutils/ext/trace.c:129
     578:	4b3e      	ldr	r3, [pc, #248]	@ (674 <trace_vprintf+0x154>)
     57a:	f5ca 7180 	rsb	r1, sl, #256	@ 0x100
     57e:	4a3e      	ldr	r2, [pc, #248]	@ (678 <trace_vprintf+0x158>)
     580:	58f3      	ldr	r3, [r6, r3]
     582:	447a      	add	r2, pc
     584:	eb05 000a 	add.w	r0, r5, sl
     588:	9303      	str	r3, [sp, #12]
     58a:	f000 f8e2 	bl	752 <snprintk>
/home/dangcaominh/STM32MP1/optee-os/optee-os/lib/libutils/ext/trace.c:131
     58e:	2800      	cmp	r0, #0
     590:	db42      	blt.n	618 <trace_vprintf+0xf8>
/home/dangcaominh/STM32MP1/optee-os/optee-os/lib/libutils/ext/trace.c:133
     592:	eb00 060a 	add.w	r6, r0, sl
/home/dangcaominh/STM32MP1/optee-os/optee-os/lib/libutils/ext/trace.c:135
     596:	f1bb 0f00 	cmp.w	fp, #0
     59a:	d052      	beq.n	642 <trace_vprintf+0x122>
/home/dangcaominh/STM32MP1/optee-os/optee-os/lib/libutils/ext/trace.c:135 (discriminator 1)
     59c:	231a      	movs	r3, #26
     59e:	40e3      	lsrs	r3, r4
     5a0:	07db      	lsls	r3, r3, #31
     5a2:	d54e      	bpl.n	642 <trace_vprintf+0x122>
/home/dangcaominh/STM32MP1/optee-os/optee-os/lib/libutils/ext/trace.c:143
     5a4:	19ac      	adds	r4, r5, r6
print_thread_id():
/home/dangcaominh/STM32MP1/optee-os/optee-os/lib/libutils/ext/trace.c:66
     5a6:	f000 fdc7 	bl	1138 <trace_ext_get_thread_id>
/home/dangcaominh/STM32MP1/optee-os/optee-os/lib/libutils/ext/trace.c:68
     5aa:	2800      	cmp	r0, #0
trace_vprintf():
/home/dangcaominh/STM32MP1/optee-os/optee-os/lib/libutils/ext/trace.c:143
     5ac:	f5c6 7a80 	rsb	sl, r6, #256	@ 0x100
print_thread_id():
/home/dangcaominh/STM32MP1/optee-os/optee-os/lib/libutils/ext/trace.c:68
     5b0:	db40      	blt.n	634 <trace_vprintf+0x114>
/home/dangcaominh/STM32MP1/optee-os/optee-os/lib/libutils/ext/trace.c:69
     5b2:	4a32      	ldr	r2, [pc, #200]	@ (67c <trace_vprintf+0x15c>)
     5b4:	2301      	movs	r3, #1
     5b6:	9000      	str	r0, [sp, #0]
     5b8:	447a      	add	r2, pc
/home/dangcaominh/STM32MP1/optee-os/optee-os/lib/libutils/ext/trace.c:71
     5ba:	4651      	mov	r1, sl
     5bc:	4620      	mov	r0, r4
     5be:	f000 f8c8 	bl	752 <snprintk>
trace_vprintf():
/home/dangcaominh/STM32MP1/optee-os/optee-os/lib/libutils/ext/trace.c:144
     5c2:	2800      	cmp	r0, #0
     5c4:	db28      	blt.n	618 <trace_vprintf+0xf8>
/home/dangcaominh/STM32MP1/optee-os/optee-os/lib/libutils/ext/trace.c:146
     5c6:	1984      	adds	r4, r0, r6
/home/dangcaominh/STM32MP1/optee-os/optee-os/lib/libutils/ext/trace.c:148
     5c8:	b167      	cbz	r7, 5e4 <trace_vprintf+0xc4>
/home/dangcaominh/STM32MP1/optee-os/optee-os/lib/libutils/ext/trace.c:149
     5ca:	4a2d      	ldr	r2, [pc, #180]	@ (680 <trace_vprintf+0x160>)
     5cc:	463b      	mov	r3, r7
     5ce:	1928      	adds	r0, r5, r4
     5d0:	f5c4 7180 	rsb	r1, r4, #256	@ 0x100
     5d4:	447a      	add	r2, pc
     5d6:	f8cd 8000 	str.w	r8, [sp]
     5da:	f000 f8ba 	bl	752 <snprintk>
/home/dangcaominh/STM32MP1/optee-os/optee-os/lib/libutils/ext/trace.c:151
     5de:	2800      	cmp	r0, #0
     5e0:	db1a      	blt.n	618 <trace_vprintf+0xf8>
/home/dangcaominh/STM32MP1/optee-os/optee-os/lib/libutils/ext/trace.c:153
     5e2:	4404      	add	r4, r0
/home/dangcaominh/STM32MP1/optee-os/optee-os/lib/libutils/ext/trace.c:163
     5e4:	1928      	adds	r0, r5, r4
     5e6:	f5c4 7180 	rsb	r1, r4, #256	@ 0x100
     5ea:	9b51      	ldr	r3, [sp, #324]	@ 0x144
     5ec:	464a      	mov	r2, r9
     5ee:	f000 f8a9 	bl	744 <vsnprintk>
/home/dangcaominh/STM32MP1/optee-os/optee-os/lib/libutils/ext/trace.c:164
     5f2:	2800      	cmp	r0, #0
/home/dangcaominh/STM32MP1/optee-os/optee-os/lib/libutils/ext/trace.c:170
     5f4:	f04f 030a 	mov.w	r3, #10
/home/dangcaominh/STM32MP1/optee-os/optee-os/lib/libutils/ext/trace.c:165
     5f8:	bfc8      	it	gt
     5fa:	1824      	addgt	r4, r4, r0
/home/dangcaominh/STM32MP1/optee-os/optee-os/lib/libutils/ext/trace.c:167
     5fc:	2cfe      	cmp	r4, #254	@ 0xfe
     5fe:	bf28      	it	cs
     600:	24fe      	movcs	r4, #254	@ 0xfe
/home/dangcaominh/STM32MP1/optee-os/optee-os/lib/libutils/ext/trace.c:170
     602:	552b      	strb	r3, [r5, r4]
/home/dangcaominh/STM32MP1/optee-os/optee-os/lib/libutils/ext/trace.c:171
     604:	b114      	cbz	r4, 60c <trace_vprintf+0xec>
/home/dangcaominh/STM32MP1/optee-os/optee-os/lib/libutils/ext/trace.c:171 (discriminator 1)
     606:	5d2b      	ldrb	r3, [r5, r4]
     608:	2b0a      	cmp	r3, #10
     60a:	d022      	beq.n	652 <trace_vprintf+0x132>
/home/dangcaominh/STM32MP1/optee-os/optee-os/lib/libutils/ext/trace.c:174
     60c:	442c      	add	r4, r5
     60e:	2300      	movs	r3, #0
/home/dangcaominh/STM32MP1/optee-os/optee-os/lib/libutils/ext/trace.c:176
     610:	4628      	mov	r0, r5
/home/dangcaominh/STM32MP1/optee-os/optee-os/lib/libutils/ext/trace.c:174
     612:	70a3      	strb	r3, [r4, #2]
/home/dangcaominh/STM32MP1/optee-os/optee-os/lib/libutils/ext/trace.c:176
     614:	f000 fd86 	bl	1124 <trace_ext_puts>
/home/dangcaominh/STM32MP1/optee-os/optee-os/lib/libutils/ext/trace.c:113
     618:	4a1a      	ldr	r2, [pc, #104]	@ (684 <trace_vprintf+0x164>)
/home/dangcaominh/STM32MP1/optee-os/optee-os/lib/libutils/ext/trace.c:177
     61a:	4b11      	ldr	r3, [pc, #68]	@ (660 <trace_vprintf+0x140>)
/home/dangcaominh/STM32MP1/optee-os/optee-os/lib/libutils/ext/trace.c:113
     61c:	447a      	add	r2, pc
/home/dangcaominh/STM32MP1/optee-os/optee-os/lib/libutils/ext/trace.c:177
     61e:	58d3      	ldr	r3, [r2, r3]
     620:	681a      	ldr	r2, [r3, #0]
     622:	9b45      	ldr	r3, [sp, #276]	@ 0x114
     624:	405a      	eors	r2, r3
     626:	f04f 0300 	mov.w	r3, #0
     62a:	d014      	beq.n	656 <trace_vprintf+0x136>
     62c:	f7ff ff4c 	bl	4c8 <__stack_chk_fail>
trace_level_to_string():
/home/dangcaominh/STM32MP1/optee-os/optee-os/lib/libutils/ext/trace.c:49
     630:	234d      	movs	r3, #77	@ 0x4d
     632:	e796      	b.n	562 <trace_vprintf+0x42>
print_thread_id():
/home/dangcaominh/STM32MP1/optee-os/optee-os/lib/libutils/ext/trace.c:71
     634:	4b14      	ldr	r3, [pc, #80]	@ (688 <trace_vprintf+0x168>)
     636:	4a15      	ldr	r2, [pc, #84]	@ (68c <trace_vprintf+0x16c>)
     638:	447b      	add	r3, pc
     63a:	9300      	str	r3, [sp, #0]
     63c:	2301      	movs	r3, #1
     63e:	447a      	add	r2, pc
     640:	e7bb      	b.n	5ba <trace_vprintf+0x9a>
trace_vprintf():
/home/dangcaominh/STM32MP1/optee-os/optee-os/lib/libutils/ext/trace.c:157
     642:	2efe      	cmp	r6, #254	@ 0xfe
     644:	d8e8      	bhi.n	618 <trace_vprintf+0xf8>
/home/dangcaominh/STM32MP1/optee-os/optee-os/lib/libutils/ext/trace.c:159
     646:	2320      	movs	r3, #32
     648:	1c74      	adds	r4, r6, #1
     64a:	55ab      	strb	r3, [r5, r6]
/home/dangcaominh/STM32MP1/optee-os/optee-os/lib/libutils/ext/trace.c:160
     64c:	2300      	movs	r3, #0
     64e:	552b      	strb	r3, [r5, r4]
     650:	e7c8      	b.n	5e4 <trace_vprintf+0xc4>
/home/dangcaominh/STM32MP1/optee-os/optee-os/lib/libutils/ext/trace.c:172
     652:	3c01      	subs	r4, #1
     654:	e7d6      	b.n	604 <trace_vprintf+0xe4>
/home/dangcaominh/STM32MP1/optee-os/optee-os/lib/libutils/ext/trace.c:177
     656:	b047      	add	sp, #284	@ 0x11c
     658:	e8bd 8ff0 	ldmia.w	sp!, {r4, r5, r6, r7, r8, r9, sl, fp, pc}
     65c:	0000bb56 	.word	0x0000bb56
     660:	0000000c 	.word	0x0000000c
     664:	0000bb4c 	.word	0x0000bb4c
     668:	0000001c 	.word	0x0000001c
     66c:	0000a8f2 	.word	0x0000a8f2
     670:	00009ddf 	.word	0x00009ddf
     674:	00000024 	.word	0x00000024
     678:	00009dcd 	.word	0x00009dcd
     67c:	00009d9b 	.word	0x00009d9b
     680:	00009d8a 	.word	0x00009d8a
     684:	0000ba68 	.word	0x0000ba68
     688:	0000a48a 	.word	0x0000a48a
     68c:	00009d1b 	.word	0x00009d1b

00000690 <trace_printf>:
trace_printf():
/home/dangcaominh/STM32MP1/optee-os/optee-os/lib/libutils/ext/trace.c:104
     690:	b5f0      	push	{r4, r5, r6, r7, lr}
     692:	b085      	sub	sp, #20
     694:	4f0e      	ldr	r7, [pc, #56]	@ (6d0 <trace_printf+0x40>)
     696:	ac0a      	add	r4, sp, #40	@ 0x28
     698:	4e0e      	ldr	r6, [pc, #56]	@ (6d4 <trace_printf+0x44>)
     69a:	447f      	add	r7, pc
     69c:	f854 5b04 	ldr.w	r5, [r4], #4
     6a0:	59be      	ldr	r6, [r7, r6]
     6a2:	6836      	ldr	r6, [r6, #0]
     6a4:	9603      	str	r6, [sp, #12]
     6a6:	f04f 0600 	mov.w	r6, #0
/home/dangcaominh/STM32MP1/optee-os/optee-os/lib/libutils/ext/trace.c:108
     6aa:	9401      	str	r4, [sp, #4]
     6ac:	9500      	str	r5, [sp, #0]
/home/dangcaominh/STM32MP1/optee-os/optee-os/lib/libutils/ext/trace.c:107
     6ae:	9402      	str	r4, [sp, #8]
/home/dangcaominh/STM32MP1/optee-os/optee-os/lib/libutils/ext/trace.c:108
     6b0:	f7ff ff36 	bl	520 <trace_vprintf>
/home/dangcaominh/STM32MP1/optee-os/optee-os/lib/libutils/ext/trace.c:104
     6b4:	4a08      	ldr	r2, [pc, #32]	@ (6d8 <trace_printf+0x48>)
/home/dangcaominh/STM32MP1/optee-os/optee-os/lib/libutils/ext/trace.c:110
     6b6:	4b07      	ldr	r3, [pc, #28]	@ (6d4 <trace_printf+0x44>)
/home/dangcaominh/STM32MP1/optee-os/optee-os/lib/libutils/ext/trace.c:104
     6b8:	447a      	add	r2, pc
/home/dangcaominh/STM32MP1/optee-os/optee-os/lib/libutils/ext/trace.c:110
     6ba:	58d3      	ldr	r3, [r2, r3]
     6bc:	681a      	ldr	r2, [r3, #0]
     6be:	9b03      	ldr	r3, [sp, #12]
     6c0:	405a      	eors	r2, r3
     6c2:	f04f 0300 	mov.w	r3, #0
     6c6:	d001      	beq.n	6cc <trace_printf+0x3c>
     6c8:	f7ff fefe 	bl	4c8 <__stack_chk_fail>
     6cc:	b005      	add	sp, #20
     6ce:	bdf0      	pop	{r4, r5, r6, r7, pc}
     6d0:	0000b9ea 	.word	0x0000b9ea
     6d4:	0000000c 	.word	0x0000000c
     6d8:	0000b9cc 	.word	0x0000b9cc

000006dc <dhex_dump>:
dhex_dump():
/home/dangcaominh/STM32MP1/optee-os/optee-os/lib/libutils/ext/trace.c:287
     6dc:	4770      	bx	lr
     6de:	bf00      	nop

000006e0 <__vsnprintf>:
__vsnprintf():
/home/dangcaominh/STM32MP1/optee-os/optee-os/lib/libutils/ext/snprintk.c:138
     6e0:	b57f      	push	{r0, r1, r2, r3, r4, r5, r6, lr}
     6e2:	460d      	mov	r5, r1
     6e4:	4914      	ldr	r1, [pc, #80]	@ (738 <__vsnprintf+0x58>)
     6e6:	4604      	mov	r4, r0
/home/dangcaominh/STM32MP1/optee-os/optee-os/lib/libutils/ext/snprintk.c:142
     6e8:	1966      	adds	r6, r4, r5
/home/dangcaominh/STM32MP1/optee-os/optee-os/lib/libutils/ext/snprintk.c:138
     6ea:	4610      	mov	r0, r2
     6ec:	4479      	add	r1, pc
     6ee:	4a13      	ldr	r2, [pc, #76]	@ (73c <__vsnprintf+0x5c>)
     6f0:	588a      	ldr	r2, [r1, r2]
/home/dangcaominh/STM32MP1/optee-os/optee-os/lib/libutils/ext/snprintk.c:143
     6f2:	a902      	add	r1, sp, #8
/home/dangcaominh/STM32MP1/optee-os/optee-os/lib/libutils/ext/snprintk.c:138
     6f4:	6812      	ldr	r2, [r2, #0]
     6f6:	9203      	str	r2, [sp, #12]
     6f8:	f04f 0200 	mov.w	r2, #0
/home/dangcaominh/STM32MP1/optee-os/optee-os/lib/libutils/ext/snprintk.c:143
     6fc:	f89d 2020 	ldrb.w	r2, [sp, #32]
/home/dangcaominh/STM32MP1/optee-os/optee-os/lib/libutils/ext/snprintk.c:142
     700:	9602      	str	r6, [sp, #8]
/home/dangcaominh/STM32MP1/optee-os/optee-os/lib/libutils/ext/snprintk.c:143
     702:	9200      	str	r2, [sp, #0]
     704:	4622      	mov	r2, r4
     706:	f000 f84b 	bl	7a0 <kprintf.constprop.0>
/home/dangcaominh/STM32MP1/optee-os/optee-os/lib/libutils/ext/snprintk.c:144
     70a:	b13c      	cbz	r4, 71c <__vsnprintf+0x3c>
/home/dangcaominh/STM32MP1/optee-os/optee-os/lib/libutils/ext/snprintk.c:144 (discriminator 1)
     70c:	b135      	cbz	r5, 71c <__vsnprintf+0x3c>
/home/dangcaominh/STM32MP1/optee-os/optee-os/lib/libutils/ext/snprintk.c:146
     70e:	42a8      	cmp	r0, r5
     710:	f04f 0300 	mov.w	r3, #0
/home/dangcaominh/STM32MP1/optee-os/optee-os/lib/libutils/ext/snprintk.c:147
     714:	bf2c      	ite	cs
     716:	f806 3c01 	strbcs.w	r3, [r6, #-1]
/home/dangcaominh/STM32MP1/optee-os/optee-os/lib/libutils/ext/snprintk.c:149
     71a:	5423      	strbcc	r3, [r4, r0]
/home/dangcaominh/STM32MP1/optee-os/optee-os/lib/libutils/ext/snprintk.c:138
     71c:	4a08      	ldr	r2, [pc, #32]	@ (740 <__vsnprintf+0x60>)
/home/dangcaominh/STM32MP1/optee-os/optee-os/lib/libutils/ext/snprintk.c:152
     71e:	4b07      	ldr	r3, [pc, #28]	@ (73c <__vsnprintf+0x5c>)
/home/dangcaominh/STM32MP1/optee-os/optee-os/lib/libutils/ext/snprintk.c:138
     720:	447a      	add	r2, pc
/home/dangcaominh/STM32MP1/optee-os/optee-os/lib/libutils/ext/snprintk.c:152
     722:	58d3      	ldr	r3, [r2, r3]
     724:	681a      	ldr	r2, [r3, #0]
     726:	9b03      	ldr	r3, [sp, #12]
     728:	405a      	eors	r2, r3
     72a:	f04f 0300 	mov.w	r3, #0
     72e:	d001      	beq.n	734 <__vsnprintf+0x54>
     730:	f7ff feca 	bl	4c8 <__stack_chk_fail>
     734:	b004      	add	sp, #16
     736:	bd70      	pop	{r4, r5, r6, pc}
     738:	0000b998 	.word	0x0000b998
     73c:	0000000c 	.word	0x0000000c
     740:	0000b964 	.word	0x0000b964

00000744 <vsnprintk>:
vsnprintk():
/home/dangcaominh/STM32MP1/optee-os/optee-os/lib/libutils/ext/snprintk.c:130
     744:	b513      	push	{r0, r1, r4, lr}
/home/dangcaominh/STM32MP1/optee-os/optee-os/lib/libutils/ext/snprintk.c:131
     746:	2401      	movs	r4, #1
     748:	9400      	str	r4, [sp, #0]
     74a:	f7ff ffc9 	bl	6e0 <__vsnprintf>
/home/dangcaominh/STM32MP1/optee-os/optee-os/lib/libutils/ext/snprintk.c:132
     74e:	b002      	add	sp, #8
     750:	bd10      	pop	{r4, pc}

00000752 <snprintk>:
snprintk():
/home/dangcaominh/STM32MP1/optee-os/optee-os/lib/libutils/ext/snprintk.c:113
     752:	b40c      	push	{r2, r3}
     754:	b537      	push	{r0, r1, r2, r4, r5, lr}
     756:	ab06      	add	r3, sp, #24
     758:	4d0e      	ldr	r5, [pc, #56]	@ (794 <snprintk+0x42>)
     75a:	4c0f      	ldr	r4, [pc, #60]	@ (798 <snprintk+0x46>)
     75c:	447d      	add	r5, pc
     75e:	f853 2b04 	ldr.w	r2, [r3], #4
     762:	592c      	ldr	r4, [r5, r4]
     764:	6824      	ldr	r4, [r4, #0]
     766:	9401      	str	r4, [sp, #4]
     768:	f04f 0400 	mov.w	r4, #0
/home/dangcaominh/STM32MP1/optee-os/optee-os/lib/libutils/ext/snprintk.c:117
     76c:	9300      	str	r3, [sp, #0]
/home/dangcaominh/STM32MP1/optee-os/optee-os/lib/libutils/ext/snprintk.c:118
     76e:	f7ff ffe9 	bl	744 <vsnprintk>
/home/dangcaominh/STM32MP1/optee-os/optee-os/lib/libutils/ext/snprintk.c:113
     772:	4a0a      	ldr	r2, [pc, #40]	@ (79c <snprintk+0x4a>)
/home/dangcaominh/STM32MP1/optee-os/optee-os/lib/libutils/ext/snprintk.c:122
     774:	4b08      	ldr	r3, [pc, #32]	@ (798 <snprintk+0x46>)
/home/dangcaominh/STM32MP1/optee-os/optee-os/lib/libutils/ext/snprintk.c:113
     776:	447a      	add	r2, pc
/home/dangcaominh/STM32MP1/optee-os/optee-os/lib/libutils/ext/snprintk.c:122
     778:	58d3      	ldr	r3, [r2, r3]
     77a:	681a      	ldr	r2, [r3, #0]
     77c:	9b01      	ldr	r3, [sp, #4]
     77e:	405a      	eors	r2, r3
     780:	f04f 0300 	mov.w	r3, #0
     784:	d001      	beq.n	78a <snprintk+0x38>
     786:	f7ff fe9f 	bl	4c8 <__stack_chk_fail>
     78a:	b003      	add	sp, #12
     78c:	e8bd 4030 	ldmia.w	sp!, {r4, r5, lr}
     790:	b002      	add	sp, #8
     792:	4770      	bx	lr
     794:	0000b928 	.word	0x0000b928
     798:	0000000c 	.word	0x0000000c
     79c:	0000b90e 	.word	0x0000b90e

000007a0 <kprintf.constprop.0>:
kprintf():
/home/dangcaominh/STM32MP1/optee-os/optee-os/lib/libutils/ext/snprintk.c:242
     7a0:	e92d 4ff0 	stmdb	sp!, {r4, r5, r6, r7, r8, r9, sl, fp, lr}
     7a4:	b09f      	sub	sp, #124	@ 0x7c
     7a6:	4680      	mov	r8, r0
     7a8:	4616      	mov	r6, r2
     7aa:	f8df 0770 	ldr.w	r0, [pc, #1904]	@ f1c <kprintf.constprop.0+0x77c>
     7ae:	461d      	mov	r5, r3
     7b0:	f89d 20a0 	ldrb.w	r2, [sp, #160]	@ 0xa0
     7b4:	4478      	add	r0, pc
     7b6:	9211      	str	r2, [sp, #68]	@ 0x44
     7b8:	f8df 2764 	ldr.w	r2, [pc, #1892]	@ f20 <kprintf.constprop.0+0x780>
     7bc:	5882      	ldr	r2, [r0, r2]
     7be:	6812      	ldr	r2, [r2, #0]
     7c0:	921d      	str	r2, [sp, #116]	@ 0x74
     7c2:	f04f 0200 	mov.w	r2, #0
/home/dangcaominh/STM32MP1/optee-os/optee-os/lib/libutils/ext/snprintk.c:264 (discriminator 1)
     7c6:	910c      	str	r1, [sp, #48]	@ 0x30
     7c8:	b1d9      	cbz	r1, 802 <kprintf.constprop.0+0x62>
/home/dangcaominh/STM32MP1/optee-os/optee-os/lib/libutils/ext/snprintk.c:265
     7ca:	680b      	ldr	r3, [r1, #0]
/home/dangcaominh/STM32MP1/optee-os/optee-os/lib/libutils/ext/snprintk.c:267
     7cc:	930e      	str	r3, [sp, #56]	@ 0x38
/home/dangcaominh/STM32MP1/optee-os/optee-os/lib/libutils/ext/snprintk.c:275
     7ce:	2300      	movs	r3, #0
     7d0:	930f      	str	r3, [sp, #60]	@ 0x3c
/home/dangcaominh/STM32MP1/optee-os/optee-os/lib/libutils/ext/snprintk.c:273
     7d2:	930b      	str	r3, [sp, #44]	@ 0x2c
/home/dangcaominh/STM32MP1/optee-os/optee-os/lib/libutils/ext/snprintk.c:281 (discriminator 1)
     7d4:	f898 3000 	ldrb.w	r3, [r8]
     7d8:	2b25      	cmp	r3, #37	@ 0x25
     7da:	d022      	beq.n	822 <kprintf.constprop.0+0x82>
/home/dangcaominh/STM32MP1/optee-os/optee-os/lib/libutils/ext/snprintk.c:281 (discriminator 2)
     7dc:	b99b      	cbnz	r3, 806 <kprintf.constprop.0+0x66>
/home/dangcaominh/STM32MP1/optee-os/optee-os/lib/libutils/ext/snprintk.c:619 (discriminator 1)
     7de:	9b0c      	ldr	r3, [sp, #48]	@ 0x30
     7e0:	b103      	cbz	r3, 7e4 <kprintf.constprop.0+0x44>
/home/dangcaominh/STM32MP1/optee-os/optee-os/lib/libutils/ext/snprintk.c:620
     7e2:	601e      	str	r6, [r3, #0]
/home/dangcaominh/STM32MP1/optee-os/optee-os/lib/libutils/ext/snprintk.c:242
     7e4:	f8df 273c 	ldr.w	r2, [pc, #1852]	@ f24 <kprintf.constprop.0+0x784>
/home/dangcaominh/STM32MP1/optee-os/optee-os/lib/libutils/ext/snprintk.c:622
     7e8:	f8df 3734 	ldr.w	r3, [pc, #1844]	@ f20 <kprintf.constprop.0+0x780>
/home/dangcaominh/STM32MP1/optee-os/optee-os/lib/libutils/ext/snprintk.c:242
     7ec:	447a      	add	r2, pc
/home/dangcaominh/STM32MP1/optee-os/optee-os/lib/libutils/ext/snprintk.c:622
     7ee:	58d3      	ldr	r3, [r2, r3]
     7f0:	681a      	ldr	r2, [r3, #0]
     7f2:	9b1d      	ldr	r3, [sp, #116]	@ 0x74
     7f4:	405a      	eors	r2, r3
     7f6:	f04f 0300 	mov.w	r3, #0
     7fa:	f000 838a 	beq.w	f12 <kprintf.constprop.0+0x772>
     7fe:	f7ff fe63 	bl	4c8 <__stack_chk_fail>
/home/dangcaominh/STM32MP1/optee-os/optee-os/lib/libutils/ext/snprintk.c:267
     802:	9b0c      	ldr	r3, [sp, #48]	@ 0x30
     804:	e7e2      	b.n	7cc <kprintf.constprop.0+0x2c>
/home/dangcaominh/STM32MP1/optee-os/optee-os/lib/libutils/ext/snprintk.c:282
     806:	9a0b      	ldr	r2, [sp, #44]	@ 0x2c
     808:	3201      	adds	r2, #1
     80a:	920b      	str	r2, [sp, #44]	@ 0x2c
/home/dangcaominh/STM32MP1/optee-os/optee-os/lib/libutils/ext/snprintk.c:283 (discriminator 1)
     80c:	b136      	cbz	r6, 81c <kprintf.constprop.0+0x7c>
/home/dangcaominh/STM32MP1/optee-os/optee-os/lib/libutils/ext/snprintk.c:283 (discriminator 3)
     80e:	9a0c      	ldr	r2, [sp, #48]	@ 0x30
     810:	b112      	cbz	r2, 818 <kprintf.constprop.0+0x78>
/home/dangcaominh/STM32MP1/optee-os/optee-os/lib/libutils/ext/snprintk.c:283 (discriminator 5)
     812:	9a0e      	ldr	r2, [sp, #56]	@ 0x38
     814:	4296      	cmp	r6, r2
     816:	d201      	bcs.n	81c <kprintf.constprop.0+0x7c>
/home/dangcaominh/STM32MP1/optee-os/optee-os/lib/libutils/ext/snprintk.c:283 (discriminator 6)
     818:	f806 3b01 	strb.w	r3, [r6], #1
/home/dangcaominh/STM32MP1/optee-os/optee-os/lib/libutils/ext/snprintk.c:281
     81c:	f108 0801 	add.w	r8, r8, #1
     820:	e7d8      	b.n	7d4 <kprintf.constprop.0+0x34>
/home/dangcaominh/STM32MP1/optee-os/optee-os/lib/libutils/ext/snprintk.c:294
     822:	f04f 0900 	mov.w	r9, #0
/home/dangcaominh/STM32MP1/optee-os/optee-os/lib/libutils/ext/snprintk.c:288
     826:	f108 0801 	add.w	r8, r8, #1
/home/dangcaominh/STM32MP1/optee-os/optee-os/lib/libutils/ext/snprintk.c:292
     82a:	f8cd 9034 	str.w	r9, [sp, #52]	@ 0x34
/home/dangcaominh/STM32MP1/optee-os/optee-os/lib/libutils/ext/snprintk.c:288
     82e:	462b      	mov	r3, r5
/home/dangcaominh/STM32MP1/optee-os/optee-os/lib/libutils/ext/snprintk.c:293
     830:	f04f 37ff 	mov.w	r7, #4294967295	@ 0xffffffff
/home/dangcaominh/STM32MP1/optee-os/optee-os/lib/libutils/ext/snprintk.c:290
     834:	464c      	mov	r4, r9
/home/dangcaominh/STM32MP1/optee-os/optee-os/lib/libutils/ext/snprintk.c:296
     836:	f818 bb01 	ldrb.w	fp, [r8], #1
/home/dangcaominh/STM32MP1/optee-os/optee-os/lib/libutils/ext/snprintk.c:297
     83a:	f1bb 0f39 	cmp.w	fp, #57	@ 0x39
     83e:	f300 80cf 	bgt.w	9e0 <kprintf.constprop.0+0x240>
     842:	f1bb 0f1f 	cmp.w	fp, #31
     846:	f300 808d 	bgt.w	964 <kprintf.constprop.0+0x1c4>
/home/dangcaominh/STM32MP1/optee-os/optee-os/lib/libutils/ext/snprintk.c:547
     84a:	f1bb 0f00 	cmp.w	fp, #0
     84e:	f040 80cc 	bne.w	9ea <kprintf.constprop.0+0x24a>
     852:	e7c4      	b.n	7de <kprintf.constprop.0+0x3e>
/home/dangcaominh/STM32MP1/optee-os/optee-os/lib/libutils/ext/snprintk.c:297
     854:	f04f 092b 	mov.w	r9, #43	@ 0x2b
     858:	e7ed      	b.n	836 <kprintf.constprop.0+0x96>
     85a:	2a36      	cmp	r2, #54	@ 0x36
     85c:	d8f5      	bhi.n	84a <kprintf.constprop.0+0xaa>
     85e:	a102      	add	r1, pc, #8	@ (adr r1, 868 <kprintf.constprop.0+0xc8>)
     860:	f851 2022 	ldr.w	r2, [r1, r2, lsl #2]
     864:	4411      	add	r1, r2
     866:	4708      	bx	r1
     868:	0000024f 	.word	0x0000024f
     86c:	ffffffe3 	.word	0xffffffe3
     870:	ffffffe3 	.word	0xffffffe3
     874:	ffffffe3 	.word	0xffffffe3
     878:	ffffffe3 	.word	0xffffffe3
     87c:	ffffffe3 	.word	0xffffffe3
     880:	ffffffe3 	.word	0xffffffe3
     884:	ffffffe3 	.word	0xffffffe3
     888:	ffffffe3 	.word	0xffffffe3
     88c:	ffffffe3 	.word	0xffffffe3
     890:	ffffffe3 	.word	0xffffffe3
     894:	000003cb 	.word	0x000003cb
     898:	ffffffe3 	.word	0xffffffe3
     89c:	ffffffe3 	.word	0xffffffe3
     8a0:	ffffffe3 	.word	0xffffffe3
     8a4:	ffffffe3 	.word	0xffffffe3
     8a8:	ffffffe3 	.word	0xffffffe3
     8ac:	000004fb 	.word	0x000004fb
     8b0:	ffffffe3 	.word	0xffffffe3
     8b4:	ffffffe3 	.word	0xffffffe3
     8b8:	0000056f 	.word	0x0000056f
     8bc:	ffffffe3 	.word	0xffffffe3
     8c0:	ffffffe3 	.word	0xffffffe3
     8c4:	ffffffe3 	.word	0xffffffe3
     8c8:	ffffffe3 	.word	0xffffffe3
     8cc:	ffffffe3 	.word	0xffffffe3
     8d0:	ffffffe3 	.word	0xffffffe3
     8d4:	ffffffe3 	.word	0xffffffe3
     8d8:	ffffffe3 	.word	0xffffffe3
     8dc:	ffffffe3 	.word	0xffffffe3
     8e0:	ffffffe3 	.word	0xffffffe3
     8e4:	00000239 	.word	0x00000239
     8e8:	00000253 	.word	0x00000253
     8ec:	ffffffe3 	.word	0xffffffe3
     8f0:	ffffffe3 	.word	0xffffffe3
     8f4:	ffffffe3 	.word	0xffffffe3
     8f8:	00000209 	.word	0x00000209
     8fc:	00000253 	.word	0x00000253
     900:	0000020f 	.word	0x0000020f
     904:	ffffffe3 	.word	0xffffffe3
     908:	00000215 	.word	0x00000215
     90c:	ffffffe3 	.word	0xffffffe3
     910:	00000393 	.word	0x00000393
     914:	000003cf 	.word	0x000003cf
     918:	0000042b 	.word	0x0000042b
     91c:	00000221 	.word	0x00000221
     920:	ffffffe3 	.word	0xffffffe3
     924:	000004c1 	.word	0x000004c1
     928:	0000022d 	.word	0x0000022d
     92c:	000004ff 	.word	0x000004ff
     930:	ffffffe3 	.word	0xffffffe3
     934:	ffffffe3 	.word	0xffffffe3
     938:	000000dd 	.word	0x000000dd
     93c:	ffffffe3 	.word	0xffffffe3
     940:	00000233 	.word	0x00000233
/home/dangcaominh/STM32MP1/optee-os/optee-os/lib/libutils/ext/snprintk.c:480
     944:	f8df 25e0 	ldr.w	r2, [pc, #1504]	@ f28 <kprintf.constprop.0+0x788>
     948:	447a      	add	r2, pc
/home/dangcaominh/STM32MP1/optee-os/optee-os/lib/libutils/ext/snprintk.c:297
     94a:	920f      	str	r2, [sp, #60]	@ 0x3c
/home/dangcaominh/STM32MP1/optee-os/optee-os/lib/libutils/ext/snprintk.c:481
     94c:	f014 0280 	ands.w	r2, r4, #128	@ 0x80
     950:	f000 8245 	beq.w	dde <kprintf.constprop.0+0x63e>
/home/dangcaominh/STM32MP1/optee-os/optee-os/lib/libutils/ext/snprintk.c:481 (discriminator 10)
     954:	3307      	adds	r3, #7
     956:	f023 0307 	bic.w	r3, r3, #7
     95a:	461d      	mov	r5, r3
     95c:	6859      	ldr	r1, [r3, #4]
     95e:	f855 0b08 	ldr.w	r0, [r5], #8
     962:	e243      	b.n	dec <kprintf.constprop.0+0x64c>
/home/dangcaominh/STM32MP1/optee-os/optee-os/lib/libutils/ext/snprintk.c:297
     964:	f1ab 0220 	sub.w	r2, fp, #32
     968:	2a19      	cmp	r2, #25
     96a:	f63f af6e 	bhi.w	84a <kprintf.constprop.0+0xaa>
     96e:	a102      	add	r1, pc, #8	@ (adr r1, 978 <kprintf.constprop.0+0x1d8>)
     970:	f851 2022 	ldr.w	r2, [r1, r2, lsl #2]
     974:	4411      	add	r1, r2
     976:	4708      	bx	r1
     978:	0000007b 	.word	0x0000007b
     97c:	fffffed3 	.word	0xfffffed3
     980:	fffffed3 	.word	0xfffffed3
     984:	00000087 	.word	0x00000087
     988:	fffffed3 	.word	0xfffffed3
     98c:	fffffed3 	.word	0xfffffed3
     990:	fffffed3 	.word	0xfffffed3
     994:	fffffed3 	.word	0xfffffed3
     998:	fffffed3 	.word	0xfffffed3
     99c:	fffffed3 	.word	0xfffffed3
     9a0:	0000008d 	.word	0x0000008d
     9a4:	fffffedd 	.word	0xfffffedd
     9a8:	fffffed3 	.word	0xfffffed3
     9ac:	0000009d 	.word	0x0000009d
     9b0:	000000a3 	.word	0x000000a3
     9b4:	fffffed3 	.word	0xfffffed3
     9b8:	000000d3 	.word	0x000000d3
     9bc:	000000d9 	.word	0x000000d9
     9c0:	000000d9 	.word	0x000000d9
     9c4:	000000d9 	.word	0x000000d9
     9c8:	000000d9 	.word	0x000000d9
     9cc:	000000d9 	.word	0x000000d9
     9d0:	000000d9 	.word	0x000000d9
     9d4:	000000d9 	.word	0x000000d9
     9d8:	000000d9 	.word	0x000000d9
     9dc:	000000d9 	.word	0x000000d9
     9e0:	f1ab 0244 	sub.w	r2, fp, #68	@ 0x44
     9e4:	2a36      	cmp	r2, #54	@ 0x36
     9e6:	f67f af38 	bls.w	85a <kprintf.constprop.0+0xba>
/home/dangcaominh/STM32MP1/optee-os/optee-os/lib/libutils/ext/snprintk.c:551
     9ea:	f88d b04c 	strb.w	fp, [sp, #76]	@ 0x4c
/home/dangcaominh/STM32MP1/optee-os/optee-os/lib/libutils/ext/snprintk.c:554
     9ee:	461d      	mov	r5, r3
     9f0:	e05b      	b.n	aaa <kprintf.constprop.0+0x30a>
/home/dangcaominh/STM32MP1/optee-os/optee-os/lib/libutils/ext/snprintk.c:305
     9f2:	f1b9 0f00 	cmp.w	r9, #0
     9f6:	bf08      	it	eq
     9f8:	f04f 0920 	moveq.w	r9, #32
     9fc:	e71b      	b.n	836 <kprintf.constprop.0+0x96>
/home/dangcaominh/STM32MP1/optee-os/optee-os/lib/libutils/ext/snprintk.c:308
     9fe:	f044 0401 	orr.w	r4, r4, #1
/home/dangcaominh/STM32MP1/optee-os/optee-os/lib/libutils/ext/snprintk.c:309
     a02:	e718      	b.n	836 <kprintf.constprop.0+0x96>
/home/dangcaominh/STM32MP1/optee-os/optee-os/lib/libutils/ext/snprintk.c:317
     a04:	f853 2b04 	ldr.w	r2, [r3], #4
     a08:	920d      	str	r2, [sp, #52]	@ 0x34
/home/dangcaominh/STM32MP1/optee-os/optee-os/lib/libutils/ext/snprintk.c:317 (discriminator 1)
     a0a:	2a00      	cmp	r2, #0
     a0c:	f6bf af13 	bge.w	836 <kprintf.constprop.0+0x96>
/home/dangcaominh/STM32MP1/optee-os/optee-os/lib/libutils/ext/snprintk.c:319
     a10:	4252      	negs	r2, r2
     a12:	920d      	str	r2, [sp, #52]	@ 0x34
/home/dangcaominh/STM32MP1/optee-os/optee-os/lib/libutils/ext/snprintk.c:322
     a14:	f044 0404 	orr.w	r4, r4, #4
/home/dangcaominh/STM32MP1/optee-os/optee-os/lib/libutils/ext/snprintk.c:323
     a18:	e70d      	b.n	836 <kprintf.constprop.0+0x96>
/home/dangcaominh/STM32MP1/optee-os/optee-os/lib/libutils/ext/snprintk.c:328
     a1a:	f818 bb01 	ldrb.w	fp, [r8], #1
     a1e:	f1bb 0f2a 	cmp.w	fp, #42	@ 0x2a
     a22:	d10f      	bne.n	a44 <kprintf.constprop.0+0x2a4>
/home/dangcaominh/STM32MP1/optee-os/optee-os/lib/libutils/ext/snprintk.c:330
     a24:	f853 7b04 	ldr.w	r7, [r3], #4
     a28:	ea47 77e7 	orr.w	r7, r7, r7, asr #31
/home/dangcaominh/STM32MP1/optee-os/optee-os/lib/libutils/ext/snprintk.c:331
     a2c:	e703      	b.n	836 <kprintf.constprop.0+0x96>
/home/dangcaominh/STM32MP1/optee-os/optee-os/lib/libutils/ext/snprintk.c:335
     a2e:	fb01 2707 	mla	r7, r1, r7, r2
/home/dangcaominh/STM32MP1/optee-os/optee-os/lib/libutils/ext/snprintk.c:336
     a32:	f818 bb01 	ldrb.w	fp, [r8], #1
/home/dangcaominh/STM32MP1/optee-os/optee-os/lib/libutils/ext/snprintk.c:334
     a36:	f1ab 0230 	sub.w	r2, fp, #48	@ 0x30
     a3a:	2a09      	cmp	r2, #9
     a3c:	d9f7      	bls.n	a2e <kprintf.constprop.0+0x28e>
/home/dangcaominh/STM32MP1/optee-os/optee-os/lib/libutils/ext/snprintk.c:338
     a3e:	ea47 77e7 	orr.w	r7, r7, r7, asr #31
/home/dangcaominh/STM32MP1/optee-os/optee-os/lib/libutils/ext/snprintk.c:339
     a42:	e6fa      	b.n	83a <kprintf.constprop.0+0x9a>
/home/dangcaominh/STM32MP1/optee-os/optee-os/lib/libutils/ext/snprintk.c:333
     a44:	2700      	movs	r7, #0
/home/dangcaominh/STM32MP1/optee-os/optee-os/lib/libutils/ext/snprintk.c:335
     a46:	210a      	movs	r1, #10
     a48:	e7f5      	b.n	a36 <kprintf.constprop.0+0x296>
/home/dangcaominh/STM32MP1/optee-os/optee-os/lib/libutils/ext/snprintk.c:346
     a4a:	f444 6480 	orr.w	r4, r4, #1024	@ 0x400
/home/dangcaominh/STM32MP1/optee-os/optee-os/lib/libutils/ext/snprintk.c:347
     a4e:	e6f2      	b.n	836 <kprintf.constprop.0+0x96>
/home/dangcaominh/STM32MP1/optee-os/optee-os/lib/libutils/ext/snprintk.c:352
     a50:	210a      	movs	r1, #10
/home/dangcaominh/STM32MP1/optee-os/optee-os/lib/libutils/ext/snprintk.c:297
     a52:	2200      	movs	r2, #0
     a54:	920d      	str	r2, [sp, #52]	@ 0x34
/home/dangcaominh/STM32MP1/optee-os/optee-os/lib/libutils/ext/snprintk.c:352
     a56:	980d      	ldr	r0, [sp, #52]	@ 0x34
     a58:	f1ab 0230 	sub.w	r2, fp, #48	@ 0x30
/home/dangcaominh/STM32MP1/optee-os/optee-os/lib/libutils/ext/snprintk.c:353
     a5c:	f818 bb01 	ldrb.w	fp, [r8], #1
/home/dangcaominh/STM32MP1/optee-os/optee-os/lib/libutils/ext/snprintk.c:352
     a60:	fb01 2200 	mla	r2, r1, r0, r2
     a64:	920d      	str	r2, [sp, #52]	@ 0x34
/home/dangcaominh/STM32MP1/optee-os/optee-os/lib/libutils/ext/snprintk.c:354 (discriminator 1)
     a66:	f1ab 0230 	sub.w	r2, fp, #48	@ 0x30
     a6a:	2a09      	cmp	r2, #9
     a6c:	d9f3      	bls.n	a56 <kprintf.constprop.0+0x2b6>
     a6e:	e6e4      	b.n	83a <kprintf.constprop.0+0x9a>
/home/dangcaominh/STM32MP1/optee-os/optee-os/lib/libutils/ext/snprintk.c:358
     a70:	f044 0440 	orr.w	r4, r4, #64	@ 0x40
/home/dangcaominh/STM32MP1/optee-os/optee-os/lib/libutils/ext/snprintk.c:359
     a74:	e6df      	b.n	836 <kprintf.constprop.0+0x96>
/home/dangcaominh/STM32MP1/optee-os/optee-os/lib/libutils/ext/snprintk.c:361
     a76:	f044 0480 	orr.w	r4, r4, #128	@ 0x80
/home/dangcaominh/STM32MP1/optee-os/optee-os/lib/libutils/ext/snprintk.c:362
     a7a:	e6dc      	b.n	836 <kprintf.constprop.0+0x96>
/home/dangcaominh/STM32MP1/optee-os/optee-os/lib/libutils/ext/snprintk.c:364
     a7c:	f898 2000 	ldrb.w	r2, [r8]
     a80:	2a6c      	cmp	r2, #108	@ 0x6c
     a82:	d104      	bne.n	a8e <kprintf.constprop.0+0x2ee>
/home/dangcaominh/STM32MP1/optee-os/optee-os/lib/libutils/ext/snprintk.c:328
     a84:	f108 0801 	add.w	r8, r8, #1
/home/dangcaominh/STM32MP1/optee-os/optee-os/lib/libutils/ext/snprintk.c:372
     a88:	f044 0420 	orr.w	r4, r4, #32
/home/dangcaominh/STM32MP1/optee-os/optee-os/lib/libutils/ext/snprintk.c:373
     a8c:	e6d3      	b.n	836 <kprintf.constprop.0+0x96>
/home/dangcaominh/STM32MP1/optee-os/optee-os/lib/libutils/ext/snprintk.c:368
     a8e:	f044 0410 	orr.w	r4, r4, #16
     a92:	e6d0      	b.n	836 <kprintf.constprop.0+0x96>
/home/dangcaominh/STM32MP1/optee-os/optee-os/lib/libutils/ext/snprintk.c:375
     a94:	f444 7480 	orr.w	r4, r4, #256	@ 0x100
/home/dangcaominh/STM32MP1/optee-os/optee-os/lib/libutils/ext/snprintk.c:376
     a98:	e6cd      	b.n	836 <kprintf.constprop.0+0x96>
/home/dangcaominh/STM32MP1/optee-os/optee-os/lib/libutils/ext/snprintk.c:378
     a9a:	f444 7400 	orr.w	r4, r4, #512	@ 0x200
/home/dangcaominh/STM32MP1/optee-os/optee-os/lib/libutils/ext/snprintk.c:379
     a9e:	e6ca      	b.n	836 <kprintf.constprop.0+0x96>
/home/dangcaominh/STM32MP1/optee-os/optee-os/lib/libutils/ext/snprintk.c:381
     aa0:	461d      	mov	r5, r3
/home/dangcaominh/STM32MP1/optee-os/optee-os/lib/libutils/ext/snprintk.c:381 (discriminator 1)
     aa2:	f855 3b04 	ldr.w	r3, [r5], #4
     aa6:	f88d 304c 	strb.w	r3, [sp, #76]	@ 0x4c
/home/dangcaominh/STM32MP1/optee-os/optee-os/lib/libutils/ext/snprintk.c:291
     aaa:	2000      	movs	r0, #0
/home/dangcaominh/STM32MP1/optee-os/optee-os/lib/libutils/ext/snprintk.c:552
     aac:	2701      	movs	r7, #1
/home/dangcaominh/STM32MP1/optee-os/optee-os/lib/libutils/ext/snprintk.c:553
     aae:	4681      	mov	r9, r0
/home/dangcaominh/STM32MP1/optee-os/optee-os/lib/libutils/ext/snprintk.c:550
     ab0:	f10d 0a4c 	add.w	sl, sp, #76	@ 0x4c
/home/dangcaominh/STM32MP1/optee-os/optee-os/lib/libutils/ext/snprintk.c:554
     ab4:	e03b      	b.n	b2e <kprintf.constprop.0+0x38e>
/home/dangcaominh/STM32MP1/optee-os/optee-os/lib/libutils/ext/snprintk.c:386
     ab6:	f044 0410 	orr.w	r4, r4, #16
/home/dangcaominh/STM32MP1/optee-os/optee-os/lib/libutils/ext/snprintk.c:390
     aba:	0622      	lsls	r2, r4, #24
     abc:	f140 8084 	bpl.w	bc8 <kprintf.constprop.0+0x428>
/home/dangcaominh/STM32MP1/optee-os/optee-os/lib/libutils/ext/snprintk.c:390 (discriminator 10)
     ac0:	3307      	adds	r3, #7
     ac2:	f023 0307 	bic.w	r3, r3, #7
     ac6:	461d      	mov	r5, r3
/home/dangcaominh/STM32MP1/optee-os/optee-os/lib/libutils/ext/snprintk.c:390 (discriminator 1)
     ac8:	6859      	ldr	r1, [r3, #4]
     aca:	f855 0b08 	ldr.w	r0, [r5], #8
/home/dangcaominh/STM32MP1/optee-os/optee-os/lib/libutils/ext/snprintk.c:391
     ace:	2900      	cmp	r1, #0
     ad0:	f280 8155 	bge.w	d7e <kprintf.constprop.0+0x5de>
/home/dangcaominh/STM32MP1/optee-os/optee-os/lib/libutils/ext/snprintk.c:392
     ad4:	4240      	negs	r0, r0
/home/dangcaominh/STM32MP1/optee-os/optee-os/lib/libutils/ext/snprintk.c:395
     ad6:	f04f 0301 	mov.w	r3, #1
/home/dangcaominh/STM32MP1/optee-os/optee-os/lib/libutils/ext/snprintk.c:392
     ada:	eb61 0141 	sbc.w	r1, r1, r1, lsl #1
/home/dangcaominh/STM32MP1/optee-os/optee-os/lib/libutils/ext/snprintk.c:393
     ade:	f04f 092d 	mov.w	r9, #45	@ 0x2d
/home/dangcaominh/STM32MP1/optee-os/optee-os/lib/libutils/ext/snprintk.c:494
     ae2:	2f00      	cmp	r7, #0
     ae4:	f280 81a4 	bge.w	e30 <kprintf.constprop.0+0x690>
/home/dangcaominh/STM32MP1/optee-os/optee-os/lib/libutils/ext/snprintk.c:509
     ae8:	2b01      	cmp	r3, #1
     aea:	f000 814a 	beq.w	d82 <kprintf.constprop.0+0x5e2>
     aee:	2b02      	cmp	r3, #2
     af0:	f000 810a 	beq.w	d08 <kprintf.constprop.0+0x568>
/home/dangcaominh/STM32MP1/optee-os/optee-os/lib/libutils/ext/snprintk.c:494
     af4:	f10d 0a71 	add.w	sl, sp, #113	@ 0x71
/home/dangcaominh/STM32MP1/optee-os/optee-os/lib/libutils/ext/snprintk.c:512
     af8:	f000 0307 	and.w	r3, r0, #7
     afc:	4652      	mov	r2, sl
/home/dangcaominh/STM32MP1/optee-os/optee-os/lib/libutils/ext/snprintk.c:513
     afe:	08c0      	lsrs	r0, r0, #3
/home/dangcaominh/STM32MP1/optee-os/optee-os/lib/libutils/ext/snprintk.c:512
     b00:	3330      	adds	r3, #48	@ 0x30
/home/dangcaominh/STM32MP1/optee-os/optee-os/lib/libutils/ext/snprintk.c:513
     b02:	ea40 7041 	orr.w	r0, r0, r1, lsl #29
     b06:	08c9      	lsrs	r1, r1, #3
/home/dangcaominh/STM32MP1/optee-os/optee-os/lib/libutils/ext/snprintk.c:514 (discriminator 1)
     b08:	ea50 0c01 	orrs.w	ip, r0, r1
/home/dangcaominh/STM32MP1/optee-os/optee-os/lib/libutils/ext/snprintk.c:512
     b0c:	f80a 3d01 	strb.w	r3, [sl, #-1]!
/home/dangcaominh/STM32MP1/optee-os/optee-os/lib/libutils/ext/snprintk.c:514 (discriminator 1)
     b10:	d1f2      	bne.n	af8 <kprintf.constprop.0+0x358>
/home/dangcaominh/STM32MP1/optee-os/optee-os/lib/libutils/ext/snprintk.c:516
     b12:	07e1      	lsls	r1, r4, #31
     b14:	d506      	bpl.n	b24 <kprintf.constprop.0+0x384>
/home/dangcaominh/STM32MP1/optee-os/optee-os/lib/libutils/ext/snprintk.c:516 (discriminator 1)
     b16:	2b30      	cmp	r3, #48	@ 0x30
     b18:	d004      	beq.n	b24 <kprintf.constprop.0+0x384>
/home/dangcaominh/STM32MP1/optee-os/optee-os/lib/libutils/ext/snprintk.c:517
     b1a:	2330      	movs	r3, #48	@ 0x30
     b1c:	f80a 3c01 	strb.w	r3, [sl, #-1]
     b20:	f1a2 0a02 	sub.w	sl, r2, #2
/home/dangcaominh/STM32MP1/optee-os/optee-os/lib/libutils/ext/snprintk.c:494
     b24:	4638      	mov	r0, r7
/home/dangcaominh/STM32MP1/optee-os/optee-os/lib/libutils/ext/snprintk.c:543
     b26:	f10d 0771 	add.w	r7, sp, #113	@ 0x71
     b2a:	eba7 070a 	sub.w	r7, r7, sl
/home/dangcaominh/STM32MP1/optee-os/optee-os/lib/libutils/ext/snprintk.c:571
     b2e:	42b8      	cmp	r0, r7
     b30:	4603      	mov	r3, r0
     b32:	bfb8      	it	lt
     b34:	463b      	movlt	r3, r7
/home/dangcaominh/STM32MP1/optee-os/optee-os/lib/libutils/ext/snprintk.c:572
     b36:	f1b9 0f00 	cmp.w	r9, #0
     b3a:	f000 819d 	beq.w	e78 <kprintf.constprop.0+0x6d8>
/home/dangcaominh/STM32MP1/optee-os/optee-os/lib/libutils/ext/snprintk.c:573
     b3e:	3301      	adds	r3, #1
/home/dangcaominh/STM32MP1/optee-os/optee-os/lib/libutils/ext/snprintk.c:578
     b40:	9a0b      	ldr	r2, [sp, #44]	@ 0x2c
     b42:	990d      	ldr	r1, [sp, #52]	@ 0x34
     b44:	428b      	cmp	r3, r1
     b46:	bfac      	ite	ge
     b48:	18d2      	addge	r2, r2, r3
     b4a:	1852      	addlt	r2, r2, r1
/home/dangcaominh/STM32MP1/optee-os/optee-os/lib/libutils/ext/snprintk.c:581
     b4c:	f240 4104 	movw	r1, #1028	@ 0x404
     b50:	ea14 0e01 	ands.w	lr, r4, r1
/home/dangcaominh/STM32MP1/optee-os/optee-os/lib/libutils/ext/snprintk.c:578
     b54:	920b      	str	r2, [sp, #44]	@ 0x2c
/home/dangcaominh/STM32MP1/optee-os/optee-os/lib/libutils/ext/snprintk.c:581
     b56:	d104      	bne.n	b62 <kprintf.constprop.0+0x3c2>
/home/dangcaominh/STM32MP1/optee-os/optee-os/lib/libutils/ext/snprintk.c:582
     b58:	9a0d      	ldr	r2, [sp, #52]	@ 0x34
     b5a:	1ad2      	subs	r2, r2, r3
/home/dangcaominh/STM32MP1/optee-os/optee-os/lib/libutils/ext/snprintk.c:583
     b5c:	2a00      	cmp	r2, #0
     b5e:	f300 818f 	bgt.w	e80 <kprintf.constprop.0+0x6e0>
/home/dangcaominh/STM32MP1/optee-os/optee-os/lib/libutils/ext/snprintk.c:588
     b62:	f1b9 0f00 	cmp.w	r9, #0
     b66:	f000 8197 	beq.w	e98 <kprintf.constprop.0+0x6f8>
/home/dangcaominh/STM32MP1/optee-os/optee-os/lib/libutils/ext/snprintk.c:589 (discriminator 1)
     b6a:	b136      	cbz	r6, b7a <kprintf.constprop.0+0x3da>
/home/dangcaominh/STM32MP1/optee-os/optee-os/lib/libutils/ext/snprintk.c:589 (discriminator 3)
     b6c:	9a0c      	ldr	r2, [sp, #48]	@ 0x30
     b6e:	b112      	cbz	r2, b76 <kprintf.constprop.0+0x3d6>
/home/dangcaominh/STM32MP1/optee-os/optee-os/lib/libutils/ext/snprintk.c:589 (discriminator 5)
     b70:	9a0e      	ldr	r2, [sp, #56]	@ 0x38
     b72:	42b2      	cmp	r2, r6
     b74:	d901      	bls.n	b7a <kprintf.constprop.0+0x3da>
/home/dangcaominh/STM32MP1/optee-os/optee-os/lib/libutils/ext/snprintk.c:589 (discriminator 6)
     b76:	f806 9b01 	strb.w	r9, [r6], #1
/home/dangcaominh/STM32MP1/optee-os/optee-os/lib/libutils/ext/snprintk.c:596
     b7a:	f5be 6f80 	cmp.w	lr, #1024	@ 0x400
     b7e:	d106      	bne.n	b8e <kprintf.constprop.0+0x3ee>
/home/dangcaominh/STM32MP1/optee-os/optee-os/lib/libutils/ext/snprintk.c:597
     b80:	9a0d      	ldr	r2, [sp, #52]	@ 0x34
/home/dangcaominh/STM32MP1/optee-os/optee-os/lib/libutils/ext/snprintk.c:599 (discriminator 6)
     b82:	f04f 0c30 	mov.w	ip, #48	@ 0x30
/home/dangcaominh/STM32MP1/optee-os/optee-os/lib/libutils/ext/snprintk.c:597
     b86:	1ad2      	subs	r2, r2, r3
/home/dangcaominh/STM32MP1/optee-os/optee-os/lib/libutils/ext/snprintk.c:598
     b88:	2a00      	cmp	r2, #0
     b8a:	f300 81a1 	bgt.w	ed0 <kprintf.constprop.0+0x730>
/home/dangcaominh/STM32MP1/optee-os/optee-os/lib/libutils/ext/snprintk.c:603
     b8e:	1bc0      	subs	r0, r0, r7
/home/dangcaominh/STM32MP1/optee-os/optee-os/lib/libutils/ext/snprintk.c:605 (discriminator 6)
     b90:	2230      	movs	r2, #48	@ 0x30
/home/dangcaominh/STM32MP1/optee-os/optee-os/lib/libutils/ext/snprintk.c:604
     b92:	2800      	cmp	r0, #0
     b94:	f300 81a6 	bgt.w	ee4 <kprintf.constprop.0+0x744>
     b98:	4457      	add	r7, sl
/home/dangcaominh/STM32MP1/optee-os/optee-os/lib/libutils/ext/snprintk.c:608 (discriminator 1)
     b9a:	45ba      	cmp	sl, r7
     b9c:	f040 81ac 	bne.w	ef8 <kprintf.constprop.0+0x758>
/home/dangcaominh/STM32MP1/optee-os/optee-os/lib/libutils/ext/snprintk.c:611
     ba0:	0762      	lsls	r2, r4, #29
     ba2:	f57f ae17 	bpl.w	7d4 <kprintf.constprop.0+0x34>
/home/dangcaominh/STM32MP1/optee-os/optee-os/lib/libutils/ext/snprintk.c:612
     ba6:	9a0d      	ldr	r2, [sp, #52]	@ 0x34
     ba8:	1ad3      	subs	r3, r2, r3
/home/dangcaominh/STM32MP1/optee-os/optee-os/lib/libutils/ext/snprintk.c:613
     baa:	2b00      	cmp	r3, #0
     bac:	f77f ae12 	ble.w	7d4 <kprintf.constprop.0+0x34>
/home/dangcaominh/STM32MP1/optee-os/optee-os/lib/libutils/ext/snprintk.c:614 (discriminator 1)
     bb0:	b146      	cbz	r6, bc4 <kprintf.constprop.0+0x424>
/home/dangcaominh/STM32MP1/optee-os/optee-os/lib/libutils/ext/snprintk.c:614 (discriminator 3)
     bb2:	9a0c      	ldr	r2, [sp, #48]	@ 0x30
     bb4:	b112      	cbz	r2, bbc <kprintf.constprop.0+0x41c>
/home/dangcaominh/STM32MP1/optee-os/optee-os/lib/libutils/ext/snprintk.c:614 (discriminator 5)
     bb6:	9a0e      	ldr	r2, [sp, #56]	@ 0x38
     bb8:	42b2      	cmp	r2, r6
     bba:	d903      	bls.n	bc4 <kprintf.constprop.0+0x424>
/home/dangcaominh/STM32MP1/optee-os/optee-os/lib/libutils/ext/snprintk.c:614 (discriminator 6)
     bbc:	f04f 0220 	mov.w	r2, #32
     bc0:	f806 2b01 	strb.w	r2, [r6], #1
     bc4:	3b01      	subs	r3, #1
     bc6:	e7f0      	b.n	baa <kprintf.constprop.0+0x40a>
/home/dangcaominh/STM32MP1/optee-os/optee-os/lib/libutils/ext/snprintk.c:390 (discriminator 2)
     bc8:	05e5      	lsls	r5, r4, #23
     bca:	d504      	bpl.n	bd6 <kprintf.constprop.0+0x436>
/home/dangcaominh/STM32MP1/optee-os/optee-os/lib/libutils/ext/snprintk.c:390 (discriminator 7)
     bcc:	461d      	mov	r5, r3
/home/dangcaominh/STM32MP1/optee-os/optee-os/lib/libutils/ext/snprintk.c:390 (discriminator 1)
     bce:	f855 0b04 	ldr.w	r0, [r5], #4
     bd2:	17c1      	asrs	r1, r0, #31
     bd4:	e77b      	b.n	ace <kprintf.constprop.0+0x32e>
/home/dangcaominh/STM32MP1/optee-os/optee-os/lib/libutils/ext/snprintk.c:390 (discriminator 5)
     bd6:	05a0      	lsls	r0, r4, #22
     bd8:	d4f8      	bmi.n	bcc <kprintf.constprop.0+0x42c>
/home/dangcaominh/STM32MP1/optee-os/optee-os/lib/libutils/ext/snprintk.c:390 (discriminator 8)
     bda:	06a1      	lsls	r1, r4, #26
     bdc:	f53f af70 	bmi.w	ac0 <kprintf.constprop.0+0x320>
/home/dangcaominh/STM32MP1/optee-os/optee-os/lib/libutils/ext/snprintk.c:390 (discriminator 11)
     be0:	06e2      	lsls	r2, r4, #27
/home/dangcaominh/STM32MP1/optee-os/optee-os/lib/libutils/ext/snprintk.c:317
     be2:	461d      	mov	r5, r3
     be4:	f855 1b04 	ldr.w	r1, [r5], #4
/home/dangcaominh/STM32MP1/optee-os/optee-os/lib/libutils/ext/snprintk.c:390 (discriminator 11)
     be8:	d501      	bpl.n	bee <kprintf.constprop.0+0x44e>
/home/dangcaominh/STM32MP1/optee-os/optee-os/lib/libutils/ext/snprintk.c:390 (discriminator 1)
     bea:	4608      	mov	r0, r1
     bec:	e7f1      	b.n	bd2 <kprintf.constprop.0+0x432>
/home/dangcaominh/STM32MP1/optee-os/optee-os/lib/libutils/ext/snprintk.c:390 (discriminator 14)
     bee:	0663      	lsls	r3, r4, #25
     bf0:	d5fb      	bpl.n	bea <kprintf.constprop.0+0x44a>
/home/dangcaominh/STM32MP1/optee-os/optee-os/lib/libutils/ext/snprintk.c:390 (discriminator 1)
     bf2:	b208      	sxth	r0, r1
     bf4:	f341 31c0 	sbfx	r1, r1, #15, #1
     bf8:	e769      	b.n	ace <kprintf.constprop.0+0x32e>
/home/dangcaominh/STM32MP1/optee-os/optee-os/lib/libutils/ext/snprintk.c:398
     bfa:	0620      	lsls	r0, r4, #24
     bfc:	d506      	bpl.n	c0c <kprintf.constprop.0+0x46c>
/home/dangcaominh/STM32MP1/optee-os/optee-os/lib/libutils/ext/snprintk.c:405 (discriminator 1)
     bfe:	990b      	ldr	r1, [sp, #44]	@ 0x2c
     c00:	681a      	ldr	r2, [r3, #0]
     c02:	980b      	ldr	r0, [sp, #44]	@ 0x2c
     c04:	17c9      	asrs	r1, r1, #31
     c06:	e9c2 0100 	strd	r0, r1, [r2]
     c0a:	e004      	b.n	c16 <kprintf.constprop.0+0x476>
/home/dangcaominh/STM32MP1/optee-os/optee-os/lib/libutils/ext/snprintk.c:400
     c0c:	05e1      	lsls	r1, r4, #23
     c0e:	d504      	bpl.n	c1a <kprintf.constprop.0+0x47a>
/home/dangcaominh/STM32MP1/optee-os/optee-os/lib/libutils/ext/snprintk.c:401 (discriminator 1)
     c10:	681a      	ldr	r2, [r3, #0]
     c12:	990b      	ldr	r1, [sp, #44]	@ 0x2c
     c14:	6011      	str	r1, [r2, #0]
/home/dangcaominh/STM32MP1/optee-os/optee-os/lib/libutils/ext/snprintk.c:317
     c16:	1d1d      	adds	r5, r3, #4
     c18:	e5dc      	b.n	7d4 <kprintf.constprop.0+0x34>
/home/dangcaominh/STM32MP1/optee-os/optee-os/lib/libutils/ext/snprintk.c:402
     c1a:	05a2      	lsls	r2, r4, #22
     c1c:	d4f8      	bmi.n	c10 <kprintf.constprop.0+0x470>
/home/dangcaominh/STM32MP1/optee-os/optee-os/lib/libutils/ext/snprintk.c:404
     c1e:	06a7      	lsls	r7, r4, #26
     c20:	d4ed      	bmi.n	bfe <kprintf.constprop.0+0x45e>
/home/dangcaominh/STM32MP1/optee-os/optee-os/lib/libutils/ext/snprintk.c:406
     c22:	06e5      	lsls	r5, r4, #27
     c24:	d4f4      	bmi.n	c10 <kprintf.constprop.0+0x470>
/home/dangcaominh/STM32MP1/optee-os/optee-os/lib/libutils/ext/snprintk.c:408
     c26:	0664      	lsls	r4, r4, #25
     c28:	d5f2      	bpl.n	c10 <kprintf.constprop.0+0x470>
/home/dangcaominh/STM32MP1/optee-os/optee-os/lib/libutils/ext/snprintk.c:409 (discriminator 1)
     c2a:	681a      	ldr	r2, [r3, #0]
     c2c:	990b      	ldr	r1, [sp, #44]	@ 0x2c
     c2e:	8011      	strh	r1, [r2, #0]
     c30:	e7f1      	b.n	c16 <kprintf.constprop.0+0x476>
/home/dangcaominh/STM32MP1/optee-os/optee-os/lib/libutils/ext/snprintk.c:414
     c32:	f044 0410 	orr.w	r4, r4, #16
/home/dangcaominh/STM32MP1/optee-os/optee-os/lib/libutils/ext/snprintk.c:417
     c36:	f014 0280 	ands.w	r2, r4, #128	@ 0x80
     c3a:	d007      	beq.n	c4c <kprintf.constprop.0+0x4ac>
/home/dangcaominh/STM32MP1/optee-os/optee-os/lib/libutils/ext/snprintk.c:417 (discriminator 10)
     c3c:	3307      	adds	r3, #7
     c3e:	f023 0307 	bic.w	r3, r3, #7
     c42:	461d      	mov	r5, r3
     c44:	6859      	ldr	r1, [r3, #4]
     c46:	f855 0b08 	ldr.w	r0, [r5], #8
     c4a:	e006      	b.n	c5a <kprintf.constprop.0+0x4ba>
/home/dangcaominh/STM32MP1/optee-os/optee-os/lib/libutils/ext/snprintk.c:417 (discriminator 2)
     c4c:	f414 7180 	ands.w	r1, r4, #256	@ 0x100
     c50:	d00a      	beq.n	c68 <kprintf.constprop.0+0x4c8>
/home/dangcaominh/STM32MP1/optee-os/optee-os/lib/libutils/ext/snprintk.c:417 (discriminator 4)
     c52:	461d      	mov	r5, r3
/home/dangcaominh/STM32MP1/optee-os/optee-os/lib/libutils/ext/snprintk.c:417 (discriminator 1)
     c54:	4611      	mov	r1, r2
     c56:	f855 0b04 	ldr.w	r0, [r5], #4
/home/dangcaominh/STM32MP1/optee-os/optee-os/lib/libutils/ext/snprintk.c:494
     c5a:	2f00      	cmp	r7, #0
     c5c:	f04f 0900 	mov.w	r9, #0
     c60:	f6ff af48 	blt.w	af4 <kprintf.constprop.0+0x354>
     c64:	464b      	mov	r3, r9
     c66:	e0e3      	b.n	e30 <kprintf.constprop.0+0x690>
/home/dangcaominh/STM32MP1/optee-os/optee-os/lib/libutils/ext/snprintk.c:417 (discriminator 5)
     c68:	05a0      	lsls	r0, r4, #22
     c6a:	d503      	bpl.n	c74 <kprintf.constprop.0+0x4d4>
/home/dangcaominh/STM32MP1/optee-os/optee-os/lib/libutils/ext/snprintk.c:417 (discriminator 7)
     c6c:	461d      	mov	r5, r3
/home/dangcaominh/STM32MP1/optee-os/optee-os/lib/libutils/ext/snprintk.c:417 (discriminator 1)
     c6e:	f855 0b04 	ldr.w	r0, [r5], #4
     c72:	e7f2      	b.n	c5a <kprintf.constprop.0+0x4ba>
/home/dangcaominh/STM32MP1/optee-os/optee-os/lib/libutils/ext/snprintk.c:417 (discriminator 8)
     c74:	f014 0120 	ands.w	r1, r4, #32
     c78:	d1e0      	bne.n	c3c <kprintf.constprop.0+0x49c>
/home/dangcaominh/STM32MP1/optee-os/optee-os/lib/libutils/ext/snprintk.c:317
     c7a:	461d      	mov	r5, r3
/home/dangcaominh/STM32MP1/optee-os/optee-os/lib/libutils/ext/snprintk.c:417 (discriminator 11)
     c7c:	f014 0310 	ands.w	r3, r4, #16
/home/dangcaominh/STM32MP1/optee-os/optee-os/lib/libutils/ext/snprintk.c:317
     c80:	f855 0b04 	ldr.w	r0, [r5], #4
/home/dangcaominh/STM32MP1/optee-os/optee-os/lib/libutils/ext/snprintk.c:417 (discriminator 11)
     c84:	d1e9      	bne.n	c5a <kprintf.constprop.0+0x4ba>
/home/dangcaominh/STM32MP1/optee-os/optee-os/lib/libutils/ext/snprintk.c:417 (discriminator 14)
     c86:	f014 0140 	ands.w	r1, r4, #64	@ 0x40
     c8a:	d0e6      	beq.n	c5a <kprintf.constprop.0+0x4ba>
/home/dangcaominh/STM32MP1/optee-os/optee-os/lib/libutils/ext/snprintk.c:417 (discriminator 1)
     c8c:	b280      	uxth	r0, r0
     c8e:	4619      	mov	r1, r3
     c90:	e7e3      	b.n	c5a <kprintf.constprop.0+0x4ba>
/home/dangcaominh/STM32MP1/optee-os/optee-os/lib/libutils/ext/snprintk.c:317
     c92:	461d      	mov	r5, r3
/home/dangcaominh/STM32MP1/optee-os/optee-os/lib/libutils/ext/snprintk.c:421
     c94:	9b11      	ldr	r3, [sp, #68]	@ 0x44
     c96:	f855 0b04 	ldr.w	r0, [r5], #4
     c9a:	b343      	cbz	r3, cee <kprintf.constprop.0+0x54e>
/home/dangcaominh/STM32MP1/optee-os/optee-os/lib/libutils/ext/snprintk.c:421 (discriminator 1)
     c9c:	f898 3000 	ldrb.w	r3, [r8]
     ca0:	2b55      	cmp	r3, #85	@ 0x55
     ca2:	d124      	bne.n	cee <kprintf.constprop.0+0x54e>
/home/dangcaominh/STM32MP1/optee-os/optee-os/lib/libutils/ext/snprintk.c:421 (discriminator 2)
     ca4:	f898 3001 	ldrb.w	r3, [r8, #1]
     ca8:	2b6c      	cmp	r3, #108	@ 0x6c
     caa:	d120      	bne.n	cee <kprintf.constprop.0+0x54e>
uuid2str():
/home/dangcaominh/STM32MP1/optee-os/optee-os/lib/libutils/ext/snprintk.c:229
     cac:	7bc3      	ldrb	r3, [r0, #15]
     cae:	f10d 0a4c 	add.w	sl, sp, #76	@ 0x4c
     cb2:	4a9e      	ldr	r2, [pc, #632]	@ (f2c <kprintf.constprop.0+0x78c>)
     cb4:	2125      	movs	r1, #37	@ 0x25
     cb6:	9309      	str	r3, [sp, #36]	@ 0x24
kprintf():
/home/dangcaominh/STM32MP1/optee-os/optee-os/lib/libutils/ext/snprintk.c:426
     cb8:	f108 0802 	add.w	r8, r8, #2
uuid2str():
/home/dangcaominh/STM32MP1/optee-os/optee-os/lib/libutils/ext/snprintk.c:229
     cbc:	7b83      	ldrb	r3, [r0, #14]
     cbe:	447a      	add	r2, pc
     cc0:	9308      	str	r3, [sp, #32]
     cc2:	7b43      	ldrb	r3, [r0, #13]
     cc4:	9307      	str	r3, [sp, #28]
     cc6:	7b03      	ldrb	r3, [r0, #12]
     cc8:	9306      	str	r3, [sp, #24]
     cca:	7ac3      	ldrb	r3, [r0, #11]
     ccc:	9305      	str	r3, [sp, #20]
     cce:	7a83      	ldrb	r3, [r0, #10]
     cd0:	9304      	str	r3, [sp, #16]
     cd2:	7a43      	ldrb	r3, [r0, #9]
     cd4:	9303      	str	r3, [sp, #12]
     cd6:	7a03      	ldrb	r3, [r0, #8]
     cd8:	9302      	str	r3, [sp, #8]
     cda:	88c3      	ldrh	r3, [r0, #6]
     cdc:	9301      	str	r3, [sp, #4]
     cde:	8883      	ldrh	r3, [r0, #4]
     ce0:	9300      	str	r3, [sp, #0]
     ce2:	6803      	ldr	r3, [r0, #0]
     ce4:	4650      	mov	r0, sl
     ce6:	f7ff fd34 	bl	752 <snprintk>
kprintf():
/home/dangcaominh/STM32MP1/optee-os/optee-os/lib/libutils/ext/snprintk.c:466
     cea:	4607      	mov	r7, r0
     cec:	e032      	b.n	d54 <kprintf.constprop.0+0x5b4>
/home/dangcaominh/STM32MP1/optee-os/optee-os/lib/libutils/ext/snprintk.c:443
     cee:	4b90      	ldr	r3, [pc, #576]	@ (f30 <kprintf.constprop.0+0x790>)
/home/dangcaominh/STM32MP1/optee-os/optee-os/lib/libutils/ext/snprintk.c:441 (discriminator 1)
     cf0:	2100      	movs	r1, #0
/home/dangcaominh/STM32MP1/optee-os/optee-os/lib/libutils/ext/snprintk.c:444
     cf2:	f044 0402 	orr.w	r4, r4, #2
/home/dangcaominh/STM32MP1/optee-os/optee-os/lib/libutils/ext/snprintk.c:445
     cf6:	f04f 0b78 	mov.w	fp, #120	@ 0x78
/home/dangcaominh/STM32MP1/optee-os/optee-os/lib/libutils/ext/snprintk.c:443
     cfa:	447b      	add	r3, pc
     cfc:	930f      	str	r3, [sp, #60]	@ 0x3c
/home/dangcaominh/STM32MP1/optee-os/optee-os/lib/libutils/ext/snprintk.c:494
     cfe:	2f00      	cmp	r7, #0
     d00:	f04f 0900 	mov.w	r9, #0
     d04:	f280 80a0 	bge.w	e48 <kprintf.constprop.0+0x6a8>
     d08:	f10d 0a71 	add.w	sl, sp, #113	@ 0x71
/home/dangcaominh/STM32MP1/optee-os/optee-os/lib/libutils/ext/snprintk.c:531
     d0c:	9a0f      	ldr	r2, [sp, #60]	@ 0x3c
     d0e:	f000 030f 	and.w	r3, r0, #15
/home/dangcaominh/STM32MP1/optee-os/optee-os/lib/libutils/ext/snprintk.c:532
     d12:	0900      	lsrs	r0, r0, #4
/home/dangcaominh/STM32MP1/optee-os/optee-os/lib/libutils/ext/snprintk.c:531
     d14:	5cd3      	ldrb	r3, [r2, r3]
/home/dangcaominh/STM32MP1/optee-os/optee-os/lib/libutils/ext/snprintk.c:532
     d16:	ea40 7001 	orr.w	r0, r0, r1, lsl #28
     d1a:	0909      	lsrs	r1, r1, #4
/home/dangcaominh/STM32MP1/optee-os/optee-os/lib/libutils/ext/snprintk.c:531
     d1c:	f80a 3d01 	strb.w	r3, [sl, #-1]!
/home/dangcaominh/STM32MP1/optee-os/optee-os/lib/libutils/ext/snprintk.c:533 (discriminator 1)
     d20:	ea50 0301 	orrs.w	r3, r0, r1
     d24:	d1f2      	bne.n	d0c <kprintf.constprop.0+0x56c>
     d26:	e6fd      	b.n	b24 <kprintf.constprop.0+0x384>
/home/dangcaominh/STM32MP1/optee-os/optee-os/lib/libutils/ext/snprintk.c:448
     d28:	461d      	mov	r5, r3
     d2a:	f855 ab04 	ldr.w	sl, [r5], #4
/home/dangcaominh/STM32MP1/optee-os/optee-os/lib/libutils/ext/snprintk.c:448 (discriminator 1)
     d2e:	f1ba 0f00 	cmp.w	sl, #0
     d32:	d102      	bne.n	d3a <kprintf.constprop.0+0x59a>
/home/dangcaominh/STM32MP1/optee-os/optee-os/lib/libutils/ext/snprintk.c:450
     d34:	f8df a1fc 	ldr.w	sl, [pc, #508]	@ f34 <kprintf.constprop.0+0x794>
     d38:	44fa      	add	sl, pc
/home/dangcaominh/STM32MP1/optee-os/optee-os/lib/libutils/ext/snprintk.c:451
     d3a:	2f00      	cmp	r7, #0
     d3c:	db0d      	blt.n	d5a <kprintf.constprop.0+0x5ba>
/home/dangcaominh/STM32MP1/optee-os/optee-os/lib/libutils/ext/snprintk.c:457
     d3e:	463a      	mov	r2, r7
     d40:	2100      	movs	r1, #0
     d42:	4650      	mov	r0, sl
     d44:	f009 f900 	bl	9f48 <memchr>
/home/dangcaominh/STM32MP1/optee-os/optee-os/lib/libutils/ext/snprintk.c:459
     d48:	b128      	cbz	r0, d56 <kprintf.constprop.0+0x5b6>
/home/dangcaominh/STM32MP1/optee-os/optee-os/lib/libutils/ext/snprintk.c:460
     d4a:	eba0 000a 	sub.w	r0, r0, sl
/home/dangcaominh/STM32MP1/optee-os/optee-os/lib/libutils/ext/snprintk.c:461
     d4e:	4287      	cmp	r7, r0
     d50:	bfa8      	it	ge
     d52:	4607      	movge	r7, r0
/home/dangcaominh/STM32MP1/optee-os/optee-os/lib/libutils/ext/snprintk.c:291
     d54:	2000      	movs	r0, #0
/home/dangcaominh/STM32MP1/optee-os/optee-os/lib/libutils/ext/snprintk.c:467
     d56:	4681      	mov	r9, r0
     d58:	e6e9      	b.n	b2e <kprintf.constprop.0+0x38e>
/home/dangcaominh/STM32MP1/optee-os/optee-os/lib/libutils/ext/snprintk.c:466
     d5a:	4650      	mov	r0, sl
     d5c:	f009 f902 	bl	9f64 <strlen>
     d60:	e7c3      	b.n	cea <kprintf.constprop.0+0x54a>
/home/dangcaominh/STM32MP1/optee-os/optee-os/lib/libutils/ext/snprintk.c:470
     d62:	f044 0410 	orr.w	r4, r4, #16
/home/dangcaominh/STM32MP1/optee-os/optee-os/lib/libutils/ext/snprintk.c:473
     d66:	f014 0280 	ands.w	r2, r4, #128	@ 0x80
     d6a:	d00e      	beq.n	d8a <kprintf.constprop.0+0x5ea>
/home/dangcaominh/STM32MP1/optee-os/optee-os/lib/libutils/ext/snprintk.c:473 (discriminator 1)
     d6c:	3307      	adds	r3, #7
     d6e:	f023 0307 	bic.w	r3, r3, #7
     d72:	461d      	mov	r5, r3
     d74:	6859      	ldr	r1, [r3, #4]
     d76:	f855 0b08 	ldr.w	r0, [r5], #8
/home/dangcaominh/STM32MP1/optee-os/optee-os/lib/libutils/ext/snprintk.c:488
     d7a:	f04f 0900 	mov.w	r9, #0
/home/dangcaominh/STM32MP1/optee-os/optee-os/lib/libutils/ext/snprintk.c:494
     d7e:	2f00      	cmp	r7, #0
     d80:	da55      	bge.n	e2e <kprintf.constprop.0+0x68e>
     d82:	f10d 0371 	add.w	r3, sp, #113	@ 0x71
     d86:	9310      	str	r3, [sp, #64]	@ 0x40
     d88:	e06a      	b.n	e60 <kprintf.constprop.0+0x6c0>
/home/dangcaominh/STM32MP1/optee-os/optee-os/lib/libutils/ext/snprintk.c:473 (discriminator 2)
     d8a:	f414 7180 	ands.w	r1, r4, #256	@ 0x100
     d8e:	d004      	beq.n	d9a <kprintf.constprop.0+0x5fa>
/home/dangcaominh/STM32MP1/optee-os/optee-os/lib/libutils/ext/snprintk.c:473 (discriminator 4)
     d90:	461d      	mov	r5, r3
/home/dangcaominh/STM32MP1/optee-os/optee-os/lib/libutils/ext/snprintk.c:473 (discriminator 1)
     d92:	4611      	mov	r1, r2
     d94:	f855 0b04 	ldr.w	r0, [r5], #4
     d98:	e7ef      	b.n	d7a <kprintf.constprop.0+0x5da>
/home/dangcaominh/STM32MP1/optee-os/optee-os/lib/libutils/ext/snprintk.c:473 (discriminator 5)
     d9a:	f414 7900 	ands.w	r9, r4, #512	@ 0x200
     d9e:	d003      	beq.n	da8 <kprintf.constprop.0+0x608>
/home/dangcaominh/STM32MP1/optee-os/optee-os/lib/libutils/ext/snprintk.c:473 (discriminator 7)
     da0:	461d      	mov	r5, r3
/home/dangcaominh/STM32MP1/optee-os/optee-os/lib/libutils/ext/snprintk.c:473 (discriminator 1)
     da2:	f855 0b04 	ldr.w	r0, [r5], #4
     da6:	e7e8      	b.n	d7a <kprintf.constprop.0+0x5da>
/home/dangcaominh/STM32MP1/optee-os/optee-os/lib/libutils/ext/snprintk.c:473 (discriminator 8)
     da8:	f014 0120 	ands.w	r1, r4, #32
     dac:	d007      	beq.n	dbe <kprintf.constprop.0+0x61e>
/home/dangcaominh/STM32MP1/optee-os/optee-os/lib/libutils/ext/snprintk.c:473 (discriminator 10)
     dae:	3307      	adds	r3, #7
     db0:	f023 0307 	bic.w	r3, r3, #7
     db4:	461d      	mov	r5, r3
     db6:	6859      	ldr	r1, [r3, #4]
     db8:	f855 0b08 	ldr.w	r0, [r5], #8
     dbc:	e7df      	b.n	d7e <kprintf.constprop.0+0x5de>
/home/dangcaominh/STM32MP1/optee-os/optee-os/lib/libutils/ext/snprintk.c:317
     dbe:	461d      	mov	r5, r3
/home/dangcaominh/STM32MP1/optee-os/optee-os/lib/libutils/ext/snprintk.c:473 (discriminator 11)
     dc0:	f014 0310 	ands.w	r3, r4, #16
/home/dangcaominh/STM32MP1/optee-os/optee-os/lib/libutils/ext/snprintk.c:317
     dc4:	f855 0b04 	ldr.w	r0, [r5], #4
/home/dangcaominh/STM32MP1/optee-os/optee-os/lib/libutils/ext/snprintk.c:473 (discriminator 11)
     dc8:	d1d7      	bne.n	d7a <kprintf.constprop.0+0x5da>
/home/dangcaominh/STM32MP1/optee-os/optee-os/lib/libutils/ext/snprintk.c:473 (discriminator 14)
     dca:	f014 0140 	ands.w	r1, r4, #64	@ 0x40
     dce:	d0d4      	beq.n	d7a <kprintf.constprop.0+0x5da>
/home/dangcaominh/STM32MP1/optee-os/optee-os/lib/libutils/ext/snprintk.c:473 (discriminator 1)
     dd0:	b280      	uxth	r0, r0
     dd2:	4619      	mov	r1, r3
     dd4:	e7d1      	b.n	d7a <kprintf.constprop.0+0x5da>
/home/dangcaominh/STM32MP1/optee-os/optee-os/lib/libutils/ext/snprintk.c:297
     dd6:	4a58      	ldr	r2, [pc, #352]	@ (f38 <kprintf.constprop.0+0x798>)
     dd8:	447a      	add	r2, pc
     dda:	3211      	adds	r2, #17
     ddc:	e5b5      	b.n	94a <kprintf.constprop.0+0x1aa>
/home/dangcaominh/STM32MP1/optee-os/optee-os/lib/libutils/ext/snprintk.c:481 (discriminator 2)
     dde:	f414 7180 	ands.w	r1, r4, #256	@ 0x100
     de2:	d00e      	beq.n	e02 <kprintf.constprop.0+0x662>
/home/dangcaominh/STM32MP1/optee-os/optee-os/lib/libutils/ext/snprintk.c:481 (discriminator 4)
     de4:	461d      	mov	r5, r3
/home/dangcaominh/STM32MP1/optee-os/optee-os/lib/libutils/ext/snprintk.c:481 (discriminator 1)
     de6:	4611      	mov	r1, r2
     de8:	f855 0b04 	ldr.w	r0, [r5], #4
/home/dangcaominh/STM32MP1/optee-os/optee-os/lib/libutils/ext/snprintk.c:484
     dec:	07e3      	lsls	r3, r4, #31
     dee:	d586      	bpl.n	cfe <kprintf.constprop.0+0x55e>
/home/dangcaominh/STM32MP1/optee-os/optee-os/lib/libutils/ext/snprintk.c:484 (discriminator 1)
     df0:	ea50 0301 	orrs.w	r3, r0, r1
     df4:	d083      	beq.n	cfe <kprintf.constprop.0+0x55e>
/home/dangcaominh/STM32MP1/optee-os/optee-os/lib/libutils/ext/snprintk.c:485
     df6:	f044 0402 	orr.w	r4, r4, #2
/home/dangcaominh/STM32MP1/optee-os/optee-os/lib/libutils/ext/snprintk.c:482
     dfa:	2302      	movs	r3, #2
/home/dangcaominh/STM32MP1/optee-os/optee-os/lib/libutils/ext/snprintk.c:488
     dfc:	f04f 0900 	mov.w	r9, #0
     e00:	e66f      	b.n	ae2 <kprintf.constprop.0+0x342>
/home/dangcaominh/STM32MP1/optee-os/optee-os/lib/libutils/ext/snprintk.c:481 (discriminator 5)
     e02:	05a2      	lsls	r2, r4, #22
     e04:	d503      	bpl.n	e0e <kprintf.constprop.0+0x66e>
/home/dangcaominh/STM32MP1/optee-os/optee-os/lib/libutils/ext/snprintk.c:481 (discriminator 7)
     e06:	461d      	mov	r5, r3
/home/dangcaominh/STM32MP1/optee-os/optee-os/lib/libutils/ext/snprintk.c:481 (discriminator 1)
     e08:	f855 0b04 	ldr.w	r0, [r5], #4
     e0c:	e7ee      	b.n	dec <kprintf.constprop.0+0x64c>
/home/dangcaominh/STM32MP1/optee-os/optee-os/lib/libutils/ext/snprintk.c:481 (discriminator 8)
     e0e:	f014 0120 	ands.w	r1, r4, #32
     e12:	f47f ad9f 	bne.w	954 <kprintf.constprop.0+0x1b4>
/home/dangcaominh/STM32MP1/optee-os/optee-os/lib/libutils/ext/snprintk.c:317
     e16:	461d      	mov	r5, r3
/home/dangcaominh/STM32MP1/optee-os/optee-os/lib/libutils/ext/snprintk.c:481 (discriminator 11)
     e18:	f014 0310 	ands.w	r3, r4, #16
/home/dangcaominh/STM32MP1/optee-os/optee-os/lib/libutils/ext/snprintk.c:317
     e1c:	f855 0b04 	ldr.w	r0, [r5], #4
/home/dangcaominh/STM32MP1/optee-os/optee-os/lib/libutils/ext/snprintk.c:481 (discriminator 11)
     e20:	d1e4      	bne.n	dec <kprintf.constprop.0+0x64c>
/home/dangcaominh/STM32MP1/optee-os/optee-os/lib/libutils/ext/snprintk.c:481 (discriminator 14)
     e22:	f014 0140 	ands.w	r1, r4, #64	@ 0x40
/home/dangcaominh/STM32MP1/optee-os/optee-os/lib/libutils/ext/snprintk.c:481 (discriminator 1)
     e26:	bf1c      	itt	ne
     e28:	b280      	uxthne	r0, r0
     e2a:	4619      	movne	r1, r3
     e2c:	e7de      	b.n	dec <kprintf.constprop.0+0x64c>
/home/dangcaominh/STM32MP1/optee-os/optee-os/lib/libutils/ext/snprintk.c:494
     e2e:	2301      	movs	r3, #1
/home/dangcaominh/STM32MP1/optee-os/optee-os/lib/libutils/ext/snprintk.c:503
     e30:	ea50 0201 	orrs.w	r2, r0, r1
/home/dangcaominh/STM32MP1/optee-os/optee-os/lib/libutils/ext/snprintk.c:495
     e34:	f424 6480 	bic.w	r4, r4, #1024	@ 0x400
/home/dangcaominh/STM32MP1/optee-os/optee-os/lib/libutils/ext/snprintk.c:503
     e38:	f47f ae56 	bne.w	ae8 <kprintf.constprop.0+0x348>
/home/dangcaominh/STM32MP1/optee-os/optee-os/lib/libutils/ext/snprintk.c:503 (discriminator 1)
     e3c:	2f00      	cmp	r7, #0
     e3e:	f47f ae53 	bne.w	ae8 <kprintf.constprop.0+0x348>
/home/dangcaominh/STM32MP1/optee-os/optee-os/lib/libutils/ext/snprintk.c:502
     e42:	f10d 0a71 	add.w	sl, sp, #113	@ 0x71
     e46:	e66d      	b.n	b24 <kprintf.constprop.0+0x384>
/home/dangcaominh/STM32MP1/optee-os/optee-os/lib/libutils/ext/snprintk.c:494
     e48:	2302      	movs	r3, #2
     e4a:	e7f1      	b.n	e30 <kprintf.constprop.0+0x690>
/home/dangcaominh/STM32MP1/optee-os/optee-os/lib/libutils/ext/snprintk.c:523
     e4c:	220a      	movs	r2, #10
     e4e:	2300      	movs	r3, #0
     e50:	f000 e88c 	blx	f6c <__aeabi_uldivmod>
     e54:	9b10      	ldr	r3, [sp, #64]	@ 0x40
     e56:	3230      	adds	r2, #48	@ 0x30
     e58:	f8cd a040 	str.w	sl, [sp, #64]	@ 0x40
     e5c:	f803 2c01 	strb.w	r2, [r3, #-1]
     e60:	9b10      	ldr	r3, [sp, #64]	@ 0x40
/home/dangcaominh/STM32MP1/optee-os/optee-os/lib/libutils/ext/snprintk.c:522
     e62:	280a      	cmp	r0, #10
/home/dangcaominh/STM32MP1/optee-os/optee-os/lib/libutils/ext/snprintk.c:523
     e64:	f103 3aff 	add.w	sl, r3, #4294967295	@ 0xffffffff
/home/dangcaominh/STM32MP1/optee-os/optee-os/lib/libutils/ext/snprintk.c:522
     e68:	f171 0300 	sbcs.w	r3, r1, #0
     e6c:	d2ee      	bcs.n	e4c <kprintf.constprop.0+0x6ac>
/home/dangcaominh/STM32MP1/optee-os/optee-os/lib/libutils/ext/snprintk.c:526
     e6e:	9b10      	ldr	r3, [sp, #64]	@ 0x40
     e70:	3030      	adds	r0, #48	@ 0x30
     e72:	f803 0c01 	strb.w	r0, [r3, #-1]
/home/dangcaominh/STM32MP1/optee-os/optee-os/lib/libutils/ext/snprintk.c:527
     e76:	e655      	b.n	b24 <kprintf.constprop.0+0x384>
/home/dangcaominh/STM32MP1/optee-os/optee-os/lib/libutils/ext/snprintk.c:574
     e78:	07a2      	lsls	r2, r4, #30
/home/dangcaominh/STM32MP1/optee-os/optee-os/lib/libutils/ext/snprintk.c:575
     e7a:	bf48      	it	mi
     e7c:	3302      	addmi	r3, #2
     e7e:	e65f      	b.n	b40 <kprintf.constprop.0+0x3a0>
/home/dangcaominh/STM32MP1/optee-os/optee-os/lib/libutils/ext/snprintk.c:584 (discriminator 1)
     e80:	b146      	cbz	r6, e94 <kprintf.constprop.0+0x6f4>
/home/dangcaominh/STM32MP1/optee-os/optee-os/lib/libutils/ext/snprintk.c:584 (discriminator 3)
     e82:	990c      	ldr	r1, [sp, #48]	@ 0x30
     e84:	b111      	cbz	r1, e8c <kprintf.constprop.0+0x6ec>
/home/dangcaominh/STM32MP1/optee-os/optee-os/lib/libutils/ext/snprintk.c:584 (discriminator 5)
     e86:	990e      	ldr	r1, [sp, #56]	@ 0x38
     e88:	42b1      	cmp	r1, r6
     e8a:	d903      	bls.n	e94 <kprintf.constprop.0+0x6f4>
/home/dangcaominh/STM32MP1/optee-os/optee-os/lib/libutils/ext/snprintk.c:584 (discriminator 6)
     e8c:	f04f 0120 	mov.w	r1, #32
     e90:	f806 1b01 	strb.w	r1, [r6], #1
     e94:	3a01      	subs	r2, #1
     e96:	e661      	b.n	b5c <kprintf.constprop.0+0x3bc>
/home/dangcaominh/STM32MP1/optee-os/optee-os/lib/libutils/ext/snprintk.c:590
     e98:	07a1      	lsls	r1, r4, #30
     e9a:	f57f ae6e 	bpl.w	b7a <kprintf.constprop.0+0x3da>
/home/dangcaominh/STM32MP1/optee-os/optee-os/lib/libutils/ext/snprintk.c:591 (discriminator 1)
     e9e:	2e00      	cmp	r6, #0
     ea0:	f43f ae6b 	beq.w	b7a <kprintf.constprop.0+0x3da>
/home/dangcaominh/STM32MP1/optee-os/optee-os/lib/libutils/ext/snprintk.c:591 (discriminator 3)
     ea4:	9a0c      	ldr	r2, [sp, #48]	@ 0x30
     ea6:	b16a      	cbz	r2, ec4 <kprintf.constprop.0+0x724>
/home/dangcaominh/STM32MP1/optee-os/optee-os/lib/libutils/ext/snprintk.c:591 (discriminator 5)
     ea8:	9a0e      	ldr	r2, [sp, #56]	@ 0x38
     eaa:	42b2      	cmp	r2, r6
     eac:	f67f ae65 	bls.w	b7a <kprintf.constprop.0+0x3da>
/home/dangcaominh/STM32MP1/optee-os/optee-os/lib/libutils/ext/snprintk.c:592 (discriminator 5)
     eb0:	990e      	ldr	r1, [sp, #56]	@ 0x38
/home/dangcaominh/STM32MP1/optee-os/optee-os/lib/libutils/ext/snprintk.c:591 (discriminator 6)
     eb2:	4632      	mov	r2, r6
     eb4:	f04f 0c30 	mov.w	ip, #48	@ 0x30
     eb8:	f802 cb01 	strb.w	ip, [r2], #1
/home/dangcaominh/STM32MP1/optee-os/optee-os/lib/libutils/ext/snprintk.c:592 (discriminator 5)
     ebc:	4291      	cmp	r1, r2
     ebe:	d803      	bhi.n	ec8 <kprintf.constprop.0+0x728>
     ec0:	4616      	mov	r6, r2
     ec2:	e65a      	b.n	b7a <kprintf.constprop.0+0x3da>
/home/dangcaominh/STM32MP1/optee-os/optee-os/lib/libutils/ext/snprintk.c:591 (discriminator 6)
     ec4:	2230      	movs	r2, #48	@ 0x30
     ec6:	7032      	strb	r2, [r6, #0]
/home/dangcaominh/STM32MP1/optee-os/optee-os/lib/libutils/ext/snprintk.c:592 (discriminator 6)
     ec8:	f886 b001 	strb.w	fp, [r6, #1]
     ecc:	3602      	adds	r6, #2
     ece:	e654      	b.n	b7a <kprintf.constprop.0+0x3da>
/home/dangcaominh/STM32MP1/optee-os/optee-os/lib/libutils/ext/snprintk.c:599 (discriminator 1)
     ed0:	b136      	cbz	r6, ee0 <kprintf.constprop.0+0x740>
/home/dangcaominh/STM32MP1/optee-os/optee-os/lib/libutils/ext/snprintk.c:599 (discriminator 3)
     ed2:	990c      	ldr	r1, [sp, #48]	@ 0x30
     ed4:	b111      	cbz	r1, edc <kprintf.constprop.0+0x73c>
/home/dangcaominh/STM32MP1/optee-os/optee-os/lib/libutils/ext/snprintk.c:599 (discriminator 5)
     ed6:	990e      	ldr	r1, [sp, #56]	@ 0x38
     ed8:	42b1      	cmp	r1, r6
     eda:	d901      	bls.n	ee0 <kprintf.constprop.0+0x740>
/home/dangcaominh/STM32MP1/optee-os/optee-os/lib/libutils/ext/snprintk.c:599 (discriminator 6)
     edc:	f806 cb01 	strb.w	ip, [r6], #1
     ee0:	3a01      	subs	r2, #1
     ee2:	e651      	b.n	b88 <kprintf.constprop.0+0x3e8>
/home/dangcaominh/STM32MP1/optee-os/optee-os/lib/libutils/ext/snprintk.c:605 (discriminator 1)
     ee4:	b136      	cbz	r6, ef4 <kprintf.constprop.0+0x754>
/home/dangcaominh/STM32MP1/optee-os/optee-os/lib/libutils/ext/snprintk.c:605 (discriminator 3)
     ee6:	990c      	ldr	r1, [sp, #48]	@ 0x30
     ee8:	b111      	cbz	r1, ef0 <kprintf.constprop.0+0x750>
/home/dangcaominh/STM32MP1/optee-os/optee-os/lib/libutils/ext/snprintk.c:605 (discriminator 5)
     eea:	990e      	ldr	r1, [sp, #56]	@ 0x38
     eec:	42b1      	cmp	r1, r6
     eee:	d901      	bls.n	ef4 <kprintf.constprop.0+0x754>
/home/dangcaominh/STM32MP1/optee-os/optee-os/lib/libutils/ext/snprintk.c:605 (discriminator 6)
     ef0:	f806 2b01 	strb.w	r2, [r6], #1
     ef4:	3801      	subs	r0, #1
     ef6:	e64c      	b.n	b92 <kprintf.constprop.0+0x3f2>
/home/dangcaominh/STM32MP1/optee-os/optee-os/lib/libutils/ext/snprintk.c:609 (discriminator 1)
     ef8:	b146      	cbz	r6, f0c <kprintf.constprop.0+0x76c>
/home/dangcaominh/STM32MP1/optee-os/optee-os/lib/libutils/ext/snprintk.c:609 (discriminator 3)
     efa:	9a0c      	ldr	r2, [sp, #48]	@ 0x30
     efc:	b112      	cbz	r2, f04 <kprintf.constprop.0+0x764>
/home/dangcaominh/STM32MP1/optee-os/optee-os/lib/libutils/ext/snprintk.c:609 (discriminator 5)
     efe:	9a0e      	ldr	r2, [sp, #56]	@ 0x38
     f00:	42b2      	cmp	r2, r6
     f02:	d903      	bls.n	f0c <kprintf.constprop.0+0x76c>
/home/dangcaominh/STM32MP1/optee-os/optee-os/lib/libutils/ext/snprintk.c:609 (discriminator 6)
     f04:	f89a 2000 	ldrb.w	r2, [sl]
     f08:	f806 2b01 	strb.w	r2, [r6], #1
/home/dangcaominh/STM32MP1/optee-os/optee-os/lib/libutils/ext/snprintk.c:608
     f0c:	f10a 0a01 	add.w	sl, sl, #1
     f10:	e643      	b.n	b9a <kprintf.constprop.0+0x3fa>
/home/dangcaominh/STM32MP1/optee-os/optee-os/lib/libutils/ext/snprintk.c:622
     f12:	980b      	ldr	r0, [sp, #44]	@ 0x2c
     f14:	b01f      	add	sp, #124	@ 0x7c
     f16:	e8bd 8ff0 	ldmia.w	sp!, {r4, r5, r6, r7, r8, r9, sl, fp, pc}
     f1a:	bf00      	nop
     f1c:	0000b8d0 	.word	0x0000b8d0
     f20:	0000000c 	.word	0x0000000c
     f24:	0000b898 	.word	0x0000b898
     f28:	0000a50d 	.word	0x0000a50d
     f2c:	000096ae 	.word	0x000096ae
     f30:	0000a15b 	.word	0x0000a15b
     f34:	0000962d 	.word	0x0000962d
     f38:	0000a07d 	.word	0x0000a07d

00000f3c <__vsprintf>:
__vsprintf():
/home/dangcaominh/STM32MP1/optee-os/optee-os/lib/libutils/ext/snprintk.c:155
     f3c:	b513      	push	{r0, r1, r4, lr}
     f3e:	4604      	mov	r4, r0
     f40:	4608      	mov	r0, r1
/home/dangcaominh/STM32MP1/optee-os/optee-os/lib/libutils/ext/snprintk.c:156
     f42:	2100      	movs	r1, #0
     f44:	9100      	str	r1, [sp, #0]
/home/dangcaominh/STM32MP1/optee-os/optee-os/lib/libutils/ext/snprintk.c:155
     f46:	4613      	mov	r3, r2
/home/dangcaominh/STM32MP1/optee-os/optee-os/lib/libutils/ext/snprintk.c:156
     f48:	4622      	mov	r2, r4
     f4a:	f7ff fc29 	bl	7a0 <kprintf.constprop.0>
/home/dangcaominh/STM32MP1/optee-os/optee-os/lib/libutils/ext/snprintk.c:157
     f4e:	b002      	add	sp, #8
     f50:	bd10      	pop	{r4, pc}
     f52:	bf00      	nop

00000f54 <__aeabi_ldivmod>:
__aeabi_ldivmod():
/home/dangcaominh/STM32MP1/optee-os/optee-os/lib/libutils/isoc/arch/arm/arm32_aeabi_ldivmod_a32.S:14
     f54:	e92d5000 	push	{ip, lr}
/home/dangcaominh/STM32MP1/optee-os/optee-os/lib/libutils/isoc/arch/arm/arm32_aeabi_ldivmod_a32.S:16
     f58:	e92d000f 	push	{r0, r1, r2, r3}
/home/dangcaominh/STM32MP1/optee-os/optee-os/lib/libutils/isoc/arch/arm/arm32_aeabi_ldivmod_a32.S:18
     f5c:	e1a0000d 	mov	r0, sp
/home/dangcaominh/STM32MP1/optee-os/optee-os/lib/libutils/isoc/arch/arm/arm32_aeabi_ldivmod_a32.S:19
     f60:	fa000045 	blx	107c <__l_divmod>
/home/dangcaominh/STM32MP1/optee-os/optee-os/lib/libutils/isoc/arch/arm/arm32_aeabi_ldivmod_a32.S:20
     f64:	e8bd000f 	pop	{r0, r1, r2, r3}
/home/dangcaominh/STM32MP1/optee-os/optee-os/lib/libutils/isoc/arch/arm/arm32_aeabi_ldivmod_a32.S:21
     f68:	e8bd9000 	pop	{ip, pc}

00000f6c <__aeabi_uldivmod>:
__aeabi_uldivmod():
/home/dangcaominh/STM32MP1/optee-os/optee-os/lib/libutils/isoc/arch/arm/arm32_aeabi_ldivmod_a32.S:29
     f6c:	e92d5000 	push	{ip, lr}
/home/dangcaominh/STM32MP1/optee-os/optee-os/lib/libutils/isoc/arch/arm/arm32_aeabi_ldivmod_a32.S:31
     f70:	e92d000f 	push	{r0, r1, r2, r3}
/home/dangcaominh/STM32MP1/optee-os/optee-os/lib/libutils/isoc/arch/arm/arm32_aeabi_ldivmod_a32.S:33
     f74:	e1a0000d 	mov	r0, sp
/home/dangcaominh/STM32MP1/optee-os/optee-os/lib/libutils/isoc/arch/arm/arm32_aeabi_ldivmod_a32.S:34
     f78:	fb000023 	blx	100e <__ul_divmod>
/home/dangcaominh/STM32MP1/optee-os/optee-os/lib/libutils/isoc/arch/arm/arm32_aeabi_ldivmod_a32.S:35
     f7c:	e8bd000f 	pop	{r0, r1, r2, r3}
/home/dangcaominh/STM32MP1/optee-os/optee-os/lib/libutils/isoc/arch/arm/arm32_aeabi_ldivmod_a32.S:36
     f80:	e8bd9000 	pop	{ip, pc}

00000f84 <ul_div_qr>:
ul_div_qr():
/home/dangcaominh/STM32MP1/optee-os/optee-os/lib/libutils/isoc/arch/arm/arm32_aeabi_ldivmod.c:47
     f84:	468c      	mov	ip, r1
division_lqr():
/home/dangcaominh/STM32MP1/optee-os/optee-os/lib/libutils/isoc/arch/arm/arm32_aeabi_ldivmod.c:22
     f86:	ea52 0103 	orrs.w	r1, r2, r3
ul_div_qr():
/home/dangcaominh/STM32MP1/optee-os/optee-os/lib/libutils/isoc/arch/arm/arm32_aeabi_ldivmod.c:47
     f8a:	b5f0      	push	{r4, r5, r6, r7, lr}
     f8c:	9d05      	ldr	r5, [sp, #20]
division_lqr():
/home/dangcaominh/STM32MP1/optee-os/optee-os/lib/libutils/isoc/arch/arm/arm32_aeabi_ldivmod.c:22
     f8e:	d126      	bne.n	fde <ul_div_qr+0x5a>
/home/dangcaominh/STM32MP1/optee-os/optee-os/lib/libutils/isoc/arch/arm/arm32_aeabi_ldivmod.c:23
     f90:	ffc7 0e1f 	vmov.i8	d16, #255	@ 0xff
     f94:	edc5 0b02 	vstr	d16, [r5, #8]
ul_div_qr():
/home/dangcaominh/STM32MP1/optee-os/optee-os/lib/libutils/isoc/arch/arm/arm32_aeabi_ldivmod.c:52
     f98:	692b      	ldr	r3, [r5, #16]
     f9a:	b133      	cbz	r3, faa <ul_div_qr+0x26>
/home/dangcaominh/STM32MP1/optee-os/optee-os/lib/libutils/isoc/arch/arm/arm32_aeabi_ldivmod.c:53
     f9c:	e9d5 3200 	ldrd	r3, r2, [r5]
     fa0:	425b      	negs	r3, r3
     fa2:	eb62 0242 	sbc.w	r2, r2, r2, lsl #1
     fa6:	e9c5 3200 	strd	r3, r2, [r5]
/home/dangcaominh/STM32MP1/optee-os/optee-os/lib/libutils/isoc/arch/arm/arm32_aeabi_ldivmod.c:54
     faa:	696b      	ldr	r3, [r5, #20]
     fac:	b133      	cbz	r3, fbc <ul_div_qr+0x38>
/home/dangcaominh/STM32MP1/optee-os/optee-os/lib/libutils/isoc/arch/arm/arm32_aeabi_ldivmod.c:55
     fae:	e9d5 3202 	ldrd	r3, r2, [r5, #8]
     fb2:	425b      	negs	r3, r3
     fb4:	eb62 0242 	sbc.w	r2, r2, r2, lsl #1
     fb8:	e9c5 3202 	strd	r3, r2, [r5, #8]
/home/dangcaominh/STM32MP1/optee-os/optee-os/lib/libutils/isoc/arch/arm/arm32_aeabi_ldivmod.c:56
     fbc:	bdf0      	pop	{r4, r5, r6, r7, pc}
division_lqr():
/home/dangcaominh/STM32MP1/optee-os/optee-os/lib/libutils/isoc/arch/arm/arm32_aeabi_ldivmod.c:28
     fbe:	19b6      	adds	r6, r6, r6
     fc0:	417f      	adcs	r7, r7
/home/dangcaominh/STM32MP1/optee-os/optee-os/lib/libutils/isoc/arch/arm/arm32_aeabi_ldivmod.c:29
     fc2:	1892      	adds	r2, r2, r2
     fc4:	415b      	adcs	r3, r3
/home/dangcaominh/STM32MP1/optee-os/optee-os/lib/libutils/isoc/arch/arm/arm32_aeabi_ldivmod.c:27
     fc6:	2b00      	cmp	r3, #0
     fc8:	daf9      	bge.n	fbe <ul_div_qr+0x3a>
/home/dangcaominh/STM32MP1/optee-os/optee-os/lib/libutils/isoc/arch/arm/arm32_aeabi_ldivmod.c:21
     fca:	2400      	movs	r4, #0
     fcc:	4621      	mov	r1, r4
/home/dangcaominh/STM32MP1/optee-os/optee-os/lib/libutils/isoc/arch/arm/arm32_aeabi_ldivmod.c:32
     fce:	ea56 0e07 	orrs.w	lr, r6, r7
     fd2:	d107      	bne.n	fe4 <ul_div_qr+0x60>
/home/dangcaominh/STM32MP1/optee-os/optee-os/lib/libutils/isoc/arch/arm/arm32_aeabi_ldivmod.c:41
     fd4:	e9c5 0c02 	strd	r0, ip, [r5, #8]
/home/dangcaominh/STM32MP1/optee-os/optee-os/lib/libutils/isoc/arch/arm/arm32_aeabi_ldivmod.c:42
     fd8:	e9c5 4100 	strd	r4, r1, [r5]
     fdc:	e7dc      	b.n	f98 <ul_div_qr+0x14>
/home/dangcaominh/STM32MP1/optee-os/optee-os/lib/libutils/isoc/arch/arm/arm32_aeabi_ldivmod.c:21
     fde:	2601      	movs	r6, #1
     fe0:	2700      	movs	r7, #0
     fe2:	e7f0      	b.n	fc6 <ul_div_qr+0x42>
/home/dangcaominh/STM32MP1/optee-os/optee-os/lib/libutils/isoc/arch/arm/arm32_aeabi_ldivmod.c:33
     fe4:	1924      	adds	r4, r4, r4
     fe6:	4149      	adcs	r1, r1
/home/dangcaominh/STM32MP1/optee-os/optee-os/lib/libutils/isoc/arch/arm/arm32_aeabi_ldivmod.c:34
     fe8:	4290      	cmp	r0, r2
     fea:	eb7c 0e03 	sbcs.w	lr, ip, r3
     fee:	d305      	bcc.n	ffc <ul_div_qr+0x78>
/home/dangcaominh/STM32MP1/optee-os/optee-os/lib/libutils/isoc/arch/arm/arm32_aeabi_ldivmod.c:35
     ff0:	1a80      	subs	r0, r0, r2
     ff2:	eb6c 0c03 	sbc.w	ip, ip, r3
/home/dangcaominh/STM32MP1/optee-os/optee-os/lib/libutils/isoc/arch/arm/arm32_aeabi_ldivmod.c:36
     ff6:	3401      	adds	r4, #1
     ff8:	f141 0100 	adc.w	r1, r1, #0
/home/dangcaominh/STM32MP1/optee-os/optee-os/lib/libutils/isoc/arch/arm/arm32_aeabi_ldivmod.c:38
     ffc:	0852      	lsrs	r2, r2, #1
/home/dangcaominh/STM32MP1/optee-os/optee-os/lib/libutils/isoc/arch/arm/arm32_aeabi_ldivmod.c:39
     ffe:	0876      	lsrs	r6, r6, #1
/home/dangcaominh/STM32MP1/optee-os/optee-os/lib/libutils/isoc/arch/arm/arm32_aeabi_ldivmod.c:38
    1000:	ea42 72c3 	orr.w	r2, r2, r3, lsl #31
/home/dangcaominh/STM32MP1/optee-os/optee-os/lib/libutils/isoc/arch/arm/arm32_aeabi_ldivmod.c:39
    1004:	ea46 76c7 	orr.w	r6, r6, r7, lsl #31
/home/dangcaominh/STM32MP1/optee-os/optee-os/lib/libutils/isoc/arch/arm/arm32_aeabi_ldivmod.c:38
    1008:	085b      	lsrs	r3, r3, #1
/home/dangcaominh/STM32MP1/optee-os/optee-os/lib/libutils/isoc/arch/arm/arm32_aeabi_ldivmod.c:39
    100a:	087f      	lsrs	r7, r7, #1
    100c:	e7df      	b.n	fce <ul_div_qr+0x4a>

0000100e <__ul_divmod>:
__ul_divmod():
/home/dangcaominh/STM32MP1/optee-os/optee-os/lib/libutils/isoc/arch/arm/arm32_aeabi_ldivmod.c:66
    100e:	4a18      	ldr	r2, [pc, #96]	@ (1070 <__ul_divmod+0x62>)
    1010:	4b18      	ldr	r3, [pc, #96]	@ (1074 <__ul_divmod+0x66>)
    1012:	447a      	add	r2, pc
    1014:	b510      	push	{r4, lr}
    1016:	b08a      	sub	sp, #40	@ 0x28
    1018:	58d3      	ldr	r3, [r2, r3]
    101a:	4604      	mov	r4, r0
/home/dangcaominh/STM32MP1/optee-os/optee-os/lib/libutils/isoc/arch/arm/arm32_aeabi_ldivmod.c:69
    101c:	efc0 0010 	vmov.i32	d16, #0	@ 0x00000000
/home/dangcaominh/STM32MP1/optee-os/optee-os/lib/libutils/isoc/arch/arm/arm32_aeabi_ldivmod.c:66
    1020:	681b      	ldr	r3, [r3, #0]
    1022:	9309      	str	r3, [sp, #36]	@ 0x24
    1024:	f04f 0300 	mov.w	r3, #0
/home/dangcaominh/STM32MP1/optee-os/optee-os/lib/libutils/isoc/arch/arm/arm32_aeabi_ldivmod.c:69
    1028:	ab02      	add	r3, sp, #8
/home/dangcaominh/STM32MP1/optee-os/optee-os/lib/libutils/isoc/arch/arm/arm32_aeabi_ldivmod.c:71
    102a:	9300      	str	r3, [sp, #0]
    102c:	e9d0 2302 	ldrd	r2, r3, [r0, #8]
    1030:	e9d0 0100 	ldrd	r0, r1, [r0]
/home/dangcaominh/STM32MP1/optee-os/optee-os/lib/libutils/isoc/arch/arm/arm32_aeabi_ldivmod.c:69
    1034:	edcd 0b02 	vstr	d16, [sp, #8]
    1038:	edcd 0b04 	vstr	d16, [sp, #16]
    103c:	edcd 0b06 	vstr	d16, [sp, #24]
/home/dangcaominh/STM32MP1/optee-os/optee-os/lib/libutils/isoc/arch/arm/arm32_aeabi_ldivmod.c:71
    1040:	f7ff ffa0 	bl	f84 <ul_div_qr>
/home/dangcaominh/STM32MP1/optee-os/optee-os/lib/libutils/isoc/arch/arm/arm32_aeabi_ldivmod.c:73
    1044:	e9dd 2302 	ldrd	r2, r3, [sp, #8]
    1048:	e9c4 2300 	strd	r2, r3, [r4]
/home/dangcaominh/STM32MP1/optee-os/optee-os/lib/libutils/isoc/arch/arm/arm32_aeabi_ldivmod.c:74
    104c:	e9dd 2304 	ldrd	r2, r3, [sp, #16]
    1050:	e9c4 2302 	strd	r2, r3, [r4, #8]
/home/dangcaominh/STM32MP1/optee-os/optee-os/lib/libutils/isoc/arch/arm/arm32_aeabi_ldivmod.c:66
    1054:	4a08      	ldr	r2, [pc, #32]	@ (1078 <__ul_divmod+0x6a>)
/home/dangcaominh/STM32MP1/optee-os/optee-os/lib/libutils/isoc/arch/arm/arm32_aeabi_ldivmod.c:75
    1056:	4b07      	ldr	r3, [pc, #28]	@ (1074 <__ul_divmod+0x66>)
/home/dangcaominh/STM32MP1/optee-os/optee-os/lib/libutils/isoc/arch/arm/arm32_aeabi_ldivmod.c:66
    1058:	447a      	add	r2, pc
/home/dangcaominh/STM32MP1/optee-os/optee-os/lib/libutils/isoc/arch/arm/arm32_aeabi_ldivmod.c:75
    105a:	58d3      	ldr	r3, [r2, r3]
    105c:	681a      	ldr	r2, [r3, #0]
    105e:	9b09      	ldr	r3, [sp, #36]	@ 0x24
    1060:	405a      	eors	r2, r3
    1062:	f04f 0300 	mov.w	r3, #0
    1066:	d001      	beq.n	106c <__ul_divmod+0x5e>
    1068:	f7ff fa2e 	bl	4c8 <__stack_chk_fail>
    106c:	b00a      	add	sp, #40	@ 0x28
    106e:	bd10      	pop	{r4, pc}
    1070:	0000b072 	.word	0x0000b072
    1074:	0000000c 	.word	0x0000000c
    1078:	0000b02c 	.word	0x0000b02c

0000107c <__l_divmod>:
__l_divmod():
/home/dangcaominh/STM32MP1/optee-os/optee-os/lib/libutils/isoc/arch/arm/arm32_aeabi_ldivmod.c:85
    107c:	4a26      	ldr	r2, [pc, #152]	@ (1118 <__l_divmod+0x9c>)
    107e:	b570      	push	{r4, r5, r6, lr}
    1080:	4604      	mov	r4, r0
/home/dangcaominh/STM32MP1/optee-os/optee-os/lib/libutils/isoc/arch/arm/arm32_aeabi_ldivmod.c:88
    1082:	efc0 0010 	vmov.i32	d16, #0	@ 0x00000000
/home/dangcaominh/STM32MP1/optee-os/optee-os/lib/libutils/isoc/arch/arm/arm32_aeabi_ldivmod.c:85
    1086:	447a      	add	r2, pc
    1088:	b08a      	sub	sp, #40	@ 0x28
    108a:	4b24      	ldr	r3, [pc, #144]	@ (111c <__l_divmod+0xa0>)
/home/dangcaominh/STM32MP1/optee-os/optee-os/lib/libutils/isoc/arch/arm/arm32_aeabi_ldivmod.c:88
    108c:	ad02      	add	r5, sp, #8
/home/dangcaominh/STM32MP1/optee-os/optee-os/lib/libutils/isoc/arch/arm/arm32_aeabi_ldivmod.c:86
    108e:	e9d0 0100 	ldrd	r0, r1, [r0]
/home/dangcaominh/STM32MP1/optee-os/optee-os/lib/libutils/isoc/arch/arm/arm32_aeabi_ldivmod.c:85
    1092:	58d3      	ldr	r3, [r2, r3]
/home/dangcaominh/STM32MP1/optee-os/optee-os/lib/libutils/isoc/arch/arm/arm32_aeabi_ldivmod.c:90
    1094:	2900      	cmp	r1, #0
/home/dangcaominh/STM32MP1/optee-os/optee-os/lib/libutils/isoc/arch/arm/arm32_aeabi_ldivmod.c:85
    1096:	681b      	ldr	r3, [r3, #0]
    1098:	9309      	str	r3, [sp, #36]	@ 0x24
    109a:	f04f 0300 	mov.w	r3, #0
/home/dangcaominh/STM32MP1/optee-os/optee-os/lib/libutils/isoc/arch/arm/arm32_aeabi_ldivmod.c:88
    109e:	edcd 0b02 	vstr	d16, [sp, #8]
    10a2:	edc5 0b02 	vstr	d16, [r5, #8]
    10a6:	edc5 0b04 	vstr	d16, [r5, #16]
/home/dangcaominh/STM32MP1/optee-os/optee-os/lib/libutils/isoc/arch/arm/arm32_aeabi_ldivmod.c:87
    10aa:	e9d4 2302 	ldrd	r2, r3, [r4, #8]
/home/dangcaominh/STM32MP1/optee-os/optee-os/lib/libutils/isoc/arch/arm/arm32_aeabi_ldivmod.c:90
    10ae:	da0a      	bge.n	10c6 <__l_divmod+0x4a>
/home/dangcaominh/STM32MP1/optee-os/optee-os/lib/libutils/isoc/arch/arm/arm32_aeabi_ldivmod.c:90 (discriminator 1)
    10b0:	2a01      	cmp	r2, #1
    10b2:	f173 0600 	sbcs.w	r6, r3, #0
    10b6:	da29      	bge.n	110c <__l_divmod+0x90>
/home/dangcaominh/STM32MP1/optee-os/optee-os/lib/libutils/isoc/arch/arm/arm32_aeabi_ldivmod.c:94
    10b8:	4240      	negs	r0, r0
/home/dangcaominh/STM32MP1/optee-os/optee-os/lib/libutils/isoc/arch/arm/arm32_aeabi_ldivmod.c:95
    10ba:	f04f 0601 	mov.w	r6, #1
/home/dangcaominh/STM32MP1/optee-os/optee-os/lib/libutils/isoc/arch/arm/arm32_aeabi_ldivmod.c:94
    10be:	eb61 0141 	sbc.w	r1, r1, r1, lsl #1
/home/dangcaominh/STM32MP1/optee-os/optee-os/lib/libutils/isoc/arch/arm/arm32_aeabi_ldivmod.c:95
    10c2:	9607      	str	r6, [sp, #28]
    10c4:	e006      	b.n	10d4 <__l_divmod+0x58>
/home/dangcaominh/STM32MP1/optee-os/optee-os/lib/libutils/isoc/arch/arm/arm32_aeabi_ldivmod.c:90 (discriminator 3)
    10c6:	ea50 0601 	orrs.w	r6, r0, r1
    10ca:	d003      	beq.n	10d4 <__l_divmod+0x58>
/home/dangcaominh/STM32MP1/optee-os/optee-os/lib/libutils/isoc/arch/arm/arm32_aeabi_ldivmod.c:91
    10cc:	2b00      	cmp	r3, #0
    10ce:	da01      	bge.n	10d4 <__l_divmod+0x58>
/home/dangcaominh/STM32MP1/optee-os/optee-os/lib/libutils/isoc/arch/arm/arm32_aeabi_ldivmod.c:92
    10d0:	2601      	movs	r6, #1
    10d2:	9606      	str	r6, [sp, #24]
/home/dangcaominh/STM32MP1/optee-os/optee-os/lib/libutils/isoc/arch/arm/arm32_aeabi_ldivmod.c:97
    10d4:	2b00      	cmp	r3, #0
    10d6:	da02      	bge.n	10de <__l_divmod+0x62>
    10d8:	4252      	negs	r2, r2
    10da:	eb63 0343 	sbc.w	r3, r3, r3, lsl #1
/home/dangcaominh/STM32MP1/optee-os/optee-os/lib/libutils/isoc/arch/arm/arm32_aeabi_ldivmod.c:100
    10de:	9500      	str	r5, [sp, #0]
    10e0:	f7ff ff50 	bl	f84 <ul_div_qr>
/home/dangcaominh/STM32MP1/optee-os/optee-os/lib/libutils/isoc/arch/arm/arm32_aeabi_ldivmod.c:102
    10e4:	e9dd 2302 	ldrd	r2, r3, [sp, #8]
    10e8:	e9c4 2300 	strd	r2, r3, [r4]
/home/dangcaominh/STM32MP1/optee-os/optee-os/lib/libutils/isoc/arch/arm/arm32_aeabi_ldivmod.c:103
    10ec:	e9dd 2304 	ldrd	r2, r3, [sp, #16]
    10f0:	e9c4 2302 	strd	r2, r3, [r4, #8]
/home/dangcaominh/STM32MP1/optee-os/optee-os/lib/libutils/isoc/arch/arm/arm32_aeabi_ldivmod.c:85
    10f4:	4a0a      	ldr	r2, [pc, #40]	@ (1120 <__l_divmod+0xa4>)
/home/dangcaominh/STM32MP1/optee-os/optee-os/lib/libutils/isoc/arch/arm/arm32_aeabi_ldivmod.c:104
    10f6:	4b09      	ldr	r3, [pc, #36]	@ (111c <__l_divmod+0xa0>)
/home/dangcaominh/STM32MP1/optee-os/optee-os/lib/libutils/isoc/arch/arm/arm32_aeabi_ldivmod.c:85
    10f8:	447a      	add	r2, pc
/home/dangcaominh/STM32MP1/optee-os/optee-os/lib/libutils/isoc/arch/arm/arm32_aeabi_ldivmod.c:104
    10fa:	58d3      	ldr	r3, [r2, r3]
    10fc:	681a      	ldr	r2, [r3, #0]
    10fe:	9b09      	ldr	r3, [sp, #36]	@ 0x24
    1100:	405a      	eors	r2, r3
    1102:	f04f 0300 	mov.w	r3, #0
    1106:	d004      	beq.n	1112 <__l_divmod+0x96>
    1108:	f7ff f9de 	bl	4c8 <__stack_chk_fail>
/home/dangcaominh/STM32MP1/optee-os/optee-os/lib/libutils/isoc/arch/arm/arm32_aeabi_ldivmod.c:92
    110c:	2601      	movs	r6, #1
    110e:	9606      	str	r6, [sp, #24]
/home/dangcaominh/STM32MP1/optee-os/optee-os/lib/libutils/isoc/arch/arm/arm32_aeabi_ldivmod.c:93
    1110:	e7d2      	b.n	10b8 <__l_divmod+0x3c>
/home/dangcaominh/STM32MP1/optee-os/optee-os/lib/libutils/isoc/arch/arm/arm32_aeabi_ldivmod.c:104
    1112:	b00a      	add	sp, #40	@ 0x28
    1114:	bd70      	pop	{r4, r5, r6, pc}
    1116:	bf00      	nop
    1118:	0000affe 	.word	0x0000affe
    111c:	0000000c 	.word	0x0000000c
    1120:	0000af8c 	.word	0x0000af8c

00001124 <trace_ext_puts>:
trace_ext_puts():
/home/dangcaominh/STM32MP1/optee-os/optee-os/lib/libutee/trace_ext.c:22
    1124:	b510      	push	{r4, lr}
    1126:	4604      	mov	r4, r0
/home/dangcaominh/STM32MP1/optee-os/optee-os/lib/libutee/trace_ext.c:26
    1128:	f008 ff1c 	bl	9f64 <strlen>
    112c:	4601      	mov	r1, r0
/home/dangcaominh/STM32MP1/optee-os/optee-os/lib/libutee/trace_ext.c:26 (discriminator 1)
    112e:	4620      	mov	r0, r4
/home/dangcaominh/STM32MP1/optee-os/optee-os/lib/libutee/trace_ext.c:28
    1130:	e8bd 4010 	ldmia.w	sp!, {r4, lr}
/home/dangcaominh/STM32MP1/optee-os/optee-os/lib/libutee/trace_ext.c:26 (discriminator 1)
    1134:	f008 bf84 	b.w	a040 <___utee_log_from_thumb>

00001138 <trace_ext_get_thread_id>:
trace_ext_get_thread_id():
/home/dangcaominh/STM32MP1/optee-os/optee-os/lib/libutee/trace_ext.c:33
    1138:	f04f 30ff 	mov.w	r0, #4294967295	@ 0xffffffff
    113c:	4770      	bx	lr

0000113e <printf>:
printf():
/home/dangcaominh/STM32MP1/optee-os/optee-os/lib/libutee/trace_ext.c:41
    113e:	b40f      	push	{r0, r1, r2, r3}
    1140:	4a18      	ldr	r2, [pc, #96]	@ (11a4 <printf+0x66>)
    1142:	4b19      	ldr	r3, [pc, #100]	@ (11a8 <printf+0x6a>)
    1144:	447a      	add	r2, pc
    1146:	b530      	push	{r4, r5, lr}
    1148:	b0c3      	sub	sp, #268	@ 0x10c
    114a:	58d3      	ldr	r3, [r2, r3]
    114c:	9c46      	ldr	r4, [sp, #280]	@ 0x118
    114e:	681b      	ldr	r3, [r3, #0]
    1150:	9341      	str	r3, [sp, #260]	@ 0x104
    1152:	f04f 0300 	mov.w	r3, #0
/home/dangcaominh/STM32MP1/optee-os/optee-os/lib/libutee/trace_ext.c:46
    1156:	f7ff f9d9 	bl	50c <trace_get_level>
/home/dangcaominh/STM32MP1/optee-os/optee-os/lib/libutee/trace_ext.c:46 (discriminator 1)
    115a:	2800      	cmp	r0, #0
    115c:	dd1a      	ble.n	1194 <printf+0x56>
/home/dangcaominh/STM32MP1/optee-os/optee-os/lib/libutee/trace_ext.c:49
    115e:	466a      	mov	r2, sp
    1160:	ab47      	add	r3, sp, #284	@ 0x11c
/home/dangcaominh/STM32MP1/optee-os/optee-os/lib/libutee/trace_ext.c:50
    1162:	ad01      	add	r5, sp, #4
    1164:	f44f 7180 	mov.w	r1, #256	@ 0x100
/home/dangcaominh/STM32MP1/optee-os/optee-os/lib/libutee/trace_ext.c:49
    1168:	6013      	str	r3, [r2, #0]
/home/dangcaominh/STM32MP1/optee-os/optee-os/lib/libutee/trace_ext.c:50
    116a:	4628      	mov	r0, r5
    116c:	4622      	mov	r2, r4
    116e:	f008 fdf5 	bl	9d5c <vsnprintf>
/home/dangcaominh/STM32MP1/optee-os/optee-os/lib/libutee/trace_ext.c:53
    1172:	1e04      	subs	r4, r0, #0
    1174:	db02      	blt.n	117c <printf+0x3e>
/home/dangcaominh/STM32MP1/optee-os/optee-os/lib/libutee/trace_ext.c:56
    1176:	4628      	mov	r0, r5
    1178:	f7ff ffd4 	bl	1124 <trace_ext_puts>
/home/dangcaominh/STM32MP1/optee-os/optee-os/lib/libutee/trace_ext.c:41
    117c:	4a0b      	ldr	r2, [pc, #44]	@ (11ac <printf+0x6e>)
/home/dangcaominh/STM32MP1/optee-os/optee-os/lib/libutee/trace_ext.c:59
    117e:	4b0a      	ldr	r3, [pc, #40]	@ (11a8 <printf+0x6a>)
/home/dangcaominh/STM32MP1/optee-os/optee-os/lib/libutee/trace_ext.c:41
    1180:	447a      	add	r2, pc
/home/dangcaominh/STM32MP1/optee-os/optee-os/lib/libutee/trace_ext.c:59
    1182:	58d3      	ldr	r3, [r2, r3]
    1184:	681a      	ldr	r2, [r3, #0]
    1186:	9b41      	ldr	r3, [sp, #260]	@ 0x104
    1188:	405a      	eors	r2, r3
    118a:	f04f 0300 	mov.w	r3, #0
    118e:	d003      	beq.n	1198 <printf+0x5a>
    1190:	f7ff f99a 	bl	4c8 <__stack_chk_fail>
/home/dangcaominh/STM32MP1/optee-os/optee-os/lib/libutee/trace_ext.c:47
    1194:	2400      	movs	r4, #0
    1196:	e7f1      	b.n	117c <printf+0x3e>
/home/dangcaominh/STM32MP1/optee-os/optee-os/lib/libutee/trace_ext.c:59
    1198:	4620      	mov	r0, r4
    119a:	b043      	add	sp, #268	@ 0x10c
    119c:	e8bd 4030 	ldmia.w	sp!, {r4, r5, lr}
    11a0:	b004      	add	sp, #16
    11a2:	4770      	bx	lr
    11a4:	0000af40 	.word	0x0000af40
    11a8:	0000000c 	.word	0x0000000c
    11ac:	0000af04 	.word	0x0000af04

000011b0 <puts>:
puts():
/home/dangcaominh/STM32MP1/optee-os/optee-os/lib/libutee/trace_ext.c:62
    11b0:	b510      	push	{r4, lr}
    11b2:	4604      	mov	r4, r0
/home/dangcaominh/STM32MP1/optee-os/optee-os/lib/libutee/trace_ext.c:63
    11b4:	f7ff f9aa 	bl	50c <trace_get_level>
/home/dangcaominh/STM32MP1/optee-os/optee-os/lib/libutee/trace_ext.c:63 (discriminator 1)
    11b8:	2800      	cmp	r0, #0
    11ba:	dd06      	ble.n	11ca <puts+0x1a>
/home/dangcaominh/STM32MP1/optee-os/optee-os/lib/libutee/trace_ext.c:64
    11bc:	4620      	mov	r0, r4
    11be:	f7ff ffb1 	bl	1124 <trace_ext_puts>
/home/dangcaominh/STM32MP1/optee-os/optee-os/lib/libutee/trace_ext.c:65
    11c2:	4803      	ldr	r0, [pc, #12]	@ (11d0 <puts+0x20>)
    11c4:	4478      	add	r0, pc
    11c6:	f7ff ffad 	bl	1124 <trace_ext_puts>
/home/dangcaominh/STM32MP1/optee-os/optee-os/lib/libutee/trace_ext.c:68
    11ca:	2001      	movs	r0, #1
    11cc:	bd10      	pop	{r4, pc}
    11ce:	bf00      	nop
    11d0:	000098fd 	.word	0x000098fd

000011d4 <putchar>:
putchar():
/home/dangcaominh/STM32MP1/optee-os/optee-os/lib/libutee/trace_ext.c:71
    11d4:	4a12      	ldr	r2, [pc, #72]	@ (1220 <putchar+0x4c>)
    11d6:	4b13      	ldr	r3, [pc, #76]	@ (1224 <putchar+0x50>)
    11d8:	447a      	add	r2, pc
    11da:	b513      	push	{r0, r1, r4, lr}
    11dc:	4604      	mov	r4, r0
    11de:	58d3      	ldr	r3, [r2, r3]
    11e0:	681b      	ldr	r3, [r3, #0]
    11e2:	9301      	str	r3, [sp, #4]
    11e4:	f04f 0300 	mov.w	r3, #0
/home/dangcaominh/STM32MP1/optee-os/optee-os/lib/libutee/trace_ext.c:72
    11e8:	2300      	movs	r3, #0
    11ea:	f88d 0000 	strb.w	r0, [sp]
    11ee:	f88d 3001 	strb.w	r3, [sp, #1]
/home/dangcaominh/STM32MP1/optee-os/optee-os/lib/libutee/trace_ext.c:74
    11f2:	f7ff f98b 	bl	50c <trace_get_level>
/home/dangcaominh/STM32MP1/optee-os/optee-os/lib/libutee/trace_ext.c:74 (discriminator 1)
    11f6:	2800      	cmp	r0, #0
    11f8:	dd02      	ble.n	1200 <putchar+0x2c>
/home/dangcaominh/STM32MP1/optee-os/optee-os/lib/libutee/trace_ext.c:75
    11fa:	4668      	mov	r0, sp
    11fc:	f7ff ff92 	bl	1124 <trace_ext_puts>
/home/dangcaominh/STM32MP1/optee-os/optee-os/lib/libutee/trace_ext.c:71
    1200:	4a09      	ldr	r2, [pc, #36]	@ (1228 <putchar+0x54>)
/home/dangcaominh/STM32MP1/optee-os/optee-os/lib/libutee/trace_ext.c:81
    1202:	b2e0      	uxtb	r0, r4
/home/dangcaominh/STM32MP1/optee-os/optee-os/lib/libutee/trace_ext.c:82
    1204:	4b07      	ldr	r3, [pc, #28]	@ (1224 <putchar+0x50>)
/home/dangcaominh/STM32MP1/optee-os/optee-os/lib/libutee/trace_ext.c:71
    1206:	447a      	add	r2, pc
/home/dangcaominh/STM32MP1/optee-os/optee-os/lib/libutee/trace_ext.c:82
    1208:	58d3      	ldr	r3, [r2, r3]
    120a:	681a      	ldr	r2, [r3, #0]
    120c:	9b01      	ldr	r3, [sp, #4]
    120e:	405a      	eors	r2, r3
    1210:	f04f 0300 	mov.w	r3, #0
    1214:	d001      	beq.n	121a <putchar+0x46>
    1216:	f7ff f957 	bl	4c8 <__stack_chk_fail>
    121a:	b002      	add	sp, #8
    121c:	bd10      	pop	{r4, pc}
    121e:	bf00      	nop
    1220:	0000aeac 	.word	0x0000aeac
    1224:	0000000c 	.word	0x0000000c
    1228:	0000ae7e 	.word	0x0000ae7e

0000122c <copy_param>:
copy_param():
/home/dangcaominh/STM32MP1/optee-os/optee-os/lib/libutee/tee_api.c:38
    122c:	b5f0      	push	{r4, r5, r6, r7, lr}
    122e:	4616      	mov	r6, r2
/home/dangcaominh/STM32MP1/optee-os/optee-os/lib/libutee/tee_api.c:43
    1230:	2400      	movs	r4, #0
    1232:	e9c0 1400 	strd	r1, r4, [r0]
/home/dangcaominh/STM32MP1/optee-os/optee-os/lib/libutee/tee_api.c:45
    1236:	fa21 f304 	lsr.w	r3, r1, r4
    123a:	f003 050f 	and.w	r5, r3, #15
    123e:	2d03      	cmp	r5, #3
    1240:	d00d      	beq.n	125e <copy_param+0x32>
    1242:	f013 030c 	ands.w	r3, r3, #12
    1246:	d105      	bne.n	1254 <copy_param+0x28>
    1248:	2d01      	cmp	r5, #1
    124a:	d008      	beq.n	125e <copy_param+0x32>
    124c:	461f      	mov	r7, r3
    124e:	469c      	mov	ip, r3
    1250:	461d      	mov	r5, r3
    1252:	e009      	b.n	1268 <copy_param+0x3c>
    1254:	3d05      	subs	r5, #5
    1256:	2d02      	cmp	r5, #2
    1258:	d901      	bls.n	125e <copy_param+0x32>
    125a:	2300      	movs	r3, #0
    125c:	e7f6      	b.n	124c <copy_param+0x20>
/home/dangcaominh/STM32MP1/optee-os/optee-os/lib/libutee/tee_api.c:54
    125e:	f852 c014 	ldr.w	ip, [r2, r4, lsl #1]
    1262:	2500      	movs	r5, #0
/home/dangcaominh/STM32MP1/optee-os/optee-os/lib/libutee/tee_api.c:55
    1264:	6873      	ldr	r3, [r6, #4]
    1266:	462f      	mov	r7, r5
/home/dangcaominh/STM32MP1/optee-os/optee-os/lib/libutee/tee_api.c:44 (discriminator 1)
    1268:	3404      	adds	r4, #4
    126a:	3608      	adds	r6, #8
    126c:	2c10      	cmp	r4, #16
/home/dangcaominh/STM32MP1/optee-os/optee-os/lib/libutee/tee_api.c:61
    126e:	e9c0 c502 	strd	ip, r5, [r0, #8]
/home/dangcaominh/STM32MP1/optee-os/optee-os/lib/libutee/tee_api.c:62
    1272:	e9c0 3704 	strd	r3, r7, [r0, #16]
/home/dangcaominh/STM32MP1/optee-os/optee-os/lib/libutee/tee_api.c:44 (discriminator 1)
    1276:	f100 0010 	add.w	r0, r0, #16
    127a:	d1dc      	bne.n	1236 <copy_param+0xa>
/home/dangcaominh/STM32MP1/optee-os/optee-os/lib/libutee/tee_api.c:64
    127c:	bdf0      	pop	{r4, r5, r6, r7, pc}

0000127e <copy_gp11_param>:
copy_gp11_param():
/home/dangcaominh/STM32MP1/optee-os/optee-os/lib/libutee/tee_api.c:68
    127e:	b5f0      	push	{r4, r5, r6, r7, lr}
    1280:	4616      	mov	r6, r2
/home/dangcaominh/STM32MP1/optee-os/optee-os/lib/libutee/tee_api.c:73
    1282:	2400      	movs	r4, #0
    1284:	e9c0 1400 	strd	r1, r4, [r0]
/home/dangcaominh/STM32MP1/optee-os/optee-os/lib/libutee/tee_api.c:75
    1288:	fa21 f304 	lsr.w	r3, r1, r4
    128c:	f003 050f 	and.w	r5, r3, #15
    1290:	2d03      	cmp	r5, #3
    1292:	d00d      	beq.n	12b0 <copy_gp11_param+0x32>
    1294:	f013 030c 	ands.w	r3, r3, #12
    1298:	d105      	bne.n	12a6 <copy_gp11_param+0x28>
    129a:	2d01      	cmp	r5, #1
    129c:	d008      	beq.n	12b0 <copy_gp11_param+0x32>
    129e:	461f      	mov	r7, r3
    12a0:	469c      	mov	ip, r3
    12a2:	461d      	mov	r5, r3
    12a4:	e009      	b.n	12ba <copy_gp11_param+0x3c>
    12a6:	3d05      	subs	r5, #5
    12a8:	2d02      	cmp	r5, #2
    12aa:	d901      	bls.n	12b0 <copy_gp11_param+0x32>
    12ac:	2300      	movs	r3, #0
    12ae:	e7f6      	b.n	129e <copy_gp11_param+0x20>
/home/dangcaominh/STM32MP1/optee-os/optee-os/lib/libutee/tee_api.c:84
    12b0:	f852 c014 	ldr.w	ip, [r2, r4, lsl #1]
    12b4:	2500      	movs	r5, #0
/home/dangcaominh/STM32MP1/optee-os/optee-os/lib/libutee/tee_api.c:85
    12b6:	6873      	ldr	r3, [r6, #4]
    12b8:	462f      	mov	r7, r5
/home/dangcaominh/STM32MP1/optee-os/optee-os/lib/libutee/tee_api.c:74 (discriminator 1)
    12ba:	3404      	adds	r4, #4
    12bc:	3608      	adds	r6, #8
    12be:	2c10      	cmp	r4, #16
/home/dangcaominh/STM32MP1/optee-os/optee-os/lib/libutee/tee_api.c:91
    12c0:	e9c0 c502 	strd	ip, r5, [r0, #8]
/home/dangcaominh/STM32MP1/optee-os/optee-os/lib/libutee/tee_api.c:92
    12c4:	e9c0 3704 	strd	r3, r7, [r0, #16]
/home/dangcaominh/STM32MP1/optee-os/optee-os/lib/libutee/tee_api.c:74 (discriminator 1)
    12c8:	f100 0010 	add.w	r0, r0, #16
    12cc:	d1dc      	bne.n	1288 <copy_gp11_param+0xa>
/home/dangcaominh/STM32MP1/optee-os/optee-os/lib/libutee/tee_api.c:94
    12ce:	bdf0      	pop	{r4, r5, r6, r7, pc}

000012d0 <check_mem_access_rights_params>:
check_mem_access_rights_params():
/home/dangcaominh/STM32MP1/optee-os/optee-os/lib/libutee/tee_api.c:255
    12d0:	4b18      	ldr	r3, [pc, #96]	@ (1334 <check_mem_access_rights_params+0x64>)
    12d2:	b5f0      	push	{r4, r5, r6, r7, lr}
bufs_intersect():
/home/dangcaominh/STM32MP1/optee-os/optee-os/lib/libutee/tee_api.c:241
    12d4:	1e57      	subs	r7, r2, #1
check_mem_access_rights_params():
/home/dangcaominh/STM32MP1/optee-os/optee-os/lib/libutee/tee_api.c:255
    12d6:	447b      	add	r3, pc
/home/dangcaominh/STM32MP1/optee-os/optee-os/lib/libutee/tee_api.c:261
    12d8:	2500      	movs	r5, #0
    12da:	4c17      	ldr	r4, [pc, #92]	@ (1338 <check_mem_access_rights_params+0x68>)
bufs_intersect():
/home/dangcaominh/STM32MP1/optee-os/optee-os/lib/libutee/tee_api.c:241
    12dc:	440f      	add	r7, r1
check_mem_access_rights_params():
/home/dangcaominh/STM32MP1/optee-os/optee-os/lib/libutee/tee_api.c:261
    12de:	591c      	ldr	r4, [r3, r4]
    12e0:	f8d4 c000 	ldr.w	ip, [r4]
    12e4:	4c15      	ldr	r4, [pc, #84]	@ (133c <check_mem_access_rights_params+0x6c>)
    12e6:	591e      	ldr	r6, [r3, r4]
    12e8:	fa2c f305 	lsr.w	r3, ip, r5
    12ec:	f003 030f 	and.w	r3, r3, #15
    12f0:	2b05      	cmp	r3, #5
    12f2:	d019      	beq.n	1328 <check_mem_access_rights_params+0x58>
    12f4:	3b06      	subs	r3, #6
    12f6:	2b01      	cmp	r3, #1
    12f8:	d810      	bhi.n	131c <check_mem_access_rights_params+0x4c>
    12fa:	2406      	movs	r4, #6
bufs_intersect():
/home/dangcaominh/STM32MP1/optee-os/optee-os/lib/libutee/tee_api.c:244
    12fc:	b172      	cbz	r2, 131c <check_mem_access_rights_params+0x4c>
check_mem_access_rights_params():
/home/dangcaominh/STM32MP1/optee-os/optee-os/lib/libutee/tee_api.c:268
    12fe:	6873      	ldr	r3, [r6, #4]
bufs_intersect():
/home/dangcaominh/STM32MP1/optee-os/optee-os/lib/libutee/tee_api.c:244 (discriminator 1)
    1300:	b163      	cbz	r3, 131c <check_mem_access_rights_params+0x4c>
/home/dangcaominh/STM32MP1/optee-os/optee-os/lib/libutee/tee_api.c:240
    1302:	f8d6 e000 	ldr.w	lr, [r6]
/home/dangcaominh/STM32MP1/optee-os/optee-os/lib/libutee/tee_api.c:247
    1306:	45be      	cmp	lr, r7
    1308:	d808      	bhi.n	131c <check_mem_access_rights_params+0x4c>
/home/dangcaominh/STM32MP1/optee-os/optee-os/lib/libutee/tee_api.c:242
    130a:	3b01      	subs	r3, #1
    130c:	4473      	add	r3, lr
/home/dangcaominh/STM32MP1/optee-os/optee-os/lib/libutee/tee_api.c:247 (discriminator 1)
    130e:	4299      	cmp	r1, r3
    1310:	d804      	bhi.n	131c <check_mem_access_rights_params+0x4c>
check_mem_access_rights_params():
/home/dangcaominh/STM32MP1/optee-os/optee-os/lib/libutee/tee_api.c:267
    1312:	f044 0401 	orr.w	r4, r4, #1
/home/dangcaominh/STM32MP1/optee-os/optee-os/lib/libutee/tee_api.c:271
    1316:	ea30 0404 	bics.w	r4, r0, r4
    131a:	d107      	bne.n	132c <check_mem_access_rights_params+0x5c>
/home/dangcaominh/STM32MP1/optee-os/optee-os/lib/libutee/tee_api.c:258 (discriminator 1)
    131c:	3504      	adds	r5, #4
    131e:	3608      	adds	r6, #8
    1320:	2d10      	cmp	r5, #16
    1322:	d1e1      	bne.n	12e8 <check_mem_access_rights_params+0x18>
/home/dangcaominh/STM32MP1/optee-os/optee-os/lib/libutee/tee_api.c:280
    1324:	2000      	movs	r0, #0
/home/dangcaominh/STM32MP1/optee-os/optee-os/lib/libutee/tee_api.c:281
    1326:	bdf0      	pop	{r4, r5, r6, r7, pc}
/home/dangcaominh/STM32MP1/optee-os/optee-os/lib/libutee/tee_api.c:259
    1328:	2404      	movs	r4, #4
    132a:	e7e7      	b.n	12fc <check_mem_access_rights_params+0x2c>
/home/dangcaominh/STM32MP1/optee-os/optee-os/lib/libutee/tee_api.c:272
    132c:	4800      	ldr	r0, [pc, #0]	@ (1330 <check_mem_access_rights_params+0x60>)
    132e:	e7fa      	b.n	1326 <check_mem_access_rights_params+0x56>
    1330:	ffff0001 	.word	0xffff0001
    1334:	0000adae 	.word	0x0000adae
    1338:	0000003c 	.word	0x0000003c
    133c:	0000004c 	.word	0x0000004c

00001340 <buf_overlaps_no_share_heap>:
buf_overlaps_no_share_heap():
/home/dangcaominh/STM32MP1/optee-os/optee-os/lib/libutee/tee_api.c:284
    1340:	460a      	mov	r2, r1
    1342:	4907      	ldr	r1, [pc, #28]	@ (1360 <buf_overlaps_no_share_heap+0x20>)
    1344:	b508      	push	{r3, lr}
    1346:	4603      	mov	r3, r0
    1348:	4479      	add	r1, pc
/home/dangcaominh/STM32MP1/optee-os/optee-os/lib/libutee/tee_api.c:285
    134a:	4806      	ldr	r0, [pc, #24]	@ (1364 <buf_overlaps_no_share_heap+0x24>)
    134c:	5809      	ldr	r1, [r1, r0]
    134e:	6808      	ldr	r0, [r1, #0]
/home/dangcaominh/STM32MP1/optee-os/optee-os/lib/libutee/tee_api.c:287
    1350:	b110      	cbz	r0, 1358 <buf_overlaps_no_share_heap+0x18>
/home/dangcaominh/STM32MP1/optee-os/optee-os/lib/libutee/tee_api.c:287 (discriminator 1)
    1352:	4619      	mov	r1, r3
    1354:	f008 fc28 	bl	9ba8 <raw_malloc_buffer_overlaps_heap>
/home/dangcaominh/STM32MP1/optee-os/optee-os/lib/libutee/tee_api.c:288
    1358:	f000 0001 	and.w	r0, r0, #1
    135c:	bd08      	pop	{r3, pc}
    135e:	bf00      	nop
    1360:	0000ad3c 	.word	0x0000ad3c
    1364:	00000044 	.word	0x00000044

00001368 <check_invoke_param>:
check_invoke_param():
/home/dangcaominh/STM32MP1/optee-os/optee-os/lib/libutee/tee_api.c:291
    1368:	e92d 43f8 	stmdb	sp!, {r3, r4, r5, r6, r7, r8, r9, lr}
    136c:	4606      	mov	r6, r0
    136e:	460d      	mov	r5, r1
    1370:	2400      	movs	r4, #0
/home/dangcaominh/STM32MP1/optee-os/optee-os/lib/libutee/tee_api.c:297
    1372:	f101 0804 	add.w	r8, r1, #4
/home/dangcaominh/STM32MP1/optee-os/optee-os/lib/libutee/tee_api.c:299
    1376:	fa26 f304 	lsr.w	r3, r6, r4
    137a:	f003 030f 	and.w	r3, r3, #15
    137e:	2b05      	cmp	r3, #5
    1380:	d01e      	beq.n	13c0 <check_invoke_param+0x58>
    1382:	3b06      	subs	r3, #6
    1384:	2b01      	cmp	r3, #1
    1386:	d816      	bhi.n	13b6 <check_invoke_param+0x4e>
    1388:	2006      	movs	r0, #6
/home/dangcaominh/STM32MP1/optee-os/optee-os/lib/libutee/tee_api.c:296
    138a:	f855 7014 	ldr.w	r7, [r5, r4, lsl #1]
/home/dangcaominh/STM32MP1/optee-os/optee-os/lib/libutee/tee_api.c:306
    138e:	f040 0001 	orr.w	r0, r0, #1
/home/dangcaominh/STM32MP1/optee-os/optee-os/lib/libutee/tee_api.c:297
    1392:	f858 9014 	ldr.w	r9, [r8, r4, lsl #1]
/home/dangcaominh/STM32MP1/optee-os/optee-os/lib/libutee/tee_api.c:306
    1396:	4639      	mov	r1, r7
    1398:	464a      	mov	r2, r9
    139a:	f7ff ff99 	bl	12d0 <check_mem_access_rights_params>
/home/dangcaominh/STM32MP1/optee-os/optee-os/lib/libutee/tee_api.c:306 (discriminator 1)
    139e:	b110      	cbz	r0, 13a6 <check_invoke_param+0x3e>
/home/dangcaominh/STM32MP1/optee-os/optee-os/lib/libutee/tee_api.c:307
    13a0:	2000      	movs	r0, #0
    13a2:	f001 fd9f 	bl	2ee4 <TEE_Panic>
/home/dangcaominh/STM32MP1/optee-os/optee-os/lib/libutee/tee_api.c:308
    13a6:	4649      	mov	r1, r9
    13a8:	4638      	mov	r0, r7
    13aa:	f7ff ffc9 	bl	1340 <buf_overlaps_no_share_heap>
/home/dangcaominh/STM32MP1/optee-os/optee-os/lib/libutee/tee_api.c:308 (discriminator 1)
    13ae:	b110      	cbz	r0, 13b6 <check_invoke_param+0x4e>
/home/dangcaominh/STM32MP1/optee-os/optee-os/lib/libutee/tee_api.c:309
    13b0:	2000      	movs	r0, #0
    13b2:	f001 fd97 	bl	2ee4 <TEE_Panic>
/home/dangcaominh/STM32MP1/optee-os/optee-os/lib/libutee/tee_api.c:294 (discriminator 1)
    13b6:	3404      	adds	r4, #4
    13b8:	2c10      	cmp	r4, #16
    13ba:	d1dc      	bne.n	1376 <check_invoke_param+0xe>
/home/dangcaominh/STM32MP1/optee-os/optee-os/lib/libutee/tee_api.c:315
    13bc:	e8bd 83f8 	ldmia.w	sp!, {r3, r4, r5, r6, r7, r8, r9, pc}
/home/dangcaominh/STM32MP1/optee-os/optee-os/lib/libutee/tee_api.c:295
    13c0:	2004      	movs	r0, #4
    13c2:	e7e2      	b.n	138a <check_invoke_param+0x22>

000013c4 <update_out_param>:
update_out_param():
/home/dangcaominh/STM32MP1/optee-os/optee-os/lib/libutee/tee_api.c:180
    13c4:	e92d 47f0 	stmdb	sp!, {r4, r5, r6, r7, r8, r9, sl, lr}
    13c8:	4607      	mov	r7, r0
/home/dangcaominh/STM32MP1/optee-os/optee-os/lib/libutee/tee_api.c:182
    13ca:	f8d2 a000 	ldr.w	sl, [r2]
/home/dangcaominh/STM32MP1/optee-os/optee-os/lib/libutee/tee_api.c:180
    13ce:	4688      	mov	r8, r1
    13d0:	4614      	mov	r4, r2
    13d2:	4606      	mov	r6, r0
/home/dangcaominh/STM32MP1/optee-os/optee-os/lib/libutee/tee_api.c:182
    13d4:	2500      	movs	r5, #0
/home/dangcaominh/STM32MP1/optee-os/optee-os/lib/libutee/tee_api.c:188
    13d6:	fa2a f305 	lsr.w	r3, sl, r5
/home/dangcaominh/STM32MP1/optee-os/optee-os/lib/libutee/tee_api.c:185
    13da:	68a2      	ldr	r2, [r4, #8]
/home/dangcaominh/STM32MP1/optee-os/optee-os/lib/libutee/tee_api.c:188
    13dc:	f013 0f0c 	tst.w	r3, #12
/home/dangcaominh/STM32MP1/optee-os/optee-os/lib/libutee/tee_api.c:186
    13e0:	f8d4 9010 	ldr.w	r9, [r4, #16]
/home/dangcaominh/STM32MP1/optee-os/optee-os/lib/libutee/tee_api.c:188
    13e4:	d10a      	bne.n	13fc <update_out_param+0x38>
    13e6:	f013 0f0e 	tst.w	r3, #14
    13ea:	d118      	bne.n	141e <update_out_param+0x5a>
/home/dangcaominh/STM32MP1/optee-os/optee-os/lib/libutee/tee_api.c:184 (discriminator 1)
    13ec:	3504      	adds	r5, #4
    13ee:	3410      	adds	r4, #16
    13f0:	2d10      	cmp	r5, #16
    13f2:	f106 0608 	add.w	r6, r6, #8
    13f6:	d1ee      	bne.n	13d6 <update_out_param+0x12>
/home/dangcaominh/STM32MP1/optee-os/optee-os/lib/libutee/tee_api.c:205
    13f8:	e8bd 87f0 	ldmia.w	sp!, {r4, r5, r6, r7, r8, r9, sl, pc}
/home/dangcaominh/STM32MP1/optee-os/optee-os/lib/libutee/tee_api.c:188
    13fc:	f003 030f 	and.w	r3, r3, #15
    1400:	3b06      	subs	r3, #6
    1402:	2b01      	cmp	r3, #1
    1404:	d8f2      	bhi.n	13ec <update_out_param+0x28>
/home/dangcaominh/STM32MP1/optee-os/optee-os/lib/libutee/tee_api.c:196
    1406:	f858 1005 	ldr.w	r1, [r8, r5]
    140a:	b151      	cbz	r1, 1422 <update_out_param+0x5e>
/home/dangcaominh/STM32MP1/optee-os/optee-os/lib/libutee/tee_api.c:198
    140c:	6872      	ldr	r2, [r6, #4]
/home/dangcaominh/STM32MP1/optee-os/optee-os/lib/libutee/tee_api.c:197
    140e:	f857 0015 	ldr.w	r0, [r7, r5, lsl #1]
    1412:	454a      	cmp	r2, r9
    1414:	bf28      	it	cs
    1416:	464a      	movcs	r2, r9
    1418:	f008 fca8 	bl	9d6c <memcpy>
    141c:	e001      	b.n	1422 <update_out_param+0x5e>
/home/dangcaominh/STM32MP1/optee-os/optee-os/lib/libutee/tee_api.c:185
    141e:	f847 2015 	str.w	r2, [r7, r5, lsl #1]
/home/dangcaominh/STM32MP1/optee-os/optee-os/lib/libutee/tee_api.c:199
    1422:	f8c6 9004 	str.w	r9, [r6, #4]
/home/dangcaominh/STM32MP1/optee-os/optee-os/lib/libutee/tee_api.c:200
    1426:	e7e1      	b.n	13ec <update_out_param+0x28>

00001428 <update_out_gp11_param>:
update_out_gp11_param():
/home/dangcaominh/STM32MP1/optee-os/optee-os/lib/libutee/tee_api.c:210
    1428:	e92d 47f0 	stmdb	sp!, {r4, r5, r6, r7, r8, r9, sl, lr}
    142c:	4607      	mov	r7, r0
/home/dangcaominh/STM32MP1/optee-os/optee-os/lib/libutee/tee_api.c:212
    142e:	f8d2 a000 	ldr.w	sl, [r2]
/home/dangcaominh/STM32MP1/optee-os/optee-os/lib/libutee/tee_api.c:210
    1432:	4688      	mov	r8, r1
    1434:	4614      	mov	r4, r2
    1436:	4606      	mov	r6, r0
/home/dangcaominh/STM32MP1/optee-os/optee-os/lib/libutee/tee_api.c:212
    1438:	2500      	movs	r5, #0
/home/dangcaominh/STM32MP1/optee-os/optee-os/lib/libutee/tee_api.c:218
    143a:	fa2a f305 	lsr.w	r3, sl, r5
/home/dangcaominh/STM32MP1/optee-os/optee-os/lib/libutee/tee_api.c:215
    143e:	68a2      	ldr	r2, [r4, #8]
/home/dangcaominh/STM32MP1/optee-os/optee-os/lib/libutee/tee_api.c:218
    1440:	f013 0f0c 	tst.w	r3, #12
/home/dangcaominh/STM32MP1/optee-os/optee-os/lib/libutee/tee_api.c:216
    1444:	f8d4 9010 	ldr.w	r9, [r4, #16]
/home/dangcaominh/STM32MP1/optee-os/optee-os/lib/libutee/tee_api.c:218
    1448:	d10a      	bne.n	1460 <update_out_gp11_param+0x38>
    144a:	f013 0f0e 	tst.w	r3, #14
    144e:	d118      	bne.n	1482 <update_out_gp11_param+0x5a>
/home/dangcaominh/STM32MP1/optee-os/optee-os/lib/libutee/tee_api.c:214 (discriminator 1)
    1450:	3504      	adds	r5, #4
    1452:	3410      	adds	r4, #16
    1454:	2d10      	cmp	r5, #16
    1456:	f106 0608 	add.w	r6, r6, #8
    145a:	d1ee      	bne.n	143a <update_out_gp11_param+0x12>
/home/dangcaominh/STM32MP1/optee-os/optee-os/lib/libutee/tee_api.c:235
    145c:	e8bd 87f0 	ldmia.w	sp!, {r4, r5, r6, r7, r8, r9, sl, pc}
/home/dangcaominh/STM32MP1/optee-os/optee-os/lib/libutee/tee_api.c:218
    1460:	f003 030f 	and.w	r3, r3, #15
    1464:	3b06      	subs	r3, #6
    1466:	2b01      	cmp	r3, #1
    1468:	d8f2      	bhi.n	1450 <update_out_gp11_param+0x28>
/home/dangcaominh/STM32MP1/optee-os/optee-os/lib/libutee/tee_api.c:226
    146a:	f858 1005 	ldr.w	r1, [r8, r5]
    146e:	b151      	cbz	r1, 1486 <update_out_gp11_param+0x5e>
/home/dangcaominh/STM32MP1/optee-os/optee-os/lib/libutee/tee_api.c:228
    1470:	6872      	ldr	r2, [r6, #4]
/home/dangcaominh/STM32MP1/optee-os/optee-os/lib/libutee/tee_api.c:227
    1472:	f857 0015 	ldr.w	r0, [r7, r5, lsl #1]
    1476:	454a      	cmp	r2, r9
    1478:	bf28      	it	cs
    147a:	464a      	movcs	r2, r9
    147c:	f008 fc76 	bl	9d6c <memcpy>
    1480:	e001      	b.n	1486 <update_out_gp11_param+0x5e>
/home/dangcaominh/STM32MP1/optee-os/optee-os/lib/libutee/tee_api.c:215
    1482:	f847 2015 	str.w	r2, [r7, r5, lsl #1]
/home/dangcaominh/STM32MP1/optee-os/optee-os/lib/libutee/tee_api.c:229
    1486:	f8c6 9004 	str.w	r9, [r6, #4]
/home/dangcaominh/STM32MP1/optee-os/optee-os/lib/libutee/tee_api.c:230
    148a:	e7e1      	b.n	1450 <update_out_gp11_param+0x28>

0000148c <TEE_CloseTASession>:
TEE_CloseTASession():
/home/dangcaominh/STM32MP1/optee-os/optee-os/lib/libutee/tee_api.c:414
    148c:	b508      	push	{r3, lr}
/home/dangcaominh/STM32MP1/optee-os/optee-os/lib/libutee/tee_api.c:415
    148e:	b130      	cbz	r0, 149e <TEE_CloseTASession+0x12>
/home/dangcaominh/STM32MP1/optee-os/optee-os/lib/libutee/tee_api.c:416
    1490:	f002 e97c 	blx	378c <_utee_close_ta_session>
/home/dangcaominh/STM32MP1/optee-os/optee-os/lib/libutee/tee_api.c:418
    1494:	b118      	cbz	r0, 149e <TEE_CloseTASession+0x12>
/home/dangcaominh/STM32MP1/optee-os/optee-os/lib/libutee/tee_api.c:421
    1496:	e8bd 4008 	ldmia.w	sp!, {r3, lr}
/home/dangcaominh/STM32MP1/optee-os/optee-os/lib/libutee/tee_api.c:419
    149a:	f001 bd23 	b.w	2ee4 <TEE_Panic>
/home/dangcaominh/STM32MP1/optee-os/optee-os/lib/libutee/tee_api.c:421
    149e:	bd08      	pop	{r3, pc}

000014a0 <TEE_GetCancellationFlag>:
TEE_GetCancellationFlag():
/home/dangcaominh/STM32MP1/optee-os/optee-os/lib/libutee/tee_api.c:530
    14a0:	b507      	push	{r0, r1, r2, lr}
/home/dangcaominh/STM32MP1/optee-os/optee-os/lib/libutee/tee_api.c:532
    14a2:	4668      	mov	r0, sp
/home/dangcaominh/STM32MP1/optee-os/optee-os/lib/libutee/tee_api.c:530
    14a4:	4a0f      	ldr	r2, [pc, #60]	@ (14e4 <TEE_GetCancellationFlag+0x44>)
    14a6:	4b10      	ldr	r3, [pc, #64]	@ (14e8 <TEE_GetCancellationFlag+0x48>)
    14a8:	447a      	add	r2, pc
    14aa:	58d3      	ldr	r3, [r2, r3]
    14ac:	681b      	ldr	r3, [r3, #0]
    14ae:	9301      	str	r3, [sp, #4]
    14b0:	f04f 0300 	mov.w	r3, #0
/home/dangcaominh/STM32MP1/optee-os/optee-os/lib/libutee/tee_api.c:532
    14b4:	f002 e980 	blx	37b8 <_utee_get_cancellation_flag>
/home/dangcaominh/STM32MP1/optee-os/optee-os/lib/libutee/tee_api.c:534
    14b8:	b108      	cbz	r0, 14be <TEE_GetCancellationFlag+0x1e>
/home/dangcaominh/STM32MP1/optee-os/optee-os/lib/libutee/tee_api.c:535
    14ba:	2300      	movs	r3, #0
    14bc:	9300      	str	r3, [sp, #0]
/home/dangcaominh/STM32MP1/optee-os/optee-os/lib/libutee/tee_api.c:530
    14be:	4a0b      	ldr	r2, [pc, #44]	@ (14ec <TEE_GetCancellationFlag+0x4c>)
/home/dangcaominh/STM32MP1/optee-os/optee-os/lib/libutee/tee_api.c:537
    14c0:	4b09      	ldr	r3, [pc, #36]	@ (14e8 <TEE_GetCancellationFlag+0x48>)
/home/dangcaominh/STM32MP1/optee-os/optee-os/lib/libutee/tee_api.c:530
    14c2:	447a      	add	r2, pc
/home/dangcaominh/STM32MP1/optee-os/optee-os/lib/libutee/tee_api.c:536
    14c4:	9800      	ldr	r0, [sp, #0]
/home/dangcaominh/STM32MP1/optee-os/optee-os/lib/libutee/tee_api.c:537
    14c6:	58d3      	ldr	r3, [r2, r3]
/home/dangcaominh/STM32MP1/optee-os/optee-os/lib/libutee/tee_api.c:536
    14c8:	3800      	subs	r0, #0
    14ca:	bf18      	it	ne
    14cc:	2001      	movne	r0, #1
/home/dangcaominh/STM32MP1/optee-os/optee-os/lib/libutee/tee_api.c:537
    14ce:	681a      	ldr	r2, [r3, #0]
    14d0:	9b01      	ldr	r3, [sp, #4]
    14d2:	405a      	eors	r2, r3
    14d4:	f04f 0300 	mov.w	r3, #0
    14d8:	d001      	beq.n	14de <TEE_GetCancellationFlag+0x3e>
    14da:	f7fe fff5 	bl	4c8 <__stack_chk_fail>
    14de:	b003      	add	sp, #12
    14e0:	f85d fb04 	ldr.w	pc, [sp], #4
    14e4:	0000abdc 	.word	0x0000abdc
    14e8:	0000000c 	.word	0x0000000c
    14ec:	0000abc2 	.word	0x0000abc2

000014f0 <TEE_UnmaskCancellation>:
TEE_UnmaskCancellation():
/home/dangcaominh/STM32MP1/optee-os/optee-os/lib/libutee/tee_api.c:540
    14f0:	b507      	push	{r0, r1, r2, lr}
/home/dangcaominh/STM32MP1/optee-os/optee-os/lib/libutee/tee_api.c:542
    14f2:	4668      	mov	r0, sp
/home/dangcaominh/STM32MP1/optee-os/optee-os/lib/libutee/tee_api.c:540
    14f4:	4a0f      	ldr	r2, [pc, #60]	@ (1534 <TEE_UnmaskCancellation+0x44>)
    14f6:	4b10      	ldr	r3, [pc, #64]	@ (1538 <TEE_UnmaskCancellation+0x48>)
    14f8:	447a      	add	r2, pc
    14fa:	58d3      	ldr	r3, [r2, r3]
    14fc:	681b      	ldr	r3, [r3, #0]
    14fe:	9301      	str	r3, [sp, #4]
    1500:	f04f 0300 	mov.w	r3, #0
/home/dangcaominh/STM32MP1/optee-os/optee-os/lib/libutee/tee_api.c:542
    1504:	f002 e96c 	blx	37e0 <_utee_unmask_cancellation>
/home/dangcaominh/STM32MP1/optee-os/optee-os/lib/libutee/tee_api.c:544
    1508:	b108      	cbz	r0, 150e <TEE_UnmaskCancellation+0x1e>
/home/dangcaominh/STM32MP1/optee-os/optee-os/lib/libutee/tee_api.c:545
    150a:	f001 fceb 	bl	2ee4 <TEE_Panic>
/home/dangcaominh/STM32MP1/optee-os/optee-os/lib/libutee/tee_api.c:540
    150e:	4a0b      	ldr	r2, [pc, #44]	@ (153c <TEE_UnmaskCancellation+0x4c>)
/home/dangcaominh/STM32MP1/optee-os/optee-os/lib/libutee/tee_api.c:547
    1510:	4b09      	ldr	r3, [pc, #36]	@ (1538 <TEE_UnmaskCancellation+0x48>)
/home/dangcaominh/STM32MP1/optee-os/optee-os/lib/libutee/tee_api.c:540
    1512:	447a      	add	r2, pc
/home/dangcaominh/STM32MP1/optee-os/optee-os/lib/libutee/tee_api.c:546
    1514:	9800      	ldr	r0, [sp, #0]
/home/dangcaominh/STM32MP1/optee-os/optee-os/lib/libutee/tee_api.c:547
    1516:	58d3      	ldr	r3, [r2, r3]
/home/dangcaominh/STM32MP1/optee-os/optee-os/lib/libutee/tee_api.c:546
    1518:	3800      	subs	r0, #0
    151a:	bf18      	it	ne
    151c:	2001      	movne	r0, #1
/home/dangcaominh/STM32MP1/optee-os/optee-os/lib/libutee/tee_api.c:547
    151e:	681a      	ldr	r2, [r3, #0]
    1520:	9b01      	ldr	r3, [sp, #4]
    1522:	405a      	eors	r2, r3
    1524:	f04f 0300 	mov.w	r3, #0
    1528:	d001      	beq.n	152e <TEE_UnmaskCancellation+0x3e>
    152a:	f7fe ffcd 	bl	4c8 <__stack_chk_fail>
    152e:	b003      	add	sp, #12
    1530:	f85d fb04 	ldr.w	pc, [sp], #4
    1534:	0000ab8c 	.word	0x0000ab8c
    1538:	0000000c 	.word	0x0000000c
    153c:	0000ab72 	.word	0x0000ab72

00001540 <TEE_MaskCancellation>:
TEE_MaskCancellation():
/home/dangcaominh/STM32MP1/optee-os/optee-os/lib/libutee/tee_api.c:550
    1540:	b507      	push	{r0, r1, r2, lr}
/home/dangcaominh/STM32MP1/optee-os/optee-os/lib/libutee/tee_api.c:552
    1542:	4668      	mov	r0, sp
/home/dangcaominh/STM32MP1/optee-os/optee-os/lib/libutee/tee_api.c:550
    1544:	4a0f      	ldr	r2, [pc, #60]	@ (1584 <TEE_MaskCancellation+0x44>)
    1546:	4b10      	ldr	r3, [pc, #64]	@ (1588 <TEE_MaskCancellation+0x48>)
    1548:	447a      	add	r2, pc
    154a:	58d3      	ldr	r3, [r2, r3]
    154c:	681b      	ldr	r3, [r3, #0]
    154e:	9301      	str	r3, [sp, #4]
    1550:	f04f 0300 	mov.w	r3, #0
/home/dangcaominh/STM32MP1/optee-os/optee-os/lib/libutee/tee_api.c:552
    1554:	f002 e94e 	blx	37f4 <_utee_mask_cancellation>
/home/dangcaominh/STM32MP1/optee-os/optee-os/lib/libutee/tee_api.c:554
    1558:	b108      	cbz	r0, 155e <TEE_MaskCancellation+0x1e>
/home/dangcaominh/STM32MP1/optee-os/optee-os/lib/libutee/tee_api.c:555
    155a:	f001 fcc3 	bl	2ee4 <TEE_Panic>
/home/dangcaominh/STM32MP1/optee-os/optee-os/lib/libutee/tee_api.c:550
    155e:	4a0b      	ldr	r2, [pc, #44]	@ (158c <TEE_MaskCancellation+0x4c>)
/home/dangcaominh/STM32MP1/optee-os/optee-os/lib/libutee/tee_api.c:557
    1560:	4b09      	ldr	r3, [pc, #36]	@ (1588 <TEE_MaskCancellation+0x48>)
/home/dangcaominh/STM32MP1/optee-os/optee-os/lib/libutee/tee_api.c:550
    1562:	447a      	add	r2, pc
/home/dangcaominh/STM32MP1/optee-os/optee-os/lib/libutee/tee_api.c:556
    1564:	9800      	ldr	r0, [sp, #0]
/home/dangcaominh/STM32MP1/optee-os/optee-os/lib/libutee/tee_api.c:557
    1566:	58d3      	ldr	r3, [r2, r3]
/home/dangcaominh/STM32MP1/optee-os/optee-os/lib/libutee/tee_api.c:556
    1568:	3800      	subs	r0, #0
    156a:	bf18      	it	ne
    156c:	2001      	movne	r0, #1
/home/dangcaominh/STM32MP1/optee-os/optee-os/lib/libutee/tee_api.c:557
    156e:	681a      	ldr	r2, [r3, #0]
    1570:	9b01      	ldr	r3, [sp, #4]
    1572:	405a      	eors	r2, r3
    1574:	f04f 0300 	mov.w	r3, #0
    1578:	d001      	beq.n	157e <TEE_MaskCancellation+0x3e>
    157a:	f7fe ffa5 	bl	4c8 <__stack_chk_fail>
    157e:	b003      	add	sp, #12
    1580:	f85d fb04 	ldr.w	pc, [sp], #4
    1584:	0000ab3c 	.word	0x0000ab3c
    1588:	0000000c 	.word	0x0000000c
    158c:	0000ab22 	.word	0x0000ab22

00001590 <TEE_CheckMemoryAccessRights>:
TEE_CheckMemoryAccessRights():
/home/dangcaominh/STM32MP1/optee-os/optee-os/lib/libutee/tee_api.c:563
    1590:	b570      	push	{r4, r5, r6, lr}
    1592:	4606      	mov	r6, r0
    1594:	460d      	mov	r5, r1
/home/dangcaominh/STM32MP1/optee-os/optee-os/lib/libutee/tee_api.c:566
    1596:	4614      	mov	r4, r2
    1598:	b90a      	cbnz	r2, 159e <TEE_CheckMemoryAccessRights+0xe>
/home/dangcaominh/STM32MP1/optee-os/optee-os/lib/libutee/tee_api.c:567
    159a:	2000      	movs	r0, #0
/home/dangcaominh/STM32MP1/optee-os/optee-os/lib/libutee/tee_api.c:592
    159c:	bd70      	pop	{r4, r5, r6, pc}
/home/dangcaominh/STM32MP1/optee-os/optee-os/lib/libutee/tee_api.c:573
    159e:	f002 e916 	blx	37cc <_utee_check_access_rights>
/home/dangcaominh/STM32MP1/optee-os/optee-os/lib/libutee/tee_api.c:573 (discriminator 1)
    15a2:	b108      	cbz	r0, 15a8 <TEE_CheckMemoryAccessRights+0x18>
/home/dangcaominh/STM32MP1/optee-os/optee-os/lib/libutee/tee_api.c:574
    15a4:	480b      	ldr	r0, [pc, #44]	@ (15d4 <TEE_CheckMemoryAccessRights+0x44>)
    15a6:	e7f9      	b.n	159c <TEE_CheckMemoryAccessRights+0xc>
/home/dangcaominh/STM32MP1/optee-os/optee-os/lib/libutee/tee_api.c:584
    15a8:	4622      	mov	r2, r4
    15aa:	4629      	mov	r1, r5
    15ac:	f006 0007 	and.w	r0, r6, #7
    15b0:	f7ff fe8e 	bl	12d0 <check_mem_access_rights_params>
/home/dangcaominh/STM32MP1/optee-os/optee-os/lib/libutee/tee_api.c:584 (discriminator 1)
    15b4:	2800      	cmp	r0, #0
    15b6:	d1f5      	bne.n	15a4 <TEE_CheckMemoryAccessRights+0x14>
/home/dangcaominh/STM32MP1/optee-os/optee-os/lib/libutee/tee_api.c:587
    15b8:	4621      	mov	r1, r4
    15ba:	4628      	mov	r0, r5
    15bc:	f008 fb9c 	bl	9cf8 <malloc_buffer_overlaps_heap>
/home/dangcaominh/STM32MP1/optee-os/optee-os/lib/libutee/tee_api.c:587 (discriminator 1)
    15c0:	2800      	cmp	r0, #0
    15c2:	d0ea      	beq.n	159a <TEE_CheckMemoryAccessRights+0xa>
/home/dangcaominh/STM32MP1/optee-os/optee-os/lib/libutee/tee_api.c:588
    15c4:	4621      	mov	r1, r4
    15c6:	4628      	mov	r0, r5
    15c8:	f008 fb8e 	bl	9ce8 <malloc_buffer_is_within_alloced>
/home/dangcaominh/STM32MP1/optee-os/optee-os/lib/libutee/tee_api.c:587 (discriminator 1)
    15cc:	2800      	cmp	r0, #0
    15ce:	d1e4      	bne.n	159a <TEE_CheckMemoryAccessRights+0xa>
    15d0:	e7e8      	b.n	15a4 <TEE_CheckMemoryAccessRights+0x14>
    15d2:	bf00      	nop
    15d4:	ffff0001 	.word	0xffff0001

000015d8 <map_tmp_param>:
map_tmp_param():
/home/dangcaominh/STM32MP1/optee-os/optee-os/lib/libutee/tee_api.c:98
    15d8:	e92d 4ff0 	stmdb	sp!, {r4, r5, r6, r7, r8, r9, sl, fp, lr}
    15dc:	4691      	mov	r9, r2
    15de:	4a3f      	ldr	r2, [pc, #252]	@ (16dc <map_tmp_param+0x104>)
    15e0:	4698      	mov	r8, r3
    15e2:	4b3f      	ldr	r3, [pc, #252]	@ (16e0 <map_tmp_param+0x108>)
    15e4:	b085      	sub	sp, #20
    15e6:	447a      	add	r2, pc
/home/dangcaominh/STM32MP1/optee-os/optee-os/lib/libutee/tee_api.c:103
    15e8:	2400      	movs	r4, #0
/home/dangcaominh/STM32MP1/optee-os/optee-os/lib/libutee/tee_api.c:98
    15ea:	4607      	mov	r7, r0
    15ec:	468a      	mov	sl, r1
    15ee:	58d3      	ldr	r3, [r2, r3]
    15f0:	4606      	mov	r6, r0
/home/dangcaominh/STM32MP1/optee-os/optee-os/lib/libutee/tee_api.c:115
    15f2:	4683      	mov	fp, r0
/home/dangcaominh/STM32MP1/optee-os/optee-os/lib/libutee/tee_api.c:116
    15f4:	4625      	mov	r5, r4
/home/dangcaominh/STM32MP1/optee-os/optee-os/lib/libutee/tee_api.c:98
    15f6:	681b      	ldr	r3, [r3, #0]
    15f8:	9303      	str	r3, [sp, #12]
    15fa:	f04f 0300 	mov.w	r3, #0
/home/dangcaominh/STM32MP1/optee-os/optee-os/lib/libutee/tee_api.c:117
    15fe:	4623      	mov	r3, r4
/home/dangcaominh/STM32MP1/optee-os/optee-os/lib/libutee/tee_api.c:114
    1600:	600c      	str	r4, [r1, #0]
/home/dangcaominh/STM32MP1/optee-os/optee-os/lib/libutee/tee_api.c:103
    1602:	9402      	str	r4, [sp, #8]
/home/dangcaominh/STM32MP1/optee-os/optee-os/lib/libutee/tee_api.c:115
    1604:	f8c9 4000 	str.w	r4, [r9]
/home/dangcaominh/STM32MP1/optee-os/optee-os/lib/libutee/tee_api.c:118
    1608:	00a9      	lsls	r1, r5, #2
    160a:	683a      	ldr	r2, [r7, #0]
/home/dangcaominh/STM32MP1/optee-os/optee-os/lib/libutee/tee_api.c:117
    160c:	f848 3025 	str.w	r3, [r8, r5, lsl #2]
/home/dangcaominh/STM32MP1/optee-os/optee-os/lib/libutee/tee_api.c:118
    1610:	40ca      	lsrs	r2, r1
    1612:	f002 020f 	and.w	r2, r2, #15
    1616:	3a05      	subs	r2, #5
    1618:	2a02      	cmp	r2, #2
    161a:	d813      	bhi.n	1644 <map_tmp_param+0x6c>
/home/dangcaominh/STM32MP1/optee-os/optee-os/lib/libutee/tee_api.c:122
    161c:	f8db 1008 	ldr.w	r1, [fp, #8]
/home/dangcaominh/STM32MP1/optee-os/optee-os/lib/libutee/tee_api.c:133
    1620:	b181      	cbz	r1, 1644 <map_tmp_param+0x6c>
/home/dangcaominh/STM32MP1/optee-os/optee-os/lib/libutee/tee_api.c:123
    1622:	f8db 2010 	ldr.w	r2, [fp, #16]
/home/dangcaominh/STM32MP1/optee-os/optee-os/lib/libutee/tee_api.c:133 (discriminator 1)
    1626:	b16a      	cbz	r2, 1644 <map_tmp_param+0x6c>
/home/dangcaominh/STM32MP1/optee-os/optee-os/lib/libutee/tee_api.c:134
    1628:	9201      	str	r2, [sp, #4]
    162a:	2001      	movs	r0, #1
    162c:	f7ff ffb0 	bl	1590 <TEE_CheckMemoryAccessRights>
/home/dangcaominh/STM32MP1/optee-os/optee-os/lib/libutee/tee_api.c:133 (discriminator 2)
    1630:	2300      	movs	r3, #0
    1632:	b938      	cbnz	r0, 1644 <map_tmp_param+0x6c>
/home/dangcaominh/STM32MP1/optee-os/optee-os/lib/libutee/tee_api.c:136
    1634:	9a01      	ldr	r2, [sp, #4]
/home/dangcaominh/STM32MP1/optee-os/optee-os/lib/libutee/tee_api.c:135
    1636:	a902      	add	r1, sp, #8
    1638:	2001      	movs	r0, #1
    163a:	5468      	strb	r0, [r5, r1]
/home/dangcaominh/STM32MP1/optee-os/optee-os/lib/libutee/tee_api.c:136
    163c:	3207      	adds	r2, #7
    163e:	f022 0207 	bic.w	r2, r2, #7
    1642:	4414      	add	r4, r2
/home/dangcaominh/STM32MP1/optee-os/optee-os/lib/libutee/tee_api.c:116 (discriminator 2)
    1644:	3501      	adds	r5, #1
/home/dangcaominh/STM32MP1/optee-os/optee-os/lib/libutee/tee_api.c:116 (discriminator 1)
    1646:	f10b 0b10 	add.w	fp, fp, #16
    164a:	2d04      	cmp	r5, #4
    164c:	d1dc      	bne.n	1608 <map_tmp_param+0x30>
/home/dangcaominh/STM32MP1/optee-os/optee-os/lib/libutee/tee_api.c:144
    164e:	b3bc      	cbz	r4, 16c0 <map_tmp_param+0xe8>
/home/dangcaominh/STM32MP1/optee-os/optee-os/lib/libutee/tee_api.c:145
    1650:	4629      	mov	r1, r5
    1652:	4620      	mov	r0, r4
    1654:	f001 fcbe 	bl	2fd4 <tee_map_zi>
/home/dangcaominh/STM32MP1/optee-os/optee-os/lib/libutee/tee_api.c:146
    1658:	4605      	mov	r5, r0
    165a:	b3c0      	cbz	r0, 16ce <map_tmp_param+0xf6>
/home/dangcaominh/STM32MP1/optee-os/optee-os/lib/libutee/tee_api.c:148
    165c:	f8ca 0000 	str.w	r0, [sl]
/home/dangcaominh/STM32MP1/optee-os/optee-os/lib/libutee/tee_api.c:149
    1660:	f8c9 4000 	str.w	r4, [r9]
/home/dangcaominh/STM32MP1/optee-os/optee-os/lib/libutee/tee_api.c:100
    1664:	2400      	movs	r4, #0
/home/dangcaominh/STM32MP1/optee-os/optee-os/lib/libutee/tee_api.c:157
    1666:	f10d 0a08 	add.w	sl, sp, #8
/home/dangcaominh/STM32MP1/optee-os/optee-os/lib/libutee/tee_api.c:163
    166a:	46a3      	mov	fp, r4
/home/dangcaominh/STM32MP1/optee-os/optee-os/lib/libutee/tee_api.c:153
    166c:	00a2      	lsls	r2, r4, #2
    166e:	683b      	ldr	r3, [r7, #0]
    1670:	40d3      	lsrs	r3, r2
    1672:	f003 030f 	and.w	r3, r3, #15
    1676:	1f5a      	subs	r2, r3, #5
    1678:	2a02      	cmp	r2, #2
    167a:	d810      	bhi.n	169e <map_tmp_param+0xc6>
/home/dangcaominh/STM32MP1/optee-os/optee-os/lib/libutee/tee_api.c:157
    167c:	f814 200a 	ldrb.w	r2, [r4, sl]
    1680:	b16a      	cbz	r2, 169e <map_tmp_param+0xc6>
/home/dangcaominh/STM32MP1/optee-os/optee-os/lib/libutee/tee_api.c:160
    1682:	68b1      	ldr	r1, [r6, #8]
/home/dangcaominh/STM32MP1/optee-os/optee-os/lib/libutee/tee_api.c:164
    1684:	2b06      	cmp	r3, #6
/home/dangcaominh/STM32MP1/optee-os/optee-os/lib/libutee/tee_api.c:159
    1686:	f8d6 9010 	ldr.w	r9, [r6, #16]
/home/dangcaominh/STM32MP1/optee-os/optee-os/lib/libutee/tee_api.c:161
    168a:	f848 5024 	str.w	r5, [r8, r4, lsl #2]
/home/dangcaominh/STM32MP1/optee-os/optee-os/lib/libutee/tee_api.c:163
    168e:	e9c6 5b02 	strd	r5, fp, [r6, #8]
/home/dangcaominh/STM32MP1/optee-os/optee-os/lib/libutee/tee_api.c:164
    1692:	d117      	bne.n	16c4 <map_tmp_param+0xec>
/home/dangcaominh/STM32MP1/optee-os/optee-os/lib/libutee/tee_api.c:162
    1694:	f109 0907 	add.w	r9, r9, #7
    1698:	f029 0907 	bic.w	r9, r9, #7
    169c:	444d      	add	r5, r9
/home/dangcaominh/STM32MP1/optee-os/optee-os/lib/libutee/tee_api.c:152 (discriminator 2)
    169e:	3401      	adds	r4, #1
/home/dangcaominh/STM32MP1/optee-os/optee-os/lib/libutee/tee_api.c:152 (discriminator 1)
    16a0:	3610      	adds	r6, #16
    16a2:	2c04      	cmp	r4, #4
    16a4:	d1e2      	bne.n	166c <map_tmp_param+0x94>
/home/dangcaominh/STM32MP1/optee-os/optee-os/lib/libutee/tee_api.c:173
    16a6:	2000      	movs	r0, #0
/home/dangcaominh/STM32MP1/optee-os/optee-os/lib/libutee/tee_api.c:98
    16a8:	4a0e      	ldr	r2, [pc, #56]	@ (16e4 <map_tmp_param+0x10c>)
/home/dangcaominh/STM32MP1/optee-os/optee-os/lib/libutee/tee_api.c:175
    16aa:	4b0d      	ldr	r3, [pc, #52]	@ (16e0 <map_tmp_param+0x108>)
/home/dangcaominh/STM32MP1/optee-os/optee-os/lib/libutee/tee_api.c:98
    16ac:	447a      	add	r2, pc
/home/dangcaominh/STM32MP1/optee-os/optee-os/lib/libutee/tee_api.c:175
    16ae:	58d3      	ldr	r3, [r2, r3]
    16b0:	681a      	ldr	r2, [r3, #0]
    16b2:	9b03      	ldr	r3, [sp, #12]
    16b4:	405a      	eors	r2, r3
    16b6:	f04f 0300 	mov.w	r3, #0
    16ba:	d00a      	beq.n	16d2 <map_tmp_param+0xfa>
    16bc:	f7fe ff04 	bl	4c8 <__stack_chk_fail>
/home/dangcaominh/STM32MP1/optee-os/optee-os/lib/libutee/tee_api.c:100
    16c0:	4625      	mov	r5, r4
    16c2:	e7cf      	b.n	1664 <map_tmp_param+0x8c>
/home/dangcaominh/STM32MP1/optee-os/optee-os/lib/libutee/tee_api.c:166
    16c4:	464a      	mov	r2, r9
    16c6:	4628      	mov	r0, r5
    16c8:	f008 fb50 	bl	9d6c <memcpy>
    16cc:	e7e2      	b.n	1694 <map_tmp_param+0xbc>
/home/dangcaominh/STM32MP1/optee-os/optee-os/lib/libutee/tee_api.c:147
    16ce:	4802      	ldr	r0, [pc, #8]	@ (16d8 <map_tmp_param+0x100>)
    16d0:	e7ea      	b.n	16a8 <map_tmp_param+0xd0>
/home/dangcaominh/STM32MP1/optee-os/optee-os/lib/libutee/tee_api.c:175
    16d2:	b005      	add	sp, #20
    16d4:	e8bd 8ff0 	ldmia.w	sp!, {r4, r5, r6, r7, r8, r9, sl, fp, pc}
    16d8:	ffff000c 	.word	0xffff000c
    16dc:	0000aa9e 	.word	0x0000aa9e
    16e0:	0000000c 	.word	0x0000000c
    16e4:	0000a9d8 	.word	0x0000a9d8

000016e8 <TEE_OpenTASession>:
TEE_OpenTASession():
/home/dangcaominh/STM32MP1/optee-os/optee-os/lib/libutee/tee_api.c:323
    16e8:	e92d 4ff0 	stmdb	sp!, {r4, r5, r6, r7, r8, r9, sl, fp, lr}
    16ec:	4614      	mov	r4, r2
    16ee:	4a32      	ldr	r2, [pc, #200]	@ (17b8 <TEE_OpenTASession+0xd0>)
    16f0:	461d      	mov	r5, r3
    16f2:	4b32      	ldr	r3, [pc, #200]	@ (17bc <TEE_OpenTASession+0xd4>)
    16f4:	b09f      	sub	sp, #124	@ 0x7c
    16f6:	447a      	add	r2, pc
/home/dangcaominh/STM32MP1/optee-os/optee-os/lib/libutee/tee_api.c:325
    16f8:	ae0a      	add	r6, sp, #40	@ 0x28
/home/dangcaominh/STM32MP1/optee-os/optee-os/lib/libutee/tee_api.c:323
    16fa:	4680      	mov	r8, r0
    16fc:	4689      	mov	r9, r1
    16fe:	58d3      	ldr	r3, [r2, r3]
/home/dangcaominh/STM32MP1/optee-os/optee-os/lib/libutee/tee_api.c:325
    1700:	2100      	movs	r1, #0
    1702:	4630      	mov	r0, r6
    1704:	2248      	movs	r2, #72	@ 0x48
/home/dangcaominh/STM32MP1/optee-os/optee-os/lib/libutee/tee_api.c:323
    1706:	681b      	ldr	r3, [r3, #0]
    1708:	931d      	str	r3, [sp, #116]	@ 0x74
    170a:	f04f 0300 	mov.w	r3, #0
/home/dangcaominh/STM32MP1/optee-os/optee-os/lib/libutee/tee_api.c:329
    170e:	af06      	add	r7, sp, #24
/home/dangcaominh/STM32MP1/optee-os/optee-os/lib/libutee/tee_api.c:323
    1710:	e9dd ab28 	ldrd	sl, fp, [sp, #160]	@ 0xa0
/home/dangcaominh/STM32MP1/optee-os/optee-os/lib/libutee/tee_api.c:325
    1714:	f008 fc10 	bl	9f38 <memset>
/home/dangcaominh/STM32MP1/optee-os/optee-os/lib/libutee/tee_api.c:329
    1718:	efc0 0010 	vmov.i32	d16, #0	@ 0x00000000
/home/dangcaominh/STM32MP1/optee-os/optee-os/lib/libutee/tee_api.c:326
    171c:	2300      	movs	r3, #0
    171e:	9303      	str	r3, [sp, #12]
/home/dangcaominh/STM32MP1/optee-os/optee-os/lib/libutee/tee_api.c:329
    1720:	edcd 0b06 	vstr	d16, [sp, #24]
    1724:	edc7 0b02 	vstr	d16, [r7, #8]
/home/dangcaominh/STM32MP1/optee-os/optee-os/lib/libutee/tee_api.c:328
    1728:	e9cd 3304 	strd	r3, r3, [sp, #16]
/home/dangcaominh/STM32MP1/optee-os/optee-os/lib/libutee/tee_api.c:331
    172c:	b13c      	cbz	r4, 173e <TEE_OpenTASession+0x56>
/home/dangcaominh/STM32MP1/optee-os/optee-os/lib/libutee/tee_api.c:332
    172e:	2120      	movs	r1, #32
    1730:	4628      	mov	r0, r5
    1732:	f001 fc1c 	bl	2f6e <__utee_check_inout_annotation>
/home/dangcaominh/STM32MP1/optee-os/optee-os/lib/libutee/tee_api.c:335
    1736:	4629      	mov	r1, r5
    1738:	4620      	mov	r0, r4
    173a:	f7ff fe15 	bl	1368 <check_invoke_param>
/home/dangcaominh/STM32MP1/optee-os/optee-os/lib/libutee/tee_api.c:337
    173e:	2104      	movs	r1, #4
    1740:	4650      	mov	r0, sl
    1742:	f001 fbfc 	bl	2f3e <__utee_check_out_annotation>
/home/dangcaominh/STM32MP1/optee-os/optee-os/lib/libutee/tee_api.c:339
    1746:	4621      	mov	r1, r4
    1748:	462a      	mov	r2, r5
    174a:	4630      	mov	r0, r6
    174c:	f7ff fd6e 	bl	122c <copy_param>
/home/dangcaominh/STM32MP1/optee-os/optee-os/lib/libutee/tee_api.c:340
    1750:	463b      	mov	r3, r7
    1752:	aa05      	add	r2, sp, #20
    1754:	a904      	add	r1, sp, #16
    1756:	4630      	mov	r0, r6
    1758:	f7ff ff3e 	bl	15d8 <map_tmp_param>
/home/dangcaominh/STM32MP1/optee-os/optee-os/lib/libutee/tee_api.c:341
    175c:	4604      	mov	r4, r0
    175e:	b9b0      	cbnz	r0, 178e <TEE_OpenTASession+0xa6>
/home/dangcaominh/STM32MP1/optee-os/optee-os/lib/libutee/tee_api.c:343
    1760:	f8cd b000 	str.w	fp, [sp]
    1764:	ab03      	add	r3, sp, #12
    1766:	4632      	mov	r2, r6
    1768:	4649      	mov	r1, r9
    176a:	4640      	mov	r0, r8
    176c:	f002 e802 	blx	3774 <_utee_open_ta_session>
    1770:	4604      	mov	r4, r0
/home/dangcaominh/STM32MP1/optee-os/optee-os/lib/libutee/tee_api.c:345
    1772:	4632      	mov	r2, r6
    1774:	4628      	mov	r0, r5
    1776:	4639      	mov	r1, r7
    1778:	f7ff fe24 	bl	13c4 <update_out_param>
/home/dangcaominh/STM32MP1/optee-os/optee-os/lib/libutee/tee_api.c:346
    177c:	9804      	ldr	r0, [sp, #16]
    177e:	b128      	cbz	r0, 178c <TEE_OpenTASession+0xa4>
/home/dangcaominh/STM32MP1/optee-os/optee-os/lib/libutee/tee_api.c:347
    1780:	9905      	ldr	r1, [sp, #20]
    1782:	f001 fc5d 	bl	3040 <tee_unmap>
/home/dangcaominh/STM32MP1/optee-os/optee-os/lib/libutee/tee_api.c:349
    1786:	b108      	cbz	r0, 178c <TEE_OpenTASession+0xa4>
/home/dangcaominh/STM32MP1/optee-os/optee-os/lib/libutee/tee_api.c:350
    1788:	f001 fbac 	bl	2ee4 <TEE_Panic>
/home/dangcaominh/STM32MP1/optee-os/optee-os/lib/libutee/tee_api.c:359
    178c:	b10c      	cbz	r4, 1792 <TEE_OpenTASession+0xaa>
/home/dangcaominh/STM32MP1/optee-os/optee-os/lib/libutee/tee_api.c:360
    178e:	2300      	movs	r3, #0
    1790:	9303      	str	r3, [sp, #12]
/home/dangcaominh/STM32MP1/optee-os/optee-os/lib/libutee/tee_api.c:362
    1792:	9b03      	ldr	r3, [sp, #12]
/home/dangcaominh/STM32MP1/optee-os/optee-os/lib/libutee/tee_api.c:323
    1794:	4a0a      	ldr	r2, [pc, #40]	@ (17c0 <TEE_OpenTASession+0xd8>)
/home/dangcaominh/STM32MP1/optee-os/optee-os/lib/libutee/tee_api.c:362
    1796:	f8ca 3000 	str.w	r3, [sl]
/home/dangcaominh/STM32MP1/optee-os/optee-os/lib/libutee/tee_api.c:323
    179a:	447a      	add	r2, pc
/home/dangcaominh/STM32MP1/optee-os/optee-os/lib/libutee/tee_api.c:364
    179c:	4b07      	ldr	r3, [pc, #28]	@ (17bc <TEE_OpenTASession+0xd4>)
    179e:	58d3      	ldr	r3, [r2, r3]
    17a0:	681a      	ldr	r2, [r3, #0]
    17a2:	9b1d      	ldr	r3, [sp, #116]	@ 0x74
    17a4:	405a      	eors	r2, r3
    17a6:	f04f 0300 	mov.w	r3, #0
    17aa:	d001      	beq.n	17b0 <TEE_OpenTASession+0xc8>
    17ac:	f7fe fe8c 	bl	4c8 <__stack_chk_fail>
    17b0:	4620      	mov	r0, r4
    17b2:	b01f      	add	sp, #124	@ 0x7c
    17b4:	e8bd 8ff0 	ldmia.w	sp!, {r4, r5, r6, r7, r8, r9, sl, fp, pc}
    17b8:	0000a98e 	.word	0x0000a98e
    17bc:	0000000c 	.word	0x0000000c
    17c0:	0000a8ea 	.word	0x0000a8ea

000017c4 <__GP11_TEE_OpenTASession>:
__GP11_TEE_OpenTASession():
/home/dangcaominh/STM32MP1/optee-os/optee-os/lib/libutee/tee_api.c:372
    17c4:	e92d 4ff0 	stmdb	sp!, {r4, r5, r6, r7, r8, r9, sl, fp, lr}
    17c8:	4614      	mov	r4, r2
    17ca:	4a2f      	ldr	r2, [pc, #188]	@ (1888 <__GP11_TEE_OpenTASession+0xc4>)
    17cc:	461d      	mov	r5, r3
    17ce:	4b2f      	ldr	r3, [pc, #188]	@ (188c <__GP11_TEE_OpenTASession+0xc8>)
    17d0:	b09f      	sub	sp, #124	@ 0x7c
    17d2:	447a      	add	r2, pc
/home/dangcaominh/STM32MP1/optee-os/optee-os/lib/libutee/tee_api.c:374
    17d4:	ae0a      	add	r6, sp, #40	@ 0x28
/home/dangcaominh/STM32MP1/optee-os/optee-os/lib/libutee/tee_api.c:372
    17d6:	4680      	mov	r8, r0
    17d8:	4689      	mov	r9, r1
    17da:	58d3      	ldr	r3, [r2, r3]
/home/dangcaominh/STM32MP1/optee-os/optee-os/lib/libutee/tee_api.c:374
    17dc:	2100      	movs	r1, #0
    17de:	4630      	mov	r0, r6
    17e0:	2248      	movs	r2, #72	@ 0x48
/home/dangcaominh/STM32MP1/optee-os/optee-os/lib/libutee/tee_api.c:372
    17e2:	681b      	ldr	r3, [r3, #0]
    17e4:	931d      	str	r3, [sp, #116]	@ 0x74
    17e6:	f04f 0300 	mov.w	r3, #0
/home/dangcaominh/STM32MP1/optee-os/optee-os/lib/libutee/tee_api.c:378
    17ea:	af06      	add	r7, sp, #24
/home/dangcaominh/STM32MP1/optee-os/optee-os/lib/libutee/tee_api.c:372
    17ec:	e9dd ab28 	ldrd	sl, fp, [sp, #160]	@ 0xa0
/home/dangcaominh/STM32MP1/optee-os/optee-os/lib/libutee/tee_api.c:374
    17f0:	f008 fba2 	bl	9f38 <memset>
/home/dangcaominh/STM32MP1/optee-os/optee-os/lib/libutee/tee_api.c:378
    17f4:	efc0 0010 	vmov.i32	d16, #0	@ 0x00000000
/home/dangcaominh/STM32MP1/optee-os/optee-os/lib/libutee/tee_api.c:375
    17f8:	2300      	movs	r3, #0
    17fa:	9303      	str	r3, [sp, #12]
/home/dangcaominh/STM32MP1/optee-os/optee-os/lib/libutee/tee_api.c:378
    17fc:	edcd 0b06 	vstr	d16, [sp, #24]
    1800:	edc7 0b02 	vstr	d16, [r7, #8]
/home/dangcaominh/STM32MP1/optee-os/optee-os/lib/libutee/tee_api.c:380
    1804:	b11c      	cbz	r4, 180e <__GP11_TEE_OpenTASession+0x4a>
/home/dangcaominh/STM32MP1/optee-os/optee-os/lib/libutee/tee_api.c:381
    1806:	2120      	movs	r1, #32
    1808:	4628      	mov	r0, r5
    180a:	f001 fbb0 	bl	2f6e <__utee_check_inout_annotation>
/home/dangcaominh/STM32MP1/optee-os/optee-os/lib/libutee/tee_api.c:384
    180e:	2104      	movs	r1, #4
    1810:	4650      	mov	r0, sl
    1812:	f001 fb94 	bl	2f3e <__utee_check_out_annotation>
/home/dangcaominh/STM32MP1/optee-os/optee-os/lib/libutee/tee_api.c:386
    1816:	4621      	mov	r1, r4
    1818:	462a      	mov	r2, r5
    181a:	4630      	mov	r0, r6
    181c:	f7ff fd2f 	bl	127e <copy_gp11_param>
/home/dangcaominh/STM32MP1/optee-os/optee-os/lib/libutee/tee_api.c:387
    1820:	463b      	mov	r3, r7
    1822:	aa05      	add	r2, sp, #20
    1824:	a904      	add	r1, sp, #16
    1826:	4630      	mov	r0, r6
    1828:	f7ff fed6 	bl	15d8 <map_tmp_param>
/home/dangcaominh/STM32MP1/optee-os/optee-os/lib/libutee/tee_api.c:388
    182c:	4604      	mov	r4, r0
    182e:	b9b0      	cbnz	r0, 185e <__GP11_TEE_OpenTASession+0x9a>
/home/dangcaominh/STM32MP1/optee-os/optee-os/lib/libutee/tee_api.c:390
    1830:	f8cd b000 	str.w	fp, [sp]
    1834:	ab03      	add	r3, sp, #12
    1836:	4632      	mov	r2, r6
    1838:	4649      	mov	r1, r9
    183a:	4640      	mov	r0, r8
    183c:	f001 ef9a 	blx	3774 <_utee_open_ta_session>
    1840:	4604      	mov	r4, r0
/home/dangcaominh/STM32MP1/optee-os/optee-os/lib/libutee/tee_api.c:392
    1842:	4632      	mov	r2, r6
    1844:	4628      	mov	r0, r5
    1846:	4639      	mov	r1, r7
    1848:	f7ff fdee 	bl	1428 <update_out_gp11_param>
/home/dangcaominh/STM32MP1/optee-os/optee-os/lib/libutee/tee_api.c:393
    184c:	9804      	ldr	r0, [sp, #16]
    184e:	b128      	cbz	r0, 185c <__GP11_TEE_OpenTASession+0x98>
/home/dangcaominh/STM32MP1/optee-os/optee-os/lib/libutee/tee_api.c:394
    1850:	9905      	ldr	r1, [sp, #20]
    1852:	f001 fbf5 	bl	3040 <tee_unmap>
/home/dangcaominh/STM32MP1/optee-os/optee-os/lib/libutee/tee_api.c:396
    1856:	b108      	cbz	r0, 185c <__GP11_TEE_OpenTASession+0x98>
/home/dangcaominh/STM32MP1/optee-os/optee-os/lib/libutee/tee_api.c:397
    1858:	f001 fb44 	bl	2ee4 <TEE_Panic>
/home/dangcaominh/STM32MP1/optee-os/optee-os/lib/libutee/tee_api.c:406
    185c:	b10c      	cbz	r4, 1862 <__GP11_TEE_OpenTASession+0x9e>
/home/dangcaominh/STM32MP1/optee-os/optee-os/lib/libutee/tee_api.c:407
    185e:	2300      	movs	r3, #0
    1860:	9303      	str	r3, [sp, #12]
/home/dangcaominh/STM32MP1/optee-os/optee-os/lib/libutee/tee_api.c:409
    1862:	9b03      	ldr	r3, [sp, #12]
/home/dangcaominh/STM32MP1/optee-os/optee-os/lib/libutee/tee_api.c:372
    1864:	4a0a      	ldr	r2, [pc, #40]	@ (1890 <__GP11_TEE_OpenTASession+0xcc>)
/home/dangcaominh/STM32MP1/optee-os/optee-os/lib/libutee/tee_api.c:409
    1866:	f8ca 3000 	str.w	r3, [sl]
/home/dangcaominh/STM32MP1/optee-os/optee-os/lib/libutee/tee_api.c:372
    186a:	447a      	add	r2, pc
/home/dangcaominh/STM32MP1/optee-os/optee-os/lib/libutee/tee_api.c:411
    186c:	4b07      	ldr	r3, [pc, #28]	@ (188c <__GP11_TEE_OpenTASession+0xc8>)
    186e:	58d3      	ldr	r3, [r2, r3]
    1870:	681a      	ldr	r2, [r3, #0]
    1872:	9b1d      	ldr	r3, [sp, #116]	@ 0x74
    1874:	405a      	eors	r2, r3
    1876:	f04f 0300 	mov.w	r3, #0
    187a:	d001      	beq.n	1880 <__GP11_TEE_OpenTASession+0xbc>
    187c:	f7fe fe24 	bl	4c8 <__stack_chk_fail>
    1880:	4620      	mov	r0, r4
    1882:	b01f      	add	sp, #124	@ 0x7c
    1884:	e8bd 8ff0 	ldmia.w	sp!, {r4, r5, r6, r7, r8, r9, sl, fp, pc}
    1888:	0000a8b2 	.word	0x0000a8b2
    188c:	0000000c 	.word	0x0000000c
    1890:	0000a81a 	.word	0x0000a81a

00001894 <TEE_InvokeTACommand>:
TEE_InvokeTACommand():
/home/dangcaominh/STM32MP1/optee-os/optee-os/lib/libutee/tee_api.c:428
    1894:	e92d 4ff0 	stmdb	sp!, {r4, r5, r6, r7, r8, r9, sl, fp, lr}
    1898:	4693      	mov	fp, r2
    189a:	4a3a      	ldr	r2, [pc, #232]	@ (1984 <TEE_InvokeTACommand+0xf0>)
    189c:	461c      	mov	r4, r3
    189e:	4b3a      	ldr	r3, [pc, #232]	@ (1988 <TEE_InvokeTACommand+0xf4>)
    18a0:	b09f      	sub	sp, #124	@ 0x7c
    18a2:	447a      	add	r2, pc
/home/dangcaominh/STM32MP1/optee-os/optee-os/lib/libutee/tee_api.c:431
    18a4:	ad0a      	add	r5, sp, #40	@ 0x28
/home/dangcaominh/STM32MP1/optee-os/optee-os/lib/libutee/tee_api.c:428
    18a6:	4681      	mov	r9, r0
    18a8:	468a      	mov	sl, r1
    18aa:	58d3      	ldr	r3, [r2, r3]
/home/dangcaominh/STM32MP1/optee-os/optee-os/lib/libutee/tee_api.c:431
    18ac:	2100      	movs	r1, #0
    18ae:	4628      	mov	r0, r5
    18b0:	2248      	movs	r2, #72	@ 0x48
/home/dangcaominh/STM32MP1/optee-os/optee-os/lib/libutee/tee_api.c:428
    18b2:	681b      	ldr	r3, [r3, #0]
    18b4:	931d      	str	r3, [sp, #116]	@ 0x74
    18b6:	f04f 0300 	mov.w	r3, #0
/home/dangcaominh/STM32MP1/optee-os/optee-os/lib/libutee/tee_api.c:430
    18ba:	2303      	movs	r3, #3
    18bc:	9303      	str	r3, [sp, #12]
/home/dangcaominh/STM32MP1/optee-os/optee-os/lib/libutee/tee_api.c:434
    18be:	f10d 0818 	add.w	r8, sp, #24
/home/dangcaominh/STM32MP1/optee-os/optee-os/lib/libutee/tee_api.c:428
    18c2:	e9dd 7628 	ldrd	r7, r6, [sp, #160]	@ 0xa0
/home/dangcaominh/STM32MP1/optee-os/optee-os/lib/libutee/tee_api.c:431
    18c6:	f008 fb37 	bl	9f38 <memset>
/home/dangcaominh/STM32MP1/optee-os/optee-os/lib/libutee/tee_api.c:434
    18ca:	efc0 0010 	vmov.i32	d16, #0	@ 0x00000000
/home/dangcaominh/STM32MP1/optee-os/optee-os/lib/libutee/tee_api.c:432
    18ce:	2300      	movs	r3, #0
/home/dangcaominh/STM32MP1/optee-os/optee-os/lib/libutee/tee_api.c:433
    18d0:	e9cd 3304 	strd	r3, r3, [sp, #16]
/home/dangcaominh/STM32MP1/optee-os/optee-os/lib/libutee/tee_api.c:434
    18d4:	edcd 0b06 	vstr	d16, [sp, #24]
    18d8:	edc8 0b02 	vstr	d16, [r8, #8]
/home/dangcaominh/STM32MP1/optee-os/optee-os/lib/libutee/tee_api.c:436
    18dc:	b13c      	cbz	r4, 18ee <TEE_InvokeTACommand+0x5a>
/home/dangcaominh/STM32MP1/optee-os/optee-os/lib/libutee/tee_api.c:437
    18de:	2120      	movs	r1, #32
    18e0:	4638      	mov	r0, r7
    18e2:	f001 fb44 	bl	2f6e <__utee_check_inout_annotation>
/home/dangcaominh/STM32MP1/optee-os/optee-os/lib/libutee/tee_api.c:440
    18e6:	4639      	mov	r1, r7
    18e8:	4620      	mov	r0, r4
    18ea:	f7ff fd3d 	bl	1368 <check_invoke_param>
/home/dangcaominh/STM32MP1/optee-os/optee-os/lib/libutee/tee_api.c:442
    18ee:	b11e      	cbz	r6, 18f8 <TEE_InvokeTACommand+0x64>
/home/dangcaominh/STM32MP1/optee-os/optee-os/lib/libutee/tee_api.c:443
    18f0:	2104      	movs	r1, #4
    18f2:	4630      	mov	r0, r6
    18f4:	f001 fb23 	bl	2f3e <__utee_check_out_annotation>
/home/dangcaominh/STM32MP1/optee-os/optee-os/lib/libutee/tee_api.c:446
    18f8:	4621      	mov	r1, r4
    18fa:	463a      	mov	r2, r7
    18fc:	4628      	mov	r0, r5
    18fe:	f7ff fc95 	bl	122c <copy_param>
/home/dangcaominh/STM32MP1/optee-os/optee-os/lib/libutee/tee_api.c:447
    1902:	4643      	mov	r3, r8
    1904:	aa05      	add	r2, sp, #20
    1906:	a904      	add	r1, sp, #16
    1908:	4628      	mov	r0, r5
    190a:	f7ff fe65 	bl	15d8 <map_tmp_param>
/home/dangcaominh/STM32MP1/optee-os/optee-os/lib/libutee/tee_api.c:448
    190e:	4604      	mov	r4, r0
    1910:	b9a8      	cbnz	r0, 193e <TEE_InvokeTACommand+0xaa>
/home/dangcaominh/STM32MP1/optee-os/optee-os/lib/libutee/tee_api.c:450
    1912:	ab03      	add	r3, sp, #12
    1914:	465a      	mov	r2, fp
    1916:	9300      	str	r3, [sp, #0]
    1918:	4651      	mov	r1, sl
    191a:	462b      	mov	r3, r5
    191c:	4648      	mov	r0, r9
    191e:	f001 ef40 	blx	37a0 <_utee_invoke_ta_command>
    1922:	4604      	mov	r4, r0
/home/dangcaominh/STM32MP1/optee-os/optee-os/lib/libutee/tee_api.c:453
    1924:	462a      	mov	r2, r5
    1926:	4638      	mov	r0, r7
    1928:	4641      	mov	r1, r8
    192a:	f7ff fd4b 	bl	13c4 <update_out_param>
/home/dangcaominh/STM32MP1/optee-os/optee-os/lib/libutee/tee_api.c:454
    192e:	9804      	ldr	r0, [sp, #16]
    1930:	b128      	cbz	r0, 193e <TEE_InvokeTACommand+0xaa>
/home/dangcaominh/STM32MP1/optee-os/optee-os/lib/libutee/tee_api.c:455
    1932:	9905      	ldr	r1, [sp, #20]
    1934:	f001 fb84 	bl	3040 <tee_unmap>
/home/dangcaominh/STM32MP1/optee-os/optee-os/lib/libutee/tee_api.c:457
    1938:	b108      	cbz	r0, 193e <TEE_InvokeTACommand+0xaa>
/home/dangcaominh/STM32MP1/optee-os/optee-os/lib/libutee/tee_api.c:458
    193a:	f001 fad3 	bl	2ee4 <TEE_Panic>
/home/dangcaominh/STM32MP1/optee-os/optee-os/lib/libutee/tee_api.c:463
    193e:	9b03      	ldr	r3, [sp, #12]
/home/dangcaominh/STM32MP1/optee-os/optee-os/lib/libutee/tee_api.c:462
    1940:	b106      	cbz	r6, 1944 <TEE_InvokeTACommand+0xb0>
/home/dangcaominh/STM32MP1/optee-os/optee-os/lib/libutee/tee_api.c:463
    1942:	6033      	str	r3, [r6, #0]
/home/dangcaominh/STM32MP1/optee-os/optee-os/lib/libutee/tee_api.c:465
    1944:	2b04      	cmp	r3, #4
    1946:	d009      	beq.n	195c <TEE_InvokeTACommand+0xc8>
/home/dangcaominh/STM32MP1/optee-os/optee-os/lib/libutee/tee_api.c:468
    1948:	b144      	cbz	r4, 195c <TEE_InvokeTACommand+0xc8>
/home/dangcaominh/STM32MP1/optee-os/optee-os/lib/libutee/tee_api.c:468 (discriminator 1)
    194a:	4b0c      	ldr	r3, [pc, #48]	@ (197c <TEE_InvokeTACommand+0xe8>)
    194c:	429c      	cmp	r4, r3
    194e:	d005      	beq.n	195c <TEE_InvokeTACommand+0xc8>
/home/dangcaominh/STM32MP1/optee-os/optee-os/lib/libutee/tee_api.c:469
    1950:	4b0b      	ldr	r3, [pc, #44]	@ (1980 <TEE_InvokeTACommand+0xec>)
    1952:	429c      	cmp	r4, r3
    1954:	d002      	beq.n	195c <TEE_InvokeTACommand+0xc8>
/home/dangcaominh/STM32MP1/optee-os/optee-os/lib/libutee/tee_api.c:471
    1956:	4620      	mov	r0, r4
    1958:	f001 fac4 	bl	2ee4 <TEE_Panic>
/home/dangcaominh/STM32MP1/optee-os/optee-os/lib/libutee/tee_api.c:428
    195c:	4a0b      	ldr	r2, [pc, #44]	@ (198c <TEE_InvokeTACommand+0xf8>)
/home/dangcaominh/STM32MP1/optee-os/optee-os/lib/libutee/tee_api.c:474
    195e:	4b0a      	ldr	r3, [pc, #40]	@ (1988 <TEE_InvokeTACommand+0xf4>)
/home/dangcaominh/STM32MP1/optee-os/optee-os/lib/libutee/tee_api.c:428
    1960:	447a      	add	r2, pc
/home/dangcaominh/STM32MP1/optee-os/optee-os/lib/libutee/tee_api.c:474
    1962:	58d3      	ldr	r3, [r2, r3]
    1964:	681a      	ldr	r2, [r3, #0]
    1966:	9b1d      	ldr	r3, [sp, #116]	@ 0x74
    1968:	405a      	eors	r2, r3
    196a:	f04f 0300 	mov.w	r3, #0
    196e:	d001      	beq.n	1974 <TEE_InvokeTACommand+0xe0>
    1970:	f7fe fdaa 	bl	4c8 <__stack_chk_fail>
    1974:	4620      	mov	r0, r4
    1976:	b01f      	add	sp, #124	@ 0x7c
    1978:	e8bd 8ff0 	ldmia.w	sp!, {r4, r5, r6, r7, r8, r9, sl, fp, pc}
    197c:	ffff000c 	.word	0xffff000c
    1980:	ffff3024 	.word	0xffff3024
    1984:	0000a7e2 	.word	0x0000a7e2
    1988:	0000000c 	.word	0x0000000c
    198c:	0000a724 	.word	0x0000a724

00001990 <__GP11_TEE_InvokeTACommand>:
__GP11_TEE_InvokeTACommand():
/home/dangcaominh/STM32MP1/optee-os/optee-os/lib/libutee/tee_api.c:481
    1990:	e92d 4ff0 	stmdb	sp!, {r4, r5, r6, r7, r8, r9, sl, fp, lr}
    1994:	4693      	mov	fp, r2
    1996:	4a37      	ldr	r2, [pc, #220]	@ (1a74 <__GP11_TEE_InvokeTACommand+0xe4>)
    1998:	461c      	mov	r4, r3
    199a:	4b37      	ldr	r3, [pc, #220]	@ (1a78 <__GP11_TEE_InvokeTACommand+0xe8>)
    199c:	b09f      	sub	sp, #124	@ 0x7c
    199e:	447a      	add	r2, pc
/home/dangcaominh/STM32MP1/optee-os/optee-os/lib/libutee/tee_api.c:484
    19a0:	ad0a      	add	r5, sp, #40	@ 0x28
/home/dangcaominh/STM32MP1/optee-os/optee-os/lib/libutee/tee_api.c:481
    19a2:	4681      	mov	r9, r0
    19a4:	468a      	mov	sl, r1
    19a6:	58d3      	ldr	r3, [r2, r3]
/home/dangcaominh/STM32MP1/optee-os/optee-os/lib/libutee/tee_api.c:484
    19a8:	2100      	movs	r1, #0
    19aa:	4628      	mov	r0, r5
    19ac:	2248      	movs	r2, #72	@ 0x48
/home/dangcaominh/STM32MP1/optee-os/optee-os/lib/libutee/tee_api.c:481
    19ae:	681b      	ldr	r3, [r3, #0]
    19b0:	931d      	str	r3, [sp, #116]	@ 0x74
    19b2:	f04f 0300 	mov.w	r3, #0
/home/dangcaominh/STM32MP1/optee-os/optee-os/lib/libutee/tee_api.c:483
    19b6:	2303      	movs	r3, #3
/home/dangcaominh/STM32MP1/optee-os/optee-os/lib/libutee/tee_api.c:481
    19b8:	e9dd 7628 	ldrd	r7, r6, [sp, #160]	@ 0xa0
/home/dangcaominh/STM32MP1/optee-os/optee-os/lib/libutee/tee_api.c:483
    19bc:	9303      	str	r3, [sp, #12]
/home/dangcaominh/STM32MP1/optee-os/optee-os/lib/libutee/tee_api.c:484
    19be:	f008 fabb 	bl	9f38 <memset>
/home/dangcaominh/STM32MP1/optee-os/optee-os/lib/libutee/tee_api.c:487
    19c2:	efc0 0010 	vmov.i32	d16, #0	@ 0x00000000
    19c6:	f10d 0818 	add.w	r8, sp, #24
    19ca:	edcd 0b06 	vstr	d16, [sp, #24]
    19ce:	edc8 0b02 	vstr	d16, [r8, #8]
/home/dangcaominh/STM32MP1/optee-os/optee-os/lib/libutee/tee_api.c:489
    19d2:	b11c      	cbz	r4, 19dc <__GP11_TEE_InvokeTACommand+0x4c>
/home/dangcaominh/STM32MP1/optee-os/optee-os/lib/libutee/tee_api.c:490
    19d4:	2120      	movs	r1, #32
    19d6:	4638      	mov	r0, r7
    19d8:	f001 fac9 	bl	2f6e <__utee_check_inout_annotation>
/home/dangcaominh/STM32MP1/optee-os/optee-os/lib/libutee/tee_api.c:493
    19dc:	b11e      	cbz	r6, 19e6 <__GP11_TEE_InvokeTACommand+0x56>
/home/dangcaominh/STM32MP1/optee-os/optee-os/lib/libutee/tee_api.c:494
    19de:	2104      	movs	r1, #4
    19e0:	4630      	mov	r0, r6
    19e2:	f001 faac 	bl	2f3e <__utee_check_out_annotation>
/home/dangcaominh/STM32MP1/optee-os/optee-os/lib/libutee/tee_api.c:497
    19e6:	4621      	mov	r1, r4
    19e8:	463a      	mov	r2, r7
    19ea:	4628      	mov	r0, r5
    19ec:	f7ff fc47 	bl	127e <copy_gp11_param>
/home/dangcaominh/STM32MP1/optee-os/optee-os/lib/libutee/tee_api.c:498
    19f0:	4643      	mov	r3, r8
    19f2:	aa05      	add	r2, sp, #20
    19f4:	a904      	add	r1, sp, #16
    19f6:	4628      	mov	r0, r5
    19f8:	f7ff fdee 	bl	15d8 <map_tmp_param>
/home/dangcaominh/STM32MP1/optee-os/optee-os/lib/libutee/tee_api.c:499
    19fc:	4604      	mov	r4, r0
    19fe:	b9a8      	cbnz	r0, 1a2c <__GP11_TEE_InvokeTACommand+0x9c>
/home/dangcaominh/STM32MP1/optee-os/optee-os/lib/libutee/tee_api.c:501
    1a00:	ab03      	add	r3, sp, #12
    1a02:	465a      	mov	r2, fp
    1a04:	9300      	str	r3, [sp, #0]
    1a06:	4651      	mov	r1, sl
    1a08:	462b      	mov	r3, r5
    1a0a:	4648      	mov	r0, r9
    1a0c:	f001 eec8 	blx	37a0 <_utee_invoke_ta_command>
    1a10:	4604      	mov	r4, r0
/home/dangcaominh/STM32MP1/optee-os/optee-os/lib/libutee/tee_api.c:504
    1a12:	462a      	mov	r2, r5
    1a14:	4638      	mov	r0, r7
    1a16:	4641      	mov	r1, r8
    1a18:	f7ff fd06 	bl	1428 <update_out_gp11_param>
/home/dangcaominh/STM32MP1/optee-os/optee-os/lib/libutee/tee_api.c:505
    1a1c:	9804      	ldr	r0, [sp, #16]
    1a1e:	b128      	cbz	r0, 1a2c <__GP11_TEE_InvokeTACommand+0x9c>
/home/dangcaominh/STM32MP1/optee-os/optee-os/lib/libutee/tee_api.c:506
    1a20:	9905      	ldr	r1, [sp, #20]
    1a22:	f001 fb0d 	bl	3040 <tee_unmap>
/home/dangcaominh/STM32MP1/optee-os/optee-os/lib/libutee/tee_api.c:508
    1a26:	b108      	cbz	r0, 1a2c <__GP11_TEE_InvokeTACommand+0x9c>
/home/dangcaominh/STM32MP1/optee-os/optee-os/lib/libutee/tee_api.c:509
    1a28:	f001 fa5c 	bl	2ee4 <TEE_Panic>
/home/dangcaominh/STM32MP1/optee-os/optee-os/lib/libutee/tee_api.c:514
    1a2c:	9b03      	ldr	r3, [sp, #12]
/home/dangcaominh/STM32MP1/optee-os/optee-os/lib/libutee/tee_api.c:513
    1a2e:	b106      	cbz	r6, 1a32 <__GP11_TEE_InvokeTACommand+0xa2>
/home/dangcaominh/STM32MP1/optee-os/optee-os/lib/libutee/tee_api.c:514
    1a30:	6033      	str	r3, [r6, #0]
/home/dangcaominh/STM32MP1/optee-os/optee-os/lib/libutee/tee_api.c:516
    1a32:	2b04      	cmp	r3, #4
    1a34:	d009      	beq.n	1a4a <__GP11_TEE_InvokeTACommand+0xba>
/home/dangcaominh/STM32MP1/optee-os/optee-os/lib/libutee/tee_api.c:519
    1a36:	b144      	cbz	r4, 1a4a <__GP11_TEE_InvokeTACommand+0xba>
/home/dangcaominh/STM32MP1/optee-os/optee-os/lib/libutee/tee_api.c:519 (discriminator 1)
    1a38:	4b0c      	ldr	r3, [pc, #48]	@ (1a6c <__GP11_TEE_InvokeTACommand+0xdc>)
    1a3a:	429c      	cmp	r4, r3
    1a3c:	d005      	beq.n	1a4a <__GP11_TEE_InvokeTACommand+0xba>
/home/dangcaominh/STM32MP1/optee-os/optee-os/lib/libutee/tee_api.c:520
    1a3e:	4b0c      	ldr	r3, [pc, #48]	@ (1a70 <__GP11_TEE_InvokeTACommand+0xe0>)
    1a40:	429c      	cmp	r4, r3
    1a42:	d002      	beq.n	1a4a <__GP11_TEE_InvokeTACommand+0xba>
/home/dangcaominh/STM32MP1/optee-os/optee-os/lib/libutee/tee_api.c:522
    1a44:	4620      	mov	r0, r4
    1a46:	f001 fa4d 	bl	2ee4 <TEE_Panic>
/home/dangcaominh/STM32MP1/optee-os/optee-os/lib/libutee/tee_api.c:481
    1a4a:	4a0c      	ldr	r2, [pc, #48]	@ (1a7c <__GP11_TEE_InvokeTACommand+0xec>)
/home/dangcaominh/STM32MP1/optee-os/optee-os/lib/libutee/tee_api.c:525
    1a4c:	4b0a      	ldr	r3, [pc, #40]	@ (1a78 <__GP11_TEE_InvokeTACommand+0xe8>)
/home/dangcaominh/STM32MP1/optee-os/optee-os/lib/libutee/tee_api.c:481
    1a4e:	447a      	add	r2, pc
/home/dangcaominh/STM32MP1/optee-os/optee-os/lib/libutee/tee_api.c:525
    1a50:	58d3      	ldr	r3, [r2, r3]
    1a52:	681a      	ldr	r2, [r3, #0]
    1a54:	9b1d      	ldr	r3, [sp, #116]	@ 0x74
    1a56:	405a      	eors	r2, r3
    1a58:	f04f 0300 	mov.w	r3, #0
    1a5c:	d001      	beq.n	1a62 <__GP11_TEE_InvokeTACommand+0xd2>
    1a5e:	f7fe fd33 	bl	4c8 <__stack_chk_fail>
    1a62:	4620      	mov	r0, r4
    1a64:	b01f      	add	sp, #124	@ 0x7c
    1a66:	e8bd 8ff0 	ldmia.w	sp!, {r4, r5, r6, r7, r8, r9, sl, fp, pc}
    1a6a:	bf00      	nop
    1a6c:	ffff000c 	.word	0xffff000c
    1a70:	ffff3024 	.word	0xffff3024
    1a74:	0000a6e6 	.word	0x0000a6e6
    1a78:	0000000c 	.word	0x0000000c
    1a7c:	0000a636 	.word	0x0000a636

00001a80 <__GP11_TEE_CheckMemoryAccessRights>:
__GP11_TEE_CheckMemoryAccessRights():
/home/dangcaominh/STM32MP1/optee-os/optee-os/lib/libutee/tee_api.c:597
    1a80:	f7ff bd86 	b.w	1590 <TEE_CheckMemoryAccessRights>

00001a84 <TEE_SetInstanceData>:
TEE_SetInstanceData():
/home/dangcaominh/STM32MP1/optee-os/optee-os/lib/libutee/tee_api.c:602
    1a84:	4b01      	ldr	r3, [pc, #4]	@ (1a8c <TEE_SetInstanceData+0x8>)
    1a86:	447b      	add	r3, pc
    1a88:	6018      	str	r0, [r3, #0]
/home/dangcaominh/STM32MP1/optee-os/optee-os/lib/libutee/tee_api.c:603
    1a8a:	4770      	bx	lr
    1a8c:	0000a92e 	.word	0x0000a92e

00001a90 <TEE_GetInstanceData>:
TEE_GetInstanceData():
/home/dangcaominh/STM32MP1/optee-os/optee-os/lib/libutee/tee_api.c:608
    1a90:	4b01      	ldr	r3, [pc, #4]	@ (1a98 <TEE_GetInstanceData+0x8>)
    1a92:	447b      	add	r3, pc
    1a94:	6818      	ldr	r0, [r3, #0]
    1a96:	4770      	bx	lr
    1a98:	0000a922 	.word	0x0000a922

00001a9c <TEE_MemMove>:
TEE_MemMove():
/home/dangcaominh/STM32MP1/optee-os/optee-os/lib/libutee/tee_api.c:612
    1a9c:	f008 ba6a 	b.w	9f74 <memmove>

00001aa0 <__GP11_TEE_MemMove>:
__GP11_TEE_MemMove():
/home/dangcaominh/STM32MP1/optee-os/optee-os/lib/libutee/tee_api.c:617
    1aa0:	f7ff bffc 	b.w	1a9c <TEE_MemMove>

00001aa4 <TEE_MemCompare>:
TEE_MemCompare():
/home/dangcaominh/STM32MP1/optee-os/optee-os/lib/libutee/tee_api.c:622
    1aa4:	f008 baa0 	b.w	9fe8 <consttime_memcmp>

00001aa8 <__GP11_TEE_MemCompare>:
__GP11_TEE_MemCompare():
/home/dangcaominh/STM32MP1/optee-os/optee-os/lib/libutee/tee_api.c:628
    1aa8:	f7ff bffc 	b.w	1aa4 <TEE_MemCompare>

00001aac <TEE_MemFill>:
TEE_MemFill():
/home/dangcaominh/STM32MP1/optee-os/optee-os/lib/libutee/tee_api.c:633
    1aac:	f008 ba44 	b.w	9f38 <memset>

00001ab0 <__GP11_TEE_MemFill>:
__GP11_TEE_MemFill():
/home/dangcaominh/STM32MP1/optee-os/optee-os/lib/libutee/tee_api.c:638
    1ab0:	f7ff bffc 	b.w	1aac <TEE_MemFill>

00001ab4 <TEE_GetSystemTime>:
TEE_GetSystemTime():
/home/dangcaominh/STM32MP1/optee-os/optee-os/lib/libutee/tee_api.c:644
    1ab4:	4601      	mov	r1, r0
/home/dangcaominh/STM32MP1/optee-os/optee-os/lib/libutee/tee_api.c:645
    1ab6:	2000      	movs	r0, #0
/home/dangcaominh/STM32MP1/optee-os/optee-os/lib/libutee/tee_api.c:644
    1ab8:	b508      	push	{r3, lr}
/home/dangcaominh/STM32MP1/optee-os/optee-os/lib/libutee/tee_api.c:645
    1aba:	f001 eeb0 	blx	381c <_utee_get_time>
/home/dangcaominh/STM32MP1/optee-os/optee-os/lib/libutee/tee_api.c:647
    1abe:	b118      	cbz	r0, 1ac8 <TEE_GetSystemTime+0x14>
/home/dangcaominh/STM32MP1/optee-os/optee-os/lib/libutee/tee_api.c:649
    1ac0:	e8bd 4008 	ldmia.w	sp!, {r3, lr}
/home/dangcaominh/STM32MP1/optee-os/optee-os/lib/libutee/tee_api.c:648
    1ac4:	f001 ba0e 	b.w	2ee4 <TEE_Panic>
/home/dangcaominh/STM32MP1/optee-os/optee-os/lib/libutee/tee_api.c:649
    1ac8:	bd08      	pop	{r3, pc}

00001aca <TEE_Wait>:
TEE_Wait():
/home/dangcaominh/STM32MP1/optee-os/optee-os/lib/libutee/tee_api.c:652
    1aca:	b510      	push	{r4, lr}
/home/dangcaominh/STM32MP1/optee-os/optee-os/lib/libutee/tee_api.c:653
    1acc:	f001 ee9c 	blx	3808 <_utee_wait>
/home/dangcaominh/STM32MP1/optee-os/optee-os/lib/libutee/tee_api.c:655
    1ad0:	4604      	mov	r4, r0
    1ad2:	b120      	cbz	r0, 1ade <TEE_Wait+0x14>
/home/dangcaominh/STM32MP1/optee-os/optee-os/lib/libutee/tee_api.c:655 (discriminator 1)
    1ad4:	4b03      	ldr	r3, [pc, #12]	@ (1ae4 <TEE_Wait+0x1a>)
    1ad6:	4298      	cmp	r0, r3
    1ad8:	d001      	beq.n	1ade <TEE_Wait+0x14>
/home/dangcaominh/STM32MP1/optee-os/optee-os/lib/libutee/tee_api.c:656
    1ada:	f001 fa03 	bl	2ee4 <TEE_Panic>
/home/dangcaominh/STM32MP1/optee-os/optee-os/lib/libutee/tee_api.c:659
    1ade:	4620      	mov	r0, r4
    1ae0:	bd10      	pop	{r4, pc}
    1ae2:	bf00      	nop
    1ae4:	ffff0002 	.word	0xffff0002

00001ae8 <TEE_GetTAPersistentTime>:
TEE_GetTAPersistentTime():
/home/dangcaominh/STM32MP1/optee-os/optee-os/lib/libutee/tee_api.c:662
    1ae8:	b538      	push	{r3, r4, r5, lr}
/home/dangcaominh/STM32MP1/optee-os/optee-os/lib/libutee/tee_api.c:665
    1aea:	4601      	mov	r1, r0
/home/dangcaominh/STM32MP1/optee-os/optee-os/lib/libutee/tee_api.c:662
    1aec:	4605      	mov	r5, r0
/home/dangcaominh/STM32MP1/optee-os/optee-os/lib/libutee/tee_api.c:665
    1aee:	2001      	movs	r0, #1
    1af0:	f001 ee94 	blx	381c <_utee_get_time>
    1af4:	4604      	mov	r4, r0
/home/dangcaominh/STM32MP1/optee-os/optee-os/lib/libutee/tee_api.c:667
    1af6:	b170      	cbz	r0, 1b16 <TEE_GetTAPersistentTime+0x2e>
/home/dangcaominh/STM32MP1/optee-os/optee-os/lib/libutee/tee_api.c:667 (discriminator 1)
    1af8:	4b08      	ldr	r3, [pc, #32]	@ (1b1c <TEE_GetTAPersistentTime+0x34>)
    1afa:	4298      	cmp	r0, r3
    1afc:	d00b      	beq.n	1b16 <TEE_GetTAPersistentTime+0x2e>
/home/dangcaominh/STM32MP1/optee-os/optee-os/lib/libutee/tee_api.c:668
    1afe:	2300      	movs	r3, #0
    1b00:	602b      	str	r3, [r5, #0]
/home/dangcaominh/STM32MP1/optee-os/optee-os/lib/libutee/tee_api.c:669
    1b02:	606b      	str	r3, [r5, #4]
/home/dangcaominh/STM32MP1/optee-os/optee-os/lib/libutee/tee_api.c:672 (discriminator 1)
    1b04:	f500 4330 	add.w	r3, r0, #45056	@ 0xb000
    1b08:	2b01      	cmp	r3, #1
    1b0a:	d904      	bls.n	1b16 <TEE_GetTAPersistentTime+0x2e>
/home/dangcaominh/STM32MP1/optee-os/optee-os/lib/libutee/tee_api.c:675
    1b0c:	4b04      	ldr	r3, [pc, #16]	@ (1b20 <TEE_GetTAPersistentTime+0x38>)
    1b0e:	4298      	cmp	r0, r3
    1b10:	d001      	beq.n	1b16 <TEE_GetTAPersistentTime+0x2e>
/home/dangcaominh/STM32MP1/optee-os/optee-os/lib/libutee/tee_api.c:677
    1b12:	f001 f9e7 	bl	2ee4 <TEE_Panic>
/home/dangcaominh/STM32MP1/optee-os/optee-os/lib/libutee/tee_api.c:680
    1b16:	4620      	mov	r0, r4
    1b18:	bd38      	pop	{r3, r4, r5, pc}
    1b1a:	bf00      	nop
    1b1c:	ffff300f 	.word	0xffff300f
    1b20:	ffff000c 	.word	0xffff000c

00001b24 <TEE_SetTAPersistentTime>:
TEE_SetTAPersistentTime():
/home/dangcaominh/STM32MP1/optee-os/optee-os/lib/libutee/tee_api.c:683
    1b24:	b510      	push	{r4, lr}
/home/dangcaominh/STM32MP1/optee-os/optee-os/lib/libutee/tee_api.c:686
    1b26:	f001 ee84 	blx	3830 <_utee_set_ta_time>
/home/dangcaominh/STM32MP1/optee-os/optee-os/lib/libutee/tee_api.c:688
    1b2a:	4604      	mov	r4, r0
    1b2c:	b138      	cbz	r0, 1b3e <TEE_SetTAPersistentTime+0x1a>
/home/dangcaominh/STM32MP1/optee-os/optee-os/lib/libutee/tee_api.c:688 (discriminator 1)
    1b2e:	4b05      	ldr	r3, [pc, #20]	@ (1b44 <TEE_SetTAPersistentTime+0x20>)
    1b30:	4298      	cmp	r0, r3
    1b32:	d004      	beq.n	1b3e <TEE_SetTAPersistentTime+0x1a>
/home/dangcaominh/STM32MP1/optee-os/optee-os/lib/libutee/tee_api.c:689
    1b34:	4b04      	ldr	r3, [pc, #16]	@ (1b48 <TEE_SetTAPersistentTime+0x24>)
    1b36:	4298      	cmp	r0, r3
    1b38:	d001      	beq.n	1b3e <TEE_SetTAPersistentTime+0x1a>
/home/dangcaominh/STM32MP1/optee-os/optee-os/lib/libutee/tee_api.c:691
    1b3a:	f001 f9d3 	bl	2ee4 <TEE_Panic>
/home/dangcaominh/STM32MP1/optee-os/optee-os/lib/libutee/tee_api.c:694
    1b3e:	4620      	mov	r0, r4
    1b40:	bd10      	pop	{r4, pc}
    1b42:	bf00      	nop
    1b44:	ffff000c 	.word	0xffff000c
    1b48:	ffff3041 	.word	0xffff3041

00001b4c <TEE_GetREETime>:
TEE_GetREETime():
/home/dangcaominh/STM32MP1/optee-os/optee-os/lib/libutee/tee_api.c:697
    1b4c:	4601      	mov	r1, r0
/home/dangcaominh/STM32MP1/optee-os/optee-os/lib/libutee/tee_api.c:698
    1b4e:	2002      	movs	r0, #2
/home/dangcaominh/STM32MP1/optee-os/optee-os/lib/libutee/tee_api.c:697
    1b50:	b508      	push	{r3, lr}
/home/dangcaominh/STM32MP1/optee-os/optee-os/lib/libutee/tee_api.c:698
    1b52:	f001 ee64 	blx	381c <_utee_get_time>
/home/dangcaominh/STM32MP1/optee-os/optee-os/lib/libutee/tee_api.c:700
    1b56:	b118      	cbz	r0, 1b60 <TEE_GetREETime+0x14>
/home/dangcaominh/STM32MP1/optee-os/optee-os/lib/libutee/tee_api.c:702
    1b58:	e8bd 4008 	ldmia.w	sp!, {r3, lr}
/home/dangcaominh/STM32MP1/optee-os/optee-os/lib/libutee/tee_api.c:701
    1b5c:	f001 b9c2 	b.w	2ee4 <TEE_Panic>
/home/dangcaominh/STM32MP1/optee-os/optee-os/lib/libutee/tee_api.c:702
    1b60:	bd08      	pop	{r3, pc}

00001b62 <TEE_Malloc>:
TEE_Malloc():
/home/dangcaominh/STM32MP1/optee-os/optee-os/lib/libutee/tee_api.c:705
    1b62:	4b28      	ldr	r3, [pc, #160]	@ (1c04 <TEE_Malloc+0xa2>)
/home/dangcaominh/STM32MP1/optee-os/optee-os/lib/libutee/tee_api.c:706
    1b64:	2903      	cmp	r1, #3
/home/dangcaominh/STM32MP1/optee-os/optee-os/lib/libutee/tee_api.c:705
    1b66:	b513      	push	{r0, r1, r4, lr}
    1b68:	4602      	mov	r2, r0
    1b6a:	447b      	add	r3, pc
    1b6c:	460c      	mov	r4, r1
/home/dangcaominh/STM32MP1/optee-os/optee-os/lib/libutee/tee_api.c:706
    1b6e:	d806      	bhi.n	1b7e <TEE_Malloc+0x1c>
    1b70:	3901      	subs	r1, #1
    1b72:	2902      	cmp	r1, #2
    1b74:	d814      	bhi.n	1ba0 <TEE_Malloc+0x3e>
    1b76:	e8df f001 	tbb	[pc, r1]
    1b7a:	1f1b      	.short	0x1f1b
    1b7c:	2e          	.byte	0x2e
    1b7d:	00          	.byte	0x00
    1b7e:	f1b1 4f00 	cmp.w	r1, #2147483648	@ 0x80000000
    1b82:	d035      	beq.n	1bf0 <TEE_Malloc+0x8e>
/home/dangcaominh/STM32MP1/optee-os/optee-os/lib/libutee/tee_api.c:739
    1b84:	4b20      	ldr	r3, [pc, #128]	@ (1c08 <TEE_Malloc+0xa6>)
    1b86:	f240 21e3 	movw	r1, #739	@ 0x2e3
    1b8a:	4820      	ldr	r0, [pc, #128]	@ (1c0c <TEE_Malloc+0xaa>)
    1b8c:	447b      	add	r3, pc
    1b8e:	9300      	str	r3, [sp, #0]
    1b90:	2301      	movs	r3, #1
    1b92:	4478      	add	r0, pc
    1b94:	461a      	mov	r2, r3
    1b96:	9401      	str	r4, [sp, #4]
    1b98:	f7fe fd7a 	bl	690 <trace_printf>
/home/dangcaominh/STM32MP1/optee-os/optee-os/lib/libutee/tee_api.c:720
    1b9c:	2000      	movs	r0, #0
    1b9e:	e018      	b.n	1bd2 <TEE_Malloc+0x70>
/home/dangcaominh/STM32MP1/optee-os/optee-os/lib/libutee/tee_api.c:708
    1ba0:	b372      	cbz	r2, 1c00 <TEE_Malloc+0x9e>
/home/dangcaominh/STM32MP1/optee-os/optee-os/lib/libutee/tee_api.c:710
    1ba2:	4611      	mov	r1, r2
    1ba4:	2001      	movs	r0, #1
/home/dangcaominh/STM32MP1/optee-os/optee-os/lib/libutee/tee_api.c:742
    1ba6:	b002      	add	sp, #8
    1ba8:	e8bd 4010 	ldmia.w	sp!, {r4, lr}
/home/dangcaominh/STM32MP1/optee-os/optee-os/lib/libutee/tee_api.c:710
    1bac:	f007 bf6c 	b.w	9a88 <calloc>
/home/dangcaominh/STM32MP1/optee-os/optee-os/lib/libutee/tee_api.c:713
    1bb0:	2000      	movs	r0, #0
    1bb2:	f001 f997 	bl	2ee4 <TEE_Panic>
/home/dangcaominh/STM32MP1/optee-os/optee-os/lib/libutee/tee_api.c:714
    1bb6:	e7e5      	b.n	1b84 <TEE_Malloc+0x22>
/home/dangcaominh/STM32MP1/optee-os/optee-os/lib/libutee/tee_api.c:717
    1bb8:	b302      	cbz	r2, 1bfc <TEE_Malloc+0x9a>
/home/dangcaominh/STM32MP1/optee-os/optee-os/lib/libutee/tee_api.c:719
    1bba:	4915      	ldr	r1, [pc, #84]	@ (1c10 <TEE_Malloc+0xae>)
    1bbc:	585b      	ldr	r3, [r3, r1]
    1bbe:	681b      	ldr	r3, [r3, #0]
    1bc0:	2b00      	cmp	r3, #0
    1bc2:	d0eb      	beq.n	1b9c <TEE_Malloc+0x3a>
/home/dangcaominh/STM32MP1/optee-os/optee-os/lib/libutee/tee_api.c:721
    1bc4:	9300      	str	r3, [sp, #0]
    1bc6:	2100      	movs	r1, #0
    1bc8:	4613      	mov	r3, r2
    1bca:	4608      	mov	r0, r1
    1bcc:	2201      	movs	r2, #1
    1bce:	f007 fed7 	bl	9980 <raw_calloc>
/home/dangcaominh/STM32MP1/optee-os/optee-os/lib/libutee/tee_api.c:742
    1bd2:	b002      	add	sp, #8
    1bd4:	bd10      	pop	{r4, pc}
/home/dangcaominh/STM32MP1/optee-os/optee-os/lib/libutee/tee_api.c:724
    1bd6:	b18a      	cbz	r2, 1bfc <TEE_Malloc+0x9a>
/home/dangcaominh/STM32MP1/optee-os/optee-os/lib/libutee/tee_api.c:726
    1bd8:	490d      	ldr	r1, [pc, #52]	@ (1c10 <TEE_Malloc+0xae>)
    1bda:	585b      	ldr	r3, [r3, r1]
    1bdc:	681b      	ldr	r3, [r3, #0]
    1bde:	2b00      	cmp	r3, #0
    1be0:	d0dc      	beq.n	1b9c <TEE_Malloc+0x3a>
/home/dangcaominh/STM32MP1/optee-os/optee-os/lib/libutee/tee_api.c:728
    1be2:	2100      	movs	r1, #0
    1be4:	4608      	mov	r0, r1
/home/dangcaominh/STM32MP1/optee-os/optee-os/lib/libutee/tee_api.c:742
    1be6:	b002      	add	sp, #8
    1be8:	e8bd 4010 	ldmia.w	sp!, {r4, lr}
/home/dangcaominh/STM32MP1/optee-os/optee-os/lib/libutee/tee_api.c:728
    1bec:	f007 bebb 	b.w	9966 <raw_malloc>
/home/dangcaominh/STM32MP1/optee-os/optee-os/lib/libutee/tee_api.c:731
    1bf0:	b130      	cbz	r0, 1c00 <TEE_Malloc+0x9e>
/home/dangcaominh/STM32MP1/optee-os/optee-os/lib/libutee/tee_api.c:742
    1bf2:	b002      	add	sp, #8
    1bf4:	e8bd 4010 	ldmia.w	sp!, {r4, lr}
/home/dangcaominh/STM32MP1/optee-os/optee-os/lib/libutee/tee_api.c:733
    1bf8:	f007 bf3d 	b.w	9a76 <malloc>
/home/dangcaominh/STM32MP1/optee-os/optee-os/lib/libutee/tee_api.c:718
    1bfc:	2002      	movs	r0, #2
    1bfe:	e7e8      	b.n	1bd2 <TEE_Malloc+0x70>
/home/dangcaominh/STM32MP1/optee-os/optee-os/lib/libutee/tee_api.c:709
    1c00:	2001      	movs	r0, #1
    1c02:	e7e6      	b.n	1bd2 <TEE_Malloc+0x70>
    1c04:	0000a51a 	.word	0x0000a51a
    1c08:	00008811 	.word	0x00008811
    1c0c:	000084ee 	.word	0x000084ee
    1c10:	00000044 	.word	0x00000044

00001c14 <__GP11_TEE_Malloc>:
__GP11_TEE_Malloc():
/home/dangcaominh/STM32MP1/optee-os/optee-os/lib/libutee/tee_api.c:746
    1c14:	f7ff bfa5 	b.w	1b62 <TEE_Malloc>

00001c18 <TEE_Free>:
TEE_Free():
/home/dangcaominh/STM32MP1/optee-os/optee-os/lib/libutee/tee_api.c:790
    1c18:	b538      	push	{r3, r4, r5, lr}
/home/dangcaominh/STM32MP1/optee-os/optee-os/lib/libutee/tee_api.c:791
    1c1a:	1e43      	subs	r3, r0, #1
/home/dangcaominh/STM32MP1/optee-os/optee-os/lib/libutee/tee_api.c:790
    1c1c:	4d0b      	ldr	r5, [pc, #44]	@ (1c4c <TEE_Free+0x34>)
/home/dangcaominh/STM32MP1/optee-os/optee-os/lib/libutee/tee_api.c:791
    1c1e:	2b01      	cmp	r3, #1
/home/dangcaominh/STM32MP1/optee-os/optee-os/lib/libutee/tee_api.c:790
    1c20:	4604      	mov	r4, r0
    1c22:	447d      	add	r5, pc
/home/dangcaominh/STM32MP1/optee-os/optee-os/lib/libutee/tee_api.c:791
    1c24:	d911      	bls.n	1c4a <TEE_Free+0x32>
addr_is_in_no_share_heap():
/home/dangcaominh/STM32MP1/optee-os/optee-os/lib/libutee/tee_api.c:751
    1c26:	2101      	movs	r1, #1
    1c28:	f7ff fb8a 	bl	1340 <buf_overlaps_no_share_heap>
TEE_Free():
/home/dangcaominh/STM32MP1/optee-os/optee-os/lib/libutee/tee_api.c:793 (discriminator 1)
    1c2c:	b140      	cbz	r0, 1c40 <TEE_Free+0x28>
/home/dangcaominh/STM32MP1/optee-os/optee-os/lib/libutee/tee_api.c:794
    1c2e:	4b08      	ldr	r3, [pc, #32]	@ (1c50 <TEE_Free+0x38>)
    1c30:	4620      	mov	r0, r4
    1c32:	2200      	movs	r2, #0
    1c34:	58eb      	ldr	r3, [r5, r3]
    1c36:	6819      	ldr	r1, [r3, #0]
/home/dangcaominh/STM32MP1/optee-os/optee-os/lib/libutee/tee_api.c:798
    1c38:	e8bd 4038 	ldmia.w	sp!, {r3, r4, r5, lr}
/home/dangcaominh/STM32MP1/optee-os/optee-os/lib/libutee/tee_api.c:794
    1c3c:	f007 be9c 	b.w	9978 <raw_free>
/home/dangcaominh/STM32MP1/optee-os/optee-os/lib/libutee/tee_api.c:796
    1c40:	4620      	mov	r0, r4
/home/dangcaominh/STM32MP1/optee-os/optee-os/lib/libutee/tee_api.c:798
    1c42:	e8bd 4038 	ldmia.w	sp!, {r3, r4, r5, lr}
/home/dangcaominh/STM32MP1/optee-os/optee-os/lib/libutee/tee_api.c:796
    1c46:	f007 bf56 	b.w	9af6 <free>
/home/dangcaominh/STM32MP1/optee-os/optee-os/lib/libutee/tee_api.c:798
    1c4a:	bd38      	pop	{r3, r4, r5, pc}
    1c4c:	0000a462 	.word	0x0000a462
    1c50:	00000044 	.word	0x00000044

00001c54 <TEE_Realloc>:
TEE_Realloc():
/home/dangcaominh/STM32MP1/optee-os/optee-os/lib/libutee/tee_api.c:755
    1c54:	b573      	push	{r0, r1, r4, r5, r6, lr}
    1c56:	4605      	mov	r5, r0
    1c58:	4c1e      	ldr	r4, [pc, #120]	@ (1cd4 <TEE_Realloc+0x80>)
/home/dangcaominh/STM32MP1/optee-os/optee-os/lib/libutee/tee_api.c:756
    1c5a:	460e      	mov	r6, r1
/home/dangcaominh/STM32MP1/optee-os/optee-os/lib/libutee/tee_api.c:755
    1c5c:	447c      	add	r4, pc
/home/dangcaominh/STM32MP1/optee-os/optee-os/lib/libutee/tee_api.c:756
    1c5e:	b961      	cbnz	r1, 1c7a <TEE_Realloc+0x26>
addr_is_in_no_share_heap():
/home/dangcaominh/STM32MP1/optee-os/optee-os/lib/libutee/tee_api.c:751
    1c60:	2101      	movs	r1, #1
    1c62:	f7ff fb6d 	bl	1340 <buf_overlaps_no_share_heap>
TEE_Realloc():
/home/dangcaominh/STM32MP1/optee-os/optee-os/lib/libutee/tee_api.c:760
    1c66:	2800      	cmp	r0, #0
/home/dangcaominh/STM32MP1/optee-os/optee-os/lib/libutee/tee_api.c:764
    1c68:	4628      	mov	r0, r5
/home/dangcaominh/STM32MP1/optee-os/optee-os/lib/libutee/tee_api.c:760
    1c6a:	bf0c      	ite	eq
    1c6c:	2401      	moveq	r4, #1
    1c6e:	2402      	movne	r4, #2
/home/dangcaominh/STM32MP1/optee-os/optee-os/lib/libutee/tee_api.c:764
    1c70:	f7ff ffd2 	bl	1c18 <TEE_Free>
/home/dangcaominh/STM32MP1/optee-os/optee-os/lib/libutee/tee_api.c:782
    1c74:	4620      	mov	r0, r4
    1c76:	b002      	add	sp, #8
    1c78:	bd70      	pop	{r4, r5, r6, pc}
/home/dangcaominh/STM32MP1/optee-os/optee-os/lib/libutee/tee_api.c:769
    1c7a:	2801      	cmp	r0, #1
    1c7c:	d104      	bne.n	1c88 <TEE_Realloc+0x34>
/home/dangcaominh/STM32MP1/optee-os/optee-os/lib/libutee/tee_api.c:782
    1c7e:	b002      	add	sp, #8
    1c80:	e8bd 4070 	ldmia.w	sp!, {r4, r5, r6, lr}
/home/dangcaominh/STM32MP1/optee-os/optee-os/lib/libutee/tee_api.c:770
    1c84:	f007 bf00 	b.w	9a88 <calloc>
/home/dangcaominh/STM32MP1/optee-os/optee-os/lib/libutee/tee_api.c:771
    1c88:	2802      	cmp	r0, #2
    1c8a:	d10d      	bne.n	1ca8 <TEE_Realloc+0x54>
/home/dangcaominh/STM32MP1/optee-os/optee-os/lib/libutee/tee_api.c:772
    1c8c:	4b12      	ldr	r3, [pc, #72]	@ (1cd8 <TEE_Realloc+0x84>)
    1c8e:	58e3      	ldr	r3, [r4, r3]
    1c90:	681c      	ldr	r4, [r3, #0]
    1c92:	2c00      	cmp	r4, #0
    1c94:	d0ee      	beq.n	1c74 <TEE_Realloc+0x20>
/home/dangcaominh/STM32MP1/optee-os/optee-os/lib/libutee/tee_api.c:774
    1c96:	9400      	str	r4, [sp, #0]
    1c98:	460b      	mov	r3, r1
    1c9a:	2100      	movs	r1, #0
    1c9c:	2201      	movs	r2, #1
    1c9e:	4608      	mov	r0, r1
    1ca0:	f007 fe6e 	bl	9980 <raw_calloc>
/home/dangcaominh/STM32MP1/optee-os/optee-os/lib/libutee/tee_api.c:778
    1ca4:	4604      	mov	r4, r0
    1ca6:	e7e5      	b.n	1c74 <TEE_Realloc+0x20>
addr_is_in_no_share_heap():
/home/dangcaominh/STM32MP1/optee-os/optee-os/lib/libutee/tee_api.c:751
    1ca8:	2101      	movs	r1, #1
    1caa:	f7ff fb49 	bl	1340 <buf_overlaps_no_share_heap>
TEE_Realloc():
/home/dangcaominh/STM32MP1/optee-os/optee-os/lib/libutee/tee_api.c:777 (discriminator 1)
    1cae:	b150      	cbz	r0, 1cc6 <TEE_Realloc+0x72>
/home/dangcaominh/STM32MP1/optee-os/optee-os/lib/libutee/tee_api.c:778
    1cb0:	4b09      	ldr	r3, [pc, #36]	@ (1cd8 <TEE_Realloc+0x84>)
    1cb2:	2200      	movs	r2, #0
    1cb4:	4611      	mov	r1, r2
    1cb6:	4628      	mov	r0, r5
    1cb8:	58e3      	ldr	r3, [r4, r3]
    1cba:	681b      	ldr	r3, [r3, #0]
    1cbc:	9300      	str	r3, [sp, #0]
    1cbe:	4633      	mov	r3, r6
    1cc0:	f007 fe86 	bl	99d0 <raw_realloc>
    1cc4:	e7ee      	b.n	1ca4 <TEE_Realloc+0x50>
/home/dangcaominh/STM32MP1/optee-os/optee-os/lib/libutee/tee_api.c:781
    1cc6:	4631      	mov	r1, r6
    1cc8:	4628      	mov	r0, r5
/home/dangcaominh/STM32MP1/optee-os/optee-os/lib/libutee/tee_api.c:782
    1cca:	b002      	add	sp, #8
    1ccc:	e8bd 4070 	ldmia.w	sp!, {r4, r5, r6, lr}
/home/dangcaominh/STM32MP1/optee-os/optee-os/lib/libutee/tee_api.c:781
    1cd0:	f007 beea 	b.w	9aa8 <realloc>
    1cd4:	0000a428 	.word	0x0000a428
    1cd8:	00000044 	.word	0x00000044

00001cdc <__GP11_TEE_Realloc>:
__GP11_TEE_Realloc():
/home/dangcaominh/STM32MP1/optee-os/optee-os/lib/libutee/tee_api.c:786
    1cdc:	f7ff bfba 	b.w	1c54 <TEE_Realloc>

00001ce0 <TEE_CacheClean>:
TEE_CacheClean():
/home/dangcaominh/STM32MP1/optee-os/optee-os/lib/libutee/tee_api.c:803
    1ce0:	2200      	movs	r2, #0
    1ce2:	f008 b9b5 	b.w	a050 <___utee_cache_operation_from_thumb>

00001ce6 <TEE_CacheFlush>:
TEE_CacheFlush():
/home/dangcaominh/STM32MP1/optee-os/optee-os/lib/libutee/tee_api.c:807
    1ce6:	2201      	movs	r2, #1
    1ce8:	f008 b9b2 	b.w	a050 <___utee_cache_operation_from_thumb>

00001cec <TEE_CacheInvalidate>:
TEE_CacheInvalidate():
/home/dangcaominh/STM32MP1/optee-os/optee-os/lib/libutee/tee_api.c:812
    1cec:	2202      	movs	r2, #2
    1cee:	f008 b9af 	b.w	a050 <___utee_cache_operation_from_thumb>
    1cf2:	bf00      	nop

00001cf4 <__utee_from_attr>:
__utee_from_attr():
/home/dangcaominh/STM32MP1/optee-os/optee-os/lib/libutee/tee_api_objects.c:19
    1cf4:	2318      	movs	r3, #24
    1cf6:	fb03 0202 	mla	r2, r3, r2, r0
/home/dangcaominh/STM32MP1/optee-os/optee-os/lib/libutee/tee_api_objects.c:23
    1cfa:	2300      	movs	r3, #0
/home/dangcaominh/STM32MP1/optee-os/optee-os/lib/libutee/tee_api_objects.c:16
    1cfc:	b530      	push	{r4, r5, lr}
/home/dangcaominh/STM32MP1/optee-os/optee-os/lib/libutee/tee_api_objects.c:19 (discriminator 1)
    1cfe:	4290      	cmp	r0, r2
    1d00:	d100      	bne.n	1d04 <__utee_from_attr+0x10>
/home/dangcaominh/STM32MP1/optee-os/optee-os/lib/libutee/tee_api_objects.c:29
    1d02:	bd30      	pop	{r4, r5, pc}
/home/dangcaominh/STM32MP1/optee-os/optee-os/lib/libutee/tee_api_objects.c:20
    1d04:	680c      	ldr	r4, [r1, #0]
    1d06:	310c      	adds	r1, #12
    1d08:	6104      	str	r4, [r0, #16]
/home/dangcaominh/STM32MP1/optee-os/optee-os/lib/libutee/tee_api_objects.c:23
    1d0a:	f851 4c04 	ldr.w	r4, [r1, #-4]
/home/dangcaominh/STM32MP1/optee-os/optee-os/lib/libutee/tee_api_objects.c:22
    1d0e:	f851 5c08 	ldr.w	r5, [r1, #-8]
/home/dangcaominh/STM32MP1/optee-os/optee-os/lib/libutee/tee_api_objects.c:23
    1d12:	e9c0 4302 	strd	r4, r3, [r0, #8]
/home/dangcaominh/STM32MP1/optee-os/optee-os/lib/libutee/tee_api_objects.c:22
    1d16:	e9c0 5300 	strd	r5, r3, [r0]
    1d1a:	3018      	adds	r0, #24
    1d1c:	e7ef      	b.n	1cfe <__utee_from_attr+0xa>

00001d1e <__utee_from_gp11_attr>:
__utee_from_gp11_attr():
/home/dangcaominh/STM32MP1/optee-os/optee-os/lib/libutee/tee_api_objects.c:37
