
/home/dangcaominh/STM32MP1/optee-os/optee-os/../build/optee-programmer-stm32mp157d-dk1/ta/trusted_keys/f04a0fe7-1f5d-4b9b-abf7-619b85b4ce8c.elf:     file format elf32-littlearm
/home/dangcaominh/STM32MP1/optee-os/optee-os/../build/optee-programmer-stm32mp157d-dk1/ta/trusted_keys/f04a0fe7-1f5d-4b9b-abf7-619b85b4ce8c.elf
architecture: armv7, flags 0x00000150:
HAS_SYMS, DYNAMIC, D_PAGED
start address 0x00000530

Program Header:
    LOAD off    0x00001000 vaddr 0x00000000 paddr 0x00000000 align 2**12
         filesz 0x0000df20 memsz 0x0000df20 flags r-x
    LOAD off    0x0000f000 vaddr 0x0000e000 paddr 0x0000e000 align 2**12
         filesz 0x000003d0 memsz 0x00007c30 flags rw-
 DYNAMIC off    0x0000f000 vaddr 0x0000e000 paddr 0x0000e000 align 2**2
         filesz 0x00000088 memsz 0x00000088 flags rw-
   STACK off    0x00000000 vaddr 0x00000000 paddr 0x00000000 align 2**4
         filesz 0x00000000 memsz 0x00000000 flags rw-

Dynamic Section:
  HASH                 0x0000def0
  GNU_HASH             0x0000ddf4
  STRTAB               0x0000deb8
  SYMTAB               0x0000de48
  STRSZ                0x00000036
  SYMENT               0x00000010
  DEBUG                0x00000000
  REL                  0x0000e0f0
  RELSZ                0x000001c0
  RELENT               0x00000008
  FLAGS_1              0x08000000
  RELCOUNT             0x00000021
private flags = 0x5000400: [Version5 EABI] [hard-float ABI]

Sections:
Idx Name          Size      VMA       LMA       File off  Algn
  0 .text         0000cce0  00000000  00000000  00001000  2**3
                  CONTENTS, ALLOC, LOAD, READONLY, CODE
  1 .rodata       00001113  0000cce0  0000cce0  0000dce0  2**2
                  CONTENTS, ALLOC, LOAD, READONLY, DATA
  2 .gnu.hash     00000030  0000ddf4  0000ddf4  0000edf4  2**2
                  CONTENTS, ALLOC, LOAD, READONLY, DATA
  3 .ta_head      00000020  0000de28  0000de28  0000ee28  2**3
                  CONTENTS, ALLOC, LOAD, READONLY, DATA
  4 .dynsym       00000070  0000de48  0000de48  0000ee48  2**2
                  CONTENTS, ALLOC, LOAD, READONLY, DATA
  5 .dynstr       00000036  0000deb8  0000deb8  0000eeb8  2**0
                  CONTENTS, ALLOC, LOAD, READONLY, DATA
  6 .hash         00000030  0000def0  0000def0  0000eef0  2**2
                  CONTENTS, ALLOC, LOAD, READONLY, DATA
  7 .dynamic      00000088  0000e000  0000e000  0000f000  2**2
                  CONTENTS, ALLOC, LOAD, DATA
  8 .got          00000068  0000e088  0000e088  0000f088  2**2
                  CONTENTS, ALLOC, LOAD, DATA
  9 .rel.got      000000b8  0000e1f8  0000e1f8  0000f1f8  2**2
                  CONTENTS, ALLOC, LOAD, READONLY, DATA
 10 .data         00000120  0000e2b0  0000e2b0  0000f2b0  2**2
                  CONTENTS, ALLOC, LOAD, DATA
 11 .bss          00007860  0000e3d0  0000e3d0  0000f3d0  2**2
                  ALLOC
 12 .debug_info   00022432  00000000  00000000  0000f3d0  2**0
                  CONTENTS, READONLY, DEBUGGING, OCTETS
 13 .debug_abbrev 00005430  00000000  00000000  00031802  2**0
                  CONTENTS, READONLY, DEBUGGING, OCTETS
 14 .debug_loclists 00014e75  00000000  00000000  00036c32  2**0
                  CONTENTS, READONLY, DEBUGGING, OCTETS
 15 .debug_aranges 00000688  00000000  00000000  0004baa8  2**3
                  CONTENTS, READONLY, DEBUGGING, OCTETS
 16 .debug_rnglists 00000ba0  00000000  00000000  0004c130  2**0
                  CONTENTS, READONLY, DEBUGGING, OCTETS
 17 .debug_macro  00032d44  00000000  00000000  0004ccd0  2**0
                  CONTENTS, READONLY, DEBUGGING, OCTETS
 18 .debug_line   00015192  00000000  00000000  0007fa14  2**0
                  CONTENTS, READONLY, DEBUGGING, OCTETS
 19 .debug_str    0001e476  00000000  00000000  00094ba6  2**0
                  CONTENTS, READONLY, DEBUGGING, OCTETS
 20 .comment      00000012  00000000  00000000  000b301c  2**0
                  CONTENTS, READONLY
 21 .ARM.attributes 00000033  00000000  00000000  000b302e  2**0
                  CONTENTS, READONLY
 22 .debug_frame  000035bc  00000000  00000000  000b3064  2**2
                  CONTENTS, READONLY, DEBUGGING, OCTETS
 23 .rel.dyn      00000108  0000e0f0  0000e0f0  0000f0f0  2**2
                  CONTENTS, ALLOC, LOAD, READONLY, DATA
 24 .debug_line_str 0000012d  00000000  00000000  000b6620  2**0
                  CONTENTS, READONLY, DEBUGGING, OCTETS
SYMBOL TABLE:
00000000 l    d  .text	00000000 .text
0000cce0 l    d  .rodata	00000000 .rodata
0000ddf4 l    d  .gnu.hash	00000000 .gnu.hash
0000de28 l    d  .ta_head	00000000 .ta_head
0000de48 l    d  .dynsym	00000000 .dynsym
0000deb8 l    d  .dynstr	00000000 .dynstr
0000def0 l    d  .hash	00000000 .hash
0000e000 l    d  .dynamic	00000000 .dynamic
0000e088 l    d  .got	00000000 .got
0000e1f8 l    d  .rel.got	00000000 .rel.got
0000e2b0 l    d  .data	00000000 .data
0000e3d0 l    d  .bss	00000000 .bss
00000000 l    d  .debug_info	00000000 .debug_info
00000000 l    d  .debug_abbrev	00000000 .debug_abbrev
00000000 l    d  .debug_loclists	00000000 .debug_loclists
00000000 l    d  .debug_aranges	00000000 .debug_aranges
00000000 l    d  .debug_rnglists	00000000 .debug_rnglists
00000000 l    d  .debug_macro	00000000 .debug_macro
00000000 l    d  .debug_line	00000000 .debug_line
00000000 l    d  .debug_str	00000000 .debug_str
00000000 l    d  .comment	00000000 .comment
00000000 l    d  .ARM.attributes	00000000 .ARM.attributes
00000000 l    d  .debug_frame	00000000 .debug_frame
0000e0f0 l    d  .rel.dyn	00000000 .rel.dyn
00000000 l    d  .debug_line_str	00000000 .debug_line_str
00000000 l    df *ABS*	00000000 entry.c
00000000 l     F .text	00000280 huk_crypt
0000ccf0 l     O .rodata	0000000a __func__.1
0000ccfa l     O .rodata	00000011 __func__.2
0000cd0b l     O .rodata	00000013 __func__.0
0000cd1e l     O .rodata	0000001b __func__.3
00000000 l    df *ABS*	00000000 user_ta_header.c
0000cd40 l     O .rodata	00000001 __compound_literal.6
0000cd44 l     O .rodata	00000004 __compound_literal.5
0000cd48 l     O .rodata	00000004 __compound_literal.4
0000cd4c l     O .rodata	00000004 __compound_literal.3
0000cd50 l     O .rodata	00000001 __compound_literal.2
0000cd51 l     O .rodata	00000001 __compound_literal.1
0000cd52 l     O .rodata	00000001 __compound_literal.0
00011c28 l     O .bss	00000001 stack_canary_inited.0
00000000 l    df *ABS*	00000000 ta_entry_a32.o
00000000 l    df *ABS*	00000000 stack_check.c
00000000 l    df *ABS*	00000000 memcpy.c
00000000 l    df *ABS*	00000000 trace.c
0000db71 l     O .rodata	00000005 lvl_strs.0
00000000 l    df *ABS*	00000000 snprintk.c
000008e4 l     F .text	0000079c kprintf.constprop.0
0000db76 l     O .rodata	00000011 hexdigits
0000db87 l     O .rodata	00000011 HEXDIGITS
00000000 l    df *ABS*	00000000 arm32_aeabi_ldivmod_a32.o
00000000 l    df *ABS*	00000000 arm32_aeabi_ldivmod.c
000010c8 l     F .text	0000008a ul_div_qr
00000000 l    df *ABS*	00000000 assert.c
00000000 l    df *ABS*	00000000 trace_ext.c
00000000 l    df *ABS*	00000000 tee_api.c
000013a8 l     F .text	00000052 copy_param
000013fa l     F .text	00000052 copy_gp11_param
0000144c l     F .text	00000070 check_mem_access_rights_params
000014bc l     F .text	00000028 buf_overlaps_no_share_heap
000014e4 l     F .text	0000005c check_invoke_param
00001540 l     F .text	00000064 update_out_param
000015a4 l     F .text	00000064 update_out_gp11_param
00001754 l     F .text	00000110 map_tmp_param
0000cd60 l     O .rodata	0000000b __func__.0
0000e3d0 l     O .bss	00000004 tee_api_instance_data
00000000 l    df *ABS*	00000000 tee_api_objects.c
00000000 l    df *ABS*	00000000 tee_api_operations.c
00003040 l     F .text	00000094 __tee_alg_get_main_alg
000030d4 l     F .text	00000194 tee_buffer_update
00003268 l     F .text	000000c4 ae_update_helper
0000332c l     F .text	0000005c __tee_alg_get_class
00003388 l     F .text	0000002e reset_operation_state
000033b6 l     F .text	00000126 set_operation_key2
0000db98 l     O .rodata	00000012 __func__.0
00000000 l    df *ABS*	00000000 tee_api_panic.c
00005c48 l     F .text	00000020 check_access
00005c6c l     F .text	00000006 check_res.part.0
00005c72 l     F .text	0000002e __utee_check_outbuf_annotation.localalias
00005cd8 l     F .text	00000018 __utee_check_attr_in_annotation.localalias
00000000 l    df *ABS*	00000000 tee_api_property.c
00005d08 l     F .text	00000050 propset_get
00005d58 l     F .text	00000014 is_propset_pseudo_handle
00005d6c l     F .text	000000c0 propget_get_ext_prop
00005e2c l     F .text	00000158 propget_get_property
0000cd70 l     O .rodata	00000004 __compound_literal.3
0000cd74 l     O .rodata	00000004 __compound_literal.2
0000cd78 l     O .rodata	00000004 __compound_literal.1
0000cd7c l     O .rodata	00000004 __compound_literal.0
00000000 l    df *ABS*	00000000 tee_system_pta.c
0000676c l     F .text	00000050 invoke_system_pta
0000cd80 l     O .rodata	00000010 uuid.2
0000cd90 l     O .rodata	0000000a __func__.1
0000cd9a l     O .rodata	00000017 __func__.0
0000e3d8 l     O .bss	00000004 sess.3
00000000 l    df *ABS*	00000000 user_ta_entry.c
00006964 l     F .text	0000006a _get_fn_array
000069ce l     F .text	0000006a _fini_iterate_phdr_cb
00006a38 l     F .text	0000001c ta_header_get_session
00006a54 l     F .text	0000005a to_utee_params
00006aae l     F .text	0000003c from_utee_params
00006aea l     F .text	00000062 _init_iterate_phdr_cb
00006c48 l     F .text	0000006c ta_header_remove_session
0000dbaa l     O .rodata	00000016 __func__.0
0000e3dc l     O .bss	00000004 _num_mod_init
0000e3e0 l     O .bss	00000001 init_done
0000e360 l     O .data	00000008 ta_sessions
0000e368 l     O .data	00000008 __phdr_info_head
00000000 l    df *ABS*	00000000 utee_syscalls_a32.o
00000000 l    df *ABS*	00000000 abort.c
00000000 l    df *ABS*	00000000 base64.c
0000dbc0 l     O .rodata	00000041 base64_table
00000000 l    df *ABS*	00000000 tee_api_arith_mpi.c
0000753c l     F .text	00000020 api_panic
0000755c l     F .text	00000020 mpi_panic
0000757c l     F .text	00000050 get_mpi
000075cc l     F .text	00000040 copy_mpi_to_bigint
0000760c l     F .text	000000e0 bigint_binary
000076ec l     F .text	00000010 mpi_is_odd
000076fc l     F .text	00000016 rng_read
00007712 l     F .text	00000496 mpi_egcd
0000e418 l     O .bss	00003800 data.18
00007f70 l     F .text	00000148 bigint_binary_mod
0000dc01 l     O .rodata	00000008 __func__.15
0000dc09 l     O .rodata	0000000e __func__.11
0000dc17 l     O .rodata	00000009 __func__.2
0000dc20 l     O .rodata	00000012 __func__.17
0000dc32 l     O .rodata	0000000f __func__.16
0000dc41 l     O .rodata	0000001f __func__.14
0000dc60 l     O .rodata	00000019 __func__.13
0000dc79 l     O .rodata	00000012 __func__.7
0000dc8b l     O .rodata	00000015 __func__.12
0000dca0 l     O .rodata	0000000e __func__.10
0000dcae l     O .rodata	0000000e __func__.9
0000dcbc l     O .rodata	0000000e __func__.8
0000dcca l     O .rodata	00000011 __func__.6
0000dcdb l     O .rodata	00000018 __func__.5
0000dcf3 l     O .rodata	00000011 __func__.4
0000dd04 l     O .rodata	0000001d __func__.3
0000dd21 l     O .rodata	00000019 __func__.1
0000dd3a l     O .rodata	00000015 __func__.0
00000000 l    df *ABS*	00000000 tcb.c
0000dd4f l     O .rodata	00000010 __func__.1
0000dd5f l     O .rodata	00000010 __func__.0
00011c18 l     O .bss	00000004 _tls_size
00011c1c l     O .bss	00000004 _tcb
00000000 l    df *ABS*	00000000 bignum.c
0000903c l     F .text	00000020 mbedtls_ct_bool
0000905c l     F .text	00000028 mbedtls_ct_mpi_sign_if
00009084 l     F .text	00000036 mpi_get_digit
00009318 l     F .text	00000036 mbedtls_mpi_resize_clear
000098e0 l     F .text	0000005e add_sub_mpi
0000a12c l     F .text	00000220 mbedtls_mpi_exp_mod_optionally_safe
0000a550 l     F .text	0000008c mpi_check_small_factors
0000a7f0 l     F .text	000001c8 mpi_miller_rabin
0000cdb4 l     O .rodata	000000a7 small_prime_gaps
0000ce5c l     O .rodata	00000024 gcd_pairs
00000000 l    df *ABS*	00000000 bignum_core.c
0000b328 l     F .text	00000020 mbedtls_ct_bool
0000b348 l     F .text	0000003c mbedtls_ct_uint_lt
0000ba3e l     F .text	000001b6 mbedtls_mpi_core_exp_mod_optionally_safe
00000000 l    df *ABS*	00000000 constant_time.c
0000be20 l     F .text	00000020 mbedtls_ct_bool
0000be40 l     F .text	0000003c mbedtls_ct_uint_lt
00000000 l    df *ABS*	00000000 platform_util.c
0000e370 l     O .data	00000004 memset_func
00000000 l    df *ABS*	00000000 bget_malloc.c
0000c020 l     F .text	0000000a _assert_trap
0000c02a l     F .text	00000022 bget_buf_size.part.0
0000dd6f l     O .rodata	0000000e __func__.2
0000dd7d l     O .rodata	00000005 __func__.8
0000dd82 l     O .rodata	00000006 __func__.7
0000dd88 l     O .rodata	00000005 __func__.5
0000dd8d l     O .rodata	00000006 __func__.6
0000dd93 l     O .rodata	00000006 __func__.4
0000dd99 l     O .rodata	00000007 __func__.3
0000dda0 l     O .rodata	00000014 __func__.1
0000ddb4 l     O .rodata	00000013 __func__.0
0000e374 l     O .data	0000005c malloc_ctx
00000000 l    df *ABS*	00000000 snprintf.c
00000000 l    df *ABS*	00000000 mempool.c
0000ddc7 l     O .rodata	00000013 __func__.2
0000ddda l     O .rodata	0000000b __func__.1
0000dde5 l     O .rodata	0000000e __func__.0
00000000 l    df *ABS*	00000000 memset.c
00000000 l    df *ABS*	00000000 memzero_explicit.c
00000000 l    df *ABS*	00000000 memchr.c
00000000 l    df *ABS*	00000000 strlen.c
00000000 l    df *ABS*	00000000 memmove.c
00000000 l    df *ABS*	00000000 strcmp.c
00000000 l    df *ABS*	00000000 strlcpy.c
00000000 l    df *ABS*	00000000 consttime_memcmp.c
00000000 l    df *ABS*	00000000 
0000e000 l     O *ABS*	00000000 _DYNAMIC
0000e088 l     O *ABS*	00000000 _GLOBAL_OFFSET_TABLE_
0000ccb0 l     F .text	00000010 ___utee_cache_operation_from_thumb
0000ccc0 l     F .text	00000010 ___utee_panic_from_thumb
0000ccd0 l     F .text	00000010 ___utee_log_from_thumb
00001350 g     F .text	00000058 putchar
00007cb4 g     F .text	00000004 __GP11_TEE_BigIntConvertFromOctetString
0000250c g     F .text	000000b8 TEE_PopulateTransientObject
0000b752 g     F .text	0000003a mbedtls_mpi_core_add_if
00004a18 g     F .text	00000004 __GP11_TEE_AEInit
00008c6e g     F .text	00000004 TEE_BigIntConvertToFMM
00008708 g     F .text	00000008 TEE_BigIntSquareMod
000080b8 g     F .text	00000148 TEE_BigIntShiftRight
0000c876 g     F .text	0000007e raw_malloc_add_pool
000068a8 g     F .text	000000bc tee_invoke_supp_plugin
0000bc28 g     F .text	0000005e mbedtls_mpi_core_fill_random
000091cc g     F .text	00000098 mbedtls_mpi_grow
000011c0 g     F .text	000000a8 __l_divmod
0000407c g     F .text	00000030 TEE_DigestUpdate
000065a6 g     F .text	000000c6 __GP11_TEE_GetPropertyName
00001dd0 g     F .text	00000088 TEE_Realloc
0000b648 g     F .text	00000070 mbedtls_mpi_core_shift_r
00003f86 g     F .text	00000016 TEE_SetOperationKey2
00004884 g     F .text	0000006c __GP11_TEE_MACComputeFinal
00005cf2 g     F .text	00000016 __utee_check_inout_annotation
0000c6c4 g     F .text	00000008 raw_free
0000be96 g     F .text	0000004e mbedtls_ct_memcmp_partial
000012ba g     F .text	00000072 printf
00008368 g     F .text	00000010 TEE_BigIntAbs
000044dc g     F .text	0000006c __GP11_TEE_CipherUpdate
0000267c g     F .text	00000022 TEE_InitRefAttribute
00006f08 g     F .text	00000014 _utee_log
00001a10 g     F .text	000000fc TEE_InvokeTACommand
000026e2 g     F .text	00000022 __GP11_TEE_InitValueAttribute
00005c72 g     F .text	0000002e __utee_check_outbuf_annotation
0000b5e4 g     F .text	00000064 mbedtls_mpi_core_write_be
00009168 g     F .text	00000024 mbedtls_mpi_init_mempool
000071a4 g     F .text	00000014 _utee_cryp_random_number_generate
0000960c g     F .text	0000000c mbedtls_mpi_write_binary
00004bc4 g     F .text	00000160 TEE_AEEncryptFinal
00000888 g     F .text	0000000e vsnprintk
000099ac g     F .text	00000064 mbedtls_mpi_sub_int
00005270 g     F .text	000000f4 __GP11_TEE_AsymmetricDecrypt
0000cbf0 g     F .text	00000034 memmove
0000ca54 g     F .text	00000054 snprintf
00007f14 g     F .text	0000005c TEE_BigIntCmpS32
00001c1c g     F .text	00000004 __GP11_TEE_MemMove
0000e320 g     O .data	00000004 __stack_chk_guard
000026c0 g     F .text	00000022 TEE_InitValueAttribute
0000934e g     F .text	000000b2 mbedtls_mpi_shrink
00001c2c g     F .text	00000004 __GP11_TEE_MemFill
00008378 g     F .text	00000020 TEE_BigIntAdd
00007104 g     F .text	00000014 _utee_cryp_obj_restrict_usage
0000269e g     F .text	00000022 __GP11_TEE_InitRefAttribute
0000cd58 g     O .rodata	00000004 ta_heap_size
00002498 g     F .text	00000074 TEE_ResetTransientObject
0000722c g     F .text	00000018 _utee_asymm_operate
000073a8 g     F .text	0000000e _base64_enc_len
00009b86 g     F .text	00000156 mbedtls_mpi_read_string
000028b8 g     F .text	0000008c __GP11_TEE_GenerateKey
0000433c g     F .text	00000074 TEE_CipherInit
0000b7ca g     F .text	00000176 mbedtls_mpi_core_mla
000083b8 g     F .text	000000a8 TEE_BigIntNeg
000072c8 g     F .text	00000014 _utee_storage_free_enum
00000000 g       .text	00000000 __text_start
000066cc g     F .text	000000a0 TEE_GetNextProperty
00002c08 g     F .text	0000002c TEE_StartPersistentObjectEnumerator
00009652 g     F .text	00000012 mbedtls_mpi_shift_r
0000ca44 g     F .text	00000010 malloc_buffer_overlaps_heap
0000706c g     F .text	00000014 _utee_hash_init
000086d0 g     F .text	0000001c TEE_BigIntSubMod
0000adb0 g     F .text	00000244 mbedtls_mpi_gen_prime
000063d4 g     F .text	00000064 TEE_GetPropertyAsBinaryBlock
00009500 g     F .text	00000020 mbedtls_mpi_get_bit
0000bc86 g     F .text	0000009e mbedtls_mpi_core_random
0000cd54 g     O .rodata	00000004 __ta_no_share_heap_size
000095d4 g     F .text	0000002c mbedtls_mpi_read_binary
000049a8 g     F .text	00000070 TEE_AEInit
000007d4 g     F .text	0000004c trace_printf
0000a5ea g     F .text	00000024 mbedtls_mpi_montmul
0000737c g     F .text	00000014 _utee_cache_operation
0000055c g     F .text	000000d8 memcpy
0000bd3a g     F .text	00000020 mbedtls_mpi_core_exp_mod
00008c72 g     F .text	0000009a TEE_BigIntConvertFromFMM
00005c68 g     F .text	00000004 TEE_Panic
0000bf50 g     F .text	0000003c mbedtls_ct_memcpy_if
000010b0 g     F .text	00000018 __aeabi_uldivmod
00003fbe g     F .text	000000be TEE_CopyOperation
0000132c g     F .text	00000024 puts
00008d0c g     F .text	000000f4 TEE_BigIntComputeFMM
0000ca14 g     F .text	00000010 malloc_get_stats
00001cc8 g     F .text	00000016 TEE_GetREETime
0000c9fc g     F .text	00000018 raw_malloc_get_stats
00002b78 g     F .text	00000068 TEE_AllocatePersistentObjectEnumerator
0000e2b4 g     O .data	0000006c ta_props
00004f60 g     F .text	00000110 TEE_AsymmetricEncrypt
00001d90 g     F .text	00000004 __GP11_TEE_Malloc
00001940 g     F .text	000000d0 __GP11_TEE_OpenTASession
00005ca2 g     F .text	0000001c __utee_check_instring_annotation
0000c7c2 g     F .text	00000012 malloc
000004bc g     F .text	00000070 __ta_entry_c
00006598 g     F .text	00000004 TEE_FreePropertyEnumerator
000043b0 g     F .text	00000004 __GP11_TEE_CipherInit
0000282c g     F .text	0000008c TEE_GenerateKey
0000caa8 g     F .text	0000000e vsnprintf
0000e2b0 g     O .data	00000004 trace_level
000029e8 g     F .text	00000004 __GP11_TEE_OpenPersistentObject
00007ea8 g     F .text	0000006c TEE_BigIntCmp
0000cd3c g     O .rodata	00000004 ta_num_props
0000c4d8 g     F .text	00000080 bgetr
0000725c g     F .text	00000018 _utee_storage_obj_open
00001c24 g     F .text	00000004 __GP11_TEE_MemCompare
0000cb9c g     F .text	00000010 mempool_free
000043b4 g     F .text	00000128 TEE_CipherUpdate
00007080 g     F .text	00000014 _utee_hash_update
0000cbbc g     F .text	00000008 memzero_explicit
00007cb8 g     F .text	0000008c TEE_BigIntConvertToOctetString
00003d10 g     F .text	00000108 TEE_GetOperationInfoMultiple
00009594 g     F .text	00000008 mbedtls_mpi_bitlen
00008204 g     F .text	00000060 TEE_BigIntGetBit
0000cd5c g     O .rodata	00000003 trace_ext_prefix
00007304 g     F .text	00000014 _utee_storage_next_enum
0000c6b2 g     F .text	00000012 raw_malloc
0000c268 g     F .text	0000005c bgetz
00001c0c g     F .text	0000000c TEE_GetInstanceData
00001c46 g     F .text	0000001e TEE_Wait
00009a10 g     F .text	00000114 mbedtls_mpi_mul_mpi
00008200 g     F .text	00000004 __GP11_TEE_BigIntShiftRight
00001e62 g     F .text	00000006 TEE_CacheFlush
00000664 g     F .text	00000170 trace_vprintf
00000284 g     F .text	00000002 TA_DestroyEntryPoint
0000915c g     F .text	0000000c mbedtls_mpi_init
0000728c g     F .text	00000014 _utee_storage_obj_del
0000956e g     F .text	00000026 mbedtls_mpi_lsb
000046b4 g     F .text	00000070 __GP11_TEE_CipherDoFinal
00001268 g     F .text	00000028 _assert_log
00004b18 g     F .text	000000ac __GP11_TEE_AEUpdate
00007044 g     F .text	00000014 _utee_cryp_state_copy
00008c66 g     F .text	00000004 TEE_BigIntFMMContextSizeInU32
00006828 g     F .text	00000080 tee_unmap
000048f0 g     F .text	000000b4 TEE_MACCompareFinal
00002b3a g     F .text	0000003a TEE_RenamePersistentObject
000040b0 g     F .text	000000f4 TEE_DigestDoFinal
000025c4 g     F .text	000000b8 __GP11_TEE_PopulateTransientObject
00007ba8 g     F .text	00000044 _TEE_MathAPI_Init
00008e00 g     F .text	0000017c __utee_tcb_init
0000993e g     F .text	00000004 mbedtls_mpi_add_mpi
00007390 g     F .text	00000018 abort
0000a9b8 g     F .text	0000003e mbedtls_mpi_random
00000534 g     F .text	00000028 __stack_chk_fail
00005cc2 g     F .text	00000016 __utee_check_out_annotation
00011c29 g     O .bss	00004000 ta_heap
00008710 g     F .text	000000f4 TEE_BigIntInvMod
000040ac g     F .text	00000004 __GP11_TEE_DigestUpdate
00006b4c g     F .text	000000ec __utee_call_elf_init_fn
00001f54 g     F .text	00000090 __GP11_TEE_GetObjectInfo
00000314 g     F .text	00000002 TA_CloseSessionEntryPoint
00006f74 g     F .text	00000014 _utee_close_ta_session
00008c52 g     F .text	00000004 __GP11_TEE_BigIntInitFMMContext
00005160 g     F .text	00000110 TEE_AsymmetricDecrypt
0000206c g     F .text	00000088 __GP11_TEE_GetObjectInfo1
00002944 g     F .text	000000a4 TEE_OpenPersistentObject
0000bd9e g     F .text	00000018 mbedtls_mpi_core_check_zero_ct
00009942 g     F .text	00000006 mbedtls_mpi_sub_mpi
0000cc64 g     F .text	00000048 consttime_memcmp
00006ef4 g     F .text	00000014 _utee_return
00006f1c g     F .text	00000014 __utee_panic
0000be7c g     F .text	0000001a mbedtls_ct_memcmp
00008f7c g     F .text	00000018 __tls_get_addr
00000316 g     F .text	000001a6 TA_InvokeCommandEntryPoint
00006c38 g     F .text	00000010 __utee_call_elf_fini_fn
0000c850 g     F .text	00000010 free_wipe
0000cb3c g     F .text	0000003c mempool_alloc
00006ee0 g     F .text	00000014 _utee_panic
0000c864 g     F .text	00000012 raw_malloc_init_ctx
0000cb78 g     F .text	00000024 mempool_calloc
00007368 g     F .text	00000014 _utee_cryp_obj_generate_key
00007340 g     F .text	00000014 _utee_storage_obj_trunc
000027bc g     F .text	00000070 TEE_CopyObjectAttributes
0000e324 g     O .data	0000003c tee_props
00006fc8 g     F .text	00000014 _utee_unmask_cancellation
00006568 g     F .text	00000008 TEE_ResetPropertyEnumerator
0000c7d4 g     F .text	00000020 calloc
00001cde g     F .text	000000b2 TEE_Malloc
0000170c g     F .text	00000048 TEE_CheckMemoryAccessRights
00006438 g     F .text	00000098 TEE_GetPropertyAsUUID
00001152 g     F .text	0000006e __ul_divmod
00006f30 g     F .text	00000018 _utee_get_property
000041a4 g     F .text	0000006c __GP11_TEE_DigestDoFinal
000082bc g     F .text	00000080 TEE_BigIntSetBit
000094c8 g     F .text	00000038 mbedtls_mpi_lset
00003f9c g     F .text	00000022 __GP11_TEE_SetOperationKey2
00002de4 g     F .text	0000008c TEE_ReadObjectData
00002184 g     F .text	000000c0 TEE_GetObjectBufferAttribute
00000286 g     F .text	0000008e TA_OpenSessionEntryPoint
0000bd7c g     F .text	00000022 mbedtls_mpi_core_sub_int
000034dc g     F .text	00000024 TEE_FreeOperation
00008f94 g     F .text	000000a8 dl_iterate_phdr
00015c30 g       .bss	00000000 __ftrace_buf_end
0000e414 g     O .bss	00000004 ta_param_types
0000a062 g     F .text	00000066 mbedtls_mpi_div_int
00001e70 g     F .text	0000002a __utee_from_attr
0000b580 g     F .text	00000064 mbedtls_mpi_core_write_le
0000ad14 g     F .text	0000009c mbedtls_mpi_is_prime_ext
00008bd8 g     F .text	00000070 TEE_BigIntIsProbablePrime
00009b24 g     F .text	00000062 mbedtls_mpi_mul_int
00002afe g     F .text	00000026 TEE_CloseAndDeletePersistentObject1
0000a664 g     F .text	00000012 mbedtls_mpi_exp_mod
00009264 g     F .text	00000052 mbedtls_mpi_safe_cond_assign
00005f84 g     F .text	0000018c TEE_GetPropertyAsString
000090ba g     F .text	000000a2 mbedtls_mpi_lt_mpi_ct
00004db0 g     F .text	00000138 TEE_AEDecryptFinal
00007bec g     F .text	00000038 TEE_BigIntInit
00007d44 g     F .text	0000004c __GP11_TEE_BigIntConvertToOctetString
0000833c g     F .text	0000002c TEE_BigIntAssign
00005cbe g     F .text	00000002 __utee_check_outstring_annotation
00001c18 g     F .text	00000004 TEE_MemMove
0000bff4 g     F .text	00000018 mbedtls_platform_zeroize
00007c28 g     F .text	0000008c TEE_BigIntConvertFromOctetString
00007214 g     F .text	00000018 _utee_authenc_dec_final
00009664 g     F .text	0000005e mbedtls_mpi_cmp_abs
00007318 g     F .text	00000014 _utee_storage_obj_read
00004724 g     F .text	00000056 TEE_MACInit
00005364 g     F .text	000000ec TEE_AsymmetricSignDigest
0000cbc4 g     F .text	0000001c memchr
0000166c g     F .text	00000050 TEE_UnmaskCancellation
00001ec4 g     F .text	00000090 TEE_GetObjectInfo
0000aff4 g     F .text	00000334 mbedtls_mpi_self_test
00005ca0 g     F .text	00000002 __utee_check_gp11_outbuf_annotation
00007354 g     F .text	00000014 _utee_storage_obj_seek
00004aae g     F .text	0000006a TEE_AEUpdate
00002424 g     F .text	00000074 TEE_FreeTransientObject
0000b49c g     F .text	00000050 mbedtls_mpi_core_cond_swap
00006fb4 g     F .text	00000014 _utee_check_access_rights
0000b536 g     F .text	0000004a mbedtls_mpi_core_read_be
00001b0c g     F .text	000000f0 __GP11_TEE_InvokeTACommand
0000974c g     F .text	00000064 mbedtls_mpi_cmp_int
00007478 g     F .text	000000c4 _base64_dec
00003ccc g     F .text	00000014 __GP11_TEE_FreeOperation
000072dc g     F .text	00000014 _utee_storage_reset_enum
000058fa g     F .text	0000004a rand
00005cd8 g     F .text	00000018 __utee_check_attr_in_annotation
000071e4 g     F .text	00000018 _utee_authenc_update_payload
00003ce0 g     F .text	00000030 TEE_GetOperationInfo
00008664 g     F .text	00000050 TEE_BigIntMod
0000a34c g     F .text	0000006c mbedtls_mpi_mod_int
00005450 g     F .text	000000ec __GP11_TEE_AsymmetricSignDigest
000095a8 g     F .text	0000002c mbedtls_mpi_read_binary_le
00008542 g     F .text	00000122 TEE_BigIntDiv
0000712c g     F .text	00000014 _utee_cryp_obj_alloc
00015c30 g       .bss	00000000 __ftrace_buf_start
0000cc3a g     F .text	0000002a strlcpy
00009400 g     F .text	0000006a mbedtls_mpi_copy
0000b384 g     F .text	00000006 mbedtls_mpi_core_clz
00005944 g     F .text	00000304 TEE_IsAlgorithmSupported
0000c650 g     F .text	00000014 malloc_reset_stats
000064d0 g     F .text	00000098 TEE_GetPropertyAsIdentity
00001080 g     F .text	00000016 __vsprintf
000062a0 g     F .text	00000098 TEE_GetPropertyAsU64
00007018 g     F .text	00000014 _utee_set_ta_time
00006f88 g     F .text	00000018 _utee_invoke_ta_command
000020f4 g     F .text	00000020 TEE_RestrictObjectUsage1
0000c7f4 g     F .text	0000001c realloc
0000946a g     F .text	0000005e mbedtls_mpi_swap
0000cab8 g     F .text	00000084 mempool_alloc_pool
00008460 g     F .text	000000dc TEE_BigIntMul
00003e78 g     F .text	00000020 TEE_ResetOperation
0000c860 g     F .text	00000004 raw_malloc_get_ctx_size
00009618 g     F .text	0000003a mbedtls_mpi_shift_l
000096c2 g     F .text	0000008a mbedtls_mpi_cmp_mpi
00001c28 g     F .text	00000004 TEE_MemFill
0000bd5a g     F .text	00000022 mbedtls_mpi_core_exp_mod_unsafe
0000ca24 g     F .text	00000010 malloc_add_pool
0000477e g     F .text	0000004e TEE_MACUpdate
00000650 g     F .text	00000014 trace_get_level
000097b0 g     F .text	00000090 mbedtls_mpi_add_abs
00002114 g     F .text	00000070 TEE_RestrictObjectUsage
00008c5a g     F .text	00000008 TEE_BigIntFMMSizeInU32
00006174 g     F .text	00000094 TEE_GetPropertyAsBool
0000c71c g     F .text	000000a6 raw_realloc
00008c48 g     F .text	00000004 TEE_BigIntInitFMM
00002384 g     F .text	00000014 TEE_CloseObject
000070ac g     F .text	00000014 _utee_cipher_init
00006cb4 g     F .text	0000022c __utee_entry
00006208 g     F .text	00000098 TEE_GetPropertyAsU32
0000cce0 g       .text	00000000 __text_end
00008804 g     F .text	000000b0 TEE_BigIntRelativePrime
0000a0c8 g     F .text	00000064 mbedtls_mpi_mod_mpi
0000b410 g     F .text	00000050 mbedtls_mpi_core_lt_ct
000070f0 g     F .text	00000014 _utee_cryp_obj_get_info
0000b78c g     F .text	0000003e mbedtls_mpi_core_sub
0000c558 g     F .text	00000098 bpool
00006570 g     F .text	00000028 TEE_AllocatePropertyEnumerator
0000702c g     F .text	00000018 _utee_cryp_state_alloc
0000161c g     F .text	00000050 TEE_GetCancellationFlag
00002ac0 g     F .text	0000003e __GP11_TEE_CreatePersistentObject
0000a68a g     F .text	00000136 mbedtls_mpi_gcd
00001ca0 g     F .text	00000028 TEE_SetTAPersistentTime
0000c00c g     F .text	00000014 mbedtls_zeroize_and_free
00009600 g     F .text	0000000c mbedtls_mpi_write_binary_le
0000cbac g     F .text	00000010 memset
0000c664 g     F .text	0000004e raw_memalign
00001c64 g     F .text	0000003c TEE_GetTAPersistentTime
00003f68 g     F .text	0000001e __GP11_TEE_SetOperationKey
00004d24 g     F .text	0000008c __GP11_TEE_AEEncryptFinal
00000820 g     F .text	00000002 dhex_dump
0000b3ae g     F .text	00000026 mbedtls_mpi_core_bigendian_to_host
000029ec g     F .text	000000d4 TEE_CreatePersistentObject
000016bc g     F .text	00000050 TEE_MaskCancellation
00004a1c g     F .text	0000004c TEE_AEUpdateAAD
00002f18 g     F .text	00000038 TEE_TruncateObjectData
00007118 g     F .text	00000014 _utee_cryp_obj_get_attr
00001fe4 g     F .text	00000088 TEE_GetObjectInfo1
000070d8 g     F .text	00000018 _utee_cipher_final
00000634 g     F .text	0000001c trace_set_level
0000bdb6 g     F .text	00000016 mbedtls_mpi_core_to_mont_rep
000022a8 g     F .text	000000dc TEE_GetObjectValueAttribute
00003e98 g     F .text	000000d0 TEE_SetOperationKey
00002244 g     F .text	00000064 __GP11_TEE_GetObjectBufferAttribute
0000bf8c g     F .text	00000054 mbedtls_ct_memcpy_offset
00007058 g     F .text	00000014 _utee_cryp_state_free
0000cc24 g     F .text	00000016 strcmp
00006f5c g     F .text	00000018 _utee_open_ta_session
00007e14 g     F .text	00000094 TEE_BigIntConvertToS32
00008398 g     F .text	00000020 TEE_BigIntSub
0000302c g     F .text	00000012 __GP11_TEE_SeekObjectData
0000052c g     F .text	00000004 tahead_get_trace_level
000072f0 g     F .text	00000014 _utee_storage_start_enum
0000bee4 g     F .text	0000006c mbedtls_ct_memmove_left
00002f54 g     F .text	000000d8 TEE_SeekObjectData
000067bc g     F .text	0000006c tee_map_zi
00002f50 g     F .text	00000004 __GP11_TEE_TruncateObjectData
0000a60e g     F .text	00000056 mbedtls_mpi_montred
0000c810 g     F .text	00000020 memalign
00004548 g     F .text	0000016c TEE_CipherDoFinal
00007c24 g     F .text	00000004 __GP11_TEE_BigIntInit
0000b6b8 g     F .text	0000006c mbedtls_mpi_core_shift_l
00007d90 g     F .text	00000084 TEE_BigIntConvertFromS32
00009948 g     F .text	00000064 mbedtls_mpi_add_int
000071fc g     F .text	00000018 _utee_authenc_enc_final
0000ca34 g     F .text	00000010 malloc_buffer_is_within_alloced
00007140 g     F .text	00000014 _utee_cryp_obj_close
000058f6 g     F .text	00000004 __GP11_TEE_GenerateRandom
00008c50 g     F .text	00000002 TEE_BigIntInitFMMContext
00006fdc g     F .text	00000014 _utee_mask_cancellation
0000e3f0 g     O .bss	00000004 __ta_no_share_malloc_ctx
000072a0 g     F .text	00000014 _utee_storage_obj_rename
00002d0c g     F .text	000000d8 __GP11_TEE_GetNextPersistentObject
00002ed4 g     F .text	00000040 TEE_WriteObjectData
00002bf4 g     F .text	00000014 TEE_ResetPersistentObjectEnumerator
00001bfc g     F .text	00000004 __GP11_TEE_CheckMemoryAccessRights
0000853c g     F .text	00000006 TEE_BigIntSquare
0000732c g     F .text	00000014 _utee_storage_obj_write
0000b38a g     F .text	00000024 mbedtls_mpi_core_bitlen
00000280 g     F .text	00000004 TA_CreateEntryPoint
00000530 g     F .text	00000004 __ta_entry
00011c29 g     O .bss	00000000 __ta_no_share_heap
000071d0 g     F .text	00000014 _utee_authenc_update_aad
0000a5dc g     F .text	0000000e mbedtls_mpi_montg_init
00000896 g     F .text	0000004e snprintk
00008264 g     F .text	00000058 TEE_BigIntGetBitCount
0000717c g     F .text	00000014 _utee_cryp_obj_copy
00004a68 g     F .text	00000046 __GP11_TEE_AEUpdateAAD
000086ec g     F .text	0000001c TEE_BigIntMulMod
0000a9f6 g     F .text	0000031e mbedtls_mpi_inv_mod
00005cf0 g     F .text	00000002 __utee_check_gp11_attr_in_annotation
000056f4 g     F .text	000000f8 TEE_DeriveKey
0000e3f4 g     O .bss	00000020 ta_params
00009cdc g     F .text	00000386 mbedtls_mpi_div_mpi
00005cc0 g     F .text	00000002 __utee_check_gp11_outstring_annotation
0000959c g     F .text	0000000c mbedtls_mpi_size
0000c04c g     F .text	0000021c bget
00002e70 g     F .text	00000064 __GP11_TEE_ReadObjectData
0000240c g     F .text	00000018 TEE_AllocateTransientObject
000047cc g     F .text	00000004 __GP11_TEE_MACUpdate
00008c6a g     F .text	00000004 __GP11_TEE_BigIntFMMContextSizeInU32
0000659c g     F .text	0000000a TEE_StartPropertyEnumerator
00006ff0 g     F .text	00000014 _utee_wait
00009520 g     F .text	0000004e mbedtls_mpi_set_bit
0000b3d4 g     F .text	0000003c mbedtls_mpi_core_uint_le_mpi
00001d94 g     F .text	0000003c TEE_Free
00001e68 g     F .text	00000006 TEE_CacheInvalidate
00001290 g     F .text	00000010 _assert_break
0000bd24 g     F .text	00000016 mbedtls_mpi_core_exp_mod_working_limbs
000086b4 g     F .text	0000001c TEE_BigIntAddMod
00008c4c g     F .text	00000004 __GP11_TEE_BigIntInitFMM
00007004 g     F .text	00000014 _utee_get_time
0000b724 g     F .text	0000002e mbedtls_mpi_core_add
0000666c g     F .text	00000060 TEE_GetPropertyName
00001e58 g     F .text	00000004 __GP11_TEE_Realloc
00003500 g     F .text	000007cc TEE_AllocateOperation
00007168 g     F .text	00000014 _utee_cryp_obj_populate
0000b4ec g     F .text	0000004a mbedtls_mpi_core_read_le
00003e18 g     F .text	00000060 __GP11_TEE_GetOperationInfoMultiple
00011c24 g     O .bss	00000004 mbedtls_ct_zero
00001e9a g     F .text	0000002a __utee_from_gp11_attr
000058e4 g     F .text	00000012 TEE_GenerateRandom
00004210 g     F .text	0000012c TEE_DigestExtract
00001c20 g     F .text	00000004 TEE_MemCompare
000070c0 g     F .text	00000018 _utee_cipher_update
00000824 g     F .text	00000064 __vsnprintf
0000e3e4 g     O .bss	0000000c __elf_phdr_info
0000a676 g     F .text	00000014 mbedtls_mpi_exp_mod_unsafe
00002be0 g     F .text	00000014 TEE_FreePersistentObjectEnumerator
00001864 g     F .text	000000dc TEE_OpenTASession
0000bfe0 g     F .text	00000014 mbedtls_ct_zeroize_if
000057ec g     F .text	000000f8 __GP11_TEE_DeriveKey
0000bdcc g     F .text	00000054 mbedtls_mpi_core_from_mont_rep
00004ee8 g     F .text	00000078 __GP11_TEE_AEDecryptFinal
000012a0 g     F .text	00000014 trace_ext_puts
00006110 g     F .text	00000064 __GP11_TEE_GetPropertyAsString
0000c946 g     F .text	000000b6 raw_malloc_buffer_is_within_alloced
000012b4 g     F .text	00000006 trace_ext_get_thread_id
0000c8f4 g     F .text	00000052 raw_malloc_buffer_overlaps_heap
00002b24 g     F .text	00000016 TEE_CloseAndDeletePersistentObject
00007190 g     F .text	00000014 _utee_cryp_derive_key
0000918c g     F .text	00000040 mbedtls_mpi_free
0000477a g     F .text	00000004 __GP11_TEE_MACInit
00005618 g     F .text	000000dc __GP11_TEE_AsymmetricVerifyDigest
00007154 g     F .text	00000014 _utee_cryp_obj_reset
00001e5c g     F .text	00000006 TEE_CacheClean
00006f48 g     F .text	00000014 _utee_get_property_name_to_index
0000b9a4 g     F .text	0000009a mbedtls_mpi_core_montmul
0000c6cc g     F .text	00000050 raw_calloc
000073b6 g     F .text	000000c2 _base64_enc
000092b6 g     F .text	00000062 mbedtls_mpi_safe_cond_swap
000071b8 g     F .text	00000018 _utee_authenc_init
00002704 g     F .text	000000b8 TEE_CopyObjectAttributes1
00002b74 g     F .text	00000004 __GP11_TEE_RenamePersistentObject
0000cbe0 g     F .text	00000010 strlen
00008a08 g     F .text	000001d0 TEE_BigIntComputeExtendedGcd
000072b4 g     F .text	00000014 _utee_storage_alloc_enum
000088b4 g     F .text	00000154 TEE_BigIntExpMod
00001c30 g     F .text	00000016 TEE_GetSystemTime
00007244 g     F .text	00000018 _utee_asymm_verify
0000de28 g     O .ta_head	00000020 ta_head
0000c2c4 g     F .text	00000214 brel
00006338 g     F .text	0000009c __GP11_TEE_GetPropertyAsBinaryBlock
00009840 g     F .text	000000a0 mbedtls_mpi_sub_abs
0000a7c0 g     F .text	00000030 mbedtls_mpi_fill_random
00002398 g     F .text	00000074 __GP11_TEE_AllocateTransientObject
00001c00 g     F .text	0000000c TEE_SetInstanceData
00005070 g     F .text	000000f0 __GP11_TEE_AsymmetricEncrypt
00006fa0 g     F .text	00000014 _utee_get_cancellation_flag
0000b460 g     F .text	0000003c mbedtls_mpi_core_cond_assign
00001098 g     F .text	00000018 __aeabi_ldivmod
0000a3b8 g     F .text	00000198 mbedtls_mpi_write_string
0000c830 g     F .text	00000012 aligned_alloc
0000b982 g     F .text	00000022 mbedtls_mpi_core_montmul_init
00002c34 g     F .text	000000d8 TEE_GetNextPersistentObject
00008c56 g     F .text	00000004 TEE_BigIntInitFMMContext1
000049a4 g     F .text	00000004 __GP11_TEE_MACCompareFinal
00002f14 g     F .text	00000004 __GP11_TEE_WriteObjectData
0000bbf4 g     F .text	00000034 mbedtls_mpi_core_get_mont_r2_unsafe
00001608 g     F .text	00000014 TEE_CloseTASession
0000553c g     F .text	000000dc TEE_AsymmetricVerifyDigest
00007274 g     F .text	00000018 _utee_storage_obj_create
00008c62 g     F .text	00000004 __GP11_TEE_BigIntFMMSizeInU32
0000b940 g     F .text	00000042 mbedtls_mpi_core_mul
0000c842 g     F .text	0000000e free
0000c5f0 g     F .text	00000060 bstats
000047d0 g     F .text	000000b4 TEE_MACComputeFinal
00011c20 g     O .bss	00000004 mbedtls_mpi_mempool
00007094 g     F .text	00000018 _utee_hash_final



Disassembly of section .text:

00000000 <huk_crypt>:
huk_crypt():
/home/dangcaominh/STM32MP1/optee-os/optee-os/ta/trusted_keys/entry.c:149
       0:	e92d 4ff0 	stmdb	sp!, {r4, r5, r6, r7, r8, r9, sl, fp, lr}
       4:	461f      	mov	r7, r3
       6:	ed2d 8b02 	vpush	{d8}
       a:	b0a9      	sub	sp, #164	@ 0xa4
/home/dangcaominh/STM32MP1/optee-os/optee-os/ta/trusted_keys/entry.c:153
       c:	f04f 0920 	mov.w	r9, #32
/home/dangcaominh/STM32MP1/optee-os/optee-os/ta/trusted_keys/entry.c:154
      10:	ef80 8010 	vmov.i32	d8, #0	@ 0x00000000
/home/dangcaominh/STM32MP1/optee-os/optee-os/ta/trusted_keys/entry.c:149
      14:	9205      	str	r2, [sp, #20]
/home/dangcaominh/STM32MP1/optee-os/optee-os/ta/trusted_keys/entry.c:153
      16:	f10d 0a7c 	add.w	sl, sp, #124	@ 0x7c
/home/dangcaominh/STM32MP1/optee-os/optee-os/ta/trusted_keys/entry.c:149
      1a:	9b34      	ldr	r3, [sp, #208]	@ 0xd0
      1c:	4680      	mov	r8, r0
      1e:	4a8e      	ldr	r2, [pc, #568]	@ (258 <huk_crypt+0x258>)
      20:	460e      	mov	r6, r1
      22:	9306      	str	r3, [sp, #24]
/home/dangcaominh/STM32MP1/optee-os/optee-os/ta/trusted_keys/entry.c:151
      24:	2100      	movs	r1, #0
/home/dangcaominh/STM32MP1/optee-os/optee-os/ta/trusted_keys/entry.c:149
      26:	447a      	add	r2, pc
/home/dangcaominh/STM32MP1/optee-os/optee-os/ta/trusted_keys/entry.c:153
      28:	4650      	mov	r0, sl
/home/dangcaominh/STM32MP1/optee-os/optee-os/ta/trusted_keys/entry.c:149
      2a:	4b8c      	ldr	r3, [pc, #560]	@ (25c <huk_crypt+0x25c>)
      2c:	58d3      	ldr	r3, [r2, r3]
/home/dangcaominh/STM32MP1/optee-os/optee-os/ta/trusted_keys/entry.c:153
      2e:	464a      	mov	r2, r9
/home/dangcaominh/STM32MP1/optee-os/optee-os/ta/trusted_keys/entry.c:149
      30:	681b      	ldr	r3, [r3, #0]
      32:	9327      	str	r3, [sp, #156]	@ 0x9c
      34:	f04f 0300 	mov.w	r3, #0
/home/dangcaominh/STM32MP1/optee-os/optee-os/ta/trusted_keys/entry.c:152
      38:	e9cd 1108 	strd	r1, r1, [sp, #32]
/home/dangcaominh/STM32MP1/optee-os/optee-os/ta/trusted_keys/entry.c:153
      3c:	f00c fdb6 	bl	cbac <memset>
/home/dangcaominh/STM32MP1/optee-os/optee-os/ta/trusted_keys/entry.c:156
      40:	4982      	ldr	r1, [pc, #520]	@ (24c <huk_crypt+0x24c>)
      42:	f44f 7380 	mov.w	r3, #256	@ 0x100
      46:	eb0d 0009 	add.w	r0, sp, r9
      4a:	4642      	mov	r2, r8
/home/dangcaominh/STM32MP1/optee-os/optee-os/ta/trusted_keys/entry.c:154
      4c:	ed8d 8b0c 	vstr	d8, [sp, #48]	@ 0x30
      50:	ed8d 8b0d 	vstr	d8, [sp, #52]	@ 0x34
/home/dangcaominh/STM32MP1/optee-os/optee-os/ta/trusted_keys/entry.c:156
      54:	f003 fa54 	bl	3500 <TEE_AllocateOperation>
/home/dangcaominh/STM32MP1/optee-os/optee-os/ta/trusted_keys/entry.c:158
      58:	4604      	mov	r4, r0
      5a:	2800      	cmp	r0, #0
      5c:	d143      	bne.n	e6 <huk_crypt+0xe6>
derive_unique_key():
/home/dangcaominh/STM32MP1/optee-os/optee-os/ta/trusted_keys/entry.c:63
      5e:	900a      	str	r0, [sp, #40]	@ 0x28
/home/dangcaominh/STM32MP1/optee-os/optee-os/ta/trusted_keys/entry.c:64
      60:	f10d 0b4c 	add.w	fp, sp, #76	@ 0x4c
      64:	4601      	mov	r1, r0
      66:	464a      	mov	r2, r9
      68:	4658      	mov	r0, fp
/home/dangcaominh/STM32MP1/optee-os/optee-os/ta/trusted_keys/entry.c:72
      6a:	ad0b      	add	r5, sp, #44	@ 0x2c
/home/dangcaominh/STM32MP1/optee-os/optee-os/ta/trusted_keys/entry.c:64
      6c:	f00c fd9e 	bl	cbac <memset>
/home/dangcaominh/STM32MP1/optee-os/optee-os/ta/trusted_keys/entry.c:72
      70:	4b7b      	ldr	r3, [pc, #492]	@ (260 <huk_crypt+0x260>)
      72:	f10d 0c3c 	add.w	ip, sp, #60	@ 0x3c
/home/dangcaominh/STM32MP1/optee-os/optee-os/ta/trusted_keys/entry.c:66
      76:	940b      	str	r4, [sp, #44]	@ 0x2c
/home/dangcaominh/STM32MP1/optee-os/optee-os/ta/trusted_keys/entry.c:72
      78:	447b      	add	r3, pc
      7a:	cb0f      	ldmia	r3, {r0, r1, r2, r3}
      7c:	e88c 000f 	stmia.w	ip, {r0, r1, r2, r3}
      80:	ab0a      	add	r3, sp, #40	@ 0x28
      82:	9307      	str	r3, [sp, #28]
      84:	4622      	mov	r2, r4
      86:	9300      	str	r3, [sp, #0]
      88:	f04f 31ff 	mov.w	r1, #4294967295	@ 0xffffffff
      8c:	9501      	str	r5, [sp, #4]
      8e:	4623      	mov	r3, r4
      90:	4660      	mov	r0, ip
      92:	f001 fbe7 	bl	1864 <TEE_OpenTASession>
/home/dangcaominh/STM32MP1/optee-os/optee-os/ta/trusted_keys/entry.c:75
      96:	4604      	mov	r4, r0
      98:	b990      	cbnz	r0, c0 <huk_crypt+0xc0>
/home/dangcaominh/STM32MP1/optee-os/optee-os/ta/trusted_keys/entry.c:86
      9a:	980a      	ldr	r0, [sp, #40]	@ 0x28
      9c:	2365      	movs	r3, #101	@ 0x65
      9e:	9501      	str	r5, [sp, #4]
      a0:	2201      	movs	r2, #1
      a2:	f8cd b000 	str.w	fp, [sp]
      a6:	f04f 31ff 	mov.w	r1, #4294967295	@ 0xffffffff
/home/dangcaominh/STM32MP1/optee-os/optee-os/ta/trusted_keys/entry.c:83
      aa:	f8cd a054 	str.w	sl, [sp, #84]	@ 0x54
/home/dangcaominh/STM32MP1/optee-os/optee-os/ta/trusted_keys/entry.c:84
      ae:	f8cd 9058 	str.w	r9, [sp, #88]	@ 0x58
/home/dangcaominh/STM32MP1/optee-os/optee-os/ta/trusted_keys/entry.c:86
      b2:	f001 fcad 	bl	1a10 <TEE_InvokeTACommand>
      b6:	4604      	mov	r4, r0
/home/dangcaominh/STM32MP1/optee-os/optee-os/ta/trusted_keys/entry.c:90
      b8:	980a      	ldr	r0, [sp, #40]	@ 0x28
      ba:	f001 faa5 	bl	1608 <TEE_CloseTASession>
huk_crypt():
/home/dangcaominh/STM32MP1/optee-os/optee-os/ta/trusted_keys/entry.c:162
      be:	b1fc      	cbz	r4, 100 <huk_crypt+0x100>
/home/dangcaominh/STM32MP1/optee-os/optee-os/ta/trusted_keys/entry.c:163
      c0:	4b68      	ldr	r3, [pc, #416]	@ (264 <huk_crypt+0x264>)
      c2:	21a3      	movs	r1, #163	@ 0xa3
      c4:	4868      	ldr	r0, [pc, #416]	@ (268 <huk_crypt+0x268>)
      c6:	447b      	add	r3, pc
      c8:	4478      	add	r0, pc
      ca:	9300      	str	r3, [sp, #0]
      cc:	2301      	movs	r3, #1
      ce:	9401      	str	r4, [sp, #4]
      d0:	461a      	mov	r2, r3
      d2:	3010      	adds	r0, #16
      d4:	f000 fb7e 	bl	7d4 <trace_printf>
/home/dangcaominh/STM32MP1/optee-os/optee-os/ta/trusted_keys/entry.c:199
      d8:	9808      	ldr	r0, [sp, #32]
      da:	f003 f9ff 	bl	34dc <TEE_FreeOperation>
/home/dangcaominh/STM32MP1/optee-os/optee-os/ta/trusted_keys/entry.c:200
      de:	2120      	movs	r1, #32
      e0:	a81f      	add	r0, sp, #124	@ 0x7c
      e2:	f00c fd6b 	bl	cbbc <memzero_explicit>
/home/dangcaominh/STM32MP1/optee-os/optee-os/ta/trusted_keys/entry.c:149
      e6:	4a61      	ldr	r2, [pc, #388]	@ (26c <huk_crypt+0x26c>)
/home/dangcaominh/STM32MP1/optee-os/optee-os/ta/trusted_keys/entry.c:202
      e8:	4b5c      	ldr	r3, [pc, #368]	@ (25c <huk_crypt+0x25c>)
/home/dangcaominh/STM32MP1/optee-os/optee-os/ta/trusted_keys/entry.c:149
      ea:	447a      	add	r2, pc
/home/dangcaominh/STM32MP1/optee-os/optee-os/ta/trusted_keys/entry.c:202
      ec:	58d3      	ldr	r3, [r2, r3]
      ee:	681a      	ldr	r2, [r3, #0]
      f0:	9b27      	ldr	r3, [sp, #156]	@ 0x9c
      f2:	405a      	eors	r2, r3
      f4:	f04f 0300 	mov.w	r3, #0
      f8:	f000 80a2 	beq.w	240 <huk_crypt+0x240>
      fc:	f000 fa1a 	bl	534 <__stack_chk_fail>
/home/dangcaominh/STM32MP1/optee-os/optee-os/ta/trusted_keys/entry.c:167
     100:	4853      	ldr	r0, [pc, #332]	@ (250 <huk_crypt+0x250>)
     102:	aa09      	add	r2, sp, #36	@ 0x24
     104:	f44f 7180 	mov.w	r1, #256	@ 0x100
     108:	f002 f980 	bl	240c <TEE_AllocateTransientObject>
/home/dangcaominh/STM32MP1/optee-os/optee-os/ta/trusted_keys/entry.c:169
     10c:	4604      	mov	r4, r0
     10e:	2800      	cmp	r0, #0
     110:	d1e2      	bne.n	d8 <huk_crypt+0xd8>
/home/dangcaominh/STM32MP1/optee-os/optee-os/ta/trusted_keys/entry.c:176
     112:	9809      	ldr	r0, [sp, #36]	@ 0x24
/home/dangcaominh/STM32MP1/optee-os/optee-os/ta/trusted_keys/entry.c:172
     114:	f04f 4340 	mov.w	r3, #3221225472	@ 0xc0000000
/home/dangcaominh/STM32MP1/optee-os/optee-os/ta/trusted_keys/entry.c:174
     118:	f8cd 9038 	str.w	r9, [sp, #56]	@ 0x38
/home/dangcaominh/STM32MP1/optee-os/optee-os/ta/trusted_keys/entry.c:176
     11c:	2201      	movs	r2, #1
     11e:	a90c      	add	r1, sp, #48	@ 0x30
/home/dangcaominh/STM32MP1/optee-os/optee-os/ta/trusted_keys/entry.c:173
     120:	e9cd 3a0c 	strd	r3, sl, [sp, #48]	@ 0x30
/home/dangcaominh/STM32MP1/optee-os/optee-os/ta/trusted_keys/entry.c:176
     124:	f002 f9f2 	bl	250c <TEE_PopulateTransientObject>
/home/dangcaominh/STM32MP1/optee-os/optee-os/ta/trusted_keys/entry.c:177
     128:	4604      	mov	r4, r0
     12a:	2800      	cmp	r0, #0
     12c:	d153      	bne.n	1d6 <huk_crypt+0x1d6>
/home/dangcaominh/STM32MP1/optee-os/optee-os/ta/trusted_keys/entry.c:180
     12e:	e9dd 0108 	ldrd	r0, r1, [sp, #32]
     132:	f003 feb1 	bl	3e98 <TEE_SetOperationKey>
/home/dangcaominh/STM32MP1/optee-os/optee-os/ta/trusted_keys/entry.c:181
     136:	4604      	mov	r4, r0
     138:	2800      	cmp	r0, #0
     13a:	d14c      	bne.n	1d6 <huk_crypt+0x1d6>
/home/dangcaominh/STM32MP1/optee-os/optee-os/ta/trusted_keys/entry.c:185
     13c:	f8dd a020 	ldr.w	sl, [sp, #32]
     140:	f10d 096c 	add.w	r9, sp, #108	@ 0x6c
huk_ae_encrypt():
/home/dangcaominh/STM32MP1/optee-os/optee-os/ta/trusted_keys/entry.c:100
     144:	ed8d 8b1b 	vstr	d8, [sp, #108]	@ 0x6c
/home/dangcaominh/STM32MP1/optee-os/optee-os/ta/trusted_keys/entry.c:101
     148:	9b05      	ldr	r3, [sp, #20]
/home/dangcaominh/STM32MP1/optee-os/optee-os/ta/trusted_keys/entry.c:100
     14a:	ed89 8b02 	vstr	d8, [r9, #8]
huk_crypt():
/home/dangcaominh/STM32MP1/optee-os/optee-os/ta/trusted_keys/entry.c:184
     14e:	f1b8 0f00 	cmp.w	r8, #0
     152:	d144      	bne.n	1de <huk_crypt+0x1de>
huk_ae_encrypt():
/home/dangcaominh/STM32MP1/optee-os/optee-os/ta/trusted_keys/entry.c:101
     154:	930a      	str	r3, [sp, #40]	@ 0x28
/home/dangcaominh/STM32MP1/optee-os/optee-os/ta/trusted_keys/entry.c:104
     156:	46b8      	mov	r8, r7
/home/dangcaominh/STM32MP1/optee-os/optee-os/ta/trusted_keys/entry.c:102
     158:	f04f 0b10 	mov.w	fp, #16
/home/dangcaominh/STM32MP1/optee-os/optee-os/ta/trusted_keys/entry.c:104
     15c:	f808 0b01 	strb.w	r0, [r8], #1
/home/dangcaominh/STM32MP1/optee-os/optee-os/ta/trusted_keys/entry.c:105
     160:	4659      	mov	r1, fp
/home/dangcaominh/STM32MP1/optee-os/optee-os/ta/trusted_keys/entry.c:102
     162:	f8cd b02c 	str.w	fp, [sp, #44]	@ 0x2c
/home/dangcaominh/STM32MP1/optee-os/optee-os/ta/trusted_keys/entry.c:105
     166:	4648      	mov	r0, r9
     168:	f005 fbbc 	bl	58e4 <TEE_GenerateRandom>
/home/dangcaominh/STM32MP1/optee-os/optee-os/ta/trusted_keys/entry.c:106
     16c:	465a      	mov	r2, fp
     16e:	4649      	mov	r1, r9
     170:	4640      	mov	r0, r8
     172:	f000 f9f3 	bl	55c <memcpy>
/home/dangcaominh/STM32MP1/optee-os/optee-os/ta/trusted_keys/entry.c:108
     176:	9401      	str	r4, [sp, #4]
     178:	4641      	mov	r1, r8
     17a:	9400      	str	r4, [sp, #0]
     17c:	2380      	movs	r3, #128	@ 0x80
     17e:	465a      	mov	r2, fp
     180:	4650      	mov	r0, sl
     182:	f004 fc11 	bl	49a8 <TEE_AEInit>
/home/dangcaominh/STM32MP1/optee-os/optee-os/ta/trusted_keys/entry.c:109
     186:	4680      	mov	r8, r0
     188:	b9b8      	cbnz	r0, 1ba <huk_crypt+0x1ba>
/home/dangcaominh/STM32MP1/optee-os/optee-os/ta/trusted_keys/entry.c:112
     18a:	9a05      	ldr	r2, [sp, #20]
/home/dangcaominh/STM32MP1/optee-os/optee-os/ta/trusted_keys/entry.c:113
     18c:	f107 0311 	add.w	r3, r7, #17
/home/dangcaominh/STM32MP1/optee-os/optee-os/ta/trusted_keys/entry.c:112
     190:	9301      	str	r3, [sp, #4]
     192:	4631      	mov	r1, r6
     194:	9b07      	ldr	r3, [sp, #28]
     196:	4650      	mov	r0, sl
     198:	9502      	str	r5, [sp, #8]
     19a:	9300      	str	r3, [sp, #0]
     19c:	f107 0321 	add.w	r3, r7, #33	@ 0x21
     1a0:	f004 fd10 	bl	4bc4 <TEE_AEEncryptFinal>
/home/dangcaominh/STM32MP1/optee-os/optee-os/ta/trusted_keys/entry.c:114
     1a4:	b938      	cbnz	r0, 1b6 <huk_crypt+0x1b6>
/home/dangcaominh/STM32MP1/optee-os/optee-os/ta/trusted_keys/entry.c:114 (discriminator 1)
     1a6:	9b0b      	ldr	r3, [sp, #44]	@ 0x2c
     1a8:	455b      	cmp	r3, fp
     1aa:	d104      	bne.n	1b6 <huk_crypt+0x1b6>
/home/dangcaominh/STM32MP1/optee-os/optee-os/ta/trusted_keys/entry.c:117
     1ac:	9b0a      	ldr	r3, [sp, #40]	@ 0x28
/home/dangcaominh/STM32MP1/optee-os/optee-os/ta/trusted_keys/entry.c:117 (discriminator 1)
     1ae:	9a06      	ldr	r2, [sp, #24]
/home/dangcaominh/STM32MP1/optee-os/optee-os/ta/trusted_keys/entry.c:117
     1b0:	3321      	adds	r3, #33	@ 0x21
/home/dangcaominh/STM32MP1/optee-os/optee-os/ta/trusted_keys/entry.c:117 (discriminator 1)
     1b2:	6013      	str	r3, [r2, #0]
     1b4:	d30f      	bcc.n	1d6 <huk_crypt+0x1d6>
/home/dangcaominh/STM32MP1/optee-os/optee-os/ta/trusted_keys/entry.c:115
     1b6:	f8df 809c 	ldr.w	r8, [pc, #156]	@ 254 <huk_crypt+0x254>
huk_crypt():
/home/dangcaominh/STM32MP1/optee-os/optee-os/ta/trusted_keys/entry.c:187
     1ba:	4b2d      	ldr	r3, [pc, #180]	@ (270 <huk_crypt+0x270>)
     1bc:	21bb      	movs	r1, #187	@ 0xbb
     1be:	482d      	ldr	r0, [pc, #180]	@ (274 <huk_crypt+0x274>)
/home/dangcaominh/STM32MP1/optee-os/optee-os/ta/trusted_keys/entry.c:185
     1c0:	4644      	mov	r4, r8
/home/dangcaominh/STM32MP1/optee-os/optee-os/ta/trusted_keys/entry.c:187
     1c2:	447b      	add	r3, pc
     1c4:	9300      	str	r3, [sp, #0]
     1c6:	2301      	movs	r3, #1
     1c8:	4478      	add	r0, pc
     1ca:	461a      	mov	r2, r3
     1cc:	f8cd 8004 	str.w	r8, [sp, #4]
     1d0:	3010      	adds	r0, #16
     1d2:	f000 faff 	bl	7d4 <trace_printf>
/home/dangcaominh/STM32MP1/optee-os/optee-os/ta/trusted_keys/entry.c:197
     1d6:	9809      	ldr	r0, [sp, #36]	@ 0x24
     1d8:	f002 f924 	bl	2424 <TEE_FreeTransientObject>
     1dc:	e77c      	b.n	d8 <huk_crypt+0xd8>
huk_ae_decrypt():
/home/dangcaominh/STM32MP1/optee-os/optee-os/ta/trusted_keys/entry.c:131
     1de:	f1b3 0821 	subs.w	r8, r3, #33	@ 0x21
     1e2:	d31e      	bcc.n	222 <huk_crypt+0x222>
/home/dangcaominh/STM32MP1/optee-os/optee-os/ta/trusted_keys/entry.c:134
     1e4:	9001      	str	r0, [sp, #4]
     1e6:	2380      	movs	r3, #128	@ 0x80
     1e8:	9000      	str	r0, [sp, #0]
     1ea:	2210      	movs	r2, #16
     1ec:	1c71      	adds	r1, r6, #1
     1ee:	4650      	mov	r0, sl
     1f0:	f004 fbda 	bl	49a8 <TEE_AEInit>
/home/dangcaominh/STM32MP1/optee-os/optee-os/ta/trusted_keys/entry.c:135
     1f4:	4605      	mov	r5, r0
     1f6:	b9a8      	cbnz	r0, 224 <huk_crypt+0x224>
/home/dangcaominh/STM32MP1/optee-os/optee-os/ta/trusted_keys/entry.c:138
     1f8:	2510      	movs	r5, #16
     1fa:	f106 0111 	add.w	r1, r6, #17
     1fe:	462a      	mov	r2, r5
     200:	4648      	mov	r0, r9
     202:	f000 f9ab 	bl	55c <memcpy>
/home/dangcaominh/STM32MP1/optee-os/optee-os/ta/trusted_keys/entry.c:139
     206:	9b06      	ldr	r3, [sp, #24]
     208:	4642      	mov	r2, r8
     20a:	9502      	str	r5, [sp, #8]
     20c:	f106 0121 	add.w	r1, r6, #33	@ 0x21
     210:	9300      	str	r3, [sp, #0]
     212:	4650      	mov	r0, sl
     214:	f8cd 9004 	str.w	r9, [sp, #4]
     218:	463b      	mov	r3, r7
     21a:	f004 fdc9 	bl	4db0 <TEE_AEDecryptFinal>
/home/dangcaominh/STM32MP1/optee-os/optee-os/ta/trusted_keys/entry.c:141
     21e:	2800      	cmp	r0, #0
     220:	d0d9      	beq.n	1d6 <huk_crypt+0x1d6>
/home/dangcaominh/STM32MP1/optee-os/optee-os/ta/trusted_keys/entry.c:132
     222:	4d0c      	ldr	r5, [pc, #48]	@ (254 <huk_crypt+0x254>)
huk_crypt():
/home/dangcaominh/STM32MP1/optee-os/optee-os/ta/trusted_keys/entry.c:191
     224:	4b14      	ldr	r3, [pc, #80]	@ (278 <huk_crypt+0x278>)
     226:	21bf      	movs	r1, #191	@ 0xbf
     228:	4814      	ldr	r0, [pc, #80]	@ (27c <huk_crypt+0x27c>)
/home/dangcaominh/STM32MP1/optee-os/optee-os/ta/trusted_keys/entry.c:189
     22a:	462c      	mov	r4, r5
/home/dangcaominh/STM32MP1/optee-os/optee-os/ta/trusted_keys/entry.c:191
     22c:	447b      	add	r3, pc
     22e:	9300      	str	r3, [sp, #0]
     230:	2301      	movs	r3, #1
     232:	4478      	add	r0, pc
     234:	461a      	mov	r2, r3
     236:	9501      	str	r5, [sp, #4]
     238:	3010      	adds	r0, #16
     23a:	f000 facb 	bl	7d4 <trace_printf>
     23e:	e7ca      	b.n	1d6 <huk_crypt+0x1d6>
/home/dangcaominh/STM32MP1/optee-os/optee-os/ta/trusted_keys/entry.c:202
     240:	4620      	mov	r0, r4
     242:	b029      	add	sp, #164	@ 0xa4
     244:	ecbd 8b02 	vpop	{d8}
     248:	e8bd 8ff0 	ldmia.w	sp!, {r4, r5, r6, r7, r8, r9, sl, fp, pc}
     24c:	40000810 	.word	0x40000810
     250:	a0000010 	.word	0xa0000010
     254:	ffff000f 	.word	0xffff000f
     258:	0000e05e 	.word	0x0000e05e
     25c:	0000000c 	.word	0x0000000c
     260:	0000cc64 	.word	0x0000cc64
     264:	0000cdb6 	.word	0x0000cdb6
     268:	0000cc14 	.word	0x0000cc14
     26c:	0000df9a 	.word	0x0000df9a
     270:	0000cce1 	.word	0x0000cce1
     274:	0000cb14 	.word	0x0000cb14
     278:	0000cc9b 	.word	0x0000cc9b
     27c:	0000caaa 	.word	0x0000caaa

00000280 <TA_CreateEntryPoint>:
TA_CreateEntryPoint():
/home/dangcaominh/STM32MP1/optee-os/optee-os/ta/trusted_keys/entry.c:292
     280:	2000      	movs	r0, #0
     282:	4770      	bx	lr

00000284 <TA_DestroyEntryPoint>:
TA_DestroyEntryPoint():
/home/dangcaominh/STM32MP1/optee-os/optee-os/ta/trusted_keys/entry.c:296
     284:	4770      	bx	lr

00000286 <TA_OpenSessionEntryPoint>:
TA_OpenSessionEntryPoint():
/home/dangcaominh/STM32MP1/optee-os/optee-os/ta/trusted_keys/entry.c:301
     286:	4a20      	ldr	r2, [pc, #128]	@ (308 <TA_OpenSessionEntryPoint+0x82>)
     288:	4b20      	ldr	r3, [pc, #128]	@ (30c <TA_OpenSessionEntryPoint+0x86>)
     28a:	447a      	add	r2, pc
/home/dangcaominh/STM32MP1/optee-os/optee-os/ta/trusted_keys/entry.c:304
     28c:	efc0 0010 	vmov.i32	d16, #0	@ 0x00000000
/home/dangcaominh/STM32MP1/optee-os/optee-os/ta/trusted_keys/entry.c:301
     290:	b530      	push	{r4, r5, lr}
     292:	b089      	sub	sp, #36	@ 0x24
     294:	58d3      	ldr	r3, [r2, r3]
/home/dangcaominh/STM32MP1/optee-os/optee-os/ta/trusted_keys/entry.c:306
     296:	a801      	add	r0, sp, #4
/home/dangcaominh/STM32MP1/optee-os/optee-os/ta/trusted_keys/entry.c:304
     298:	ad02      	add	r5, sp, #8
/home/dangcaominh/STM32MP1/optee-os/optee-os/ta/trusted_keys/entry.c:301
     29a:	681b      	ldr	r3, [r3, #0]
     29c:	9307      	str	r3, [sp, #28]
     29e:	f04f 0300 	mov.w	r3, #0
/home/dangcaominh/STM32MP1/optee-os/optee-os/ta/trusted_keys/entry.c:303
     2a2:	2300      	movs	r3, #0
/home/dangcaominh/STM32MP1/optee-os/optee-os/ta/trusted_keys/entry.c:304
     2a4:	edcd 0b04 	vstr	d16, [sp, #16]
     2a8:	edcd 0b02 	vstr	d16, [sp, #8]
     2ac:	edcd 0b05 	vstr	d16, [sp, #20]
/home/dangcaominh/STM32MP1/optee-os/optee-os/ta/trusted_keys/entry.c:303
     2b0:	9301      	str	r3, [sp, #4]
/home/dangcaominh/STM32MP1/optee-os/optee-os/ta/trusted_keys/entry.c:306
     2b2:	f006 f95d 	bl	6570 <TEE_AllocatePropertyEnumerator>
/home/dangcaominh/STM32MP1/optee-os/optee-os/ta/trusted_keys/entry.c:307
     2b6:	4604      	mov	r4, r0
     2b8:	b988      	cbnz	r0, 2de <TA_OpenSessionEntryPoint+0x58>
/home/dangcaominh/STM32MP1/optee-os/optee-os/ta/trusted_keys/entry.c:310
     2ba:	f06f 0101 	mvn.w	r1, #1
     2be:	9801      	ldr	r0, [sp, #4]
     2c0:	f006 f96c 	bl	659c <TEE_StartPropertyEnumerator>
/home/dangcaominh/STM32MP1/optee-os/optee-os/ta/trusted_keys/entry.c:312
     2c4:	9801      	ldr	r0, [sp, #4]
     2c6:	4621      	mov	r1, r4
     2c8:	462a      	mov	r2, r5
     2ca:	f006 f901 	bl	64d0 <TEE_GetPropertyAsIdentity>
/home/dangcaominh/STM32MP1/optee-os/optee-os/ta/trusted_keys/entry.c:313
     2ce:	4604      	mov	r4, r0
     2d0:	b928      	cbnz	r0, 2de <TA_OpenSessionEntryPoint+0x58>
/home/dangcaominh/STM32MP1/optee-os/optee-os/ta/trusted_keys/entry.c:317
     2d2:	9a02      	ldr	r2, [sp, #8]
     2d4:	4b0b      	ldr	r3, [pc, #44]	@ (304 <TA_OpenSessionEntryPoint+0x7e>)
     2d6:	f1b2 4f00 	cmp.w	r2, #2147483648	@ 0x80000000
     2da:	bf18      	it	ne
     2dc:	461c      	movne	r4, r3
/home/dangcaominh/STM32MP1/optee-os/optee-os/ta/trusted_keys/entry.c:320
     2de:	9801      	ldr	r0, [sp, #4]
     2e0:	b108      	cbz	r0, 2e6 <TA_OpenSessionEntryPoint+0x60>
/home/dangcaominh/STM32MP1/optee-os/optee-os/ta/trusted_keys/entry.c:321
     2e2:	f006 f959 	bl	6598 <TEE_FreePropertyEnumerator>
/home/dangcaominh/STM32MP1/optee-os/optee-os/ta/trusted_keys/entry.c:301
     2e6:	4a0a      	ldr	r2, [pc, #40]	@ (310 <TA_OpenSessionEntryPoint+0x8a>)
/home/dangcaominh/STM32MP1/optee-os/optee-os/ta/trusted_keys/entry.c:323
     2e8:	4b08      	ldr	r3, [pc, #32]	@ (30c <TA_OpenSessionEntryPoint+0x86>)
/home/dangcaominh/STM32MP1/optee-os/optee-os/ta/trusted_keys/entry.c:301
     2ea:	447a      	add	r2, pc
/home/dangcaominh/STM32MP1/optee-os/optee-os/ta/trusted_keys/entry.c:323
     2ec:	58d3      	ldr	r3, [r2, r3]
     2ee:	681a      	ldr	r2, [r3, #0]
     2f0:	9b07      	ldr	r3, [sp, #28]
     2f2:	405a      	eors	r2, r3
     2f4:	f04f 0300 	mov.w	r3, #0
     2f8:	d001      	beq.n	2fe <TA_OpenSessionEntryPoint+0x78>
     2fa:	f000 f91b 	bl	534 <__stack_chk_fail>
     2fe:	4620      	mov	r0, r4
     300:	b009      	add	sp, #36	@ 0x24
     302:	bd30      	pop	{r4, r5, pc}
     304:	ffff0001 	.word	0xffff0001
     308:	0000ddfa 	.word	0x0000ddfa
     30c:	0000000c 	.word	0x0000000c
     310:	0000dd9a 	.word	0x0000dd9a

00000314 <TA_CloseSessionEntryPoint>:
TA_CloseSessionEntryPoint():
/home/dangcaominh/STM32MP1/optee-os/optee-os/ta/trusted_keys/entry.c:327
     314:	4770      	bx	lr

00000316 <TA_InvokeCommandEntryPoint>:
TA_InvokeCommandEntryPoint():
/home/dangcaominh/STM32MP1/optee-os/optee-os/ta/trusted_keys/entry.c:332
     316:	b57f      	push	{r0, r1, r2, r3, r4, r5, r6, lr}
     318:	461d      	mov	r5, r3
     31a:	485d      	ldr	r0, [pc, #372]	@ (490 <TA_InvokeCommandEntryPoint+0x17a>)
/home/dangcaominh/STM32MP1/optee-os/optee-os/ta/trusted_keys/entry.c:333
     31c:	2901      	cmp	r1, #1
/home/dangcaominh/STM32MP1/optee-os/optee-os/ta/trusted_keys/entry.c:332
     31e:	4b5d      	ldr	r3, [pc, #372]	@ (494 <TA_InvokeCommandEntryPoint+0x17e>)
     320:	460c      	mov	r4, r1
     322:	4478      	add	r0, pc
     324:	58c3      	ldr	r3, [r0, r3]
     326:	681b      	ldr	r3, [r3, #0]
     328:	9303      	str	r3, [sp, #12]
     32a:	f04f 0300 	mov.w	r3, #0
/home/dangcaominh/STM32MP1/optee-os/optee-os/ta/trusted_keys/entry.c:333
     32e:	d02b      	beq.n	388 <TA_InvokeCommandEntryPoint+0x72>
     330:	2902      	cmp	r1, #2
     332:	d05f      	beq.n	3f4 <TA_InvokeCommandEntryPoint+0xde>
     334:	2900      	cmp	r1, #0
     336:	f040 808f 	bne.w	458 <TA_InvokeCommandEntryPoint+0x142>
get_random():
/home/dangcaominh/STM32MP1/optee-os/optee-os/ta/trusted_keys/entry.c:38
     33a:	2a06      	cmp	r2, #6
     33c:	d126      	bne.n	38c <TA_InvokeCommandEntryPoint+0x76>
/home/dangcaominh/STM32MP1/optee-os/optee-os/ta/trusted_keys/entry.c:44
     33e:	682b      	ldr	r3, [r5, #0]
     340:	b323      	cbz	r3, 38c <TA_InvokeCommandEntryPoint+0x76>
/home/dangcaominh/STM32MP1/optee-os/optee-os/ta/trusted_keys/entry.c:44 (discriminator 1)
     342:	6868      	ldr	r0, [r5, #4]
     344:	b310      	cbz	r0, 38c <TA_InvokeCommandEntryPoint+0x76>
/home/dangcaominh/STM32MP1/optee-os/optee-os/ta/trusted_keys/entry.c:47
     346:	f001 fcca 	bl	1cde <TEE_Malloc>
/home/dangcaominh/STM32MP1/optee-os/optee-os/ta/trusted_keys/entry.c:48
     34a:	4606      	mov	r6, r0
     34c:	2800      	cmp	r0, #0
     34e:	f000 8092 	beq.w	476 <TA_InvokeCommandEntryPoint+0x160>
/home/dangcaominh/STM32MP1/optee-os/optee-os/ta/trusted_keys/entry.c:51
     352:	6869      	ldr	r1, [r5, #4]
     354:	f005 fac6 	bl	58e4 <TEE_GenerateRandom>
/home/dangcaominh/STM32MP1/optee-os/optee-os/ta/trusted_keys/entry.c:52
     358:	686a      	ldr	r2, [r5, #4]
     35a:	4631      	mov	r1, r6
     35c:	6828      	ldr	r0, [r5, #0]
     35e:	f000 f8fd 	bl	55c <memcpy>
/home/dangcaominh/STM32MP1/optee-os/optee-os/ta/trusted_keys/entry.c:53
     362:	6869      	ldr	r1, [r5, #4]
     364:	4630      	mov	r0, r6
     366:	f00c fc29 	bl	cbbc <memzero_explicit>
/home/dangcaominh/STM32MP1/optee-os/optee-os/ta/trusted_keys/entry.c:55
     36a:	4630      	mov	r0, r6
     36c:	f001 fd12 	bl	1d94 <TEE_Free>
TA_InvokeCommandEntryPoint():
/home/dangcaominh/STM32MP1/optee-os/optee-os/ta/trusted_keys/entry.c:332
     370:	4a49      	ldr	r2, [pc, #292]	@ (498 <TA_InvokeCommandEntryPoint+0x182>)
/home/dangcaominh/STM32MP1/optee-os/optee-os/ta/trusted_keys/entry.c:344
     372:	4b48      	ldr	r3, [pc, #288]	@ (494 <TA_InvokeCommandEntryPoint+0x17e>)
/home/dangcaominh/STM32MP1/optee-os/optee-os/ta/trusted_keys/entry.c:332
     374:	447a      	add	r2, pc
/home/dangcaominh/STM32MP1/optee-os/optee-os/ta/trusted_keys/entry.c:344
     376:	58d3      	ldr	r3, [r2, r3]
     378:	681a      	ldr	r2, [r3, #0]
     37a:	9b03      	ldr	r3, [sp, #12]
     37c:	405a      	eors	r2, r3
     37e:	f04f 0300 	mov.w	r3, #0
     382:	d07a      	beq.n	47a <TA_InvokeCommandEntryPoint+0x164>
     384:	f000 f8d6 	bl	534 <__stack_chk_fail>
seal_trusted_key():
/home/dangcaominh/STM32MP1/optee-os/optee-os/ta/trusted_keys/entry.c:215
     388:	2a65      	cmp	r2, #101	@ 0x65
     38a:	d001      	beq.n	390 <TA_InvokeCommandEntryPoint+0x7a>
get_random():
/home/dangcaominh/STM32MP1/optee-os/optee-os/ta/trusted_keys/entry.c:42
     38c:	4c3c      	ldr	r4, [pc, #240]	@ (480 <TA_InvokeCommandEntryPoint+0x16a>)
     38e:	e7ef      	b.n	370 <TA_InvokeCommandEntryPoint+0x5a>
seal_trusted_key():
/home/dangcaominh/STM32MP1/optee-os/optee-os/ta/trusted_keys/entry.c:223
     390:	e895 000e 	ldmia.w	r5, {r1, r2, r3}
/home/dangcaominh/STM32MP1/optee-os/optee-os/ta/trusted_keys/entry.c:224
     394:	68e8      	ldr	r0, [r5, #12]
     396:	9002      	str	r0, [sp, #8]
/home/dangcaominh/STM32MP1/optee-os/optee-os/ta/trusted_keys/entry.c:226
     398:	2900      	cmp	r1, #0
     39a:	d0f7      	beq.n	38c <TA_InvokeCommandEntryPoint+0x76>
/home/dangcaominh/STM32MP1/optee-os/optee-os/ta/trusted_keys/entry.c:226 (discriminator 1)
     39c:	1e54      	subs	r4, r2, #1
     39e:	f5b4 7f00 	cmp.w	r4, #512	@ 0x200
     3a2:	d2f3      	bcs.n	38c <TA_InvokeCommandEntryPoint+0x76>
/home/dangcaominh/STM32MP1/optee-os/optee-os/ta/trusted_keys/entry.c:228
     3a4:	b933      	cbnz	r3, 3b4 <TA_InvokeCommandEntryPoint+0x9e>
/home/dangcaominh/STM32MP1/optee-os/optee-os/ta/trusted_keys/entry.c:228 (discriminator 1)
     3a6:	2800      	cmp	r0, #0
     3a8:	d1f0      	bne.n	38c <TA_InvokeCommandEntryPoint+0x76>
/home/dangcaominh/STM32MP1/optee-os/optee-os/ta/trusted_keys/entry.c:233
     3aa:	f102 0621 	add.w	r6, r2, #33	@ 0x21
unseal_trusted_key():
/home/dangcaominh/STM32MP1/optee-os/optee-os/ta/trusted_keys/entry.c:277
     3ae:	4c35      	ldr	r4, [pc, #212]	@ (484 <TA_InvokeCommandEntryPoint+0x16e>)
/home/dangcaominh/STM32MP1/optee-os/optee-os/ta/trusted_keys/entry.c:276
     3b0:	60ee      	str	r6, [r5, #12]
/home/dangcaominh/STM32MP1/optee-os/optee-os/ta/trusted_keys/entry.c:277
     3b2:	e7dd      	b.n	370 <TA_InvokeCommandEntryPoint+0x5a>
seal_trusted_key():
/home/dangcaominh/STM32MP1/optee-os/optee-os/ta/trusted_keys/entry.c:229 (discriminator 1)
     3b4:	f5b0 7f00 	cmp.w	r0, #512	@ 0x200
     3b8:	d8e8      	bhi.n	38c <TA_InvokeCommandEntryPoint+0x76>
/home/dangcaominh/STM32MP1/optee-os/optee-os/ta/trusted_keys/entry.c:233
     3ba:	f102 0621 	add.w	r6, r2, #33	@ 0x21
     3be:	42b0      	cmp	r0, r6
     3c0:	d3f5      	bcc.n	3ae <TA_InvokeCommandEntryPoint+0x98>
/home/dangcaominh/STM32MP1/optee-os/optee-os/ta/trusted_keys/entry.c:238
     3c2:	a802      	add	r0, sp, #8
     3c4:	9000      	str	r0, [sp, #0]
     3c6:	2000      	movs	r0, #0
     3c8:	f7ff fe1a 	bl	0 <huk_crypt>
/home/dangcaominh/STM32MP1/optee-os/optee-os/ta/trusted_keys/entry.c:239
     3cc:	4604      	mov	r4, r0
     3ce:	2800      	cmp	r0, #0
     3d0:	d1ce      	bne.n	370 <TA_InvokeCommandEntryPoint+0x5a>
/home/dangcaominh/STM32MP1/optee-os/optee-os/ta/trusted_keys/entry.c:240
     3d2:	9b02      	ldr	r3, [sp, #8]
     3d4:	429e      	cmp	r6, r3
     3d6:	d00b      	beq.n	3f0 <TA_InvokeCommandEntryPoint+0xda>
_assert_trap():
/home/dangcaominh/STM32MP1/optee-os/optee-os/../build/optee-programmer-stm32mp157d-dk1/export-ta_arm32/include/assert.h:19
     3d8:	4b30      	ldr	r3, [pc, #192]	@ (49c <TA_InvokeCommandEntryPoint+0x186>)
     3da:	22f0      	movs	r2, #240	@ 0xf0
     3dc:	4930      	ldr	r1, [pc, #192]	@ (4a0 <TA_InvokeCommandEntryPoint+0x18a>)
     3de:	4831      	ldr	r0, [pc, #196]	@ (4a4 <TA_InvokeCommandEntryPoint+0x18e>)
     3e0:	447b      	add	r3, pc
     3e2:	4479      	add	r1, pc
     3e4:	331a      	adds	r3, #26
     3e6:	4478      	add	r0, pc
     3e8:	f000 ff3e 	bl	1268 <_assert_log>
/home/dangcaominh/STM32MP1/optee-os/optee-os/../build/optee-programmer-stm32mp157d-dk1/export-ta_arm32/include/assert.h:20
     3ec:	f000 ff50 	bl	1290 <_assert_break>
seal_trusted_key():
/home/dangcaominh/STM32MP1/optee-os/optee-os/ta/trusted_keys/entry.c:241
     3f0:	60ee      	str	r6, [r5, #12]
TA_InvokeCommandEntryPoint():
/home/dangcaominh/STM32MP1/optee-os/optee-os/ta/trusted_keys/entry.c:337
     3f2:	e7bd      	b.n	370 <TA_InvokeCommandEntryPoint+0x5a>
unseal_trusted_key():
/home/dangcaominh/STM32MP1/optee-os/optee-os/ta/trusted_keys/entry.c:258
     3f4:	2a65      	cmp	r2, #101	@ 0x65
     3f6:	d1c9      	bne.n	38c <TA_InvokeCommandEntryPoint+0x76>
/home/dangcaominh/STM32MP1/optee-os/optee-os/ta/trusted_keys/entry.c:267
     3f8:	68ea      	ldr	r2, [r5, #12]
/home/dangcaominh/STM32MP1/optee-os/optee-os/ta/trusted_keys/entry.c:265
     3fa:	e9d5 1600 	ldrd	r1, r6, [r5]
/home/dangcaominh/STM32MP1/optee-os/optee-os/ta/trusted_keys/entry.c:266
     3fe:	68ab      	ldr	r3, [r5, #8]
/home/dangcaominh/STM32MP1/optee-os/optee-os/ta/trusted_keys/entry.c:267
     400:	9202      	str	r2, [sp, #8]
/home/dangcaominh/STM32MP1/optee-os/optee-os/ta/trusted_keys/entry.c:269
     402:	2900      	cmp	r1, #0
     404:	d0c2      	beq.n	38c <TA_InvokeCommandEntryPoint+0x76>
/home/dangcaominh/STM32MP1/optee-os/optee-os/ta/trusted_keys/entry.c:269 (discriminator 2)
     406:	f1a6 0022 	sub.w	r0, r6, #34	@ 0x22
     40a:	f5b0 7fef 	cmp.w	r0, #478	@ 0x1de
     40e:	d8bd      	bhi.n	38c <TA_InvokeCommandEntryPoint+0x76>
/home/dangcaominh/STM32MP1/optee-os/optee-os/ta/trusted_keys/entry.c:272
     410:	b91b      	cbnz	r3, 41a <TA_InvokeCommandEntryPoint+0x104>
/home/dangcaominh/STM32MP1/optee-os/optee-os/ta/trusted_keys/entry.c:272 (discriminator 1)
     412:	2a00      	cmp	r2, #0
     414:	d1ba      	bne.n	38c <TA_InvokeCommandEntryPoint+0x76>
/home/dangcaominh/STM32MP1/optee-os/optee-os/ta/trusted_keys/entry.c:276
     416:	3e21      	subs	r6, #33	@ 0x21
     418:	e7c9      	b.n	3ae <TA_InvokeCommandEntryPoint+0x98>
/home/dangcaominh/STM32MP1/optee-os/optee-os/ta/trusted_keys/entry.c:272 (discriminator 3)
     41a:	f5b2 7f00 	cmp.w	r2, #512	@ 0x200
     41e:	d8b5      	bhi.n	38c <TA_InvokeCommandEntryPoint+0x76>
/home/dangcaominh/STM32MP1/optee-os/optee-os/ta/trusted_keys/entry.c:275
     420:	3221      	adds	r2, #33	@ 0x21
     422:	4296      	cmp	r6, r2
     424:	d8f7      	bhi.n	416 <TA_InvokeCommandEntryPoint+0x100>
/home/dangcaominh/STM32MP1/optee-os/optee-os/ta/trusted_keys/entry.c:280
     426:	aa02      	add	r2, sp, #8
     428:	2001      	movs	r0, #1
     42a:	9200      	str	r2, [sp, #0]
     42c:	4632      	mov	r2, r6
     42e:	f7ff fde7 	bl	0 <huk_crypt>
/home/dangcaominh/STM32MP1/optee-os/optee-os/ta/trusted_keys/entry.c:281
     432:	4604      	mov	r4, r0
     434:	2800      	cmp	r0, #0
     436:	d19b      	bne.n	370 <TA_InvokeCommandEntryPoint+0x5a>
/home/dangcaominh/STM32MP1/optee-os/optee-os/ta/trusted_keys/entry.c:282
     438:	9b02      	ldr	r3, [sp, #8]
     43a:	3e21      	subs	r6, #33	@ 0x21
     43c:	429e      	cmp	r6, r3
     43e:	d009      	beq.n	454 <TA_InvokeCommandEntryPoint+0x13e>
_assert_trap():
/home/dangcaominh/STM32MP1/optee-os/optee-os/../build/optee-programmer-stm32mp157d-dk1/export-ta_arm32/include/assert.h:19
     440:	4b19      	ldr	r3, [pc, #100]	@ (4a8 <TA_InvokeCommandEntryPoint+0x192>)
     442:	f44f 728d 	mov.w	r2, #282	@ 0x11a
     446:	4919      	ldr	r1, [pc, #100]	@ (4ac <TA_InvokeCommandEntryPoint+0x196>)
     448:	4819      	ldr	r0, [pc, #100]	@ (4b0 <TA_InvokeCommandEntryPoint+0x19a>)
     44a:	447b      	add	r3, pc
     44c:	4479      	add	r1, pc
     44e:	332b      	adds	r3, #43	@ 0x2b
     450:	4478      	add	r0, pc
     452:	e7c9      	b.n	3e8 <TA_InvokeCommandEntryPoint+0xd2>
unseal_trusted_key():
/home/dangcaominh/STM32MP1/optee-os/optee-os/ta/trusted_keys/entry.c:283
     454:	60eb      	str	r3, [r5, #12]
TA_InvokeCommandEntryPoint():
/home/dangcaominh/STM32MP1/optee-os/optee-os/ta/trusted_keys/entry.c:339
     456:	e78b      	b.n	370 <TA_InvokeCommandEntryPoint+0x5a>
/home/dangcaominh/STM32MP1/optee-os/optee-os/ta/trusted_keys/entry.c:341
     458:	4b16      	ldr	r3, [pc, #88]	@ (4b4 <TA_InvokeCommandEntryPoint+0x19e>)
     45a:	4817      	ldr	r0, [pc, #92]	@ (4b8 <TA_InvokeCommandEntryPoint+0x1a2>)
     45c:	447b      	add	r3, pc
     45e:	9300      	str	r3, [sp, #0]
     460:	2301      	movs	r3, #1
     462:	4478      	add	r0, pc
     464:	461a      	mov	r2, r3
     466:	9101      	str	r1, [sp, #4]
     468:	303e      	adds	r0, #62	@ 0x3e
/home/dangcaominh/STM32MP1/optee-os/optee-os/ta/trusted_keys/entry.c:342
     46a:	4c07      	ldr	r4, [pc, #28]	@ (488 <TA_InvokeCommandEntryPoint+0x172>)
/home/dangcaominh/STM32MP1/optee-os/optee-os/ta/trusted_keys/entry.c:341
     46c:	f240 1155 	movw	r1, #341	@ 0x155
     470:	f000 f9b0 	bl	7d4 <trace_printf>
/home/dangcaominh/STM32MP1/optee-os/optee-os/ta/trusted_keys/entry.c:342
     474:	e77c      	b.n	370 <TA_InvokeCommandEntryPoint+0x5a>
get_random():
/home/dangcaominh/STM32MP1/optee-os/optee-os/ta/trusted_keys/entry.c:49
     476:	4c05      	ldr	r4, [pc, #20]	@ (48c <TA_InvokeCommandEntryPoint+0x176>)
     478:	e77a      	b.n	370 <TA_InvokeCommandEntryPoint+0x5a>
TA_InvokeCommandEntryPoint():
/home/dangcaominh/STM32MP1/optee-os/optee-os/ta/trusted_keys/entry.c:344
     47a:	4620      	mov	r0, r4
     47c:	b004      	add	sp, #16
     47e:	bd70      	pop	{r4, r5, r6, pc}
     480:	ffff0006 	.word	0xffff0006
     484:	ffff0010 	.word	0xffff0010
     488:	ffff000a 	.word	0xffff000a
     48c:	ffff000c 	.word	0xffff000c
     490:	0000dd62 	.word	0x0000dd62
     494:	0000000c 	.word	0x0000000c
     498:	0000dd10 	.word	0x0000dd10
     49c:	0000c8fc 	.word	0x0000c8fc
     4a0:	0000cb09 	.word	0x0000cb09
     4a4:	0000cb1d 	.word	0x0000cb1d
     4a8:	0000c892 	.word	0x0000c892
     4ac:	0000ca9f 	.word	0x0000ca9f
     4b0:	0000cae0 	.word	0x0000cae0
     4b4:	0000cb01 	.word	0x0000cb01
     4b8:	0000c87a 	.word	0x0000c87a

000004bc <__ta_entry_c>:
__ta_entry_c():
/home/dangcaominh/STM32MP1/optee-os/optee-os/../build/optee-programmer-stm32mp157d-dk1/export-ta_arm32/src/user_ta_header.c:55
     4bc:	f8df 805c 	ldr.w	r8, [pc, #92]	@ 51c <__ta_entry_c+0x60>
/home/dangcaominh/STM32MP1/optee-os/optee-os/../build/optee-programmer-stm32mp157d-dk1/export-ta_arm32/src/user_ta_header.c:51
     4c0:	4616      	mov	r6, r2
     4c2:	4a17      	ldr	r2, [pc, #92]	@ (520 <__ta_entry_c+0x64>)
     4c4:	4604      	mov	r4, r0
     4c6:	b583      	push	{r0, r1, r7, lr}
     4c8:	461f      	mov	r7, r3
     4ca:	447a      	add	r2, pc
     4cc:	460d      	mov	r5, r1
     4ce:	4b15      	ldr	r3, [pc, #84]	@ (524 <__ta_entry_c+0x68>)
/home/dangcaominh/STM32MP1/optee-os/optee-os/../build/optee-programmer-stm32mp157d-dk1/export-ta_arm32/src/user_ta_header.c:55
     4d0:	44f8      	add	r8, pc
/home/dangcaominh/STM32MP1/optee-os/optee-os/../build/optee-programmer-stm32mp157d-dk1/export-ta_arm32/src/user_ta_header.c:51
     4d2:	58d3      	ldr	r3, [r2, r3]
     4d4:	f8df 9050 	ldr.w	r9, [pc, #80]	@ 528 <__ta_entry_c+0x6c>
     4d8:	681b      	ldr	r3, [r3, #0]
     4da:	9301      	str	r3, [sp, #4]
     4dc:	f04f 0300 	mov.w	r3, #0
/home/dangcaominh/STM32MP1/optee-os/optee-os/../build/optee-programmer-stm32mp157d-dk1/export-ta_arm32/src/user_ta_header.c:55
     4e0:	f898 3000 	ldrb.w	r3, [r8]
/home/dangcaominh/STM32MP1/optee-os/optee-os/../build/optee-programmer-stm32mp157d-dk1/export-ta_arm32/src/user_ta_header.c:51
     4e4:	44f9      	add	r9, pc
/home/dangcaominh/STM32MP1/optee-os/optee-os/../build/optee-programmer-stm32mp157d-dk1/export-ta_arm32/src/user_ta_header.c:55
     4e6:	b98b      	cbnz	r3, 50c <__ta_entry_c+0x50>
/home/dangcaominh/STM32MP1/optee-os/optee-os/../build/optee-programmer-stm32mp157d-dk1/export-ta_arm32/src/user_ta_header.c:56
     4e8:	9300      	str	r3, [sp, #0]
/home/dangcaominh/STM32MP1/optee-os/optee-os/../build/optee-programmer-stm32mp157d-dk1/export-ta_arm32/src/user_ta_header.c:58
     4ea:	2104      	movs	r1, #4
     4ec:	4668      	mov	r0, sp
     4ee:	f006 ee5a 	blx	71a4 <_utee_cryp_random_number_generate>
/home/dangcaominh/STM32MP1/optee-os/optee-os/../build/optee-programmer-stm32mp157d-dk1/export-ta_arm32/src/user_ta_header.c:60
     4f2:	b108      	cbz	r0, 4f8 <__ta_entry_c+0x3c>
/home/dangcaominh/STM32MP1/optee-os/optee-os/../build/optee-programmer-stm32mp157d-dk1/export-ta_arm32/src/user_ta_header.c:81
     4f4:	f006 ecfe 	blx	6ef4 <_utee_return>
/home/dangcaominh/STM32MP1/optee-os/optee-os/../build/optee-programmer-stm32mp157d-dk1/export-ta_arm32/src/user_ta_header.c:66
     4f8:	4b0a      	ldr	r3, [pc, #40]	@ (524 <__ta_entry_c+0x68>)
     4fa:	f859 2003 	ldr.w	r2, [r9, r3]
/home/dangcaominh/STM32MP1/optee-os/optee-os/../build/optee-programmer-stm32mp157d-dk1/export-ta_arm32/src/user_ta_header.c:64
     4fe:	9b00      	ldr	r3, [sp, #0]
     500:	f023 03ff 	bic.w	r3, r3, #255	@ 0xff
/home/dangcaominh/STM32MP1/optee-os/optee-os/../build/optee-programmer-stm32mp157d-dk1/export-ta_arm32/src/user_ta_header.c:66
     504:	6013      	str	r3, [r2, #0]
/home/dangcaominh/STM32MP1/optee-os/optee-os/../build/optee-programmer-stm32mp157d-dk1/export-ta_arm32/src/user_ta_header.c:67
     506:	2301      	movs	r3, #1
     508:	f888 3000 	strb.w	r3, [r8]
/home/dangcaominh/STM32MP1/optee-os/optee-os/../build/optee-programmer-stm32mp157d-dk1/export-ta_arm32/src/user_ta_header.c:70
     50c:	463b      	mov	r3, r7
     50e:	4632      	mov	r2, r6
     510:	4629      	mov	r1, r5
     512:	4620      	mov	r0, r4
     514:	f006 fbce 	bl	6cb4 <__utee_entry>
     518:	e7ec      	b.n	4f4 <__ta_entry_c+0x38>
     51a:	bf00      	nop
     51c:	00011754 	.word	0x00011754
     520:	0000dbba 	.word	0x0000dbba
     524:	0000000c 	.word	0x0000000c
     528:	0000dba0 	.word	0x0000dba0

0000052c <tahead_get_trace_level>:
tahead_get_trace_level():
/home/dangcaominh/STM32MP1/optee-os/optee-os/../build/optee-programmer-stm32mp157d-dk1/export-ta_arm32/src/user_ta_header.c:193
     52c:	2001      	movs	r0, #1
     52e:	4770      	bx	lr

00000530 <__ta_entry>:
__ta_entry():
/home/dangcaominh/STM32MP1/optee-os/optee-os/../build/optee-programmer-stm32mp157d-dk1/export-ta_arm32/src/ta_entry_a32.S:22
     530:	faffffe1 	blx	4bc <__ta_entry_c>

00000534 <__stack_chk_fail>:
__stack_chk_fail():
/home/dangcaominh/STM32MP1/optee-os/optee-os/lib/libutils/isoc/stack_check.c:25
     534:	4b08      	ldr	r3, [pc, #32]	@ (558 <__stack_chk_fail+0x24>)
/home/dangcaominh/STM32MP1/optee-os/optee-os/lib/libutils/isoc/stack_check.c:24
     536:	b507      	push	{r0, r1, r2, lr}
/home/dangcaominh/STM32MP1/optee-os/optee-os/lib/libutils/isoc/stack_check.c:25
     538:	2100      	movs	r1, #0
     53a:	447b      	add	r3, pc
     53c:	4608      	mov	r0, r1
     53e:	9300      	str	r3, [sp, #0]
     540:	2301      	movs	r3, #1
/home/dangcaominh/STM32MP1/optee-os/optee-os/lib/libutils/isoc/stack_check.c:27 (discriminator 1)
     542:	4c04      	ldr	r4, [pc, #16]	@ (554 <__stack_chk_fail+0x20>)
/home/dangcaominh/STM32MP1/optee-os/optee-os/lib/libutils/isoc/stack_check.c:25
     544:	461a      	mov	r2, r3
     546:	f000 f945 	bl	7d4 <trace_printf>
/home/dangcaominh/STM32MP1/optee-os/optee-os/lib/libutils/isoc/stack_check.c:27 (discriminator 1)
     54a:	4620      	mov	r0, r4
     54c:	f006 ecc8 	blx	6ee0 <_utee_panic>
/home/dangcaominh/STM32MP1/optee-os/optee-os/lib/libutils/isoc/stack_check.c:26
     550:	e7fb      	b.n	54a <__stack_chk_fail+0x16>
     552:	bf00      	nop
     554:	ffff300f 	.word	0xffff300f
     558:	0000cb28 	.word	0x0000cb28

0000055c <memcpy>:
memcpy():
/home/dangcaominh/STM32MP1/optee-os/optee-os/lib/libutils/isoc/newlib/memcpy.c:106
     55c:	2a0f      	cmp	r2, #15
     55e:	d912      	bls.n	586 <memcpy+0x2a>
/home/dangcaominh/STM32MP1/optee-os/optee-os/lib/libutils/isoc/newlib/memcpy.c:106 (discriminator 1)
     560:	ea40 0301 	orr.w	r3, r0, r1
     564:	079b      	lsls	r3, r3, #30
/home/dangcaominh/STM32MP1/optee-os/optee-os/lib/libutils/isoc/newlib/memcpy.c:130
     566:	bf1c      	itt	ne
     568:	f102 3cff 	addne.w	ip, r2, #4294967295	@ 0xffffffff
/home/dangcaominh/STM32MP1/optee-os/optee-os/lib/libutils/isoc/newlib/memcpy.c:99
     56c:	4603      	movne	r3, r0
/home/dangcaominh/STM32MP1/optee-os/optee-os/lib/libutils/isoc/newlib/memcpy.c:106 (discriminator 1)
     56e:	d010      	beq.n	592 <memcpy+0x36>
     570:	f10c 0c01 	add.w	ip, ip, #1
     574:	3b01      	subs	r3, #1
     576:	448c      	add	ip, r1
/home/dangcaominh/STM32MP1/optee-os/optee-os/lib/libutils/isoc/newlib/memcpy.c:131
     578:	f811 2b01 	ldrb.w	r2, [r1], #1
/home/dangcaominh/STM32MP1/optee-os/optee-os/lib/libutils/isoc/newlib/memcpy.c:130
     57c:	4561      	cmp	r1, ip
/home/dangcaominh/STM32MP1/optee-os/optee-os/lib/libutils/isoc/newlib/memcpy.c:131
     57e:	f803 2f01 	strb.w	r2, [r3, #1]!
/home/dangcaominh/STM32MP1/optee-os/optee-os/lib/libutils/isoc/newlib/memcpy.c:130
     582:	d1f9      	bne.n	578 <memcpy+0x1c>
     584:	4770      	bx	lr
/home/dangcaominh/STM32MP1/optee-os/optee-os/lib/libutils/isoc/newlib/memcpy.c:99
     586:	4603      	mov	r3, r0
/home/dangcaominh/STM32MP1/optee-os/optee-os/lib/libutils/isoc/newlib/memcpy.c:130
     588:	f102 3cff 	add.w	ip, r2, #4294967295	@ 0xffffffff
     58c:	2a00      	cmp	r2, #0
     58e:	d1ef      	bne.n	570 <memcpy+0x14>
/home/dangcaominh/STM32MP1/optee-os/optee-os/lib/libutils/isoc/newlib/memcpy.c:135
     590:	4770      	bx	lr
     592:	f1a2 0310 	sub.w	r3, r2, #16
     596:	f101 0c20 	add.w	ip, r1, #32
/home/dangcaominh/STM32MP1/optee-os/optee-os/lib/libutils/isoc/newlib/memcpy.c:87
     59a:	b570      	push	{r4, r5, r6, lr}
     59c:	f101 0410 	add.w	r4, r1, #16
     5a0:	f023 060f 	bic.w	r6, r3, #15
     5a4:	f100 0510 	add.w	r5, r0, #16
     5a8:	44b4      	add	ip, r6
     5aa:	ea4f 1e13 	mov.w	lr, r3, lsr #4
/home/dangcaominh/STM32MP1/optee-os/optee-os/lib/libutils/isoc/newlib/memcpy.c:112
     5ae:	f854 3c10 	ldr.w	r3, [r4, #-16]
/home/dangcaominh/STM32MP1/optee-os/optee-os/lib/libutils/isoc/newlib/memcpy.c:111
     5b2:	3410      	adds	r4, #16
     5b4:	4564      	cmp	r4, ip
     5b6:	f105 0510 	add.w	r5, r5, #16
/home/dangcaominh/STM32MP1/optee-os/optee-os/lib/libutils/isoc/newlib/memcpy.c:112
     5ba:	f845 3c20 	str.w	r3, [r5, #-32]
/home/dangcaominh/STM32MP1/optee-os/optee-os/lib/libutils/isoc/newlib/memcpy.c:113
     5be:	f854 3c1c 	ldr.w	r3, [r4, #-28]
     5c2:	f845 3c1c 	str.w	r3, [r5, #-28]
/home/dangcaominh/STM32MP1/optee-os/optee-os/lib/libutils/isoc/newlib/memcpy.c:114
     5c6:	f854 3c18 	ldr.w	r3, [r4, #-24]
     5ca:	f845 3c18 	str.w	r3, [r5, #-24]
/home/dangcaominh/STM32MP1/optee-os/optee-os/lib/libutils/isoc/newlib/memcpy.c:115
     5ce:	f854 3c14 	ldr.w	r3, [r4, #-20]
     5d2:	f845 3c14 	str.w	r3, [r5, #-20]
/home/dangcaominh/STM32MP1/optee-os/optee-os/lib/libutils/isoc/newlib/memcpy.c:111
     5d6:	d1ea      	bne.n	5ae <memcpy+0x52>
     5d8:	f10e 0301 	add.w	r3, lr, #1
/home/dangcaominh/STM32MP1/optee-os/optee-os/lib/libutils/isoc/newlib/memcpy.c:120
     5dc:	f012 0f0c 	tst.w	r2, #12
     5e0:	f002 050f 	and.w	r5, r2, #15
     5e4:	ea4f 1303 	mov.w	r3, r3, lsl #4
     5e8:	bf08      	it	eq
     5ea:	462a      	moveq	r2, r5
     5ec:	4419      	add	r1, r3
     5ee:	4403      	add	r3, r0
     5f0:	d012      	beq.n	618 <memcpy+0xbc>
     5f2:	3d04      	subs	r5, #4
     5f4:	1f1c      	subs	r4, r3, #4
     5f6:	f025 0e03 	bic.w	lr, r5, #3
     5fa:	468c      	mov	ip, r1
     5fc:	08ad      	lsrs	r5, r5, #2
     5fe:	449e      	add	lr, r3
/home/dangcaominh/STM32MP1/optee-os/optee-os/lib/libutils/isoc/newlib/memcpy.c:121
     600:	f85c 6b04 	ldr.w	r6, [ip], #4
     604:	f844 6f04 	str.w	r6, [r4, #4]!
/home/dangcaominh/STM32MP1/optee-os/optee-os/lib/libutils/isoc/newlib/memcpy.c:120
     608:	4574      	cmp	r4, lr
     60a:	d1f9      	bne.n	600 <memcpy+0xa4>
     60c:	1c6c      	adds	r4, r5, #1
     60e:	f002 0203 	and.w	r2, r2, #3
     612:	00a4      	lsls	r4, r4, #2
/home/dangcaominh/STM32MP1/optee-os/optee-os/lib/libutils/isoc/newlib/memcpy.c:126
     614:	4423      	add	r3, r4
/home/dangcaominh/STM32MP1/optee-os/optee-os/lib/libutils/isoc/newlib/memcpy.c:127
     616:	4421      	add	r1, r4
/home/dangcaominh/STM32MP1/optee-os/optee-os/lib/libutils/isoc/newlib/memcpy.c:130
     618:	f102 3cff 	add.w	ip, r2, #4294967295	@ 0xffffffff
     61c:	3b01      	subs	r3, #1
     61e:	f10c 0c01 	add.w	ip, ip, #1
     622:	448c      	add	ip, r1
     624:	b12a      	cbz	r2, 632 <memcpy+0xd6>
/home/dangcaominh/STM32MP1/optee-os/optee-os/lib/libutils/isoc/newlib/memcpy.c:131
     626:	f811 2b01 	ldrb.w	r2, [r1], #1
/home/dangcaominh/STM32MP1/optee-os/optee-os/lib/libutils/isoc/newlib/memcpy.c:130
     62a:	4561      	cmp	r1, ip
/home/dangcaominh/STM32MP1/optee-os/optee-os/lib/libutils/isoc/newlib/memcpy.c:131
     62c:	f803 2f01 	strb.w	r2, [r3, #1]!
/home/dangcaominh/STM32MP1/optee-os/optee-os/lib/libutils/isoc/newlib/memcpy.c:130
     630:	d1f9      	bne.n	626 <memcpy+0xca>
/home/dangcaominh/STM32MP1/optee-os/optee-os/lib/libutils/isoc/newlib/memcpy.c:135
     632:	bd70      	pop	{r4, r5, r6, pc}

00000634 <trace_set_level>:
trace_set_level():
/home/dangcaominh/STM32MP1/optee-os/optee-os/lib/libutils/ext/trace.c:24
     634:	4b04      	ldr	r3, [pc, #16]	@ (648 <trace_set_level+0x14>)
/home/dangcaominh/STM32MP1/optee-os/optee-os/lib/libutils/ext/trace.c:28
     636:	2805      	cmp	r0, #5
     638:	4a04      	ldr	r2, [pc, #16]	@ (64c <trace_set_level+0x18>)
     63a:	bf28      	it	cs
     63c:	2004      	movcs	r0, #4
/home/dangcaominh/STM32MP1/optee-os/optee-os/lib/libutils/ext/trace.c:24
     63e:	447b      	add	r3, pc
     640:	589b      	ldr	r3, [r3, r2]
     642:	6018      	str	r0, [r3, #0]
/home/dangcaominh/STM32MP1/optee-os/optee-os/lib/libutils/ext/trace.c:29
     644:	4770      	bx	lr
     646:	bf00      	nop
     648:	0000da46 	.word	0x0000da46
     64c:	0000001c 	.word	0x0000001c

00000650 <trace_get_level>:
trace_get_level():
/home/dangcaominh/STM32MP1/optee-os/optee-os/lib/libutils/ext/trace.c:32
     650:	4b02      	ldr	r3, [pc, #8]	@ (65c <trace_get_level+0xc>)
/home/dangcaominh/STM32MP1/optee-os/optee-os/lib/libutils/ext/trace.c:33
     652:	4a03      	ldr	r2, [pc, #12]	@ (660 <trace_get_level+0x10>)
/home/dangcaominh/STM32MP1/optee-os/optee-os/lib/libutils/ext/trace.c:32
     654:	447b      	add	r3, pc
/home/dangcaominh/STM32MP1/optee-os/optee-os/lib/libutils/ext/trace.c:33
     656:	589b      	ldr	r3, [r3, r2]
/home/dangcaominh/STM32MP1/optee-os/optee-os/lib/libutils/ext/trace.c:34
     658:	6818      	ldr	r0, [r3, #0]
     65a:	4770      	bx	lr
     65c:	0000da30 	.word	0x0000da30
     660:	0000001c 	.word	0x0000001c

00000664 <trace_vprintf>:
trace_vprintf():
/home/dangcaominh/STM32MP1/optee-os/optee-os/lib/libutils/ext/trace.c:113
     664:	e92d 4ff0 	stmdb	sp!, {r4, r5, r6, r7, r8, r9, sl, fp, lr}
     668:	4688      	mov	r8, r1
     66a:	494d      	ldr	r1, [pc, #308]	@ (7a0 <trace_vprintf+0x13c>)
     66c:	4614      	mov	r4, r2
     66e:	4a4d      	ldr	r2, [pc, #308]	@ (7a4 <trace_vprintf+0x140>)
     670:	b0c7      	sub	sp, #284	@ 0x11c
     672:	4479      	add	r1, pc
     674:	4607      	mov	r7, r0
     676:	4e4c      	ldr	r6, [pc, #304]	@ (7a8 <trace_vprintf+0x144>)
/home/dangcaominh/STM32MP1/optee-os/optee-os/lib/libutils/ext/trace.c:118
     678:	469b      	mov	fp, r3
/home/dangcaominh/STM32MP1/optee-os/optee-os/lib/libutils/ext/trace.c:113
     67a:	588a      	ldr	r2, [r1, r2]
     67c:	447e      	add	r6, pc
     67e:	f8dd 9140 	ldr.w	r9, [sp, #320]	@ 0x140
     682:	6812      	ldr	r2, [r2, #0]
     684:	9245      	str	r2, [sp, #276]	@ 0x114
     686:	f04f 0200 	mov.w	r2, #0
/home/dangcaominh/STM32MP1/optee-os/optee-os/lib/libutils/ext/trace.c:118
     68a:	2b00      	cmp	r3, #0
     68c:	d072      	beq.n	774 <trace_vprintf+0x110>
/home/dangcaominh/STM32MP1/optee-os/optee-os/lib/libutils/ext/trace.c:118 (discriminator 1)
     68e:	4b47      	ldr	r3, [pc, #284]	@ (7ac <trace_vprintf+0x148>)
     690:	58f3      	ldr	r3, [r6, r3]
     692:	681b      	ldr	r3, [r3, #0]
     694:	42a3      	cmp	r3, r4
     696:	db61      	blt.n	75c <trace_vprintf+0xf8>
trace_level_to_string():
/home/dangcaominh/STM32MP1/optee-os/optee-os/lib/libutils/ext/trace.c:54
     698:	4a45      	ldr	r2, [pc, #276]	@ (7b0 <trace_vprintf+0x14c>)
/home/dangcaominh/STM32MP1/optee-os/optee-os/lib/libutils/ext/trace.c:46
     69a:	2c05      	cmp	r4, #5
     69c:	bf34      	ite	cc
     69e:	4623      	movcc	r3, r4
     6a0:	2300      	movcs	r3, #0
/home/dangcaominh/STM32MP1/optee-os/optee-os/lib/libutils/ext/trace.c:54
     6a2:	447a      	add	r2, pc
     6a4:	5cd3      	ldrb	r3, [r2, r3]
trace_vprintf():
/home/dangcaominh/STM32MP1/optee-os/optee-os/lib/libutils/ext/trace.c:122
     6a6:	4a43      	ldr	r2, [pc, #268]	@ (7b4 <trace_vprintf+0x150>)
     6a8:	ad05      	add	r5, sp, #20
     6aa:	f44f 7180 	mov.w	r1, #256	@ 0x100
     6ae:	4628      	mov	r0, r5
     6b0:	447a      	add	r2, pc
     6b2:	f000 f8f0 	bl	896 <snprintk>
/home/dangcaominh/STM32MP1/optee-os/optee-os/lib/libutils/ext/trace.c:124
     6b6:	f1b0 0a00 	subs.w	sl, r0, #0
     6ba:	db4f      	blt.n	75c <trace_vprintf+0xf8>
/home/dangcaominh/STM32MP1/optee-os/optee-os/lib/libutils/ext/trace.c:129
     6bc:	4b3e      	ldr	r3, [pc, #248]	@ (7b8 <trace_vprintf+0x154>)
     6be:	f5ca 7180 	rsb	r1, sl, #256	@ 0x100
     6c2:	4a3e      	ldr	r2, [pc, #248]	@ (7bc <trace_vprintf+0x158>)
     6c4:	58f3      	ldr	r3, [r6, r3]
     6c6:	447a      	add	r2, pc
     6c8:	eb05 000a 	add.w	r0, r5, sl
     6cc:	9303      	str	r3, [sp, #12]
     6ce:	f000 f8e2 	bl	896 <snprintk>
/home/dangcaominh/STM32MP1/optee-os/optee-os/lib/libutils/ext/trace.c:131
     6d2:	2800      	cmp	r0, #0
     6d4:	db42      	blt.n	75c <trace_vprintf+0xf8>
/home/dangcaominh/STM32MP1/optee-os/optee-os/lib/libutils/ext/trace.c:133
     6d6:	eb00 060a 	add.w	r6, r0, sl
/home/dangcaominh/STM32MP1/optee-os/optee-os/lib/libutils/ext/trace.c:135
     6da:	f1bb 0f00 	cmp.w	fp, #0
     6de:	d052      	beq.n	786 <trace_vprintf+0x122>
/home/dangcaominh/STM32MP1/optee-os/optee-os/lib/libutils/ext/trace.c:135 (discriminator 1)
     6e0:	231a      	movs	r3, #26
     6e2:	40e3      	lsrs	r3, r4
     6e4:	07db      	lsls	r3, r3, #31
     6e6:	d54e      	bpl.n	786 <trace_vprintf+0x122>
/home/dangcaominh/STM32MP1/optee-os/optee-os/lib/libutils/ext/trace.c:143
     6e8:	19ac      	adds	r4, r5, r6
print_thread_id():
/home/dangcaominh/STM32MP1/optee-os/optee-os/lib/libutils/ext/trace.c:66
     6ea:	f000 fde3 	bl	12b4 <trace_ext_get_thread_id>
/home/dangcaominh/STM32MP1/optee-os/optee-os/lib/libutils/ext/trace.c:68
     6ee:	2800      	cmp	r0, #0
trace_vprintf():
/home/dangcaominh/STM32MP1/optee-os/optee-os/lib/libutils/ext/trace.c:143
     6f0:	f5c6 7a80 	rsb	sl, r6, #256	@ 0x100
print_thread_id():
/home/dangcaominh/STM32MP1/optee-os/optee-os/lib/libutils/ext/trace.c:68
     6f4:	db40      	blt.n	778 <trace_vprintf+0x114>
/home/dangcaominh/STM32MP1/optee-os/optee-os/lib/libutils/ext/trace.c:69
     6f6:	4a32      	ldr	r2, [pc, #200]	@ (7c0 <trace_vprintf+0x15c>)
     6f8:	2301      	movs	r3, #1
     6fa:	9000      	str	r0, [sp, #0]
     6fc:	447a      	add	r2, pc
/home/dangcaominh/STM32MP1/optee-os/optee-os/lib/libutils/ext/trace.c:71
     6fe:	4651      	mov	r1, sl
     700:	4620      	mov	r0, r4
     702:	f000 f8c8 	bl	896 <snprintk>
trace_vprintf():
/home/dangcaominh/STM32MP1/optee-os/optee-os/lib/libutils/ext/trace.c:144
     706:	2800      	cmp	r0, #0
     708:	db28      	blt.n	75c <trace_vprintf+0xf8>
/home/dangcaominh/STM32MP1/optee-os/optee-os/lib/libutils/ext/trace.c:146
     70a:	1984      	adds	r4, r0, r6
/home/dangcaominh/STM32MP1/optee-os/optee-os/lib/libutils/ext/trace.c:148
     70c:	b167      	cbz	r7, 728 <trace_vprintf+0xc4>
/home/dangcaominh/STM32MP1/optee-os/optee-os/lib/libutils/ext/trace.c:149
     70e:	4a2d      	ldr	r2, [pc, #180]	@ (7c4 <trace_vprintf+0x160>)
     710:	463b      	mov	r3, r7
     712:	1928      	adds	r0, r5, r4
     714:	f5c4 7180 	rsb	r1, r4, #256	@ 0x100
     718:	447a      	add	r2, pc
     71a:	f8cd 8000 	str.w	r8, [sp]
     71e:	f000 f8ba 	bl	896 <snprintk>
/home/dangcaominh/STM32MP1/optee-os/optee-os/lib/libutils/ext/trace.c:151
     722:	2800      	cmp	r0, #0
     724:	db1a      	blt.n	75c <trace_vprintf+0xf8>
/home/dangcaominh/STM32MP1/optee-os/optee-os/lib/libutils/ext/trace.c:153
     726:	4404      	add	r4, r0
/home/dangcaominh/STM32MP1/optee-os/optee-os/lib/libutils/ext/trace.c:163
     728:	1928      	adds	r0, r5, r4
     72a:	f5c4 7180 	rsb	r1, r4, #256	@ 0x100
     72e:	9b51      	ldr	r3, [sp, #324]	@ 0x144
     730:	464a      	mov	r2, r9
     732:	f000 f8a9 	bl	888 <vsnprintk>
/home/dangcaominh/STM32MP1/optee-os/optee-os/lib/libutils/ext/trace.c:164
     736:	2800      	cmp	r0, #0
/home/dangcaominh/STM32MP1/optee-os/optee-os/lib/libutils/ext/trace.c:170
     738:	f04f 030a 	mov.w	r3, #10
/home/dangcaominh/STM32MP1/optee-os/optee-os/lib/libutils/ext/trace.c:165
     73c:	bfc8      	it	gt
     73e:	1824      	addgt	r4, r4, r0
/home/dangcaominh/STM32MP1/optee-os/optee-os/lib/libutils/ext/trace.c:167
     740:	2cfe      	cmp	r4, #254	@ 0xfe
     742:	bf28      	it	cs
     744:	24fe      	movcs	r4, #254	@ 0xfe
/home/dangcaominh/STM32MP1/optee-os/optee-os/lib/libutils/ext/trace.c:170
     746:	552b      	strb	r3, [r5, r4]
/home/dangcaominh/STM32MP1/optee-os/optee-os/lib/libutils/ext/trace.c:171
     748:	b114      	cbz	r4, 750 <trace_vprintf+0xec>
/home/dangcaominh/STM32MP1/optee-os/optee-os/lib/libutils/ext/trace.c:171 (discriminator 1)
     74a:	5d2b      	ldrb	r3, [r5, r4]
     74c:	2b0a      	cmp	r3, #10
     74e:	d022      	beq.n	796 <trace_vprintf+0x132>
/home/dangcaominh/STM32MP1/optee-os/optee-os/lib/libutils/ext/trace.c:174
     750:	442c      	add	r4, r5
     752:	2300      	movs	r3, #0
/home/dangcaominh/STM32MP1/optee-os/optee-os/lib/libutils/ext/trace.c:176
     754:	4628      	mov	r0, r5
/home/dangcaominh/STM32MP1/optee-os/optee-os/lib/libutils/ext/trace.c:174
     756:	70a3      	strb	r3, [r4, #2]
/home/dangcaominh/STM32MP1/optee-os/optee-os/lib/libutils/ext/trace.c:176
     758:	f000 fda2 	bl	12a0 <trace_ext_puts>
/home/dangcaominh/STM32MP1/optee-os/optee-os/lib/libutils/ext/trace.c:113
     75c:	4a1a      	ldr	r2, [pc, #104]	@ (7c8 <trace_vprintf+0x164>)
/home/dangcaominh/STM32MP1/optee-os/optee-os/lib/libutils/ext/trace.c:177
     75e:	4b11      	ldr	r3, [pc, #68]	@ (7a4 <trace_vprintf+0x140>)
/home/dangcaominh/STM32MP1/optee-os/optee-os/lib/libutils/ext/trace.c:113
     760:	447a      	add	r2, pc
/home/dangcaominh/STM32MP1/optee-os/optee-os/lib/libutils/ext/trace.c:177
     762:	58d3      	ldr	r3, [r2, r3]
     764:	681a      	ldr	r2, [r3, #0]
     766:	9b45      	ldr	r3, [sp, #276]	@ 0x114
     768:	405a      	eors	r2, r3
     76a:	f04f 0300 	mov.w	r3, #0
     76e:	d014      	beq.n	79a <trace_vprintf+0x136>
     770:	f7ff fee0 	bl	534 <__stack_chk_fail>
trace_level_to_string():
/home/dangcaominh/STM32MP1/optee-os/optee-os/lib/libutils/ext/trace.c:49
     774:	234d      	movs	r3, #77	@ 0x4d
     776:	e796      	b.n	6a6 <trace_vprintf+0x42>
print_thread_id():
/home/dangcaominh/STM32MP1/optee-os/optee-os/lib/libutils/ext/trace.c:71
     778:	4b14      	ldr	r3, [pc, #80]	@ (7cc <trace_vprintf+0x168>)
     77a:	4a15      	ldr	r2, [pc, #84]	@ (7d0 <trace_vprintf+0x16c>)
     77c:	447b      	add	r3, pc
     77e:	9300      	str	r3, [sp, #0]
     780:	2301      	movs	r3, #1
     782:	447a      	add	r2, pc
     784:	e7bb      	b.n	6fe <trace_vprintf+0x9a>
trace_vprintf():
/home/dangcaominh/STM32MP1/optee-os/optee-os/lib/libutils/ext/trace.c:157
     786:	2efe      	cmp	r6, #254	@ 0xfe
     788:	d8e8      	bhi.n	75c <trace_vprintf+0xf8>
/home/dangcaominh/STM32MP1/optee-os/optee-os/lib/libutils/ext/trace.c:159
     78a:	2320      	movs	r3, #32
     78c:	1c74      	adds	r4, r6, #1
     78e:	55ab      	strb	r3, [r5, r6]
/home/dangcaominh/STM32MP1/optee-os/optee-os/lib/libutils/ext/trace.c:160
     790:	2300      	movs	r3, #0
     792:	552b      	strb	r3, [r5, r4]
     794:	e7c8      	b.n	728 <trace_vprintf+0xc4>
/home/dangcaominh/STM32MP1/optee-os/optee-os/lib/libutils/ext/trace.c:172
     796:	3c01      	subs	r4, #1
     798:	e7d6      	b.n	748 <trace_vprintf+0xe4>
/home/dangcaominh/STM32MP1/optee-os/optee-os/lib/libutils/ext/trace.c:177
     79a:	b047      	add	sp, #284	@ 0x11c
     79c:	e8bd 8ff0 	ldmia.w	sp!, {r4, r5, r6, r7, r8, r9, sl, fp, pc}
     7a0:	0000da12 	.word	0x0000da12
     7a4:	0000000c 	.word	0x0000000c
     7a8:	0000da08 	.word	0x0000da08
     7ac:	0000001c 	.word	0x0000001c
     7b0:	0000d4cb 	.word	0x0000d4cb
     7b4:	0000c9ca 	.word	0x0000c9ca
     7b8:	00000024 	.word	0x00000024
     7bc:	0000c9b8 	.word	0x0000c9b8
     7c0:	0000c986 	.word	0x0000c986
     7c4:	0000c975 	.word	0x0000c975
     7c8:	0000d924 	.word	0x0000d924
     7cc:	0000d0ae 	.word	0x0000d0ae
     7d0:	0000c906 	.word	0x0000c906

000007d4 <trace_printf>:
trace_printf():
/home/dangcaominh/STM32MP1/optee-os/optee-os/lib/libutils/ext/trace.c:104
     7d4:	b5f0      	push	{r4, r5, r6, r7, lr}
     7d6:	b085      	sub	sp, #20
     7d8:	4f0e      	ldr	r7, [pc, #56]	@ (814 <trace_printf+0x40>)
     7da:	ac0a      	add	r4, sp, #40	@ 0x28
     7dc:	4e0e      	ldr	r6, [pc, #56]	@ (818 <trace_printf+0x44>)
     7de:	447f      	add	r7, pc
     7e0:	f854 5b04 	ldr.w	r5, [r4], #4
     7e4:	59be      	ldr	r6, [r7, r6]
     7e6:	6836      	ldr	r6, [r6, #0]
     7e8:	9603      	str	r6, [sp, #12]
     7ea:	f04f 0600 	mov.w	r6, #0
/home/dangcaominh/STM32MP1/optee-os/optee-os/lib/libutils/ext/trace.c:108
     7ee:	9401      	str	r4, [sp, #4]
     7f0:	9500      	str	r5, [sp, #0]
/home/dangcaominh/STM32MP1/optee-os/optee-os/lib/libutils/ext/trace.c:107
     7f2:	9402      	str	r4, [sp, #8]
/home/dangcaominh/STM32MP1/optee-os/optee-os/lib/libutils/ext/trace.c:108
     7f4:	f7ff ff36 	bl	664 <trace_vprintf>
/home/dangcaominh/STM32MP1/optee-os/optee-os/lib/libutils/ext/trace.c:104
     7f8:	4a08      	ldr	r2, [pc, #32]	@ (81c <trace_printf+0x48>)
/home/dangcaominh/STM32MP1/optee-os/optee-os/lib/libutils/ext/trace.c:110
     7fa:	4b07      	ldr	r3, [pc, #28]	@ (818 <trace_printf+0x44>)
/home/dangcaominh/STM32MP1/optee-os/optee-os/lib/libutils/ext/trace.c:104
     7fc:	447a      	add	r2, pc
/home/dangcaominh/STM32MP1/optee-os/optee-os/lib/libutils/ext/trace.c:110
     7fe:	58d3      	ldr	r3, [r2, r3]
     800:	681a      	ldr	r2, [r3, #0]
     802:	9b03      	ldr	r3, [sp, #12]
     804:	405a      	eors	r2, r3
     806:	f04f 0300 	mov.w	r3, #0
     80a:	d001      	beq.n	810 <trace_printf+0x3c>
     80c:	f7ff fe92 	bl	534 <__stack_chk_fail>
     810:	b005      	add	sp, #20
     812:	bdf0      	pop	{r4, r5, r6, r7, pc}
     814:	0000d8a6 	.word	0x0000d8a6
     818:	0000000c 	.word	0x0000000c
     81c:	0000d888 	.word	0x0000d888

00000820 <dhex_dump>:
dhex_dump():
/home/dangcaominh/STM32MP1/optee-os/optee-os/lib/libutils/ext/trace.c:287
     820:	4770      	bx	lr
     822:	bf00      	nop

00000824 <__vsnprintf>:
__vsnprintf():
/home/dangcaominh/STM32MP1/optee-os/optee-os/lib/libutils/ext/snprintk.c:138
     824:	b57f      	push	{r0, r1, r2, r3, r4, r5, r6, lr}
     826:	460d      	mov	r5, r1
     828:	4914      	ldr	r1, [pc, #80]	@ (87c <__vsnprintf+0x58>)
     82a:	4604      	mov	r4, r0
/home/dangcaominh/STM32MP1/optee-os/optee-os/lib/libutils/ext/snprintk.c:142
     82c:	1966      	adds	r6, r4, r5
/home/dangcaominh/STM32MP1/optee-os/optee-os/lib/libutils/ext/snprintk.c:138
     82e:	4610      	mov	r0, r2
     830:	4479      	add	r1, pc
     832:	4a13      	ldr	r2, [pc, #76]	@ (880 <__vsnprintf+0x5c>)
     834:	588a      	ldr	r2, [r1, r2]
/home/dangcaominh/STM32MP1/optee-os/optee-os/lib/libutils/ext/snprintk.c:143
     836:	a902      	add	r1, sp, #8
/home/dangcaominh/STM32MP1/optee-os/optee-os/lib/libutils/ext/snprintk.c:138
     838:	6812      	ldr	r2, [r2, #0]
     83a:	9203      	str	r2, [sp, #12]
     83c:	f04f 0200 	mov.w	r2, #0
/home/dangcaominh/STM32MP1/optee-os/optee-os/lib/libutils/ext/snprintk.c:143
     840:	f89d 2020 	ldrb.w	r2, [sp, #32]
/home/dangcaominh/STM32MP1/optee-os/optee-os/lib/libutils/ext/snprintk.c:142
     844:	9602      	str	r6, [sp, #8]
/home/dangcaominh/STM32MP1/optee-os/optee-os/lib/libutils/ext/snprintk.c:143
     846:	9200      	str	r2, [sp, #0]
     848:	4622      	mov	r2, r4
     84a:	f000 f84b 	bl	8e4 <kprintf.constprop.0>
/home/dangcaominh/STM32MP1/optee-os/optee-os/lib/libutils/ext/snprintk.c:144
     84e:	b13c      	cbz	r4, 860 <__vsnprintf+0x3c>
/home/dangcaominh/STM32MP1/optee-os/optee-os/lib/libutils/ext/snprintk.c:144 (discriminator 1)
     850:	b135      	cbz	r5, 860 <__vsnprintf+0x3c>
/home/dangcaominh/STM32MP1/optee-os/optee-os/lib/libutils/ext/snprintk.c:146
     852:	42a8      	cmp	r0, r5
     854:	f04f 0300 	mov.w	r3, #0
/home/dangcaominh/STM32MP1/optee-os/optee-os/lib/libutils/ext/snprintk.c:147
     858:	bf2c      	ite	cs
     85a:	f806 3c01 	strbcs.w	r3, [r6, #-1]
/home/dangcaominh/STM32MP1/optee-os/optee-os/lib/libutils/ext/snprintk.c:149
     85e:	5423      	strbcc	r3, [r4, r0]
/home/dangcaominh/STM32MP1/optee-os/optee-os/lib/libutils/ext/snprintk.c:138
     860:	4a08      	ldr	r2, [pc, #32]	@ (884 <__vsnprintf+0x60>)
/home/dangcaominh/STM32MP1/optee-os/optee-os/lib/libutils/ext/snprintk.c:152
     862:	4b07      	ldr	r3, [pc, #28]	@ (880 <__vsnprintf+0x5c>)
/home/dangcaominh/STM32MP1/optee-os/optee-os/lib/libutils/ext/snprintk.c:138
     864:	447a      	add	r2, pc
/home/dangcaominh/STM32MP1/optee-os/optee-os/lib/libutils/ext/snprintk.c:152
     866:	58d3      	ldr	r3, [r2, r3]
     868:	681a      	ldr	r2, [r3, #0]
     86a:	9b03      	ldr	r3, [sp, #12]
     86c:	405a      	eors	r2, r3
     86e:	f04f 0300 	mov.w	r3, #0
     872:	d001      	beq.n	878 <__vsnprintf+0x54>
     874:	f7ff fe5e 	bl	534 <__stack_chk_fail>
     878:	b004      	add	sp, #16
     87a:	bd70      	pop	{r4, r5, r6, pc}
     87c:	0000d854 	.word	0x0000d854
     880:	0000000c 	.word	0x0000000c
     884:	0000d820 	.word	0x0000d820

00000888 <vsnprintk>:
vsnprintk():
/home/dangcaominh/STM32MP1/optee-os/optee-os/lib/libutils/ext/snprintk.c:130
     888:	b513      	push	{r0, r1, r4, lr}
/home/dangcaominh/STM32MP1/optee-os/optee-os/lib/libutils/ext/snprintk.c:131
     88a:	2401      	movs	r4, #1
     88c:	9400      	str	r4, [sp, #0]
     88e:	f7ff ffc9 	bl	824 <__vsnprintf>
/home/dangcaominh/STM32MP1/optee-os/optee-os/lib/libutils/ext/snprintk.c:132
     892:	b002      	add	sp, #8
     894:	bd10      	pop	{r4, pc}

00000896 <snprintk>:
snprintk():
/home/dangcaominh/STM32MP1/optee-os/optee-os/lib/libutils/ext/snprintk.c:113
     896:	b40c      	push	{r2, r3}
     898:	b537      	push	{r0, r1, r2, r4, r5, lr}
     89a:	ab06      	add	r3, sp, #24
     89c:	4d0e      	ldr	r5, [pc, #56]	@ (8d8 <snprintk+0x42>)
     89e:	4c0f      	ldr	r4, [pc, #60]	@ (8dc <snprintk+0x46>)
     8a0:	447d      	add	r5, pc
     8a2:	f853 2b04 	ldr.w	r2, [r3], #4
     8a6:	592c      	ldr	r4, [r5, r4]
     8a8:	6824      	ldr	r4, [r4, #0]
     8aa:	9401      	str	r4, [sp, #4]
     8ac:	f04f 0400 	mov.w	r4, #0
/home/dangcaominh/STM32MP1/optee-os/optee-os/lib/libutils/ext/snprintk.c:117
     8b0:	9300      	str	r3, [sp, #0]
/home/dangcaominh/STM32MP1/optee-os/optee-os/lib/libutils/ext/snprintk.c:118
     8b2:	f7ff ffe9 	bl	888 <vsnprintk>
/home/dangcaominh/STM32MP1/optee-os/optee-os/lib/libutils/ext/snprintk.c:113
     8b6:	4a0a      	ldr	r2, [pc, #40]	@ (8e0 <snprintk+0x4a>)
/home/dangcaominh/STM32MP1/optee-os/optee-os/lib/libutils/ext/snprintk.c:122
     8b8:	4b08      	ldr	r3, [pc, #32]	@ (8dc <snprintk+0x46>)
/home/dangcaominh/STM32MP1/optee-os/optee-os/lib/libutils/ext/snprintk.c:113
     8ba:	447a      	add	r2, pc
/home/dangcaominh/STM32MP1/optee-os/optee-os/lib/libutils/ext/snprintk.c:122
     8bc:	58d3      	ldr	r3, [r2, r3]
     8be:	681a      	ldr	r2, [r3, #0]
     8c0:	9b01      	ldr	r3, [sp, #4]
     8c2:	405a      	eors	r2, r3
     8c4:	f04f 0300 	mov.w	r3, #0
     8c8:	d001      	beq.n	8ce <snprintk+0x38>
     8ca:	f7ff fe33 	bl	534 <__stack_chk_fail>
     8ce:	b003      	add	sp, #12
     8d0:	e8bd 4030 	ldmia.w	sp!, {r4, r5, lr}
     8d4:	b002      	add	sp, #8
     8d6:	4770      	bx	lr
     8d8:	0000d7e4 	.word	0x0000d7e4
     8dc:	0000000c 	.word	0x0000000c
     8e0:	0000d7ca 	.word	0x0000d7ca

000008e4 <kprintf.constprop.0>:
kprintf():
/home/dangcaominh/STM32MP1/optee-os/optee-os/lib/libutils/ext/snprintk.c:242
     8e4:	e92d 4ff0 	stmdb	sp!, {r4, r5, r6, r7, r8, r9, sl, fp, lr}
     8e8:	b09f      	sub	sp, #124	@ 0x7c
     8ea:	4680      	mov	r8, r0
     8ec:	4616      	mov	r6, r2
     8ee:	f8df 0770 	ldr.w	r0, [pc, #1904]	@ 1060 <kprintf.constprop.0+0x77c>
     8f2:	461d      	mov	r5, r3
     8f4:	f89d 20a0 	ldrb.w	r2, [sp, #160]	@ 0xa0
     8f8:	4478      	add	r0, pc
     8fa:	9211      	str	r2, [sp, #68]	@ 0x44
     8fc:	f8df 2764 	ldr.w	r2, [pc, #1892]	@ 1064 <kprintf.constprop.0+0x780>
     900:	5882      	ldr	r2, [r0, r2]
     902:	6812      	ldr	r2, [r2, #0]
     904:	921d      	str	r2, [sp, #116]	@ 0x74
     906:	f04f 0200 	mov.w	r2, #0
/home/dangcaominh/STM32MP1/optee-os/optee-os/lib/libutils/ext/snprintk.c:264 (discriminator 1)
     90a:	910c      	str	r1, [sp, #48]	@ 0x30
     90c:	b1d9      	cbz	r1, 946 <kprintf.constprop.0+0x62>
/home/dangcaominh/STM32MP1/optee-os/optee-os/lib/libutils/ext/snprintk.c:265
     90e:	680b      	ldr	r3, [r1, #0]
/home/dangcaominh/STM32MP1/optee-os/optee-os/lib/libutils/ext/snprintk.c:267
     910:	930e      	str	r3, [sp, #56]	@ 0x38
/home/dangcaominh/STM32MP1/optee-os/optee-os/lib/libutils/ext/snprintk.c:275
     912:	2300      	movs	r3, #0
     914:	930f      	str	r3, [sp, #60]	@ 0x3c
/home/dangcaominh/STM32MP1/optee-os/optee-os/lib/libutils/ext/snprintk.c:273
     916:	930b      	str	r3, [sp, #44]	@ 0x2c
/home/dangcaominh/STM32MP1/optee-os/optee-os/lib/libutils/ext/snprintk.c:281 (discriminator 1)
     918:	f898 3000 	ldrb.w	r3, [r8]
     91c:	2b25      	cmp	r3, #37	@ 0x25
     91e:	d022      	beq.n	966 <kprintf.constprop.0+0x82>
/home/dangcaominh/STM32MP1/optee-os/optee-os/lib/libutils/ext/snprintk.c:281 (discriminator 2)
     920:	b99b      	cbnz	r3, 94a <kprintf.constprop.0+0x66>
/home/dangcaominh/STM32MP1/optee-os/optee-os/lib/libutils/ext/snprintk.c:619 (discriminator 1)
     922:	9b0c      	ldr	r3, [sp, #48]	@ 0x30
     924:	b103      	cbz	r3, 928 <kprintf.constprop.0+0x44>
/home/dangcaominh/STM32MP1/optee-os/optee-os/lib/libutils/ext/snprintk.c:620
     926:	601e      	str	r6, [r3, #0]
/home/dangcaominh/STM32MP1/optee-os/optee-os/lib/libutils/ext/snprintk.c:242
     928:	f8df 273c 	ldr.w	r2, [pc, #1852]	@ 1068 <kprintf.constprop.0+0x784>
/home/dangcaominh/STM32MP1/optee-os/optee-os/lib/libutils/ext/snprintk.c:622
     92c:	f8df 3734 	ldr.w	r3, [pc, #1844]	@ 1064 <kprintf.constprop.0+0x780>
/home/dangcaominh/STM32MP1/optee-os/optee-os/lib/libutils/ext/snprintk.c:242
     930:	447a      	add	r2, pc
/home/dangcaominh/STM32MP1/optee-os/optee-os/lib/libutils/ext/snprintk.c:622
     932:	58d3      	ldr	r3, [r2, r3]
     934:	681a      	ldr	r2, [r3, #0]
     936:	9b1d      	ldr	r3, [sp, #116]	@ 0x74
     938:	405a      	eors	r2, r3
     93a:	f04f 0300 	mov.w	r3, #0
     93e:	f000 838a 	beq.w	1056 <kprintf.constprop.0+0x772>
     942:	f7ff fdf7 	bl	534 <__stack_chk_fail>
/home/dangcaominh/STM32MP1/optee-os/optee-os/lib/libutils/ext/snprintk.c:267
     946:	9b0c      	ldr	r3, [sp, #48]	@ 0x30
     948:	e7e2      	b.n	910 <kprintf.constprop.0+0x2c>
/home/dangcaominh/STM32MP1/optee-os/optee-os/lib/libutils/ext/snprintk.c:282
     94a:	9a0b      	ldr	r2, [sp, #44]	@ 0x2c
     94c:	3201      	adds	r2, #1
     94e:	920b      	str	r2, [sp, #44]	@ 0x2c
/home/dangcaominh/STM32MP1/optee-os/optee-os/lib/libutils/ext/snprintk.c:283 (discriminator 1)
     950:	b136      	cbz	r6, 960 <kprintf.constprop.0+0x7c>
/home/dangcaominh/STM32MP1/optee-os/optee-os/lib/libutils/ext/snprintk.c:283 (discriminator 3)
     952:	9a0c      	ldr	r2, [sp, #48]	@ 0x30
     954:	b112      	cbz	r2, 95c <kprintf.constprop.0+0x78>
/home/dangcaominh/STM32MP1/optee-os/optee-os/lib/libutils/ext/snprintk.c:283 (discriminator 5)
     956:	9a0e      	ldr	r2, [sp, #56]	@ 0x38
     958:	4296      	cmp	r6, r2
     95a:	d201      	bcs.n	960 <kprintf.constprop.0+0x7c>
/home/dangcaominh/STM32MP1/optee-os/optee-os/lib/libutils/ext/snprintk.c:283 (discriminator 6)
     95c:	f806 3b01 	strb.w	r3, [r6], #1
/home/dangcaominh/STM32MP1/optee-os/optee-os/lib/libutils/ext/snprintk.c:281
     960:	f108 0801 	add.w	r8, r8, #1
     964:	e7d8      	b.n	918 <kprintf.constprop.0+0x34>
/home/dangcaominh/STM32MP1/optee-os/optee-os/lib/libutils/ext/snprintk.c:294
     966:	f04f 0900 	mov.w	r9, #0
/home/dangcaominh/STM32MP1/optee-os/optee-os/lib/libutils/ext/snprintk.c:288
     96a:	f108 0801 	add.w	r8, r8, #1
/home/dangcaominh/STM32MP1/optee-os/optee-os/lib/libutils/ext/snprintk.c:292
     96e:	f8cd 9034 	str.w	r9, [sp, #52]	@ 0x34
/home/dangcaominh/STM32MP1/optee-os/optee-os/lib/libutils/ext/snprintk.c:288
     972:	462b      	mov	r3, r5
/home/dangcaominh/STM32MP1/optee-os/optee-os/lib/libutils/ext/snprintk.c:293
     974:	f04f 37ff 	mov.w	r7, #4294967295	@ 0xffffffff
/home/dangcaominh/STM32MP1/optee-os/optee-os/lib/libutils/ext/snprintk.c:290
     978:	464c      	mov	r4, r9
/home/dangcaominh/STM32MP1/optee-os/optee-os/lib/libutils/ext/snprintk.c:296
     97a:	f818 bb01 	ldrb.w	fp, [r8], #1
/home/dangcaominh/STM32MP1/optee-os/optee-os/lib/libutils/ext/snprintk.c:297
     97e:	f1bb 0f39 	cmp.w	fp, #57	@ 0x39
     982:	f300 80cf 	bgt.w	b24 <kprintf.constprop.0+0x240>
     986:	f1bb 0f1f 	cmp.w	fp, #31
     98a:	f300 808d 	bgt.w	aa8 <kprintf.constprop.0+0x1c4>
/home/dangcaominh/STM32MP1/optee-os/optee-os/lib/libutils/ext/snprintk.c:547
     98e:	f1bb 0f00 	cmp.w	fp, #0
     992:	f040 80cc 	bne.w	b2e <kprintf.constprop.0+0x24a>
     996:	e7c4      	b.n	922 <kprintf.constprop.0+0x3e>
/home/dangcaominh/STM32MP1/optee-os/optee-os/lib/libutils/ext/snprintk.c:297
     998:	f04f 092b 	mov.w	r9, #43	@ 0x2b
     99c:	e7ed      	b.n	97a <kprintf.constprop.0+0x96>
     99e:	2a36      	cmp	r2, #54	@ 0x36
     9a0:	d8f5      	bhi.n	98e <kprintf.constprop.0+0xaa>
     9a2:	a102      	add	r1, pc, #8	@ (adr r1, 9ac <kprintf.constprop.0+0xc8>)
     9a4:	f851 2022 	ldr.w	r2, [r1, r2, lsl #2]
     9a8:	4411      	add	r1, r2
     9aa:	4708      	bx	r1
     9ac:	0000024f 	.word	0x0000024f
     9b0:	ffffffe3 	.word	0xffffffe3
     9b4:	ffffffe3 	.word	0xffffffe3
     9b8:	ffffffe3 	.word	0xffffffe3
     9bc:	ffffffe3 	.word	0xffffffe3
     9c0:	ffffffe3 	.word	0xffffffe3
     9c4:	ffffffe3 	.word	0xffffffe3
     9c8:	ffffffe3 	.word	0xffffffe3
     9cc:	ffffffe3 	.word	0xffffffe3
     9d0:	ffffffe3 	.word	0xffffffe3
     9d4:	ffffffe3 	.word	0xffffffe3
     9d8:	000003cb 	.word	0x000003cb
     9dc:	ffffffe3 	.word	0xffffffe3
     9e0:	ffffffe3 	.word	0xffffffe3
     9e4:	ffffffe3 	.word	0xffffffe3
     9e8:	ffffffe3 	.word	0xffffffe3
     9ec:	ffffffe3 	.word	0xffffffe3
     9f0:	000004fb 	.word	0x000004fb
     9f4:	ffffffe3 	.word	0xffffffe3
     9f8:	ffffffe3 	.word	0xffffffe3
     9fc:	0000056f 	.word	0x0000056f
     a00:	ffffffe3 	.word	0xffffffe3
     a04:	ffffffe3 	.word	0xffffffe3
     a08:	ffffffe3 	.word	0xffffffe3
     a0c:	ffffffe3 	.word	0xffffffe3
     a10:	ffffffe3 	.word	0xffffffe3
     a14:	ffffffe3 	.word	0xffffffe3
     a18:	ffffffe3 	.word	0xffffffe3
     a1c:	ffffffe3 	.word	0xffffffe3
     a20:	ffffffe3 	.word	0xffffffe3
     a24:	ffffffe3 	.word	0xffffffe3
     a28:	00000239 	.word	0x00000239
     a2c:	00000253 	.word	0x00000253
     a30:	ffffffe3 	.word	0xffffffe3
     a34:	ffffffe3 	.word	0xffffffe3
     a38:	ffffffe3 	.word	0xffffffe3
     a3c:	00000209 	.word	0x00000209
     a40:	00000253 	.word	0x00000253
     a44:	0000020f 	.word	0x0000020f
     a48:	ffffffe3 	.word	0xffffffe3
     a4c:	00000215 	.word	0x00000215
     a50:	ffffffe3 	.word	0xffffffe3
     a54:	00000393 	.word	0x00000393
     a58:	000003cf 	.word	0x000003cf
     a5c:	0000042b 	.word	0x0000042b
     a60:	00000221 	.word	0x00000221
     a64:	ffffffe3 	.word	0xffffffe3
     a68:	000004c1 	.word	0x000004c1
     a6c:	0000022d 	.word	0x0000022d
     a70:	000004ff 	.word	0x000004ff
     a74:	ffffffe3 	.word	0xffffffe3
     a78:	ffffffe3 	.word	0xffffffe3
     a7c:	000000dd 	.word	0x000000dd
     a80:	ffffffe3 	.word	0xffffffe3
     a84:	00000233 	.word	0x00000233
/home/dangcaominh/STM32MP1/optee-os/optee-os/lib/libutils/ext/snprintk.c:480
     a88:	f8df 25e0 	ldr.w	r2, [pc, #1504]	@ 106c <kprintf.constprop.0+0x788>
     a8c:	447a      	add	r2, pc
/home/dangcaominh/STM32MP1/optee-os/optee-os/lib/libutils/ext/snprintk.c:297
     a8e:	920f      	str	r2, [sp, #60]	@ 0x3c
/home/dangcaominh/STM32MP1/optee-os/optee-os/lib/libutils/ext/snprintk.c:481
     a90:	f014 0280 	ands.w	r2, r4, #128	@ 0x80
     a94:	f000 8245 	beq.w	f22 <kprintf.constprop.0+0x63e>
/home/dangcaominh/STM32MP1/optee-os/optee-os/lib/libutils/ext/snprintk.c:481 (discriminator 10)
     a98:	3307      	adds	r3, #7
     a9a:	f023 0307 	bic.w	r3, r3, #7
     a9e:	461d      	mov	r5, r3
     aa0:	6859      	ldr	r1, [r3, #4]
     aa2:	f855 0b08 	ldr.w	r0, [r5], #8
     aa6:	e243      	b.n	f30 <kprintf.constprop.0+0x64c>
/home/dangcaominh/STM32MP1/optee-os/optee-os/lib/libutils/ext/snprintk.c:297
     aa8:	f1ab 0220 	sub.w	r2, fp, #32
     aac:	2a19      	cmp	r2, #25
     aae:	f63f af6e 	bhi.w	98e <kprintf.constprop.0+0xaa>
     ab2:	a102      	add	r1, pc, #8	@ (adr r1, abc <kprintf.constprop.0+0x1d8>)
     ab4:	f851 2022 	ldr.w	r2, [r1, r2, lsl #2]
     ab8:	4411      	add	r1, r2
     aba:	4708      	bx	r1
     abc:	0000007b 	.word	0x0000007b
     ac0:	fffffed3 	.word	0xfffffed3
     ac4:	fffffed3 	.word	0xfffffed3
     ac8:	00000087 	.word	0x00000087
     acc:	fffffed3 	.word	0xfffffed3
     ad0:	fffffed3 	.word	0xfffffed3
     ad4:	fffffed3 	.word	0xfffffed3
     ad8:	fffffed3 	.word	0xfffffed3
     adc:	fffffed3 	.word	0xfffffed3
     ae0:	fffffed3 	.word	0xfffffed3
     ae4:	0000008d 	.word	0x0000008d
     ae8:	fffffedd 	.word	0xfffffedd
     aec:	fffffed3 	.word	0xfffffed3
     af0:	0000009d 	.word	0x0000009d
     af4:	000000a3 	.word	0x000000a3
     af8:	fffffed3 	.word	0xfffffed3
     afc:	000000d3 	.word	0x000000d3
     b00:	000000d9 	.word	0x000000d9
     b04:	000000d9 	.word	0x000000d9
     b08:	000000d9 	.word	0x000000d9
     b0c:	000000d9 	.word	0x000000d9
     b10:	000000d9 	.word	0x000000d9
     b14:	000000d9 	.word	0x000000d9
     b18:	000000d9 	.word	0x000000d9
     b1c:	000000d9 	.word	0x000000d9
     b20:	000000d9 	.word	0x000000d9
     b24:	f1ab 0244 	sub.w	r2, fp, #68	@ 0x44
     b28:	2a36      	cmp	r2, #54	@ 0x36
     b2a:	f67f af38 	bls.w	99e <kprintf.constprop.0+0xba>
/home/dangcaominh/STM32MP1/optee-os/optee-os/lib/libutils/ext/snprintk.c:551
     b2e:	f88d b04c 	strb.w	fp, [sp, #76]	@ 0x4c
/home/dangcaominh/STM32MP1/optee-os/optee-os/lib/libutils/ext/snprintk.c:554
     b32:	461d      	mov	r5, r3
     b34:	e05b      	b.n	bee <kprintf.constprop.0+0x30a>
/home/dangcaominh/STM32MP1/optee-os/optee-os/lib/libutils/ext/snprintk.c:305
     b36:	f1b9 0f00 	cmp.w	r9, #0
     b3a:	bf08      	it	eq
     b3c:	f04f 0920 	moveq.w	r9, #32
     b40:	e71b      	b.n	97a <kprintf.constprop.0+0x96>
/home/dangcaominh/STM32MP1/optee-os/optee-os/lib/libutils/ext/snprintk.c:308
     b42:	f044 0401 	orr.w	r4, r4, #1
/home/dangcaominh/STM32MP1/optee-os/optee-os/lib/libutils/ext/snprintk.c:309
     b46:	e718      	b.n	97a <kprintf.constprop.0+0x96>
/home/dangcaominh/STM32MP1/optee-os/optee-os/lib/libutils/ext/snprintk.c:317
     b48:	f853 2b04 	ldr.w	r2, [r3], #4
     b4c:	920d      	str	r2, [sp, #52]	@ 0x34
/home/dangcaominh/STM32MP1/optee-os/optee-os/lib/libutils/ext/snprintk.c:317 (discriminator 1)
     b4e:	2a00      	cmp	r2, #0
     b50:	f6bf af13 	bge.w	97a <kprintf.constprop.0+0x96>
/home/dangcaominh/STM32MP1/optee-os/optee-os/lib/libutils/ext/snprintk.c:319
     b54:	4252      	negs	r2, r2
     b56:	920d      	str	r2, [sp, #52]	@ 0x34
/home/dangcaominh/STM32MP1/optee-os/optee-os/lib/libutils/ext/snprintk.c:322
     b58:	f044 0404 	orr.w	r4, r4, #4
/home/dangcaominh/STM32MP1/optee-os/optee-os/lib/libutils/ext/snprintk.c:323
     b5c:	e70d      	b.n	97a <kprintf.constprop.0+0x96>
/home/dangcaominh/STM32MP1/optee-os/optee-os/lib/libutils/ext/snprintk.c:328
     b5e:	f818 bb01 	ldrb.w	fp, [r8], #1
     b62:	f1bb 0f2a 	cmp.w	fp, #42	@ 0x2a
     b66:	d10f      	bne.n	b88 <kprintf.constprop.0+0x2a4>
/home/dangcaominh/STM32MP1/optee-os/optee-os/lib/libutils/ext/snprintk.c:330
     b68:	f853 7b04 	ldr.w	r7, [r3], #4
     b6c:	ea47 77e7 	orr.w	r7, r7, r7, asr #31
/home/dangcaominh/STM32MP1/optee-os/optee-os/lib/libutils/ext/snprintk.c:331
     b70:	e703      	b.n	97a <kprintf.constprop.0+0x96>
/home/dangcaominh/STM32MP1/optee-os/optee-os/lib/libutils/ext/snprintk.c:335
     b72:	fb01 2707 	mla	r7, r1, r7, r2
/home/dangcaominh/STM32MP1/optee-os/optee-os/lib/libutils/ext/snprintk.c:336
     b76:	f818 bb01 	ldrb.w	fp, [r8], #1
/home/dangcaominh/STM32MP1/optee-os/optee-os/lib/libutils/ext/snprintk.c:334
     b7a:	f1ab 0230 	sub.w	r2, fp, #48	@ 0x30
     b7e:	2a09      	cmp	r2, #9
     b80:	d9f7      	bls.n	b72 <kprintf.constprop.0+0x28e>
/home/dangcaominh/STM32MP1/optee-os/optee-os/lib/libutils/ext/snprintk.c:338
     b82:	ea47 77e7 	orr.w	r7, r7, r7, asr #31
/home/dangcaominh/STM32MP1/optee-os/optee-os/lib/libutils/ext/snprintk.c:339
     b86:	e6fa      	b.n	97e <kprintf.constprop.0+0x9a>
/home/dangcaominh/STM32MP1/optee-os/optee-os/lib/libutils/ext/snprintk.c:333
     b88:	2700      	movs	r7, #0
/home/dangcaominh/STM32MP1/optee-os/optee-os/lib/libutils/ext/snprintk.c:335
     b8a:	210a      	movs	r1, #10
     b8c:	e7f5      	b.n	b7a <kprintf.constprop.0+0x296>
/home/dangcaominh/STM32MP1/optee-os/optee-os/lib/libutils/ext/snprintk.c:346
     b8e:	f444 6480 	orr.w	r4, r4, #1024	@ 0x400
/home/dangcaominh/STM32MP1/optee-os/optee-os/lib/libutils/ext/snprintk.c:347
     b92:	e6f2      	b.n	97a <kprintf.constprop.0+0x96>
/home/dangcaominh/STM32MP1/optee-os/optee-os/lib/libutils/ext/snprintk.c:352
     b94:	210a      	movs	r1, #10
/home/dangcaominh/STM32MP1/optee-os/optee-os/lib/libutils/ext/snprintk.c:297
     b96:	2200      	movs	r2, #0
     b98:	920d      	str	r2, [sp, #52]	@ 0x34
/home/dangcaominh/STM32MP1/optee-os/optee-os/lib/libutils/ext/snprintk.c:352
     b9a:	980d      	ldr	r0, [sp, #52]	@ 0x34
     b9c:	f1ab 0230 	sub.w	r2, fp, #48	@ 0x30
/home/dangcaominh/STM32MP1/optee-os/optee-os/lib/libutils/ext/snprintk.c:353
     ba0:	f818 bb01 	ldrb.w	fp, [r8], #1
/home/dangcaominh/STM32MP1/optee-os/optee-os/lib/libutils/ext/snprintk.c:352
     ba4:	fb01 2200 	mla	r2, r1, r0, r2
     ba8:	920d      	str	r2, [sp, #52]	@ 0x34
/home/dangcaominh/STM32MP1/optee-os/optee-os/lib/libutils/ext/snprintk.c:354 (discriminator 1)
     baa:	f1ab 0230 	sub.w	r2, fp, #48	@ 0x30
     bae:	2a09      	cmp	r2, #9
     bb0:	d9f3      	bls.n	b9a <kprintf.constprop.0+0x2b6>
     bb2:	e6e4      	b.n	97e <kprintf.constprop.0+0x9a>
/home/dangcaominh/STM32MP1/optee-os/optee-os/lib/libutils/ext/snprintk.c:358
     bb4:	f044 0440 	orr.w	r4, r4, #64	@ 0x40
/home/dangcaominh/STM32MP1/optee-os/optee-os/lib/libutils/ext/snprintk.c:359
     bb8:	e6df      	b.n	97a <kprintf.constprop.0+0x96>
/home/dangcaominh/STM32MP1/optee-os/optee-os/lib/libutils/ext/snprintk.c:361
     bba:	f044 0480 	orr.w	r4, r4, #128	@ 0x80
/home/dangcaominh/STM32MP1/optee-os/optee-os/lib/libutils/ext/snprintk.c:362
     bbe:	e6dc      	b.n	97a <kprintf.constprop.0+0x96>
/home/dangcaominh/STM32MP1/optee-os/optee-os/lib/libutils/ext/snprintk.c:364
     bc0:	f898 2000 	ldrb.w	r2, [r8]
     bc4:	2a6c      	cmp	r2, #108	@ 0x6c
     bc6:	d104      	bne.n	bd2 <kprintf.constprop.0+0x2ee>
/home/dangcaominh/STM32MP1/optee-os/optee-os/lib/libutils/ext/snprintk.c:328
     bc8:	f108 0801 	add.w	r8, r8, #1
/home/dangcaominh/STM32MP1/optee-os/optee-os/lib/libutils/ext/snprintk.c:372
     bcc:	f044 0420 	orr.w	r4, r4, #32
/home/dangcaominh/STM32MP1/optee-os/optee-os/lib/libutils/ext/snprintk.c:373
     bd0:	e6d3      	b.n	97a <kprintf.constprop.0+0x96>
/home/dangcaominh/STM32MP1/optee-os/optee-os/lib/libutils/ext/snprintk.c:368
     bd2:	f044 0410 	orr.w	r4, r4, #16
     bd6:	e6d0      	b.n	97a <kprintf.constprop.0+0x96>
/home/dangcaominh/STM32MP1/optee-os/optee-os/lib/libutils/ext/snprintk.c:375
     bd8:	f444 7480 	orr.w	r4, r4, #256	@ 0x100
/home/dangcaominh/STM32MP1/optee-os/optee-os/lib/libutils/ext/snprintk.c:376
     bdc:	e6cd      	b.n	97a <kprintf.constprop.0+0x96>
/home/dangcaominh/STM32MP1/optee-os/optee-os/lib/libutils/ext/snprintk.c:378
     bde:	f444 7400 	orr.w	r4, r4, #512	@ 0x200
/home/dangcaominh/STM32MP1/optee-os/optee-os/lib/libutils/ext/snprintk.c:379
     be2:	e6ca      	b.n	97a <kprintf.constprop.0+0x96>
/home/dangcaominh/STM32MP1/optee-os/optee-os/lib/libutils/ext/snprintk.c:381
     be4:	461d      	mov	r5, r3
/home/dangcaominh/STM32MP1/optee-os/optee-os/lib/libutils/ext/snprintk.c:381 (discriminator 1)
     be6:	f855 3b04 	ldr.w	r3, [r5], #4
     bea:	f88d 304c 	strb.w	r3, [sp, #76]	@ 0x4c
/home/dangcaominh/STM32MP1/optee-os/optee-os/lib/libutils/ext/snprintk.c:291
     bee:	2000      	movs	r0, #0
/home/dangcaominh/STM32MP1/optee-os/optee-os/lib/libutils/ext/snprintk.c:552
     bf0:	2701      	movs	r7, #1
/home/dangcaominh/STM32MP1/optee-os/optee-os/lib/libutils/ext/snprintk.c:553
     bf2:	4681      	mov	r9, r0
/home/dangcaominh/STM32MP1/optee-os/optee-os/lib/libutils/ext/snprintk.c:550
     bf4:	f10d 0a4c 	add.w	sl, sp, #76	@ 0x4c
/home/dangcaominh/STM32MP1/optee-os/optee-os/lib/libutils/ext/snprintk.c:554
     bf8:	e03b      	b.n	c72 <kprintf.constprop.0+0x38e>
/home/dangcaominh/STM32MP1/optee-os/optee-os/lib/libutils/ext/snprintk.c:386
     bfa:	f044 0410 	orr.w	r4, r4, #16
/home/dangcaominh/STM32MP1/optee-os/optee-os/lib/libutils/ext/snprintk.c:390
     bfe:	0622      	lsls	r2, r4, #24
     c00:	f140 8084 	bpl.w	d0c <kprintf.constprop.0+0x428>
/home/dangcaominh/STM32MP1/optee-os/optee-os/lib/libutils/ext/snprintk.c:390 (discriminator 10)
     c04:	3307      	adds	r3, #7
     c06:	f023 0307 	bic.w	r3, r3, #7
     c0a:	461d      	mov	r5, r3
/home/dangcaominh/STM32MP1/optee-os/optee-os/lib/libutils/ext/snprintk.c:390 (discriminator 1)
     c0c:	6859      	ldr	r1, [r3, #4]
     c0e:	f855 0b08 	ldr.w	r0, [r5], #8
/home/dangcaominh/STM32MP1/optee-os/optee-os/lib/libutils/ext/snprintk.c:391
     c12:	2900      	cmp	r1, #0
     c14:	f280 8155 	bge.w	ec2 <kprintf.constprop.0+0x5de>
/home/dangcaominh/STM32MP1/optee-os/optee-os/lib/libutils/ext/snprintk.c:392
     c18:	4240      	negs	r0, r0
/home/dangcaominh/STM32MP1/optee-os/optee-os/lib/libutils/ext/snprintk.c:395
     c1a:	f04f 0301 	mov.w	r3, #1
/home/dangcaominh/STM32MP1/optee-os/optee-os/lib/libutils/ext/snprintk.c:392
     c1e:	eb61 0141 	sbc.w	r1, r1, r1, lsl #1
/home/dangcaominh/STM32MP1/optee-os/optee-os/lib/libutils/ext/snprintk.c:393
     c22:	f04f 092d 	mov.w	r9, #45	@ 0x2d
/home/dangcaominh/STM32MP1/optee-os/optee-os/lib/libutils/ext/snprintk.c:494
     c26:	2f00      	cmp	r7, #0
     c28:	f280 81a4 	bge.w	f74 <kprintf.constprop.0+0x690>
/home/dangcaominh/STM32MP1/optee-os/optee-os/lib/libutils/ext/snprintk.c:509
     c2c:	2b01      	cmp	r3, #1
     c2e:	f000 814a 	beq.w	ec6 <kprintf.constprop.0+0x5e2>
     c32:	2b02      	cmp	r3, #2
     c34:	f000 810a 	beq.w	e4c <kprintf.constprop.0+0x568>
/home/dangcaominh/STM32MP1/optee-os/optee-os/lib/libutils/ext/snprintk.c:494
     c38:	f10d 0a71 	add.w	sl, sp, #113	@ 0x71
/home/dangcaominh/STM32MP1/optee-os/optee-os/lib/libutils/ext/snprintk.c:512
     c3c:	f000 0307 	and.w	r3, r0, #7
     c40:	4652      	mov	r2, sl
/home/dangcaominh/STM32MP1/optee-os/optee-os/lib/libutils/ext/snprintk.c:513
     c42:	08c0      	lsrs	r0, r0, #3
/home/dangcaominh/STM32MP1/optee-os/optee-os/lib/libutils/ext/snprintk.c:512
     c44:	3330      	adds	r3, #48	@ 0x30
/home/dangcaominh/STM32MP1/optee-os/optee-os/lib/libutils/ext/snprintk.c:513
     c46:	ea40 7041 	orr.w	r0, r0, r1, lsl #29
     c4a:	08c9      	lsrs	r1, r1, #3
/home/dangcaominh/STM32MP1/optee-os/optee-os/lib/libutils/ext/snprintk.c:514 (discriminator 1)
     c4c:	ea50 0c01 	orrs.w	ip, r0, r1
/home/dangcaominh/STM32MP1/optee-os/optee-os/lib/libutils/ext/snprintk.c:512
     c50:	f80a 3d01 	strb.w	r3, [sl, #-1]!
/home/dangcaominh/STM32MP1/optee-os/optee-os/lib/libutils/ext/snprintk.c:514 (discriminator 1)
     c54:	d1f2      	bne.n	c3c <kprintf.constprop.0+0x358>
/home/dangcaominh/STM32MP1/optee-os/optee-os/lib/libutils/ext/snprintk.c:516
     c56:	07e1      	lsls	r1, r4, #31
     c58:	d506      	bpl.n	c68 <kprintf.constprop.0+0x384>
/home/dangcaominh/STM32MP1/optee-os/optee-os/lib/libutils/ext/snprintk.c:516 (discriminator 1)
     c5a:	2b30      	cmp	r3, #48	@ 0x30
     c5c:	d004      	beq.n	c68 <kprintf.constprop.0+0x384>
/home/dangcaominh/STM32MP1/optee-os/optee-os/lib/libutils/ext/snprintk.c:517
     c5e:	2330      	movs	r3, #48	@ 0x30
     c60:	f80a 3c01 	strb.w	r3, [sl, #-1]
     c64:	f1a2 0a02 	sub.w	sl, r2, #2
/home/dangcaominh/STM32MP1/optee-os/optee-os/lib/libutils/ext/snprintk.c:494
     c68:	4638      	mov	r0, r7
/home/dangcaominh/STM32MP1/optee-os/optee-os/lib/libutils/ext/snprintk.c:543
     c6a:	f10d 0771 	add.w	r7, sp, #113	@ 0x71
     c6e:	eba7 070a 	sub.w	r7, r7, sl
/home/dangcaominh/STM32MP1/optee-os/optee-os/lib/libutils/ext/snprintk.c:571
     c72:	42b8      	cmp	r0, r7
     c74:	4603      	mov	r3, r0
     c76:	bfb8      	it	lt
     c78:	463b      	movlt	r3, r7
/home/dangcaominh/STM32MP1/optee-os/optee-os/lib/libutils/ext/snprintk.c:572
     c7a:	f1b9 0f00 	cmp.w	r9, #0
     c7e:	f000 819d 	beq.w	fbc <kprintf.constprop.0+0x6d8>
/home/dangcaominh/STM32MP1/optee-os/optee-os/lib/libutils/ext/snprintk.c:573
     c82:	3301      	adds	r3, #1
/home/dangcaominh/STM32MP1/optee-os/optee-os/lib/libutils/ext/snprintk.c:578
     c84:	9a0b      	ldr	r2, [sp, #44]	@ 0x2c
     c86:	990d      	ldr	r1, [sp, #52]	@ 0x34
     c88:	428b      	cmp	r3, r1
     c8a:	bfac      	ite	ge
     c8c:	18d2      	addge	r2, r2, r3
     c8e:	1852      	addlt	r2, r2, r1
/home/dangcaominh/STM32MP1/optee-os/optee-os/lib/libutils/ext/snprintk.c:581
     c90:	f240 4104 	movw	r1, #1028	@ 0x404
     c94:	ea14 0e01 	ands.w	lr, r4, r1
/home/dangcaominh/STM32MP1/optee-os/optee-os/lib/libutils/ext/snprintk.c:578
     c98:	920b      	str	r2, [sp, #44]	@ 0x2c
/home/dangcaominh/STM32MP1/optee-os/optee-os/lib/libutils/ext/snprintk.c:581
     c9a:	d104      	bne.n	ca6 <kprintf.constprop.0+0x3c2>
/home/dangcaominh/STM32MP1/optee-os/optee-os/lib/libutils/ext/snprintk.c:582
     c9c:	9a0d      	ldr	r2, [sp, #52]	@ 0x34
     c9e:	1ad2      	subs	r2, r2, r3
/home/dangcaominh/STM32MP1/optee-os/optee-os/lib/libutils/ext/snprintk.c:583
     ca0:	2a00      	cmp	r2, #0
     ca2:	f300 818f 	bgt.w	fc4 <kprintf.constprop.0+0x6e0>
/home/dangcaominh/STM32MP1/optee-os/optee-os/lib/libutils/ext/snprintk.c:588
     ca6:	f1b9 0f00 	cmp.w	r9, #0
     caa:	f000 8197 	beq.w	fdc <kprintf.constprop.0+0x6f8>
/home/dangcaominh/STM32MP1/optee-os/optee-os/lib/libutils/ext/snprintk.c:589 (discriminator 1)
     cae:	b136      	cbz	r6, cbe <kprintf.constprop.0+0x3da>
/home/dangcaominh/STM32MP1/optee-os/optee-os/lib/libutils/ext/snprintk.c:589 (discriminator 3)
     cb0:	9a0c      	ldr	r2, [sp, #48]	@ 0x30
     cb2:	b112      	cbz	r2, cba <kprintf.constprop.0+0x3d6>
/home/dangcaominh/STM32MP1/optee-os/optee-os/lib/libutils/ext/snprintk.c:589 (discriminator 5)
     cb4:	9a0e      	ldr	r2, [sp, #56]	@ 0x38
     cb6:	42b2      	cmp	r2, r6
     cb8:	d901      	bls.n	cbe <kprintf.constprop.0+0x3da>
/home/dangcaominh/STM32MP1/optee-os/optee-os/lib/libutils/ext/snprintk.c:589 (discriminator 6)
     cba:	f806 9b01 	strb.w	r9, [r6], #1
/home/dangcaominh/STM32MP1/optee-os/optee-os/lib/libutils/ext/snprintk.c:596
     cbe:	f5be 6f80 	cmp.w	lr, #1024	@ 0x400
     cc2:	d106      	bne.n	cd2 <kprintf.constprop.0+0x3ee>
/home/dangcaominh/STM32MP1/optee-os/optee-os/lib/libutils/ext/snprintk.c:597
     cc4:	9a0d      	ldr	r2, [sp, #52]	@ 0x34
/home/dangcaominh/STM32MP1/optee-os/optee-os/lib/libutils/ext/snprintk.c:599 (discriminator 6)
     cc6:	f04f 0c30 	mov.w	ip, #48	@ 0x30
/home/dangcaominh/STM32MP1/optee-os/optee-os/lib/libutils/ext/snprintk.c:597
     cca:	1ad2      	subs	r2, r2, r3
/home/dangcaominh/STM32MP1/optee-os/optee-os/lib/libutils/ext/snprintk.c:598
     ccc:	2a00      	cmp	r2, #0
     cce:	f300 81a1 	bgt.w	1014 <kprintf.constprop.0+0x730>
/home/dangcaominh/STM32MP1/optee-os/optee-os/lib/libutils/ext/snprintk.c:603
     cd2:	1bc0      	subs	r0, r0, r7
/home/dangcaominh/STM32MP1/optee-os/optee-os/lib/libutils/ext/snprintk.c:605 (discriminator 6)
     cd4:	2230      	movs	r2, #48	@ 0x30
/home/dangcaominh/STM32MP1/optee-os/optee-os/lib/libutils/ext/snprintk.c:604
     cd6:	2800      	cmp	r0, #0
     cd8:	f300 81a6 	bgt.w	1028 <kprintf.constprop.0+0x744>
     cdc:	4457      	add	r7, sl
/home/dangcaominh/STM32MP1/optee-os/optee-os/lib/libutils/ext/snprintk.c:608 (discriminator 1)
     cde:	45ba      	cmp	sl, r7
     ce0:	f040 81ac 	bne.w	103c <kprintf.constprop.0+0x758>
/home/dangcaominh/STM32MP1/optee-os/optee-os/lib/libutils/ext/snprintk.c:611
     ce4:	0762      	lsls	r2, r4, #29
     ce6:	f57f ae17 	bpl.w	918 <kprintf.constprop.0+0x34>
/home/dangcaominh/STM32MP1/optee-os/optee-os/lib/libutils/ext/snprintk.c:612
     cea:	9a0d      	ldr	r2, [sp, #52]	@ 0x34
     cec:	1ad3      	subs	r3, r2, r3
/home/dangcaominh/STM32MP1/optee-os/optee-os/lib/libutils/ext/snprintk.c:613
     cee:	2b00      	cmp	r3, #0
     cf0:	f77f ae12 	ble.w	918 <kprintf.constprop.0+0x34>
/home/dangcaominh/STM32MP1/optee-os/optee-os/lib/libutils/ext/snprintk.c:614 (discriminator 1)
     cf4:	b146      	cbz	r6, d08 <kprintf.constprop.0+0x424>
/home/dangcaominh/STM32MP1/optee-os/optee-os/lib/libutils/ext/snprintk.c:614 (discriminator 3)
     cf6:	9a0c      	ldr	r2, [sp, #48]	@ 0x30
     cf8:	b112      	cbz	r2, d00 <kprintf.constprop.0+0x41c>
/home/dangcaominh/STM32MP1/optee-os/optee-os/lib/libutils/ext/snprintk.c:614 (discriminator 5)
     cfa:	9a0e      	ldr	r2, [sp, #56]	@ 0x38
     cfc:	42b2      	cmp	r2, r6
     cfe:	d903      	bls.n	d08 <kprintf.constprop.0+0x424>
/home/dangcaominh/STM32MP1/optee-os/optee-os/lib/libutils/ext/snprintk.c:614 (discriminator 6)
     d00:	f04f 0220 	mov.w	r2, #32
     d04:	f806 2b01 	strb.w	r2, [r6], #1
     d08:	3b01      	subs	r3, #1
     d0a:	e7f0      	b.n	cee <kprintf.constprop.0+0x40a>
/home/dangcaominh/STM32MP1/optee-os/optee-os/lib/libutils/ext/snprintk.c:390 (discriminator 2)
     d0c:	05e5      	lsls	r5, r4, #23
     d0e:	d504      	bpl.n	d1a <kprintf.constprop.0+0x436>
/home/dangcaominh/STM32MP1/optee-os/optee-os/lib/libutils/ext/snprintk.c:390 (discriminator 7)
     d10:	461d      	mov	r5, r3
/home/dangcaominh/STM32MP1/optee-os/optee-os/lib/libutils/ext/snprintk.c:390 (discriminator 1)
     d12:	f855 0b04 	ldr.w	r0, [r5], #4
     d16:	17c1      	asrs	r1, r0, #31
     d18:	e77b      	b.n	c12 <kprintf.constprop.0+0x32e>
/home/dangcaominh/STM32MP1/optee-os/optee-os/lib/libutils/ext/snprintk.c:390 (discriminator 5)
     d1a:	05a0      	lsls	r0, r4, #22
     d1c:	d4f8      	bmi.n	d10 <kprintf.constprop.0+0x42c>
/home/dangcaominh/STM32MP1/optee-os/optee-os/lib/libutils/ext/snprintk.c:390 (discriminator 8)
     d1e:	06a1      	lsls	r1, r4, #26
     d20:	f53f af70 	bmi.w	c04 <kprintf.constprop.0+0x320>
/home/dangcaominh/STM32MP1/optee-os/optee-os/lib/libutils/ext/snprintk.c:390 (discriminator 11)
     d24:	06e2      	lsls	r2, r4, #27
/home/dangcaominh/STM32MP1/optee-os/optee-os/lib/libutils/ext/snprintk.c:317
     d26:	461d      	mov	r5, r3
     d28:	f855 1b04 	ldr.w	r1, [r5], #4
/home/dangcaominh/STM32MP1/optee-os/optee-os/lib/libutils/ext/snprintk.c:390 (discriminator 11)
     d2c:	d501      	bpl.n	d32 <kprintf.constprop.0+0x44e>
/home/dangcaominh/STM32MP1/optee-os/optee-os/lib/libutils/ext/snprintk.c:390 (discriminator 1)
     d2e:	4608      	mov	r0, r1
     d30:	e7f1      	b.n	d16 <kprintf.constprop.0+0x432>
/home/dangcaominh/STM32MP1/optee-os/optee-os/lib/libutils/ext/snprintk.c:390 (discriminator 14)
     d32:	0663      	lsls	r3, r4, #25
     d34:	d5fb      	bpl.n	d2e <kprintf.constprop.0+0x44a>
/home/dangcaominh/STM32MP1/optee-os/optee-os/lib/libutils/ext/snprintk.c:390 (discriminator 1)
     d36:	b208      	sxth	r0, r1
     d38:	f341 31c0 	sbfx	r1, r1, #15, #1
     d3c:	e769      	b.n	c12 <kprintf.constprop.0+0x32e>
/home/dangcaominh/STM32MP1/optee-os/optee-os/lib/libutils/ext/snprintk.c:398
     d3e:	0620      	lsls	r0, r4, #24
     d40:	d506      	bpl.n	d50 <kprintf.constprop.0+0x46c>
/home/dangcaominh/STM32MP1/optee-os/optee-os/lib/libutils/ext/snprintk.c:405 (discriminator 1)
     d42:	990b      	ldr	r1, [sp, #44]	@ 0x2c
     d44:	681a      	ldr	r2, [r3, #0]
     d46:	980b      	ldr	r0, [sp, #44]	@ 0x2c
     d48:	17c9      	asrs	r1, r1, #31
     d4a:	e9c2 0100 	strd	r0, r1, [r2]
     d4e:	e004      	b.n	d5a <kprintf.constprop.0+0x476>
/home/dangcaominh/STM32MP1/optee-os/optee-os/lib/libutils/ext/snprintk.c:400
     d50:	05e1      	lsls	r1, r4, #23
     d52:	d504      	bpl.n	d5e <kprintf.constprop.0+0x47a>
/home/dangcaominh/STM32MP1/optee-os/optee-os/lib/libutils/ext/snprintk.c:401 (discriminator 1)
     d54:	681a      	ldr	r2, [r3, #0]
     d56:	990b      	ldr	r1, [sp, #44]	@ 0x2c
     d58:	6011      	str	r1, [r2, #0]
/home/dangcaominh/STM32MP1/optee-os/optee-os/lib/libutils/ext/snprintk.c:317
     d5a:	1d1d      	adds	r5, r3, #4
     d5c:	e5dc      	b.n	918 <kprintf.constprop.0+0x34>
/home/dangcaominh/STM32MP1/optee-os/optee-os/lib/libutils/ext/snprintk.c:402
     d5e:	05a2      	lsls	r2, r4, #22
     d60:	d4f8      	bmi.n	d54 <kprintf.constprop.0+0x470>
/home/dangcaominh/STM32MP1/optee-os/optee-os/lib/libutils/ext/snprintk.c:404
     d62:	06a7      	lsls	r7, r4, #26
     d64:	d4ed      	bmi.n	d42 <kprintf.constprop.0+0x45e>
/home/dangcaominh/STM32MP1/optee-os/optee-os/lib/libutils/ext/snprintk.c:406
     d66:	06e5      	lsls	r5, r4, #27
     d68:	d4f4      	bmi.n	d54 <kprintf.constprop.0+0x470>
/home/dangcaominh/STM32MP1/optee-os/optee-os/lib/libutils/ext/snprintk.c:408
     d6a:	0664      	lsls	r4, r4, #25
     d6c:	d5f2      	bpl.n	d54 <kprintf.constprop.0+0x470>
/home/dangcaominh/STM32MP1/optee-os/optee-os/lib/libutils/ext/snprintk.c:409 (discriminator 1)
     d6e:	681a      	ldr	r2, [r3, #0]
     d70:	990b      	ldr	r1, [sp, #44]	@ 0x2c
     d72:	8011      	strh	r1, [r2, #0]
     d74:	e7f1      	b.n	d5a <kprintf.constprop.0+0x476>
/home/dangcaominh/STM32MP1/optee-os/optee-os/lib/libutils/ext/snprintk.c:414
     d76:	f044 0410 	orr.w	r4, r4, #16
/home/dangcaominh/STM32MP1/optee-os/optee-os/lib/libutils/ext/snprintk.c:417
     d7a:	f014 0280 	ands.w	r2, r4, #128	@ 0x80
     d7e:	d007      	beq.n	d90 <kprintf.constprop.0+0x4ac>
/home/dangcaominh/STM32MP1/optee-os/optee-os/lib/libutils/ext/snprintk.c:417 (discriminator 10)
     d80:	3307      	adds	r3, #7
     d82:	f023 0307 	bic.w	r3, r3, #7
     d86:	461d      	mov	r5, r3
     d88:	6859      	ldr	r1, [r3, #4]
     d8a:	f855 0b08 	ldr.w	r0, [r5], #8
     d8e:	e006      	b.n	d9e <kprintf.constprop.0+0x4ba>
/home/dangcaominh/STM32MP1/optee-os/optee-os/lib/libutils/ext/snprintk.c:417 (discriminator 2)
     d90:	f414 7180 	ands.w	r1, r4, #256	@ 0x100
     d94:	d00a      	beq.n	dac <kprintf.constprop.0+0x4c8>
/home/dangcaominh/STM32MP1/optee-os/optee-os/lib/libutils/ext/snprintk.c:417 (discriminator 4)
     d96:	461d      	mov	r5, r3
/home/dangcaominh/STM32MP1/optee-os/optee-os/lib/libutils/ext/snprintk.c:417 (discriminator 1)
     d98:	4611      	mov	r1, r2
     d9a:	f855 0b04 	ldr.w	r0, [r5], #4
/home/dangcaominh/STM32MP1/optee-os/optee-os/lib/libutils/ext/snprintk.c:494
     d9e:	2f00      	cmp	r7, #0
     da0:	f04f 0900 	mov.w	r9, #0
     da4:	f6ff af48 	blt.w	c38 <kprintf.constprop.0+0x354>
     da8:	464b      	mov	r3, r9
     daa:	e0e3      	b.n	f74 <kprintf.constprop.0+0x690>
/home/dangcaominh/STM32MP1/optee-os/optee-os/lib/libutils/ext/snprintk.c:417 (discriminator 5)
     dac:	05a0      	lsls	r0, r4, #22
     dae:	d503      	bpl.n	db8 <kprintf.constprop.0+0x4d4>
/home/dangcaominh/STM32MP1/optee-os/optee-os/lib/libutils/ext/snprintk.c:417 (discriminator 7)
     db0:	461d      	mov	r5, r3
/home/dangcaominh/STM32MP1/optee-os/optee-os/lib/libutils/ext/snprintk.c:417 (discriminator 1)
     db2:	f855 0b04 	ldr.w	r0, [r5], #4
     db6:	e7f2      	b.n	d9e <kprintf.constprop.0+0x4ba>
/home/dangcaominh/STM32MP1/optee-os/optee-os/lib/libutils/ext/snprintk.c:417 (discriminator 8)
     db8:	f014 0120 	ands.w	r1, r4, #32
     dbc:	d1e0      	bne.n	d80 <kprintf.constprop.0+0x49c>
/home/dangcaominh/STM32MP1/optee-os/optee-os/lib/libutils/ext/snprintk.c:317
     dbe:	461d      	mov	r5, r3
/home/dangcaominh/STM32MP1/optee-os/optee-os/lib/libutils/ext/snprintk.c:417 (discriminator 11)
     dc0:	f014 0310 	ands.w	r3, r4, #16
/home/dangcaominh/STM32MP1/optee-os/optee-os/lib/libutils/ext/snprintk.c:317
     dc4:	f855 0b04 	ldr.w	r0, [r5], #4
/home/dangcaominh/STM32MP1/optee-os/optee-os/lib/libutils/ext/snprintk.c:417 (discriminator 11)
     dc8:	d1e9      	bne.n	d9e <kprintf.constprop.0+0x4ba>
/home/dangcaominh/STM32MP1/optee-os/optee-os/lib/libutils/ext/snprintk.c:417 (discriminator 14)
     dca:	f014 0140 	ands.w	r1, r4, #64	@ 0x40
     dce:	d0e6      	beq.n	d9e <kprintf.constprop.0+0x4ba>
/home/dangcaominh/STM32MP1/optee-os/optee-os/lib/libutils/ext/snprintk.c:417 (discriminator 1)
     dd0:	b280      	uxth	r0, r0
     dd2:	4619      	mov	r1, r3
     dd4:	e7e3      	b.n	d9e <kprintf.constprop.0+0x4ba>
/home/dangcaominh/STM32MP1/optee-os/optee-os/lib/libutils/ext/snprintk.c:317
     dd6:	461d      	mov	r5, r3
/home/dangcaominh/STM32MP1/optee-os/optee-os/lib/libutils/ext/snprintk.c:421
     dd8:	9b11      	ldr	r3, [sp, #68]	@ 0x44
     dda:	f855 0b04 	ldr.w	r0, [r5], #4
     dde:	b343      	cbz	r3, e32 <kprintf.constprop.0+0x54e>
/home/dangcaominh/STM32MP1/optee-os/optee-os/lib/libutils/ext/snprintk.c:421 (discriminator 1)
     de0:	f898 3000 	ldrb.w	r3, [r8]
     de4:	2b55      	cmp	r3, #85	@ 0x55
     de6:	d124      	bne.n	e32 <kprintf.constprop.0+0x54e>
/home/dangcaominh/STM32MP1/optee-os/optee-os/lib/libutils/ext/snprintk.c:421 (discriminator 2)
     de8:	f898 3001 	ldrb.w	r3, [r8, #1]
     dec:	2b6c      	cmp	r3, #108	@ 0x6c
     dee:	d120      	bne.n	e32 <kprintf.constprop.0+0x54e>
uuid2str():
/home/dangcaominh/STM32MP1/optee-os/optee-os/lib/libutils/ext/snprintk.c:229
     df0:	7bc3      	ldrb	r3, [r0, #15]
     df2:	f10d 0a4c 	add.w	sl, sp, #76	@ 0x4c
     df6:	4a9e      	ldr	r2, [pc, #632]	@ (1070 <kprintf.constprop.0+0x78c>)
     df8:	2125      	movs	r1, #37	@ 0x25
     dfa:	9309      	str	r3, [sp, #36]	@ 0x24
kprintf():
/home/dangcaominh/STM32MP1/optee-os/optee-os/lib/libutils/ext/snprintk.c:426
     dfc:	f108 0802 	add.w	r8, r8, #2
uuid2str():
/home/dangcaominh/STM32MP1/optee-os/optee-os/lib/libutils/ext/snprintk.c:229
     e00:	7b83      	ldrb	r3, [r0, #14]
     e02:	447a      	add	r2, pc
     e04:	9308      	str	r3, [sp, #32]
     e06:	7b43      	ldrb	r3, [r0, #13]
     e08:	9307      	str	r3, [sp, #28]
     e0a:	7b03      	ldrb	r3, [r0, #12]
     e0c:	9306      	str	r3, [sp, #24]
     e0e:	7ac3      	ldrb	r3, [r0, #11]
     e10:	9305      	str	r3, [sp, #20]
     e12:	7a83      	ldrb	r3, [r0, #10]
     e14:	9304      	str	r3, [sp, #16]
     e16:	7a43      	ldrb	r3, [r0, #9]
     e18:	9303      	str	r3, [sp, #12]
     e1a:	7a03      	ldrb	r3, [r0, #8]
     e1c:	9302      	str	r3, [sp, #8]
     e1e:	88c3      	ldrh	r3, [r0, #6]
     e20:	9301      	str	r3, [sp, #4]
     e22:	8883      	ldrh	r3, [r0, #4]
     e24:	9300      	str	r3, [sp, #0]
     e26:	6803      	ldr	r3, [r0, #0]
     e28:	4650      	mov	r0, sl
     e2a:	f7ff fd34 	bl	896 <snprintk>
kprintf():
/home/dangcaominh/STM32MP1/optee-os/optee-os/lib/libutils/ext/snprintk.c:466
     e2e:	4607      	mov	r7, r0
     e30:	e032      	b.n	e98 <kprintf.constprop.0+0x5b4>
/home/dangcaominh/STM32MP1/optee-os/optee-os/lib/libutils/ext/snprintk.c:443
     e32:	4b90      	ldr	r3, [pc, #576]	@ (1074 <kprintf.constprop.0+0x790>)
/home/dangcaominh/STM32MP1/optee-os/optee-os/lib/libutils/ext/snprintk.c:441 (discriminator 1)
     e34:	2100      	movs	r1, #0
/home/dangcaominh/STM32MP1/optee-os/optee-os/lib/libutils/ext/snprintk.c:444
     e36:	f044 0402 	orr.w	r4, r4, #2
/home/dangcaominh/STM32MP1/optee-os/optee-os/lib/libutils/ext/snprintk.c:445
     e3a:	f04f 0b78 	mov.w	fp, #120	@ 0x78
/home/dangcaominh/STM32MP1/optee-os/optee-os/lib/libutils/ext/snprintk.c:443
     e3e:	447b      	add	r3, pc
     e40:	930f      	str	r3, [sp, #60]	@ 0x3c
/home/dangcaominh/STM32MP1/optee-os/optee-os/lib/libutils/ext/snprintk.c:494
     e42:	2f00      	cmp	r7, #0
     e44:	f04f 0900 	mov.w	r9, #0
     e48:	f280 80a0 	bge.w	f8c <kprintf.constprop.0+0x6a8>
     e4c:	f10d 0a71 	add.w	sl, sp, #113	@ 0x71
/home/dangcaominh/STM32MP1/optee-os/optee-os/lib/libutils/ext/snprintk.c:531
     e50:	9a0f      	ldr	r2, [sp, #60]	@ 0x3c
     e52:	f000 030f 	and.w	r3, r0, #15
/home/dangcaominh/STM32MP1/optee-os/optee-os/lib/libutils/ext/snprintk.c:532
     e56:	0900      	lsrs	r0, r0, #4
/home/dangcaominh/STM32MP1/optee-os/optee-os/lib/libutils/ext/snprintk.c:531
     e58:	5cd3      	ldrb	r3, [r2, r3]
/home/dangcaominh/STM32MP1/optee-os/optee-os/lib/libutils/ext/snprintk.c:532
     e5a:	ea40 7001 	orr.w	r0, r0, r1, lsl #28
     e5e:	0909      	lsrs	r1, r1, #4
/home/dangcaominh/STM32MP1/optee-os/optee-os/lib/libutils/ext/snprintk.c:531
     e60:	f80a 3d01 	strb.w	r3, [sl, #-1]!
/home/dangcaominh/STM32MP1/optee-os/optee-os/lib/libutils/ext/snprintk.c:533 (discriminator 1)
     e64:	ea50 0301 	orrs.w	r3, r0, r1
     e68:	d1f2      	bne.n	e50 <kprintf.constprop.0+0x56c>
     e6a:	e6fd      	b.n	c68 <kprintf.constprop.0+0x384>
/home/dangcaominh/STM32MP1/optee-os/optee-os/lib/libutils/ext/snprintk.c:448
     e6c:	461d      	mov	r5, r3
     e6e:	f855 ab04 	ldr.w	sl, [r5], #4
/home/dangcaominh/STM32MP1/optee-os/optee-os/lib/libutils/ext/snprintk.c:448 (discriminator 1)
     e72:	f1ba 0f00 	cmp.w	sl, #0
     e76:	d102      	bne.n	e7e <kprintf.constprop.0+0x59a>
/home/dangcaominh/STM32MP1/optee-os/optee-os/lib/libutils/ext/snprintk.c:450
     e78:	f8df a1fc 	ldr.w	sl, [pc, #508]	@ 1078 <kprintf.constprop.0+0x794>
     e7c:	44fa      	add	sl, pc
/home/dangcaominh/STM32MP1/optee-os/optee-os/lib/libutils/ext/snprintk.c:451
     e7e:	2f00      	cmp	r7, #0
     e80:	db0d      	blt.n	e9e <kprintf.constprop.0+0x5ba>
/home/dangcaominh/STM32MP1/optee-os/optee-os/lib/libutils/ext/snprintk.c:457
     e82:	463a      	mov	r2, r7
     e84:	2100      	movs	r1, #0
     e86:	4650      	mov	r0, sl
     e88:	f00b fe9c 	bl	cbc4 <memchr>
/home/dangcaominh/STM32MP1/optee-os/optee-os/lib/libutils/ext/snprintk.c:459
     e8c:	b128      	cbz	r0, e9a <kprintf.constprop.0+0x5b6>
/home/dangcaominh/STM32MP1/optee-os/optee-os/lib/libutils/ext/snprintk.c:460
     e8e:	eba0 000a 	sub.w	r0, r0, sl
/home/dangcaominh/STM32MP1/optee-os/optee-os/lib/libutils/ext/snprintk.c:461
     e92:	4287      	cmp	r7, r0
     e94:	bfa8      	it	ge
     e96:	4607      	movge	r7, r0
/home/dangcaominh/STM32MP1/optee-os/optee-os/lib/libutils/ext/snprintk.c:291
     e98:	2000      	movs	r0, #0
/home/dangcaominh/STM32MP1/optee-os/optee-os/lib/libutils/ext/snprintk.c:467
     e9a:	4681      	mov	r9, r0
     e9c:	e6e9      	b.n	c72 <kprintf.constprop.0+0x38e>
/home/dangcaominh/STM32MP1/optee-os/optee-os/lib/libutils/ext/snprintk.c:466
     e9e:	4650      	mov	r0, sl
     ea0:	f00b fe9e 	bl	cbe0 <strlen>
     ea4:	e7c3      	b.n	e2e <kprintf.constprop.0+0x54a>
/home/dangcaominh/STM32MP1/optee-os/optee-os/lib/libutils/ext/snprintk.c:470
     ea6:	f044 0410 	orr.w	r4, r4, #16
/home/dangcaominh/STM32MP1/optee-os/optee-os/lib/libutils/ext/snprintk.c:473
     eaa:	f014 0280 	ands.w	r2, r4, #128	@ 0x80
     eae:	d00e      	beq.n	ece <kprintf.constprop.0+0x5ea>
/home/dangcaominh/STM32MP1/optee-os/optee-os/lib/libutils/ext/snprintk.c:473 (discriminator 1)
     eb0:	3307      	adds	r3, #7
     eb2:	f023 0307 	bic.w	r3, r3, #7
     eb6:	461d      	mov	r5, r3
     eb8:	6859      	ldr	r1, [r3, #4]
     eba:	f855 0b08 	ldr.w	r0, [r5], #8
/home/dangcaominh/STM32MP1/optee-os/optee-os/lib/libutils/ext/snprintk.c:488
     ebe:	f04f 0900 	mov.w	r9, #0
/home/dangcaominh/STM32MP1/optee-os/optee-os/lib/libutils/ext/snprintk.c:494
     ec2:	2f00      	cmp	r7, #0
     ec4:	da55      	bge.n	f72 <kprintf.constprop.0+0x68e>
     ec6:	f10d 0371 	add.w	r3, sp, #113	@ 0x71
     eca:	9310      	str	r3, [sp, #64]	@ 0x40
     ecc:	e06a      	b.n	fa4 <kprintf.constprop.0+0x6c0>
/home/dangcaominh/STM32MP1/optee-os/optee-os/lib/libutils/ext/snprintk.c:473 (discriminator 2)
     ece:	f414 7180 	ands.w	r1, r4, #256	@ 0x100
     ed2:	d004      	beq.n	ede <kprintf.constprop.0+0x5fa>
/home/dangcaominh/STM32MP1/optee-os/optee-os/lib/libutils/ext/snprintk.c:473 (discriminator 4)
     ed4:	461d      	mov	r5, r3
/home/dangcaominh/STM32MP1/optee-os/optee-os/lib/libutils/ext/snprintk.c:473 (discriminator 1)
     ed6:	4611      	mov	r1, r2
     ed8:	f855 0b04 	ldr.w	r0, [r5], #4
     edc:	e7ef      	b.n	ebe <kprintf.constprop.0+0x5da>
/home/dangcaominh/STM32MP1/optee-os/optee-os/lib/libutils/ext/snprintk.c:473 (discriminator 5)
     ede:	f414 7900 	ands.w	r9, r4, #512	@ 0x200
     ee2:	d003      	beq.n	eec <kprintf.constprop.0+0x608>
/home/dangcaominh/STM32MP1/optee-os/optee-os/lib/libutils/ext/snprintk.c:473 (discriminator 7)
     ee4:	461d      	mov	r5, r3
/home/dangcaominh/STM32MP1/optee-os/optee-os/lib/libutils/ext/snprintk.c:473 (discriminator 1)
     ee6:	f855 0b04 	ldr.w	r0, [r5], #4
     eea:	e7e8      	b.n	ebe <kprintf.constprop.0+0x5da>
/home/dangcaominh/STM32MP1/optee-os/optee-os/lib/libutils/ext/snprintk.c:473 (discriminator 8)
     eec:	f014 0120 	ands.w	r1, r4, #32
     ef0:	d007      	beq.n	f02 <kprintf.constprop.0+0x61e>
/home/dangcaominh/STM32MP1/optee-os/optee-os/lib/libutils/ext/snprintk.c:473 (discriminator 10)
     ef2:	3307      	adds	r3, #7
     ef4:	f023 0307 	bic.w	r3, r3, #7
     ef8:	461d      	mov	r5, r3
     efa:	6859      	ldr	r1, [r3, #4]
     efc:	f855 0b08 	ldr.w	r0, [r5], #8
     f00:	e7df      	b.n	ec2 <kprintf.constprop.0+0x5de>
/home/dangcaominh/STM32MP1/optee-os/optee-os/lib/libutils/ext/snprintk.c:317
     f02:	461d      	mov	r5, r3
/home/dangcaominh/STM32MP1/optee-os/optee-os/lib/libutils/ext/snprintk.c:473 (discriminator 11)
     f04:	f014 0310 	ands.w	r3, r4, #16
/home/dangcaominh/STM32MP1/optee-os/optee-os/lib/libutils/ext/snprintk.c:317
     f08:	f855 0b04 	ldr.w	r0, [r5], #4
/home/dangcaominh/STM32MP1/optee-os/optee-os/lib/libutils/ext/snprintk.c:473 (discriminator 11)
     f0c:	d1d7      	bne.n	ebe <kprintf.constprop.0+0x5da>
/home/dangcaominh/STM32MP1/optee-os/optee-os/lib/libutils/ext/snprintk.c:473 (discriminator 14)
     f0e:	f014 0140 	ands.w	r1, r4, #64	@ 0x40
     f12:	d0d4      	beq.n	ebe <kprintf.constprop.0+0x5da>
/home/dangcaominh/STM32MP1/optee-os/optee-os/lib/libutils/ext/snprintk.c:473 (discriminator 1)
     f14:	b280      	uxth	r0, r0
     f16:	4619      	mov	r1, r3
     f18:	e7d1      	b.n	ebe <kprintf.constprop.0+0x5da>
/home/dangcaominh/STM32MP1/optee-os/optee-os/lib/libutils/ext/snprintk.c:297
     f1a:	4a58      	ldr	r2, [pc, #352]	@ (107c <kprintf.constprop.0+0x798>)
     f1c:	447a      	add	r2, pc
     f1e:	3211      	adds	r2, #17
     f20:	e5b5      	b.n	a8e <kprintf.constprop.0+0x1aa>
/home/dangcaominh/STM32MP1/optee-os/optee-os/lib/libutils/ext/snprintk.c:481 (discriminator 2)
     f22:	f414 7180 	ands.w	r1, r4, #256	@ 0x100
     f26:	d00e      	beq.n	f46 <kprintf.constprop.0+0x662>
/home/dangcaominh/STM32MP1/optee-os/optee-os/lib/libutils/ext/snprintk.c:481 (discriminator 4)
     f28:	461d      	mov	r5, r3
/home/dangcaominh/STM32MP1/optee-os/optee-os/lib/libutils/ext/snprintk.c:481 (discriminator 1)
     f2a:	4611      	mov	r1, r2
     f2c:	f855 0b04 	ldr.w	r0, [r5], #4
/home/dangcaominh/STM32MP1/optee-os/optee-os/lib/libutils/ext/snprintk.c:484
     f30:	07e3      	lsls	r3, r4, #31
     f32:	d586      	bpl.n	e42 <kprintf.constprop.0+0x55e>
/home/dangcaominh/STM32MP1/optee-os/optee-os/lib/libutils/ext/snprintk.c:484 (discriminator 1)
     f34:	ea50 0301 	orrs.w	r3, r0, r1
     f38:	d083      	beq.n	e42 <kprintf.constprop.0+0x55e>
/home/dangcaominh/STM32MP1/optee-os/optee-os/lib/libutils/ext/snprintk.c:485
     f3a:	f044 0402 	orr.w	r4, r4, #2
/home/dangcaominh/STM32MP1/optee-os/optee-os/lib/libutils/ext/snprintk.c:482
     f3e:	2302      	movs	r3, #2
/home/dangcaominh/STM32MP1/optee-os/optee-os/lib/libutils/ext/snprintk.c:488
     f40:	f04f 0900 	mov.w	r9, #0
     f44:	e66f      	b.n	c26 <kprintf.constprop.0+0x342>
/home/dangcaominh/STM32MP1/optee-os/optee-os/lib/libutils/ext/snprintk.c:481 (discriminator 5)
     f46:	05a2      	lsls	r2, r4, #22
     f48:	d503      	bpl.n	f52 <kprintf.constprop.0+0x66e>
/home/dangcaominh/STM32MP1/optee-os/optee-os/lib/libutils/ext/snprintk.c:481 (discriminator 7)
     f4a:	461d      	mov	r5, r3
/home/dangcaominh/STM32MP1/optee-os/optee-os/lib/libutils/ext/snprintk.c:481 (discriminator 1)
     f4c:	f855 0b04 	ldr.w	r0, [r5], #4
     f50:	e7ee      	b.n	f30 <kprintf.constprop.0+0x64c>
/home/dangcaominh/STM32MP1/optee-os/optee-os/lib/libutils/ext/snprintk.c:481 (discriminator 8)
     f52:	f014 0120 	ands.w	r1, r4, #32
     f56:	f47f ad9f 	bne.w	a98 <kprintf.constprop.0+0x1b4>
/home/dangcaominh/STM32MP1/optee-os/optee-os/lib/libutils/ext/snprintk.c:317
     f5a:	461d      	mov	r5, r3
/home/dangcaominh/STM32MP1/optee-os/optee-os/lib/libutils/ext/snprintk.c:481 (discriminator 11)
     f5c:	f014 0310 	ands.w	r3, r4, #16
/home/dangcaominh/STM32MP1/optee-os/optee-os/lib/libutils/ext/snprintk.c:317
     f60:	f855 0b04 	ldr.w	r0, [r5], #4
/home/dangcaominh/STM32MP1/optee-os/optee-os/lib/libutils/ext/snprintk.c:481 (discriminator 11)
     f64:	d1e4      	bne.n	f30 <kprintf.constprop.0+0x64c>
/home/dangcaominh/STM32MP1/optee-os/optee-os/lib/libutils/ext/snprintk.c:481 (discriminator 14)
     f66:	f014 0140 	ands.w	r1, r4, #64	@ 0x40
/home/dangcaominh/STM32MP1/optee-os/optee-os/lib/libutils/ext/snprintk.c:481 (discriminator 1)
     f6a:	bf1c      	itt	ne
     f6c:	b280      	uxthne	r0, r0
     f6e:	4619      	movne	r1, r3
     f70:	e7de      	b.n	f30 <kprintf.constprop.0+0x64c>
/home/dangcaominh/STM32MP1/optee-os/optee-os/lib/libutils/ext/snprintk.c:494
     f72:	2301      	movs	r3, #1
/home/dangcaominh/STM32MP1/optee-os/optee-os/lib/libutils/ext/snprintk.c:503
     f74:	ea50 0201 	orrs.w	r2, r0, r1
/home/dangcaominh/STM32MP1/optee-os/optee-os/lib/libutils/ext/snprintk.c:495
     f78:	f424 6480 	bic.w	r4, r4, #1024	@ 0x400
/home/dangcaominh/STM32MP1/optee-os/optee-os/lib/libutils/ext/snprintk.c:503
     f7c:	f47f ae56 	bne.w	c2c <kprintf.constprop.0+0x348>
/home/dangcaominh/STM32MP1/optee-os/optee-os/lib/libutils/ext/snprintk.c:503 (discriminator 1)
     f80:	2f00      	cmp	r7, #0
     f82:	f47f ae53 	bne.w	c2c <kprintf.constprop.0+0x348>
/home/dangcaominh/STM32MP1/optee-os/optee-os/lib/libutils/ext/snprintk.c:502
     f86:	f10d 0a71 	add.w	sl, sp, #113	@ 0x71
     f8a:	e66d      	b.n	c68 <kprintf.constprop.0+0x384>
/home/dangcaominh/STM32MP1/optee-os/optee-os/lib/libutils/ext/snprintk.c:494
     f8c:	2302      	movs	r3, #2
     f8e:	e7f1      	b.n	f74 <kprintf.constprop.0+0x690>
/home/dangcaominh/STM32MP1/optee-os/optee-os/lib/libutils/ext/snprintk.c:523
     f90:	220a      	movs	r2, #10
     f92:	2300      	movs	r3, #0
     f94:	f000 e88c 	blx	10b0 <__aeabi_uldivmod>
     f98:	9b10      	ldr	r3, [sp, #64]	@ 0x40
     f9a:	3230      	adds	r2, #48	@ 0x30
     f9c:	f8cd a040 	str.w	sl, [sp, #64]	@ 0x40
     fa0:	f803 2c01 	strb.w	r2, [r3, #-1]
     fa4:	9b10      	ldr	r3, [sp, #64]	@ 0x40
/home/dangcaominh/STM32MP1/optee-os/optee-os/lib/libutils/ext/snprintk.c:522
     fa6:	280a      	cmp	r0, #10
/home/dangcaominh/STM32MP1/optee-os/optee-os/lib/libutils/ext/snprintk.c:523
     fa8:	f103 3aff 	add.w	sl, r3, #4294967295	@ 0xffffffff
/home/dangcaominh/STM32MP1/optee-os/optee-os/lib/libutils/ext/snprintk.c:522
     fac:	f171 0300 	sbcs.w	r3, r1, #0
     fb0:	d2ee      	bcs.n	f90 <kprintf.constprop.0+0x6ac>
/home/dangcaominh/STM32MP1/optee-os/optee-os/lib/libutils/ext/snprintk.c:526
     fb2:	9b10      	ldr	r3, [sp, #64]	@ 0x40
     fb4:	3030      	adds	r0, #48	@ 0x30
     fb6:	f803 0c01 	strb.w	r0, [r3, #-1]
/home/dangcaominh/STM32MP1/optee-os/optee-os/lib/libutils/ext/snprintk.c:527
     fba:	e655      	b.n	c68 <kprintf.constprop.0+0x384>
/home/dangcaominh/STM32MP1/optee-os/optee-os/lib/libutils/ext/snprintk.c:574
     fbc:	07a2      	lsls	r2, r4, #30
/home/dangcaominh/STM32MP1/optee-os/optee-os/lib/libutils/ext/snprintk.c:575
     fbe:	bf48      	it	mi
     fc0:	3302      	addmi	r3, #2
     fc2:	e65f      	b.n	c84 <kprintf.constprop.0+0x3a0>
/home/dangcaominh/STM32MP1/optee-os/optee-os/lib/libutils/ext/snprintk.c:584 (discriminator 1)
     fc4:	b146      	cbz	r6, fd8 <kprintf.constprop.0+0x6f4>
/home/dangcaominh/STM32MP1/optee-os/optee-os/lib/libutils/ext/snprintk.c:584 (discriminator 3)
     fc6:	990c      	ldr	r1, [sp, #48]	@ 0x30
     fc8:	b111      	cbz	r1, fd0 <kprintf.constprop.0+0x6ec>
/home/dangcaominh/STM32MP1/optee-os/optee-os/lib/libutils/ext/snprintk.c:584 (discriminator 5)
     fca:	990e      	ldr	r1, [sp, #56]	@ 0x38
     fcc:	42b1      	cmp	r1, r6
     fce:	d903      	bls.n	fd8 <kprintf.constprop.0+0x6f4>
/home/dangcaominh/STM32MP1/optee-os/optee-os/lib/libutils/ext/snprintk.c:584 (discriminator 6)
     fd0:	f04f 0120 	mov.w	r1, #32
     fd4:	f806 1b01 	strb.w	r1, [r6], #1
     fd8:	3a01      	subs	r2, #1
     fda:	e661      	b.n	ca0 <kprintf.constprop.0+0x3bc>
/home/dangcaominh/STM32MP1/optee-os/optee-os/lib/libutils/ext/snprintk.c:590
     fdc:	07a1      	lsls	r1, r4, #30
     fde:	f57f ae6e 	bpl.w	cbe <kprintf.constprop.0+0x3da>
/home/dangcaominh/STM32MP1/optee-os/optee-os/lib/libutils/ext/snprintk.c:591 (discriminator 1)
     fe2:	2e00      	cmp	r6, #0
     fe4:	f43f ae6b 	beq.w	cbe <kprintf.constprop.0+0x3da>
/home/dangcaominh/STM32MP1/optee-os/optee-os/lib/libutils/ext/snprintk.c:591 (discriminator 3)
     fe8:	9a0c      	ldr	r2, [sp, #48]	@ 0x30
     fea:	b16a      	cbz	r2, 1008 <kprintf.constprop.0+0x724>
/home/dangcaominh/STM32MP1/optee-os/optee-os/lib/libutils/ext/snprintk.c:591 (discriminator 5)
     fec:	9a0e      	ldr	r2, [sp, #56]	@ 0x38
     fee:	42b2      	cmp	r2, r6
     ff0:	f67f ae65 	bls.w	cbe <kprintf.constprop.0+0x3da>
/home/dangcaominh/STM32MP1/optee-os/optee-os/lib/libutils/ext/snprintk.c:592 (discriminator 5)
     ff4:	990e      	ldr	r1, [sp, #56]	@ 0x38
/home/dangcaominh/STM32MP1/optee-os/optee-os/lib/libutils/ext/snprintk.c:591 (discriminator 6)
     ff6:	4632      	mov	r2, r6
     ff8:	f04f 0c30 	mov.w	ip, #48	@ 0x30
     ffc:	f802 cb01 	strb.w	ip, [r2], #1
/home/dangcaominh/STM32MP1/optee-os/optee-os/lib/libutils/ext/snprintk.c:592 (discriminator 5)
    1000:	4291      	cmp	r1, r2
    1002:	d803      	bhi.n	100c <kprintf.constprop.0+0x728>
    1004:	4616      	mov	r6, r2
    1006:	e65a      	b.n	cbe <kprintf.constprop.0+0x3da>
/home/dangcaominh/STM32MP1/optee-os/optee-os/lib/libutils/ext/snprintk.c:591 (discriminator 6)
    1008:	2230      	movs	r2, #48	@ 0x30
    100a:	7032      	strb	r2, [r6, #0]
/home/dangcaominh/STM32MP1/optee-os/optee-os/lib/libutils/ext/snprintk.c:592 (discriminator 6)
    100c:	f886 b001 	strb.w	fp, [r6, #1]
    1010:	3602      	adds	r6, #2
    1012:	e654      	b.n	cbe <kprintf.constprop.0+0x3da>
/home/dangcaominh/STM32MP1/optee-os/optee-os/lib/libutils/ext/snprintk.c:599 (discriminator 1)
    1014:	b136      	cbz	r6, 1024 <kprintf.constprop.0+0x740>
/home/dangcaominh/STM32MP1/optee-os/optee-os/lib/libutils/ext/snprintk.c:599 (discriminator 3)
    1016:	990c      	ldr	r1, [sp, #48]	@ 0x30
    1018:	b111      	cbz	r1, 1020 <kprintf.constprop.0+0x73c>
/home/dangcaominh/STM32MP1/optee-os/optee-os/lib/libutils/ext/snprintk.c:599 (discriminator 5)
    101a:	990e      	ldr	r1, [sp, #56]	@ 0x38
    101c:	42b1      	cmp	r1, r6
    101e:	d901      	bls.n	1024 <kprintf.constprop.0+0x740>
/home/dangcaominh/STM32MP1/optee-os/optee-os/lib/libutils/ext/snprintk.c:599 (discriminator 6)
    1020:	f806 cb01 	strb.w	ip, [r6], #1
    1024:	3a01      	subs	r2, #1
    1026:	e651      	b.n	ccc <kprintf.constprop.0+0x3e8>
/home/dangcaominh/STM32MP1/optee-os/optee-os/lib/libutils/ext/snprintk.c:605 (discriminator 1)
    1028:	b136      	cbz	r6, 1038 <kprintf.constprop.0+0x754>
/home/dangcaominh/STM32MP1/optee-os/optee-os/lib/libutils/ext/snprintk.c:605 (discriminator 3)
    102a:	990c      	ldr	r1, [sp, #48]	@ 0x30
    102c:	b111      	cbz	r1, 1034 <kprintf.constprop.0+0x750>
/home/dangcaominh/STM32MP1/optee-os/optee-os/lib/libutils/ext/snprintk.c:605 (discriminator 5)
    102e:	990e      	ldr	r1, [sp, #56]	@ 0x38
    1030:	42b1      	cmp	r1, r6
    1032:	d901      	bls.n	1038 <kprintf.constprop.0+0x754>
/home/dangcaominh/STM32MP1/optee-os/optee-os/lib/libutils/ext/snprintk.c:605 (discriminator 6)
    1034:	f806 2b01 	strb.w	r2, [r6], #1
    1038:	3801      	subs	r0, #1
    103a:	e64c      	b.n	cd6 <kprintf.constprop.0+0x3f2>
/home/dangcaominh/STM32MP1/optee-os/optee-os/lib/libutils/ext/snprintk.c:609 (discriminator 1)
    103c:	b146      	cbz	r6, 1050 <kprintf.constprop.0+0x76c>
/home/dangcaominh/STM32MP1/optee-os/optee-os/lib/libutils/ext/snprintk.c:609 (discriminator 3)
    103e:	9a0c      	ldr	r2, [sp, #48]	@ 0x30
    1040:	b112      	cbz	r2, 1048 <kprintf.constprop.0+0x764>
/home/dangcaominh/STM32MP1/optee-os/optee-os/lib/libutils/ext/snprintk.c:609 (discriminator 5)
    1042:	9a0e      	ldr	r2, [sp, #56]	@ 0x38
    1044:	42b2      	cmp	r2, r6
    1046:	d903      	bls.n	1050 <kprintf.constprop.0+0x76c>
/home/dangcaominh/STM32MP1/optee-os/optee-os/lib/libutils/ext/snprintk.c:609 (discriminator 6)
    1048:	f89a 2000 	ldrb.w	r2, [sl]
    104c:	f806 2b01 	strb.w	r2, [r6], #1
/home/dangcaominh/STM32MP1/optee-os/optee-os/lib/libutils/ext/snprintk.c:608
    1050:	f10a 0a01 	add.w	sl, sl, #1
    1054:	e643      	b.n	cde <kprintf.constprop.0+0x3fa>
/home/dangcaominh/STM32MP1/optee-os/optee-os/lib/libutils/ext/snprintk.c:622
    1056:	980b      	ldr	r0, [sp, #44]	@ 0x2c
    1058:	b01f      	add	sp, #124	@ 0x7c
    105a:	e8bd 8ff0 	ldmia.w	sp!, {r4, r5, r6, r7, r8, r9, sl, fp, pc}
    105e:	bf00      	nop
    1060:	0000d78c 	.word	0x0000d78c
    1064:	0000000c 	.word	0x0000000c
    1068:	0000d754 	.word	0x0000d754
    106c:	0000d0e6 	.word	0x0000d0e6
    1070:	0000c299 	.word	0x0000c299
    1074:	0000cd34 	.word	0x0000cd34
    1078:	0000c218 	.word	0x0000c218
    107c:	0000cc56 	.word	0x0000cc56

00001080 <__vsprintf>:
__vsprintf():
/home/dangcaominh/STM32MP1/optee-os/optee-os/lib/libutils/ext/snprintk.c:155
    1080:	b513      	push	{r0, r1, r4, lr}
    1082:	4604      	mov	r4, r0
    1084:	4608      	mov	r0, r1
/home/dangcaominh/STM32MP1/optee-os/optee-os/lib/libutils/ext/snprintk.c:156
    1086:	2100      	movs	r1, #0
    1088:	9100      	str	r1, [sp, #0]
/home/dangcaominh/STM32MP1/optee-os/optee-os/lib/libutils/ext/snprintk.c:155
    108a:	4613      	mov	r3, r2
/home/dangcaominh/STM32MP1/optee-os/optee-os/lib/libutils/ext/snprintk.c:156
    108c:	4622      	mov	r2, r4
    108e:	f7ff fc29 	bl	8e4 <kprintf.constprop.0>
/home/dangcaominh/STM32MP1/optee-os/optee-os/lib/libutils/ext/snprintk.c:157
    1092:	b002      	add	sp, #8
    1094:	bd10      	pop	{r4, pc}
    1096:	bf00      	nop

00001098 <__aeabi_ldivmod>:
__aeabi_ldivmod():
/home/dangcaominh/STM32MP1/optee-os/optee-os/lib/libutils/isoc/arch/arm/arm32_aeabi_ldivmod_a32.S:14
    1098:	e92d5000 	push	{ip, lr}
/home/dangcaominh/STM32MP1/optee-os/optee-os/lib/libutils/isoc/arch/arm/arm32_aeabi_ldivmod_a32.S:16
    109c:	e92d000f 	push	{r0, r1, r2, r3}
/home/dangcaominh/STM32MP1/optee-os/optee-os/lib/libutils/isoc/arch/arm/arm32_aeabi_ldivmod_a32.S:18
    10a0:	e1a0000d 	mov	r0, sp
/home/dangcaominh/STM32MP1/optee-os/optee-os/lib/libutils/isoc/arch/arm/arm32_aeabi_ldivmod_a32.S:19
    10a4:	fa000045 	blx	11c0 <__l_divmod>
/home/dangcaominh/STM32MP1/optee-os/optee-os/lib/libutils/isoc/arch/arm/arm32_aeabi_ldivmod_a32.S:20
    10a8:	e8bd000f 	pop	{r0, r1, r2, r3}
/home/dangcaominh/STM32MP1/optee-os/optee-os/lib/libutils/isoc/arch/arm/arm32_aeabi_ldivmod_a32.S:21
    10ac:	e8bd9000 	pop	{ip, pc}

000010b0 <__aeabi_uldivmod>:
__aeabi_uldivmod():
/home/dangcaominh/STM32MP1/optee-os/optee-os/lib/libutils/isoc/arch/arm/arm32_aeabi_ldivmod_a32.S:29
    10b0:	e92d5000 	push	{ip, lr}
/home/dangcaominh/STM32MP1/optee-os/optee-os/lib/libutils/isoc/arch/arm/arm32_aeabi_ldivmod_a32.S:31
    10b4:	e92d000f 	push	{r0, r1, r2, r3}
/home/dangcaominh/STM32MP1/optee-os/optee-os/lib/libutils/isoc/arch/arm/arm32_aeabi_ldivmod_a32.S:33
    10b8:	e1a0000d 	mov	r0, sp
/home/dangcaominh/STM32MP1/optee-os/optee-os/lib/libutils/isoc/arch/arm/arm32_aeabi_ldivmod_a32.S:34
    10bc:	fb000023 	blx	1152 <__ul_divmod>
/home/dangcaominh/STM32MP1/optee-os/optee-os/lib/libutils/isoc/arch/arm/arm32_aeabi_ldivmod_a32.S:35
    10c0:	e8bd000f 	pop	{r0, r1, r2, r3}
/home/dangcaominh/STM32MP1/optee-os/optee-os/lib/libutils/isoc/arch/arm/arm32_aeabi_ldivmod_a32.S:36
    10c4:	e8bd9000 	pop	{ip, pc}

000010c8 <ul_div_qr>:
ul_div_qr():
/home/dangcaominh/STM32MP1/optee-os/optee-os/lib/libutils/isoc/arch/arm/arm32_aeabi_ldivmod.c:47
    10c8:	468c      	mov	ip, r1
division_lqr():
/home/dangcaominh/STM32MP1/optee-os/optee-os/lib/libutils/isoc/arch/arm/arm32_aeabi_ldivmod.c:22
    10ca:	ea52 0103 	orrs.w	r1, r2, r3
ul_div_qr():
/home/dangcaominh/STM32MP1/optee-os/optee-os/lib/libutils/isoc/arch/arm/arm32_aeabi_ldivmod.c:47
    10ce:	b5f0      	push	{r4, r5, r6, r7, lr}
    10d0:	9d05      	ldr	r5, [sp, #20]
division_lqr():
/home/dangcaominh/STM32MP1/optee-os/optee-os/lib/libutils/isoc/arch/arm/arm32_aeabi_ldivmod.c:22
    10d2:	d126      	bne.n	1122 <ul_div_qr+0x5a>
/home/dangcaominh/STM32MP1/optee-os/optee-os/lib/libutils/isoc/arch/arm/arm32_aeabi_ldivmod.c:23
    10d4:	ffc7 0e1f 	vmov.i8	d16, #255	@ 0xff
    10d8:	edc5 0b02 	vstr	d16, [r5, #8]
ul_div_qr():
/home/dangcaominh/STM32MP1/optee-os/optee-os/lib/libutils/isoc/arch/arm/arm32_aeabi_ldivmod.c:52
    10dc:	692b      	ldr	r3, [r5, #16]
    10de:	b133      	cbz	r3, 10ee <ul_div_qr+0x26>
/home/dangcaominh/STM32MP1/optee-os/optee-os/lib/libutils/isoc/arch/arm/arm32_aeabi_ldivmod.c:53
    10e0:	e9d5 3200 	ldrd	r3, r2, [r5]
    10e4:	425b      	negs	r3, r3
    10e6:	eb62 0242 	sbc.w	r2, r2, r2, lsl #1
    10ea:	e9c5 3200 	strd	r3, r2, [r5]
/home/dangcaominh/STM32MP1/optee-os/optee-os/lib/libutils/isoc/arch/arm/arm32_aeabi_ldivmod.c:54
    10ee:	696b      	ldr	r3, [r5, #20]
    10f0:	b133      	cbz	r3, 1100 <ul_div_qr+0x38>
/home/dangcaominh/STM32MP1/optee-os/optee-os/lib/libutils/isoc/arch/arm/arm32_aeabi_ldivmod.c:55
    10f2:	e9d5 3202 	ldrd	r3, r2, [r5, #8]
    10f6:	425b      	negs	r3, r3
    10f8:	eb62 0242 	sbc.w	r2, r2, r2, lsl #1
    10fc:	e9c5 3202 	strd	r3, r2, [r5, #8]
/home/dangcaominh/STM32MP1/optee-os/optee-os/lib/libutils/isoc/arch/arm/arm32_aeabi_ldivmod.c:56
    1100:	bdf0      	pop	{r4, r5, r6, r7, pc}
division_lqr():
/home/dangcaominh/STM32MP1/optee-os/optee-os/lib/libutils/isoc/arch/arm/arm32_aeabi_ldivmod.c:28
    1102:	19b6      	adds	r6, r6, r6
    1104:	417f      	adcs	r7, r7
/home/dangcaominh/STM32MP1/optee-os/optee-os/lib/libutils/isoc/arch/arm/arm32_aeabi_ldivmod.c:29
    1106:	1892      	adds	r2, r2, r2
    1108:	415b      	adcs	r3, r3
/home/dangcaominh/STM32MP1/optee-os/optee-os/lib/libutils/isoc/arch/arm/arm32_aeabi_ldivmod.c:27
    110a:	2b00      	cmp	r3, #0
    110c:	daf9      	bge.n	1102 <ul_div_qr+0x3a>
/home/dangcaominh/STM32MP1/optee-os/optee-os/lib/libutils/isoc/arch/arm/arm32_aeabi_ldivmod.c:21
    110e:	2400      	movs	r4, #0
    1110:	4621      	mov	r1, r4
/home/dangcaominh/STM32MP1/optee-os/optee-os/lib/libutils/isoc/arch/arm/arm32_aeabi_ldivmod.c:32
    1112:	ea56 0e07 	orrs.w	lr, r6, r7
    1116:	d107      	bne.n	1128 <ul_div_qr+0x60>
/home/dangcaominh/STM32MP1/optee-os/optee-os/lib/libutils/isoc/arch/arm/arm32_aeabi_ldivmod.c:41
    1118:	e9c5 0c02 	strd	r0, ip, [r5, #8]
/home/dangcaominh/STM32MP1/optee-os/optee-os/lib/libutils/isoc/arch/arm/arm32_aeabi_ldivmod.c:42
    111c:	e9c5 4100 	strd	r4, r1, [r5]
    1120:	e7dc      	b.n	10dc <ul_div_qr+0x14>
/home/dangcaominh/STM32MP1/optee-os/optee-os/lib/libutils/isoc/arch/arm/arm32_aeabi_ldivmod.c:21
    1122:	2601      	movs	r6, #1
    1124:	2700      	movs	r7, #0
    1126:	e7f0      	b.n	110a <ul_div_qr+0x42>
/home/dangcaominh/STM32MP1/optee-os/optee-os/lib/libutils/isoc/arch/arm/arm32_aeabi_ldivmod.c:33
    1128:	1924      	adds	r4, r4, r4
    112a:	4149      	adcs	r1, r1
/home/dangcaominh/STM32MP1/optee-os/optee-os/lib/libutils/isoc/arch/arm/arm32_aeabi_ldivmod.c:34
    112c:	4290      	cmp	r0, r2
    112e:	eb7c 0e03 	sbcs.w	lr, ip, r3
    1132:	d305      	bcc.n	1140 <ul_div_qr+0x78>
/home/dangcaominh/STM32MP1/optee-os/optee-os/lib/libutils/isoc/arch/arm/arm32_aeabi_ldivmod.c:35
    1134:	1a80      	subs	r0, r0, r2
    1136:	eb6c 0c03 	sbc.w	ip, ip, r3
/home/dangcaominh/STM32MP1/optee-os/optee-os/lib/libutils/isoc/arch/arm/arm32_aeabi_ldivmod.c:36
    113a:	3401      	adds	r4, #1
    113c:	f141 0100 	adc.w	r1, r1, #0
/home/dangcaominh/STM32MP1/optee-os/optee-os/lib/libutils/isoc/arch/arm/arm32_aeabi_ldivmod.c:38
    1140:	0852      	lsrs	r2, r2, #1
/home/dangcaominh/STM32MP1/optee-os/optee-os/lib/libutils/isoc/arch/arm/arm32_aeabi_ldivmod.c:39
    1142:	0876      	lsrs	r6, r6, #1
/home/dangcaominh/STM32MP1/optee-os/optee-os/lib/libutils/isoc/arch/arm/arm32_aeabi_ldivmod.c:38
    1144:	ea42 72c3 	orr.w	r2, r2, r3, lsl #31
/home/dangcaominh/STM32MP1/optee-os/optee-os/lib/libutils/isoc/arch/arm/arm32_aeabi_ldivmod.c:39
    1148:	ea46 76c7 	orr.w	r6, r6, r7, lsl #31
/home/dangcaominh/STM32MP1/optee-os/optee-os/lib/libutils/isoc/arch/arm/arm32_aeabi_ldivmod.c:38
    114c:	085b      	lsrs	r3, r3, #1
/home/dangcaominh/STM32MP1/optee-os/optee-os/lib/libutils/isoc/arch/arm/arm32_aeabi_ldivmod.c:39
    114e:	087f      	lsrs	r7, r7, #1
    1150:	e7df      	b.n	1112 <ul_div_qr+0x4a>

00001152 <__ul_divmod>:
__ul_divmod():
/home/dangcaominh/STM32MP1/optee-os/optee-os/lib/libutils/isoc/arch/arm/arm32_aeabi_ldivmod.c:66
    1152:	4a18      	ldr	r2, [pc, #96]	@ (11b4 <__ul_divmod+0x62>)
    1154:	4b18      	ldr	r3, [pc, #96]	@ (11b8 <__ul_divmod+0x66>)
    1156:	447a      	add	r2, pc
    1158:	b510      	push	{r4, lr}
    115a:	b08a      	sub	sp, #40	@ 0x28
    115c:	58d3      	ldr	r3, [r2, r3]
    115e:	4604      	mov	r4, r0
/home/dangcaominh/STM32MP1/optee-os/optee-os/lib/libutils/isoc/arch/arm/arm32_aeabi_ldivmod.c:69
    1160:	efc0 0010 	vmov.i32	d16, #0	@ 0x00000000
/home/dangcaominh/STM32MP1/optee-os/optee-os/lib/libutils/isoc/arch/arm/arm32_aeabi_ldivmod.c:66
    1164:	681b      	ldr	r3, [r3, #0]
    1166:	9309      	str	r3, [sp, #36]	@ 0x24
    1168:	f04f 0300 	mov.w	r3, #0
/home/dangcaominh/STM32MP1/optee-os/optee-os/lib/libutils/isoc/arch/arm/arm32_aeabi_ldivmod.c:69
    116c:	ab02      	add	r3, sp, #8
/home/dangcaominh/STM32MP1/optee-os/optee-os/lib/libutils/isoc/arch/arm/arm32_aeabi_ldivmod.c:71
    116e:	9300      	str	r3, [sp, #0]
    1170:	e9d0 2302 	ldrd	r2, r3, [r0, #8]
    1174:	e9d0 0100 	ldrd	r0, r1, [r0]
/home/dangcaominh/STM32MP1/optee-os/optee-os/lib/libutils/isoc/arch/arm/arm32_aeabi_ldivmod.c:69
    1178:	edcd 0b02 	vstr	d16, [sp, #8]
    117c:	edcd 0b04 	vstr	d16, [sp, #16]
    1180:	edcd 0b06 	vstr	d16, [sp, #24]
/home/dangcaominh/STM32MP1/optee-os/optee-os/lib/libutils/isoc/arch/arm/arm32_aeabi_ldivmod.c:71
    1184:	f7ff ffa0 	bl	10c8 <ul_div_qr>
/home/dangcaominh/STM32MP1/optee-os/optee-os/lib/libutils/isoc/arch/arm/arm32_aeabi_ldivmod.c:73
    1188:	e9dd 2302 	ldrd	r2, r3, [sp, #8]
    118c:	e9c4 2300 	strd	r2, r3, [r4]
/home/dangcaominh/STM32MP1/optee-os/optee-os/lib/libutils/isoc/arch/arm/arm32_aeabi_ldivmod.c:74
    1190:	e9dd 2304 	ldrd	r2, r3, [sp, #16]
    1194:	e9c4 2302 	strd	r2, r3, [r4, #8]
/home/dangcaominh/STM32MP1/optee-os/optee-os/lib/libutils/isoc/arch/arm/arm32_aeabi_ldivmod.c:66
    1198:	4a08      	ldr	r2, [pc, #32]	@ (11bc <__ul_divmod+0x6a>)
/home/dangcaominh/STM32MP1/optee-os/optee-os/lib/libutils/isoc/arch/arm/arm32_aeabi_ldivmod.c:75
    119a:	4b07      	ldr	r3, [pc, #28]	@ (11b8 <__ul_divmod+0x66>)
/home/dangcaominh/STM32MP1/optee-os/optee-os/lib/libutils/isoc/arch/arm/arm32_aeabi_ldivmod.c:66
    119c:	447a      	add	r2, pc
/home/dangcaominh/STM32MP1/optee-os/optee-os/lib/libutils/isoc/arch/arm/arm32_aeabi_ldivmod.c:75
    119e:	58d3      	ldr	r3, [r2, r3]
    11a0:	681a      	ldr	r2, [r3, #0]
    11a2:	9b09      	ldr	r3, [sp, #36]	@ 0x24
    11a4:	405a      	eors	r2, r3
    11a6:	f04f 0300 	mov.w	r3, #0
    11aa:	d001      	beq.n	11b0 <__ul_divmod+0x5e>
    11ac:	f7ff f9c2 	bl	534 <__stack_chk_fail>
    11b0:	b00a      	add	sp, #40	@ 0x28
    11b2:	bd10      	pop	{r4, pc}
    11b4:	0000cf2e 	.word	0x0000cf2e
    11b8:	0000000c 	.word	0x0000000c
    11bc:	0000cee8 	.word	0x0000cee8

000011c0 <__l_divmod>:
__l_divmod():
/home/dangcaominh/STM32MP1/optee-os/optee-os/lib/libutils/isoc/arch/arm/arm32_aeabi_ldivmod.c:85
    11c0:	4a26      	ldr	r2, [pc, #152]	@ (125c <__l_divmod+0x9c>)
    11c2:	b570      	push	{r4, r5, r6, lr}
    11c4:	4604      	mov	r4, r0
/home/dangcaominh/STM32MP1/optee-os/optee-os/lib/libutils/isoc/arch/arm/arm32_aeabi_ldivmod.c:88
    11c6:	efc0 0010 	vmov.i32	d16, #0	@ 0x00000000
/home/dangcaominh/STM32MP1/optee-os/optee-os/lib/libutils/isoc/arch/arm/arm32_aeabi_ldivmod.c:85
    11ca:	447a      	add	r2, pc
    11cc:	b08a      	sub	sp, #40	@ 0x28
    11ce:	4b24      	ldr	r3, [pc, #144]	@ (1260 <__l_divmod+0xa0>)
/home/dangcaominh/STM32MP1/optee-os/optee-os/lib/libutils/isoc/arch/arm/arm32_aeabi_ldivmod.c:88
    11d0:	ad02      	add	r5, sp, #8
/home/dangcaominh/STM32MP1/optee-os/optee-os/lib/libutils/isoc/arch/arm/arm32_aeabi_ldivmod.c:86
    11d2:	e9d0 0100 	ldrd	r0, r1, [r0]
/home/dangcaominh/STM32MP1/optee-os/optee-os/lib/libutils/isoc/arch/arm/arm32_aeabi_ldivmod.c:85
    11d6:	58d3      	ldr	r3, [r2, r3]
/home/dangcaominh/STM32MP1/optee-os/optee-os/lib/libutils/isoc/arch/arm/arm32_aeabi_ldivmod.c:90
    11d8:	2900      	cmp	r1, #0
/home/dangcaominh/STM32MP1/optee-os/optee-os/lib/libutils/isoc/arch/arm/arm32_aeabi_ldivmod.c:85
    11da:	681b      	ldr	r3, [r3, #0]
    11dc:	9309      	str	r3, [sp, #36]	@ 0x24
    11de:	f04f 0300 	mov.w	r3, #0
/home/dangcaominh/STM32MP1/optee-os/optee-os/lib/libutils/isoc/arch/arm/arm32_aeabi_ldivmod.c:88
    11e2:	edcd 0b02 	vstr	d16, [sp, #8]
    11e6:	edc5 0b02 	vstr	d16, [r5, #8]
    11ea:	edc5 0b04 	vstr	d16, [r5, #16]
/home/dangcaominh/STM32MP1/optee-os/optee-os/lib/libutils/isoc/arch/arm/arm32_aeabi_ldivmod.c:87
    11ee:	e9d4 2302 	ldrd	r2, r3, [r4, #8]
/home/dangcaominh/STM32MP1/optee-os/optee-os/lib/libutils/isoc/arch/arm/arm32_aeabi_ldivmod.c:90
    11f2:	da0a      	bge.n	120a <__l_divmod+0x4a>
/home/dangcaominh/STM32MP1/optee-os/optee-os/lib/libutils/isoc/arch/arm/arm32_aeabi_ldivmod.c:90 (discriminator 1)
    11f4:	2a01      	cmp	r2, #1
    11f6:	f173 0600 	sbcs.w	r6, r3, #0
    11fa:	da29      	bge.n	1250 <__l_divmod+0x90>
/home/dangcaominh/STM32MP1/optee-os/optee-os/lib/libutils/isoc/arch/arm/arm32_aeabi_ldivmod.c:94
    11fc:	4240      	negs	r0, r0
/home/dangcaominh/STM32MP1/optee-os/optee-os/lib/libutils/isoc/arch/arm/arm32_aeabi_ldivmod.c:95
    11fe:	f04f 0601 	mov.w	r6, #1
/home/dangcaominh/STM32MP1/optee-os/optee-os/lib/libutils/isoc/arch/arm/arm32_aeabi_ldivmod.c:94
    1202:	eb61 0141 	sbc.w	r1, r1, r1, lsl #1
/home/dangcaominh/STM32MP1/optee-os/optee-os/lib/libutils/isoc/arch/arm/arm32_aeabi_ldivmod.c:95
    1206:	9607      	str	r6, [sp, #28]
    1208:	e006      	b.n	1218 <__l_divmod+0x58>
/home/dangcaominh/STM32MP1/optee-os/optee-os/lib/libutils/isoc/arch/arm/arm32_aeabi_ldivmod.c:90 (discriminator 3)
    120a:	ea50 0601 	orrs.w	r6, r0, r1
    120e:	d003      	beq.n	1218 <__l_divmod+0x58>
/home/dangcaominh/STM32MP1/optee-os/optee-os/lib/libutils/isoc/arch/arm/arm32_aeabi_ldivmod.c:91
    1210:	2b00      	cmp	r3, #0
    1212:	da01      	bge.n	1218 <__l_divmod+0x58>
/home/dangcaominh/STM32MP1/optee-os/optee-os/lib/libutils/isoc/arch/arm/arm32_aeabi_ldivmod.c:92
    1214:	2601      	movs	r6, #1
    1216:	9606      	str	r6, [sp, #24]
/home/dangcaominh/STM32MP1/optee-os/optee-os/lib/libutils/isoc/arch/arm/arm32_aeabi_ldivmod.c:97
    1218:	2b00      	cmp	r3, #0
    121a:	da02      	bge.n	1222 <__l_divmod+0x62>
    121c:	4252      	negs	r2, r2
    121e:	eb63 0343 	sbc.w	r3, r3, r3, lsl #1
/home/dangcaominh/STM32MP1/optee-os/optee-os/lib/libutils/isoc/arch/arm/arm32_aeabi_ldivmod.c:100
    1222:	9500      	str	r5, [sp, #0]
    1224:	f7ff ff50 	bl	10c8 <ul_div_qr>
/home/dangcaominh/STM32MP1/optee-os/optee-os/lib/libutils/isoc/arch/arm/arm32_aeabi_ldivmod.c:102
    1228:	e9dd 2302 	ldrd	r2, r3, [sp, #8]
    122c:	e9c4 2300 	strd	r2, r3, [r4]
/home/dangcaominh/STM32MP1/optee-os/optee-os/lib/libutils/isoc/arch/arm/arm32_aeabi_ldivmod.c:103
    1230:	e9dd 2304 	ldrd	r2, r3, [sp, #16]
    1234:	e9c4 2302 	strd	r2, r3, [r4, #8]
/home/dangcaominh/STM32MP1/optee-os/optee-os/lib/libutils/isoc/arch/arm/arm32_aeabi_ldivmod.c:85
    1238:	4a0a      	ldr	r2, [pc, #40]	@ (1264 <__l_divmod+0xa4>)
/home/dangcaominh/STM32MP1/optee-os/optee-os/lib/libutils/isoc/arch/arm/arm32_aeabi_ldivmod.c:104
    123a:	4b09      	ldr	r3, [pc, #36]	@ (1260 <__l_divmod+0xa0>)
/home/dangcaominh/STM32MP1/optee-os/optee-os/lib/libutils/isoc/arch/arm/arm32_aeabi_ldivmod.c:85
    123c:	447a      	add	r2, pc
/home/dangcaominh/STM32MP1/optee-os/optee-os/lib/libutils/isoc/arch/arm/arm32_aeabi_ldivmod.c:104
    123e:	58d3      	ldr	r3, [r2, r3]
    1240:	681a      	ldr	r2, [r3, #0]
    1242:	9b09      	ldr	r3, [sp, #36]	@ 0x24
    1244:	405a      	eors	r2, r3
    1246:	f04f 0300 	mov.w	r3, #0
    124a:	d004      	beq.n	1256 <__l_divmod+0x96>
    124c:	f7ff f972 	bl	534 <__stack_chk_fail>
/home/dangcaominh/STM32MP1/optee-os/optee-os/lib/libutils/isoc/arch/arm/arm32_aeabi_ldivmod.c:92
    1250:	2601      	movs	r6, #1
    1252:	9606      	str	r6, [sp, #24]
/home/dangcaominh/STM32MP1/optee-os/optee-os/lib/libutils/isoc/arch/arm/arm32_aeabi_ldivmod.c:93
    1254:	e7d2      	b.n	11fc <__l_divmod+0x3c>
/home/dangcaominh/STM32MP1/optee-os/optee-os/lib/libutils/isoc/arch/arm/arm32_aeabi_ldivmod.c:104
    1256:	b00a      	add	sp, #40	@ 0x28
    1258:	bd70      	pop	{r4, r5, r6, pc}
    125a:	bf00      	nop
    125c:	0000ceba 	.word	0x0000ceba
    1260:	0000000c 	.word	0x0000000c
    1264:	0000ce48 	.word	0x0000ce48

00001268 <_assert_log>:
_assert_log():
/home/dangcaominh/STM32MP1/optee-os/optee-os/lib/libutee/assert.c:17
    1268:	b57f      	push	{r0, r1, r2, r3, r4, r5, r6, lr}
/home/dangcaominh/STM32MP1/optee-os/optee-os/lib/libutee/assert.c:18
    126a:	9304      	str	r3, [sp, #16]
    126c:	4b07      	ldr	r3, [pc, #28]	@ (128c <_assert_log+0x24>)
    126e:	9102      	str	r1, [sp, #8]
    1270:	2100      	movs	r1, #0
    1272:	447b      	add	r3, pc
    1274:	9300      	str	r3, [sp, #0]
    1276:	2301      	movs	r3, #1
    1278:	9203      	str	r2, [sp, #12]
    127a:	461a      	mov	r2, r3
    127c:	9001      	str	r0, [sp, #4]
    127e:	4608      	mov	r0, r1
    1280:	f7ff faa8 	bl	7d4 <trace_printf>
/home/dangcaominh/STM32MP1/optee-os/optee-os/lib/libutee/assert.c:20
    1284:	b007      	add	sp, #28
    1286:	f85d fb04 	ldr.w	pc, [sp], #4
    128a:	bf00      	nop
    128c:	0000be5a 	.word	0x0000be5a

00001290 <_assert_break>:
_assert_break():
/home/dangcaominh/STM32MP1/optee-os/optee-os/lib/libutee/assert.c:24
    1290:	4802      	ldr	r0, [pc, #8]	@ (129c <_assert_break+0xc>)
/home/dangcaominh/STM32MP1/optee-os/optee-os/lib/libutee/assert.c:23
    1292:	b508      	push	{r3, lr}
/home/dangcaominh/STM32MP1/optee-os/optee-os/lib/libutee/assert.c:24
    1294:	f005 ee24 	blx	6ee0 <_utee_panic>
/home/dangcaominh/STM32MP1/optee-os/optee-os/lib/libutee/assert.c:26
    1298:	e7fe      	b.n	1298 <_assert_break+0x8>
    129a:	bf00      	nop
    129c:	ffff0000 	.word	0xffff0000

000012a0 <trace_ext_puts>:
trace_ext_puts():
/home/dangcaominh/STM32MP1/optee-os/optee-os/lib/libutee/trace_ext.c:22
    12a0:	b510      	push	{r4, lr}
    12a2:	4604      	mov	r4, r0
/home/dangcaominh/STM32MP1/optee-os/optee-os/lib/libutee/trace_ext.c:26
    12a4:	f00b fc9c 	bl	cbe0 <strlen>
    12a8:	4601      	mov	r1, r0
/home/dangcaominh/STM32MP1/optee-os/optee-os/lib/libutee/trace_ext.c:26 (discriminator 1)
    12aa:	4620      	mov	r0, r4
/home/dangcaominh/STM32MP1/optee-os/optee-os/lib/libutee/trace_ext.c:28
    12ac:	e8bd 4010 	ldmia.w	sp!, {r4, lr}
/home/dangcaominh/STM32MP1/optee-os/optee-os/lib/libutee/trace_ext.c:26 (discriminator 1)
    12b0:	f00b bd0e 	b.w	ccd0 <___utee_log_from_thumb>

000012b4 <trace_ext_get_thread_id>:
trace_ext_get_thread_id():
/home/dangcaominh/STM32MP1/optee-os/optee-os/lib/libutee/trace_ext.c:33
    12b4:	f04f 30ff 	mov.w	r0, #4294967295	@ 0xffffffff
    12b8:	4770      	bx	lr

000012ba <printf>:
printf():
/home/dangcaominh/STM32MP1/optee-os/optee-os/lib/libutee/trace_ext.c:41
    12ba:	b40f      	push	{r0, r1, r2, r3}
    12bc:	4a18      	ldr	r2, [pc, #96]	@ (1320 <printf+0x66>)
    12be:	4b19      	ldr	r3, [pc, #100]	@ (1324 <printf+0x6a>)
    12c0:	447a      	add	r2, pc
    12c2:	b530      	push	{r4, r5, lr}
    12c4:	b0c3      	sub	sp, #268	@ 0x10c
    12c6:	58d3      	ldr	r3, [r2, r3]
    12c8:	9c46      	ldr	r4, [sp, #280]	@ 0x118
    12ca:	681b      	ldr	r3, [r3, #0]
    12cc:	9341      	str	r3, [sp, #260]	@ 0x104
    12ce:	f04f 0300 	mov.w	r3, #0
/home/dangcaominh/STM32MP1/optee-os/optee-os/lib/libutee/trace_ext.c:46
    12d2:	f7ff f9bd 	bl	650 <trace_get_level>
/home/dangcaominh/STM32MP1/optee-os/optee-os/lib/libutee/trace_ext.c:46 (discriminator 1)
    12d6:	2800      	cmp	r0, #0
    12d8:	dd1a      	ble.n	1310 <printf+0x56>
/home/dangcaominh/STM32MP1/optee-os/optee-os/lib/libutee/trace_ext.c:49
    12da:	466a      	mov	r2, sp
    12dc:	ab47      	add	r3, sp, #284	@ 0x11c
/home/dangcaominh/STM32MP1/optee-os/optee-os/lib/libutee/trace_ext.c:50
    12de:	ad01      	add	r5, sp, #4
    12e0:	f44f 7180 	mov.w	r1, #256	@ 0x100
/home/dangcaominh/STM32MP1/optee-os/optee-os/lib/libutee/trace_ext.c:49
    12e4:	6013      	str	r3, [r2, #0]
/home/dangcaominh/STM32MP1/optee-os/optee-os/lib/libutee/trace_ext.c:50
    12e6:	4628      	mov	r0, r5
    12e8:	4622      	mov	r2, r4
    12ea:	f00b fbdd 	bl	caa8 <vsnprintf>
/home/dangcaominh/STM32MP1/optee-os/optee-os/lib/libutee/trace_ext.c:53
    12ee:	1e04      	subs	r4, r0, #0
    12f0:	db02      	blt.n	12f8 <printf+0x3e>
/home/dangcaominh/STM32MP1/optee-os/optee-os/lib/libutee/trace_ext.c:56
    12f2:	4628      	mov	r0, r5
    12f4:	f7ff ffd4 	bl	12a0 <trace_ext_puts>
/home/dangcaominh/STM32MP1/optee-os/optee-os/lib/libutee/trace_ext.c:41
    12f8:	4a0b      	ldr	r2, [pc, #44]	@ (1328 <printf+0x6e>)
/home/dangcaominh/STM32MP1/optee-os/optee-os/lib/libutee/trace_ext.c:59
    12fa:	4b0a      	ldr	r3, [pc, #40]	@ (1324 <printf+0x6a>)
/home/dangcaominh/STM32MP1/optee-os/optee-os/lib/libutee/trace_ext.c:41
    12fc:	447a      	add	r2, pc
/home/dangcaominh/STM32MP1/optee-os/optee-os/lib/libutee/trace_ext.c:59
    12fe:	58d3      	ldr	r3, [r2, r3]
    1300:	681a      	ldr	r2, [r3, #0]
    1302:	9b41      	ldr	r3, [sp, #260]	@ 0x104
    1304:	405a      	eors	r2, r3
    1306:	f04f 0300 	mov.w	r3, #0
    130a:	d003      	beq.n	1314 <printf+0x5a>
    130c:	f7ff f912 	bl	534 <__stack_chk_fail>
/home/dangcaominh/STM32MP1/optee-os/optee-os/lib/libutee/trace_ext.c:47
    1310:	2400      	movs	r4, #0
    1312:	e7f1      	b.n	12f8 <printf+0x3e>
/home/dangcaominh/STM32MP1/optee-os/optee-os/lib/libutee/trace_ext.c:59
    1314:	4620      	mov	r0, r4
    1316:	b043      	add	sp, #268	@ 0x10c
    1318:	e8bd 4030 	ldmia.w	sp!, {r4, r5, lr}
    131c:	b004      	add	sp, #16
    131e:	4770      	bx	lr
    1320:	0000cdc4 	.word	0x0000cdc4
    1324:	0000000c 	.word	0x0000000c
    1328:	0000cd88 	.word	0x0000cd88

0000132c <puts>:
puts():
/home/dangcaominh/STM32MP1/optee-os/optee-os/lib/libutee/trace_ext.c:62
    132c:	b510      	push	{r4, lr}
    132e:	4604      	mov	r4, r0
/home/dangcaominh/STM32MP1/optee-os/optee-os/lib/libutee/trace_ext.c:63
    1330:	f7ff f98e 	bl	650 <trace_get_level>
/home/dangcaominh/STM32MP1/optee-os/optee-os/lib/libutee/trace_ext.c:63 (discriminator 1)
    1334:	2800      	cmp	r0, #0
    1336:	dd06      	ble.n	1346 <puts+0x1a>
/home/dangcaominh/STM32MP1/optee-os/optee-os/lib/libutee/trace_ext.c:64
    1338:	4620      	mov	r0, r4
    133a:	f7ff ffb1 	bl	12a0 <trace_ext_puts>
/home/dangcaominh/STM32MP1/optee-os/optee-os/lib/libutee/trace_ext.c:65
    133e:	4803      	ldr	r0, [pc, #12]	@ (134c <puts+0x20>)
    1340:	4478      	add	r0, pc
    1342:	f7ff ffad 	bl	12a0 <trace_ext_puts>
/home/dangcaominh/STM32MP1/optee-os/optee-os/lib/libutee/trace_ext.c:68
    1346:	2001      	movs	r0, #1
    1348:	bd10      	pop	{r4, pc}
    134a:	bf00      	nop
    134c:	0000c4e9 	.word	0x0000c4e9

00001350 <putchar>:
putchar():
/home/dangcaominh/STM32MP1/optee-os/optee-os/lib/libutee/trace_ext.c:71
    1350:	4a12      	ldr	r2, [pc, #72]	@ (139c <putchar+0x4c>)
    1352:	4b13      	ldr	r3, [pc, #76]	@ (13a0 <putchar+0x50>)
    1354:	447a      	add	r2, pc
    1356:	b513      	push	{r0, r1, r4, lr}
    1358:	4604      	mov	r4, r0
    135a:	58d3      	ldr	r3, [r2, r3]
    135c:	681b      	ldr	r3, [r3, #0]
    135e:	9301      	str	r3, [sp, #4]
    1360:	f04f 0300 	mov.w	r3, #0
/home/dangcaominh/STM32MP1/optee-os/optee-os/lib/libutee/trace_ext.c:72
    1364:	2300      	movs	r3, #0
    1366:	f88d 0000 	strb.w	r0, [sp]
    136a:	f88d 3001 	strb.w	r3, [sp, #1]
/home/dangcaominh/STM32MP1/optee-os/optee-os/lib/libutee/trace_ext.c:74
    136e:	f7ff f96f 	bl	650 <trace_get_level>
/home/dangcaominh/STM32MP1/optee-os/optee-os/lib/libutee/trace_ext.c:74 (discriminator 1)
    1372:	2800      	cmp	r0, #0
    1374:	dd02      	ble.n	137c <putchar+0x2c>
/home/dangcaominh/STM32MP1/optee-os/optee-os/lib/libutee/trace_ext.c:75
    1376:	4668      	mov	r0, sp
    1378:	f7ff ff92 	bl	12a0 <trace_ext_puts>
/home/dangcaominh/STM32MP1/optee-os/optee-os/lib/libutee/trace_ext.c:71
    137c:	4a09      	ldr	r2, [pc, #36]	@ (13a4 <putchar+0x54>)
/home/dangcaominh/STM32MP1/optee-os/optee-os/lib/libutee/trace_ext.c:81
    137e:	b2e0      	uxtb	r0, r4
/home/dangcaominh/STM32MP1/optee-os/optee-os/lib/libutee/trace_ext.c:82
    1380:	4b07      	ldr	r3, [pc, #28]	@ (13a0 <putchar+0x50>)
/home/dangcaominh/STM32MP1/optee-os/optee-os/lib/libutee/trace_ext.c:71
    1382:	447a      	add	r2, pc
/home/dangcaominh/STM32MP1/optee-os/optee-os/lib/libutee/trace_ext.c:82
    1384:	58d3      	ldr	r3, [r2, r3]
    1386:	681a      	ldr	r2, [r3, #0]
    1388:	9b01      	ldr	r3, [sp, #4]
    138a:	405a      	eors	r2, r3
    138c:	f04f 0300 	mov.w	r3, #0
    1390:	d001      	beq.n	1396 <putchar+0x46>
    1392:	f7ff f8cf 	bl	534 <__stack_chk_fail>
    1396:	b002      	add	sp, #8
    1398:	bd10      	pop	{r4, pc}
    139a:	bf00      	nop
    139c:	0000cd30 	.word	0x0000cd30
    13a0:	0000000c 	.word	0x0000000c
    13a4:	0000cd02 	.word	0x0000cd02

000013a8 <copy_param>:
copy_param():
/home/dangcaominh/STM32MP1/optee-os/optee-os/lib/libutee/tee_api.c:38
    13a8:	b5f0      	push	{r4, r5, r6, r7, lr}
    13aa:	4616      	mov	r6, r2
/home/dangcaominh/STM32MP1/optee-os/optee-os/lib/libutee/tee_api.c:43
    13ac:	2400      	movs	r4, #0
    13ae:	e9c0 1400 	strd	r1, r4, [r0]
/home/dangcaominh/STM32MP1/optee-os/optee-os/lib/libutee/tee_api.c:45
    13b2:	fa21 f304 	lsr.w	r3, r1, r4
    13b6:	f003 050f 	and.w	r5, r3, #15
    13ba:	2d03      	cmp	r5, #3
    13bc:	d00d      	beq.n	13da <copy_param+0x32>
    13be:	f013 030c 	ands.w	r3, r3, #12
    13c2:	d105      	bne.n	13d0 <copy_param+0x28>
    13c4:	2d01      	cmp	r5, #1
    13c6:	d008      	beq.n	13da <copy_param+0x32>
    13c8:	461f      	mov	r7, r3
    13ca:	469c      	mov	ip, r3
    13cc:	461d      	mov	r5, r3
    13ce:	e009      	b.n	13e4 <copy_param+0x3c>
    13d0:	3d05      	subs	r5, #5
    13d2:	2d02      	cmp	r5, #2
    13d4:	d901      	bls.n	13da <copy_param+0x32>
    13d6:	2300      	movs	r3, #0
    13d8:	e7f6      	b.n	13c8 <copy_param+0x20>
/home/dangcaominh/STM32MP1/optee-os/optee-os/lib/libutee/tee_api.c:54
    13da:	f852 c014 	ldr.w	ip, [r2, r4, lsl #1]
    13de:	2500      	movs	r5, #0
/home/dangcaominh/STM32MP1/optee-os/optee-os/lib/libutee/tee_api.c:55
    13e0:	6873      	ldr	r3, [r6, #4]
    13e2:	462f      	mov	r7, r5
/home/dangcaominh/STM32MP1/optee-os/optee-os/lib/libutee/tee_api.c:44 (discriminator 1)
    13e4:	3404      	adds	r4, #4
    13e6:	3608      	adds	r6, #8
    13e8:	2c10      	cmp	r4, #16
/home/dangcaominh/STM32MP1/optee-os/optee-os/lib/libutee/tee_api.c:61
    13ea:	e9c0 c502 	strd	ip, r5, [r0, #8]
/home/dangcaominh/STM32MP1/optee-os/optee-os/lib/libutee/tee_api.c:62
    13ee:	e9c0 3704 	strd	r3, r7, [r0, #16]
/home/dangcaominh/STM32MP1/optee-os/optee-os/lib/libutee/tee_api.c:44 (discriminator 1)
    13f2:	f100 0010 	add.w	r0, r0, #16
    13f6:	d1dc      	bne.n	13b2 <copy_param+0xa>
/home/dangcaominh/STM32MP1/optee-os/optee-os/lib/libutee/tee_api.c:64
    13f8:	bdf0      	pop	{r4, r5, r6, r7, pc}

000013fa <copy_gp11_param>:
copy_gp11_param():
/home/dangcaominh/STM32MP1/optee-os/optee-os/lib/libutee/tee_api.c:68
    13fa:	b5f0      	push	{r4, r5, r6, r7, lr}
    13fc:	4616      	mov	r6, r2
/home/dangcaominh/STM32MP1/optee-os/optee-os/lib/libutee/tee_api.c:73
    13fe:	2400      	movs	r4, #0
    1400:	e9c0 1400 	strd	r1, r4, [r0]
/home/dangcaominh/STM32MP1/optee-os/optee-os/lib/libutee/tee_api.c:75
    1404:	fa21 f304 	lsr.w	r3, r1, r4
    1408:	f003 050f 	and.w	r5, r3, #15
    140c:	2d03      	cmp	r5, #3
    140e:	d00d      	beq.n	142c <copy_gp11_param+0x32>
    1410:	f013 030c 	ands.w	r3, r3, #12
    1414:	d105      	bne.n	1422 <copy_gp11_param+0x28>
    1416:	2d01      	cmp	r5, #1
    1418:	d008      	beq.n	142c <copy_gp11_param+0x32>
    141a:	461f      	mov	r7, r3
    141c:	469c      	mov	ip, r3
    141e:	461d      	mov	r5, r3
    1420:	e009      	b.n	1436 <copy_gp11_param+0x3c>
    1422:	3d05      	subs	r5, #5
    1424:	2d02      	cmp	r5, #2
    1426:	d901      	bls.n	142c <copy_gp11_param+0x32>
    1428:	2300      	movs	r3, #0
    142a:	e7f6      	b.n	141a <copy_gp11_param+0x20>
/home/dangcaominh/STM32MP1/optee-os/optee-os/lib/libutee/tee_api.c:84
    142c:	f852 c014 	ldr.w	ip, [r2, r4, lsl #1]
    1430:	2500      	movs	r5, #0
/home/dangcaominh/STM32MP1/optee-os/optee-os/lib/libutee/tee_api.c:85
    1432:	6873      	ldr	r3, [r6, #4]
    1434:	462f      	mov	r7, r5
/home/dangcaominh/STM32MP1/optee-os/optee-os/lib/libutee/tee_api.c:74 (discriminator 1)
    1436:	3404      	adds	r4, #4
    1438:	3608      	adds	r6, #8
    143a:	2c10      	cmp	r4, #16
/home/dangcaominh/STM32MP1/optee-os/optee-os/lib/libutee/tee_api.c:91
    143c:	e9c0 c502 	strd	ip, r5, [r0, #8]
/home/dangcaominh/STM32MP1/optee-os/optee-os/lib/libutee/tee_api.c:92
    1440:	e9c0 3704 	strd	r3, r7, [r0, #16]
/home/dangcaominh/STM32MP1/optee-os/optee-os/lib/libutee/tee_api.c:74 (discriminator 1)
    1444:	f100 0010 	add.w	r0, r0, #16
    1448:	d1dc      	bne.n	1404 <copy_gp11_param+0xa>
/home/dangcaominh/STM32MP1/optee-os/optee-os/lib/libutee/tee_api.c:94
    144a:	bdf0      	pop	{r4, r5, r6, r7, pc}

0000144c <check_mem_access_rights_params>:
check_mem_access_rights_params():
/home/dangcaominh/STM32MP1/optee-os/optee-os/lib/libutee/tee_api.c:255
    144c:	4b18      	ldr	r3, [pc, #96]	@ (14b0 <check_mem_access_rights_params+0x64>)
    144e:	b5f0      	push	{r4, r5, r6, r7, lr}
bufs_intersect():
/home/dangcaominh/STM32MP1/optee-os/optee-os/lib/libutee/tee_api.c:241
    1450:	1e57      	subs	r7, r2, #1
check_mem_access_rights_params():
/home/dangcaominh/STM32MP1/optee-os/optee-os/lib/libutee/tee_api.c:255
    1452:	447b      	add	r3, pc
/home/dangcaominh/STM32MP1/optee-os/optee-os/lib/libutee/tee_api.c:261
    1454:	2500      	movs	r5, #0
    1456:	4c17      	ldr	r4, [pc, #92]	@ (14b4 <check_mem_access_rights_params+0x68>)
bufs_intersect():
/home/dangcaominh/STM32MP1/optee-os/optee-os/lib/libutee/tee_api.c:241
    1458:	440f      	add	r7, r1
check_mem_access_rights_params():
/home/dangcaominh/STM32MP1/optee-os/optee-os/lib/libutee/tee_api.c:261
    145a:	591c      	ldr	r4, [r3, r4]
    145c:	f8d4 c000 	ldr.w	ip, [r4]
    1460:	4c15      	ldr	r4, [pc, #84]	@ (14b8 <check_mem_access_rights_params+0x6c>)
    1462:	591e      	ldr	r6, [r3, r4]
    1464:	fa2c f305 	lsr.w	r3, ip, r5
    1468:	f003 030f 	and.w	r3, r3, #15
    146c:	2b05      	cmp	r3, #5
    146e:	d019      	beq.n	14a4 <check_mem_access_rights_params+0x58>
    1470:	3b06      	subs	r3, #6
    1472:	2b01      	cmp	r3, #1
    1474:	d810      	bhi.n	1498 <check_mem_access_rights_params+0x4c>
    1476:	2406      	movs	r4, #6
bufs_intersect():
/home/dangcaominh/STM32MP1/optee-os/optee-os/lib/libutee/tee_api.c:244
    1478:	b172      	cbz	r2, 1498 <check_mem_access_rights_params+0x4c>
check_mem_access_rights_params():
/home/dangcaominh/STM32MP1/optee-os/optee-os/lib/libutee/tee_api.c:268
    147a:	6873      	ldr	r3, [r6, #4]
bufs_intersect():
/home/dangcaominh/STM32MP1/optee-os/optee-os/lib/libutee/tee_api.c:244 (discriminator 1)
    147c:	b163      	cbz	r3, 1498 <check_mem_access_rights_params+0x4c>
/home/dangcaominh/STM32MP1/optee-os/optee-os/lib/libutee/tee_api.c:240
    147e:	f8d6 e000 	ldr.w	lr, [r6]
/home/dangcaominh/STM32MP1/optee-os/optee-os/lib/libutee/tee_api.c:247
    1482:	45be      	cmp	lr, r7
    1484:	d808      	bhi.n	1498 <check_mem_access_rights_params+0x4c>
/home/dangcaominh/STM32MP1/optee-os/optee-os/lib/libutee/tee_api.c:242
    1486:	3b01      	subs	r3, #1
    1488:	4473      	add	r3, lr
/home/dangcaominh/STM32MP1/optee-os/optee-os/lib/libutee/tee_api.c:247 (discriminator 1)
    148a:	4299      	cmp	r1, r3
    148c:	d804      	bhi.n	1498 <check_mem_access_rights_params+0x4c>
check_mem_access_rights_params():
/home/dangcaominh/STM32MP1/optee-os/optee-os/lib/libutee/tee_api.c:267
    148e:	f044 0401 	orr.w	r4, r4, #1
/home/dangcaominh/STM32MP1/optee-os/optee-os/lib/libutee/tee_api.c:271
    1492:	ea30 0404 	bics.w	r4, r0, r4
    1496:	d107      	bne.n	14a8 <check_mem_access_rights_params+0x5c>
/home/dangcaominh/STM32MP1/optee-os/optee-os/lib/libutee/tee_api.c:258 (discriminator 1)
    1498:	3504      	adds	r5, #4
    149a:	3608      	adds	r6, #8
    149c:	2d10      	cmp	r5, #16
    149e:	d1e1      	bne.n	1464 <check_mem_access_rights_params+0x18>
/home/dangcaominh/STM32MP1/optee-os/optee-os/lib/libutee/tee_api.c:280
    14a0:	2000      	movs	r0, #0
/home/dangcaominh/STM32MP1/optee-os/optee-os/lib/libutee/tee_api.c:281
    14a2:	bdf0      	pop	{r4, r5, r6, r7, pc}
/home/dangcaominh/STM32MP1/optee-os/optee-os/lib/libutee/tee_api.c:259
    14a4:	2404      	movs	r4, #4
    14a6:	e7e7      	b.n	1478 <check_mem_access_rights_params+0x2c>
/home/dangcaominh/STM32MP1/optee-os/optee-os/lib/libutee/tee_api.c:272
    14a8:	4800      	ldr	r0, [pc, #0]	@ (14ac <check_mem_access_rights_params+0x60>)
    14aa:	e7fa      	b.n	14a2 <check_mem_access_rights_params+0x56>
    14ac:	ffff0001 	.word	0xffff0001
    14b0:	0000cc32 	.word	0x0000cc32
    14b4:	0000003c 	.word	0x0000003c
    14b8:	00000050 	.word	0x00000050

000014bc <buf_overlaps_no_share_heap>:
buf_overlaps_no_share_heap():
/home/dangcaominh/STM32MP1/optee-os/optee-os/lib/libutee/tee_api.c:284
    14bc:	460a      	mov	r2, r1
    14be:	4907      	ldr	r1, [pc, #28]	@ (14dc <buf_overlaps_no_share_heap+0x20>)
    14c0:	b508      	push	{r3, lr}
    14c2:	4603      	mov	r3, r0
    14c4:	4479      	add	r1, pc
/home/dangcaominh/STM32MP1/optee-os/optee-os/lib/libutee/tee_api.c:285
    14c6:	4806      	ldr	r0, [pc, #24]	@ (14e0 <buf_overlaps_no_share_heap+0x24>)
    14c8:	5809      	ldr	r1, [r1, r0]
    14ca:	6808      	ldr	r0, [r1, #0]
/home/dangcaominh/STM32MP1/optee-os/optee-os/lib/libutee/tee_api.c:287
    14cc:	b110      	cbz	r0, 14d4 <buf_overlaps_no_share_heap+0x18>
/home/dangcaominh/STM32MP1/optee-os/optee-os/lib/libutee/tee_api.c:287 (discriminator 1)
    14ce:	4619      	mov	r1, r3
    14d0:	f00b fa10 	bl	c8f4 <raw_malloc_buffer_overlaps_heap>
/home/dangcaominh/STM32MP1/optee-os/optee-os/lib/libutee/tee_api.c:288
    14d4:	f000 0001 	and.w	r0, r0, #1
    14d8:	bd08      	pop	{r3, pc}
    14da:	bf00      	nop
    14dc:	0000cbc0 	.word	0x0000cbc0
    14e0:	00000048 	.word	0x00000048

000014e4 <check_invoke_param>:
check_invoke_param():
/home/dangcaominh/STM32MP1/optee-os/optee-os/lib/libutee/tee_api.c:291
    14e4:	e92d 43f8 	stmdb	sp!, {r3, r4, r5, r6, r7, r8, r9, lr}
    14e8:	4606      	mov	r6, r0
    14ea:	460d      	mov	r5, r1
    14ec:	2400      	movs	r4, #0
/home/dangcaominh/STM32MP1/optee-os/optee-os/lib/libutee/tee_api.c:297
    14ee:	f101 0804 	add.w	r8, r1, #4
/home/dangcaominh/STM32MP1/optee-os/optee-os/lib/libutee/tee_api.c:299
    14f2:	fa26 f304 	lsr.w	r3, r6, r4
    14f6:	f003 030f 	and.w	r3, r3, #15
    14fa:	2b05      	cmp	r3, #5
    14fc:	d01e      	beq.n	153c <check_invoke_param+0x58>
    14fe:	3b06      	subs	r3, #6
    1500:	2b01      	cmp	r3, #1
    1502:	d816      	bhi.n	1532 <check_invoke_param+0x4e>
    1504:	2006      	movs	r0, #6
/home/dangcaominh/STM32MP1/optee-os/optee-os/lib/libutee/tee_api.c:296
    1506:	f855 7014 	ldr.w	r7, [r5, r4, lsl #1]
/home/dangcaominh/STM32MP1/optee-os/optee-os/lib/libutee/tee_api.c:306
    150a:	f040 0001 	orr.w	r0, r0, #1
/home/dangcaominh/STM32MP1/optee-os/optee-os/lib/libutee/tee_api.c:297
    150e:	f858 9014 	ldr.w	r9, [r8, r4, lsl #1]
/home/dangcaominh/STM32MP1/optee-os/optee-os/lib/libutee/tee_api.c:306
    1512:	4639      	mov	r1, r7
    1514:	464a      	mov	r2, r9
    1516:	f7ff ff99 	bl	144c <check_mem_access_rights_params>
/home/dangcaominh/STM32MP1/optee-os/optee-os/lib/libutee/tee_api.c:306 (discriminator 1)
    151a:	b110      	cbz	r0, 1522 <check_invoke_param+0x3e>
/home/dangcaominh/STM32MP1/optee-os/optee-os/lib/libutee/tee_api.c:307
    151c:	2000      	movs	r0, #0
    151e:	f004 fba3 	bl	5c68 <TEE_Panic>
/home/dangcaominh/STM32MP1/optee-os/optee-os/lib/libutee/tee_api.c:308
    1522:	4649      	mov	r1, r9
    1524:	4638      	mov	r0, r7
    1526:	f7ff ffc9 	bl	14bc <buf_overlaps_no_share_heap>
/home/dangcaominh/STM32MP1/optee-os/optee-os/lib/libutee/tee_api.c:308 (discriminator 1)
    152a:	b110      	cbz	r0, 1532 <check_invoke_param+0x4e>
/home/dangcaominh/STM32MP1/optee-os/optee-os/lib/libutee/tee_api.c:309
    152c:	2000      	movs	r0, #0
    152e:	f004 fb9b 	bl	5c68 <TEE_Panic>
/home/dangcaominh/STM32MP1/optee-os/optee-os/lib/libutee/tee_api.c:294 (discriminator 1)
    1532:	3404      	adds	r4, #4
    1534:	2c10      	cmp	r4, #16
    1536:	d1dc      	bne.n	14f2 <check_invoke_param+0xe>
/home/dangcaominh/STM32MP1/optee-os/optee-os/lib/libutee/tee_api.c:315
    1538:	e8bd 83f8 	ldmia.w	sp!, {r3, r4, r5, r6, r7, r8, r9, pc}
/home/dangcaominh/STM32MP1/optee-os/optee-os/lib/libutee/tee_api.c:295
    153c:	2004      	movs	r0, #4
    153e:	e7e2      	b.n	1506 <check_invoke_param+0x22>

00001540 <update_out_param>:
update_out_param():
/home/dangcaominh/STM32MP1/optee-os/optee-os/lib/libutee/tee_api.c:180
    1540:	e92d 47f0 	stmdb	sp!, {r4, r5, r6, r7, r8, r9, sl, lr}
    1544:	4607      	mov	r7, r0
/home/dangcaominh/STM32MP1/optee-os/optee-os/lib/libutee/tee_api.c:182
    1546:	f8d2 a000 	ldr.w	sl, [r2]
/home/dangcaominh/STM32MP1/optee-os/optee-os/lib/libutee/tee_api.c:180
    154a:	4688      	mov	r8, r1
    154c:	4614      	mov	r4, r2
    154e:	4606      	mov	r6, r0
/home/dangcaominh/STM32MP1/optee-os/optee-os/lib/libutee/tee_api.c:182
    1550:	2500      	movs	r5, #0
/home/dangcaominh/STM32MP1/optee-os/optee-os/lib/libutee/tee_api.c:188
    1552:	fa2a f305 	lsr.w	r3, sl, r5
/home/dangcaominh/STM32MP1/optee-os/optee-os/lib/libutee/tee_api.c:185
    1556:	68a2      	ldr	r2, [r4, #8]
/home/dangcaominh/STM32MP1/optee-os/optee-os/lib/libutee/tee_api.c:188
    1558:	f013 0f0c 	tst.w	r3, #12
/home/dangcaominh/STM32MP1/optee-os/optee-os/lib/libutee/tee_api.c:186
    155c:	f8d4 9010 	ldr.w	r9, [r4, #16]
/home/dangcaominh/STM32MP1/optee-os/optee-os/lib/libutee/tee_api.c:188
    1560:	d10a      	bne.n	1578 <update_out_param+0x38>
    1562:	f013 0f0e 	tst.w	r3, #14
    1566:	d118      	bne.n	159a <update_out_param+0x5a>
/home/dangcaominh/STM32MP1/optee-os/optee-os/lib/libutee/tee_api.c:184 (discriminator 1)
    1568:	3504      	adds	r5, #4
    156a:	3410      	adds	r4, #16
    156c:	2d10      	cmp	r5, #16
    156e:	f106 0608 	add.w	r6, r6, #8
    1572:	d1ee      	bne.n	1552 <update_out_param+0x12>
/home/dangcaominh/STM32MP1/optee-os/optee-os/lib/libutee/tee_api.c:205
    1574:	e8bd 87f0 	ldmia.w	sp!, {r4, r5, r6, r7, r8, r9, sl, pc}
/home/dangcaominh/STM32MP1/optee-os/optee-os/lib/libutee/tee_api.c:188
    1578:	f003 030f 	and.w	r3, r3, #15
    157c:	3b06      	subs	r3, #6
    157e:	2b01      	cmp	r3, #1
    1580:	d8f2      	bhi.n	1568 <update_out_param+0x28>
/home/dangcaominh/STM32MP1/optee-os/optee-os/lib/libutee/tee_api.c:196
    1582:	f858 1005 	ldr.w	r1, [r8, r5]
    1586:	b151      	cbz	r1, 159e <update_out_param+0x5e>
/home/dangcaominh/STM32MP1/optee-os/optee-os/lib/libutee/tee_api.c:198
    1588:	6872      	ldr	r2, [r6, #4]
/home/dangcaominh/STM32MP1/optee-os/optee-os/lib/libutee/tee_api.c:197
    158a:	f857 0015 	ldr.w	r0, [r7, r5, lsl #1]
    158e:	454a      	cmp	r2, r9
    1590:	bf28      	it	cs
    1592:	464a      	movcs	r2, r9
    1594:	f7fe ffe2 	bl	55c <memcpy>
    1598:	e001      	b.n	159e <update_out_param+0x5e>
/home/dangcaominh/STM32MP1/optee-os/optee-os/lib/libutee/tee_api.c:185
    159a:	f847 2015 	str.w	r2, [r7, r5, lsl #1]
/home/dangcaominh/STM32MP1/optee-os/optee-os/lib/libutee/tee_api.c:199
    159e:	f8c6 9004 	str.w	r9, [r6, #4]
/home/dangcaominh/STM32MP1/optee-os/optee-os/lib/libutee/tee_api.c:200
    15a2:	e7e1      	b.n	1568 <update_out_param+0x28>

000015a4 <update_out_gp11_param>:
update_out_gp11_param():
/home/dangcaominh/STM32MP1/optee-os/optee-os/lib/libutee/tee_api.c:210
    15a4:	e92d 47f0 	stmdb	sp!, {r4, r5, r6, r7, r8, r9, sl, lr}
    15a8:	4607      	mov	r7, r0
/home/dangcaominh/STM32MP1/optee-os/optee-os/lib/libutee/tee_api.c:212
    15aa:	f8d2 a000 	ldr.w	sl, [r2]
/home/dangcaominh/STM32MP1/optee-os/optee-os/lib/libutee/tee_api.c:210
    15ae:	4688      	mov	r8, r1
    15b0:	4614      	mov	r4, r2
    15b2:	4606      	mov	r6, r0
/home/dangcaominh/STM32MP1/optee-os/optee-os/lib/libutee/tee_api.c:212
    15b4:	2500      	movs	r5, #0
/home/dangcaominh/STM32MP1/optee-os/optee-os/lib/libutee/tee_api.c:218
    15b6:	fa2a f305 	lsr.w	r3, sl, r5
/home/dangcaominh/STM32MP1/optee-os/optee-os/lib/libutee/tee_api.c:215
    15ba:	68a2      	ldr	r2, [r4, #8]
/home/dangcaominh/STM32MP1/optee-os/optee-os/lib/libutee/tee_api.c:218
    15bc:	f013 0f0c 	tst.w	r3, #12
/home/dangcaominh/STM32MP1/optee-os/optee-os/lib/libutee/tee_api.c:216
    15c0:	f8d4 9010 	ldr.w	r9, [r4, #16]
/home/dangcaominh/STM32MP1/optee-os/optee-os/lib/libutee/tee_api.c:218
    15c4:	d10a      	bne.n	15dc <update_out_gp11_param+0x38>
    15c6:	f013 0f0e 	tst.w	r3, #14
    15ca:	d118      	bne.n	15fe <update_out_gp11_param+0x5a>
/home/dangcaominh/STM32MP1/optee-os/optee-os/lib/libutee/tee_api.c:214 (discriminator 1)
    15cc:	3504      	adds	r5, #4
    15ce:	3410      	adds	r4, #16
    15d0:	2d10      	cmp	r5, #16
    15d2:	f106 0608 	add.w	r6, r6, #8
    15d6:	d1ee      	bne.n	15b6 <update_out_gp11_param+0x12>
/home/dangcaominh/STM32MP1/optee-os/optee-os/lib/libutee/tee_api.c:235
    15d8:	e8bd 87f0 	ldmia.w	sp!, {r4, r5, r6, r7, r8, r9, sl, pc}
/home/dangcaominh/STM32MP1/optee-os/optee-os/lib/libutee/tee_api.c:218
    15dc:	f003 030f 	and.w	r3, r3, #15
    15e0:	3b06      	subs	r3, #6
    15e2:	2b01      	cmp	r3, #1
    15e4:	d8f2      	bhi.n	15cc <update_out_gp11_param+0x28>
/home/dangcaominh/STM32MP1/optee-os/optee-os/lib/libutee/tee_api.c:226
    15e6:	f858 1005 	ldr.w	r1, [r8, r5]
    15ea:	b151      	cbz	r1, 1602 <update_out_gp11_param+0x5e>
/home/dangcaominh/STM32MP1/optee-os/optee-os/lib/libutee/tee_api.c:228
    15ec:	6872      	ldr	r2, [r6, #4]
/home/dangcaominh/STM32MP1/optee-os/optee-os/lib/libutee/tee_api.c:227
    15ee:	f857 0015 	ldr.w	r0, [r7, r5, lsl #1]
    15f2:	454a      	cmp	r2, r9
    15f4:	bf28      	it	cs
    15f6:	464a      	movcs	r2, r9
    15f8:	f7fe ffb0 	bl	55c <memcpy>
    15fc:	e001      	b.n	1602 <update_out_gp11_param+0x5e>
/home/dangcaominh/STM32MP1/optee-os/optee-os/lib/libutee/tee_api.c:215
    15fe:	f847 2015 	str.w	r2, [r7, r5, lsl #1]
/home/dangcaominh/STM32MP1/optee-os/optee-os/lib/libutee/tee_api.c:229
    1602:	f8c6 9004 	str.w	r9, [r6, #4]
/home/dangcaominh/STM32MP1/optee-os/optee-os/lib/libutee/tee_api.c:230
    1606:	e7e1      	b.n	15cc <update_out_gp11_param+0x28>

00001608 <TEE_CloseTASession>:
TEE_CloseTASession():
/home/dangcaominh/STM32MP1/optee-os/optee-os/lib/libutee/tee_api.c:414
    1608:	b508      	push	{r3, lr}
/home/dangcaominh/STM32MP1/optee-os/optee-os/lib/libutee/tee_api.c:415
    160a:	b130      	cbz	r0, 161a <TEE_CloseTASession+0x12>
/home/dangcaominh/STM32MP1/optee-os/optee-os/lib/libutee/tee_api.c:416
    160c:	f005 ecb2 	blx	6f74 <_utee_close_ta_session>
/home/dangcaominh/STM32MP1/optee-os/optee-os/lib/libutee/tee_api.c:418
    1610:	b118      	cbz	r0, 161a <TEE_CloseTASession+0x12>
/home/dangcaominh/STM32MP1/optee-os/optee-os/lib/libutee/tee_api.c:421
    1612:	e8bd 4008 	ldmia.w	sp!, {r3, lr}
/home/dangcaominh/STM32MP1/optee-os/optee-os/lib/libutee/tee_api.c:419
    1616:	f004 bb27 	b.w	5c68 <TEE_Panic>
/home/dangcaominh/STM32MP1/optee-os/optee-os/lib/libutee/tee_api.c:421
    161a:	bd08      	pop	{r3, pc}

0000161c <TEE_GetCancellationFlag>:
TEE_GetCancellationFlag():
/home/dangcaominh/STM32MP1/optee-os/optee-os/lib/libutee/tee_api.c:530
    161c:	b507      	push	{r0, r1, r2, lr}
/home/dangcaominh/STM32MP1/optee-os/optee-os/lib/libutee/tee_api.c:532
    161e:	4668      	mov	r0, sp
/home/dangcaominh/STM32MP1/optee-os/optee-os/lib/libutee/tee_api.c:530
    1620:	4a0f      	ldr	r2, [pc, #60]	@ (1660 <TEE_GetCancellationFlag+0x44>)
    1622:	4b10      	ldr	r3, [pc, #64]	@ (1664 <TEE_GetCancellationFlag+0x48>)
    1624:	447a      	add	r2, pc
    1626:	58d3      	ldr	r3, [r2, r3]
    1628:	681b      	ldr	r3, [r3, #0]
    162a:	9301      	str	r3, [sp, #4]
    162c:	f04f 0300 	mov.w	r3, #0
/home/dangcaominh/STM32MP1/optee-os/optee-os/lib/libutee/tee_api.c:532
    1630:	f005 ecb6 	blx	6fa0 <_utee_get_cancellation_flag>
/home/dangcaominh/STM32MP1/optee-os/optee-os/lib/libutee/tee_api.c:534
    1634:	b108      	cbz	r0, 163a <TEE_GetCancellationFlag+0x1e>
/home/dangcaominh/STM32MP1/optee-os/optee-os/lib/libutee/tee_api.c:535
    1636:	2300      	movs	r3, #0
    1638:	9300      	str	r3, [sp, #0]
/home/dangcaominh/STM32MP1/optee-os/optee-os/lib/libutee/tee_api.c:530
    163a:	4a0b      	ldr	r2, [pc, #44]	@ (1668 <TEE_GetCancellationFlag+0x4c>)
/home/dangcaominh/STM32MP1/optee-os/optee-os/lib/libutee/tee_api.c:537
    163c:	4b09      	ldr	r3, [pc, #36]	@ (1664 <TEE_GetCancellationFlag+0x48>)
/home/dangcaominh/STM32MP1/optee-os/optee-os/lib/libutee/tee_api.c:530
    163e:	447a      	add	r2, pc
/home/dangcaominh/STM32MP1/optee-os/optee-os/lib/libutee/tee_api.c:536
    1640:	9800      	ldr	r0, [sp, #0]
/home/dangcaominh/STM32MP1/optee-os/optee-os/lib/libutee/tee_api.c:537
    1642:	58d3      	ldr	r3, [r2, r3]
/home/dangcaominh/STM32MP1/optee-os/optee-os/lib/libutee/tee_api.c:536
    1644:	3800      	subs	r0, #0
    1646:	bf18      	it	ne
    1648:	2001      	movne	r0, #1
/home/dangcaominh/STM32MP1/optee-os/optee-os/lib/libutee/tee_api.c:537
    164a:	681a      	ldr	r2, [r3, #0]
    164c:	9b01      	ldr	r3, [sp, #4]
    164e:	405a      	eors	r2, r3
    1650:	f04f 0300 	mov.w	r3, #0
    1654:	d001      	beq.n	165a <TEE_GetCancellationFlag+0x3e>
    1656:	f7fe ff6d 	bl	534 <__stack_chk_fail>
    165a:	b003      	add	sp, #12
    165c:	f85d fb04 	ldr.w	pc, [sp], #4
    1660:	0000ca60 	.word	0x0000ca60
    1664:	0000000c 	.word	0x0000000c
    1668:	0000ca46 	.word	0x0000ca46

0000166c <TEE_UnmaskCancellation>:
TEE_UnmaskCancellation():
/home/dangcaominh/STM32MP1/optee-os/optee-os/lib/libutee/tee_api.c:540
    166c:	b507      	push	{r0, r1, r2, lr}
/home/dangcaominh/STM32MP1/optee-os/optee-os/lib/libutee/tee_api.c:542
    166e:	4668      	mov	r0, sp
/home/dangcaominh/STM32MP1/optee-os/optee-os/lib/libutee/tee_api.c:540
    1670:	4a0f      	ldr	r2, [pc, #60]	@ (16b0 <TEE_UnmaskCancellation+0x44>)
    1672:	4b10      	ldr	r3, [pc, #64]	@ (16b4 <TEE_UnmaskCancellation+0x48>)
    1674:	447a      	add	r2, pc
    1676:	58d3      	ldr	r3, [r2, r3]
    1678:	681b      	ldr	r3, [r3, #0]
    167a:	9301      	str	r3, [sp, #4]
    167c:	f04f 0300 	mov.w	r3, #0
/home/dangcaominh/STM32MP1/optee-os/optee-os/lib/libutee/tee_api.c:542
    1680:	f005 eca2 	blx	6fc8 <_utee_unmask_cancellation>
/home/dangcaominh/STM32MP1/optee-os/optee-os/lib/libutee/tee_api.c:544
    1684:	b108      	cbz	r0, 168a <TEE_UnmaskCancellation+0x1e>
/home/dangcaominh/STM32MP1/optee-os/optee-os/lib/libutee/tee_api.c:545
    1686:	f004 faef 	bl	5c68 <TEE_Panic>
/home/dangcaominh/STM32MP1/optee-os/optee-os/lib/libutee/tee_api.c:540
    168a:	4a0b      	ldr	r2, [pc, #44]	@ (16b8 <TEE_UnmaskCancellation+0x4c>)
/home/dangcaominh/STM32MP1/optee-os/optee-os/lib/libutee/tee_api.c:547
    168c:	4b09      	ldr	r3, [pc, #36]	@ (16b4 <TEE_UnmaskCancellation+0x48>)
/home/dangcaominh/STM32MP1/optee-os/optee-os/lib/libutee/tee_api.c:540
    168e:	447a      	add	r2, pc
/home/dangcaominh/STM32MP1/optee-os/optee-os/lib/libutee/tee_api.c:546
    1690:	9800      	ldr	r0, [sp, #0]
/home/dangcaominh/STM32MP1/optee-os/optee-os/lib/libutee/tee_api.c:547
    1692:	58d3      	ldr	r3, [r2, r3]
/home/dangcaominh/STM32MP1/optee-os/optee-os/lib/libutee/tee_api.c:546
    1694:	3800      	subs	r0, #0
    1696:	bf18      	it	ne
    1698:	2001      	movne	r0, #1
/home/dangcaominh/STM32MP1/optee-os/optee-os/lib/libutee/tee_api.c:547
    169a:	681a      	ldr	r2, [r3, #0]
    169c:	9b01      	ldr	r3, [sp, #4]
    169e:	405a      	eors	r2, r3
    16a0:	f04f 0300 	mov.w	r3, #0
    16a4:	d001      	beq.n	16aa <TEE_UnmaskCancellation+0x3e>
    16a6:	f7fe ff45 	bl	534 <__stack_chk_fail>
    16aa:	b003      	add	sp, #12
    16ac:	f85d fb04 	ldr.w	pc, [sp], #4
    16b0:	0000ca10 	.word	0x0000ca10
    16b4:	0000000c 	.word	0x0000000c
    16b8:	0000c9f6 	.word	0x0000c9f6

000016bc <TEE_MaskCancellation>:
TEE_MaskCancellation():
/home/dangcaominh/STM32MP1/optee-os/optee-os/lib/libutee/tee_api.c:550
    16bc:	b507      	push	{r0, r1, r2, lr}
/home/dangcaominh/STM32MP1/optee-os/optee-os/lib/libutee/tee_api.c:552
    16be:	4668      	mov	r0, sp
/home/dangcaominh/STM32MP1/optee-os/optee-os/lib/libutee/tee_api.c:550
    16c0:	4a0f      	ldr	r2, [pc, #60]	@ (1700 <TEE_MaskCancellation+0x44>)
    16c2:	4b10      	ldr	r3, [pc, #64]	@ (1704 <TEE_MaskCancellation+0x48>)
    16c4:	447a      	add	r2, pc
    16c6:	58d3      	ldr	r3, [r2, r3]
    16c8:	681b      	ldr	r3, [r3, #0]
    16ca:	9301      	str	r3, [sp, #4]
    16cc:	f04f 0300 	mov.w	r3, #0
/home/dangcaominh/STM32MP1/optee-os/optee-os/lib/libutee/tee_api.c:552
    16d0:	f005 ec84 	blx	6fdc <_utee_mask_cancellation>
/home/dangcaominh/STM32MP1/optee-os/optee-os/lib/libutee/tee_api.c:554
    16d4:	b108      	cbz	r0, 16da <TEE_MaskCancellation+0x1e>
/home/dangcaominh/STM32MP1/optee-os/optee-os/lib/libutee/tee_api.c:555
    16d6:	f004 fac7 	bl	5c68 <TEE_Panic>
/home/dangcaominh/STM32MP1/optee-os/optee-os/lib/libutee/tee_api.c:550
    16da:	4a0b      	ldr	r2, [pc, #44]	@ (1708 <TEE_MaskCancellation+0x4c>)
/home/dangcaominh/STM32MP1/optee-os/optee-os/lib/libutee/tee_api.c:557
    16dc:	4b09      	ldr	r3, [pc, #36]	@ (1704 <TEE_MaskCancellation+0x48>)
/home/dangcaominh/STM32MP1/optee-os/optee-os/lib/libutee/tee_api.c:550
    16de:	447a      	add	r2, pc
/home/dangcaominh/STM32MP1/optee-os/optee-os/lib/libutee/tee_api.c:556
    16e0:	9800      	ldr	r0, [sp, #0]
/home/dangcaominh/STM32MP1/optee-os/optee-os/lib/libutee/tee_api.c:557
    16e2:	58d3      	ldr	r3, [r2, r3]
/home/dangcaominh/STM32MP1/optee-os/optee-os/lib/libutee/tee_api.c:556
    16e4:	3800      	subs	r0, #0
    16e6:	bf18      	it	ne
    16e8:	2001      	movne	r0, #1
/home/dangcaominh/STM32MP1/optee-os/optee-os/lib/libutee/tee_api.c:557
    16ea:	681a      	ldr	r2, [r3, #0]
    16ec:	9b01      	ldr	r3, [sp, #4]
    16ee:	405a      	eors	r2, r3
    16f0:	f04f 0300 	mov.w	r3, #0
    16f4:	d001      	beq.n	16fa <TEE_MaskCancellation+0x3e>
    16f6:	f7fe ff1d 	bl	534 <__stack_chk_fail>
    16fa:	b003      	add	sp, #12
    16fc:	f85d fb04 	ldr.w	pc, [sp], #4
    1700:	0000c9c0 	.word	0x0000c9c0
    1704:	0000000c 	.word	0x0000000c
    1708:	0000c9a6 	.word	0x0000c9a6

0000170c <TEE_CheckMemoryAccessRights>:
TEE_CheckMemoryAccessRights():
/home/dangcaominh/STM32MP1/optee-os/optee-os/lib/libutee/tee_api.c:563
    170c:	b570      	push	{r4, r5, r6, lr}
    170e:	4606      	mov	r6, r0
    1710:	460d      	mov	r5, r1
/home/dangcaominh/STM32MP1/optee-os/optee-os/lib/libutee/tee_api.c:566
    1712:	4614      	mov	r4, r2
    1714:	b90a      	cbnz	r2, 171a <TEE_CheckMemoryAccessRights+0xe>
/home/dangcaominh/STM32MP1/optee-os/optee-os/lib/libutee/tee_api.c:567
    1716:	2000      	movs	r0, #0
/home/dangcaominh/STM32MP1/optee-os/optee-os/lib/libutee/tee_api.c:592
    1718:	bd70      	pop	{r4, r5, r6, pc}
/home/dangcaominh/STM32MP1/optee-os/optee-os/lib/libutee/tee_api.c:573
    171a:	f005 ec4c 	blx	6fb4 <_utee_check_access_rights>
/home/dangcaominh/STM32MP1/optee-os/optee-os/lib/libutee/tee_api.c:573 (discriminator 1)
    171e:	b108      	cbz	r0, 1724 <TEE_CheckMemoryAccessRights+0x18>
/home/dangcaominh/STM32MP1/optee-os/optee-os/lib/libutee/tee_api.c:574
    1720:	480b      	ldr	r0, [pc, #44]	@ (1750 <TEE_CheckMemoryAccessRights+0x44>)
    1722:	e7f9      	b.n	1718 <TEE_CheckMemoryAccessRights+0xc>
/home/dangcaominh/STM32MP1/optee-os/optee-os/lib/libutee/tee_api.c:584
    1724:	4622      	mov	r2, r4
    1726:	4629      	mov	r1, r5
    1728:	f006 0007 	and.w	r0, r6, #7
    172c:	f7ff fe8e 	bl	144c <check_mem_access_rights_params>
/home/dangcaominh/STM32MP1/optee-os/optee-os/lib/libutee/tee_api.c:584 (discriminator 1)
    1730:	2800      	cmp	r0, #0
    1732:	d1f5      	bne.n	1720 <TEE_CheckMemoryAccessRights+0x14>
/home/dangcaominh/STM32MP1/optee-os/optee-os/lib/libutee/tee_api.c:587
    1734:	4621      	mov	r1, r4
    1736:	4628      	mov	r0, r5
    1738:	f00b f984 	bl	ca44 <malloc_buffer_overlaps_heap>
/home/dangcaominh/STM32MP1/optee-os/optee-os/lib/libutee/tee_api.c:587 (discriminator 1)
    173c:	2800      	cmp	r0, #0
    173e:	d0ea      	beq.n	1716 <TEE_CheckMemoryAccessRights+0xa>
/home/dangcaominh/STM32MP1/optee-os/optee-os/lib/libutee/tee_api.c:588
    1740:	4621      	mov	r1, r4
    1742:	4628      	mov	r0, r5
    1744:	f00b f976 	bl	ca34 <malloc_buffer_is_within_alloced>
/home/dangcaominh/STM32MP1/optee-os/optee-os/lib/libutee/tee_api.c:587 (discriminator 1)
    1748:	2800      	cmp	r0, #0
    174a:	d1e4      	bne.n	1716 <TEE_CheckMemoryAccessRights+0xa>
    174c:	e7e8      	b.n	1720 <TEE_CheckMemoryAccessRights+0x14>
    174e:	bf00      	nop
    1750:	ffff0001 	.word	0xffff0001

00001754 <map_tmp_param>:
map_tmp_param():
/home/dangcaominh/STM32MP1/optee-os/optee-os/lib/libutee/tee_api.c:98
    1754:	e92d 4ff0 	stmdb	sp!, {r4, r5, r6, r7, r8, r9, sl, fp, lr}
    1758:	4691      	mov	r9, r2
    175a:	4a3f      	ldr	r2, [pc, #252]	@ (1858 <map_tmp_param+0x104>)
    175c:	4698      	mov	r8, r3
    175e:	4b3f      	ldr	r3, [pc, #252]	@ (185c <map_tmp_param+0x108>)
    1760:	b085      	sub	sp, #20
    1762:	447a      	add	r2, pc
/home/dangcaominh/STM32MP1/optee-os/optee-os/lib/libutee/tee_api.c:103
    1764:	2400      	movs	r4, #0
/home/dangcaominh/STM32MP1/optee-os/optee-os/lib/libutee/tee_api.c:98
    1766:	4607      	mov	r7, r0
    1768:	468a      	mov	sl, r1
    176a:	58d3      	ldr	r3, [r2, r3]
    176c:	4606      	mov	r6, r0
/home/dangcaominh/STM32MP1/optee-os/optee-os/lib/libutee/tee_api.c:115
    176e:	4683      	mov	fp, r0
/home/dangcaominh/STM32MP1/optee-os/optee-os/lib/libutee/tee_api.c:116
    1770:	4625      	mov	r5, r4
/home/dangcaominh/STM32MP1/optee-os/optee-os/lib/libutee/tee_api.c:98
    1772:	681b      	ldr	r3, [r3, #0]
    1774:	9303      	str	r3, [sp, #12]
    1776:	f04f 0300 	mov.w	r3, #0
/home/dangcaominh/STM32MP1/optee-os/optee-os/lib/libutee/tee_api.c:117
    177a:	4623      	mov	r3, r4
/home/dangcaominh/STM32MP1/optee-os/optee-os/lib/libutee/tee_api.c:114
    177c:	600c      	str	r4, [r1, #0]
/home/dangcaominh/STM32MP1/optee-os/optee-os/lib/libutee/tee_api.c:103
    177e:	9402      	str	r4, [sp, #8]
/home/dangcaominh/STM32MP1/optee-os/optee-os/lib/libutee/tee_api.c:115
    1780:	f8c9 4000 	str.w	r4, [r9]
/home/dangcaominh/STM32MP1/optee-os/optee-os/lib/libutee/tee_api.c:118
    1784:	00a9      	lsls	r1, r5, #2
    1786:	683a      	ldr	r2, [r7, #0]
/home/dangcaominh/STM32MP1/optee-os/optee-os/lib/libutee/tee_api.c:117
    1788:	f848 3025 	str.w	r3, [r8, r5, lsl #2]
/home/dangcaominh/STM32MP1/optee-os/optee-os/lib/libutee/tee_api.c:118
    178c:	40ca      	lsrs	r2, r1
    178e:	f002 020f 	and.w	r2, r2, #15
    1792:	3a05      	subs	r2, #5
    1794:	2a02      	cmp	r2, #2
    1796:	d813      	bhi.n	17c0 <map_tmp_param+0x6c>
/home/dangcaominh/STM32MP1/optee-os/optee-os/lib/libutee/tee_api.c:122
    1798:	f8db 1008 	ldr.w	r1, [fp, #8]
/home/dangcaominh/STM32MP1/optee-os/optee-os/lib/libutee/tee_api.c:133
    179c:	b181      	cbz	r1, 17c0 <map_tmp_param+0x6c>
/home/dangcaominh/STM32MP1/optee-os/optee-os/lib/libutee/tee_api.c:123
    179e:	f8db 2010 	ldr.w	r2, [fp, #16]
/home/dangcaominh/STM32MP1/optee-os/optee-os/lib/libutee/tee_api.c:133 (discriminator 1)
    17a2:	b16a      	cbz	r2, 17c0 <map_tmp_param+0x6c>
/home/dangcaominh/STM32MP1/optee-os/optee-os/lib/libutee/tee_api.c:134
    17a4:	9201      	str	r2, [sp, #4]
    17a6:	2001      	movs	r0, #1
    17a8:	f7ff ffb0 	bl	170c <TEE_CheckMemoryAccessRights>
/home/dangcaominh/STM32MP1/optee-os/optee-os/lib/libutee/tee_api.c:133 (discriminator 2)
    17ac:	2300      	movs	r3, #0
    17ae:	b938      	cbnz	r0, 17c0 <map_tmp_param+0x6c>
/home/dangcaominh/STM32MP1/optee-os/optee-os/lib/libutee/tee_api.c:136
    17b0:	9a01      	ldr	r2, [sp, #4]
/home/dangcaominh/STM32MP1/optee-os/optee-os/lib/libutee/tee_api.c:135
    17b2:	a902      	add	r1, sp, #8
    17b4:	2001      	movs	r0, #1
    17b6:	5468      	strb	r0, [r5, r1]
/home/dangcaominh/STM32MP1/optee-os/optee-os/lib/libutee/tee_api.c:136
    17b8:	3207      	adds	r2, #7
    17ba:	f022 0207 	bic.w	r2, r2, #7
    17be:	4414      	add	r4, r2
/home/dangcaominh/STM32MP1/optee-os/optee-os/lib/libutee/tee_api.c:116 (discriminator 2)
    17c0:	3501      	adds	r5, #1
/home/dangcaominh/STM32MP1/optee-os/optee-os/lib/libutee/tee_api.c:116 (discriminator 1)
    17c2:	f10b 0b10 	add.w	fp, fp, #16
    17c6:	2d04      	cmp	r5, #4
    17c8:	d1dc      	bne.n	1784 <map_tmp_param+0x30>
/home/dangcaominh/STM32MP1/optee-os/optee-os/lib/libutee/tee_api.c:144
    17ca:	b3bc      	cbz	r4, 183c <map_tmp_param+0xe8>
/home/dangcaominh/STM32MP1/optee-os/optee-os/lib/libutee/tee_api.c:145
    17cc:	4629      	mov	r1, r5
    17ce:	4620      	mov	r0, r4
    17d0:	f004 fff4 	bl	67bc <tee_map_zi>
/home/dangcaominh/STM32MP1/optee-os/optee-os/lib/libutee/tee_api.c:146
    17d4:	4605      	mov	r5, r0
    17d6:	b3c0      	cbz	r0, 184a <map_tmp_param+0xf6>
/home/dangcaominh/STM32MP1/optee-os/optee-os/lib/libutee/tee_api.c:148
    17d8:	f8ca 0000 	str.w	r0, [sl]
/home/dangcaominh/STM32MP1/optee-os/optee-os/lib/libutee/tee_api.c:149
    17dc:	f8c9 4000 	str.w	r4, [r9]
/home/dangcaominh/STM32MP1/optee-os/optee-os/lib/libutee/tee_api.c:100
    17e0:	2400      	movs	r4, #0
/home/dangcaominh/STM32MP1/optee-os/optee-os/lib/libutee/tee_api.c:157
    17e2:	f10d 0a08 	add.w	sl, sp, #8
/home/dangcaominh/STM32MP1/optee-os/optee-os/lib/libutee/tee_api.c:163
    17e6:	46a3      	mov	fp, r4
/home/dangcaominh/STM32MP1/optee-os/optee-os/lib/libutee/tee_api.c:153
    17e8:	00a2      	lsls	r2, r4, #2
    17ea:	683b      	ldr	r3, [r7, #0]
    17ec:	40d3      	lsrs	r3, r2
    17ee:	f003 030f 	and.w	r3, r3, #15
    17f2:	1f5a      	subs	r2, r3, #5
    17f4:	2a02      	cmp	r2, #2
    17f6:	d810      	bhi.n	181a <map_tmp_param+0xc6>
/home/dangcaominh/STM32MP1/optee-os/optee-os/lib/libutee/tee_api.c:157
    17f8:	f814 200a 	ldrb.w	r2, [r4, sl]
    17fc:	b16a      	cbz	r2, 181a <map_tmp_param+0xc6>
/home/dangcaominh/STM32MP1/optee-os/optee-os/lib/libutee/tee_api.c:160
    17fe:	68b1      	ldr	r1, [r6, #8]
/home/dangcaominh/STM32MP1/optee-os/optee-os/lib/libutee/tee_api.c:164
    1800:	2b06      	cmp	r3, #6
/home/dangcaominh/STM32MP1/optee-os/optee-os/lib/libutee/tee_api.c:159
    1802:	f8d6 9010 	ldr.w	r9, [r6, #16]
/home/dangcaominh/STM32MP1/optee-os/optee-os/lib/libutee/tee_api.c:161
    1806:	f848 5024 	str.w	r5, [r8, r4, lsl #2]
/home/dangcaominh/STM32MP1/optee-os/optee-os/lib/libutee/tee_api.c:163
    180a:	e9c6 5b02 	strd	r5, fp, [r6, #8]
/home/dangcaominh/STM32MP1/optee-os/optee-os/lib/libutee/tee_api.c:164
    180e:	d117      	bne.n	1840 <map_tmp_param+0xec>
/home/dangcaominh/STM32MP1/optee-os/optee-os/lib/libutee/tee_api.c:162
    1810:	f109 0907 	add.w	r9, r9, #7
    1814:	f029 0907 	bic.w	r9, r9, #7
    1818:	444d      	add	r5, r9
/home/dangcaominh/STM32MP1/optee-os/optee-os/lib/libutee/tee_api.c:152 (discriminator 2)
    181a:	3401      	adds	r4, #1
/home/dangcaominh/STM32MP1/optee-os/optee-os/lib/libutee/tee_api.c:152 (discriminator 1)
    181c:	3610      	adds	r6, #16
    181e:	2c04      	cmp	r4, #4
    1820:	d1e2      	bne.n	17e8 <map_tmp_param+0x94>
/home/dangcaominh/STM32MP1/optee-os/optee-os/lib/libutee/tee_api.c:173
    1822:	2000      	movs	r0, #0
/home/dangcaominh/STM32MP1/optee-os/optee-os/lib/libutee/tee_api.c:98
    1824:	4a0e      	ldr	r2, [pc, #56]	@ (1860 <map_tmp_param+0x10c>)
/home/dangcaominh/STM32MP1/optee-os/optee-os/lib/libutee/tee_api.c:175
    1826:	4b0d      	ldr	r3, [pc, #52]	@ (185c <map_tmp_param+0x108>)
/home/dangcaominh/STM32MP1/optee-os/optee-os/lib/libutee/tee_api.c:98
    1828:	447a      	add	r2, pc
/home/dangcaominh/STM32MP1/optee-os/optee-os/lib/libutee/tee_api.c:175
    182a:	58d3      	ldr	r3, [r2, r3]
    182c:	681a      	ldr	r2, [r3, #0]
    182e:	9b03      	ldr	r3, [sp, #12]
    1830:	405a      	eors	r2, r3
    1832:	f04f 0300 	mov.w	r3, #0
    1836:	d00a      	beq.n	184e <map_tmp_param+0xfa>
    1838:	f7fe fe7c 	bl	534 <__stack_chk_fail>
/home/dangcaominh/STM32MP1/optee-os/optee-os/lib/libutee/tee_api.c:100
    183c:	4625      	mov	r5, r4
    183e:	e7cf      	b.n	17e0 <map_tmp_param+0x8c>
/home/dangcaominh/STM32MP1/optee-os/optee-os/lib/libutee/tee_api.c:166
    1840:	464a      	mov	r2, r9
    1842:	4628      	mov	r0, r5
    1844:	f7fe fe8a 	bl	55c <memcpy>
    1848:	e7e2      	b.n	1810 <map_tmp_param+0xbc>
/home/dangcaominh/STM32MP1/optee-os/optee-os/lib/libutee/tee_api.c:147
    184a:	4802      	ldr	r0, [pc, #8]	@ (1854 <map_tmp_param+0x100>)
    184c:	e7ea      	b.n	1824 <map_tmp_param+0xd0>
/home/dangcaominh/STM32MP1/optee-os/optee-os/lib/libutee/tee_api.c:175
    184e:	b005      	add	sp, #20
    1850:	e8bd 8ff0 	ldmia.w	sp!, {r4, r5, r6, r7, r8, r9, sl, fp, pc}
    1854:	ffff000c 	.word	0xffff000c
    1858:	0000c922 	.word	0x0000c922
    185c:	0000000c 	.word	0x0000000c
    1860:	0000c85c 	.word	0x0000c85c

00001864 <TEE_OpenTASession>:
TEE_OpenTASession():
/home/dangcaominh/STM32MP1/optee-os/optee-os/lib/libutee/tee_api.c:323
    1864:	e92d 4ff0 	stmdb	sp!, {r4, r5, r6, r7, r8, r9, sl, fp, lr}
    1868:	4614      	mov	r4, r2
    186a:	4a32      	ldr	r2, [pc, #200]	@ (1934 <TEE_OpenTASession+0xd0>)
    186c:	461d      	mov	r5, r3
    186e:	4b32      	ldr	r3, [pc, #200]	@ (1938 <TEE_OpenTASession+0xd4>)
    1870:	b09f      	sub	sp, #124	@ 0x7c
    1872:	447a      	add	r2, pc
/home/dangcaominh/STM32MP1/optee-os/optee-os/lib/libutee/tee_api.c:325
    1874:	ae0a      	add	r6, sp, #40	@ 0x28
/home/dangcaominh/STM32MP1/optee-os/optee-os/lib/libutee/tee_api.c:323
    1876:	4680      	mov	r8, r0
    1878:	4689      	mov	r9, r1
    187a:	58d3      	ldr	r3, [r2, r3]
/home/dangcaominh/STM32MP1/optee-os/optee-os/lib/libutee/tee_api.c:325
    187c:	2100      	movs	r1, #0
    187e:	4630      	mov	r0, r6
    1880:	2248      	movs	r2, #72	@ 0x48
/home/dangcaominh/STM32MP1/optee-os/optee-os/lib/libutee/tee_api.c:323
    1882:	681b      	ldr	r3, [r3, #0]
    1884:	931d      	str	r3, [sp, #116]	@ 0x74
    1886:	f04f 0300 	mov.w	r3, #0
/home/dangcaominh/STM32MP1/optee-os/optee-os/lib/libutee/tee_api.c:329
    188a:	af06      	add	r7, sp, #24
/home/dangcaominh/STM32MP1/optee-os/optee-os/lib/libutee/tee_api.c:323
    188c:	e9dd ab28 	ldrd	sl, fp, [sp, #160]	@ 0xa0
/home/dangcaominh/STM32MP1/optee-os/optee-os/lib/libutee/tee_api.c:325
    1890:	f00b f98c 	bl	cbac <memset>
/home/dangcaominh/STM32MP1/optee-os/optee-os/lib/libutee/tee_api.c:329
    1894:	efc0 0010 	vmov.i32	d16, #0	@ 0x00000000
/home/dangcaominh/STM32MP1/optee-os/optee-os/lib/libutee/tee_api.c:326
    1898:	2300      	movs	r3, #0
    189a:	9303      	str	r3, [sp, #12]
/home/dangcaominh/STM32MP1/optee-os/optee-os/lib/libutee/tee_api.c:329
    189c:	edcd 0b06 	vstr	d16, [sp, #24]
    18a0:	edc7 0b02 	vstr	d16, [r7, #8]
/home/dangcaominh/STM32MP1/optee-os/optee-os/lib/libutee/tee_api.c:328
    18a4:	e9cd 3304 	strd	r3, r3, [sp, #16]
/home/dangcaominh/STM32MP1/optee-os/optee-os/lib/libutee/tee_api.c:331
    18a8:	b13c      	cbz	r4, 18ba <TEE_OpenTASession+0x56>
/home/dangcaominh/STM32MP1/optee-os/optee-os/lib/libutee/tee_api.c:332
    18aa:	2120      	movs	r1, #32
    18ac:	4628      	mov	r0, r5
    18ae:	f004 fa20 	bl	5cf2 <__utee_check_inout_annotation>
/home/dangcaominh/STM32MP1/optee-os/optee-os/lib/libutee/tee_api.c:335
    18b2:	4629      	mov	r1, r5
    18b4:	4620      	mov	r0, r4
    18b6:	f7ff fe15 	bl	14e4 <check_invoke_param>
/home/dangcaominh/STM32MP1/optee-os/optee-os/lib/libutee/tee_api.c:337
    18ba:	2104      	movs	r1, #4
    18bc:	4650      	mov	r0, sl
    18be:	f004 fa00 	bl	5cc2 <__utee_check_out_annotation>
/home/dangcaominh/STM32MP1/optee-os/optee-os/lib/libutee/tee_api.c:339
    18c2:	4621      	mov	r1, r4
    18c4:	462a      	mov	r2, r5
    18c6:	4630      	mov	r0, r6
    18c8:	f7ff fd6e 	bl	13a8 <copy_param>
/home/dangcaominh/STM32MP1/optee-os/optee-os/lib/libutee/tee_api.c:340
    18cc:	463b      	mov	r3, r7
    18ce:	aa05      	add	r2, sp, #20
    18d0:	a904      	add	r1, sp, #16
    18d2:	4630      	mov	r0, r6
    18d4:	f7ff ff3e 	bl	1754 <map_tmp_param>
/home/dangcaominh/STM32MP1/optee-os/optee-os/lib/libutee/tee_api.c:341
    18d8:	4604      	mov	r4, r0
    18da:	b9b0      	cbnz	r0, 190a <TEE_OpenTASession+0xa6>
/home/dangcaominh/STM32MP1/optee-os/optee-os/lib/libutee/tee_api.c:343
    18dc:	f8cd b000 	str.w	fp, [sp]
    18e0:	ab03      	add	r3, sp, #12
    18e2:	4632      	mov	r2, r6
    18e4:	4649      	mov	r1, r9
    18e6:	4640      	mov	r0, r8
    18e8:	f005 eb38 	blx	6f5c <_utee_open_ta_session>
    18ec:	4604      	mov	r4, r0
/home/dangcaominh/STM32MP1/optee-os/optee-os/lib/libutee/tee_api.c:345
    18ee:	4632      	mov	r2, r6
    18f0:	4628      	mov	r0, r5
    18f2:	4639      	mov	r1, r7
    18f4:	f7ff fe24 	bl	1540 <update_out_param>
/home/dangcaominh/STM32MP1/optee-os/optee-os/lib/libutee/tee_api.c:346
    18f8:	9804      	ldr	r0, [sp, #16]
    18fa:	b128      	cbz	r0, 1908 <TEE_OpenTASession+0xa4>
/home/dangcaominh/STM32MP1/optee-os/optee-os/lib/libutee/tee_api.c:347
    18fc:	9905      	ldr	r1, [sp, #20]
    18fe:	f004 ff93 	bl	6828 <tee_unmap>
/home/dangcaominh/STM32MP1/optee-os/optee-os/lib/libutee/tee_api.c:349
    1902:	b108      	cbz	r0, 1908 <TEE_OpenTASession+0xa4>
/home/dangcaominh/STM32MP1/optee-os/optee-os/lib/libutee/tee_api.c:350
    1904:	f004 f9b0 	bl	5c68 <TEE_Panic>
/home/dangcaominh/STM32MP1/optee-os/optee-os/lib/libutee/tee_api.c:359
    1908:	b10c      	cbz	r4, 190e <TEE_OpenTASession+0xaa>
/home/dangcaominh/STM32MP1/optee-os/optee-os/lib/libutee/tee_api.c:360
    190a:	2300      	movs	r3, #0
    190c:	9303      	str	r3, [sp, #12]
/home/dangcaominh/STM32MP1/optee-os/optee-os/lib/libutee/tee_api.c:362
    190e:	9b03      	ldr	r3, [sp, #12]
/home/dangcaominh/STM32MP1/optee-os/optee-os/lib/libutee/tee_api.c:323
    1910:	4a0a      	ldr	r2, [pc, #40]	@ (193c <TEE_OpenTASession+0xd8>)
/home/dangcaominh/STM32MP1/optee-os/optee-os/lib/libutee/tee_api.c:362
    1912:	f8ca 3000 	str.w	r3, [sl]
/home/dangcaominh/STM32MP1/optee-os/optee-os/lib/libutee/tee_api.c:323
    1916:	447a      	add	r2, pc
/home/dangcaominh/STM32MP1/optee-os/optee-os/lib/libutee/tee_api.c:364
    1918:	4b07      	ldr	r3, [pc, #28]	@ (1938 <TEE_OpenTASession+0xd4>)
    191a:	58d3      	ldr	r3, [r2, r3]
    191c:	681a      	ldr	r2, [r3, #0]
    191e:	9b1d      	ldr	r3, [sp, #116]	@ 0x74
    1920:	405a      	eors	r2, r3
    1922:	f04f 0300 	mov.w	r3, #0
    1926:	d001      	beq.n	192c <TEE_OpenTASession+0xc8>
    1928:	f7fe fe04 	bl	534 <__stack_chk_fail>
    192c:	4620      	mov	r0, r4
    192e:	b01f      	add	sp, #124	@ 0x7c
    1930:	e8bd 8ff0 	ldmia.w	sp!, {r4, r5, r6, r7, r8, r9, sl, fp, pc}
    1934:	0000c812 	.word	0x0000c812
    1938:	0000000c 	.word	0x0000000c
    193c:	0000c76e 	.word	0x0000c76e

00001940 <__GP11_TEE_OpenTASession>:
__GP11_TEE_OpenTASession():
/home/dangcaominh/STM32MP1/optee-os/optee-os/lib/libutee/tee_api.c:372
    1940:	e92d 4ff0 	stmdb	sp!, {r4, r5, r6, r7, r8, r9, sl, fp, lr}
    1944:	4614      	mov	r4, r2
    1946:	4a2f      	ldr	r2, [pc, #188]	@ (1a04 <__GP11_TEE_OpenTASession+0xc4>)
    1948:	461d      	mov	r5, r3
    194a:	4b2f      	ldr	r3, [pc, #188]	@ (1a08 <__GP11_TEE_OpenTASession+0xc8>)
    194c:	b09f      	sub	sp, #124	@ 0x7c
    194e:	447a      	add	r2, pc
/home/dangcaominh/STM32MP1/optee-os/optee-os/lib/libutee/tee_api.c:374
    1950:	ae0a      	add	r6, sp, #40	@ 0x28
/home/dangcaominh/STM32MP1/optee-os/optee-os/lib/libutee/tee_api.c:372
    1952:	4680      	mov	r8, r0
    1954:	4689      	mov	r9, r1
    1956:	58d3      	ldr	r3, [r2, r3]
/home/dangcaominh/STM32MP1/optee-os/optee-os/lib/libutee/tee_api.c:374
    1958:	2100      	movs	r1, #0
    195a:	4630      	mov	r0, r6
    195c:	2248      	movs	r2, #72	@ 0x48
/home/dangcaominh/STM32MP1/optee-os/optee-os/lib/libutee/tee_api.c:372
    195e:	681b      	ldr	r3, [r3, #0]
    1960:	931d      	str	r3, [sp, #116]	@ 0x74
    1962:	f04f 0300 	mov.w	r3, #0
/home/dangcaominh/STM32MP1/optee-os/optee-os/lib/libutee/tee_api.c:378
    1966:	af06      	add	r7, sp, #24
/home/dangcaominh/STM32MP1/optee-os/optee-os/lib/libutee/tee_api.c:372
    1968:	e9dd ab28 	ldrd	sl, fp, [sp, #160]	@ 0xa0
/home/dangcaominh/STM32MP1/optee-os/optee-os/lib/libutee/tee_api.c:374
    196c:	f00b f91e 	bl	cbac <memset>
/home/dangcaominh/STM32MP1/optee-os/optee-os/lib/libutee/tee_api.c:378
    1970:	efc0 0010 	vmov.i32	d16, #0	@ 0x00000000
/home/dangcaominh/STM32MP1/optee-os/optee-os/lib/libutee/tee_api.c:375
    1974:	2300      	movs	r3, #0
    1976:	9303      	str	r3, [sp, #12]
/home/dangcaominh/STM32MP1/optee-os/optee-os/lib/libutee/tee_api.c:378
    1978:	edcd 0b06 	vstr	d16, [sp, #24]
    197c:	edc7 0b02 	vstr	d16, [r7, #8]
/home/dangcaominh/STM32MP1/optee-os/optee-os/lib/libutee/tee_api.c:380
    1980:	b11c      	cbz	r4, 198a <__GP11_TEE_OpenTASession+0x4a>
/home/dangcaominh/STM32MP1/optee-os/optee-os/lib/libutee/tee_api.c:381
    1982:	2120      	movs	r1, #32
    1984:	4628      	mov	r0, r5
    1986:	f004 f9b4 	bl	5cf2 <__utee_check_inout_annotation>
/home/dangcaominh/STM32MP1/optee-os/optee-os/lib/libutee/tee_api.c:384
    198a:	2104      	movs	r1, #4
    198c:	4650      	mov	r0, sl
    198e:	f004 f998 	bl	5cc2 <__utee_check_out_annotation>
/home/dangcaominh/STM32MP1/optee-os/optee-os/lib/libutee/tee_api.c:386
    1992:	4621      	mov	r1, r4
    1994:	462a      	mov	r2, r5
    1996:	4630      	mov	r0, r6
    1998:	f7ff fd2f 	bl	13fa <copy_gp11_param>
/home/dangcaominh/STM32MP1/optee-os/optee-os/lib/libutee/tee_api.c:387
    199c:	463b      	mov	r3, r7
    199e:	aa05      	add	r2, sp, #20
    19a0:	a904      	add	r1, sp, #16
    19a2:	4630      	mov	r0, r6
    19a4:	f7ff fed6 	bl	1754 <map_tmp_param>
/home/dangcaominh/STM32MP1/optee-os/optee-os/lib/libutee/tee_api.c:388
    19a8:	4604      	mov	r4, r0
    19aa:	b9b0      	cbnz	r0, 19da <__GP11_TEE_OpenTASession+0x9a>
/home/dangcaominh/STM32MP1/optee-os/optee-os/lib/libutee/tee_api.c:390
    19ac:	f8cd b000 	str.w	fp, [sp]
    19b0:	ab03      	add	r3, sp, #12
    19b2:	4632      	mov	r2, r6
    19b4:	4649      	mov	r1, r9
    19b6:	4640      	mov	r0, r8
    19b8:	f005 ead0 	blx	6f5c <_utee_open_ta_session>
    19bc:	4604      	mov	r4, r0
/home/dangcaominh/STM32MP1/optee-os/optee-os/lib/libutee/tee_api.c:392
    19be:	4632      	mov	r2, r6
    19c0:	4628      	mov	r0, r5
    19c2:	4639      	mov	r1, r7
    19c4:	f7ff fdee 	bl	15a4 <update_out_gp11_param>
/home/dangcaominh/STM32MP1/optee-os/optee-os/lib/libutee/tee_api.c:393
    19c8:	9804      	ldr	r0, [sp, #16]
    19ca:	b128      	cbz	r0, 19d8 <__GP11_TEE_OpenTASession+0x98>
/home/dangcaominh/STM32MP1/optee-os/optee-os/lib/libutee/tee_api.c:394
    19cc:	9905      	ldr	r1, [sp, #20]
    19ce:	f004 ff2b 	bl	6828 <tee_unmap>
/home/dangcaominh/STM32MP1/optee-os/optee-os/lib/libutee/tee_api.c:396
    19d2:	b108      	cbz	r0, 19d8 <__GP11_TEE_OpenTASession+0x98>
/home/dangcaominh/STM32MP1/optee-os/optee-os/lib/libutee/tee_api.c:397
    19d4:	f004 f948 	bl	5c68 <TEE_Panic>
/home/dangcaominh/STM32MP1/optee-os/optee-os/lib/libutee/tee_api.c:406
    19d8:	b10c      	cbz	r4, 19de <__GP11_TEE_OpenTASession+0x9e>
/home/dangcaominh/STM32MP1/optee-os/optee-os/lib/libutee/tee_api.c:407
    19da:	2300      	movs	r3, #0
    19dc:	9303      	str	r3, [sp, #12]
/home/dangcaominh/STM32MP1/optee-os/optee-os/lib/libutee/tee_api.c:409
    19de:	9b03      	ldr	r3, [sp, #12]
/home/dangcaominh/STM32MP1/optee-os/optee-os/lib/libutee/tee_api.c:372
    19e0:	4a0a      	ldr	r2, [pc, #40]	@ (1a0c <__GP11_TEE_OpenTASession+0xcc>)
/home/dangcaominh/STM32MP1/optee-os/optee-os/lib/libutee/tee_api.c:409
    19e2:	f8ca 3000 	str.w	r3, [sl]
/home/dangcaominh/STM32MP1/optee-os/optee-os/lib/libutee/tee_api.c:372
    19e6:	447a      	add	r2, pc
/home/dangcaominh/STM32MP1/optee-os/optee-os/lib/libutee/tee_api.c:411
    19e8:	4b07      	ldr	r3, [pc, #28]	@ (1a08 <__GP11_TEE_OpenTASession+0xc8>)
    19ea:	58d3      	ldr	r3, [r2, r3]
    19ec:	681a      	ldr	r2, [r3, #0]
    19ee:	9b1d      	ldr	r3, [sp, #116]	@ 0x74
    19f0:	405a      	eors	r2, r3
    19f2:	f04f 0300 	mov.w	r3, #0
    19f6:	d001      	beq.n	19fc <__GP11_TEE_OpenTASession+0xbc>
    19f8:	f7fe fd9c 	bl	534 <__stack_chk_fail>
    19fc:	4620      	mov	r0, r4
    19fe:	b01f      	add	sp, #124	@ 0x7c
    1a00:	e8bd 8ff0 	ldmia.w	sp!, {r4, r5, r6, r7, r8, r9, sl, fp, pc}
    1a04:	0000c736 	.word	0x0000c736
    1a08:	0000000c 	.word	0x0000000c
    1a0c:	0000c69e 	.word	0x0000c69e

00001a10 <TEE_InvokeTACommand>:
TEE_InvokeTACommand():
/home/dangcaominh/STM32MP1/optee-os/optee-os/lib/libutee/tee_api.c:428
    1a10:	e92d 4ff0 	stmdb	sp!, {r4, r5, r6, r7, r8, r9, sl, fp, lr}
    1a14:	4693      	mov	fp, r2
    1a16:	4a3a      	ldr	r2, [pc, #232]	@ (1b00 <TEE_InvokeTACommand+0xf0>)
    1a18:	461c      	mov	r4, r3
    1a1a:	4b3a      	ldr	r3, [pc, #232]	@ (1b04 <TEE_InvokeTACommand+0xf4>)
    1a1c:	b09f      	sub	sp, #124	@ 0x7c
    1a1e:	447a      	add	r2, pc
/home/dangcaominh/STM32MP1/optee-os/optee-os/lib/libutee/tee_api.c:431
    1a20:	ad0a      	add	r5, sp, #40	@ 0x28
/home/dangcaominh/STM32MP1/optee-os/optee-os/lib/libutee/tee_api.c:428
    1a22:	4681      	mov	r9, r0
    1a24:	468a      	mov	sl, r1
    1a26:	58d3      	ldr	r3, [r2, r3]
/home/dangcaominh/STM32MP1/optee-os/optee-os/lib/libutee/tee_api.c:431
    1a28:	2100      	movs	r1, #0
    1a2a:	4628      	mov	r0, r5
    1a2c:	2248      	movs	r2, #72	@ 0x48
/home/dangcaominh/STM32MP1/optee-os/optee-os/lib/libutee/tee_api.c:428
    1a2e:	681b      	ldr	r3, [r3, #0]
    1a30:	931d      	str	r3, [sp, #116]	@ 0x74
    1a32:	f04f 0300 	mov.w	r3, #0
/home/dangcaominh/STM32MP1/optee-os/optee-os/lib/libutee/tee_api.c:430
    1a36:	2303      	movs	r3, #3
    1a38:	9303      	str	r3, [sp, #12]
/home/dangcaominh/STM32MP1/optee-os/optee-os/lib/libutee/tee_api.c:434
    1a3a:	f10d 0818 	add.w	r8, sp, #24
/home/dangcaominh/STM32MP1/optee-os/optee-os/lib/libutee/tee_api.c:428
    1a3e:	e9dd 7628 	ldrd	r7, r6, [sp, #160]	@ 0xa0
/home/dangcaominh/STM32MP1/optee-os/optee-os/lib/libutee/tee_api.c:431
    1a42:	f00b f8b3 	bl	cbac <memset>
/home/dangcaominh/STM32MP1/optee-os/optee-os/lib/libutee/tee_api.c:434
    1a46:	efc0 0010 	vmov.i32	d16, #0	@ 0x00000000
/home/dangcaominh/STM32MP1/optee-os/optee-os/lib/libutee/tee_api.c:432
    1a4a:	2300      	movs	r3, #0
/home/dangcaominh/STM32MP1/optee-os/optee-os/lib/libutee/tee_api.c:433
    1a4c:	e9cd 3304 	strd	r3, r3, [sp, #16]
/home/dangcaominh/STM32MP1/optee-os/optee-os/lib/libutee/tee_api.c:434
    1a50:	edcd 0b06 	vstr	d16, [sp, #24]
    1a54:	edc8 0b02 	vstr	d16, [r8, #8]
/home/dangcaominh/STM32MP1/optee-os/optee-os/lib/libutee/tee_api.c:436
    1a58:	b13c      	cbz	r4, 1a6a <TEE_InvokeTACommand+0x5a>
/home/dangcaominh/STM32MP1/optee-os/optee-os/lib/libutee/tee_api.c:437
    1a5a:	2120      	movs	r1, #32
    1a5c:	4638      	mov	r0, r7
    1a5e:	f004 f948 	bl	5cf2 <__utee_check_inout_annotation>
/home/dangcaominh/STM32MP1/optee-os/optee-os/lib/libutee/tee_api.c:440
    1a62:	4639      	mov	r1, r7
    1a64:	4620      	mov	r0, r4
    1a66:	f7ff fd3d 	bl	14e4 <check_invoke_param>
/home/dangcaominh/STM32MP1/optee-os/optee-os/lib/libutee/tee_api.c:442
    1a6a:	b11e      	cbz	r6, 1a74 <TEE_InvokeTACommand+0x64>
/home/dangcaominh/STM32MP1/optee-os/optee-os/lib/libutee/tee_api.c:443
    1a6c:	2104      	movs	r1, #4
    1a6e:	4630      	mov	r0, r6
    1a70:	f004 f927 	bl	5cc2 <__utee_check_out_annotation>
/home/dangcaominh/STM32MP1/optee-os/optee-os/lib/libutee/tee_api.c:446
    1a74:	4621      	mov	r1, r4
    1a76:	463a      	mov	r2, r7
    1a78:	4628      	mov	r0, r5
    1a7a:	f7ff fc95 	bl	13a8 <copy_param>
/home/dangcaominh/STM32MP1/optee-os/optee-os/lib/libutee/tee_api.c:447
    1a7e:	4643      	mov	r3, r8
    1a80:	aa05      	add	r2, sp, #20
    1a82:	a904      	add	r1, sp, #16
    1a84:	4628      	mov	r0, r5
    1a86:	f7ff fe65 	bl	1754 <map_tmp_param>
/home/dangcaominh/STM32MP1/optee-os/optee-os/lib/libutee/tee_api.c:448
    1a8a:	4604      	mov	r4, r0
    1a8c:	b9a8      	cbnz	r0, 1aba <TEE_InvokeTACommand+0xaa>
/home/dangcaominh/STM32MP1/optee-os/optee-os/lib/libutee/tee_api.c:450
    1a8e:	ab03      	add	r3, sp, #12
    1a90:	465a      	mov	r2, fp
    1a92:	9300      	str	r3, [sp, #0]
    1a94:	4651      	mov	r1, sl
    1a96:	462b      	mov	r3, r5
    1a98:	4648      	mov	r0, r9
    1a9a:	f005 ea76 	blx	6f88 <_utee_invoke_ta_command>
    1a9e:	4604      	mov	r4, r0
/home/dangcaominh/STM32MP1/optee-os/optee-os/lib/libutee/tee_api.c:453
    1aa0:	462a      	mov	r2, r5
    1aa2:	4638      	mov	r0, r7
    1aa4:	4641      	mov	r1, r8
    1aa6:	f7ff fd4b 	bl	1540 <update_out_param>
/home/dangcaominh/STM32MP1/optee-os/optee-os/lib/libutee/tee_api.c:454
    1aaa:	9804      	ldr	r0, [sp, #16]
    1aac:	b128      	cbz	r0, 1aba <TEE_InvokeTACommand+0xaa>
/home/dangcaominh/STM32MP1/optee-os/optee-os/lib/libutee/tee_api.c:455
    1aae:	9905      	ldr	r1, [sp, #20]
    1ab0:	f004 feba 	bl	6828 <tee_unmap>
/home/dangcaominh/STM32MP1/optee-os/optee-os/lib/libutee/tee_api.c:457
    1ab4:	b108      	cbz	r0, 1aba <TEE_InvokeTACommand+0xaa>
/home/dangcaominh/STM32MP1/optee-os/optee-os/lib/libutee/tee_api.c:458
    1ab6:	f004 f8d7 	bl	5c68 <TEE_Panic>
/home/dangcaominh/STM32MP1/optee-os/optee-os/lib/libutee/tee_api.c:463
    1aba:	9b03      	ldr	r3, [sp, #12]
/home/dangcaominh/STM32MP1/optee-os/optee-os/lib/libutee/tee_api.c:462
    1abc:	b106      	cbz	r6, 1ac0 <TEE_InvokeTACommand+0xb0>
/home/dangcaominh/STM32MP1/optee-os/optee-os/lib/libutee/tee_api.c:463
    1abe:	6033      	str	r3, [r6, #0]
/home/dangcaominh/STM32MP1/optee-os/optee-os/lib/libutee/tee_api.c:465
    1ac0:	2b04      	cmp	r3, #4
    1ac2:	d009      	beq.n	1ad8 <TEE_InvokeTACommand+0xc8>
/home/dangcaominh/STM32MP1/optee-os/optee-os/lib/libutee/tee_api.c:468
    1ac4:	b144      	cbz	r4, 1ad8 <TEE_InvokeTACommand+0xc8>
/home/dangcaominh/STM32MP1/optee-os/optee-os/lib/libutee/tee_api.c:468 (discriminator 1)
    1ac6:	4b0c      	ldr	r3, [pc, #48]	@ (1af8 <TEE_InvokeTACommand+0xe8>)
    1ac8:	429c      	cmp	r4, r3
    1aca:	d005      	beq.n	1ad8 <TEE_InvokeTACommand+0xc8>
/home/dangcaominh/STM32MP1/optee-os/optee-os/lib/libutee/tee_api.c:469
    1acc:	4b0b      	ldr	r3, [pc, #44]	@ (1afc <TEE_InvokeTACommand+0xec>)
    1ace:	429c      	cmp	r4, r3
    1ad0:	d002      	beq.n	1ad8 <TEE_InvokeTACommand+0xc8>
/home/dangcaominh/STM32MP1/optee-os/optee-os/lib/libutee/tee_api.c:471
    1ad2:	4620      	mov	r0, r4
    1ad4:	f004 f8c8 	bl	5c68 <TEE_Panic>
/home/dangcaominh/STM32MP1/optee-os/optee-os/lib/libutee/tee_api.c:428
    1ad8:	4a0b      	ldr	r2, [pc, #44]	@ (1b08 <TEE_InvokeTACommand+0xf8>)
/home/dangcaominh/STM32MP1/optee-os/optee-os/lib/libutee/tee_api.c:474
    1ada:	4b0a      	ldr	r3, [pc, #40]	@ (1b04 <TEE_InvokeTACommand+0xf4>)
/home/dangcaominh/STM32MP1/optee-os/optee-os/lib/libutee/tee_api.c:428
    1adc:	447a      	add	r2, pc
/home/dangcaominh/STM32MP1/optee-os/optee-os/lib/libutee/tee_api.c:474
    1ade:	58d3      	ldr	r3, [r2, r3]
    1ae0:	681a      	ldr	r2, [r3, #0]
    1ae2:	9b1d      	ldr	r3, [sp, #116]	@ 0x74
    1ae4:	405a      	eors	r2, r3
    1ae6:	f04f 0300 	mov.w	r3, #0
    1aea:	d001      	beq.n	1af0 <TEE_InvokeTACommand+0xe0>
    1aec:	f7fe fd22 	bl	534 <__stack_chk_fail>
    1af0:	4620      	mov	r0, r4
    1af2:	b01f      	add	sp, #124	@ 0x7c
    1af4:	e8bd 8ff0 	ldmia.w	sp!, {r4, r5, r6, r7, r8, r9, sl, fp, pc}
    1af8:	ffff000c 	.word	0xffff000c
    1afc:	ffff3024 	.word	0xffff3024
    1b00:	0000c666 	.word	0x0000c666
    1b04:	0000000c 	.word	0x0000000c
    1b08:	0000c5a8 	.word	0x0000c5a8

00001b0c <__GP11_TEE_InvokeTACommand>:
__GP11_TEE_InvokeTACommand():
/home/dangcaominh/STM32MP1/optee-os/optee-os/lib/libutee/tee_api.c:481
    1b0c:	e92d 4ff0 	stmdb	sp!, {r4, r5, r6, r7, r8, r9, sl, fp, lr}
    1b10:	4693      	mov	fp, r2
    1b12:	4a37      	ldr	r2, [pc, #220]	@ (1bf0 <__GP11_TEE_InvokeTACommand+0xe4>)
    1b14:	461c      	mov	r4, r3
    1b16:	4b37      	ldr	r3, [pc, #220]	@ (1bf4 <__GP11_TEE_InvokeTACommand+0xe8>)
    1b18:	b09f      	sub	sp, #124	@ 0x7c
    1b1a:	447a      	add	r2, pc
/home/dangcaominh/STM32MP1/optee-os/optee-os/lib/libutee/tee_api.c:484
    1b1c:	ad0a      	add	r5, sp, #40	@ 0x28
/home/dangcaominh/STM32MP1/optee-os/optee-os/lib/libutee/tee_api.c:481
    1b1e:	4681      	mov	r9, r0
    1b20:	468a      	mov	sl, r1
    1b22:	58d3      	ldr	r3, [r2, r3]
/home/dangcaominh/STM32MP1/optee-os/optee-os/lib/libutee/tee_api.c:484
    1b24:	2100      	movs	r1, #0
    1b26:	4628      	mov	r0, r5
    1b28:	2248      	movs	r2, #72	@ 0x48
/home/dangcaominh/STM32MP1/optee-os/optee-os/lib/libutee/tee_api.c:481
    1b2a:	681b      	ldr	r3, [r3, #0]
    1b2c:	931d      	str	r3, [sp, #116]	@ 0x74
    1b2e:	f04f 0300 	mov.w	r3, #0
/home/dangcaominh/STM32MP1/optee-os/optee-os/lib/libutee/tee_api.c:483
    1b32:	2303      	movs	r3, #3
/home/dangcaominh/STM32MP1/optee-os/optee-os/lib/libutee/tee_api.c:481
    1b34:	e9dd 7628 	ldrd	r7, r6, [sp, #160]	@ 0xa0
/home/dangcaominh/STM32MP1/optee-os/optee-os/lib/libutee/tee_api.c:483
    1b38:	9303      	str	r3, [sp, #12]
/home/dangcaominh/STM32MP1/optee-os/optee-os/lib/libutee/tee_api.c:484
    1b3a:	f00b f837 	bl	cbac <memset>
/home/dangcaominh/STM32MP1/optee-os/optee-os/lib/libutee/tee_api.c:487
    1b3e:	efc0 0010 	vmov.i32	d16, #0	@ 0x00000000
    1b42:	f10d 0818 	add.w	r8, sp, #24
    1b46:	edcd 0b06 	vstr	d16, [sp, #24]
    1b4a:	edc8 0b02 	vstr	d16, [r8, #8]
/home/dangcaominh/STM32MP1/optee-os/optee-os/lib/libutee/tee_api.c:489
    1b4e:	b11c      	cbz	r4, 1b58 <__GP11_TEE_InvokeTACommand+0x4c>
/home/dangcaominh/STM32MP1/optee-os/optee-os/lib/libutee/tee_api.c:490
    1b50:	2120      	movs	r1, #32
    1b52:	4638      	mov	r0, r7
    1b54:	f004 f8cd 	bl	5cf2 <__utee_check_inout_annotation>
/home/dangcaominh/STM32MP1/optee-os/optee-os/lib/libutee/tee_api.c:493
    1b58:	b11e      	cbz	r6, 1b62 <__GP11_TEE_InvokeTACommand+0x56>
/home/dangcaominh/STM32MP1/optee-os/optee-os/lib/libutee/tee_api.c:494
    1b5a:	2104      	movs	r1, #4
    1b5c:	4630      	mov	r0, r6
    1b5e:	f004 f8b0 	bl	5cc2 <__utee_check_out_annotation>
/home/dangcaominh/STM32MP1/optee-os/optee-os/lib/libutee/tee_api.c:497
    1b62:	4621      	mov	r1, r4
    1b64:	463a      	mov	r2, r7
    1b66:	4628      	mov	r0, r5
    1b68:	f7ff fc47 	bl	13fa <copy_gp11_param>
/home/dangcaominh/STM32MP1/optee-os/optee-os/lib/libutee/tee_api.c:498
    1b6c:	4643      	mov	r3, r8
    1b6e:	aa05      	add	r2, sp, #20
    1b70:	a904      	add	r1, sp, #16
    1b72:	4628      	mov	r0, r5
    1b74:	f7ff fdee 	bl	1754 <map_tmp_param>
/home/dangcaominh/STM32MP1/optee-os/optee-os/lib/libutee/tee_api.c:499
    1b78:	4604      	mov	r4, r0
    1b7a:	b9a8      	cbnz	r0, 1ba8 <__GP11_TEE_InvokeTACommand+0x9c>
/home/dangcaominh/STM32MP1/optee-os/optee-os/lib/libutee/tee_api.c:501
    1b7c:	ab03      	add	r3, sp, #12
    1b7e:	465a      	mov	r2, fp
    1b80:	9300      	str	r3, [sp, #0]
    1b82:	4651      	mov	r1, sl
    1b84:	462b      	mov	r3, r5
    1b86:	4648      	mov	r0, r9
    1b88:	f005 e9fe 	blx	6f88 <_utee_invoke_ta_command>
    1b8c:	4604      	mov	r4, r0
/home/dangcaominh/STM32MP1/optee-os/optee-os/lib/libutee/tee_api.c:504
    1b8e:	462a      	mov	r2, r5
    1b90:	4638      	mov	r0, r7
    1b92:	4641      	mov	r1, r8
    1b94:	f7ff fd06 	bl	15a4 <update_out_gp11_param>
/home/dangcaominh/STM32MP1/optee-os/optee-os/lib/libutee/tee_api.c:505
    1b98:	9804      	ldr	r0, [sp, #16]
    1b9a:	b128      	cbz	r0, 1ba8 <__GP11_TEE_InvokeTACommand+0x9c>
/home/dangcaominh/STM32MP1/optee-os/optee-os/lib/libutee/tee_api.c:506
    1b9c:	9905      	ldr	r1, [sp, #20]
    1b9e:	f004 fe43 	bl	6828 <tee_unmap>
/home/dangcaominh/STM32MP1/optee-os/optee-os/lib/libutee/tee_api.c:508
    1ba2:	b108      	cbz	r0, 1ba8 <__GP11_TEE_InvokeTACommand+0x9c>
/home/dangcaominh/STM32MP1/optee-os/optee-os/lib/libutee/tee_api.c:509
    1ba4:	f004 f860 	bl	5c68 <TEE_Panic>
/home/dangcaominh/STM32MP1/optee-os/optee-os/lib/libutee/tee_api.c:514
    1ba8:	9b03      	ldr	r3, [sp, #12]
/home/dangcaominh/STM32MP1/optee-os/optee-os/lib/libutee/tee_api.c:513
    1baa:	b106      	cbz	r6, 1bae <__GP11_TEE_InvokeTACommand+0xa2>
/home/dangcaominh/STM32MP1/optee-os/optee-os/lib/libutee/tee_api.c:514
    1bac:	6033      	str	r3, [r6, #0]
/home/dangcaominh/STM32MP1/optee-os/optee-os/lib/libutee/tee_api.c:516
    1bae:	2b04      	cmp	r3, #4
    1bb0:	d009      	beq.n	1bc6 <__GP11_TEE_InvokeTACommand+0xba>
/home/dangcaominh/STM32MP1/optee-os/optee-os/lib/libutee/tee_api.c:519
    1bb2:	b144      	cbz	r4, 1bc6 <__GP11_TEE_InvokeTACommand+0xba>
/home/dangcaominh/STM32MP1/optee-os/optee-os/lib/libutee/tee_api.c:519 (discriminator 1)
    1bb4:	4b0c      	ldr	r3, [pc, #48]	@ (1be8 <__GP11_TEE_InvokeTACommand+0xdc>)
    1bb6:	429c      	cmp	r4, r3
    1bb8:	d005      	beq.n	1bc6 <__GP11_TEE_InvokeTACommand+0xba>
/home/dangcaominh/STM32MP1/optee-os/optee-os/lib/libutee/tee_api.c:520
    1bba:	4b0c      	ldr	r3, [pc, #48]	@ (1bec <__GP11_TEE_InvokeTACommand+0xe0>)
    1bbc:	429c      	cmp	r4, r3
    1bbe:	d002      	beq.n	1bc6 <__GP11_TEE_InvokeTACommand+0xba>
/home/dangcaominh/STM32MP1/optee-os/optee-os/lib/libutee/tee_api.c:522
    1bc0:	4620      	mov	r0, r4
    1bc2:	f004 f851 	bl	5c68 <TEE_Panic>
/home/dangcaominh/STM32MP1/optee-os/optee-os/lib/libutee/tee_api.c:481
    1bc6:	4a0c      	ldr	r2, [pc, #48]	@ (1bf8 <__GP11_TEE_InvokeTACommand+0xec>)
/home/dangcaominh/STM32MP1/optee-os/optee-os/lib/libutee/tee_api.c:525
    1bc8:	4b0a      	ldr	r3, [pc, #40]	@ (1bf4 <__GP11_TEE_InvokeTACommand+0xe8>)
/home/dangcaominh/STM32MP1/optee-os/optee-os/lib/libutee/tee_api.c:481
    1bca:	447a      	add	r2, pc
/home/dangcaominh/STM32MP1/optee-os/optee-os/lib/libutee/tee_api.c:525
    1bcc:	58d3      	ldr	r3, [r2, r3]
    1bce:	681a      	ldr	r2, [r3, #0]
    1bd0:	9b1d      	ldr	r3, [sp, #116]	@ 0x74
    1bd2:	405a      	eors	r2, r3
    1bd4:	f04f 0300 	mov.w	r3, #0
    1bd8:	d001      	beq.n	1bde <__GP11_TEE_InvokeTACommand+0xd2>
    1bda:	f7fe fcab 	bl	534 <__stack_chk_fail>
    1bde:	4620      	mov	r0, r4
    1be0:	b01f      	add	sp, #124	@ 0x7c
    1be2:	e8bd 8ff0 	ldmia.w	sp!, {r4, r5, r6, r7, r8, r9, sl, fp, pc}
    1be6:	bf00      	nop
    1be8:	ffff000c 	.word	0xffff000c
    1bec:	ffff3024 	.word	0xffff3024
    1bf0:	0000c56a 	.word	0x0000c56a
    1bf4:	0000000c 	.word	0x0000000c
    1bf8:	0000c4ba 	.word	0x0000c4ba

00001bfc <__GP11_TEE_CheckMemoryAccessRights>:
__GP11_TEE_CheckMemoryAccessRights():
/home/dangcaominh/STM32MP1/optee-os/optee-os/lib/libutee/tee_api.c:597
    1bfc:	f7ff bd86 	b.w	170c <TEE_CheckMemoryAccessRights>

00001c00 <TEE_SetInstanceData>:
TEE_SetInstanceData():
/home/dangcaominh/STM32MP1/optee-os/optee-os/lib/libutee/tee_api.c:602
    1c00:	4b01      	ldr	r3, [pc, #4]	@ (1c08 <TEE_SetInstanceData+0x8>)
    1c02:	447b      	add	r3, pc
    1c04:	6018      	str	r0, [r3, #0]
/home/dangcaominh/STM32MP1/optee-os/optee-os/lib/libutee/tee_api.c:603
    1c06:	4770      	bx	lr
    1c08:	0000c7ca 	.word	0x0000c7ca

00001c0c <TEE_GetInstanceData>:
TEE_GetInstanceData():
/home/dangcaominh/STM32MP1/optee-os/optee-os/lib/libutee/tee_api.c:608
    1c0c:	4b01      	ldr	r3, [pc, #4]	@ (1c14 <TEE_GetInstanceData+0x8>)
    1c0e:	447b      	add	r3, pc
    1c10:	6818      	ldr	r0, [r3, #0]
    1c12:	4770      	bx	lr
    1c14:	0000c7be 	.word	0x0000c7be

00001c18 <TEE_MemMove>:
TEE_MemMove():
/home/dangcaominh/STM32MP1/optee-os/optee-os/lib/libutee/tee_api.c:612
    1c18:	f00a bfea 	b.w	cbf0 <memmove>

00001c1c <__GP11_TEE_MemMove>:
__GP11_TEE_MemMove():
/home/dangcaominh/STM32MP1/optee-os/optee-os/lib/libutee/tee_api.c:617
    1c1c:	f7ff bffc 	b.w	1c18 <TEE_MemMove>

00001c20 <TEE_MemCompare>:
TEE_MemCompare():
/home/dangcaominh/STM32MP1/optee-os/optee-os/lib/libutee/tee_api.c:622
    1c20:	f00b b820 	b.w	cc64 <consttime_memcmp>

00001c24 <__GP11_TEE_MemCompare>:
__GP11_TEE_MemCompare():
/home/dangcaominh/STM32MP1/optee-os/optee-os/lib/libutee/tee_api.c:628
    1c24:	f7ff bffc 	b.w	1c20 <TEE_MemCompare>

00001c28 <TEE_MemFill>:
TEE_MemFill():
/home/dangcaominh/STM32MP1/optee-os/optee-os/lib/libutee/tee_api.c:633
    1c28:	f00a bfc0 	b.w	cbac <memset>

00001c2c <__GP11_TEE_MemFill>:
__GP11_TEE_MemFill():
/home/dangcaominh/STM32MP1/optee-os/optee-os/lib/libutee/tee_api.c:638
    1c2c:	f7ff bffc 	b.w	1c28 <TEE_MemFill>

00001c30 <TEE_GetSystemTime>:
TEE_GetSystemTime():
/home/dangcaominh/STM32MP1/optee-os/optee-os/lib/libutee/tee_api.c:644
    1c30:	4601      	mov	r1, r0
/home/dangcaominh/STM32MP1/optee-os/optee-os/lib/libutee/tee_api.c:645
    1c32:	2000      	movs	r0, #0
/home/dangcaominh/STM32MP1/optee-os/optee-os/lib/libutee/tee_api.c:644
    1c34:	b508      	push	{r3, lr}
/home/dangcaominh/STM32MP1/optee-os/optee-os/lib/libutee/tee_api.c:645
    1c36:	f005 e9e6 	blx	7004 <_utee_get_time>
/home/dangcaominh/STM32MP1/optee-os/optee-os/lib/libutee/tee_api.c:647
    1c3a:	b118      	cbz	r0, 1c44 <TEE_GetSystemTime+0x14>
/home/dangcaominh/STM32MP1/optee-os/optee-os/lib/libutee/tee_api.c:649
    1c3c:	e8bd 4008 	ldmia.w	sp!, {r3, lr}
/home/dangcaominh/STM32MP1/optee-os/optee-os/lib/libutee/tee_api.c:648
    1c40:	f004 b812 	b.w	5c68 <TEE_Panic>
/home/dangcaominh/STM32MP1/optee-os/optee-os/lib/libutee/tee_api.c:649
    1c44:	bd08      	pop	{r3, pc}

00001c46 <TEE_Wait>:
TEE_Wait():
/home/dangcaominh/STM32MP1/optee-os/optee-os/lib/libutee/tee_api.c:652
    1c46:	b510      	push	{r4, lr}
/home/dangcaominh/STM32MP1/optee-os/optee-os/lib/libutee/tee_api.c:653
    1c48:	f005 e9d2 	blx	6ff0 <_utee_wait>
/home/dangcaominh/STM32MP1/optee-os/optee-os/lib/libutee/tee_api.c:655
    1c4c:	4604      	mov	r4, r0
    1c4e:	b120      	cbz	r0, 1c5a <TEE_Wait+0x14>
/home/dangcaominh/STM32MP1/optee-os/optee-os/lib/libutee/tee_api.c:655 (discriminator 1)
    1c50:	4b03      	ldr	r3, [pc, #12]	@ (1c60 <TEE_Wait+0x1a>)
    1c52:	4298      	cmp	r0, r3
    1c54:	d001      	beq.n	1c5a <TEE_Wait+0x14>
/home/dangcaominh/STM32MP1/optee-os/optee-os/lib/libutee/tee_api.c:656
    1c56:	f004 f807 	bl	5c68 <TEE_Panic>
/home/dangcaominh/STM32MP1/optee-os/optee-os/lib/libutee/tee_api.c:659
    1c5a:	4620      	mov	r0, r4
    1c5c:	bd10      	pop	{r4, pc}
    1c5e:	bf00      	nop
    1c60:	ffff0002 	.word	0xffff0002

00001c64 <TEE_GetTAPersistentTime>:
TEE_GetTAPersistentTime():
/home/dangcaominh/STM32MP1/optee-os/optee-os/lib/libutee/tee_api.c:662
    1c64:	b538      	push	{r3, r4, r5, lr}
/home/dangcaominh/STM32MP1/optee-os/optee-os/lib/libutee/tee_api.c:665
    1c66:	4601      	mov	r1, r0
/home/dangcaominh/STM32MP1/optee-os/optee-os/lib/libutee/tee_api.c:662
    1c68:	4605      	mov	r5, r0
/home/dangcaominh/STM32MP1/optee-os/optee-os/lib/libutee/tee_api.c:665
    1c6a:	2001      	movs	r0, #1
    1c6c:	f005 e9ca 	blx	7004 <_utee_get_time>
    1c70:	4604      	mov	r4, r0
/home/dangcaominh/STM32MP1/optee-os/optee-os/lib/libutee/tee_api.c:667
    1c72:	b170      	cbz	r0, 1c92 <TEE_GetTAPersistentTime+0x2e>
/home/dangcaominh/STM32MP1/optee-os/optee-os/lib/libutee/tee_api.c:667 (discriminator 1)
    1c74:	4b08      	ldr	r3, [pc, #32]	@ (1c98 <TEE_GetTAPersistentTime+0x34>)
    1c76:	4298      	cmp	r0, r3
    1c78:	d00b      	beq.n	1c92 <TEE_GetTAPersistentTime+0x2e>
/home/dangcaominh/STM32MP1/optee-os/optee-os/lib/libutee/tee_api.c:668
    1c7a:	2300      	movs	r3, #0
    1c7c:	602b      	str	r3, [r5, #0]
/home/dangcaominh/STM32MP1/optee-os/optee-os/lib/libutee/tee_api.c:669
    1c7e:	606b      	str	r3, [r5, #4]
/home/dangcaominh/STM32MP1/optee-os/optee-os/lib/libutee/tee_api.c:672 (discriminator 1)
    1c80:	f500 4330 	add.w	r3, r0, #45056	@ 0xb000
    1c84:	2b01      	cmp	r3, #1
    1c86:	d904      	bls.n	1c92 <TEE_GetTAPersistentTime+0x2e>
/home/dangcaominh/STM32MP1/optee-os/optee-os/lib/libutee/tee_api.c:675
    1c88:	4b04      	ldr	r3, [pc, #16]	@ (1c9c <TEE_GetTAPersistentTime+0x38>)
    1c8a:	4298      	cmp	r0, r3
    1c8c:	d001      	beq.n	1c92 <TEE_GetTAPersistentTime+0x2e>
/home/dangcaominh/STM32MP1/optee-os/optee-os/lib/libutee/tee_api.c:677
    1c8e:	f003 ffeb 	bl	5c68 <TEE_Panic>
/home/dangcaominh/STM32MP1/optee-os/optee-os/lib/libutee/tee_api.c:680
    1c92:	4620      	mov	r0, r4
    1c94:	bd38      	pop	{r3, r4, r5, pc}
    1c96:	bf00      	nop
    1c98:	ffff300f 	.word	0xffff300f
    1c9c:	ffff000c 	.word	0xffff000c

00001ca0 <TEE_SetTAPersistentTime>:
TEE_SetTAPersistentTime():
/home/dangcaominh/STM32MP1/optee-os/optee-os/lib/libutee/tee_api.c:683
    1ca0:	b510      	push	{r4, lr}
/home/dangcaominh/STM32MP1/optee-os/optee-os/lib/libutee/tee_api.c:686
    1ca2:	f005 e9ba 	blx	7018 <_utee_set_ta_time>
/home/dangcaominh/STM32MP1/optee-os/optee-os/lib/libutee/tee_api.c:688
    1ca6:	4604      	mov	r4, r0
    1ca8:	b138      	cbz	r0, 1cba <TEE_SetTAPersistentTime+0x1a>
/home/dangcaominh/STM32MP1/optee-os/optee-os/lib/libutee/tee_api.c:688 (discriminator 1)
    1caa:	4b05      	ldr	r3, [pc, #20]	@ (1cc0 <TEE_SetTAPersistentTime+0x20>)
    1cac:	4298      	cmp	r0, r3
    1cae:	d004      	beq.n	1cba <TEE_SetTAPersistentTime+0x1a>
