Archive member included to satisfy reference by file (symbol)

/home/dangcaominh/STM32MP1/atf/stm32mp1_atf/../build/opteemin-nand-stm32mp157d-ev1/lib/libfdt.a(fdt.o)
                              /home/dangcaominh/STM32MP1/atf/stm32mp1_atf/../build/opteemin-nand-stm32mp157d-ev1/bl2/fconf.o (fdt_check_header)
/home/dangcaominh/STM32MP1/atf/stm32mp1_atf/../build/opteemin-nand-stm32mp157d-ev1/lib/libfdt.a(fdt_addresses.o)
                              /home/dangcaominh/STM32MP1/atf/stm32mp1_atf/../build/opteemin-nand-stm32mp157d-ev1/bl2/fdt_wrappers.o (fdt_address_cells)
/home/dangcaominh/STM32MP1/atf/stm32mp1_atf/../build/opteemin-nand-stm32mp157d-ev1/lib/libfdt.a(fdt_ro.o)
                              /home/dangcaominh/STM32MP1/atf/stm32mp1_atf/../build/opteemin-nand-stm32mp157d-ev1/bl2/fdt_wrappers.o (fdt_get_name)
/home/dangcaominh/STM32MP1/atf/stm32mp1_atf/../build/opteemin-nand-stm32mp157d-ev1/lib/libfdt.a(fdt_rw.o)
                              /home/dangcaominh/STM32MP1/atf/stm32mp1_atf/../build/opteemin-nand-stm32mp157d-ev1/lib/libfdt.a(fdt_addresses.o) (fdt_appendprop)
/home/dangcaominh/STM32MP1/atf/stm32mp1_atf/../build/opteemin-nand-stm32mp157d-ev1/lib/libfdt.a(fdt_strerror.o)
                              /home/dangcaominh/STM32MP1/atf/stm32mp1_atf/../build/opteemin-nand-stm32mp157d-ev1/bl2/fdt_wrappers.o (fdt_strerror)
/home/dangcaominh/STM32MP1/atf/stm32mp1_atf/../build/opteemin-nand-stm32mp157d-ev1/lib/libfdt.a(fdt_wip.o)
                              /home/dangcaominh/STM32MP1/atf/stm32mp1_atf/../build/opteemin-nand-stm32mp157d-ev1/bl2/fdt_wrappers.o (fdt_setprop_inplace_namelen_partial)
/home/dangcaominh/STM32MP1/atf/stm32mp1_atf/../build/opteemin-nand-stm32mp157d-ev1/lib/libc.a(assert.o)
                              /home/dangcaominh/STM32MP1/atf/stm32mp1_atf/../build/opteemin-nand-stm32mp157d-ev1/bl2/bl2_image_load_v2.o (__assert)
/home/dangcaominh/STM32MP1/atf/stm32mp1_atf/../build/opteemin-nand-stm32mp157d-ev1/lib/libc.a(memchr.o)
                              /home/dangcaominh/STM32MP1/atf/stm32mp1_atf/../build/opteemin-nand-stm32mp157d-ev1/lib/libfdt.a(fdt_ro.o) (memchr)
/home/dangcaominh/STM32MP1/atf/stm32mp1_atf/../build/opteemin-nand-stm32mp157d-ev1/lib/libc.a(memcmp.o)
                              /home/dangcaominh/STM32MP1/atf/stm32mp1_atf/../build/opteemin-nand-stm32mp157d-ev1/bl2/uuid.o (memcmp)
/home/dangcaominh/STM32MP1/atf/stm32mp1_atf/../build/opteemin-nand-stm32mp157d-ev1/lib/libc.a(memcpy.o)
                              /home/dangcaominh/STM32MP1/atf/stm32mp1_atf/../build/opteemin-nand-stm32mp157d-ev1/bl2/fdt_wrappers.o (memcpy)
/home/dangcaominh/STM32MP1/atf/stm32mp1_atf/../build/opteemin-nand-stm32mp157d-ev1/lib/libc.a(memmove.o)
                              /home/dangcaominh/STM32MP1/atf/stm32mp1_atf/../build/opteemin-nand-stm32mp157d-ev1/bl2/xlat_tables_core.o (memmove)
/home/dangcaominh/STM32MP1/atf/stm32mp1_atf/../build/opteemin-nand-stm32mp157d-ev1/lib/libc.a(memset.o)
                              /home/dangcaominh/STM32MP1/atf/stm32mp1_atf/../build/opteemin-nand-stm32mp157d-ev1/bl2/uuid.o (memset)
/home/dangcaominh/STM32MP1/atf/stm32mp1_atf/../build/opteemin-nand-stm32mp157d-ev1/lib/libc.a(printf.o)
                              /home/dangcaominh/STM32MP1/atf/stm32mp1_atf/../build/opteemin-nand-stm32mp157d-ev1/bl2/tf_log.o (vprintf)
/home/dangcaominh/STM32MP1/atf/stm32mp1_atf/../build/opteemin-nand-stm32mp157d-ev1/lib/libc.a(snprintf.o)
                              /home/dangcaominh/STM32MP1/atf/stm32mp1_atf/../build/opteemin-nand-stm32mp157d-ev1/bl2/stm32mp1_clk.o (snprintf)
/home/dangcaominh/STM32MP1/atf/stm32mp1_atf/../build/opteemin-nand-stm32mp157d-ev1/lib/libc.a(strchr.o)
                              /home/dangcaominh/STM32MP1/atf/stm32mp1_atf/../build/opteemin-nand-stm32mp157d-ev1/bl2/fdt_wrappers.o (strchr)
/home/dangcaominh/STM32MP1/atf/stm32mp1_atf/../build/opteemin-nand-stm32mp157d-ev1/lib/libc.a(strcmp.o)
                              /home/dangcaominh/STM32MP1/atf/stm32mp1_atf/../build/opteemin-nand-stm32mp157d-ev1/bl2/stm32mp_pmic.o (strcmp)
/home/dangcaominh/STM32MP1/atf/stm32mp1_atf/../build/opteemin-nand-stm32mp157d-ev1/lib/libc.a(strlcpy.o)
                              /home/dangcaominh/STM32MP1/atf/stm32mp1_atf/../build/opteemin-nand-stm32mp157d-ev1/bl2/fdt_wrappers.o (strlcpy)
/home/dangcaominh/STM32MP1/atf/stm32mp1_atf/../build/opteemin-nand-stm32mp157d-ev1/lib/libc.a(strlen.o)
                              /home/dangcaominh/STM32MP1/atf/stm32mp1_atf/../build/opteemin-nand-stm32mp157d-ev1/bl2/fdt_wrappers.o (strlen)
/home/dangcaominh/STM32MP1/atf/stm32mp1_atf/../build/opteemin-nand-stm32mp157d-ev1/lib/libc.a(strncmp.o)
                              /home/dangcaominh/STM32MP1/atf/stm32mp1_atf/../build/opteemin-nand-stm32mp157d-ev1/bl2/fdt_wrappers.o (strncmp)
/home/dangcaominh/STM32MP1/atf/stm32mp1_atf/../build/opteemin-nand-stm32mp157d-ev1/lib/libc.a(strnlen.o)
                              /home/dangcaominh/STM32MP1/atf/stm32mp1_atf/../build/opteemin-nand-stm32mp157d-ev1/bl2/uuid.o (strnlen)
/home/dangcaominh/STM32MP1/atf/stm32mp1_atf/../build/opteemin-nand-stm32mp157d-ev1/lib/libc.a(strrchr.o)
                              /home/dangcaominh/STM32MP1/atf/stm32mp1_atf/../build/opteemin-nand-stm32mp157d-ev1/lib/libfdt.a(fdt_ro.o) (strrchr)

Discarded input sections

 .text          0x00000000        0x0 /home/dangcaominh/STM32MP1/atf/stm32mp1_atf/../build/opteemin-nand-stm32mp157d-ev1/bl2/build_message.o
 .data          0x00000000        0x0 /home/dangcaominh/STM32MP1/atf/stm32mp1_atf/../build/opteemin-nand-stm32mp157d-ev1/bl2/build_message.o
 .bss           0x00000000        0x0 /home/dangcaominh/STM32MP1/atf/stm32mp1_atf/../build/opteemin-nand-stm32mp157d-ev1/bl2/build_message.o
 .rodata.version
                0x00000000        0x8 /home/dangcaominh/STM32MP1/atf/stm32mp1_atf/../build/opteemin-nand-stm32mp157d-ev1/bl2/build_message.o
 .text          0x00000000        0x0 /home/dangcaominh/STM32MP1/atf/stm32mp1_atf/../build/opteemin-nand-stm32mp157d-ev1/bl2/bl2_arch_setup.o
 .data          0x00000000        0x0 /home/dangcaominh/STM32MP1/atf/stm32mp1_atf/../build/opteemin-nand-stm32mp157d-ev1/bl2/bl2_arch_setup.o
 .bss           0x00000000        0x0 /home/dangcaominh/STM32MP1/atf/stm32mp1_atf/../build/opteemin-nand-stm32mp157d-ev1/bl2/bl2_arch_setup.o
 .text          0x00000000        0x0 /home/dangcaominh/STM32MP1/atf/stm32mp1_atf/../build/opteemin-nand-stm32mp157d-ev1/bl2/bl2_image_load_v2.o
 .data          0x00000000        0x0 /home/dangcaominh/STM32MP1/atf/stm32mp1_atf/../build/opteemin-nand-stm32mp157d-ev1/bl2/bl2_image_load_v2.o
 .bss           0x00000000        0x0 /home/dangcaominh/STM32MP1/atf/stm32mp1_atf/../build/opteemin-nand-stm32mp157d-ev1/bl2/bl2_image_load_v2.o
 .text          0x00000000        0x0 /home/dangcaominh/STM32MP1/atf/stm32mp1_atf/../build/opteemin-nand-stm32mp157d-ev1/bl2/bl2_main.o
 .data          0x00000000        0x0 /home/dangcaominh/STM32MP1/atf/stm32mp1_atf/../build/opteemin-nand-stm32mp157d-ev1/bl2/bl2_main.o
 .bss           0x00000000        0x0 /home/dangcaominh/STM32MP1/atf/stm32mp1_atf/../build/opteemin-nand-stm32mp157d-ev1/bl2/bl2_main.o
 .text          0x00000000        0x0 /home/dangcaominh/STM32MP1/atf/stm32mp1_atf/../build/opteemin-nand-stm32mp157d-ev1/bl2/bl_common.o
 .data          0x00000000        0x0 /home/dangcaominh/STM32MP1/atf/stm32mp1_atf/../build/opteemin-nand-stm32mp157d-ev1/bl2/bl_common.o
 .bss           0x00000000        0x0 /home/dangcaominh/STM32MP1/atf/stm32mp1_atf/../build/opteemin-nand-stm32mp157d-ev1/bl2/bl_common.o
 .text.page_align
                0x00000000       0x14 /home/dangcaominh/STM32MP1/atf/stm32mp1_atf/../build/opteemin-nand-stm32mp157d-ev1/bl2/bl_common.o
 .text.get_version
                0x00000000        0x8 /home/dangcaominh/STM32MP1/atf/stm32mp1_atf/../build/opteemin-nand-stm32mp157d-ev1/bl2/bl_common.o
 .text          0x00000000        0x0 /home/dangcaominh/STM32MP1/atf/stm32mp1_atf/../build/opteemin-nand-stm32mp157d-ev1/bl2/desc_image_load.o
 .data          0x00000000        0x0 /home/dangcaominh/STM32MP1/atf/stm32mp1_atf/../build/opteemin-nand-stm32mp157d-ev1/bl2/desc_image_load.o
 .bss           0x00000000        0x0 /home/dangcaominh/STM32MP1/atf/stm32mp1_atf/../build/opteemin-nand-stm32mp157d-ev1/bl2/desc_image_load.o
 .text.bl31_params_parse_helper
                0x00000000       0x98 /home/dangcaominh/STM32MP1/atf/stm32mp1_atf/../build/opteemin-nand-stm32mp157d-ev1/bl2/desc_image_load.o
 .text          0x00000000        0x0 /home/dangcaominh/STM32MP1/atf/stm32mp1_atf/../build/opteemin-nand-stm32mp157d-ev1/bl2/fdt_wrappers.o
 .data          0x00000000        0x0 /home/dangcaominh/STM32MP1/atf/stm32mp1_atf/../build/opteemin-nand-stm32mp157d-ev1/bl2/fdt_wrappers.o
 .bss           0x00000000        0x0 /home/dangcaominh/STM32MP1/atf/stm32mp1_atf/../build/opteemin-nand-stm32mp157d-ev1/bl2/fdt_wrappers.o
 .text.fdt_read_prop_cells
                0x00000000       0x1e /home/dangcaominh/STM32MP1/atf/stm32mp1_atf/../build/opteemin-nand-stm32mp157d-ev1/bl2/fdt_wrappers.o
 .text.fdt_read_uint64_default
                0x00000000       0x20 /home/dangcaominh/STM32MP1/atf/stm32mp1_atf/../build/opteemin-nand-stm32mp157d-ev1/bl2/fdt_wrappers.o
 .text.fdtw_read_bytes
                0x00000000       0x84 /home/dangcaominh/STM32MP1/atf/stm32mp1_atf/../build/opteemin-nand-stm32mp157d-ev1/bl2/fdt_wrappers.o
 .rodata.fdtw_write_inplace_cells.str1.1
                0x00000000       0x2a /home/dangcaominh/STM32MP1/atf/stm32mp1_atf/../build/opteemin-nand-stm32mp157d-ev1/bl2/fdt_wrappers.o
 .text.fdtw_write_inplace_cells
                0x00000000       0x70 /home/dangcaominh/STM32MP1/atf/stm32mp1_atf/../build/opteemin-nand-stm32mp157d-ev1/bl2/fdt_wrappers.o
 .rodata.fdtw_write_inplace_bytes.str1.1
                0x00000000       0x27 /home/dangcaominh/STM32MP1/atf/stm32mp1_atf/../build/opteemin-nand-stm32mp157d-ev1/bl2/fdt_wrappers.o
 .text.fdtw_write_inplace_bytes
                0x00000000       0xac /home/dangcaominh/STM32MP1/atf/stm32mp1_atf/../build/opteemin-nand-stm32mp157d-ev1/bl2/fdt_wrappers.o
 .rodata.fdt_get_reg_props_by_index.str1.1
                0x00000000       0x2a /home/dangcaominh/STM32MP1/atf/stm32mp1_atf/../build/opteemin-nand-stm32mp157d-ev1/bl2/fdt_wrappers.o
 .text.fdt_get_reg_props_by_index
                0x00000000       0xa0 /home/dangcaominh/STM32MP1/atf/stm32mp1_atf/../build/opteemin-nand-stm32mp157d-ev1/bl2/fdt_wrappers.o
 .rodata.fdt_get_reg_props_by_name.str1.1
                0x00000000        0xa /home/dangcaominh/STM32MP1/atf/stm32mp1_atf/../build/opteemin-nand-stm32mp157d-ev1/bl2/fdt_wrappers.o
 .text.fdt_get_reg_props_by_name
                0x00000000       0x30 /home/dangcaominh/STM32MP1/atf/stm32mp1_atf/../build/opteemin-nand-stm32mp157d-ev1/bl2/fdt_wrappers.o
 .rodata.fdtw_translate_address.str1.1
                0x00000000       0x6d /home/dangcaominh/STM32MP1/atf/stm32mp1_atf/../build/opteemin-nand-stm32mp157d-ev1/bl2/fdt_wrappers.o
 .text.fdtw_translate_address
                0x00000000      0x164 /home/dangcaominh/STM32MP1/atf/stm32mp1_atf/../build/opteemin-nand-stm32mp157d-ev1/bl2/fdt_wrappers.o
 .rodata.fdtw_for_each_cpu.str1.1
                0x00000000        0xb /home/dangcaominh/STM32MP1/atf/stm32mp1_atf/../build/opteemin-nand-stm32mp157d-ev1/bl2/fdt_wrappers.o
 .text.fdtw_for_each_cpu
                0x00000000       0x7c /home/dangcaominh/STM32MP1/atf/stm32mp1_atf/../build/opteemin-nand-stm32mp157d-ev1/bl2/fdt_wrappers.o
 .rodata.fdtw_find_or_add_subnode.str1.1
                0x00000000        0xd /home/dangcaominh/STM32MP1/atf/stm32mp1_atf/../build/opteemin-nand-stm32mp157d-ev1/bl2/fdt_wrappers.o
 .text.fdtw_find_or_add_subnode
                0x00000000       0x40 /home/dangcaominh/STM32MP1/atf/stm32mp1_atf/../build/opteemin-nand-stm32mp157d-ev1/bl2/fdt_wrappers.o
 .rodata.__func__.0
                0x00000000       0x19 /home/dangcaominh/STM32MP1/atf/stm32mp1_atf/../build/opteemin-nand-stm32mp157d-ev1/bl2/fdt_wrappers.o
 .text          0x00000000        0x0 /home/dangcaominh/STM32MP1/atf/stm32mp1_atf/../build/opteemin-nand-stm32mp157d-ev1/bl2/tf_log.o
 .data          0x00000000        0x0 /home/dangcaominh/STM32MP1/atf/stm32mp1_atf/../build/opteemin-nand-stm32mp157d-ev1/bl2/tf_log.o
 .bss           0x00000000        0x0 /home/dangcaominh/STM32MP1/atf/stm32mp1_atf/../build/opteemin-nand-stm32mp157d-ev1/bl2/tf_log.o
 .text.tf_log_newline
                0x00000000       0x3c /home/dangcaominh/STM32MP1/atf/stm32mp1_atf/../build/opteemin-nand-stm32mp157d-ev1/bl2/tf_log.o
 .text.tf_log_set_max_level
                0x00000000       0x30 /home/dangcaominh/STM32MP1/atf/stm32mp1_atf/../build/opteemin-nand-stm32mp157d-ev1/bl2/tf_log.o
 .text          0x00000000        0x0 /home/dangcaominh/STM32MP1/atf/stm32mp1_atf/../build/opteemin-nand-stm32mp157d-ev1/bl2/uuid.o
 .data          0x00000000        0x0 /home/dangcaominh/STM32MP1/atf/stm32mp1_atf/../build/opteemin-nand-stm32mp157d-ev1/bl2/uuid.o
 .bss           0x00000000        0x0 /home/dangcaominh/STM32MP1/atf/stm32mp1_atf/../build/opteemin-nand-stm32mp157d-ev1/bl2/uuid.o
 .text.uuid_match
                0x00000000       0x10 /home/dangcaominh/STM32MP1/atf/stm32mp1_atf/../build/opteemin-nand-stm32mp157d-ev1/bl2/uuid.o
 .text.copy_uuid
                0x00000000       0x12 /home/dangcaominh/STM32MP1/atf/stm32mp1_atf/../build/opteemin-nand-stm32mp157d-ev1/bl2/uuid.o
 .text.is_null_uuid
                0x00000000       0x20 /home/dangcaominh/STM32MP1/atf/stm32mp1_atf/../build/opteemin-nand-stm32mp157d-ev1/bl2/uuid.o
 .text          0x00000000        0x0 /home/dangcaominh/STM32MP1/atf/stm32mp1_atf/../build/opteemin-nand-stm32mp157d-ev1/bl2/tzc400.o
 .data          0x00000000        0x0 /home/dangcaominh/STM32MP1/atf/stm32mp1_atf/../build/opteemin-nand-stm32mp157d-ev1/bl2/tzc400.o
 .bss           0x00000000        0x0 /home/dangcaominh/STM32MP1/atf/stm32mp1_atf/../build/opteemin-nand-stm32mp157d-ev1/bl2/tzc400.o
 .rodata.tzc400_it_handler.str1.1
                0x00000000       0x93 /home/dangcaominh/STM32MP1/atf/stm32mp1_atf/../build/opteemin-nand-stm32mp157d-ev1/bl2/tzc400.o
 .text.tzc400_it_handler
                0x00000000       0xac /home/dangcaominh/STM32MP1/atf/stm32mp1_atf/../build/opteemin-nand-stm32mp157d-ev1/bl2/tzc400.o
 .text          0x00000000        0x0 /home/dangcaominh/STM32MP1/atf/stm32mp1_atf/../build/opteemin-nand-stm32mp157d-ev1/bl2/clk.o
 .data          0x00000000        0x0 /home/dangcaominh/STM32MP1/atf/stm32mp1_atf/../build/opteemin-nand-stm32mp157d-ev1/bl2/clk.o
 .bss           0x00000000        0x0 /home/dangcaominh/STM32MP1/atf/stm32mp1_atf/../build/opteemin-nand-stm32mp157d-ev1/bl2/clk.o
 .text.clk_get_parent
                0x00000000       0x24 /home/dangcaominh/STM32MP1/atf/stm32mp1_atf/../build/opteemin-nand-stm32mp157d-ev1/bl2/clk.o
 .text          0x00000000        0x0 /home/dangcaominh/STM32MP1/atf/stm32mp1_atf/../build/opteemin-nand-stm32mp157d-ev1/bl2/multi_console.o
 .data          0x00000000        0x0 /home/dangcaominh/STM32MP1/atf/stm32mp1_atf/../build/opteemin-nand-stm32mp157d-ev1/bl2/multi_console.o
 .bss           0x00000000        0x0 /home/dangcaominh/STM32MP1/atf/stm32mp1_atf/../build/opteemin-nand-stm32mp157d-ev1/bl2/multi_console.o
 .text.console_unregister
                0x00000000       0x2c /home/dangcaominh/STM32MP1/atf/stm32mp1_atf/../build/opteemin-nand-stm32mp157d-ev1/bl2/multi_console.o
 .text.console_switch_state
                0x00000000        0xc /home/dangcaominh/STM32MP1/atf/stm32mp1_atf/../build/opteemin-nand-stm32mp157d-ev1/bl2/multi_console.o
 .text          0x00000000        0x0 /home/dangcaominh/STM32MP1/atf/stm32mp1_atf/../build/opteemin-nand-stm32mp157d-ev1/bl2/delay_timer.o
 .data          0x00000000        0x0 /home/dangcaominh/STM32MP1/atf/stm32mp1_atf/../build/opteemin-nand-stm32mp157d-ev1/bl2/delay_timer.o
 .bss           0x00000000        0x0 /home/dangcaominh/STM32MP1/atf/stm32mp1_atf/../build/opteemin-nand-stm32mp157d-ev1/bl2/delay_timer.o
 .text          0x00000000        0x0 /home/dangcaominh/STM32MP1/atf/stm32mp1_atf/../build/opteemin-nand-stm32mp157d-ev1/bl2/generic_delay_timer.o
 .data          0x00000000        0x0 /home/dangcaominh/STM32MP1/atf/stm32mp1_atf/../build/opteemin-nand-stm32mp157d-ev1/bl2/generic_delay_timer.o
 .bss           0x00000000        0x0 /home/dangcaominh/STM32MP1/atf/stm32mp1_atf/../build/opteemin-nand-stm32mp157d-ev1/bl2/generic_delay_timer.o
 .text          0x00000000        0x0 /home/dangcaominh/STM32MP1/atf/stm32mp1_atf/../build/opteemin-nand-stm32mp157d-ev1/bl2/fwu.o
 .data          0x00000000        0x0 /home/dangcaominh/STM32MP1/atf/stm32mp1_atf/../build/opteemin-nand-stm32mp157d-ev1/bl2/fwu.o
 .bss           0x00000000        0x0 /home/dangcaominh/STM32MP1/atf/stm32mp1_atf/../build/opteemin-nand-stm32mp157d-ev1/bl2/fwu.o
 .text.fwu_get_active_bank_state
                0x00000000       0x3c /home/dangcaominh/STM32MP1/atf/stm32mp1_atf/../build/opteemin-nand-stm32mp157d-ev1/bl2/fwu.o
 .text          0x00000000        0x0 /home/dangcaominh/STM32MP1/atf/stm32mp1_atf/../build/opteemin-nand-stm32mp157d-ev1/bl2/io_block.o
 .data          0x00000000        0x0 /home/dangcaominh/STM32MP1/atf/stm32mp1_atf/../build/opteemin-nand-stm32mp157d-ev1/bl2/io_block.o
 .bss           0x00000000        0x0 /home/dangcaominh/STM32MP1/atf/stm32mp1_atf/../build/opteemin-nand-stm32mp157d-ev1/bl2/io_block.o
 .text.device_type_block
                0x00000000        0x4 /home/dangcaominh/STM32MP1/atf/stm32mp1_atf/../build/opteemin-nand-stm32mp157d-ev1/bl2/io_block.o
 .text.block_close
                0x00000000        0x8 /home/dangcaominh/STM32MP1/atf/stm32mp1_atf/../build/opteemin-nand-stm32mp157d-ev1/bl2/io_block.o
 .rodata.block_seek.str1.1
                0x00000000       0x16 /home/dangcaominh/STM32MP1/atf/stm32mp1_atf/../build/opteemin-nand-stm32mp157d-ev1/bl2/io_block.o
 .text.block_seek
                0x00000000       0x54 /home/dangcaominh/STM32MP1/atf/stm32mp1_atf/../build/opteemin-nand-stm32mp157d-ev1/bl2/io_block.o
 .text.block_open
                0x00000000       0x4c /home/dangcaominh/STM32MP1/atf/stm32mp1_atf/../build/opteemin-nand-stm32mp157d-ev1/bl2/io_block.o
 .text.block_write
                0x00000000      0x11c /home/dangcaominh/STM32MP1/atf/stm32mp1_atf/../build/opteemin-nand-stm32mp157d-ev1/bl2/io_block.o
 .text.block_read
                0x00000000       0xe4 /home/dangcaominh/STM32MP1/atf/stm32mp1_atf/../build/opteemin-nand-stm32mp157d-ev1/bl2/io_block.o
 .text.block_dev_close
                0x00000000       0x48 /home/dangcaominh/STM32MP1/atf/stm32mp1_atf/../build/opteemin-nand-stm32mp157d-ev1/bl2/io_block.o
 .text.block_dev_open
                0x00000000       0x78 /home/dangcaominh/STM32MP1/atf/stm32mp1_atf/../build/opteemin-nand-stm32mp157d-ev1/bl2/io_block.o
 .text.register_io_dev_block
                0x00000000       0x2c /home/dangcaominh/STM32MP1/atf/stm32mp1_atf/../build/opteemin-nand-stm32mp157d-ev1/bl2/io_block.o
 .bss.block_dev_count
                0x00000000        0x4 /home/dangcaominh/STM32MP1/atf/stm32mp1_atf/../build/opteemin-nand-stm32mp157d-ev1/bl2/io_block.o
 .bss.dev_info_pool
                0x00000000        0x8 /home/dangcaominh/STM32MP1/atf/stm32mp1_atf/../build/opteemin-nand-stm32mp157d-ev1/bl2/io_block.o
 .bss.state_pool
                0x00000000       0x18 /home/dangcaominh/STM32MP1/atf/stm32mp1_atf/../build/opteemin-nand-stm32mp157d-ev1/bl2/io_block.o
 .rodata.block_dev_funcs
                0x00000000       0x24 /home/dangcaominh/STM32MP1/atf/stm32mp1_atf/../build/opteemin-nand-stm32mp157d-ev1/bl2/io_block.o
 .rodata.block_dev_connector
                0x00000000        0x4 /home/dangcaominh/STM32MP1/atf/stm32mp1_atf/../build/opteemin-nand-stm32mp157d-ev1/bl2/io_block.o
 .debug_info    0x00000000      0xe6e /home/dangcaominh/STM32MP1/atf/stm32mp1_atf/../build/opteemin-nand-stm32mp157d-ev1/bl2/io_block.o
 .debug_abbrev  0x00000000      0x342 /home/dangcaominh/STM32MP1/atf/stm32mp1_atf/../build/opteemin-nand-stm32mp157d-ev1/bl2/io_block.o
 .debug_loc     0x00000000      0xdcb /home/dangcaominh/STM32MP1/atf/stm32mp1_atf/../build/opteemin-nand-stm32mp157d-ev1/bl2/io_block.o
 .debug_aranges
                0x00000000       0x60 /home/dangcaominh/STM32MP1/atf/stm32mp1_atf/../build/opteemin-nand-stm32mp157d-ev1/bl2/io_block.o
 .debug_ranges  0x00000000       0xf8 /home/dangcaominh/STM32MP1/atf/stm32mp1_atf/../build/opteemin-nand-stm32mp157d-ev1/bl2/io_block.o
 .debug_line    0x00000000      0x77f /home/dangcaominh/STM32MP1/atf/stm32mp1_atf/../build/opteemin-nand-stm32mp157d-ev1/bl2/io_block.o
 .debug_str     0x00000000      0x66f /home/dangcaominh/STM32MP1/atf/stm32mp1_atf/../build/opteemin-nand-stm32mp157d-ev1/bl2/io_block.o
 .comment       0x00000000       0x13 /home/dangcaominh/STM32MP1/atf/stm32mp1_atf/../build/opteemin-nand-stm32mp157d-ev1/bl2/io_block.o
 .note.GNU-stack
                0x00000000        0x0 /home/dangcaominh/STM32MP1/atf/stm32mp1_atf/../build/opteemin-nand-stm32mp157d-ev1/bl2/io_block.o
 .debug_frame   0x00000000      0x114 /home/dangcaominh/STM32MP1/atf/stm32mp1_atf/../build/opteemin-nand-stm32mp157d-ev1/bl2/io_block.o
 .ARM.attributes
                0x00000000       0x33 /home/dangcaominh/STM32MP1/atf/stm32mp1_atf/../build/opteemin-nand-stm32mp157d-ev1/bl2/io_block.o
 .text          0x00000000        0x0 /home/dangcaominh/STM32MP1/atf/stm32mp1_atf/../build/opteemin-nand-stm32mp157d-ev1/bl2/io_fip.o
 .data          0x00000000        0x0 /home/dangcaominh/STM32MP1/atf/stm32mp1_atf/../build/opteemin-nand-stm32mp157d-ev1/bl2/io_fip.o
 .bss           0x00000000        0x0 /home/dangcaominh/STM32MP1/atf/stm32mp1_atf/../build/opteemin-nand-stm32mp157d-ev1/bl2/io_fip.o
 .text.fip_dev_get_plat_toc_flag
                0x00000000       0x1c /home/dangcaominh/STM32MP1/atf/stm32mp1_atf/../build/opteemin-nand-stm32mp157d-ev1/bl2/io_fip.o
 .text          0x00000000        0x0 /home/dangcaominh/STM32MP1/atf/stm32mp1_atf/../build/opteemin-nand-stm32mp157d-ev1/bl2/io_mtd.o
 .data          0x00000000        0x0 /home/dangcaominh/STM32MP1/atf/stm32mp1_atf/../build/opteemin-nand-stm32mp157d-ev1/bl2/io_mtd.o
 .bss           0x00000000        0x0 /home/dangcaominh/STM32MP1/atf/stm32mp1_atf/../build/opteemin-nand-stm32mp157d-ev1/bl2/io_mtd.o
 .text          0x00000000        0x0 /home/dangcaominh/STM32MP1/atf/stm32mp1_atf/../build/opteemin-nand-stm32mp157d-ev1/bl2/io_storage.o
 .data          0x00000000        0x0 /home/dangcaominh/STM32MP1/atf/stm32mp1_atf/../build/opteemin-nand-stm32mp157d-ev1/bl2/io_storage.o
 .bss           0x00000000        0x0 /home/dangcaominh/STM32MP1/atf/stm32mp1_atf/../build/opteemin-nand-stm32mp157d-ev1/bl2/io_storage.o
 .text.io_write
                0x00000000       0x48 /home/dangcaominh/STM32MP1/atf/stm32mp1_atf/../build/opteemin-nand-stm32mp157d-ev1/bl2/io_storage.o
 .text          0x00000000        0x0 /home/dangcaominh/STM32MP1/atf/stm32mp1_atf/../build/opteemin-nand-stm32mp157d-ev1/bl2/core.o
 .data          0x00000000        0x0 /home/dangcaominh/STM32MP1/atf/stm32mp1_atf/../build/opteemin-nand-stm32mp157d-ev1/bl2/core.o
 .bss           0x00000000        0x0 /home/dangcaominh/STM32MP1/atf/stm32mp1_atf/../build/opteemin-nand-stm32mp157d-ev1/bl2/core.o
 .text          0x00000000        0x0 /home/dangcaominh/STM32MP1/atf/stm32mp1_atf/../build/opteemin-nand-stm32mp157d-ev1/bl2/raw_nand.o
 .data          0x00000000        0x0 /home/dangcaominh/STM32MP1/atf/stm32mp1_atf/../build/opteemin-nand-stm32mp157d-ev1/bl2/raw_nand.o
 .bss           0x00000000        0x0 /home/dangcaominh/STM32MP1/atf/stm32mp1_atf/../build/opteemin-nand-stm32mp157d-ev1/bl2/raw_nand.o
 .text.plat_get_raw_nand_data
                0x00000000        0x4 /home/dangcaominh/STM32MP1/atf/stm32mp1_atf/../build/opteemin-nand-stm32mp157d-ev1/bl2/raw_nand.o
 .text          0x00000000        0x0 /home/dangcaominh/STM32MP1/atf/stm32mp1_atf/../build/opteemin-nand-stm32mp157d-ev1/bl2/bsec2.o
 .data          0x00000000        0x0 /home/dangcaominh/STM32MP1/atf/stm32mp1_atf/../build/opteemin-nand-stm32mp157d-ev1/bl2/bsec2.o
 .bss           0x00000000        0x0 /home/dangcaominh/STM32MP1/atf/stm32mp1_atf/../build/opteemin-nand-stm32mp157d-ev1/bl2/bsec2.o
 .text.bsec_permanent_lock_otp
                0x00000000       0x98 /home/dangcaominh/STM32MP1/atf/stm32mp1_atf/../build/opteemin-nand-stm32mp157d-ev1/bl2/bsec2.o
 .text.bsec_write_scratch
                0x00000000        0xc /home/dangcaominh/STM32MP1/atf/stm32mp1_atf/../build/opteemin-nand-stm32mp157d-ev1/bl2/bsec2.o
 .text.bsec_set_sr_lock
                0x00000000       0x40 /home/dangcaominh/STM32MP1/atf/stm32mp1_atf/../build/opteemin-nand-stm32mp157d-ev1/bl2/bsec2.o
 .text.bsec_set_sw_lock
                0x00000000       0x40 /home/dangcaominh/STM32MP1/atf/stm32mp1_atf/../build/opteemin-nand-stm32mp157d-ev1/bl2/bsec2.o
 .text.bsec_set_sp_lock
                0x00000000       0x40 /home/dangcaominh/STM32MP1/atf/stm32mp1_atf/../build/opteemin-nand-stm32mp157d-ev1/bl2/bsec2.o
 .text.bsec_get_state
                0x00000000       0x18 /home/dangcaominh/STM32MP1/atf/stm32mp1_atf/../build/opteemin-nand-stm32mp157d-ev1/bl2/bsec2.o
 .text          0x00000000        0x0 /home/dangcaominh/STM32MP1/atf/stm32mp1_atf/../build/opteemin-nand-stm32mp157d-ev1/bl2/stm32mp1_clk.o
 .data          0x00000000        0x0 /home/dangcaominh/STM32MP1/atf/stm32mp1_atf/../build/opteemin-nand-stm32mp157d-ev1/bl2/stm32mp1_clk.o
 .bss           0x00000000        0x0 /home/dangcaominh/STM32MP1/atf/stm32mp1_atf/../build/opteemin-nand-stm32mp157d-ev1/bl2/stm32mp1_clk.o
 .text.clk_mux_get_parent
                0x00000000       0x3c /home/dangcaominh/STM32MP1/atf/stm32mp1_atf/../build/opteemin-nand-stm32mp157d-ev1/bl2/stm32mp1_clk.o
 .text.stm32mp1_rcc_is_secure
                0x00000000        0xe /home/dangcaominh/STM32MP1/atf/stm32mp1_atf/../build/opteemin-nand-stm32mp157d-ev1/bl2/stm32mp1_clk.o
 .text.stm32mp1_rcc_is_mckprot
                0x00000000       0x14 /home/dangcaominh/STM32MP1/atf/stm32mp1_atf/../build/opteemin-nand-stm32mp157d-ev1/bl2/stm32mp1_clk.o
 .text.stm32mp1_clk_mcuss_protect
                0x00000000       0x1a /home/dangcaominh/STM32MP1/atf/stm32mp1_atf/../build/opteemin-nand-stm32mp157d-ev1/bl2/stm32mp1_clk.o
 .text          0x00000000        0x0 /home/dangcaominh/STM32MP1/atf/stm32mp1_atf/../build/opteemin-nand-stm32mp157d-ev1/bl2/stm32mp_clkfunc.o
 .data          0x00000000        0x0 /home/dangcaominh/STM32MP1/atf/stm32mp1_atf/../build/opteemin-nand-stm32mp157d-ev1/bl2/stm32mp_clkfunc.o
 .bss           0x00000000        0x0 /home/dangcaominh/STM32MP1/atf/stm32mp1_atf/../build/opteemin-nand-stm32mp157d-ev1/bl2/stm32mp_clkfunc.o
 .rodata.fdt_get_rcc_node.str1.1
                0x00000000       0x10 /home/dangcaominh/STM32MP1/atf/stm32mp1_atf/../build/opteemin-nand-stm32mp157d-ev1/bl2/stm32mp_clkfunc.o
 .text.fdt_get_rcc_node
                0x00000000       0x24 /home/dangcaominh/STM32MP1/atf/stm32mp1_atf/../build/opteemin-nand-stm32mp157d-ev1/bl2/stm32mp_clkfunc.o
 .text.fdt_rcc_read_uint32_array
                0x00000000       0x36 /home/dangcaominh/STM32MP1/atf/stm32mp1_atf/../build/opteemin-nand-stm32mp157d-ev1/bl2/stm32mp_clkfunc.o
 .text.fdt_rcc_subnode_offset
                0x00000000       0x32 /home/dangcaominh/STM32MP1/atf/stm32mp1_atf/../build/opteemin-nand-stm32mp157d-ev1/bl2/stm32mp_clkfunc.o
 .text.fdt_rcc_read_prop
                0x00000000       0x32 /home/dangcaominh/STM32MP1/atf/stm32mp1_atf/../build/opteemin-nand-stm32mp157d-ev1/bl2/stm32mp_clkfunc.o
 .rodata.fdt_get_uart_clock_freq.str1.1
                0x00000000       0x10 /home/dangcaominh/STM32MP1/atf/stm32mp1_atf/../build/opteemin-nand-stm32mp157d-ev1/bl2/stm32mp_clkfunc.o
 .text.fdt_get_uart_clock_freq
                0x00000000       0x30 /home/dangcaominh/STM32MP1/atf/stm32mp1_atf/../build/opteemin-nand-stm32mp157d-ev1/bl2/stm32mp_clkfunc.o
 .bss.node.0    0x00000000        0x4 /home/dangcaominh/STM32MP1/atf/stm32mp1_atf/../build/opteemin-nand-stm32mp157d-ev1/bl2/stm32mp_clkfunc.o
 .text          0x00000000        0x0 /home/dangcaominh/STM32MP1/atf/stm32mp1_atf/../build/opteemin-nand-stm32mp157d-ev1/bl2/stm32_hash.o
 .data          0x00000000        0x0 /home/dangcaominh/STM32MP1/atf/stm32mp1_atf/../build/opteemin-nand-stm32mp157d-ev1/bl2/stm32_hash.o
 .bss           0x00000000        0x0 /home/dangcaominh/STM32MP1/atf/stm32mp1_atf/../build/opteemin-nand-stm32mp157d-ev1/bl2/stm32_hash.o
 .rodata.hash_write_data.str1.1
                0x00000000       0x13 /home/dangcaominh/STM32MP1/atf/stm32mp1_atf/../build/opteemin-nand-stm32mp157d-ev1/bl2/stm32_hash.o
 .text.hash_write_data
                0x00000000       0x64 /home/dangcaominh/STM32MP1/atf/stm32mp1_atf/../build/opteemin-nand-stm32mp157d-ev1/bl2/stm32_hash.o
 .rodata.stm32_hash_update.str1.1
                0x00000000       0x1f /home/dangcaominh/STM32MP1/atf/stm32mp1_atf/../build/opteemin-nand-stm32mp157d-ev1/bl2/stm32_hash.o
 .text.stm32_hash_update
                0x00000000       0xb8 /home/dangcaominh/STM32MP1/atf/stm32mp1_atf/../build/opteemin-nand-stm32mp157d-ev1/bl2/stm32_hash.o
 .text.stm32_hash_final
                0x00000000       0xfc /home/dangcaominh/STM32MP1/atf/stm32mp1_atf/../build/opteemin-nand-stm32mp157d-ev1/bl2/stm32_hash.o
 .text.stm32_hash_final_update
                0x00000000       0x16 /home/dangcaominh/STM32MP1/atf/stm32mp1_atf/../build/opteemin-nand-stm32mp157d-ev1/bl2/stm32_hash.o
 .rodata.stm32_hash_init.str1.1
                0x00000000       0x1b /home/dangcaominh/STM32MP1/atf/stm32mp1_atf/../build/opteemin-nand-stm32mp157d-ev1/bl2/stm32_hash.o
 .text.stm32_hash_init
                0x00000000       0x70 /home/dangcaominh/STM32MP1/atf/stm32mp1_atf/../build/opteemin-nand-stm32mp157d-ev1/bl2/stm32_hash.o
 .rodata.stm32_hash_register.str1.1
                0x00000000       0x12 /home/dangcaominh/STM32MP1/atf/stm32mp1_atf/../build/opteemin-nand-stm32mp157d-ev1/bl2/stm32_hash.o
 .text.stm32_hash_register
                0x00000000       0x8c /home/dangcaominh/STM32MP1/atf/stm32mp1_atf/../build/opteemin-nand-stm32mp157d-ev1/bl2/stm32_hash.o
 .rodata.__func__.0
                0x00000000       0x10 /home/dangcaominh/STM32MP1/atf/stm32mp1_atf/../build/opteemin-nand-stm32mp157d-ev1/bl2/stm32_hash.o
 .rodata.__func__.1
                0x00000000       0x16 /home/dangcaominh/STM32MP1/atf/stm32mp1_atf/../build/opteemin-nand-stm32mp157d-ev1/bl2/stm32_hash.o
 .rodata.__func__.2
                0x00000000        0xf /home/dangcaominh/STM32MP1/atf/stm32mp1_atf/../build/opteemin-nand-stm32mp157d-ev1/bl2/stm32_hash.o
 .bss.stm32_remain
                0x00000000        0x8 /home/dangcaominh/STM32MP1/atf/stm32mp1_atf/../build/opteemin-nand-stm32mp157d-ev1/bl2/stm32_hash.o
 .bss.stm32_hash
                0x00000000        0xc /home/dangcaominh/STM32MP1/atf/stm32mp1_atf/../build/opteemin-nand-stm32mp157d-ev1/bl2/stm32_hash.o
 .debug_info    0x00000000     0x1241 /home/dangcaominh/STM32MP1/atf/stm32mp1_atf/../build/opteemin-nand-stm32mp157d-ev1/bl2/stm32_hash.o
 .debug_abbrev  0x00000000      0x469 /home/dangcaominh/STM32MP1/atf/stm32mp1_atf/../build/opteemin-nand-stm32mp157d-ev1/bl2/stm32_hash.o
 .debug_loc     0x00000000      0xbad /home/dangcaominh/STM32MP1/atf/stm32mp1_atf/../build/opteemin-nand-stm32mp157d-ev1/bl2/stm32_hash.o
 .debug_aranges
                0x00000000       0x48 /home/dangcaominh/STM32MP1/atf/stm32mp1_atf/../build/opteemin-nand-stm32mp157d-ev1/bl2/stm32_hash.o
 .debug_ranges  0x00000000      0x2a0 /home/dangcaominh/STM32MP1/atf/stm32mp1_atf/../build/opteemin-nand-stm32mp157d-ev1/bl2/stm32_hash.o
 .debug_line    0x00000000      0x8d1 /home/dangcaominh/STM32MP1/atf/stm32mp1_atf/../build/opteemin-nand-stm32mp157d-ev1/bl2/stm32_hash.o
 .debug_str     0x00000000      0x614 /home/dangcaominh/STM32MP1/atf/stm32mp1_atf/../build/opteemin-nand-stm32mp157d-ev1/bl2/stm32_hash.o
 .comment       0x00000000       0x13 /home/dangcaominh/STM32MP1/atf/stm32mp1_atf/../build/opteemin-nand-stm32mp157d-ev1/bl2/stm32_hash.o
 .note.GNU-stack
                0x00000000        0x0 /home/dangcaominh/STM32MP1/atf/stm32mp1_atf/../build/opteemin-nand-stm32mp157d-ev1/bl2/stm32_hash.o
 .debug_frame   0x00000000       0xf0 /home/dangcaominh/STM32MP1/atf/stm32mp1_atf/../build/opteemin-nand-stm32mp157d-ev1/bl2/stm32_hash.o
 .ARM.attributes
                0x00000000       0x33 /home/dangcaominh/STM32MP1/atf/stm32mp1_atf/../build/opteemin-nand-stm32mp157d-ev1/bl2/stm32_hash.o
 .text          0x00000000        0x0 /home/dangcaominh/STM32MP1/atf/stm32mp1_atf/../build/opteemin-nand-stm32mp157d-ev1/bl2/stm32mp1_ddr.o
 .data          0x00000000        0x0 /home/dangcaominh/STM32MP1/atf/stm32mp1_atf/../build/opteemin-nand-stm32mp157d-ev1/bl2/stm32mp1_ddr.o
 .bss           0x00000000        0x0 /home/dangcaominh/STM32MP1/atf/stm32mp1_atf/../build/opteemin-nand-stm32mp157d-ev1/bl2/stm32mp1_ddr.o
 .text          0x00000000        0x0 /home/dangcaominh/STM32MP1/atf/stm32mp1_atf/../build/opteemin-nand-stm32mp157d-ev1/bl2/stm32mp1_ddr_helpers.o
 .data          0x00000000        0x0 /home/dangcaominh/STM32MP1/atf/stm32mp1_atf/../build/opteemin-nand-stm32mp157d-ev1/bl2/stm32mp1_ddr_helpers.o
 .bss           0x00000000        0x0 /home/dangcaominh/STM32MP1/atf/stm32mp1_atf/../build/opteemin-nand-stm32mp157d-ev1/bl2/stm32mp1_ddr_helpers.o
 .text          0x00000000        0x0 /home/dangcaominh/STM32MP1/atf/stm32mp1_atf/../build/opteemin-nand-stm32mp157d-ev1/bl2/stm32mp1_ram.o
 .data          0x00000000        0x0 /home/dangcaominh/STM32MP1/atf/stm32mp1_atf/../build/opteemin-nand-stm32mp157d-ev1/bl2/stm32mp1_ram.o
 .bss           0x00000000        0x0 /home/dangcaominh/STM32MP1/atf/stm32mp1_atf/../build/opteemin-nand-stm32mp157d-ev1/bl2/stm32mp1_ram.o
 .text          0x00000000        0x0 /home/dangcaominh/STM32MP1/atf/stm32mp1_atf/../build/opteemin-nand-stm32mp157d-ev1/bl2/stm32mp_ddr.o
 .data          0x00000000        0x0 /home/dangcaominh/STM32MP1/atf/stm32mp1_atf/../build/opteemin-nand-stm32mp157d-ev1/bl2/stm32mp_ddr.o
 .bss           0x00000000        0x0 /home/dangcaominh/STM32MP1/atf/stm32mp1_atf/../build/opteemin-nand-stm32mp157d-ev1/bl2/stm32mp_ddr.o
 .text          0x00000000        0x0 /home/dangcaominh/STM32MP1/atf/stm32mp1_atf/../build/opteemin-nand-stm32mp157d-ev1/bl2/stm32mp_ddr_test.o
 .data          0x00000000        0x0 /home/dangcaominh/STM32MP1/atf/stm32mp1_atf/../build/opteemin-nand-stm32mp157d-ev1/bl2/stm32mp_ddr_test.o
 .bss           0x00000000        0x0 /home/dangcaominh/STM32MP1/atf/stm32mp1_atf/../build/opteemin-nand-stm32mp157d-ev1/bl2/stm32mp_ddr_test.o
 .text          0x00000000        0x0 /home/dangcaominh/STM32MP1/atf/stm32mp1_atf/../build/opteemin-nand-stm32mp157d-ev1/bl2/stm32mp_ram.o
 .data          0x00000000        0x0 /home/dangcaominh/STM32MP1/atf/stm32mp1_atf/../build/opteemin-nand-stm32mp157d-ev1/bl2/stm32mp_ram.o
 .bss           0x00000000        0x0 /home/dangcaominh/STM32MP1/atf/stm32mp1_atf/../build/opteemin-nand-stm32mp157d-ev1/bl2/stm32mp_ram.o
 .text          0x00000000        0x0 /home/dangcaominh/STM32MP1/atf/stm32mp1_atf/../build/opteemin-nand-stm32mp157d-ev1/bl2/stm32_fmc2_nand.o
 .data          0x00000000        0x0 /home/dangcaominh/STM32MP1/atf/stm32mp1_atf/../build/opteemin-nand-stm32mp157d-ev1/bl2/stm32_fmc2_nand.o
 .bss           0x00000000        0x0 /home/dangcaominh/STM32MP1/atf/stm32mp1_atf/../build/opteemin-nand-stm32mp157d-ev1/bl2/stm32_fmc2_nand.o
 .text          0x00000000        0x0 /home/dangcaominh/STM32MP1/atf/stm32mp1_atf/../build/opteemin-nand-stm32mp157d-ev1/bl2/stm32_gpio.o
 .data          0x00000000        0x0 /home/dangcaominh/STM32MP1/atf/stm32mp1_atf/../build/opteemin-nand-stm32mp157d-ev1/bl2/stm32_gpio.o
 .bss           0x00000000        0x0 /home/dangcaominh/STM32MP1/atf/stm32mp1_atf/../build/opteemin-nand-stm32mp157d-ev1/bl2/stm32_gpio.o
 .text.set_gpio_secure_cfg
                0x00000000       0x4c /home/dangcaominh/STM32MP1/atf/stm32mp1_atf/../build/opteemin-nand-stm32mp157d-ev1/bl2/stm32_gpio.o
 .text.set_gpio_reset_cfg
                0x00000000       0x2e /home/dangcaominh/STM32MP1/atf/stm32mp1_atf/../build/opteemin-nand-stm32mp157d-ev1/bl2/stm32_gpio.o
 .text.set_gpio_level
                0x00000000       0x48 /home/dangcaominh/STM32MP1/atf/stm32mp1_atf/../build/opteemin-nand-stm32mp157d-ev1/bl2/stm32_gpio.o
 .text.get_gpio_level
                0x00000000       0x40 /home/dangcaominh/STM32MP1/atf/stm32mp1_atf/../build/opteemin-nand-stm32mp157d-ev1/bl2/stm32_gpio.o
 .text.set_gpio_config
                0x00000000       0x30 /home/dangcaominh/STM32MP1/atf/stm32mp1_atf/../build/opteemin-nand-stm32mp157d-ev1/bl2/stm32_gpio.o
 .text          0x00000000        0x0 /home/dangcaominh/STM32MP1/atf/stm32mp1_atf/../build/opteemin-nand-stm32mp157d-ev1/bl2/stm32_i2c.o
 .data          0x00000000        0x0 /home/dangcaominh/STM32MP1/atf/stm32mp1_atf/../build/opteemin-nand-stm32mp157d-ev1/bl2/stm32_i2c.o
 .bss           0x00000000        0x0 /home/dangcaominh/STM32MP1/atf/stm32mp1_atf/../build/opteemin-nand-stm32mp157d-ev1/bl2/stm32_i2c.o
 .text.stm32_i2c_master_transmit
                0x00000000       0x18 /home/dangcaominh/STM32MP1/atf/stm32mp1_atf/../build/opteemin-nand-stm32mp157d-ev1/bl2/stm32_i2c.o
 .text.stm32_i2c_master_receive
                0x00000000       0x14 /home/dangcaominh/STM32MP1/atf/stm32mp1_atf/../build/opteemin-nand-stm32mp157d-ev1/bl2/stm32_i2c.o
 .text          0x00000000        0x0 /home/dangcaominh/STM32MP1/atf/stm32mp1_atf/../build/opteemin-nand-stm32mp157d-ev1/bl2/stm32_iwdg.o
 .data          0x00000000        0x0 /home/dangcaominh/STM32MP1/atf/stm32mp1_atf/../build/opteemin-nand-stm32mp157d-ev1/bl2/stm32_iwdg.o
 .bss           0x00000000        0x0 /home/dangcaominh/STM32MP1/atf/stm32mp1_atf/../build/opteemin-nand-stm32mp157d-ev1/bl2/stm32_iwdg.o
 .text          0x00000000        0x0 /home/dangcaominh/STM32MP1/atf/stm32mp1_atf/../build/opteemin-nand-stm32mp157d-ev1/bl2/nvmem.o
 .data          0x00000000        0x0 /home/dangcaominh/STM32MP1/atf/stm32mp1_atf/../build/opteemin-nand-stm32mp157d-ev1/bl2/nvmem.o
 .bss           0x00000000        0x0 /home/dangcaominh/STM32MP1/atf/stm32mp1_atf/../build/opteemin-nand-stm32mp157d-ev1/bl2/nvmem.o
 .text          0x00000000        0x0 /home/dangcaominh/STM32MP1/atf/stm32mp1_atf/../build/opteemin-nand-stm32mp157d-ev1/bl2/stm32mp_tamp_nvram_core.o
 .data          0x00000000        0x0 /home/dangcaominh/STM32MP1/atf/stm32mp1_atf/../build/opteemin-nand-stm32mp157d-ev1/bl2/stm32mp_tamp_nvram_core.o
 .bss           0x00000000        0x0 /home/dangcaominh/STM32MP1/atf/stm32mp1_atf/../build/opteemin-nand-stm32mp157d-ev1/bl2/stm32mp_tamp_nvram_core.o
 .text.stm32_tamp_nvram_reg_field_write
                0x00000000       0x72 /home/dangcaominh/STM32MP1/atf/stm32mp1_atf/../build/opteemin-nand-stm32mp157d-ev1/bl2/stm32mp_tamp_nvram_core.o
 .text          0x00000000        0x0 /home/dangcaominh/STM32MP1/atf/stm32mp1_atf/../build/opteemin-nand-stm32mp157d-ev1/bl2/stm32mp_tamp_nvram_mp1.o
 .data          0x00000000        0x0 /home/dangcaominh/STM32MP1/atf/stm32mp1_atf/../build/opteemin-nand-stm32mp157d-ev1/bl2/stm32mp_tamp_nvram_mp1.o
 .bss           0x00000000        0x0 /home/dangcaominh/STM32MP1/atf/stm32mp1_atf/../build/opteemin-nand-stm32mp157d-ev1/bl2/stm32mp_tamp_nvram_mp1.o
 .text          0x00000000        0x0 /home/dangcaominh/STM32MP1/atf/stm32mp1_atf/../build/opteemin-nand-stm32mp157d-ev1/bl2/stm32mp_pmic.o
 .data          0x00000000        0x0 /home/dangcaominh/STM32MP1/atf/stm32mp1_atf/../build/opteemin-nand-stm32mp157d-ev1/bl2/stm32mp_pmic.o
 .bss           0x00000000        0x0 /home/dangcaominh/STM32MP1/atf/stm32mp1_atf/../build/opteemin-nand-stm32mp157d-ev1/bl2/stm32mp_pmic.o
 .text          0x00000000        0x0 /home/dangcaominh/STM32MP1/atf/stm32mp1_atf/../build/opteemin-nand-stm32mp157d-ev1/bl2/stpmic1.o
 .data          0x00000000        0x0 /home/dangcaominh/STM32MP1/atf/stm32mp1_atf/../build/opteemin-nand-stm32mp157d-ev1/bl2/stpmic1.o
 .bss           0x00000000        0x0 /home/dangcaominh/STM32MP1/atf/stm32mp1_atf/../build/opteemin-nand-stm32mp157d-ev1/bl2/stpmic1.o
 .text.stpmic1_dump_regulators
                0x00000000        0x2 /home/dangcaominh/STM32MP1/atf/stm32mp1_atf/../build/opteemin-nand-stm32mp157d-ev1/bl2/stpmic1.o
 .text          0x00000000        0x0 /home/dangcaominh/STM32MP1/atf/stm32mp1_atf/../build/opteemin-nand-stm32mp157d-ev1/bl2/regulator_core.o
 .data          0x00000000        0x0 /home/dangcaominh/STM32MP1/atf/stm32mp1_atf/../build/opteemin-nand-stm32mp157d-ev1/bl2/regulator_core.o
 .bss           0x00000000        0x0 /home/dangcaominh/STM32MP1/atf/stm32mp1_atf/../build/opteemin-nand-stm32mp157d-ev1/bl2/regulator_core.o
 .text.regulator_get_by_name
                0x00000000       0x48 /home/dangcaominh/STM32MP1/atf/stm32mp1_atf/../build/opteemin-nand-stm32mp157d-ev1/bl2/regulator_core.o
 .text.regulator_disable
                0x00000000       0x3c /home/dangcaominh/STM32MP1/atf/stm32mp1_atf/../build/opteemin-nand-stm32mp157d-ev1/bl2/regulator_core.o
 .rodata.regulator_is_enabled.str1.1
                0x00000000       0x24 /home/dangcaominh/STM32MP1/atf/stm32mp1_atf/../build/opteemin-nand-stm32mp157d-ev1/bl2/regulator_core.o
 .text.regulator_is_enabled
                0x00000000       0x4c /home/dangcaominh/STM32MP1/atf/stm32mp1_atf/../build/opteemin-nand-stm32mp157d-ev1/bl2/regulator_core.o
 .rodata.regulator_set_flag.str1.1
                0x00000000       0x3d /home/dangcaominh/STM32MP1/atf/stm32mp1_atf/../build/opteemin-nand-stm32mp157d-ev1/bl2/regulator_core.o
 .text.regulator_set_flag
                0x00000000       0x78 /home/dangcaominh/STM32MP1/atf/stm32mp1_atf/../build/opteemin-nand-stm32mp157d-ev1/bl2/regulator_core.o
 .rodata.__func__.1
                0x00000000       0x16 /home/dangcaominh/STM32MP1/atf/stm32mp1_atf/../build/opteemin-nand-stm32mp157d-ev1/bl2/regulator_core.o
 .text          0x00000000        0x0 /home/dangcaominh/STM32MP1/atf/stm32mp1_atf/../build/opteemin-nand-stm32mp157d-ev1/bl2/regulator_fixed.o
 .data          0x00000000        0x0 /home/dangcaominh/STM32MP1/atf/stm32mp1_atf/../build/opteemin-nand-stm32mp157d-ev1/bl2/regulator_fixed.o
 .bss           0x00000000        0x0 /home/dangcaominh/STM32MP1/atf/stm32mp1_atf/../build/opteemin-nand-stm32mp157d-ev1/bl2/regulator_fixed.o
 .text          0x00000000        0x0 /home/dangcaominh/STM32MP1/atf/stm32mp1_atf/../build/opteemin-nand-stm32mp157d-ev1/bl2/regulator_gpio.o
 .data          0x00000000        0x0 /home/dangcaominh/STM32MP1/atf/stm32mp1_atf/../build/opteemin-nand-stm32mp157d-ev1/bl2/regulator_gpio.o
 .bss           0x00000000        0x0 /home/dangcaominh/STM32MP1/atf/stm32mp1_atf/../build/opteemin-nand-stm32mp157d-ev1/bl2/regulator_gpio.o
 .rodata.gpio_regulator_register.str1.1
                0x00000000       0x63 /home/dangcaominh/STM32MP1/atf/stm32mp1_atf/../build/opteemin-nand-stm32mp157d-ev1/bl2/regulator_gpio.o
 .text.gpio_regulator_register
                0x00000000       0x44 /home/dangcaominh/STM32MP1/atf/stm32mp1_atf/../build/opteemin-nand-stm32mp157d-ev1/bl2/regulator_gpio.o
 .debug_info    0x00000000      0x6dd /home/dangcaominh/STM32MP1/atf/stm32mp1_atf/../build/opteemin-nand-stm32mp157d-ev1/bl2/regulator_gpio.o
 .debug_abbrev  0x00000000      0x21f /home/dangcaominh/STM32MP1/atf/stm32mp1_atf/../build/opteemin-nand-stm32mp157d-ev1/bl2/regulator_gpio.o
 .debug_loc     0x00000000       0x58 /home/dangcaominh/STM32MP1/atf/stm32mp1_atf/../build/opteemin-nand-stm32mp157d-ev1/bl2/regulator_gpio.o
 .debug_aranges
                0x00000000       0x20 /home/dangcaominh/STM32MP1/atf/stm32mp1_atf/../build/opteemin-nand-stm32mp157d-ev1/bl2/regulator_gpio.o
 .debug_ranges  0x00000000       0x10 /home/dangcaominh/STM32MP1/atf/stm32mp1_atf/../build/opteemin-nand-stm32mp157d-ev1/bl2/regulator_gpio.o
 .debug_line    0x00000000      0x1d8 /home/dangcaominh/STM32MP1/atf/stm32mp1_atf/../build/opteemin-nand-stm32mp157d-ev1/bl2/regulator_gpio.o
 .debug_str     0x00000000      0x4e3 /home/dangcaominh/STM32MP1/atf/stm32mp1_atf/../build/opteemin-nand-stm32mp157d-ev1/bl2/regulator_gpio.o
 .comment       0x00000000       0x13 /home/dangcaominh/STM32MP1/atf/stm32mp1_atf/../build/opteemin-nand-stm32mp157d-ev1/bl2/regulator_gpio.o
 .note.GNU-stack
                0x00000000        0x0 /home/dangcaominh/STM32MP1/atf/stm32mp1_atf/../build/opteemin-nand-stm32mp157d-ev1/bl2/regulator_gpio.o
 .debug_frame   0x00000000       0x2c /home/dangcaominh/STM32MP1/atf/stm32mp1_atf/../build/opteemin-nand-stm32mp157d-ev1/bl2/regulator_gpio.o
 .ARM.attributes
                0x00000000       0x33 /home/dangcaominh/STM32MP1/atf/stm32mp1_atf/../build/opteemin-nand-stm32mp157d-ev1/bl2/regulator_gpio.o
 .text          0x00000000        0x0 /home/dangcaominh/STM32MP1/atf/stm32mp1_atf/../build/opteemin-nand-stm32mp157d-ev1/bl2/stm32mp1_reset.o
 .data          0x00000000        0x0 /home/dangcaominh/STM32MP1/atf/stm32mp1_atf/../build/opteemin-nand-stm32mp157d-ev1/bl2/stm32mp1_reset.o
 .bss           0x00000000        0x0 /home/dangcaominh/STM32MP1/atf/stm32mp1_atf/../build/opteemin-nand-stm32mp157d-ev1/bl2/stm32mp1_reset.o
 .text          0x00000000        0x0 /home/dangcaominh/STM32MP1/atf/stm32mp1_atf/../build/opteemin-nand-stm32mp157d-ev1/bl2/ctzdi2.o
 .data          0x00000000        0x0 /home/dangcaominh/STM32MP1/atf/stm32mp1_atf/../build/opteemin-nand-stm32mp157d-ev1/bl2/ctzdi2.o
 .bss           0x00000000        0x0 /home/dangcaominh/STM32MP1/atf/stm32mp1_atf/../build/opteemin-nand-stm32mp157d-ev1/bl2/ctzdi2.o
 .text          0x00000000        0x0 /home/dangcaominh/STM32MP1/atf/stm32mp1_atf/../build/opteemin-nand-stm32mp157d-ev1/bl2/divdi3.o
 .data          0x00000000        0x0 /home/dangcaominh/STM32MP1/atf/stm32mp1_atf/../build/opteemin-nand-stm32mp157d-ev1/bl2/divdi3.o
 .bss           0x00000000        0x0 /home/dangcaominh/STM32MP1/atf/stm32mp1_atf/../build/opteemin-nand-stm32mp157d-ev1/bl2/divdi3.o
 .text.__divdi3
                0x00000000       0x3e /home/dangcaominh/STM32MP1/atf/stm32mp1_atf/../build/opteemin-nand-stm32mp157d-ev1/bl2/divdi3.o
 .debug_info    0x00000000      0x1f2 /home/dangcaominh/STM32MP1/atf/stm32mp1_atf/../build/opteemin-nand-stm32mp157d-ev1/bl2/divdi3.o
 .debug_abbrev  0x00000000      0x124 /home/dangcaominh/STM32MP1/atf/stm32mp1_atf/../build/opteemin-nand-stm32mp157d-ev1/bl2/divdi3.o
 .debug_loc     0x00000000       0xd2 /home/dangcaominh/STM32MP1/atf/stm32mp1_atf/../build/opteemin-nand-stm32mp157d-ev1/bl2/divdi3.o
 .debug_aranges
                0x00000000       0x20 /home/dangcaominh/STM32MP1/atf/stm32mp1_atf/../build/opteemin-nand-stm32mp157d-ev1/bl2/divdi3.o
 .debug_ranges  0x00000000       0x28 /home/dangcaominh/STM32MP1/atf/stm32mp1_atf/../build/opteemin-nand-stm32mp157d-ev1/bl2/divdi3.o
 .debug_line    0x00000000      0x10e /home/dangcaominh/STM32MP1/atf/stm32mp1_atf/../build/opteemin-nand-stm32mp157d-ev1/bl2/divdi3.o
 .debug_str     0x00000000      0x24b /home/dangcaominh/STM32MP1/atf/stm32mp1_atf/../build/opteemin-nand-stm32mp157d-ev1/bl2/divdi3.o
 .comment       0x00000000       0x13 /home/dangcaominh/STM32MP1/atf/stm32mp1_atf/../build/opteemin-nand-stm32mp157d-ev1/bl2/divdi3.o
 .note.GNU-stack
                0x00000000        0x0 /home/dangcaominh/STM32MP1/atf/stm32mp1_atf/../build/opteemin-nand-stm32mp157d-ev1/bl2/divdi3.o
 .debug_frame   0x00000000       0x30 /home/dangcaominh/STM32MP1/atf/stm32mp1_atf/../build/opteemin-nand-stm32mp157d-ev1/bl2/divdi3.o
 .ARM.attributes
                0x00000000       0x33 /home/dangcaominh/STM32MP1/atf/stm32mp1_atf/../build/opteemin-nand-stm32mp157d-ev1/bl2/divdi3.o
 .text          0x00000000        0x0 /home/dangcaominh/STM32MP1/atf/stm32mp1_atf/../build/opteemin-nand-stm32mp157d-ev1/bl2/divmoddi4.o
 .data          0x00000000        0x0 /home/dangcaominh/STM32MP1/atf/stm32mp1_atf/../build/opteemin-nand-stm32mp157d-ev1/bl2/divmoddi4.o
 .bss           0x00000000        0x0 /home/dangcaominh/STM32MP1/atf/stm32mp1_atf/../build/opteemin-nand-stm32mp157d-ev1/bl2/divmoddi4.o
 .text.__divmoddi4
                0x00000000       0x54 /home/dangcaominh/STM32MP1/atf/stm32mp1_atf/../build/opteemin-nand-stm32mp157d-ev1/bl2/divmoddi4.o
 .debug_info    0x00000000      0x19b /home/dangcaominh/STM32MP1/atf/stm32mp1_atf/../build/opteemin-nand-stm32mp157d-ev1/bl2/divmoddi4.o
 .debug_abbrev  0x00000000      0x106 /home/dangcaominh/STM32MP1/atf/stm32mp1_atf/../build/opteemin-nand-stm32mp157d-ev1/bl2/divmoddi4.o
 .debug_loc     0x00000000       0x8c /home/dangcaominh/STM32MP1/atf/stm32mp1_atf/../build/opteemin-nand-stm32mp157d-ev1/bl2/divmoddi4.o
 .debug_aranges
                0x00000000       0x20 /home/dangcaominh/STM32MP1/atf/stm32mp1_atf/../build/opteemin-nand-stm32mp157d-ev1/bl2/divmoddi4.o
 .debug_ranges  0x00000000       0x10 /home/dangcaominh/STM32MP1/atf/stm32mp1_atf/../build/opteemin-nand-stm32mp157d-ev1/bl2/divmoddi4.o
 .debug_line    0x00000000      0x10b /home/dangcaominh/STM32MP1/atf/stm32mp1_atf/../build/opteemin-nand-stm32mp157d-ev1/bl2/divmoddi4.o
 .debug_str     0x00000000      0x259 /home/dangcaominh/STM32MP1/atf/stm32mp1_atf/../build/opteemin-nand-stm32mp157d-ev1/bl2/divmoddi4.o
 .comment       0x00000000       0x13 /home/dangcaominh/STM32MP1/atf/stm32mp1_atf/../build/opteemin-nand-stm32mp157d-ev1/bl2/divmoddi4.o
 .note.GNU-stack
                0x00000000        0x0 /home/dangcaominh/STM32MP1/atf/stm32mp1_atf/../build/opteemin-nand-stm32mp157d-ev1/bl2/divmoddi4.o
 .debug_frame   0x00000000       0x34 /home/dangcaominh/STM32MP1/atf/stm32mp1_atf/../build/opteemin-nand-stm32mp157d-ev1/bl2/divmoddi4.o
 .ARM.attributes
                0x00000000       0x33 /home/dangcaominh/STM32MP1/atf/stm32mp1_atf/../build/opteemin-nand-stm32mp157d-ev1/bl2/divmoddi4.o
 .text          0x00000000        0x0 /home/dangcaominh/STM32MP1/atf/stm32mp1_atf/../build/opteemin-nand-stm32mp157d-ev1/bl2/lshrdi3.o
 .data          0x00000000        0x0 /home/dangcaominh/STM32MP1/atf/stm32mp1_atf/../build/opteemin-nand-stm32mp157d-ev1/bl2/lshrdi3.o
 .bss           0x00000000        0x0 /home/dangcaominh/STM32MP1/atf/stm32mp1_atf/../build/opteemin-nand-stm32mp157d-ev1/bl2/lshrdi3.o
 .text.__lshrdi3
                0x00000000       0x26 /home/dangcaominh/STM32MP1/atf/stm32mp1_atf/../build/opteemin-nand-stm32mp157d-ev1/bl2/lshrdi3.o
 .debug_info    0x00000000      0x18c /home/dangcaominh/STM32MP1/atf/stm32mp1_atf/../build/opteemin-nand-stm32mp157d-ev1/bl2/lshrdi3.o
 .debug_abbrev  0x00000000       0xdf /home/dangcaominh/STM32MP1/atf/stm32mp1_atf/../build/opteemin-nand-stm32mp157d-ev1/bl2/lshrdi3.o
 .debug_loc     0x00000000       0x97 /home/dangcaominh/STM32MP1/atf/stm32mp1_atf/../build/opteemin-nand-stm32mp157d-ev1/bl2/lshrdi3.o
 .debug_aranges
                0x00000000       0x20 /home/dangcaominh/STM32MP1/atf/stm32mp1_atf/../build/opteemin-nand-stm32mp157d-ev1/bl2/lshrdi3.o
 .debug_ranges  0x00000000       0x10 /home/dangcaominh/STM32MP1/atf/stm32mp1_atf/../build/opteemin-nand-stm32mp157d-ev1/bl2/lshrdi3.o
 .debug_line    0x00000000       0xf2 /home/dangcaominh/STM32MP1/atf/stm32mp1_atf/../build/opteemin-nand-stm32mp157d-ev1/bl2/lshrdi3.o
 .debug_str     0x00000000      0x26e /home/dangcaominh/STM32MP1/atf/stm32mp1_atf/../build/opteemin-nand-stm32mp157d-ev1/bl2/lshrdi3.o
 .comment       0x00000000       0x13 /home/dangcaominh/STM32MP1/atf/stm32mp1_atf/../build/opteemin-nand-stm32mp157d-ev1/bl2/lshrdi3.o
 .note.GNU-stack
                0x00000000        0x0 /home/dangcaominh/STM32MP1/atf/stm32mp1_atf/../build/opteemin-nand-stm32mp157d-ev1/bl2/lshrdi3.o
 .debug_frame   0x00000000       0x28 /home/dangcaominh/STM32MP1/atf/stm32mp1_atf/../build/opteemin-nand-stm32mp157d-ev1/bl2/lshrdi3.o
 .ARM.attributes
                0x00000000       0x33 /home/dangcaominh/STM32MP1/atf/stm32mp1_atf/../build/opteemin-nand-stm32mp157d-ev1/bl2/lshrdi3.o
 .text          0x00000000        0x0 /home/dangcaominh/STM32MP1/atf/stm32mp1_atf/../build/opteemin-nand-stm32mp157d-ev1/bl2/popcountdi2.o
 .data          0x00000000        0x0 /home/dangcaominh/STM32MP1/atf/stm32mp1_atf/../build/opteemin-nand-stm32mp157d-ev1/bl2/popcountdi2.o
 .bss           0x00000000        0x0 /home/dangcaominh/STM32MP1/atf/stm32mp1_atf/../build/opteemin-nand-stm32mp157d-ev1/bl2/popcountdi2.o
 .text.__popcountdi2
                0x00000000       0x52 /home/dangcaominh/STM32MP1/atf/stm32mp1_atf/../build/opteemin-nand-stm32mp157d-ev1/bl2/popcountdi2.o
 .debug_info    0x00000000      0x125 /home/dangcaominh/STM32MP1/atf/stm32mp1_atf/../build/opteemin-nand-stm32mp157d-ev1/bl2/popcountdi2.o
 .debug_abbrev  0x00000000       0x7d /home/dangcaominh/STM32MP1/atf/stm32mp1_atf/../build/opteemin-nand-stm32mp157d-ev1/bl2/popcountdi2.o
 .debug_loc     0x00000000       0xa3 /home/dangcaominh/STM32MP1/atf/stm32mp1_atf/../build/opteemin-nand-stm32mp157d-ev1/bl2/popcountdi2.o
 .debug_aranges
                0x00000000       0x20 /home/dangcaominh/STM32MP1/atf/stm32mp1_atf/../build/opteemin-nand-stm32mp157d-ev1/bl2/popcountdi2.o
 .debug_ranges  0x00000000       0x10 /home/dangcaominh/STM32MP1/atf/stm32mp1_atf/../build/opteemin-nand-stm32mp157d-ev1/bl2/popcountdi2.o
 .debug_line    0x00000000      0x109 /home/dangcaominh/STM32MP1/atf/stm32mp1_atf/../build/opteemin-nand-stm32mp157d-ev1/bl2/popcountdi2.o
 .debug_str     0x00000000      0x24f /home/dangcaominh/STM32MP1/atf/stm32mp1_atf/../build/opteemin-nand-stm32mp157d-ev1/bl2/popcountdi2.o
 .comment       0x00000000       0x13 /home/dangcaominh/STM32MP1/atf/stm32mp1_atf/../build/opteemin-nand-stm32mp157d-ev1/bl2/popcountdi2.o
 .note.GNU-stack
                0x00000000        0x0 /home/dangcaominh/STM32MP1/atf/stm32mp1_atf/../build/opteemin-nand-stm32mp157d-ev1/bl2/popcountdi2.o
 .debug_frame   0x00000000       0x20 /home/dangcaominh/STM32MP1/atf/stm32mp1_atf/../build/opteemin-nand-stm32mp157d-ev1/bl2/popcountdi2.o
 .ARM.attributes
                0x00000000       0x33 /home/dangcaominh/STM32MP1/atf/stm32mp1_atf/../build/opteemin-nand-stm32mp157d-ev1/bl2/popcountdi2.o
 .text          0x00000000        0x0 /home/dangcaominh/STM32MP1/atf/stm32mp1_atf/../build/opteemin-nand-stm32mp157d-ev1/bl2/popcountsi2.o
 .data          0x00000000        0x0 /home/dangcaominh/STM32MP1/atf/stm32mp1_atf/../build/opteemin-nand-stm32mp157d-ev1/bl2/popcountsi2.o
 .bss           0x00000000        0x0 /home/dangcaominh/STM32MP1/atf/stm32mp1_atf/../build/opteemin-nand-stm32mp157d-ev1/bl2/popcountsi2.o
 .text          0x00000000        0x0 /home/dangcaominh/STM32MP1/atf/stm32mp1_atf/../build/opteemin-nand-stm32mp157d-ev1/bl2/udivmoddi4.o
 .data          0x00000000        0x0 /home/dangcaominh/STM32MP1/atf/stm32mp1_atf/../build/opteemin-nand-stm32mp157d-ev1/bl2/udivmoddi4.o
 .bss           0x00000000        0x0 /home/dangcaominh/STM32MP1/atf/stm32mp1_atf/../build/opteemin-nand-stm32mp157d-ev1/bl2/udivmoddi4.o
 .text          0x00000000        0x0 /home/dangcaominh/STM32MP1/atf/stm32mp1_atf/../build/opteemin-nand-stm32mp157d-ev1/bl2/pmuv3.o
 .data          0x00000000        0x0 /home/dangcaominh/STM32MP1/atf/stm32mp1_atf/../build/opteemin-nand-stm32mp157d-ev1/bl2/pmuv3.o
 .bss           0x00000000        0x0 /home/dangcaominh/STM32MP1/atf/stm32mp1_atf/../build/opteemin-nand-stm32mp157d-ev1/bl2/pmuv3.o
 .text.pmuv3_init_el3
                0x00000000       0x1e /home/dangcaominh/STM32MP1/atf/stm32mp1_atf/../build/opteemin-nand-stm32mp157d-ev1/bl2/pmuv3.o
 .debug_info    0x00000000      0x1e9 /home/dangcaominh/STM32MP1/atf/stm32mp1_atf/../build/opteemin-nand-stm32mp157d-ev1/bl2/pmuv3.o
 .debug_abbrev  0x00000000      0x14f /home/dangcaominh/STM32MP1/atf/stm32mp1_atf/../build/opteemin-nand-stm32mp157d-ev1/bl2/pmuv3.o
 .debug_loc     0x00000000       0xba /home/dangcaominh/STM32MP1/atf/stm32mp1_atf/../build/opteemin-nand-stm32mp157d-ev1/bl2/pmuv3.o
 .debug_aranges
                0x00000000       0x20 /home/dangcaominh/STM32MP1/atf/stm32mp1_atf/../build/opteemin-nand-stm32mp157d-ev1/bl2/pmuv3.o
 .debug_ranges  0x00000000       0x40 /home/dangcaominh/STM32MP1/atf/stm32mp1_atf/../build/opteemin-nand-stm32mp157d-ev1/bl2/pmuv3.o
 .debug_line    0x00000000      0x11b /home/dangcaominh/STM32MP1/atf/stm32mp1_atf/../build/opteemin-nand-stm32mp157d-ev1/bl2/pmuv3.o
 .debug_str     0x00000000      0x258 /home/dangcaominh/STM32MP1/atf/stm32mp1_atf/../build/opteemin-nand-stm32mp157d-ev1/bl2/pmuv3.o
 .comment       0x00000000       0x13 /home/dangcaominh/STM32MP1/atf/stm32mp1_atf/../build/opteemin-nand-stm32mp157d-ev1/bl2/pmuv3.o
 .note.GNU-stack
                0x00000000        0x0 /home/dangcaominh/STM32MP1/atf/stm32mp1_atf/../build/opteemin-nand-stm32mp157d-ev1/bl2/pmuv3.o
 .debug_frame   0x00000000       0x20 /home/dangcaominh/STM32MP1/atf/stm32mp1_atf/../build/opteemin-nand-stm32mp157d-ev1/bl2/pmuv3.o
 .ARM.attributes
                0x00000000       0x33 /home/dangcaominh/STM32MP1/atf/stm32mp1_atf/../build/opteemin-nand-stm32mp157d-ev1/bl2/pmuv3.o
 .text          0x00000000        0x0 /home/dangcaominh/STM32MP1/atf/stm32mp1_atf/../build/opteemin-nand-stm32mp157d-ev1/bl2/fconf.o
 .data          0x00000000        0x0 /home/dangcaominh/STM32MP1/atf/stm32mp1_atf/../build/opteemin-nand-stm32mp157d-ev1/bl2/fconf.o
 .bss           0x00000000        0x0 /home/dangcaominh/STM32MP1/atf/stm32mp1_atf/../build/opteemin-nand-stm32mp157d-ev1/bl2/fconf.o
 .text.fconf_load_config
                0x00000000       0x60 /home/dangcaominh/STM32MP1/atf/stm32mp1_atf/../build/opteemin-nand-stm32mp157d-ev1/bl2/fconf.o
 .text          0x00000000        0x0 /home/dangcaominh/STM32MP1/atf/stm32mp1_atf/../build/opteemin-nand-stm32mp157d-ev1/bl2/fconf_dyn_cfg_getter.o
 .data          0x00000000        0x0 /home/dangcaominh/STM32MP1/atf/stm32mp1_atf/../build/opteemin-nand-stm32mp157d-ev1/bl2/fconf_dyn_cfg_getter.o
 .bss           0x00000000        0x0 /home/dangcaominh/STM32MP1/atf/stm32mp1_atf/../build/opteemin-nand-stm32mp157d-ev1/bl2/fconf_dyn_cfg_getter.o
 .text          0x00000000        0x0 /home/dangcaominh/STM32MP1/atf/stm32mp1_atf/../build/opteemin-nand-stm32mp157d-ev1/bl2/optee_utils.o
 .data          0x00000000        0x0 /home/dangcaominh/STM32MP1/atf/stm32mp1_atf/../build/opteemin-nand-stm32mp157d-ev1/bl2/optee_utils.o
 .bss           0x00000000        0x0 /home/dangcaominh/STM32MP1/atf/stm32mp1_atf/../build/opteemin-nand-stm32mp157d-ev1/bl2/optee_utils.o
 .text          0x00000000        0x0 /home/dangcaominh/STM32MP1/atf/stm32mp1_atf/../build/opteemin-nand-stm32mp157d-ev1/bl2/xlat_tables_arch.o
 .data          0x00000000        0x0 /home/dangcaominh/STM32MP1/atf/stm32mp1_atf/../build/opteemin-nand-stm32mp157d-ev1/bl2/xlat_tables_arch.o
 .bss           0x00000000        0x0 /home/dangcaominh/STM32MP1/atf/stm32mp1_atf/../build/opteemin-nand-stm32mp157d-ev1/bl2/xlat_tables_arch.o
 .text.xlat_arch_is_granule_size_supported
                0x00000000        0xa /home/dangcaominh/STM32MP1/atf/stm32mp1_atf/../build/opteemin-nand-stm32mp157d-ev1/bl2/xlat_tables_arch.o
 .text.xlat_arch_get_max_supported_granule_size
                0x00000000        0x6 /home/dangcaominh/STM32MP1/atf/stm32mp1_atf/../build/opteemin-nand-stm32mp157d-ev1/bl2/xlat_tables_arch.o
 .text          0x00000000        0x0 /home/dangcaominh/STM32MP1/atf/stm32mp1_atf/../build/opteemin-nand-stm32mp157d-ev1/bl2/xlat_tables_context.o
 .data          0x00000000        0x0 /home/dangcaominh/STM32MP1/atf/stm32mp1_atf/../build/opteemin-nand-stm32mp157d-ev1/bl2/xlat_tables_context.o
 .bss           0x00000000        0x0 /home/dangcaominh/STM32MP1/atf/stm32mp1_atf/../build/opteemin-nand-stm32mp157d-ev1/bl2/xlat_tables_context.o
 .text.mmap_add_region_alloc_va
                0x00000000       0x30 /home/dangcaominh/STM32MP1/atf/stm32mp1_atf/../build/opteemin-nand-stm32mp157d-ev1/bl2/xlat_tables_context.o
 .text.mmap_add_alloc_va
                0x00000000       0x2c /home/dangcaominh/STM32MP1/atf/stm32mp1_atf/../build/opteemin-nand-stm32mp157d-ev1/bl2/xlat_tables_context.o
 .text.mmap_add_dynamic_region_alloc_va
                0x00000000       0x30 /home/dangcaominh/STM32MP1/atf/stm32mp1_atf/../build/opteemin-nand-stm32mp157d-ev1/bl2/xlat_tables_context.o
 .text.xlat_get_mem_attributes
                0x00000000       0x10 /home/dangcaominh/STM32MP1/atf/stm32mp1_atf/../build/opteemin-nand-stm32mp157d-ev1/bl2/xlat_tables_context.o
 .text.xlat_change_mem_attributes
                0x00000000       0x10 /home/dangcaominh/STM32MP1/atf/stm32mp1_atf/../build/opteemin-nand-stm32mp157d-ev1/bl2/xlat_tables_context.o
 .text.enable_mmu_hyp
                0x00000000       0x34 /home/dangcaominh/STM32MP1/atf/stm32mp1_atf/../build/opteemin-nand-stm32mp157d-ev1/bl2/xlat_tables_context.o
 .text          0x00000000        0x0 /home/dangcaominh/STM32MP1/atf/stm32mp1_atf/../build/opteemin-nand-stm32mp157d-ev1/bl2/xlat_tables_core.o
 .data          0x00000000        0x0 /home/dangcaominh/STM32MP1/atf/stm32mp1_atf/../build/opteemin-nand-stm32mp157d-ev1/bl2/xlat_tables_core.o
 .bss           0x00000000        0x0 /home/dangcaominh/STM32MP1/atf/stm32mp1_atf/../build/opteemin-nand-stm32mp157d-ev1/bl2/xlat_tables_core.o
 .text.mmap_alloc_va_align_ctx.isra.0
                0x00000000       0x32 /home/dangcaominh/STM32MP1/atf/stm32mp1_atf/../build/opteemin-nand-stm32mp157d-ev1/bl2/xlat_tables_core.o
 .text.mmap_add_region_alloc_va_ctx
                0x00000000       0x38 /home/dangcaominh/STM32MP1/atf/stm32mp1_atf/../build/opteemin-nand-stm32mp157d-ev1/bl2/xlat_tables_core.o
 .text.mmap_add_dynamic_region_alloc_va_ctx
                0x00000000       0x2a /home/dangcaominh/STM32MP1/atf/stm32mp1_atf/../build/opteemin-nand-stm32mp157d-ev1/bl2/xlat_tables_core.o
 .text.xlat_setup_dynamic_ctx
                0x00000000       0x62 /home/dangcaominh/STM32MP1/atf/stm32mp1_atf/../build/opteemin-nand-stm32mp157d-ev1/bl2/xlat_tables_core.o
 .text          0x00000000        0x0 /home/dangcaominh/STM32MP1/atf/stm32mp1_atf/../build/opteemin-nand-stm32mp157d-ev1/bl2/xlat_tables_utils.o
 .data          0x00000000        0x0 /home/dangcaominh/STM32MP1/atf/stm32mp1_atf/../build/opteemin-nand-stm32mp157d-ev1/bl2/xlat_tables_utils.o
 .bss           0x00000000        0x0 /home/dangcaominh/STM32MP1/atf/stm32mp1_atf/../build/opteemin-nand-stm32mp157d-ev1/bl2/xlat_tables_utils.o
 .rodata.find_xlat_table_entry.str1.1
                0x00000000       0x53 /home/dangcaominh/STM32MP1/atf/stm32mp1_atf/../build/opteemin-nand-stm32mp157d-ev1/bl2/xlat_tables_utils.o
 .text.find_xlat_table_entry
                0x00000000       0x8c /home/dangcaominh/STM32MP1/atf/stm32mp1_atf/../build/opteemin-nand-stm32mp157d-ev1/bl2/xlat_tables_utils.o
 .rodata.xlat_get_mem_attributes_internal.str1.1
                0x00000000       0x1f /home/dangcaominh/STM32MP1/atf/stm32mp1_atf/../build/opteemin-nand-stm32mp157d-ev1/bl2/xlat_tables_utils.o
 .text.xlat_get_mem_attributes_internal
                0x00000000      0x118 /home/dangcaominh/STM32MP1/atf/stm32mp1_atf/../build/opteemin-nand-stm32mp157d-ev1/bl2/xlat_tables_utils.o
 .text.xlat_get_mem_attributes_ctx
                0x00000000       0x12 /home/dangcaominh/STM32MP1/atf/stm32mp1_atf/../build/opteemin-nand-stm32mp157d-ev1/bl2/xlat_tables_utils.o
 .rodata.xlat_change_mem_attributes_ctx.str1.1
                0x00000000      0x152 /home/dangcaominh/STM32MP1/atf/stm32mp1_atf/../build/opteemin-nand-stm32mp157d-ev1/bl2/xlat_tables_utils.o
 .text.xlat_change_mem_attributes_ctx
                0x00000000      0x194 /home/dangcaominh/STM32MP1/atf/stm32mp1_atf/../build/opteemin-nand-stm32mp157d-ev1/bl2/xlat_tables_utils.o
 .rodata.__func__.0
                0x00000000       0x1f /home/dangcaominh/STM32MP1/atf/stm32mp1_atf/../build/opteemin-nand-stm32mp157d-ev1/bl2/xlat_tables_utils.o
 .text          0x00000000        0x0 /home/dangcaominh/STM32MP1/atf/stm32mp1_atf/../build/opteemin-nand-stm32mp157d-ev1/bl2/adler32.o
 .data          0x00000000        0x0 /home/dangcaominh/STM32MP1/atf/stm32mp1_atf/../build/opteemin-nand-stm32mp157d-ev1/bl2/adler32.o
 .bss           0x00000000        0x0 /home/dangcaominh/STM32MP1/atf/stm32mp1_atf/../build/opteemin-nand-stm32mp157d-ev1/bl2/adler32.o
 .text.adler32_combine_
                0x00000000       0x70 /home/dangcaominh/STM32MP1/atf/stm32mp1_atf/../build/opteemin-nand-stm32mp157d-ev1/bl2/adler32.o
 .text.adler32_z
                0x00000000      0x226 /home/dangcaominh/STM32MP1/atf/stm32mp1_atf/../build/opteemin-nand-stm32mp157d-ev1/bl2/adler32.o
 .text.adler32  0x00000000        0x4 /home/dangcaominh/STM32MP1/atf/stm32mp1_atf/../build/opteemin-nand-stm32mp157d-ev1/bl2/adler32.o
 .text.adler32_combine
                0x00000000        0x4 /home/dangcaominh/STM32MP1/atf/stm32mp1_atf/../build/opteemin-nand-stm32mp157d-ev1/bl2/adler32.o
 .text.adler32_combine64
                0x00000000        0x4 /home/dangcaominh/STM32MP1/atf/stm32mp1_atf/../build/opteemin-nand-stm32mp157d-ev1/bl2/adler32.o
 .debug_info    0x00000000      0x314 /home/dangcaominh/STM32MP1/atf/stm32mp1_atf/../build/opteemin-nand-stm32mp157d-ev1/bl2/adler32.o
 .debug_abbrev  0x00000000      0x153 /home/dangcaominh/STM32MP1/atf/stm32mp1_atf/../build/opteemin-nand-stm32mp157d-ev1/bl2/adler32.o
 .debug_loc     0x00000000      0x991 /home/dangcaominh/STM32MP1/atf/stm32mp1_atf/../build/opteemin-nand-stm32mp157d-ev1/bl2/adler32.o
 .debug_aranges
                0x00000000       0x40 /home/dangcaominh/STM32MP1/atf/stm32mp1_atf/../build/opteemin-nand-stm32mp157d-ev1/bl2/adler32.o
 .debug_ranges  0x00000000       0x30 /home/dangcaominh/STM32MP1/atf/stm32mp1_atf/../build/opteemin-nand-stm32mp157d-ev1/bl2/adler32.o
 .debug_line    0x00000000      0x352 /home/dangcaominh/STM32MP1/atf/stm32mp1_atf/../build/opteemin-nand-stm32mp157d-ev1/bl2/adler32.o
 .debug_str     0x00000000      0x228 /home/dangcaominh/STM32MP1/atf/stm32mp1_atf/../build/opteemin-nand-stm32mp157d-ev1/bl2/adler32.o
 .comment       0x00000000       0x13 /home/dangcaominh/STM32MP1/atf/stm32mp1_atf/../build/opteemin-nand-stm32mp157d-ev1/bl2/adler32.o
 .note.GNU-stack
                0x00000000        0x0 /home/dangcaominh/STM32MP1/atf/stm32mp1_atf/../build/opteemin-nand-stm32mp157d-ev1/bl2/adler32.o
 .debug_frame   0x00000000       0x8c /home/dangcaominh/STM32MP1/atf/stm32mp1_atf/../build/opteemin-nand-stm32mp157d-ev1/bl2/adler32.o
 .ARM.attributes
                0x00000000       0x33 /home/dangcaominh/STM32MP1/atf/stm32mp1_atf/../build/opteemin-nand-stm32mp157d-ev1/bl2/adler32.o
 .text          0x00000000        0x0 /home/dangcaominh/STM32MP1/atf/stm32mp1_atf/../build/opteemin-nand-stm32mp157d-ev1/bl2/crc32.o
 .data          0x00000000        0x0 /home/dangcaominh/STM32MP1/atf/stm32mp1_atf/../build/opteemin-nand-stm32mp157d-ev1/bl2/crc32.o
 .bss           0x00000000        0x0 /home/dangcaominh/STM32MP1/atf/stm32mp1_atf/../build/opteemin-nand-stm32mp157d-ev1/bl2/crc32.o
 .text.multmodp
                0x00000000       0x2c /home/dangcaominh/STM32MP1/atf/stm32mp1_atf/../build/opteemin-nand-stm32mp157d-ev1/bl2/crc32.o
 .text.x2nmodp.constprop.0
                0x00000000       0x2c /home/dangcaominh/STM32MP1/atf/stm32mp1_atf/../build/opteemin-nand-stm32mp157d-ev1/bl2/crc32.o
 .text.get_crc_table
                0x00000000        0x8 /home/dangcaominh/STM32MP1/atf/stm32mp1_atf/../build/opteemin-nand-stm32mp157d-ev1/bl2/crc32.o
 .text.crc32_combine64
                0x00000000       0x16 /home/dangcaominh/STM32MP1/atf/stm32mp1_atf/../build/opteemin-nand-stm32mp157d-ev1/bl2/crc32.o
 .text.crc32_combine
                0x00000000        0x4 /home/dangcaominh/STM32MP1/atf/stm32mp1_atf/../build/opteemin-nand-stm32mp157d-ev1/bl2/crc32.o
 .text.crc32_combine_gen64
                0x00000000        0x4 /home/dangcaominh/STM32MP1/atf/stm32mp1_atf/../build/opteemin-nand-stm32mp157d-ev1/bl2/crc32.o
 .text.crc32_combine_gen
                0x00000000        0x4 /home/dangcaominh/STM32MP1/atf/stm32mp1_atf/../build/opteemin-nand-stm32mp157d-ev1/bl2/crc32.o
 .text.crc32_combine_op
                0x00000000       0x10 /home/dangcaominh/STM32MP1/atf/stm32mp1_atf/../build/opteemin-nand-stm32mp157d-ev1/bl2/crc32.o
 .rodata.x2n_table
                0x00000000       0x80 /home/dangcaominh/STM32MP1/atf/stm32mp1_atf/../build/opteemin-nand-stm32mp157d-ev1/bl2/crc32.o
 .text          0x00000000        0x0 /home/dangcaominh/STM32MP1/atf/stm32mp1_atf/../build/opteemin-nand-stm32mp157d-ev1/bl2/inffast.o
 .data          0x00000000        0x0 /home/dangcaominh/STM32MP1/atf/stm32mp1_atf/../build/opteemin-nand-stm32mp157d-ev1/bl2/inffast.o
 .bss           0x00000000        0x0 /home/dangcaominh/STM32MP1/atf/stm32mp1_atf/../build/opteemin-nand-stm32mp157d-ev1/bl2/inffast.o
 .rodata.inflate_fast.str1.1
                0x00000000       0x50 /home/dangcaominh/STM32MP1/atf/stm32mp1_atf/../build/opteemin-nand-stm32mp157d-ev1/bl2/inffast.o
 .text.inflate_fast
                0x00000000      0x36c /home/dangcaominh/STM32MP1/atf/stm32mp1_atf/../build/opteemin-nand-stm32mp157d-ev1/bl2/inffast.o
 .debug_info    0x00000000      0x80e /home/dangcaominh/STM32MP1/atf/stm32mp1_atf/../build/opteemin-nand-stm32mp157d-ev1/bl2/inffast.o
 .debug_abbrev  0x00000000      0x196 /home/dangcaominh/STM32MP1/atf/stm32mp1_atf/../build/opteemin-nand-stm32mp157d-ev1/bl2/inffast.o
 .debug_loc     0x00000000      0x8e2 /home/dangcaominh/STM32MP1/atf/stm32mp1_atf/../build/opteemin-nand-stm32mp157d-ev1/bl2/inffast.o
 .debug_aranges
                0x00000000       0x20 /home/dangcaominh/STM32MP1/atf/stm32mp1_atf/../build/opteemin-nand-stm32mp157d-ev1/bl2/inffast.o
 .debug_ranges  0x00000000       0x10 /home/dangcaominh/STM32MP1/atf/stm32mp1_atf/../build/opteemin-nand-stm32mp157d-ev1/bl2/inffast.o
 .debug_line    0x00000000      0x5db /home/dangcaominh/STM32MP1/atf/stm32mp1_atf/../build/opteemin-nand-stm32mp157d-ev1/bl2/inffast.o
 .debug_str     0x00000000      0x4a9 /home/dangcaominh/STM32MP1/atf/stm32mp1_atf/../build/opteemin-nand-stm32mp157d-ev1/bl2/inffast.o
 .comment       0x00000000       0x13 /home/dangcaominh/STM32MP1/atf/stm32mp1_atf/../build/opteemin-nand-stm32mp157d-ev1/bl2/inffast.o
 .note.GNU-stack
                0x00000000        0x0 /home/dangcaominh/STM32MP1/atf/stm32mp1_atf/../build/opteemin-nand-stm32mp157d-ev1/bl2/inffast.o
 .debug_frame   0x00000000       0x40 /home/dangcaominh/STM32MP1/atf/stm32mp1_atf/../build/opteemin-nand-stm32mp157d-ev1/bl2/inffast.o
 .ARM.attributes
                0x00000000       0x33 /home/dangcaominh/STM32MP1/atf/stm32mp1_atf/../build/opteemin-nand-stm32mp157d-ev1/bl2/inffast.o
 .text          0x00000000        0x0 /home/dangcaominh/STM32MP1/atf/stm32mp1_atf/../build/opteemin-nand-stm32mp157d-ev1/bl2/inflate.o
 .data          0x00000000        0x0 /home/dangcaominh/STM32MP1/atf/stm32mp1_atf/../build/opteemin-nand-stm32mp157d-ev1/bl2/inflate.o
 .bss           0x00000000        0x0 /home/dangcaominh/STM32MP1/atf/stm32mp1_atf/../build/opteemin-nand-stm32mp157d-ev1/bl2/inflate.o
 .text.syncsearch
                0x00000000       0x34 /home/dangcaominh/STM32MP1/atf/stm32mp1_atf/../build/opteemin-nand-stm32mp157d-ev1/bl2/inflate.o
 .text.updatewindow
                0x00000000       0x9c /home/dangcaominh/STM32MP1/atf/stm32mp1_atf/../build/opteemin-nand-stm32mp157d-ev1/bl2/inflate.o
 .text.inflateStateCheck
                0x00000000       0x2a /home/dangcaominh/STM32MP1/atf/stm32mp1_atf/../build/opteemin-nand-stm32mp157d-ev1/bl2/inflate.o
 .text.inflateResetKeep
                0x00000000       0x5c /home/dangcaominh/STM32MP1/atf/stm32mp1_atf/../build/opteemin-nand-stm32mp157d-ev1/bl2/inflate.o
 .text.inflateReset
                0x00000000       0x22 /home/dangcaominh/STM32MP1/atf/stm32mp1_atf/../build/opteemin-nand-stm32mp157d-ev1/bl2/inflate.o
 .text.inflateReset2
                0x00000000       0x5c /home/dangcaominh/STM32MP1/atf/stm32mp1_atf/../build/opteemin-nand-stm32mp157d-ev1/bl2/inflate.o
 .text.inflateInit2_
                0x00000000       0x6c /home/dangcaominh/STM32MP1/atf/stm32mp1_atf/../build/opteemin-nand-stm32mp157d-ev1/bl2/inflate.o
 .text.inflateInit_
                0x00000000        0xa /home/dangcaominh/STM32MP1/atf/stm32mp1_atf/../build/opteemin-nand-stm32mp157d-ev1/bl2/inflate.o
 .text.inflatePrime
                0x00000000       0x42 /home/dangcaominh/STM32MP1/atf/stm32mp1_atf/../build/opteemin-nand-stm32mp157d-ev1/bl2/inflate.o
 .rodata.inflate.str1.1
                0x00000000      0x1cd /home/dangcaominh/STM32MP1/atf/stm32mp1_atf/../build/opteemin-nand-stm32mp157d-ev1/bl2/inflate.o
 .text.inflate  0x00000000      0xe28 /home/dangcaominh/STM32MP1/atf/stm32mp1_atf/../build/opteemin-nand-stm32mp157d-ev1/bl2/inflate.o
 .text.inflateEnd
                0x00000000       0x2e /home/dangcaominh/STM32MP1/atf/stm32mp1_atf/../build/opteemin-nand-stm32mp157d-ev1/bl2/inflate.o
 .text.inflateGetDictionary
                0x00000000       0x44 /home/dangcaominh/STM32MP1/atf/stm32mp1_atf/../build/opteemin-nand-stm32mp157d-ev1/bl2/inflate.o
 .text.inflateSetDictionary
                0x00000000       0x64 /home/dangcaominh/STM32MP1/atf/stm32mp1_atf/../build/opteemin-nand-stm32mp157d-ev1/bl2/inflate.o
 .text.inflateGetHeader
                0x00000000       0x1e /home/dangcaominh/STM32MP1/atf/stm32mp1_atf/../build/opteemin-nand-stm32mp157d-ev1/bl2/inflate.o
 .text.inflateSync
                0x00000000       0xc6 /home/dangcaominh/STM32MP1/atf/stm32mp1_atf/../build/opteemin-nand-stm32mp157d-ev1/bl2/inflate.o
 .text.inflateSyncPoint
                0x00000000       0x26 /home/dangcaominh/STM32MP1/atf/stm32mp1_atf/../build/opteemin-nand-stm32mp157d-ev1/bl2/inflate.o
 .text.inflateCopy
                0x00000000       0xba /home/dangcaominh/STM32MP1/atf/stm32mp1_atf/../build/opteemin-nand-stm32mp157d-ev1/bl2/inflate.o
 .text.inflateUndermine
                0x00000000       0x22 /home/dangcaominh/STM32MP1/atf/stm32mp1_atf/../build/opteemin-nand-stm32mp157d-ev1/bl2/inflate.o
 .text.inflateValidate
                0x00000000       0x26 /home/dangcaominh/STM32MP1/atf/stm32mp1_atf/../build/opteemin-nand-stm32mp157d-ev1/bl2/inflate.o
 .text.inflateMark
                0x00000000       0x44 /home/dangcaominh/STM32MP1/atf/stm32mp1_atf/../build/opteemin-nand-stm32mp157d-ev1/bl2/inflate.o
 .text.inflateCodesUsed
                0x00000000       0x1e /home/dangcaominh/STM32MP1/atf/stm32mp1_atf/../build/opteemin-nand-stm32mp157d-ev1/bl2/inflate.o
 .rodata.distfix.0
                0x00000000       0x80 /home/dangcaominh/STM32MP1/atf/stm32mp1_atf/../build/opteemin-nand-stm32mp157d-ev1/bl2/inflate.o
 .rodata.lenfix.1
                0x00000000      0x800 /home/dangcaominh/STM32MP1/atf/stm32mp1_atf/../build/opteemin-nand-stm32mp157d-ev1/bl2/inflate.o
 .rodata.order.2
                0x00000000       0x26 /home/dangcaominh/STM32MP1/atf/stm32mp1_atf/../build/opteemin-nand-stm32mp157d-ev1/bl2/inflate.o
 .debug_info    0x00000000     0x1789 /home/dangcaominh/STM32MP1/atf/stm32mp1_atf/../build/opteemin-nand-stm32mp157d-ev1/bl2/inflate.o
 .debug_abbrev  0x00000000      0x41c /home/dangcaominh/STM32MP1/atf/stm32mp1_atf/../build/opteemin-nand-stm32mp157d-ev1/bl2/inflate.o
 .debug_loc     0x00000000     0x2101 /home/dangcaominh/STM32MP1/atf/stm32mp1_atf/../build/opteemin-nand-stm32mp157d-ev1/bl2/inflate.o
 .debug_aranges
                0x00000000       0xc0 /home/dangcaominh/STM32MP1/atf/stm32mp1_atf/../build/opteemin-nand-stm32mp157d-ev1/bl2/inflate.o
 .debug_ranges  0x00000000       0xb0 /home/dangcaominh/STM32MP1/atf/stm32mp1_atf/../build/opteemin-nand-stm32mp157d-ev1/bl2/inflate.o
 .debug_line    0x00000000     0x2173 /home/dangcaominh/STM32MP1/atf/stm32mp1_atf/../build/opteemin-nand-stm32mp157d-ev1/bl2/inflate.o
 .debug_str     0x00000000      0x68e /home/dangcaominh/STM32MP1/atf/stm32mp1_atf/../build/opteemin-nand-stm32mp157d-ev1/bl2/inflate.o
 .comment       0x00000000       0x13 /home/dangcaominh/STM32MP1/atf/stm32mp1_atf/../build/opteemin-nand-stm32mp157d-ev1/bl2/inflate.o
 .note.GNU-stack
                0x00000000        0x0 /home/dangcaominh/STM32MP1/atf/stm32mp1_atf/../build/opteemin-nand-stm32mp157d-ev1/bl2/inflate.o
 .debug_frame   0x00000000      0x278 /home/dangcaominh/STM32MP1/atf/stm32mp1_atf/../build/opteemin-nand-stm32mp157d-ev1/bl2/inflate.o
 .ARM.attributes
                0x00000000       0x33 /home/dangcaominh/STM32MP1/atf/stm32mp1_atf/../build/opteemin-nand-stm32mp157d-ev1/bl2/inflate.o
 .text          0x00000000        0x0 /home/dangcaominh/STM32MP1/atf/stm32mp1_atf/../build/opteemin-nand-stm32mp157d-ev1/bl2/inftrees.o
 .data          0x00000000        0x0 /home/dangcaominh/STM32MP1/atf/stm32mp1_atf/../build/opteemin-nand-stm32mp157d-ev1/bl2/inftrees.o
 .bss           0x00000000        0x0 /home/dangcaominh/STM32MP1/atf/stm32mp1_atf/../build/opteemin-nand-stm32mp157d-ev1/bl2/inftrees.o
 .text.inflate_table
                0x00000000      0x304 /home/dangcaominh/STM32MP1/atf/stm32mp1_atf/../build/opteemin-nand-stm32mp157d-ev1/bl2/inftrees.o
 .rodata.dext.0
                0x00000000       0x40 /home/dangcaominh/STM32MP1/atf/stm32mp1_atf/../build/opteemin-nand-stm32mp157d-ev1/bl2/inftrees.o
 .rodata.dbase.1
                0x00000000       0x40 /home/dangcaominh/STM32MP1/atf/stm32mp1_atf/../build/opteemin-nand-stm32mp157d-ev1/bl2/inftrees.o
 .rodata.lext.2
                0x00000000       0x3e /home/dangcaominh/STM32MP1/atf/stm32mp1_atf/../build/opteemin-nand-stm32mp157d-ev1/bl2/inftrees.o
 .rodata.lbase.3
                0x00000000       0x3e /home/dangcaominh/STM32MP1/atf/stm32mp1_atf/../build/opteemin-nand-stm32mp157d-ev1/bl2/inftrees.o
 .rodata.inflate_copyright
                0x00000000       0x2d /home/dangcaominh/STM32MP1/atf/stm32mp1_atf/../build/opteemin-nand-stm32mp157d-ev1/bl2/inftrees.o
 .debug_info    0x00000000      0x3c0 /home/dangcaominh/STM32MP1/atf/stm32mp1_atf/../build/opteemin-nand-stm32mp157d-ev1/bl2/inftrees.o
 .debug_abbrev  0x00000000      0x126 /home/dangcaominh/STM32MP1/atf/stm32mp1_atf/../build/opteemin-nand-stm32mp157d-ev1/bl2/inftrees.o
 .debug_loc     0x00000000      0x779 /home/dangcaominh/STM32MP1/atf/stm32mp1_atf/../build/opteemin-nand-stm32mp157d-ev1/bl2/inftrees.o
 .debug_aranges
                0x00000000       0x20 /home/dangcaominh/STM32MP1/atf/stm32mp1_atf/../build/opteemin-nand-stm32mp157d-ev1/bl2/inftrees.o
 .debug_ranges  0x00000000       0x10 /home/dangcaominh/STM32MP1/atf/stm32mp1_atf/../build/opteemin-nand-stm32mp157d-ev1/bl2/inftrees.o
 .debug_line    0x00000000      0x498 /home/dangcaominh/STM32MP1/atf/stm32mp1_atf/../build/opteemin-nand-stm32mp157d-ev1/bl2/inftrees.o
 .debug_str     0x00000000      0x261 /home/dangcaominh/STM32MP1/atf/stm32mp1_atf/../build/opteemin-nand-stm32mp157d-ev1/bl2/inftrees.o
 .comment       0x00000000       0x13 /home/dangcaominh/STM32MP1/atf/stm32mp1_atf/../build/opteemin-nand-stm32mp157d-ev1/bl2/inftrees.o
 .note.GNU-stack
                0x00000000        0x0 /home/dangcaominh/STM32MP1/atf/stm32mp1_atf/../build/opteemin-nand-stm32mp157d-ev1/bl2/inftrees.o
 .debug_frame   0x00000000       0x40 /home/dangcaominh/STM32MP1/atf/stm32mp1_atf/../build/opteemin-nand-stm32mp157d-ev1/bl2/inftrees.o
 .ARM.attributes
                0x00000000       0x33 /home/dangcaominh/STM32MP1/atf/stm32mp1_atf/../build/opteemin-nand-stm32mp157d-ev1/bl2/inftrees.o
 .text          0x00000000        0x0 /home/dangcaominh/STM32MP1/atf/stm32mp1_atf/../build/opteemin-nand-stm32mp157d-ev1/bl2/tf_gunzip.o
 .data          0x00000000        0x0 /home/dangcaominh/STM32MP1/atf/stm32mp1_atf/../build/opteemin-nand-stm32mp157d-ev1/bl2/tf_gunzip.o
 .bss           0x00000000        0x0 /home/dangcaominh/STM32MP1/atf/stm32mp1_atf/../build/opteemin-nand-stm32mp157d-ev1/bl2/tf_gunzip.o
 .text.zfree    0x00000000        0x2 /home/dangcaominh/STM32MP1/atf/stm32mp1_atf/../build/opteemin-nand-stm32mp157d-ev1/bl2/tf_gunzip.o
 .text.zcalloc  0x00000000       0x34 /home/dangcaominh/STM32MP1/atf/stm32mp1_atf/../build/opteemin-nand-stm32mp157d-ev1/bl2/tf_gunzip.o
 .rodata.gunzip.str1.1
                0x00000000       0x52 /home/dangcaominh/STM32MP1/atf/stm32mp1_atf/../build/opteemin-nand-stm32mp157d-ev1/bl2/tf_gunzip.o
 .text.gunzip   0x00000000       0xb0 /home/dangcaominh/STM32MP1/atf/stm32mp1_atf/../build/opteemin-nand-stm32mp157d-ev1/bl2/tf_gunzip.o
 .bss.zalloc_current
                0x00000000        0x4 /home/dangcaominh/STM32MP1/atf/stm32mp1_atf/../build/opteemin-nand-stm32mp157d-ev1/bl2/tf_gunzip.o
 .bss.zalloc_end
                0x00000000        0x4 /home/dangcaominh/STM32MP1/atf/stm32mp1_atf/../build/opteemin-nand-stm32mp157d-ev1/bl2/tf_gunzip.o
 .text          0x00000000        0x0 /home/dangcaominh/STM32MP1/atf/stm32mp1_atf/../build/opteemin-nand-stm32mp157d-ev1/bl2/zutil.o
 .data          0x00000000        0x0 /home/dangcaominh/STM32MP1/atf/stm32mp1_atf/../build/opteemin-nand-stm32mp157d-ev1/bl2/zutil.o
 .bss           0x00000000        0x0 /home/dangcaominh/STM32MP1/atf/stm32mp1_atf/../build/opteemin-nand-stm32mp157d-ev1/bl2/zutil.o
 .rodata.zlibVersion.str1.1
                0x00000000        0x4 /home/dangcaominh/STM32MP1/atf/stm32mp1_atf/../build/opteemin-nand-stm32mp157d-ev1/bl2/zutil.o
 .text.zlibVersion
                0x00000000        0x8 /home/dangcaominh/STM32MP1/atf/stm32mp1_atf/../build/opteemin-nand-stm32mp157d-ev1/bl2/zutil.o
 .text.zlibCompileFlags
                0x00000000        0x4 /home/dangcaominh/STM32MP1/atf/stm32mp1_atf/../build/opteemin-nand-stm32mp157d-ev1/bl2/zutil.o
 .text.zError   0x00000000       0x10 /home/dangcaominh/STM32MP1/atf/stm32mp1_atf/../build/opteemin-nand-stm32mp157d-ev1/bl2/zutil.o
 .text.zmemcpy  0x00000000       0x14 /home/dangcaominh/STM32MP1/atf/stm32mp1_atf/../build/opteemin-nand-stm32mp157d-ev1/bl2/zutil.o
 .text.zmemcmp  0x00000000       0x24 /home/dangcaominh/STM32MP1/atf/stm32mp1_atf/../build/opteemin-nand-stm32mp157d-ev1/bl2/zutil.o
 .text.zmemzero
                0x00000000       0x10 /home/dangcaominh/STM32MP1/atf/stm32mp1_atf/../build/opteemin-nand-stm32mp157d-ev1/bl2/zutil.o
 .rodata.str1.1
                0x00000000       0x75 /home/dangcaominh/STM32MP1/atf/stm32mp1_atf/../build/opteemin-nand-stm32mp157d-ev1/bl2/zutil.o
 .rodata.z_errmsg
                0x00000000       0x28 /home/dangcaominh/STM32MP1/atf/stm32mp1_atf/../build/opteemin-nand-stm32mp157d-ev1/bl2/zutil.o
 .debug_info    0x00000000      0x242 /home/dangcaominh/STM32MP1/atf/stm32mp1_atf/../build/opteemin-nand-stm32mp157d-ev1/bl2/zutil.o
 .debug_abbrev  0x00000000      0x134 /home/dangcaominh/STM32MP1/atf/stm32mp1_atf/../build/opteemin-nand-stm32mp157d-ev1/bl2/zutil.o
 .debug_loc     0x00000000      0x1f1 /home/dangcaominh/STM32MP1/atf/stm32mp1_atf/../build/opteemin-nand-stm32mp157d-ev1/bl2/zutil.o
 .debug_aranges
                0x00000000       0x48 /home/dangcaominh/STM32MP1/atf/stm32mp1_atf/../build/opteemin-nand-stm32mp157d-ev1/bl2/zutil.o
 .debug_ranges  0x00000000       0x38 /home/dangcaominh/STM32MP1/atf/stm32mp1_atf/../build/opteemin-nand-stm32mp157d-ev1/bl2/zutil.o
 .debug_line    0x00000000      0x1a0 /home/dangcaominh/STM32MP1/atf/stm32mp1_atf/../build/opteemin-nand-stm32mp157d-ev1/bl2/zutil.o
 .debug_str     0x00000000      0x204 /home/dangcaominh/STM32MP1/atf/stm32mp1_atf/../build/opteemin-nand-stm32mp157d-ev1/bl2/zutil.o
 .comment       0x00000000       0x13 /home/dangcaominh/STM32MP1/atf/stm32mp1_atf/../build/opteemin-nand-stm32mp157d-ev1/bl2/zutil.o
 .note.GNU-stack
                0x00000000        0x0 /home/dangcaominh/STM32MP1/atf/stm32mp1_atf/../build/opteemin-nand-stm32mp157d-ev1/bl2/zutil.o
 .debug_frame   0x00000000       0x7c /home/dangcaominh/STM32MP1/atf/stm32mp1_atf/../build/opteemin-nand-stm32mp157d-ev1/bl2/zutil.o
 .ARM.attributes
                0x00000000       0x33 /home/dangcaominh/STM32MP1/atf/stm32mp1_atf/../build/opteemin-nand-stm32mp157d-ev1/bl2/zutil.o
 .text          0x00000000        0x0 /home/dangcaominh/STM32MP1/atf/stm32mp1_atf/../build/opteemin-nand-stm32mp157d-ev1/bl2/plat_common.o
 .data          0x00000000        0x0 /home/dangcaominh/STM32MP1/atf/stm32mp1_atf/../build/opteemin-nand-stm32mp157d-ev1/bl2/plat_common.o
 .bss           0x00000000        0x0 /home/dangcaominh/STM32MP1/atf/stm32mp1_atf/../build/opteemin-nand-stm32mp157d-ev1/bl2/plat_common.o
 .text.bl32_plat_enable_mmu
                0x00000000        0x4 /home/dangcaominh/STM32MP1/atf/stm32mp1_atf/../build/opteemin-nand-stm32mp157d-ev1/bl2/plat_common.o
 .debug_info    0x00000000      0x110 /home/dangcaominh/STM32MP1/atf/stm32mp1_atf/../build/opteemin-nand-stm32mp157d-ev1/bl2/plat_common.o
 .debug_abbrev  0x00000000       0xb3 /home/dangcaominh/STM32MP1/atf/stm32mp1_atf/../build/opteemin-nand-stm32mp157d-ev1/bl2/plat_common.o
 .debug_loc     0x00000000       0x2b /home/dangcaominh/STM32MP1/atf/stm32mp1_atf/../build/opteemin-nand-stm32mp157d-ev1/bl2/plat_common.o
 .debug_aranges
                0x00000000       0x20 /home/dangcaominh/STM32MP1/atf/stm32mp1_atf/../build/opteemin-nand-stm32mp157d-ev1/bl2/plat_common.o
 .debug_ranges  0x00000000       0x10 /home/dangcaominh/STM32MP1/atf/stm32mp1_atf/../build/opteemin-nand-stm32mp157d-ev1/bl2/plat_common.o
 .debug_line    0x00000000       0xbf /home/dangcaominh/STM32MP1/atf/stm32mp1_atf/../build/opteemin-nand-stm32mp157d-ev1/bl2/plat_common.o
 .debug_str     0x00000000      0x23d /home/dangcaominh/STM32MP1/atf/stm32mp1_atf/../build/opteemin-nand-stm32mp157d-ev1/bl2/plat_common.o
 .comment       0x00000000       0x13 /home/dangcaominh/STM32MP1/atf/stm32mp1_atf/../build/opteemin-nand-stm32mp157d-ev1/bl2/plat_common.o
 .note.GNU-stack
                0x00000000        0x0 /home/dangcaominh/STM32MP1/atf/stm32mp1_atf/../build/opteemin-nand-stm32mp157d-ev1/bl2/plat_common.o
 .debug_frame   0x00000000       0x20 /home/dangcaominh/STM32MP1/atf/stm32mp1_atf/../build/opteemin-nand-stm32mp157d-ev1/bl2/plat_common.o
 .ARM.attributes
                0x00000000       0x33 /home/dangcaominh/STM32MP1/atf/stm32mp1_atf/../build/opteemin-nand-stm32mp157d-ev1/bl2/plat_common.o
 .text          0x00000000        0x0 /home/dangcaominh/STM32MP1/atf/stm32mp1_atf/../build/opteemin-nand-stm32mp157d-ev1/bl2/plat_bl_common.o
 .data          0x00000000        0x0 /home/dangcaominh/STM32MP1/atf/stm32mp1_atf/../build/opteemin-nand-stm32mp157d-ev1/bl2/plat_bl_common.o
 .bss           0x00000000        0x0 /home/dangcaominh/STM32MP1/atf/stm32mp1_atf/../build/opteemin-nand-stm32mp157d-ev1/bl2/plat_bl_common.o
 .text.plat_get_soc_version
                0x00000000        0x6 /home/dangcaominh/STM32MP1/atf/stm32mp1_atf/../build/opteemin-nand-stm32mp157d-ev1/bl2/plat_bl_common.o
 .text.plat_get_soc_revision
                0x00000000        0x6 /home/dangcaominh/STM32MP1/atf/stm32mp1_atf/../build/opteemin-nand-stm32mp157d-ev1/bl2/plat_bl_common.o
 .text.plat_is_smccc_feature_available
                0x00000000        0x6 /home/dangcaominh/STM32MP1/atf/stm32mp1_atf/../build/opteemin-nand-stm32mp157d-ev1/bl2/plat_bl_common.o
 .text.bl2_el3_plat_prepare_exit
                0x00000000        0x2 /home/dangcaominh/STM32MP1/atf/stm32mp1_atf/../build/opteemin-nand-stm32mp157d-ev1/bl2/plat_bl_common.o
 .text.bl2_plat_handle_pre_image_load
                0x00000000        0x4 /home/dangcaominh/STM32MP1/atf/stm32mp1_atf/../build/opteemin-nand-stm32mp157d-ev1/bl2/plat_bl_common.o
 .text.bl2_plat_handle_post_image_load
                0x00000000        0x4 /home/dangcaominh/STM32MP1/atf/stm32mp1_atf/../build/opteemin-nand-stm32mp157d-ev1/bl2/plat_bl_common.o
 .text.plat_try_next_boot_source
                0x00000000        0x4 /home/dangcaominh/STM32MP1/atf/stm32mp1_atf/../build/opteemin-nand-stm32mp157d-ev1/bl2/plat_bl_common.o
 .text.plat_try_backup_partitions
                0x00000000        0x4 /home/dangcaominh/STM32MP1/atf/stm32mp1_atf/../build/opteemin-nand-stm32mp157d-ev1/bl2/plat_bl_common.o
 .rodata.plat_get_enc_key_info.str1.1
                0x00000000       0x3e /home/dangcaominh/STM32MP1/atf/stm32mp1_atf/../build/opteemin-nand-stm32mp157d-ev1/bl2/plat_bl_common.o
 .text.plat_get_enc_key_info
                0x00000000       0x40 /home/dangcaominh/STM32MP1/atf/stm32mp1_atf/../build/opteemin-nand-stm32mp157d-ev1/bl2/plat_bl_common.o
 .text.setup_page_tables
                0x00000000       0x16 /home/dangcaominh/STM32MP1/atf/stm32mp1_atf/../build/opteemin-nand-stm32mp157d-ev1/bl2/plat_bl_common.o
 .text          0x00000000        0x0 /home/dangcaominh/STM32MP1/atf/stm32mp1_atf/../build/opteemin-nand-stm32mp157d-ev1/bl2/plat_log_common.o
 .data          0x00000000        0x0 /home/dangcaominh/STM32MP1/atf/stm32mp1_atf/../build/opteemin-nand-stm32mp157d-ev1/bl2/plat_log_common.o
 .bss           0x00000000        0x0 /home/dangcaominh/STM32MP1/atf/stm32mp1_atf/../build/opteemin-nand-stm32mp157d-ev1/bl2/plat_log_common.o
 .text          0x00000000        0x0 /home/dangcaominh/STM32MP1/atf/stm32mp1_atf/../build/opteemin-nand-stm32mp157d-ev1/bl2/bl2_io_storage.o
 .data          0x00000000        0x0 /home/dangcaominh/STM32MP1/atf/stm32mp1_atf/../build/opteemin-nand-stm32mp157d-ev1/bl2/bl2_io_storage.o
 .bss           0x00000000        0x0 /home/dangcaominh/STM32MP1/atf/stm32mp1_atf/../build/opteemin-nand-stm32mp157d-ev1/bl2/bl2_io_storage.o
 .text.stm32mp_io_exit
                0x00000000       0x20 /home/dangcaominh/STM32MP1/atf/stm32mp1_atf/../build/opteemin-nand-stm32mp157d-ev1/bl2/bl2_io_storage.o
 .text          0x00000000        0x0 /home/dangcaominh/STM32MP1/atf/stm32mp1_atf/../build/opteemin-nand-stm32mp157d-ev1/bl2/plat_image_load.o
 .data          0x00000000        0x0 /home/dangcaominh/STM32MP1/atf/stm32mp1_atf/../build/opteemin-nand-stm32mp157d-ev1/bl2/plat_image_load.o
 .bss           0x00000000        0x0 /home/dangcaominh/STM32MP1/atf/stm32mp1_atf/../build/opteemin-nand-stm32mp157d-ev1/bl2/plat_image_load.o
 .text          0x00000000        0x0 /home/dangcaominh/STM32MP1/atf/stm32mp1_atf/../build/opteemin-nand-stm32mp157d-ev1/bl2/stm32mp_common.o
 .data          0x00000000        0x0 /home/dangcaominh/STM32MP1/atf/stm32mp1_atf/../build/opteemin-nand-stm32mp157d-ev1/bl2/stm32mp_common.o
 .bss           0x00000000        0x0 /home/dangcaominh/STM32MP1/atf/stm32mp1_atf/../build/opteemin-nand-stm32mp157d-ev1/bl2/stm32mp_common.o
 .text.plat_get_ns_image_entrypoint
                0x00000000        0x8 /home/dangcaominh/STM32MP1/atf/stm32mp1_atf/../build/opteemin-nand-stm32mp157d-ev1/bl2/stm32mp_common.o
 .rodata.stm32_lock_enc_key_otp.str1.1
                0x00000000        0xc /home/dangcaominh/STM32MP1/atf/stm32mp1_atf/../build/opteemin-nand-stm32mp157d-ev1/bl2/stm32mp_common.o
 .text.stm32_lock_enc_key_otp
                0x00000000       0x48 /home/dangcaominh/STM32MP1/atf/stm32mp1_atf/../build/opteemin-nand-stm32mp157d-ev1/bl2/stm32mp_common.o
 .rodata.stm32_get_uid_otp.str1.1
                0x00000000       0x5e /home/dangcaominh/STM32MP1/atf/stm32mp1_atf/../build/opteemin-nand-stm32mp157d-ev1/bl2/stm32mp_common.o
 .text.stm32_get_uid_otp
                0x00000000       0x60 /home/dangcaominh/STM32MP1/atf/stm32mp1_atf/../build/opteemin-nand-stm32mp157d-ev1/bl2/stm32mp_common.o
 .rodata.stm32_get_enc_key_otp_idx_len.str1.1
                0x00000000       0x19 /home/dangcaominh/STM32MP1/atf/stm32mp1_atf/../build/opteemin-nand-stm32mp157d-ev1/bl2/stm32mp_common.o
 .text.stm32_get_enc_key_otp_idx_len
                0x00000000       0x4c /home/dangcaominh/STM32MP1/atf/stm32mp1_atf/../build/opteemin-nand-stm32mp157d-ev1/bl2/stm32mp_common.o
 .text.stm32mp_uart_console_is_running
                0x00000000       0x28 /home/dangcaominh/STM32MP1/atf/stm32mp1_atf/../build/opteemin-nand-stm32mp157d-ev1/bl2/stm32mp_common.o
 .text.plat_is_smccc_feature_available
                0x00000000       0x10 /home/dangcaominh/STM32MP1/atf/stm32mp1_atf/../build/opteemin-nand-stm32mp157d-ev1/bl2/stm32mp_common.o
 .text.plat_get_soc_version
                0x00000000        0xe /home/dangcaominh/STM32MP1/atf/stm32mp1_atf/../build/opteemin-nand-stm32mp157d-ev1/bl2/stm32mp_common.o
 .text.plat_get_soc_revision
                0x00000000        0xc /home/dangcaominh/STM32MP1/atf/stm32mp1_atf/../build/opteemin-nand-stm32mp157d-ev1/bl2/stm32mp_common.o
 .text.stm32_get_boot_interface
                0x00000000       0x50 /home/dangcaominh/STM32MP1/atf/stm32mp1_atf/../build/opteemin-nand-stm32mp157d-ev1/bl2/stm32mp_common.o
 .bss.itf.8     0x00000000        0x4 /home/dangcaominh/STM32MP1/atf/stm32mp1_atf/../build/opteemin-nand-stm32mp157d-ev1/bl2/stm32mp_common.o
 .rodata.__func__.9
                0x00000000       0x1e /home/dangcaominh/STM32MP1/atf/stm32mp1_atf/../build/opteemin-nand-stm32mp157d-ev1/bl2/stm32mp_common.o
 .bss.idx.10    0x00000000        0x4 /home/dangcaominh/STM32MP1/atf/stm32mp1_atf/../build/opteemin-nand-stm32mp157d-ev1/bl2/stm32mp_common.o
 .bss.len.11    0x00000000        0x4 /home/dangcaominh/STM32MP1/atf/stm32mp1_atf/../build/opteemin-nand-stm32mp157d-ev1/bl2/stm32mp_common.o
 .text          0x00000000        0x0 /home/dangcaominh/STM32MP1/atf/stm32mp1_atf/../build/opteemin-nand-stm32mp157d-ev1/bl2/stm32mp_dt.o
 .data          0x00000000        0x0 /home/dangcaominh/STM32MP1/atf/stm32mp1_atf/../build/opteemin-nand-stm32mp157d-ev1/bl2/stm32mp_dt.o
 .bss           0x00000000        0x0 /home/dangcaominh/STM32MP1/atf/stm32mp1_atf/../build/opteemin-nand-stm32mp157d-ev1/bl2/stm32mp_dt.o
 .text.dt_match_instance_by_compatible
                0x00000000       0x70 /home/dangcaominh/STM32MP1/atf/stm32mp1_atf/../build/opteemin-nand-stm32mp157d-ev1/bl2/stm32mp_dt.o
 .rodata.dt_get_cpu_regulator.str1.1
                0x00000000       0x10 /home/dangcaominh/STM32MP1/atf/stm32mp1_atf/../build/opteemin-nand-stm32mp157d-ev1/bl2/stm32mp_dt.o
 .text.dt_get_cpu_regulator
                0x00000000       0x2c /home/dangcaominh/STM32MP1/atf/stm32mp1_atf/../build/opteemin-nand-stm32mp157d-ev1/bl2/stm32mp_dt.o
 .rodata.dt_get_sysram_regulator.str1.1
                0x00000000       0x12 /home/dangcaominh/STM32MP1/atf/stm32mp1_atf/../build/opteemin-nand-stm32mp157d-ev1/bl2/stm32mp_dt.o
 .text.dt_get_sysram_regulator
                0x00000000       0x74 /home/dangcaominh/STM32MP1/atf/stm32mp1_atf/../build/opteemin-nand-stm32mp157d-ev1/bl2/stm32mp_dt.o
 .rodata.fdt_get_gpio_bank_pin_count.str1.1
                0x00000000       0x1c /home/dangcaominh/STM32MP1/atf/stm32mp1_atf/../build/opteemin-nand-stm32mp157d-ev1/bl2/stm32mp_dt.o
 .text.fdt_get_gpio_bank_pin_count
                0x00000000       0xd4 /home/dangcaominh/STM32MP1/atf/stm32mp1_atf/../build/opteemin-nand-stm32mp157d-ev1/bl2/stm32mp_dt.o
 .text          0x00000000        0x0 /home/dangcaominh/STM32MP1/atf/stm32mp1_atf/../build/opteemin-nand-stm32mp157d-ev1/bl2/stm32mp_fconf_fuse.o
 .data          0x00000000        0x0 /home/dangcaominh/STM32MP1/atf/stm32mp1_atf/../build/opteemin-nand-stm32mp157d-ev1/bl2/stm32mp_fconf_fuse.o
 .bss           0x00000000        0x0 /home/dangcaominh/STM32MP1/atf/stm32mp1_atf/../build/opteemin-nand-stm32mp157d-ev1/bl2/stm32mp_fconf_fuse.o
 .text          0x00000000        0x0 /home/dangcaominh/STM32MP1/atf/stm32mp1_atf/../build/opteemin-nand-stm32mp157d-ev1/bl2/stm32mp_fconf_io.o
 .data          0x00000000        0x0 /home/dangcaominh/STM32MP1/atf/stm32mp1_atf/../build/opteemin-nand-stm32mp157d-ev1/bl2/stm32mp_fconf_io.o
 .bss           0x00000000        0x0 /home/dangcaominh/STM32MP1/atf/stm32mp1_atf/../build/opteemin-nand-stm32mp157d-ev1/bl2/stm32mp_fconf_io.o
 .text          0x00000000        0x0 /home/dangcaominh/STM32MP1/atf/stm32mp1_atf/../build/opteemin-nand-stm32mp157d-ev1/bl2/bl2_plat_setup.o
 .data          0x00000000        0x0 /home/dangcaominh/STM32MP1/atf/stm32mp1_atf/../build/opteemin-nand-stm32mp157d-ev1/bl2/bl2_plat_setup.o
 .bss           0x00000000        0x0 /home/dangcaominh/STM32MP1/atf/stm32mp1_atf/../build/opteemin-nand-stm32mp157d-ev1/bl2/bl2_plat_setup.o
 .text          0x00000000        0x0 /home/dangcaominh/STM32MP1/atf/stm32mp1_atf/../build/opteemin-nand-stm32mp157d-ev1/bl2/plat_bl2_mem_params_desc.o
 .data          0x00000000        0x0 /home/dangcaominh/STM32MP1/atf/stm32mp1_atf/../build/opteemin-nand-stm32mp157d-ev1/bl2/plat_bl2_mem_params_desc.o
 .bss           0x00000000        0x0 /home/dangcaominh/STM32MP1/atf/stm32mp1_atf/../build/opteemin-nand-stm32mp157d-ev1/bl2/plat_bl2_mem_params_desc.o
 .text          0x00000000        0x0 /home/dangcaominh/STM32MP1/atf/stm32mp1_atf/../build/opteemin-nand-stm32mp157d-ev1/bl2/plat_ddr.o
 .data          0x00000000        0x0 /home/dangcaominh/STM32MP1/atf/stm32mp1_atf/../build/opteemin-nand-stm32mp157d-ev1/bl2/plat_ddr.o
 .bss           0x00000000        0x0 /home/dangcaominh/STM32MP1/atf/stm32mp1_atf/../build/opteemin-nand-stm32mp157d-ev1/bl2/plat_ddr.o
 .text          0x00000000        0x0 /home/dangcaominh/STM32MP1/atf/stm32mp1_atf/../build/opteemin-nand-stm32mp157d-ev1/bl2/stm32mp1_boot_device.o
 .data          0x00000000        0x0 /home/dangcaominh/STM32MP1/atf/stm32mp1_atf/../build/opteemin-nand-stm32mp157d-ev1/bl2/stm32mp1_boot_device.o
 .bss           0x00000000        0x0 /home/dangcaominh/STM32MP1/atf/stm32mp1_atf/../build/opteemin-nand-stm32mp157d-ev1/bl2/stm32mp1_boot_device.o
 .text          0x00000000        0x0 /home/dangcaominh/STM32MP1/atf/stm32mp1_atf/../build/opteemin-nand-stm32mp157d-ev1/bl2/stm32mp1_context.o
 .data          0x00000000        0x0 /home/dangcaominh/STM32MP1/atf/stm32mp1_atf/../build/opteemin-nand-stm32mp157d-ev1/bl2/stm32mp1_context.o
 .bss           0x00000000        0x0 /home/dangcaominh/STM32MP1/atf/stm32mp1_atf/../build/opteemin-nand-stm32mp157d-ev1/bl2/stm32mp1_context.o
 .text          0x00000000        0x0 /home/dangcaominh/STM32MP1/atf/stm32mp1_atf/../build/opteemin-nand-stm32mp157d-ev1/bl2/stm32mp1_critic_power.o
 .data          0x00000000        0x0 /home/dangcaominh/STM32MP1/atf/stm32mp1_atf/../build/opteemin-nand-stm32mp157d-ev1/bl2/stm32mp1_critic_power.o
 .bss           0x00000000        0x0 /home/dangcaominh/STM32MP1/atf/stm32mp1_atf/../build/opteemin-nand-stm32mp157d-ev1/bl2/stm32mp1_critic_power.o
 .text          0x00000000        0x0 /home/dangcaominh/STM32MP1/atf/stm32mp1_atf/../build/opteemin-nand-stm32mp157d-ev1/bl2/stm32mp1_dbgmcu.o
 .data          0x00000000        0x0 /home/dangcaominh/STM32MP1/atf/stm32mp1_atf/../build/opteemin-nand-stm32mp157d-ev1/bl2/stm32mp1_dbgmcu.o
 .bss           0x00000000        0x0 /home/dangcaominh/STM32MP1/atf/stm32mp1_atf/../build/opteemin-nand-stm32mp157d-ev1/bl2/stm32mp1_dbgmcu.o
 .text          0x00000000        0x0 /home/dangcaominh/STM32MP1/atf/stm32mp1_atf/../build/opteemin-nand-stm32mp157d-ev1/bl2/stm32mp1_fconf_firewall.o
 .data          0x00000000        0x0 /home/dangcaominh/STM32MP1/atf/stm32mp1_atf/../build/opteemin-nand-stm32mp157d-ev1/bl2/stm32mp1_fconf_firewall.o
 .bss           0x00000000        0x0 /home/dangcaominh/STM32MP1/atf/stm32mp1_atf/../build/opteemin-nand-stm32mp157d-ev1/bl2/stm32mp1_fconf_firewall.o
 .text          0x00000000        0x0 /home/dangcaominh/STM32MP1/atf/stm32mp1_atf/../build/opteemin-nand-stm32mp157d-ev1/bl2/stm32mp1_private.o
 .data          0x00000000        0x0 /home/dangcaominh/STM32MP1/atf/stm32mp1_atf/../build/opteemin-nand-stm32mp157d-ev1/bl2/stm32mp1_private.o
 .bss           0x00000000        0x0 /home/dangcaominh/STM32MP1/atf/stm32mp1_atf/../build/opteemin-nand-stm32mp157d-ev1/bl2/stm32mp1_private.o
 .text.stm32_gpio_is_secure_at_reset
                0x00000000        0xa /home/dangcaominh/STM32MP1/atf/stm32mp1_atf/../build/opteemin-nand-stm32mp157d-ev1/bl2/stm32mp1_private.o
 .rodata.stm32_get_gpio_bank_pinctrl_node.str1.1
                0x00000000       0x2e /home/dangcaominh/STM32MP1/atf/stm32mp1_atf/../build/opteemin-nand-stm32mp157d-ev1/bl2/stm32mp1_private.o
 .text.stm32_get_gpio_bank_pinctrl_node
                0x00000000       0x2c /home/dangcaominh/STM32MP1/atf/stm32mp1_atf/../build/opteemin-nand-stm32mp157d-ev1/bl2/stm32mp1_private.o
 .text.stm32_get_header_address
                0x00000000        0x8 /home/dangcaominh/STM32MP1/atf/stm32mp1_atf/../build/opteemin-nand-stm32mp157d-ev1/bl2/stm32mp1_private.o
 .text.stm32mp_is_single_core
                0x00000000       0x2c /home/dangcaominh/STM32MP1/atf/stm32mp1_atf/../build/opteemin-nand-stm32mp157d-ev1/bl2/stm32mp1_private.o
 .text.stm32mp_is_auth_supported
                0x00000000       0x40 /home/dangcaominh/STM32MP1/atf/stm32mp1_atf/../build/opteemin-nand-stm32mp157d-ev1/bl2/stm32mp1_private.o
 .text          0x00000000        0x0 /home/dangcaominh/STM32MP1/atf/stm32mp1_atf/../build/opteemin-nand-stm32mp157d-ev1/bl2/stm32mp1_syscfg.o
 .data          0x00000000        0x0 /home/dangcaominh/STM32MP1/atf/stm32mp1_atf/../build/opteemin-nand-stm32mp157d-ev1/bl2/stm32mp1_syscfg.o
 .bss           0x00000000        0x0 /home/dangcaominh/STM32MP1/atf/stm32mp1_atf/../build/opteemin-nand-stm32mp157d-ev1/bl2/stm32mp1_syscfg.o
 .text.stm32mp_syscfg_disable_io_compensation
                0x00000000       0x44 /home/dangcaominh/STM32MP1/atf/stm32mp1_atf/../build/opteemin-nand-stm32mp157d-ev1/bl2/stm32mp1_syscfg.o
 .text.stm32mp_syscfg_get_chip_version
                0x00000000       0x10 /home/dangcaominh/STM32MP1/atf/stm32mp1_atf/../build/opteemin-nand-stm32mp157d-ev1/bl2/stm32mp1_syscfg.o
 .text.stm32mp_syscfg_get_chip_dev_id
                0x00000000       0x10 /home/dangcaominh/STM32MP1/atf/stm32mp1_atf/../build/opteemin-nand-stm32mp157d-ev1/bl2/stm32mp1_syscfg.o
 .text          0x00000000        0x0 /home/dangcaominh/STM32MP1/atf/stm32mp1_atf/../build/opteemin-nand-stm32mp157d-ev1/bl2/bl2_el3_entrypoint.o
 .data          0x00000000        0x0 /home/dangcaominh/STM32MP1/atf/stm32mp1_atf/../build/opteemin-nand-stm32mp157d-ev1/bl2/bl2_el3_entrypoint.o
 .bss           0x00000000        0x0 /home/dangcaominh/STM32MP1/atf/stm32mp1_atf/../build/opteemin-nand-stm32mp157d-ev1/bl2/bl2_el3_entrypoint.o
 .text          0x00000000        0x0 /home/dangcaominh/STM32MP1/atf/stm32mp1_atf/../build/opteemin-nand-stm32mp157d-ev1/bl2/bl2_el3_exceptions.o
 .data          0x00000000        0x0 /home/dangcaominh/STM32MP1/atf/stm32mp1_atf/../build/opteemin-nand-stm32mp157d-ev1/bl2/bl2_el3_exceptions.o
 .bss           0x00000000        0x0 /home/dangcaominh/STM32MP1/atf/stm32mp1_atf/../build/opteemin-nand-stm32mp157d-ev1/bl2/bl2_el3_exceptions.o
 .text          0x00000000        0x0 /home/dangcaominh/STM32MP1/atf/stm32mp1_atf/../build/opteemin-nand-stm32mp157d-ev1/bl2/bl2_run_next_image.o
 .data          0x00000000        0x0 /home/dangcaominh/STM32MP1/atf/stm32mp1_atf/../build/opteemin-nand-stm32mp157d-ev1/bl2/bl2_run_next_image.o
 .bss           0x00000000        0x0 /home/dangcaominh/STM32MP1/atf/stm32mp1_atf/../build/opteemin-nand-stm32mp157d-ev1/bl2/bl2_run_next_image.o
 .text          0x00000000        0x0 /home/dangcaominh/STM32MP1/atf/stm32mp1_atf/../build/opteemin-nand-stm32mp157d-ev1/bl2/debug.o
 .data          0x00000000        0x0 /home/dangcaominh/STM32MP1/atf/stm32mp1_atf/../build/opteemin-nand-stm32mp157d-ev1/bl2/debug.o
 .bss           0x00000000        0x0 /home/dangcaominh/STM32MP1/atf/stm32mp1_atf/../build/opteemin-nand-stm32mp157d-ev1/bl2/debug.o
 .text          0x00000000        0x0 /home/dangcaominh/STM32MP1/atf/stm32mp1_atf/../build/opteemin-nand-stm32mp157d-ev1/bl2/stm32_console.o
 .data          0x00000000        0x0 /home/dangcaominh/STM32MP1/atf/stm32mp1_atf/../build/opteemin-nand-stm32mp157d-ev1/bl2/stm32_console.o
 .bss           0x00000000        0x0 /home/dangcaominh/STM32MP1/atf/stm32mp1_atf/../build/opteemin-nand-stm32mp157d-ev1/bl2/stm32_console.o
 .text.asm.console_stm32_core_getc
                0x00000000        0x8 /home/dangcaominh/STM32MP1/atf/stm32mp1_atf/../build/opteemin-nand-stm32mp157d-ev1/bl2/stm32_console.o
 .text          0x00000000        0x0 /home/dangcaominh/STM32MP1/atf/stm32mp1_atf/../build/opteemin-nand-stm32mp157d-ev1/bl2/cache_helpers.o
 .data          0x00000000        0x0 /home/dangcaominh/STM32MP1/atf/stm32mp1_atf/../build/opteemin-nand-stm32mp157d-ev1/bl2/cache_helpers.o
 .bss           0x00000000        0x0 /home/dangcaominh/STM32MP1/atf/stm32mp1_atf/../build/opteemin-nand-stm32mp157d-ev1/bl2/cache_helpers.o
 .text.asm.dcsw_op_louis
                0x00000000       0x14 /home/dangcaominh/STM32MP1/atf/stm32mp1_atf/../build/opteemin-nand-stm32mp157d-ev1/bl2/cache_helpers.o
 .text.asm.dcsw_op_level1
                0x00000000       0x10 /home/dangcaominh/STM32MP1/atf/stm32mp1_atf/../build/opteemin-nand-stm32mp157d-ev1/bl2/cache_helpers.o
 .text.asm.dcsw_op_level2
                0x00000000       0x10 /home/dangcaominh/STM32MP1/atf/stm32mp1_atf/../build/opteemin-nand-stm32mp157d-ev1/bl2/cache_helpers.o
 .text.asm.dcsw_op_level3
                0x00000000       0x10 /home/dangcaominh/STM32MP1/atf/stm32mp1_atf/../build/opteemin-nand-stm32mp157d-ev1/bl2/cache_helpers.o
 .text          0x00000000        0x0 /home/dangcaominh/STM32MP1/atf/stm32mp1_atf/../build/opteemin-nand-stm32mp157d-ev1/bl2/misc_helpers.o
 .data          0x00000000        0x0 /home/dangcaominh/STM32MP1/atf/stm32mp1_atf/../build/opteemin-nand-stm32mp157d-ev1/bl2/misc_helpers.o
 .bss           0x00000000        0x0 /home/dangcaominh/STM32MP1/atf/stm32mp1_atf/../build/opteemin-nand-stm32mp157d-ev1/bl2/misc_helpers.o
 .text.asm.smc  0x00000000        0x8 /home/dangcaominh/STM32MP1/atf/stm32mp1_atf/../build/opteemin-nand-stm32mp157d-ev1/bl2/misc_helpers.o
 .text.asm.memcpy4
                0x00000000       0x4c /home/dangcaominh/STM32MP1/atf/stm32mp1_atf/../build/opteemin-nand-stm32mp157d-ev1/bl2/misc_helpers.o
 .rodata.str1.1
                0x00000000       0x1b /home/dangcaominh/STM32MP1/atf/stm32mp1_atf/../build/opteemin-nand-stm32mp157d-ev1/bl2/misc_helpers.o
 .text.asm.fixup_gdt_reloc
                0x00000000       0xec /home/dangcaominh/STM32MP1/atf/stm32mp1_atf/../build/opteemin-nand-stm32mp157d-ev1/bl2/misc_helpers.o
 .text          0x00000000       0x24 /home/dangcaominh/STM32MP1/atf/stm32mp1_atf/../build/opteemin-nand-stm32mp157d-ev1/bl2/aeabi_ldivmod.o
 .data          0x00000000        0x0 /home/dangcaominh/STM32MP1/atf/stm32mp1_atf/../build/opteemin-nand-stm32mp157d-ev1/bl2/aeabi_ldivmod.o
 .bss           0x00000000        0x0 /home/dangcaominh/STM32MP1/atf/stm32mp1_atf/../build/opteemin-nand-stm32mp157d-ev1/bl2/aeabi_ldivmod.o
 .note.GNU-stack
                0x00000000        0x0 /home/dangcaominh/STM32MP1/atf/stm32mp1_atf/../build/opteemin-nand-stm32mp157d-ev1/bl2/aeabi_ldivmod.o
 .debug_line    0x00000000       0x67 /home/dangcaominh/STM32MP1/atf/stm32mp1_atf/../build/opteemin-nand-stm32mp157d-ev1/bl2/aeabi_ldivmod.o
 .debug_info    0x00000000       0x30 /home/dangcaominh/STM32MP1/atf/stm32mp1_atf/../build/opteemin-nand-stm32mp157d-ev1/bl2/aeabi_ldivmod.o
 .debug_abbrev  0x00000000       0x28 /home/dangcaominh/STM32MP1/atf/stm32mp1_atf/../build/opteemin-nand-stm32mp157d-ev1/bl2/aeabi_ldivmod.o
 .debug_aranges
                0x00000000       0x20 /home/dangcaominh/STM32MP1/atf/stm32mp1_atf/../build/opteemin-nand-stm32mp157d-ev1/bl2/aeabi_ldivmod.o
 .debug_str     0x00000000       0x77 /home/dangcaominh/STM32MP1/atf/stm32mp1_atf/../build/opteemin-nand-stm32mp157d-ev1/bl2/aeabi_ldivmod.o
 .ARM.attributes
                0x00000000       0x27 /home/dangcaominh/STM32MP1/atf/stm32mp1_atf/../build/opteemin-nand-stm32mp157d-ev1/bl2/aeabi_ldivmod.o
 .text          0x00000000        0x4 /home/dangcaominh/STM32MP1/atf/stm32mp1_atf/../build/opteemin-nand-stm32mp157d-ev1/bl2/aeabi_memcpy.o
 .data          0x00000000        0x0 /home/dangcaominh/STM32MP1/atf/stm32mp1_atf/../build/opteemin-nand-stm32mp157d-ev1/bl2/aeabi_memcpy.o
 .bss           0x00000000        0x0 /home/dangcaominh/STM32MP1/atf/stm32mp1_atf/../build/opteemin-nand-stm32mp157d-ev1/bl2/aeabi_memcpy.o
 .note.GNU-stack
                0x00000000        0x0 /home/dangcaominh/STM32MP1/atf/stm32mp1_atf/../build/opteemin-nand-stm32mp157d-ev1/bl2/aeabi_memcpy.o
 .debug_line    0x00000000       0x5c /home/dangcaominh/STM32MP1/atf/stm32mp1_atf/../build/opteemin-nand-stm32mp157d-ev1/bl2/aeabi_memcpy.o
 .debug_info    0x00000000       0x46 /home/dangcaominh/STM32MP1/atf/stm32mp1_atf/../build/opteemin-nand-stm32mp157d-ev1/bl2/aeabi_memcpy.o
 .debug_abbrev  0x00000000       0x28 /home/dangcaominh/STM32MP1/atf/stm32mp1_atf/../build/opteemin-nand-stm32mp157d-ev1/bl2/aeabi_memcpy.o
 .debug_aranges
                0x00000000       0x20 /home/dangcaominh/STM32MP1/atf/stm32mp1_atf/../build/opteemin-nand-stm32mp157d-ev1/bl2/aeabi_memcpy.o
 .debug_str     0x00000000       0x95 /home/dangcaominh/STM32MP1/atf/stm32mp1_atf/../build/opteemin-nand-stm32mp157d-ev1/bl2/aeabi_memcpy.o
 .ARM.attributes
                0x00000000       0x27 /home/dangcaominh/STM32MP1/atf/stm32mp1_atf/../build/opteemin-nand-stm32mp157d-ev1/bl2/aeabi_memcpy.o
 .text          0x00000000       0x1c /home/dangcaominh/STM32MP1/atf/stm32mp1_atf/../build/opteemin-nand-stm32mp157d-ev1/bl2/aeabi_memset.o
 .data          0x00000000        0x0 /home/dangcaominh/STM32MP1/atf/stm32mp1_atf/../build/opteemin-nand-stm32mp157d-ev1/bl2/aeabi_memset.o
 .bss           0x00000000        0x0 /home/dangcaominh/STM32MP1/atf/stm32mp1_atf/../build/opteemin-nand-stm32mp157d-ev1/bl2/aeabi_memset.o
 .note.GNU-stack
                0x00000000        0x0 /home/dangcaominh/STM32MP1/atf/stm32mp1_atf/../build/opteemin-nand-stm32mp157d-ev1/bl2/aeabi_memset.o
 .debug_line    0x00000000       0x64 /home/dangcaominh/STM32MP1/atf/stm32mp1_atf/../build/opteemin-nand-stm32mp157d-ev1/bl2/aeabi_memset.o
 .debug_info    0x00000000       0x67 /home/dangcaominh/STM32MP1/atf/stm32mp1_atf/../build/opteemin-nand-stm32mp157d-ev1/bl2/aeabi_memset.o
 .debug_abbrev  0x00000000       0x28 /home/dangcaominh/STM32MP1/atf/stm32mp1_atf/../build/opteemin-nand-stm32mp157d-ev1/bl2/aeabi_memset.o
 .debug_aranges
                0x00000000       0x20 /home/dangcaominh/STM32MP1/atf/stm32mp1_atf/../build/opteemin-nand-stm32mp157d-ev1/bl2/aeabi_memset.o
 .debug_str     0x00000000       0xc4 /home/dangcaominh/STM32MP1/atf/stm32mp1_atf/../build/opteemin-nand-stm32mp157d-ev1/bl2/aeabi_memset.o
 .ARM.attributes
                0x00000000       0x27 /home/dangcaominh/STM32MP1/atf/stm32mp1_atf/../build/opteemin-nand-stm32mp157d-ev1/bl2/aeabi_memset.o
 .data          0x00000000        0x0 /home/dangcaominh/STM32MP1/atf/stm32mp1_atf/../build/opteemin-nand-stm32mp157d-ev1/bl2/aeabi_uldivmod.o
 .bss           0x00000000        0x0 /home/dangcaominh/STM32MP1/atf/stm32mp1_atf/../build/opteemin-nand-stm32mp157d-ev1/bl2/aeabi_uldivmod.o
 .text          0x00000000        0x0 /home/dangcaominh/STM32MP1/atf/stm32mp1_atf/../build/opteemin-nand-stm32mp157d-ev1/bl2/cortex_a7.o
 .data          0x00000000        0x0 /home/dangcaominh/STM32MP1/atf/stm32mp1_atf/../build/opteemin-nand-stm32mp157d-ev1/bl2/cortex_a7.o
 .bss           0x00000000        0x0 /home/dangcaominh/STM32MP1/atf/stm32mp1_atf/../build/opteemin-nand-stm32mp157d-ev1/bl2/cortex_a7.o
 .text.asm.cortex_a7_disable_smp
                0x00000000       0x18 /home/dangcaominh/STM32MP1/atf/stm32mp1_atf/../build/opteemin-nand-stm32mp157d-ev1/bl2/cortex_a7.o
 .text.asm.cortex_a7_core_pwr_dwn
                0x00000000       0x30 /home/dangcaominh/STM32MP1/atf/stm32mp1_atf/../build/opteemin-nand-stm32mp157d-ev1/bl2/cortex_a7.o
 .rodata.str1.1
                0x00000000       0x1d /home/dangcaominh/STM32MP1/atf/stm32mp1_atf/../build/opteemin-nand-stm32mp157d-ev1/bl2/cortex_a7.o
 .text.asm.cortex_a7_cluster_pwr_dwn
                0x00000000       0x3c /home/dangcaominh/STM32MP1/atf/stm32mp1_atf/../build/opteemin-nand-stm32mp157d-ev1/bl2/cortex_a7.o
 .text          0x00000000        0x0 /home/dangcaominh/STM32MP1/atf/stm32mp1_atf/../build/opteemin-nand-stm32mp157d-ev1/bl2/cpu_helpers.o
 .data          0x00000000        0x0 /home/dangcaominh/STM32MP1/atf/stm32mp1_atf/../build/opteemin-nand-stm32mp157d-ev1/bl2/cpu_helpers.o
 .bss           0x00000000        0x0 /home/dangcaominh/STM32MP1/atf/stm32mp1_atf/../build/opteemin-nand-stm32mp157d-ev1/bl2/cpu_helpers.o
 .text.asm.cpu_get_rev_var
                0x00000000       0x10 /home/dangcaominh/STM32MP1/atf/stm32mp1_atf/../build/opteemin-nand-stm32mp157d-ev1/bl2/cpu_helpers.o
 .text.asm.cpu_rev_var_ls
                0x00000000       0x10 /home/dangcaominh/STM32MP1/atf/stm32mp1_atf/../build/opteemin-nand-stm32mp157d-ev1/bl2/cpu_helpers.o
 .text.asm.cpu_rev_var_hs
                0x00000000       0x10 /home/dangcaominh/STM32MP1/atf/stm32mp1_atf/../build/opteemin-nand-stm32mp157d-ev1/bl2/cpu_helpers.o
 .text          0x00000000        0x0 /home/dangcaominh/STM32MP1/atf/stm32mp1_atf/../build/opteemin-nand-stm32mp157d-ev1/bl2/spinlock.o
 .data          0x00000000        0x0 /home/dangcaominh/STM32MP1/atf/stm32mp1_atf/../build/opteemin-nand-stm32mp157d-ev1/bl2/spinlock.o
 .bss           0x00000000        0x0 /home/dangcaominh/STM32MP1/atf/stm32mp1_atf/../build/opteemin-nand-stm32mp157d-ev1/bl2/spinlock.o
 .text          0x00000000        0x0 /home/dangcaominh/STM32MP1/atf/stm32mp1_atf/../build/opteemin-nand-stm32mp157d-ev1/bl2/enable_mmu.o
 .data          0x00000000        0x0 /home/dangcaominh/STM32MP1/atf/stm32mp1_atf/../build/opteemin-nand-stm32mp157d-ev1/bl2/enable_mmu.o
 .bss           0x00000000        0x0 /home/dangcaominh/STM32MP1/atf/stm32mp1_atf/../build/opteemin-nand-stm32mp157d-ev1/bl2/enable_mmu.o
 .text.asm.enable_mmu_direct_hyp
                0x00000000       0x74 /home/dangcaominh/STM32MP1/atf/stm32mp1_atf/../build/opteemin-nand-stm32mp157d-ev1/bl2/enable_mmu.o
 .text          0x00000000        0x0 /home/dangcaominh/STM32MP1/atf/stm32mp1_atf/../build/opteemin-nand-stm32mp157d-ev1/bl2/platform_helpers.o
 .data          0x00000000        0x0 /home/dangcaominh/STM32MP1/atf/stm32mp1_atf/../build/opteemin-nand-stm32mp157d-ev1/bl2/platform_helpers.o
 .bss           0x00000000        0x0 /home/dangcaominh/STM32MP1/atf/stm32mp1_atf/../build/opteemin-nand-stm32mp157d-ev1/bl2/platform_helpers.o
 .text.asm.plat_report_exception
                0x00000000        0x4 /home/dangcaominh/STM32MP1/atf/stm32mp1_atf/../build/opteemin-nand-stm32mp157d-ev1/bl2/platform_helpers.o
 .text.asm.plat_report_prefetch_abort
                0x00000000        0x4 /home/dangcaominh/STM32MP1/atf/stm32mp1_atf/../build/opteemin-nand-stm32mp157d-ev1/bl2/platform_helpers.o
 .text.asm.plat_report_data_abort
                0x00000000        0x4 /home/dangcaominh/STM32MP1/atf/stm32mp1_atf/../build/opteemin-nand-stm32mp157d-ev1/bl2/platform_helpers.o
 .text.asm.plat_reset_handler
                0x00000000        0x4 /home/dangcaominh/STM32MP1/atf/stm32mp1_atf/../build/opteemin-nand-stm32mp157d-ev1/bl2/platform_helpers.o
 .text.asm.plat_disable_acp
                0x00000000        0x4 /home/dangcaominh/STM32MP1/atf/stm32mp1_atf/../build/opteemin-nand-stm32mp157d-ev1/bl2/platform_helpers.o
 .text.asm.platform_mem_init
                0x00000000        0x4 /home/dangcaominh/STM32MP1/atf/stm32mp1_atf/../build/opteemin-nand-stm32mp157d-ev1/bl2/platform_helpers.o
 .text.asm.bl1_plat_prepare_exit
                0x00000000        0x4 /home/dangcaominh/STM32MP1/atf/stm32mp1_atf/../build/opteemin-nand-stm32mp157d-ev1/bl2/platform_helpers.o
 .text.asm.plat_panic_handler
                0x00000000        0x4 /home/dangcaominh/STM32MP1/atf/stm32mp1_atf/../build/opteemin-nand-stm32mp157d-ev1/bl2/platform_helpers.o
 .debug_line    0x00000000       0xc3 /home/dangcaominh/STM32MP1/atf/stm32mp1_atf/../build/opteemin-nand-stm32mp157d-ev1/bl2/platform_helpers.o
 .debug_info    0x00000000       0x7c /home/dangcaominh/STM32MP1/atf/stm32mp1_atf/../build/opteemin-nand-stm32mp157d-ev1/bl2/platform_helpers.o
 .debug_abbrev  0x00000000       0x24 /home/dangcaominh/STM32MP1/atf/stm32mp1_atf/../build/opteemin-nand-stm32mp157d-ev1/bl2/platform_helpers.o
 .debug_aranges
                0x00000000       0x58 /home/dangcaominh/STM32MP1/atf/stm32mp1_atf/../build/opteemin-nand-stm32mp157d-ev1/bl2/platform_helpers.o
 .debug_str     0x00000000      0x108 /home/dangcaominh/STM32MP1/atf/stm32mp1_atf/../build/opteemin-nand-stm32mp157d-ev1/bl2/platform_helpers.o
 .debug_ranges  0x00000000       0x50 /home/dangcaominh/STM32MP1/atf/stm32mp1_atf/../build/opteemin-nand-stm32mp157d-ev1/bl2/platform_helpers.o
 .debug_frame   0x00000000       0x90 /home/dangcaominh/STM32MP1/atf/stm32mp1_atf/../build/opteemin-nand-stm32mp157d-ev1/bl2/platform_helpers.o
 .ARM.attributes
                0x00000000       0x27 /home/dangcaominh/STM32MP1/atf/stm32mp1_atf/../build/opteemin-nand-stm32mp157d-ev1/bl2/platform_helpers.o
 .text          0x00000000        0x0 /home/dangcaominh/STM32MP1/atf/stm32mp1_atf/../build/opteemin-nand-stm32mp157d-ev1/bl2/platform_up_stack.o
 .data          0x00000000        0x0 /home/dangcaominh/STM32MP1/atf/stm32mp1_atf/../build/opteemin-nand-stm32mp157d-ev1/bl2/platform_up_stack.o
 .bss           0x00000000        0x0 /home/dangcaominh/STM32MP1/atf/stm32mp1_atf/../build/opteemin-nand-stm32mp157d-ev1/bl2/platform_up_stack.o
 .text.asm.plat_get_my_stack
                0x00000000        0xc /home/dangcaominh/STM32MP1/atf/stm32mp1_atf/../build/opteemin-nand-stm32mp157d-ev1/bl2/platform_up_stack.o
 .text          0x00000000        0x0 /home/dangcaominh/STM32MP1/atf/stm32mp1_atf/../build/opteemin-nand-stm32mp157d-ev1/bl2/stm32mp1_critic_power_wrapper.o
 .bss           0x00000000        0x0 /home/dangcaominh/STM32MP1/atf/stm32mp1_atf/../build/opteemin-nand-stm32mp157d-ev1/bl2/stm32mp1_critic_power_wrapper.o
 .text          0x00000000        0x0 /home/dangcaominh/STM32MP1/atf/stm32mp1_atf/../build/opteemin-nand-stm32mp157d-ev1/bl2/stm32mp1_helper.o
 .data          0x00000000        0x0 /home/dangcaominh/STM32MP1/atf/stm32mp1_atf/../build/opteemin-nand-stm32mp157d-ev1/bl2/stm32mp1_helper.o
 .bss           0x00000000        0x0 /home/dangcaominh/STM32MP1/atf/stm32mp1_atf/../build/opteemin-nand-stm32mp157d-ev1/bl2/stm32mp1_helper.o
 .text.asm.plat_stm32mp1_get_core_pos
                0x00000000       0x10 /home/dangcaominh/STM32MP1/atf/stm32mp1_atf/../build/opteemin-nand-stm32mp157d-ev1/bl2/stm32mp1_helper.o
 .text.asm.plat_my_core_pos
                0x00000000        0x8 /home/dangcaominh/STM32MP1/atf/stm32mp1_atf/../build/opteemin-nand-stm32mp157d-ev1/bl2/stm32mp1_helper.o
 .text          0x00000000        0x0 /home/dangcaominh/STM32MP1/atf/stm32mp1_atf/../build/opteemin-nand-stm32mp157d-ev1/lib/libfdt.a(fdt.o)
 .data          0x00000000        0x0 /home/dangcaominh/STM32MP1/atf/stm32mp1_atf/../build/opteemin-nand-stm32mp157d-ev1/lib/libfdt.a(fdt.o)
 .bss           0x00000000        0x0 /home/dangcaominh/STM32MP1/atf/stm32mp1_atf/../build/opteemin-nand-stm32mp157d-ev1/lib/libfdt.a(fdt.o)
 .text.fdt_find_string_
                0x00000000       0x30 /home/dangcaominh/STM32MP1/atf/stm32mp1_atf/../build/opteemin-nand-stm32mp157d-ev1/lib/libfdt.a(fdt.o)
 .text.fdt_move
                0x00000000       0x30 /home/dangcaominh/STM32MP1/atf/stm32mp1_atf/../build/opteemin-nand-stm32mp157d-ev1/lib/libfdt.a(fdt.o)
 .text          0x00000000        0x0 /home/dangcaominh/STM32MP1/atf/stm32mp1_atf/../build/opteemin-nand-stm32mp157d-ev1/lib/libfdt.a(fdt_addresses.o)
 .data          0x00000000        0x0 /home/dangcaominh/STM32MP1/atf/stm32mp1_atf/../build/opteemin-nand-stm32mp157d-ev1/lib/libfdt.a(fdt_addresses.o)
 .bss           0x00000000        0x0 /home/dangcaominh/STM32MP1/atf/stm32mp1_atf/../build/opteemin-nand-stm32mp157d-ev1/lib/libfdt.a(fdt_addresses.o)
 .rodata.fdt_size_cells.str1.1
                0x00000000        0xc /home/dangcaominh/STM32MP1/atf/stm32mp1_atf/../build/opteemin-nand-stm32mp157d-ev1/lib/libfdt.a(fdt_addresses.o)
 .text.fdt_size_cells
                0x00000000       0x14 /home/dangcaominh/STM32MP1/atf/stm32mp1_atf/../build/opteemin-nand-stm32mp157d-ev1/lib/libfdt.a(fdt_addresses.o)
 .text.fdt_appendprop_addrrange
                0x00000000       0xce /home/dangcaominh/STM32MP1/atf/stm32mp1_atf/../build/opteemin-nand-stm32mp157d-ev1/lib/libfdt.a(fdt_addresses.o)
 .text          0x00000000        0x0 /home/dangcaominh/STM32MP1/atf/stm32mp1_atf/../build/opteemin-nand-stm32mp157d-ev1/lib/libfdt.a(fdt_ro.o)
 .data          0x00000000        0x0 /home/dangcaominh/STM32MP1/atf/stm32mp1_atf/../build/opteemin-nand-stm32mp157d-ev1/lib/libfdt.a(fdt_ro.o)
 .bss           0x00000000        0x0 /home/dangcaominh/STM32MP1/atf/stm32mp1_atf/../build/opteemin-nand-stm32mp157d-ev1/lib/libfdt.a(fdt_ro.o)
 .text.fdt64_ld_
                0x00000000        0xa /home/dangcaominh/STM32MP1/atf/stm32mp1_atf/../build/opteemin-nand-stm32mp157d-ev1/lib/libfdt.a(fdt_ro.o)
 .text.fdt_mem_rsv
                0x00000000       0x24 /home/dangcaominh/STM32MP1/atf/stm32mp1_atf/../build/opteemin-nand-stm32mp157d-ev1/lib/libfdt.a(fdt_ro.o)
 .text.fdt_string
                0x00000000        0x6 /home/dangcaominh/STM32MP1/atf/stm32mp1_atf/../build/opteemin-nand-stm32mp157d-ev1/lib/libfdt.a(fdt_ro.o)
 .text.fdt_get_mem_rsv
                0x00000000       0x3c /home/dangcaominh/STM32MP1/atf/stm32mp1_atf/../build/opteemin-nand-stm32mp157d-ev1/lib/libfdt.a(fdt_ro.o)
 .text.fdt_num_mem_rsv
                0x00000000       0x26 /home/dangcaominh/STM32MP1/atf/stm32mp1_atf/../build/opteemin-nand-stm32mp157d-ev1/lib/libfdt.a(fdt_ro.o)
 .text.fdt_get_property_by_offset
                0x00000000       0x28 /home/dangcaominh/STM32MP1/atf/stm32mp1_atf/../build/opteemin-nand-stm32mp157d-ev1/lib/libfdt.a(fdt_ro.o)
 .text.fdt_get_property_namelen
                0x00000000       0x34 /home/dangcaominh/STM32MP1/atf/stm32mp1_atf/../build/opteemin-nand-stm32mp157d-ev1/lib/libfdt.a(fdt_ro.o)
 .text.fdt_get_property
                0x00000000       0x22 /home/dangcaominh/STM32MP1/atf/stm32mp1_atf/../build/opteemin-nand-stm32mp157d-ev1/lib/libfdt.a(fdt_ro.o)
 .text.fdt_getprop_by_offset
                0x00000000       0x68 /home/dangcaominh/STM32MP1/atf/stm32mp1_atf/../build/opteemin-nand-stm32mp157d-ev1/lib/libfdt.a(fdt_ro.o)
 .text.fdt_find_max_phandle
                0x00000000       0x3c /home/dangcaominh/STM32MP1/atf/stm32mp1_atf/../build/opteemin-nand-stm32mp157d-ev1/lib/libfdt.a(fdt_ro.o)
 .text.fdt_generate_phandle
                0x00000000       0x28 /home/dangcaominh/STM32MP1/atf/stm32mp1_atf/../build/opteemin-nand-stm32mp157d-ev1/lib/libfdt.a(fdt_ro.o)
 .text.fdt_get_alias
                0x00000000       0x1a /home/dangcaominh/STM32MP1/atf/stm32mp1_atf/../build/opteemin-nand-stm32mp157d-ev1/lib/libfdt.a(fdt_ro.o)
 .text.fdt_get_path
                0x00000000       0xca /home/dangcaominh/STM32MP1/atf/stm32mp1_atf/../build/opteemin-nand-stm32mp157d-ev1/lib/libfdt.a(fdt_ro.o)
 .text.fdt_node_offset_by_prop_value
                0x00000000       0x58 /home/dangcaominh/STM32MP1/atf/stm32mp1_atf/../build/opteemin-nand-stm32mp157d-ev1/lib/libfdt.a(fdt_ro.o)
 .text.fdt_stringlist_count
                0x00000000       0x38 /home/dangcaominh/STM32MP1/atf/stm32mp1_atf/../build/opteemin-nand-stm32mp157d-ev1/lib/libfdt.a(fdt_ro.o)
 .text.fdt_stringlist_get
                0x00000000       0x5c /home/dangcaominh/STM32MP1/atf/stm32mp1_atf/../build/opteemin-nand-stm32mp157d-ev1/lib/libfdt.a(fdt_ro.o)
 .text          0x00000000        0x0 /home/dangcaominh/STM32MP1/atf/stm32mp1_atf/../build/opteemin-nand-stm32mp157d-ev1/lib/libfdt.a(fdt_rw.o)
 .data          0x00000000        0x0 /home/dangcaominh/STM32MP1/atf/stm32mp1_atf/../build/opteemin-nand-stm32mp157d-ev1/lib/libfdt.a(fdt_rw.o)
 .bss           0x00000000        0x0 /home/dangcaominh/STM32MP1/atf/stm32mp1_atf/../build/opteemin-nand-stm32mp157d-ev1/lib/libfdt.a(fdt_rw.o)
 .text.cpu_to_fdt32
                0x00000000        0x4 /home/dangcaominh/STM32MP1/atf/stm32mp1_atf/../build/opteemin-nand-stm32mp157d-ev1/lib/libfdt.a(fdt_rw.o)
 .text.cpu_to_fdt64
                0x00000000        0x8 /home/dangcaominh/STM32MP1/atf/stm32mp1_atf/../build/opteemin-nand-stm32mp157d-ev1/lib/libfdt.a(fdt_rw.o)
 .text.fdt32_ld
                0x00000000       0x18 /home/dangcaominh/STM32MP1/atf/stm32mp1_atf/../build/opteemin-nand-stm32mp157d-ev1/lib/libfdt.a(fdt_rw.o)
 .text.fdt_blocks_misordered_
                0x00000000       0x52 /home/dangcaominh/STM32MP1/atf/stm32mp1_atf/../build/opteemin-nand-stm32mp157d-ev1/lib/libfdt.a(fdt_rw.o)
 .text.fdt_splice_
                0x00000000       0x6a /home/dangcaominh/STM32MP1/atf/stm32mp1_atf/../build/opteemin-nand-stm32mp157d-ev1/lib/libfdt.a(fdt_rw.o)
 .text.fdt_splice_mem_rsv_
                0x00000000       0x3c /home/dangcaominh/STM32MP1/atf/stm32mp1_atf/../build/opteemin-nand-stm32mp157d-ev1/lib/libfdt.a(fdt_rw.o)
 .text.fdt_rw_probe_
                0x00000000       0x46 /home/dangcaominh/STM32MP1/atf/stm32mp1_atf/../build/opteemin-nand-stm32mp157d-ev1/lib/libfdt.a(fdt_rw.o)
 .text.fdt_packblocks_
                0x00000000       0x82 /home/dangcaominh/STM32MP1/atf/stm32mp1_atf/../build/opteemin-nand-stm32mp157d-ev1/lib/libfdt.a(fdt_rw.o)
 .text.fdt_splice_struct_
                0x00000000       0x36 /home/dangcaominh/STM32MP1/atf/stm32mp1_atf/../build/opteemin-nand-stm32mp157d-ev1/lib/libfdt.a(fdt_rw.o)
 .text.fdt_add_property_
                0x00000000       0xfc /home/dangcaominh/STM32MP1/atf/stm32mp1_atf/../build/opteemin-nand-stm32mp157d-ev1/lib/libfdt.a(fdt_rw.o)
 .text.fdt_add_mem_rsv
                0x00000000       0x56 /home/dangcaominh/STM32MP1/atf/stm32mp1_atf/../build/opteemin-nand-stm32mp157d-ev1/lib/libfdt.a(fdt_rw.o)
 .text.fdt_del_mem_rsv
                0x00000000       0x42 /home/dangcaominh/STM32MP1/atf/stm32mp1_atf/../build/opteemin-nand-stm32mp157d-ev1/lib/libfdt.a(fdt_rw.o)
 .text.fdt_set_name
                0x00000000       0x5a /home/dangcaominh/STM32MP1/atf/stm32mp1_atf/../build/opteemin-nand-stm32mp157d-ev1/lib/libfdt.a(fdt_rw.o)
 .text.fdt_setprop_placeholder
                0x00000000       0x7a /home/dangcaominh/STM32MP1/atf/stm32mp1_atf/../build/opteemin-nand-stm32mp157d-ev1/lib/libfdt.a(fdt_rw.o)
 .text.fdt_setprop
                0x00000000       0x26 /home/dangcaominh/STM32MP1/atf/stm32mp1_atf/../build/opteemin-nand-stm32mp157d-ev1/lib/libfdt.a(fdt_rw.o)
 .text.fdt_appendprop
                0x00000000       0x8a /home/dangcaominh/STM32MP1/atf/stm32mp1_atf/../build/opteemin-nand-stm32mp157d-ev1/lib/libfdt.a(fdt_rw.o)
 .text.fdt_delprop
                0x00000000       0x3e /home/dangcaominh/STM32MP1/atf/stm32mp1_atf/../build/opteemin-nand-stm32mp157d-ev1/lib/libfdt.a(fdt_rw.o)
 .text.fdt_add_subnode_namelen
                0x00000000       0xaa /home/dangcaominh/STM32MP1/atf/stm32mp1_atf/../build/opteemin-nand-stm32mp157d-ev1/lib/libfdt.a(fdt_rw.o)
 .text.fdt_add_subnode
                0x00000000       0x1e /home/dangcaominh/STM32MP1/atf/stm32mp1_atf/../build/opteemin-nand-stm32mp157d-ev1/lib/libfdt.a(fdt_rw.o)
 .text.fdt_del_node
                0x00000000       0x38 /home/dangcaominh/STM32MP1/atf/stm32mp1_atf/../build/opteemin-nand-stm32mp157d-ev1/lib/libfdt.a(fdt_rw.o)
 .text.fdt_open_into
                0x00000000      0x118 /home/dangcaominh/STM32MP1/atf/stm32mp1_atf/../build/opteemin-nand-stm32mp157d-ev1/lib/libfdt.a(fdt_rw.o)
 .text.fdt_pack
                0x00000000       0x56 /home/dangcaominh/STM32MP1/atf/stm32mp1_atf/../build/opteemin-nand-stm32mp157d-ev1/lib/libfdt.a(fdt_rw.o)
 .debug_info    0x00000000     0x2c00 /home/dangcaominh/STM32MP1/atf/stm32mp1_atf/../build/opteemin-nand-stm32mp157d-ev1/lib/libfdt.a(fdt_rw.o)
 .debug_abbrev  0x00000000      0x4a4 /home/dangcaominh/STM32MP1/atf/stm32mp1_atf/../build/opteemin-nand-stm32mp157d-ev1/lib/libfdt.a(fdt_rw.o)
 .debug_loc     0x00000000     0x229c /home/dangcaominh/STM32MP1/atf/stm32mp1_atf/../build/opteemin-nand-stm32mp157d-ev1/lib/libfdt.a(fdt_rw.o)
 .debug_aranges
                0x00000000       0xc8 /home/dangcaominh/STM32MP1/atf/stm32mp1_atf/../build/opteemin-nand-stm32mp157d-ev1/lib/libfdt.a(fdt_rw.o)
 .debug_ranges  0x00000000      0x420 /home/dangcaominh/STM32MP1/atf/stm32mp1_atf/../build/opteemin-nand-stm32mp157d-ev1/lib/libfdt.a(fdt_rw.o)
 .debug_line    0x00000000     0x104c /home/dangcaominh/STM32MP1/atf/stm32mp1_atf/../build/opteemin-nand-stm32mp157d-ev1/lib/libfdt.a(fdt_rw.o)
 .debug_str     0x00000000      0x866 /home/dangcaominh/STM32MP1/atf/stm32mp1_atf/../build/opteemin-nand-stm32mp157d-ev1/lib/libfdt.a(fdt_rw.o)
 .comment       0x00000000       0x13 /home/dangcaominh/STM32MP1/atf/stm32mp1_atf/../build/opteemin-nand-stm32mp157d-ev1/lib/libfdt.a(fdt_rw.o)
 .note.GNU-stack
                0x00000000        0x0 /home/dangcaominh/STM32MP1/atf/stm32mp1_atf/../build/opteemin-nand-stm32mp157d-ev1/lib/libfdt.a(fdt_rw.o)
 .debug_frame   0x00000000      0x2f8 /home/dangcaominh/STM32MP1/atf/stm32mp1_atf/../build/opteemin-nand-stm32mp157d-ev1/lib/libfdt.a(fdt_rw.o)
 .ARM.attributes
                0x00000000       0x33 /home/dangcaominh/STM32MP1/atf/stm32mp1_atf/../build/opteemin-nand-stm32mp157d-ev1/lib/libfdt.a(fdt_rw.o)
 .text          0x00000000        0x0 /home/dangcaominh/STM32MP1/atf/stm32mp1_atf/../build/opteemin-nand-stm32mp157d-ev1/lib/libfdt.a(fdt_strerror.o)
 .data          0x00000000        0x0 /home/dangcaominh/STM32MP1/atf/stm32mp1_atf/../build/opteemin-nand-stm32mp157d-ev1/lib/libfdt.a(fdt_strerror.o)
 .bss           0x00000000        0x0 /home/dangcaominh/STM32MP1/atf/stm32mp1_atf/../build/opteemin-nand-stm32mp157d-ev1/lib/libfdt.a(fdt_strerror.o)
 .rodata.fdt_strerror.str1.1
                0x00000000       0x31 /home/dangcaominh/STM32MP1/atf/stm32mp1_atf/../build/opteemin-nand-stm32mp157d-ev1/lib/libfdt.a(fdt_strerror.o)
 .text.fdt_strerror
                0x00000000       0x3c /home/dangcaominh/STM32MP1/atf/stm32mp1_atf/../build/opteemin-nand-stm32mp157d-ev1/lib/libfdt.a(fdt_strerror.o)
 .rodata.str1.1
                0x00000000      0x150 /home/dangcaominh/STM32MP1/atf/stm32mp1_atf/../build/opteemin-nand-stm32mp157d-ev1/lib/libfdt.a(fdt_strerror.o)
 .rodata.fdt_errtable
                0x00000000       0x50 /home/dangcaominh/STM32MP1/atf/stm32mp1_atf/../build/opteemin-nand-stm32mp157d-ev1/lib/libfdt.a(fdt_strerror.o)
 .debug_info    0x00000000       0xfe /home/dangcaominh/STM32MP1/atf/stm32mp1_atf/../build/opteemin-nand-stm32mp157d-ev1/lib/libfdt.a(fdt_strerror.o)
 .debug_abbrev  0x00000000       0xca /home/dangcaominh/STM32MP1/atf/stm32mp1_atf/../build/opteemin-nand-stm32mp157d-ev1/lib/libfdt.a(fdt_strerror.o)
 .debug_loc     0x00000000       0xd7 /home/dangcaominh/STM32MP1/atf/stm32mp1_atf/../build/opteemin-nand-stm32mp157d-ev1/lib/libfdt.a(fdt_strerror.o)
 .debug_aranges
                0x00000000       0x20 /home/dangcaominh/STM32MP1/atf/stm32mp1_atf/../build/opteemin-nand-stm32mp157d-ev1/lib/libfdt.a(fdt_strerror.o)
 .debug_ranges  0x00000000       0x28 /home/dangcaominh/STM32MP1/atf/stm32mp1_atf/../build/opteemin-nand-stm32mp157d-ev1/lib/libfdt.a(fdt_strerror.o)
 .debug_line    0x00000000       0x89 /home/dangcaominh/STM32MP1/atf/stm32mp1_atf/../build/opteemin-nand-stm32mp157d-ev1/lib/libfdt.a(fdt_strerror.o)
 .debug_str     0x00000000      0x1fb /home/dangcaominh/STM32MP1/atf/stm32mp1_atf/../build/opteemin-nand-stm32mp157d-ev1/lib/libfdt.a(fdt_strerror.o)
 .comment       0x00000000       0x13 /home/dangcaominh/STM32MP1/atf/stm32mp1_atf/../build/opteemin-nand-stm32mp157d-ev1/lib/libfdt.a(fdt_strerror.o)
 .note.GNU-stack
                0x00000000        0x0 /home/dangcaominh/STM32MP1/atf/stm32mp1_atf/../build/opteemin-nand-stm32mp157d-ev1/lib/libfdt.a(fdt_strerror.o)
 .debug_frame   0x00000000       0x20 /home/dangcaominh/STM32MP1/atf/stm32mp1_atf/../build/opteemin-nand-stm32mp157d-ev1/lib/libfdt.a(fdt_strerror.o)
 .ARM.attributes
                0x00000000       0x33 /home/dangcaominh/STM32MP1/atf/stm32mp1_atf/../build/opteemin-nand-stm32mp157d-ev1/lib/libfdt.a(fdt_strerror.o)
 .text          0x00000000        0x0 /home/dangcaominh/STM32MP1/atf/stm32mp1_atf/../build/opteemin-nand-stm32mp157d-ev1/lib/libfdt.a(fdt_wip.o)
 .data          0x00000000        0x0 /home/dangcaominh/STM32MP1/atf/stm32mp1_atf/../build/opteemin-nand-stm32mp157d-ev1/lib/libfdt.a(fdt_wip.o)
 .bss           0x00000000        0x0 /home/dangcaominh/STM32MP1/atf/stm32mp1_atf/../build/opteemin-nand-stm32mp157d-ev1/lib/libfdt.a(fdt_wip.o)
 .text.fdt_setprop_inplace_namelen_partial
                0x00000000       0x30 /home/dangcaominh/STM32MP1/atf/stm32mp1_atf/../build/opteemin-nand-stm32mp157d-ev1/lib/libfdt.a(fdt_wip.o)
 .text.fdt_setprop_inplace
                0x00000000       0x4a /home/dangcaominh/STM32MP1/atf/stm32mp1_atf/../build/opteemin-nand-stm32mp157d-ev1/lib/libfdt.a(fdt_wip.o)
 .text.fdt_nop_property
                0x00000000       0x2c /home/dangcaominh/STM32MP1/atf/stm32mp1_atf/../build/opteemin-nand-stm32mp157d-ev1/lib/libfdt.a(fdt_wip.o)
 .text.fdt_node_end_offset_
                0x00000000       0x20 /home/dangcaominh/STM32MP1/atf/stm32mp1_atf/../build/opteemin-nand-stm32mp157d-ev1/lib/libfdt.a(fdt_wip.o)
 .text.fdt_nop_node
                0x00000000       0x30 /home/dangcaominh/STM32MP1/atf/stm32mp1_atf/../build/opteemin-nand-stm32mp157d-ev1/lib/libfdt.a(fdt_wip.o)
 .debug_info    0x00000000      0x86e /home/dangcaominh/STM32MP1/atf/stm32mp1_atf/../build/opteemin-nand-stm32mp157d-ev1/lib/libfdt.a(fdt_wip.o)
 .debug_abbrev  0x00000000      0x269 /home/dangcaominh/STM32MP1/atf/stm32mp1_atf/../build/opteemin-nand-stm32mp157d-ev1/lib/libfdt.a(fdt_wip.o)
 .debug_loc     0x00000000      0x615 /home/dangcaominh/STM32MP1/atf/stm32mp1_atf/../build/opteemin-nand-stm32mp157d-ev1/lib/libfdt.a(fdt_wip.o)
 .debug_aranges
                0x00000000       0x40 /home/dangcaominh/STM32MP1/atf/stm32mp1_atf/../build/opteemin-nand-stm32mp157d-ev1/lib/libfdt.a(fdt_wip.o)
 .debug_ranges  0x00000000       0x90 /home/dangcaominh/STM32MP1/atf/stm32mp1_atf/../build/opteemin-nand-stm32mp157d-ev1/lib/libfdt.a(fdt_wip.o)
 .debug_line    0x00000000      0x2d8 /home/dangcaominh/STM32MP1/atf/stm32mp1_atf/../build/opteemin-nand-stm32mp157d-ev1/lib/libfdt.a(fdt_wip.o)
 .debug_str     0x00000000      0x381 /home/dangcaominh/STM32MP1/atf/stm32mp1_atf/../build/opteemin-nand-stm32mp157d-ev1/lib/libfdt.a(fdt_wip.o)
 .comment       0x00000000       0x13 /home/dangcaominh/STM32MP1/atf/stm32mp1_atf/../build/opteemin-nand-stm32mp157d-ev1/lib/libfdt.a(fdt_wip.o)
 .note.GNU-stack
                0x00000000        0x0 /home/dangcaominh/STM32MP1/atf/stm32mp1_atf/../build/opteemin-nand-stm32mp157d-ev1/lib/libfdt.a(fdt_wip.o)
 .debug_frame   0x00000000       0xb4 /home/dangcaominh/STM32MP1/atf/stm32mp1_atf/../build/opteemin-nand-stm32mp157d-ev1/lib/libfdt.a(fdt_wip.o)
 .ARM.attributes
                0x00000000       0x33 /home/dangcaominh/STM32MP1/atf/stm32mp1_atf/../build/opteemin-nand-stm32mp157d-ev1/lib/libfdt.a(fdt_wip.o)
 .text          0x00000000        0x0 /home/dangcaominh/STM32MP1/atf/stm32mp1_atf/../build/opteemin-nand-stm32mp157d-ev1/lib/libc.a(assert.o)
 .data          0x00000000        0x0 /home/dangcaominh/STM32MP1/atf/stm32mp1_atf/../build/opteemin-nand-stm32mp157d-ev1/lib/libc.a(assert.o)
 .bss           0x00000000        0x0 /home/dangcaominh/STM32MP1/atf/stm32mp1_atf/../build/opteemin-nand-stm32mp157d-ev1/lib/libc.a(assert.o)
 .text          0x00000000        0x0 /home/dangcaominh/STM32MP1/atf/stm32mp1_atf/../build/opteemin-nand-stm32mp157d-ev1/lib/libc.a(memchr.o)
 .data          0x00000000        0x0 /home/dangcaominh/STM32MP1/atf/stm32mp1_atf/../build/opteemin-nand-stm32mp157d-ev1/lib/libc.a(memchr.o)
 .bss           0x00000000        0x0 /home/dangcaominh/STM32MP1/atf/stm32mp1_atf/../build/opteemin-nand-stm32mp157d-ev1/lib/libc.a(memchr.o)
 .text          0x00000000        0x0 /home/dangcaominh/STM32MP1/atf/stm32mp1_atf/../build/opteemin-nand-stm32mp157d-ev1/lib/libc.a(memcmp.o)
 .data          0x00000000        0x0 /home/dangcaominh/STM32MP1/atf/stm32mp1_atf/../build/opteemin-nand-stm32mp157d-ev1/lib/libc.a(memcmp.o)
 .bss           0x00000000        0x0 /home/dangcaominh/STM32MP1/atf/stm32mp1_atf/../build/opteemin-nand-stm32mp157d-ev1/lib/libc.a(memcmp.o)
 .text          0x00000000        0x0 /home/dangcaominh/STM32MP1/atf/stm32mp1_atf/../build/opteemin-nand-stm32mp157d-ev1/lib/libc.a(memcpy.o)
 .data          0x00000000        0x0 /home/dangcaominh/STM32MP1/atf/stm32mp1_atf/../build/opteemin-nand-stm32mp157d-ev1/lib/libc.a(memcpy.o)
 .bss           0x00000000        0x0 /home/dangcaominh/STM32MP1/atf/stm32mp1_atf/../build/opteemin-nand-stm32mp157d-ev1/lib/libc.a(memcpy.o)
 .text          0x00000000        0x0 /home/dangcaominh/STM32MP1/atf/stm32mp1_atf/../build/opteemin-nand-stm32mp157d-ev1/lib/libc.a(memmove.o)
 .data          0x00000000        0x0 /home/dangcaominh/STM32MP1/atf/stm32mp1_atf/../build/opteemin-nand-stm32mp157d-ev1/lib/libc.a(memmove.o)
 .bss           0x00000000        0x0 /home/dangcaominh/STM32MP1/atf/stm32mp1_atf/../build/opteemin-nand-stm32mp157d-ev1/lib/libc.a(memmove.o)
 .text          0x00000000        0x0 /home/dangcaominh/STM32MP1/atf/stm32mp1_atf/../build/opteemin-nand-stm32mp157d-ev1/lib/libc.a(memset.o)
 .data          0x00000000        0x0 /home/dangcaominh/STM32MP1/atf/stm32mp1_atf/../build/opteemin-nand-stm32mp157d-ev1/lib/libc.a(memset.o)
 .bss           0x00000000        0x0 /home/dangcaominh/STM32MP1/atf/stm32mp1_atf/../build/opteemin-nand-stm32mp157d-ev1/lib/libc.a(memset.o)
 .text          0x00000000        0x0 /home/dangcaominh/STM32MP1/atf/stm32mp1_atf/../build/opteemin-nand-stm32mp157d-ev1/lib/libc.a(printf.o)
 .data          0x00000000        0x0 /home/dangcaominh/STM32MP1/atf/stm32mp1_atf/../build/opteemin-nand-stm32mp157d-ev1/lib/libc.a(printf.o)
 .bss           0x00000000        0x0 /home/dangcaominh/STM32MP1/atf/stm32mp1_atf/../build/opteemin-nand-stm32mp157d-ev1/lib/libc.a(printf.o)
 .text          0x00000000        0x0 /home/dangcaominh/STM32MP1/atf/stm32mp1_atf/../build/opteemin-nand-stm32mp157d-ev1/lib/libc.a(snprintf.o)
 .data          0x00000000        0x0 /home/dangcaominh/STM32MP1/atf/stm32mp1_atf/../build/opteemin-nand-stm32mp157d-ev1/lib/libc.a(snprintf.o)
 .bss           0x00000000        0x0 /home/dangcaominh/STM32MP1/atf/stm32mp1_atf/../build/opteemin-nand-stm32mp157d-ev1/lib/libc.a(snprintf.o)
 .text          0x00000000        0x0 /home/dangcaominh/STM32MP1/atf/stm32mp1_atf/../build/opteemin-nand-stm32mp157d-ev1/lib/libc.a(strchr.o)
 .data          0x00000000        0x0 /home/dangcaominh/STM32MP1/atf/stm32mp1_atf/../build/opteemin-nand-stm32mp157d-ev1/lib/libc.a(strchr.o)
 .bss           0x00000000        0x0 /home/dangcaominh/STM32MP1/atf/stm32mp1_atf/../build/opteemin-nand-stm32mp157d-ev1/lib/libc.a(strchr.o)
 .text          0x00000000        0x0 /home/dangcaominh/STM32MP1/atf/stm32mp1_atf/../build/opteemin-nand-stm32mp157d-ev1/lib/libc.a(strcmp.o)
 .data          0x00000000        0x0 /home/dangcaominh/STM32MP1/atf/stm32mp1_atf/../build/opteemin-nand-stm32mp157d-ev1/lib/libc.a(strcmp.o)
 .bss           0x00000000        0x0 /home/dangcaominh/STM32MP1/atf/stm32mp1_atf/../build/opteemin-nand-stm32mp157d-ev1/lib/libc.a(strcmp.o)
 .text          0x00000000        0x0 /home/dangcaominh/STM32MP1/atf/stm32mp1_atf/../build/opteemin-nand-stm32mp157d-ev1/lib/libc.a(strlcpy.o)
 .data          0x00000000        0x0 /home/dangcaominh/STM32MP1/atf/stm32mp1_atf/../build/opteemin-nand-stm32mp157d-ev1/lib/libc.a(strlcpy.o)
 .bss           0x00000000        0x0 /home/dangcaominh/STM32MP1/atf/stm32mp1_atf/../build/opteemin-nand-stm32mp157d-ev1/lib/libc.a(strlcpy.o)
 .text          0x00000000        0x0 /home/dangcaominh/STM32MP1/atf/stm32mp1_atf/../build/opteemin-nand-stm32mp157d-ev1/lib/libc.a(strlen.o)
 .data          0x00000000        0x0 /home/dangcaominh/STM32MP1/atf/stm32mp1_atf/../build/opteemin-nand-stm32mp157d-ev1/lib/libc.a(strlen.o)
 .bss           0x00000000        0x0 /home/dangcaominh/STM32MP1/atf/stm32mp1_atf/../build/opteemin-nand-stm32mp157d-ev1/lib/libc.a(strlen.o)
 .text          0x00000000        0x0 /home/dangcaominh/STM32MP1/atf/stm32mp1_atf/../build/opteemin-nand-stm32mp157d-ev1/lib/libc.a(strncmp.o)
 .data          0x00000000        0x0 /home/dangcaominh/STM32MP1/atf/stm32mp1_atf/../build/opteemin-nand-stm32mp157d-ev1/lib/libc.a(strncmp.o)
 .bss           0x00000000        0x0 /home/dangcaominh/STM32MP1/atf/stm32mp1_atf/../build/opteemin-nand-stm32mp157d-ev1/lib/libc.a(strncmp.o)
 .text          0x00000000        0x0 /home/dangcaominh/STM32MP1/atf/stm32mp1_atf/../build/opteemin-nand-stm32mp157d-ev1/lib/libc.a(strnlen.o)
 .data          0x00000000        0x0 /home/dangcaominh/STM32MP1/atf/stm32mp1_atf/../build/opteemin-nand-stm32mp157d-ev1/lib/libc.a(strnlen.o)
 .bss           0x00000000        0x0 /home/dangcaominh/STM32MP1/atf/stm32mp1_atf/../build/opteemin-nand-stm32mp157d-ev1/lib/libc.a(strnlen.o)
 .text          0x00000000        0x0 /home/dangcaominh/STM32MP1/atf/stm32mp1_atf/../build/opteemin-nand-stm32mp157d-ev1/lib/libc.a(strrchr.o)
 .data          0x00000000        0x0 /home/dangcaominh/STM32MP1/atf/stm32mp1_atf/../build/opteemin-nand-stm32mp157d-ev1/lib/libc.a(strrchr.o)
 .bss           0x00000000        0x0 /home/dangcaominh/STM32MP1/atf/stm32mp1_atf/../build/opteemin-nand-stm32mp157d-ev1/lib/libc.a(strrchr.o)

Memory Configuration

Name             Origin             Length             Attributes
RAM              0x2ffe9000         0x00016000         xrw
*default*        0x00000000         0xffffffff

Linker script and memory map

                0x2ffe9000                        RAM_REGION_START = ORIGIN (RAM)
                0x00016000                        RAM_REGION_LENGTH = LENGTH (RAM)
                0x2ffe9000                        . = 0x2ffe9000
                0x00000001                        ASSERT ((. == ALIGN (0x1000)), BL2_BASE address is not aligned on a page boundary.)

.ro             0x2ffe9000    0x11000
                0x2ffe9000                        __RO_START__ = .
                0x2ffe9000                        __TEXT_RESIDENT_START__ = .
 *bl2_el3_entrypoint.o(SORT_BY_ALIGNMENT(.text*))
 .text.asm.bl2_entrypoint
                0x2ffe9000      0x160 /home/dangcaominh/STM32MP1/atf/stm32mp1_atf/../build/opteemin-nand-stm32mp157d-ev1/bl2/bl2_el3_entrypoint.o
                0x2ffe9000                bl2_entrypoint
 *(SORT_BY_ALIGNMENT(.text.asm.*))
 .text.asm.bl2_run_next_image
                0x2ffe9160       0x48 /home/dangcaominh/STM32MP1/atf/stm32mp1_atf/../build/opteemin-nand-stm32mp157d-ev1/bl2/bl2_run_next_image.o
                0x2ffe9160                bl2_run_next_image
 .text.asm.asm_assert
                0x2ffe91a8       0x7c /home/dangcaominh/STM32MP1/atf/stm32mp1_atf/../build/opteemin-nand-stm32mp157d-ev1/bl2/debug.o
                0x2ffe91a8                asm_assert
 .text.asm.asm_print_str
                0x2ffe9224       0x1c /home/dangcaominh/STM32MP1/atf/stm32mp1_atf/../build/opteemin-nand-stm32mp157d-ev1/bl2/debug.o
                0x2ffe9224                asm_print_str
 .text.asm.asm_print_hex
                0x2ffe9240       0x34 /home/dangcaominh/STM32MP1/atf/stm32mp1_atf/../build/opteemin-nand-stm32mp157d-ev1/bl2/debug.o
                0x2ffe9240                asm_print_hex
                0x2ffe9244                asm_print_hex_bits
 .text.asm.el3_panic
                0x2ffe9274       0x3c /home/dangcaominh/STM32MP1/atf/stm32mp1_atf/../build/opteemin-nand-stm32mp157d-ev1/bl2/debug.o
                0x2ffe9274                el3_panic
 .text.asm.report_exception
                0x2ffe92b0       0x14 /home/dangcaominh/STM32MP1/atf/stm32mp1_atf/../build/opteemin-nand-stm32mp157d-ev1/bl2/debug.o
                0x2ffe92b0                report_exception
 .text.asm.report_prefetch_abort
                0x2ffe92c4       0x10 /home/dangcaominh/STM32MP1/atf/stm32mp1_atf/../build/opteemin-nand-stm32mp157d-ev1/bl2/debug.o
                0x2ffe92c4                report_prefetch_abort
 .text.asm.report_data_abort
                0x2ffe92d4       0x10 /home/dangcaominh/STM32MP1/atf/stm32mp1_atf/../build/opteemin-nand-stm32mp157d-ev1/bl2/debug.o
                0x2ffe92d4                report_data_abort
 .text.asm.console_stm32_core_init
                0x2ffe92e4       0xac /home/dangcaominh/STM32MP1/atf/stm32mp1_atf/../build/opteemin-nand-stm32mp157d-ev1/bl2/stm32_console.o
                0x2ffe92e4                console_stm32_core_init
 .text.asm.console_stm32_register
                0x2ffe9390       0x50 /home/dangcaominh/STM32MP1/atf/stm32mp1_atf/../build/opteemin-nand-stm32mp157d-ev1/bl2/stm32_console.o
                0x2ffe9390                console_stm32_register
 .text.asm.console_stm32_core_putc
                0x2ffe93e0       0x24 /home/dangcaominh/STM32MP1/atf/stm32mp1_atf/../build/opteemin-nand-stm32mp157d-ev1/bl2/stm32_console.o
                0x2ffe93e0                console_stm32_core_putc
 .text.asm.console_stm32_putc
                0x2ffe9404       0x20 /home/dangcaominh/STM32MP1/atf/stm32mp1_atf/../build/opteemin-nand-stm32mp157d-ev1/bl2/stm32_console.o
                0x2ffe9404                console_stm32_putc
 .text.asm.console_stm32_core_flush
                0x2ffe9424       0x34 /home/dangcaominh/STM32MP1/atf/stm32mp1_atf/../build/opteemin-nand-stm32mp157d-ev1/bl2/stm32_console.o
                0x2ffe9424                console_stm32_core_flush
 .text.asm.console_stm32_flush
                0x2ffe9458       0x20 /home/dangcaominh/STM32MP1/atf/stm32mp1_atf/../build/opteemin-nand-stm32mp157d-ev1/bl2/stm32_console.o
                0x2ffe9458                console_stm32_flush
 .text.asm.flush_dcache_range
                0x2ffe9478       0x3c /home/dangcaominh/STM32MP1/atf/stm32mp1_atf/../build/opteemin-nand-stm32mp157d-ev1/bl2/cache_helpers.o
                0x2ffe9478                flush_dcache_range
 .text.asm.clean_dcache_range
                0x2ffe94b4       0x3c /home/dangcaominh/STM32MP1/atf/stm32mp1_atf/../build/opteemin-nand-stm32mp157d-ev1/bl2/cache_helpers.o
                0x2ffe94b4                clean_dcache_range
 .text.asm.inv_dcache_range
                0x2ffe94f0       0x3c /home/dangcaominh/STM32MP1/atf/stm32mp1_atf/../build/opteemin-nand-stm32mp157d-ev1/bl2/cache_helpers.o
                0x2ffe94f0                inv_dcache_range
 .text.asm.do_dcsw_op
                0x2ffe952c       0xc8 /home/dangcaominh/STM32MP1/atf/stm32mp1_atf/../build/opteemin-nand-stm32mp157d-ev1/bl2/cache_helpers.o
 .text.asm.dcsw_op_all
                0x2ffe95f4       0x14 /home/dangcaominh/STM32MP1/atf/stm32mp1_atf/../build/opteemin-nand-stm32mp157d-ev1/bl2/cache_helpers.o
                0x2ffe95f4                dcsw_op_all
 .text.asm.zeromem
                0x2ffe9608       0x64 /home/dangcaominh/STM32MP1/atf/stm32mp1_atf/../build/opteemin-nand-stm32mp157d-ev1/bl2/misc_helpers.o
                0x2ffe9608                zeromem
                0x2ffe9608                zero_normalmem
 .text.asm.disable_mmu_secure
                0x2ffe966c       0x1c /home/dangcaominh/STM32MP1/atf/stm32mp1_atf/../build/opteemin-nand-stm32mp157d-ev1/bl2/misc_helpers.o
                0x2ffe966c                disable_mmu_secure
 .text.asm.disable_mmu_icache_secure
                0x2ffe9688        0xc /home/dangcaominh/STM32MP1/atf/stm32mp1_atf/../build/opteemin-nand-stm32mp157d-ev1/bl2/misc_helpers.o
                0x2ffe9688                disable_mmu_icache_secure
 .text.asm.cortex_a7_enable_smp
                0x2ffe9694       0x14 /home/dangcaominh/STM32MP1/atf/stm32mp1_atf/../build/opteemin-nand-stm32mp157d-ev1/bl2/cortex_a7.o
 .text.asm.cortex_a7_reset_func
                0x2ffe96a8        0x4 /home/dangcaominh/STM32MP1/atf/stm32mp1_atf/../build/opteemin-nand-stm32mp157d-ev1/bl2/cortex_a7.o
 .text.asm.reset_handler
                0x2ffe96ac       0x38 /home/dangcaominh/STM32MP1/atf/stm32mp1_atf/../build/opteemin-nand-stm32mp157d-ev1/bl2/cpu_helpers.o
                0x2ffe96ac                reset_handler
 .text.asm.get_cpu_ops_ptr
                0x2ffe96e4       0x5c /home/dangcaominh/STM32MP1/atf/stm32mp1_atf/../build/opteemin-nand-stm32mp157d-ev1/bl2/cpu_helpers.o
                0x2ffe96e4                get_cpu_ops_ptr
 .text.asm.spin_lock
                0x2ffe9740       0x24 /home/dangcaominh/STM32MP1/atf/stm32mp1_atf/../build/opteemin-nand-stm32mp157d-ev1/bl2/spinlock.o
                0x2ffe9740                spin_lock
 .text.asm.spin_unlock
                0x2ffe9764       0x18 /home/dangcaominh/STM32MP1/atf/stm32mp1_atf/../build/opteemin-nand-stm32mp157d-ev1/bl2/spinlock.o
                0x2ffe9764                spin_unlock
 .text.asm.enable_mmu_direct_svc_mon
                0x2ffe977c       0x80 /home/dangcaominh/STM32MP1/atf/stm32mp1_atf/../build/opteemin-nand-stm32mp157d-ev1/bl2/enable_mmu.o
                0x2ffe977c                enable_mmu_direct_svc_mon
 .text.asm.plat_set_my_stack
                0x2ffe97fc       0x10 /home/dangcaominh/STM32MP1/atf/stm32mp1_atf/../build/opteemin-nand-stm32mp157d-ev1/bl2/platform_up_stack.o
                0x2ffe97fc                plat_set_my_stack
 .text.asm.stm32_pwr_down_wfi_wrapper
                0x2ffe980c       0x88 /home/dangcaominh/STM32MP1/atf/stm32mp1_atf/../build/opteemin-nand-stm32mp157d-ev1/bl2/stm32mp1_critic_power_wrapper.o
                0x2ffe980c                stm32_pwr_down_wfi_wrapper
 .text.asm.platform_mem_init
                0x2ffe9894        0x4 /home/dangcaominh/STM32MP1/atf/stm32mp1_atf/../build/opteemin-nand-stm32mp157d-ev1/bl2/stm32mp1_helper.o
                0x2ffe9894                platform_mem_init
 .text.asm.plat_report_exception
                0x2ffe9898       0x64 /home/dangcaominh/STM32MP1/atf/stm32mp1_atf/../build/opteemin-nand-stm32mp157d-ev1/bl2/stm32mp1_helper.o
                0x2ffe9898                plat_report_exception
 .text.asm.plat_report_prefetch_abort
                0x2ffe98fc       0x58 /home/dangcaominh/STM32MP1/atf/stm32mp1_atf/../build/opteemin-nand-stm32mp157d-ev1/bl2/stm32mp1_helper.o
                0x2ffe98fc                plat_report_prefetch_abort
 .text.asm.plat_report_data_abort
                0x2ffe9954       0x58 /home/dangcaominh/STM32MP1/atf/stm32mp1_atf/../build/opteemin-nand-stm32mp157d-ev1/bl2/stm32mp1_helper.o
                0x2ffe9954                plat_report_data_abort
 .text.asm.plat_reset_handler
                0x2ffe99ac        0x4 /home/dangcaominh/STM32MP1/atf/stm32mp1_atf/../build/opteemin-nand-stm32mp157d-ev1/bl2/stm32mp1_helper.o
                0x2ffe99ac                plat_reset_handler
 .text.asm.plat_get_my_entrypoint
                0x2ffe99b0        0x8 /home/dangcaominh/STM32MP1/atf/stm32mp1_atf/../build/opteemin-nand-stm32mp157d-ev1/bl2/stm32mp1_helper.o
                0x2ffe99b0                plat_get_my_entrypoint
 .text.asm.plat_secondary_cold_boot_setup
                0x2ffe99b8        0x4 /home/dangcaominh/STM32MP1/atf/stm32mp1_atf/../build/opteemin-nand-stm32mp157d-ev1/bl2/stm32mp1_helper.o
                0x2ffe99b8                plat_secondary_cold_boot_setup
 .text.asm.plat_is_my_cpu_primary
                0x2ffe99bc       0x20 /home/dangcaominh/STM32MP1/atf/stm32mp1_atf/../build/opteemin-nand-stm32mp157d-ev1/bl2/stm32mp1_helper.o
                0x2ffe99bc                plat_is_my_cpu_primary
 .text.asm.plat_crash_console_init
                0x2ffe99dc       0xc0 /home/dangcaominh/STM32MP1/atf/stm32mp1_atf/../build/opteemin-nand-stm32mp157d-ev1/bl2/stm32mp1_helper.o
                0x2ffe99dc                plat_crash_console_init
 .text.asm.plat_crash_console_flush
                0x2ffe9a9c        0xc /home/dangcaominh/STM32MP1/atf/stm32mp1_atf/../build/opteemin-nand-stm32mp157d-ev1/bl2/stm32mp1_helper.o
                0x2ffe9a9c                plat_crash_console_flush
 .text.asm.plat_crash_console_putc
                0x2ffe9aa8        0xc /home/dangcaominh/STM32MP1/atf/stm32mp1_atf/../build/opteemin-nand-stm32mp157d-ev1/bl2/stm32mp1_helper.o
                0x2ffe9aa8                plat_crash_console_putc
 .text.asm.plat_panic_handler
                0x2ffe9ab4       0x14 /home/dangcaominh/STM32MP1/atf/stm32mp1_atf/../build/opteemin-nand-stm32mp157d-ev1/bl2/stm32mp1_helper.o
                0x2ffe9ab4                plat_panic_handler
                0x2ffe9ac8                        __TEXT_RESIDENT_END__ = .
 *(SORT_BY_ALIGNMENT(.text*))
 .text.bl2_load_images
                0x2ffe9ac8      0x118 /home/dangcaominh/STM32MP1/atf/stm32mp1_atf/../build/opteemin-nand-stm32mp157d-ev1/bl2/bl2_image_load_v2.o
                0x2ffe9ac8                bl2_load_images
 .text.bl2_main
                0x2ffe9be0       0x54 /home/dangcaominh/STM32MP1/atf/stm32mp1_atf/../build/opteemin-nand-stm32mp157d-ev1/bl2/bl2_main.o
                0x2ffe9be0                bl2_main
 .text.load_auth_image
                0x2ffe9c34      0x10c /home/dangcaominh/STM32MP1/atf/stm32mp1_atf/../build/opteemin-nand-stm32mp157d-ev1/bl2/bl_common.o
                0x2ffe9c34                load_auth_image
 .text.print_entry_point_info
                0x2ffe9d40       0x20 /home/dangcaominh/STM32MP1/atf/stm32mp1_atf/../build/opteemin-nand-stm32mp157d-ev1/bl2/bl_common.o
                0x2ffe9d40                print_entry_point_info
 .text.flush_bl_params_desc_args
                0x2ffe9d60       0x34 /home/dangcaominh/STM32MP1/atf/stm32mp1_atf/../build/opteemin-nand-stm32mp157d-ev1/bl2/desc_image_load.o
                0x2ffe9d60                flush_bl_params_desc_args
 .text.flush_bl_params_desc
                0x2ffe9d94       0x1c /home/dangcaominh/STM32MP1/atf/stm32mp1_atf/../build/opteemin-nand-stm32mp157d-ev1/bl2/desc_image_load.o
                0x2ffe9d94                flush_bl_params_desc
 .text.get_bl_params_node_index
                0x2ffe9db0       0x44 /home/dangcaominh/STM32MP1/atf/stm32mp1_atf/../build/opteemin-nand-stm32mp157d-ev1/bl2/desc_image_load.o
                0x2ffe9db0                get_bl_params_node_index
 .text.get_bl_mem_params_node
                0x2ffe9df4       0x30 /home/dangcaominh/STM32MP1/atf/stm32mp1_atf/../build/opteemin-nand-stm32mp157d-ev1/bl2/desc_image_load.o
                0x2ffe9df4                get_bl_mem_params_node
 .text.get_bl_load_info_from_mem_params_desc
                0x2ffe9e24       0x50 /home/dangcaominh/STM32MP1/atf/stm32mp1_atf/../build/opteemin-nand-stm32mp157d-ev1/bl2/desc_image_load.o
                0x2ffe9e24                get_bl_load_info_from_mem_params_desc
 .text.get_next_bl_params_from_mem_params_desc
                0x2ffe9e74       0xc0 /home/dangcaominh/STM32MP1/atf/stm32mp1_atf/../build/opteemin-nand-stm32mp157d-ev1/bl2/desc_image_load.o
                0x2ffe9e74                get_next_bl_params_from_mem_params_desc
 .text.populate_next_bl_params_config
                0x2ffe9f34       0x68 /home/dangcaominh/STM32MP1/atf/stm32mp1_atf/../build/opteemin-nand-stm32mp157d-ev1/bl2/desc_image_load.o
                0x2ffe9f34                populate_next_bl_params_config
 .text.fdt_read_uint32_array
                0x2ffe9f9c       0x70 /home/dangcaominh/STM32MP1/atf/stm32mp1_atf/../build/opteemin-nand-stm32mp157d-ev1/bl2/fdt_wrappers.o
                0x2ffe9f9c                fdt_read_uint32_array
 .text.fdtw_read_string
                0x2ffea00c       0x88 /home/dangcaominh/STM32MP1/atf/stm32mp1_atf/../build/opteemin-nand-stm32mp157d-ev1/bl2/fdt_wrappers.o
                0x2ffea00c                fdtw_read_string
 .text.fdtw_read_uuid
                0x2ffea094       0x54 /home/dangcaominh/STM32MP1/atf/stm32mp1_atf/../build/opteemin-nand-stm32mp157d-ev1/bl2/fdt_wrappers.o
                0x2ffea094                fdtw_read_uuid
 .text.fdt_get_stdout_node_offset
                0x2ffea0e8       0x74 /home/dangcaominh/STM32MP1/atf/stm32mp1_atf/../build/opteemin-nand-stm32mp157d-ev1/bl2/fdt_wrappers.o
                0x2ffea0e8                fdt_get_stdout_node_offset
 .text.tf_log   0x2ffea15c       0x5c /home/dangcaominh/STM32MP1/atf/stm32mp1_atf/../build/opteemin-nand-stm32mp157d-ev1/bl2/tf_log.o
                0x2ffea15c                tf_log
 .text.read_uuid
                0x2ffea1b8       0xc8 /home/dangcaominh/STM32MP1/atf/stm32mp1_atf/../build/opteemin-nand-stm32mp157d-ev1/bl2/uuid.o
                0x2ffea1b8                read_uuid
 .text.tzc400_set_action
                0x2ffea280       0x24 /home/dangcaominh/STM32MP1/atf/stm32mp1_atf/../build/opteemin-nand-stm32mp157d-ev1/bl2/tzc400.o
                0x2ffea280                tzc400_set_action
 .text.tzc400_init
                0x2ffea2a4       0x5c /home/dangcaominh/STM32MP1/atf/stm32mp1_atf/../build/opteemin-nand-stm32mp157d-ev1/bl2/tzc400.o
                0x2ffea2a4                tzc400_init
 .text.tzc400_configure_region0
                0x2ffea300       0x2c /home/dangcaominh/STM32MP1/atf/stm32mp1_atf/../build/opteemin-nand-stm32mp157d-ev1/bl2/tzc400.o
                0x2ffea300                tzc400_configure_region0
 .text.tzc400_configure_region
                0x2ffea32c       0xc4 /home/dangcaominh/STM32MP1/atf/stm32mp1_atf/../build/opteemin-nand-stm32mp157d-ev1/bl2/tzc400.o
                0x2ffea32c                tzc400_configure_region
 .text.tzc400_update_filters
                0x2ffea3f0       0x44 /home/dangcaominh/STM32MP1/atf/stm32mp1_atf/../build/opteemin-nand-stm32mp157d-ev1/bl2/tzc400.o
                0x2ffea3f0                tzc400_update_filters
 .text.tzc400_enable_filters
                0x2ffea434       0x68 /home/dangcaominh/STM32MP1/atf/stm32mp1_atf/../build/opteemin-nand-stm32mp157d-ev1/bl2/tzc400.o
                0x2ffea434                tzc400_enable_filters
 .text.tzc400_disable_filters
                0x2ffea49c       0x50 /home/dangcaominh/STM32MP1/atf/stm32mp1_atf/../build/opteemin-nand-stm32mp157d-ev1/bl2/tzc400.o
                0x2ffea49c                tzc400_disable_filters
 .text.clk_enable
                0x2ffea4ec       0x24 /home/dangcaominh/STM32MP1/atf/stm32mp1_atf/../build/opteemin-nand-stm32mp157d-ev1/bl2/clk.o
                0x2ffea4ec                clk_enable
 .text.clk_disable
                0x2ffea510       0x24 /home/dangcaominh/STM32MP1/atf/stm32mp1_atf/../build/opteemin-nand-stm32mp157d-ev1/bl2/clk.o
                0x2ffea510                clk_disable
 .text.clk_get_rate
                0x2ffea534       0x24 /home/dangcaominh/STM32MP1/atf/stm32mp1_atf/../build/opteemin-nand-stm32mp157d-ev1/bl2/clk.o
                0x2ffea534                clk_get_rate
 .text.clk_is_enabled
                0x2ffea558       0x24 /home/dangcaominh/STM32MP1/atf/stm32mp1_atf/../build/opteemin-nand-stm32mp157d-ev1/bl2/clk.o
                0x2ffea558                clk_is_enabled
 .text.clk_register
                0x2ffea57c       0x30 /home/dangcaominh/STM32MP1/atf/stm32mp1_atf/../build/opteemin-nand-stm32mp157d-ev1/bl2/clk.o
                0x2ffea57c                clk_register
 .text.console_is_registered
                0x2ffea5ac       0x28 /home/dangcaominh/STM32MP1/atf/stm32mp1_atf/../build/opteemin-nand-stm32mp157d-ev1/bl2/multi_console.o
                0x2ffea5ac                console_is_registered
 .text.console_register
                0x2ffea5d4       0x40 /home/dangcaominh/STM32MP1/atf/stm32mp1_atf/../build/opteemin-nand-stm32mp157d-ev1/bl2/multi_console.o
                0x2ffea5d4                console_register
 .text.console_set_scope
                0x2ffea614       0x1c /home/dangcaominh/STM32MP1/atf/stm32mp1_atf/../build/opteemin-nand-stm32mp157d-ev1/bl2/multi_console.o
                0x2ffea614                console_set_scope
 .text.console_putc
                0x2ffea630       0x58 /home/dangcaominh/STM32MP1/atf/stm32mp1_atf/../build/opteemin-nand-stm32mp157d-ev1/bl2/multi_console.o
                0x2ffea630                console_putc
 .text.console_flush
                0x2ffea688       0x28 /home/dangcaominh/STM32MP1/atf/stm32mp1_atf/../build/opteemin-nand-stm32mp157d-ev1/bl2/multi_console.o
                0x2ffea688                console_flush
 .text.udelay   0x2ffea6b0       0x70 /home/dangcaominh/STM32MP1/atf/stm32mp1_atf/../build/opteemin-nand-stm32mp157d-ev1/bl2/delay_timer.o
                0x2ffea6b0                udelay
 .text.timer_init
                0x2ffea720       0x28 /home/dangcaominh/STM32MP1/atf/stm32mp1_atf/../build/opteemin-nand-stm32mp157d-ev1/bl2/delay_timer.o
                0x2ffea720                timer_init
 .text.generic_delay_timer_init_args
                0x2ffea748       0x18 /home/dangcaominh/STM32MP1/atf/stm32mp1_atf/../build/opteemin-nand-stm32mp157d-ev1/bl2/generic_delay_timer.o
                0x2ffea748                generic_delay_timer_init_args
 .text.generic_delay_timer_init
                0x2ffea760       0x54 /home/dangcaominh/STM32MP1/atf/stm32mp1_atf/../build/opteemin-nand-stm32mp157d-ev1/bl2/generic_delay_timer.o
                0x2ffea760                generic_delay_timer_init
 .text.fwu_metadata_load
                0x2ffea7b4      0x178 /home/dangcaominh/STM32MP1/atf/stm32mp1_atf/../build/opteemin-nand-stm32mp157d-ev1/bl2/fwu.o
 .text.fwu_get_alternate_boot_bank
                0x2ffea92c       0x90 /home/dangcaominh/STM32MP1/atf/stm32mp1_atf/../build/opteemin-nand-stm32mp157d-ev1/bl2/fwu.o
                0x2ffea92c                fwu_get_alternate_boot_bank
 .text.fwu_get_metadata
                0x2ffea9bc       0x24 /home/dangcaominh/STM32MP1/atf/stm32mp1_atf/../build/opteemin-nand-stm32mp157d-ev1/bl2/fwu.o
                0x2ffea9bc                fwu_get_metadata
 .text.fwu_init
                0x2ffea9e0       0x48 /home/dangcaominh/STM32MP1/atf/stm32mp1_atf/../build/opteemin-nand-stm32mp157d-ev1/bl2/fwu.o
                0x2ffea9e0                fwu_init
 .text.fip_file_close
                0x2ffeaa28       0x20 /home/dangcaominh/STM32MP1/atf/stm32mp1_atf/../build/opteemin-nand-stm32mp157d-ev1/bl2/io_fip.o
 .text.fip_dev_init
                0x2ffeaa48       0x9c /home/dangcaominh/STM32MP1/atf/stm32mp1_atf/../build/opteemin-nand-stm32mp157d-ev1/bl2/io_fip.o
 .text.fip_file_read
                0x2ffeaae4       0xb4 /home/dangcaominh/STM32MP1/atf/stm32mp1_atf/../build/opteemin-nand-stm32mp157d-ev1/bl2/io_fip.o
 .text.fip_file_len
                0x2ffeab98       0x24 /home/dangcaominh/STM32MP1/atf/stm32mp1_atf/../build/opteemin-nand-stm32mp157d-ev1/bl2/io_fip.o
 .text.fip_file_open
                0x2ffeabbc       0xf0 /home/dangcaominh/STM32MP1/atf/stm32mp1_atf/../build/opteemin-nand-stm32mp157d-ev1/bl2/io_fip.o
 .text.fip_dev_close
                0x2ffeacac       0x50 /home/dangcaominh/STM32MP1/atf/stm32mp1_atf/../build/opteemin-nand-stm32mp157d-ev1/bl2/io_fip.o
 .text.fip_dev_open
                0x2ffeacfc       0x4c /home/dangcaominh/STM32MP1/atf/stm32mp1_atf/../build/opteemin-nand-stm32mp157d-ev1/bl2/io_fip.o
 .text.register_io_dev_fip
                0x2ffead48       0x2c /home/dangcaominh/STM32MP1/atf/stm32mp1_atf/../build/opteemin-nand-stm32mp157d-ev1/bl2/io_fip.o
                0x2ffead48                register_io_dev_fip
 .text.mtd_read
                0x2ffead74       0x84 /home/dangcaominh/STM32MP1/atf/stm32mp1_atf/../build/opteemin-nand-stm32mp157d-ev1/bl2/io_mtd.o
 .text.mtd_add_extra_offset.constprop.0
                0x2ffeadf8       0x2c /home/dangcaominh/STM32MP1/atf/stm32mp1_atf/../build/opteemin-nand-stm32mp157d-ev1/bl2/io_mtd.o
 .text.mtd_open
                0x2ffeae24       0x44 /home/dangcaominh/STM32MP1/atf/stm32mp1_atf/../build/opteemin-nand-stm32mp157d-ev1/bl2/io_mtd.o
 .text.mtd_seek
                0x2ffeae68       0x84 /home/dangcaominh/STM32MP1/atf/stm32mp1_atf/../build/opteemin-nand-stm32mp157d-ev1/bl2/io_mtd.o
 .text.mtd_dev_close
                0x2ffeaeec       0x3c /home/dangcaominh/STM32MP1/atf/stm32mp1_atf/../build/opteemin-nand-stm32mp157d-ev1/bl2/io_mtd.o
 .text.mtd_dev_open
                0x2ffeaf28       0x4c /home/dangcaominh/STM32MP1/atf/stm32mp1_atf/../build/opteemin-nand-stm32mp157d-ev1/bl2/io_mtd.o
 .text.register_io_dev_mtd
                0x2ffeaf74       0x1c /home/dangcaominh/STM32MP1/atf/stm32mp1_atf/../build/opteemin-nand-stm32mp157d-ev1/bl2/io_mtd.o
                0x2ffeaf74                register_io_dev_mtd
 .text.free_entity.isra.0
                0x2ffeaf90       0x40 /home/dangcaominh/STM32MP1/atf/stm32mp1_atf/../build/opteemin-nand-stm32mp157d-ev1/bl2/io_storage.o
 .text.io_register_device
                0x2ffeafd0       0x28 /home/dangcaominh/STM32MP1/atf/stm32mp1_atf/../build/opteemin-nand-stm32mp157d-ev1/bl2/io_storage.o
                0x2ffeafd0                io_register_device
 .text.io_dev_open
                0x2ffeaff8       0x28 /home/dangcaominh/STM32MP1/atf/stm32mp1_atf/../build/opteemin-nand-stm32mp157d-ev1/bl2/io_storage.o
                0x2ffeaff8                io_dev_open
 .text.io_dev_init
                0x2ffeb020       0x34 /home/dangcaominh/STM32MP1/atf/stm32mp1_atf/../build/opteemin-nand-stm32mp157d-ev1/bl2/io_storage.o
                0x2ffeb020                io_dev_init
 .text.io_dev_close
                0x2ffeb054       0x30 /home/dangcaominh/STM32MP1/atf/stm32mp1_atf/../build/opteemin-nand-stm32mp157d-ev1/bl2/io_storage.o
                0x2ffeb054                io_dev_close
 .text.io_open  0x2ffeb084       0x94 /home/dangcaominh/STM32MP1/atf/stm32mp1_atf/../build/opteemin-nand-stm32mp157d-ev1/bl2/io_storage.o
                0x2ffeb084                io_open
 .text.io_seek  0x2ffeb118       0x4c /home/dangcaominh/STM32MP1/atf/stm32mp1_atf/../build/opteemin-nand-stm32mp157d-ev1/bl2/io_storage.o
                0x2ffeb118                io_seek
 .text.io_size  0x2ffeb164       0x34 /home/dangcaominh/STM32MP1/atf/stm32mp1_atf/../build/opteemin-nand-stm32mp157d-ev1/bl2/io_storage.o
                0x2ffeb164                io_size
 .text.io_read  0x2ffeb198       0x48 /home/dangcaominh/STM32MP1/atf/stm32mp1_atf/../build/opteemin-nand-stm32mp157d-ev1/bl2/io_storage.o
                0x2ffeb198                io_read
 .text.io_close
                0x2ffeb1e0       0x30 /home/dangcaominh/STM32MP1/atf/stm32mp1_atf/../build/opteemin-nand-stm32mp157d-ev1/bl2/io_storage.o
                0x2ffeb1e0                io_close
 .text.plat_get_scratch_buffer
                0x2ffeb210       0x28 /home/dangcaominh/STM32MP1/atf/stm32mp1_atf/../build/opteemin-nand-stm32mp157d-ev1/bl2/core.o
                0x2ffeb210                plat_get_scratch_buffer
 .text.nand_read
                0x2ffeb238      0x134 /home/dangcaominh/STM32MP1/atf/stm32mp1_atf/../build/opteemin-nand-stm32mp157d-ev1/bl2/core.o
                0x2ffeb238                nand_read
 .text.nand_seek_bb
                0x2ffeb36c       0x68 /home/dangcaominh/STM32MP1/atf/stm32mp1_atf/../build/opteemin-nand-stm32mp157d-ev1/bl2/core.o
                0x2ffeb36c                nand_seek_bb
 .text.get_nand_device
                0x2ffeb3d4        0x8 /home/dangcaominh/STM32MP1/atf/stm32mp1_atf/../build/opteemin-nand-stm32mp157d-ev1/bl2/core.o
                0x2ffeb3d4                get_nand_device
 .text.nand_send_addr
                0x2ffeb3dc       0x38 /home/dangcaominh/STM32MP1/atf/stm32mp1_atf/../build/opteemin-nand-stm32mp157d-ev1/bl2/raw_nand.o
 .text.nand_send_cmd
                0x2ffeb414       0x2c /home/dangcaominh/STM32MP1/atf/stm32mp1_atf/../build/opteemin-nand-stm32mp157d-ev1/bl2/raw_nand.o
 .text.nand_read_data
                0x2ffeb440       0x40 /home/dangcaominh/STM32MP1/atf/stm32mp1_atf/../build/opteemin-nand-stm32mp157d-ev1/bl2/raw_nand.o
 .text.nand_send_wait
                0x2ffeb480       0x34 /home/dangcaominh/STM32MP1/atf/stm32mp1_atf/../build/opteemin-nand-stm32mp157d-ev1/bl2/raw_nand.o
 .text.nand_read_param_page
                0x2ffeb4b4       0xf4 /home/dangcaominh/STM32MP1/atf/stm32mp1_atf/../build/opteemin-nand-stm32mp157d-ev1/bl2/raw_nand.o
 .text.nand_change_read_column_cmd
                0x2ffeb5a8       0x58 /home/dangcaominh/STM32MP1/atf/stm32mp1_atf/../build/opteemin-nand-stm32mp157d-ev1/bl2/raw_nand.o
                0x2ffeb5a8                nand_change_read_column_cmd
 .text.nand_read_page_cmd
                0x2ffeb600       0x94 /home/dangcaominh/STM32MP1/atf/stm32mp1_atf/../build/opteemin-nand-stm32mp157d-ev1/bl2/raw_nand.o
                0x2ffeb600                nand_read_page_cmd
 .text.nand_mtd_read_page_raw
                0x2ffeb694       0x14 /home/dangcaominh/STM32MP1/atf/stm32mp1_atf/../build/opteemin-nand-stm32mp157d-ev1/bl2/raw_nand.o
 .text.nand_mtd_block_is_bad
                0x2ffeb6a8       0x50 /home/dangcaominh/STM32MP1/atf/stm32mp1_atf/../build/opteemin-nand-stm32mp157d-ev1/bl2/raw_nand.o
 .text.nand_wait_ready
                0x2ffeb6f8       0x80 /home/dangcaominh/STM32MP1/atf/stm32mp1_atf/../build/opteemin-nand-stm32mp157d-ev1/bl2/raw_nand.o
                0x2ffeb6f8                nand_wait_ready
 .text.nand_raw_ctrl_init
                0x2ffeb778        0xc /home/dangcaominh/STM32MP1/atf/stm32mp1_atf/../build/opteemin-nand-stm32mp157d-ev1/bl2/raw_nand.o
                0x2ffeb778                nand_raw_ctrl_init
 .text.nand_raw_init
                0x2ffeb784       0xf8 /home/dangcaominh/STM32MP1/atf/stm32mp1_atf/../build/opteemin-nand-stm32mp157d-ev1/bl2/raw_nand.o
                0x2ffeb784                nand_raw_init
 .text.is_otp_invalid_mode
                0x2ffeb87c       0x28 /home/dangcaominh/STM32MP1/atf/stm32mp1_atf/../build/opteemin-nand-stm32mp157d-ev1/bl2/bsec2.o
 .text.bsec_lock
                0x2ffeb8a4       0x18 /home/dangcaominh/STM32MP1/atf/stm32mp1_atf/../build/opteemin-nand-stm32mp157d-ev1/bl2/bsec2.o
 .text.bsec_unlock
                0x2ffeb8bc       0x18 /home/dangcaominh/STM32MP1/atf/stm32mp1_atf/../build/opteemin-nand-stm32mp157d-ev1/bl2/bsec2.o
 .text.bsec_power_safmem
                0x2ffeb8d4       0x58 /home/dangcaominh/STM32MP1/atf/stm32mp1_atf/../build/opteemin-nand-stm32mp157d-ev1/bl2/bsec2.o
 .text.otp_bank_offset
                0x2ffeb92c       0x18 /home/dangcaominh/STM32MP1/atf/stm32mp1_atf/../build/opteemin-nand-stm32mp157d-ev1/bl2/bsec2.o
 .text.bsec_check_error
                0x2ffeb944       0x34 /home/dangcaominh/STM32MP1/atf/stm32mp1_atf/../build/opteemin-nand-stm32mp157d-ev1/bl2/bsec2.o
 .text.bsec_probe
                0x2ffeb978       0x3c /home/dangcaominh/STM32MP1/atf/stm32mp1_atf/../build/opteemin-nand-stm32mp157d-ev1/bl2/bsec2.o
                0x2ffeb978                bsec_probe
 .text.bsec_read_debug_conf
                0x2ffeb9b4        0xc /home/dangcaominh/STM32MP1/atf/stm32mp1_atf/../build/opteemin-nand-stm32mp157d-ev1/bl2/bsec2.o
                0x2ffeb9b4                bsec_read_debug_conf
 .text.bsec_read_sr_lock
                0x2ffeb9c0       0x34 /home/dangcaominh/STM32MP1/atf/stm32mp1_atf/../build/opteemin-nand-stm32mp157d-ev1/bl2/bsec2.o
                0x2ffeb9c0                bsec_read_sr_lock
 .text.bsec_read_sw_lock
                0x2ffeb9f4       0x34 /home/dangcaominh/STM32MP1/atf/stm32mp1_atf/../build/opteemin-nand-stm32mp157d-ev1/bl2/bsec2.o
                0x2ffeb9f4                bsec_read_sw_lock
 .text.bsec_write_otp
                0x2ffeba28       0x4c /home/dangcaominh/STM32MP1/atf/stm32mp1_atf/../build/opteemin-nand-stm32mp157d-ev1/bl2/bsec2.o
                0x2ffeba28                bsec_write_otp
 .text.bsec_read_sp_lock
                0x2ffeba74       0x34 /home/dangcaominh/STM32MP1/atf/stm32mp1_atf/../build/opteemin-nand-stm32mp157d-ev1/bl2/bsec2.o
                0x2ffeba74                bsec_read_sp_lock
 .text.bsec_program_otp
                0x2ffebaa8       0xf0 /home/dangcaominh/STM32MP1/atf/stm32mp1_atf/../build/opteemin-nand-stm32mp157d-ev1/bl2/bsec2.o
                0x2ffebaa8                bsec_program_otp
 .text.bsec_shadow_read_otp
                0x2ffebb98       0xb8 /home/dangcaominh/STM32MP1/atf/stm32mp1_atf/../build/opteemin-nand-stm32mp157d-ev1/bl2/bsec2.o
                0x2ffebb98                bsec_shadow_read_otp
 .text.stm32mp1_check_pll_conf
                0x2ffebc50       0xfc /home/dangcaominh/STM32MP1/atf/stm32mp1_atf/../build/opteemin-nand-stm32mp157d-ev1/bl2/stm32mp1_clk.o
 .text.stm32mp1_pll_config_output
                0x2ffebd4c       0x34 /home/dangcaominh/STM32MP1/atf/stm32mp1_atf/../build/opteemin-nand-stm32mp157d-ev1/bl2/stm32mp1_clk.o
 .text.stm32mp1_clk_get_gated_id
                0x2ffebd80       0x34 /home/dangcaominh/STM32MP1/atf/stm32mp1_atf/../build/opteemin-nand-stm32mp157d-ev1/bl2/stm32mp1_clk.o
 .text.stm32mp1_clk_get_parent
                0x2ffebdb4       0x78 /home/dangcaominh/STM32MP1/atf/stm32mp1_atf/../build/opteemin-nand-stm32mp157d-ev1/bl2/stm32mp1_clk.o
 .text.stm32mp_clk_is_enabled
                0x2ffebe2c       0x40 /home/dangcaominh/STM32MP1/atf/stm32mp1_atf/../build/opteemin-nand-stm32mp157d-ev1/bl2/stm32mp1_clk.o
 .text.stm32mp_clk_disable
                0x2ffebe6c       0x90 /home/dangcaominh/STM32MP1/atf/stm32mp1_atf/../build/opteemin-nand-stm32mp157d-ev1/bl2/stm32mp1_clk.o
 .text.stm32mp_clk_enable
                0x2ffebefc       0x8c /home/dangcaominh/STM32MP1/atf/stm32mp1_atf/../build/opteemin-nand-stm32mp157d-ev1/bl2/stm32mp1_clk.o
 .text.stm32_clk_configure_mux
                0x2ffebf88       0x90 /home/dangcaominh/STM32MP1/atf/stm32mp1_atf/../build/opteemin-nand-stm32mp157d-ev1/bl2/stm32mp1_clk.o
 .text.stm32mp1_read_pll_freq
                0x2ffec018       0xac /home/dangcaominh/STM32MP1/atf/stm32mp1_atf/../build/opteemin-nand-stm32mp157d-ev1/bl2/stm32mp1_clk.o
 .text.stm32mp_clk_get_rate
                0x2ffec0c4      0x204 /home/dangcaominh/STM32MP1/atf/stm32mp1_atf/../build/opteemin-nand-stm32mp157d-ev1/bl2/stm32mp1_clk.o
 .text.stm32mp1_osc_wait.isra.0
                0x2ffec2c8       0x54 /home/dangcaominh/STM32MP1/atf/stm32mp1_atf/../build/opteemin-nand-stm32mp157d-ev1/bl2/stm32mp1_clk.o
 .text.clk_stm32_set_div
                0x2ffec31c       0x94 /home/dangcaominh/STM32MP1/atf/stm32mp1_atf/../build/opteemin-nand-stm32mp157d-ev1/bl2/stm32mp1_clk.o
                0x2ffec31c                clk_stm32_set_div
 .text.stm32mp1_clk_rcc_regs_lock
                0x2ffec3b0        0xc /home/dangcaominh/STM32MP1/atf/stm32mp1_atf/../build/opteemin-nand-stm32mp157d-ev1/bl2/stm32mp1_clk.o
                0x2ffec3b0                stm32mp1_clk_rcc_regs_lock
 .text.stm32mp1_clk_rcc_regs_unlock
                0x2ffec3bc        0xc /home/dangcaominh/STM32MP1/atf/stm32mp1_atf/../build/opteemin-nand-stm32mp157d-ev1/bl2/stm32mp1_clk.o
                0x2ffec3bc                stm32mp1_clk_rcc_regs_unlock
 .text.stm32mp1_clk_init
                0x2ffec3c8      0x944 /home/dangcaominh/STM32MP1/atf/stm32mp1_atf/../build/opteemin-nand-stm32mp157d-ev1/bl2/stm32mp1_clk.o
                0x2ffec3c8                stm32mp1_clk_init
 .text.stm32mp1_clk_probe
                0x2ffecd0c      0x214 /home/dangcaominh/STM32MP1/atf/stm32mp1_atf/../build/opteemin-nand-stm32mp157d-ev1/bl2/stm32mp1_clk.o
                0x2ffecd0c                stm32mp1_clk_probe
 .text.fdt_osc_read_freq
                0x2ffecf20       0x8c /home/dangcaominh/STM32MP1/atf/stm32mp1_atf/../build/opteemin-nand-stm32mp157d-ev1/bl2/stm32mp_clkfunc.o
                0x2ffecf20                fdt_osc_read_freq
 .text.fdt_clk_read_bool
                0x2ffecfac       0x68 /home/dangcaominh/STM32MP1/atf/stm32mp1_atf/../build/opteemin-nand-stm32mp157d-ev1/bl2/stm32mp_clkfunc.o
                0x2ffecfac                fdt_clk_read_bool
 .text.fdt_clk_read_uint32_default
                0x2ffed014       0x64 /home/dangcaominh/STM32MP1/atf/stm32mp1_atf/../build/opteemin-nand-stm32mp157d-ev1/bl2/stm32mp_clkfunc.o
                0x2ffed014                fdt_clk_read_uint32_default
 .text.fdt_get_clock_id
                0x2ffed078       0x34 /home/dangcaominh/STM32MP1/atf/stm32mp1_atf/../build/opteemin-nand-stm32mp157d-ev1/bl2/stm32mp_clkfunc.o
                0x2ffed078                fdt_get_clock_id
 .text.stm32mp_stgen_config
                0x2ffed0ac       0x4c /home/dangcaominh/STM32MP1/atf/stm32mp1_atf/../build/opteemin-nand-stm32mp157d-ev1/bl2/stm32mp_clkfunc.o
                0x2ffed0ac                stm32mp_stgen_config
 .text.stm32mp_stgen_restore_rate
                0x2ffed0f8       0x10 /home/dangcaominh/STM32MP1/atf/stm32mp1_atf/../build/opteemin-nand-stm32mp157d-ev1/bl2/stm32mp_clkfunc.o
                0x2ffed0f8                stm32mp_stgen_restore_rate
 .text.stm32mp1_ddr_init
                0x2ffed108      0x4b4 /home/dangcaominh/STM32MP1/atf/stm32mp1_atf/../build/opteemin-nand-stm32mp157d-ev1/bl2/stm32mp1_ddr.o
                0x2ffed108                stm32mp1_ddr_init
 .text.ddr_sw_self_refresh_exit
                0x2ffed5bc      0x1e4 /home/dangcaominh/STM32MP1/atf/stm32mp1_atf/../build/opteemin-nand-stm32mp157d-ev1/bl2/stm32mp1_ddr_helpers.o
                0x2ffed5bc                ddr_sw_self_refresh_exit
 .text.ddr_read_sr_mode
                0x2ffed7a0       0x18 /home/dangcaominh/STM32MP1/atf/stm32mp1_atf/../build/opteemin-nand-stm32mp157d-ev1/bl2/stm32mp1_ddr_helpers.o
                0x2ffed7a0                ddr_read_sr_mode
 .text.ddr_set_sr_mode
                0x2ffed7b8      0x1f0 /home/dangcaominh/STM32MP1/atf/stm32mp1_atf/../build/opteemin-nand-stm32mp157d-ev1/bl2/stm32mp1_ddr_helpers.o
                0x2ffed7b8                ddr_set_sr_mode
 .text.stm32mp1_ddr_setup
                0x2ffed9a8      0x154 /home/dangcaominh/STM32MP1/atf/stm32mp1_atf/../build/opteemin-nand-stm32mp157d-ev1/bl2/stm32mp1_ram.o
 .text.stm32mp1_ddr_clk_enable
                0x2ffedafc       0x48 /home/dangcaominh/STM32MP1/atf/stm32mp1_atf/../build/opteemin-nand-stm32mp157d-ev1/bl2/stm32mp1_ram.o
                0x2ffedafc                stm32mp1_ddr_clk_enable
 .text.stm32mp1_ddr_is_restored
                0x2ffedb44        0xc /home/dangcaominh/STM32MP1/atf/stm32mp1_atf/../build/opteemin-nand-stm32mp157d-ev1/bl2/stm32mp1_ram.o
                0x2ffedb44                stm32mp1_ddr_is_restored
 .text.stm32mp1_ddr_probe
                0x2ffedb50       0x3c /home/dangcaominh/STM32MP1/atf/stm32mp1_atf/../build/opteemin-nand-stm32mp157d-ev1/bl2/stm32mp1_ram.o
                0x2ffedb50                stm32mp1_ddr_probe
 .text.stm32mp_ddr_set_reg
                0x2ffedb8c       0x48 /home/dangcaominh/STM32MP1/atf/stm32mp1_atf/../build/opteemin-nand-stm32mp157d-ev1/bl2/stm32mp_ddr.o
                0x2ffedb8c                stm32mp_ddr_set_reg
 .text.stm32mp_ddr_sw_selfref_entry
                0x2ffedbd4       0x58 /home/dangcaominh/STM32MP1/atf/stm32mp1_atf/../build/opteemin-nand-stm32mp157d-ev1/bl2/stm32mp_ddr.o
                0x2ffedbd4                stm32mp_ddr_sw_selfref_entry
 .text.stm32mp_ddr_set_qd3_update_conditions
                0x2ffedc2c       0x4c /home/dangcaominh/STM32MP1/atf/stm32mp1_atf/../build/opteemin-nand-stm32mp157d-ev1/bl2/stm32mp_ddr.o
                0x2ffedc2c                stm32mp_ddr_set_qd3_update_conditions
 .text.stm32mp_ddr_unset_qd3_update_conditions
                0x2ffedc78       0x38 /home/dangcaominh/STM32MP1/atf/stm32mp1_atf/../build/opteemin-nand-stm32mp157d-ev1/bl2/stm32mp_ddr.o
                0x2ffedc78                stm32mp_ddr_unset_qd3_update_conditions
 .text.stm32mp_ddr_dt_get_info
                0x2ffedcb0       0x50 /home/dangcaominh/STM32MP1/atf/stm32mp1_atf/../build/opteemin-nand-stm32mp157d-ev1/bl2/stm32mp_ram.o
                0x2ffedcb0                stm32mp_ddr_dt_get_info
 .text.stm32mp_ddr_dt_get_param
                0x2ffedd00       0x54 /home/dangcaominh/STM32MP1/atf/stm32mp1_atf/../build/opteemin-nand-stm32mp157d-ev1/bl2/stm32mp_ram.o
                0x2ffedd00                stm32mp_ddr_dt_get_param
 .text.stm32_fmc2_set_buswidth_16
                0x2ffedd54       0x1c /home/dangcaominh/STM32MP1/atf/stm32mp1_atf/../build/opteemin-nand-stm32mp157d-ev1/bl2/stm32_fmc2_nand.o
 .text.stm32_fmc2_set_ecc
                0x2ffedd70       0x1c /home/dangcaominh/STM32MP1/atf/stm32mp1_atf/../build/opteemin-nand-stm32mp157d-ev1/bl2/stm32_fmc2_nand.o
 .text.stm32_fmc2_setup
                0x2ffedd8c       0x68 /home/dangcaominh/STM32MP1/atf/stm32mp1_atf/../build/opteemin-nand-stm32mp157d-ev1/bl2/stm32_fmc2_nand.o
 .text.stm32_fmc2_exec
                0x2ffeddf4      0x150 /home/dangcaominh/STM32MP1/atf/stm32mp1_atf/../build/opteemin-nand-stm32mp157d-ev1/bl2/stm32_fmc2_nand.o
 .text.stm32_fmc2_read_page
                0x2ffedf44      0x2f0 /home/dangcaominh/STM32MP1/atf/stm32mp1_atf/../build/opteemin-nand-stm32mp157d-ev1/bl2/stm32_fmc2_nand.o
 .text.stm32_fmc2_init
                0x2ffee234      0x488 /home/dangcaominh/STM32MP1/atf/stm32mp1_atf/../build/opteemin-nand-stm32mp157d-ev1/bl2/stm32_fmc2_nand.o
                0x2ffee234                stm32_fmc2_init
 .text.set_gpio.isra.0
                0x2ffee6bc       0xf0 /home/dangcaominh/STM32MP1/atf/stm32mp1_atf/../build/opteemin-nand-stm32mp157d-ev1/bl2/stm32_gpio.o
 .text.dt_set_pinctrl_config
                0x2ffee7ac      0x240 /home/dangcaominh/STM32MP1/atf/stm32mp1_atf/../build/opteemin-nand-stm32mp157d-ev1/bl2/stm32_gpio.o
                0x2ffee7ac                dt_set_pinctrl_config
 .text.i2c_transfer_config.isra.0
                0x2ffee9ec       0x2c /home/dangcaominh/STM32MP1/atf/stm32mp1_atf/../build/opteemin-nand-stm32mp157d-ev1/bl2/stm32_i2c.o
 .text.i2c_read.isra.0
                0x2ffeea18      0x1f0 /home/dangcaominh/STM32MP1/atf/stm32mp1_atf/../build/opteemin-nand-stm32mp157d-ev1/bl2/stm32_i2c.o
 .text.i2c_write
                0x2ffeec08      0x218 /home/dangcaominh/STM32MP1/atf/stm32mp1_atf/../build/opteemin-nand-stm32mp157d-ev1/bl2/stm32_i2c.o
 .text.stm32_i2c_get_setup_from_fdt
                0x2ffeee20       0x64 /home/dangcaominh/STM32MP1/atf/stm32mp1_atf/../build/opteemin-nand-stm32mp157d-ev1/bl2/stm32_i2c.o
                0x2ffeee20                stm32_i2c_get_setup_from_fdt
 .text.stm32_i2c_init
                0x2ffeee84      0x434 /home/dangcaominh/STM32MP1/atf/stm32mp1_atf/../build/opteemin-nand-stm32mp157d-ev1/bl2/stm32_i2c.o
                0x2ffeee84                stm32_i2c_init
 .text.stm32_i2c_is_device_ready
                0x2ffef2b8      0x130 /home/dangcaominh/STM32MP1/atf/stm32mp1_atf/../build/opteemin-nand-stm32mp157d-ev1/bl2/stm32_i2c.o
                0x2ffef2b8                stm32_i2c_is_device_ready
 .text.fdt_get_clk_by_name
                0x2ffef3e8       0x4c /home/dangcaominh/STM32MP1/atf/stm32mp1_atf/../build/opteemin-nand-stm32mp157d-ev1/bl2/stm32_iwdg.o
 .text.stm32_iwdg_refresh
                0x2ffef434       0x40 /home/dangcaominh/STM32MP1/atf/stm32mp1_atf/../build/opteemin-nand-stm32mp157d-ev1/bl2/stm32_iwdg.o
                0x2ffef434                stm32_iwdg_refresh
 .text.stm32_iwdg_init
                0x2ffef474      0x184 /home/dangcaominh/STM32MP1/atf/stm32mp1_atf/../build/opteemin-nand-stm32mp157d-ev1/bl2/stm32_iwdg.o
                0x2ffef474                stm32_iwdg_init
 .text.nvmem_driver_register
                0x2ffef5f8       0x24 /home/dangcaominh/STM32MP1/atf/stm32mp1_atf/../build/opteemin-nand-stm32mp157d-ev1/bl2/nvmem.o
                0x2ffef5f8                nvmem_driver_register
 .text.nvmem_get_cell_by_index
                0x2ffef61c       0x90 /home/dangcaominh/STM32MP1/atf/stm32mp1_atf/../build/opteemin-nand-stm32mp157d-ev1/bl2/nvmem.o
                0x2ffef61c                nvmem_get_cell_by_index
 .text.nvmem_get_cell_by_name
                0x2ffef6ac       0x2c /home/dangcaominh/STM32MP1/atf/stm32mp1_atf/../build/opteemin-nand-stm32mp157d-ev1/bl2/nvmem.o
                0x2ffef6ac                nvmem_get_cell_by_name
 .text.stm32_tamp_nvram_write_bkp
                0x2ffef6d8       0x68 /home/dangcaominh/STM32MP1/atf/stm32mp1_atf/../build/opteemin-nand-stm32mp157d-ev1/bl2/stm32mp_tamp_nvram_core.o
 .text.stm32_tamp_nvram_read_bkp.constprop.0.isra.0
                0x2ffef740       0x68 /home/dangcaominh/STM32MP1/atf/stm32mp1_atf/../build/opteemin-nand-stm32mp157d-ev1/bl2/stm32mp_tamp_nvram_core.o
 .text.stm32_tamp_nvram_read_cell
                0x2ffef7a8       0xa4 /home/dangcaominh/STM32MP1/atf/stm32mp1_atf/../build/opteemin-nand-stm32mp157d-ev1/bl2/stm32mp_tamp_nvram_core.o
 .text.stm32_tamp_nvram_write_cell
                0x2ffef84c       0xc4 /home/dangcaominh/STM32MP1/atf/stm32mp1_atf/../build/opteemin-nand-stm32mp157d-ev1/bl2/stm32mp_tamp_nvram_core.o
 .text.stm32_tamp_nvram_update_rights
                0x2ffef910       0xc4 /home/dangcaominh/STM32MP1/atf/stm32mp1_atf/../build/opteemin-nand-stm32mp157d-ev1/bl2/stm32mp_tamp_nvram_core.o
                0x2ffef910                stm32_tamp_nvram_update_rights
 .text.stm32_tamp_nvram_init
                0x2ffef9d4       0xc4 /home/dangcaominh/STM32MP1/atf/stm32mp1_atf/../build/opteemin-nand-stm32mp157d-ev1/bl2/stm32mp_tamp_nvram_core.o
                0x2ffef9d4                stm32_tamp_nvram_init
 .text.stm32_tamp_nvram_get_cdata
                0x2ffefa98        0x8 /home/dangcaominh/STM32MP1/atf/stm32mp1_atf/../build/opteemin-nand-stm32mp157d-ev1/bl2/stm32mp_tamp_nvram_mp1.o
                0x2ffefa98                stm32_tamp_nvram_get_cdata
 .text.stm32_tamp_nvram_get_access_rights
                0x2ffefaa0        0x8 /home/dangcaominh/STM32MP1/atf/stm32mp1_atf/../build/opteemin-nand-stm32mp157d-ev1/bl2/stm32mp_tamp_nvram_mp1.o
                0x2ffefaa0                stm32_tamp_nvram_get_access_rights
 .text.dt_get_pmic_node
                0x2ffefaa8       0x24 /home/dangcaominh/STM32MP1/atf/stm32mp1_atf/../build/opteemin-nand-stm32mp157d-ev1/bl2/stm32mp_pmic.o
 .text.handle_pmic_property
                0x2ffefacc       0x30 /home/dangcaominh/STM32MP1/atf/stm32mp1_atf/../build/opteemin-nand-stm32mp157d-ev1/bl2/stm32mp_pmic.o
 .text.dt_pmic_status
                0x2ffefafc       0x34 /home/dangcaominh/STM32MP1/atf/stm32mp1_atf/../build/opteemin-nand-stm32mp157d-ev1/bl2/stm32mp_pmic.o
                0x2ffefafc                dt_pmic_status
 .text.initialize_pmic_i2c
                0x2ffefb30      0x10c /home/dangcaominh/STM32MP1/atf/stm32mp1_atf/../build/opteemin-nand-stm32mp157d-ev1/bl2/stm32mp_pmic.o
                0x2ffefb30                initialize_pmic_i2c
 .text.initialize_pmic
                0x2ffefc3c      0x114 /home/dangcaominh/STM32MP1/atf/stm32mp1_atf/../build/opteemin-nand-stm32mp157d-ev1/bl2/stm32mp_pmic.o
                0x2ffefc3c                initialize_pmic
 .text.print_pmic_info_and_debug
                0x2ffefd50       0x30 /home/dangcaominh/STM32MP1/atf/stm32mp1_atf/../build/opteemin-nand-stm32mp157d-ev1/bl2/stm32mp_pmic.o
                0x2ffefd50                print_pmic_info_and_debug
 .text.get_regulator_data
                0x2ffefd80       0x44 /home/dangcaominh/STM32MP1/atf/stm32mp1_atf/../build/opteemin-nand-stm32mp157d-ev1/bl2/stpmic1.o
 .text.stpmic1_regulator_levels_mv
                0x2ffefdc4       0x40 /home/dangcaominh/STM32MP1/atf/stm32mp1_atf/../build/opteemin-nand-stm32mp157d-ev1/bl2/stpmic1.o
                0x2ffefdc4                stpmic1_regulator_levels_mv
 .text.stpmic1_register_read
                0x2ffefe04       0x28 /home/dangcaominh/STM32MP1/atf/stm32mp1_atf/../build/opteemin-nand-stm32mp157d-ev1/bl2/stpmic1.o
                0x2ffefe04                stpmic1_register_read
 .text.stpmic1_regulator_voltage_get
                0x2ffefe2c       0x90 /home/dangcaominh/STM32MP1/atf/stm32mp1_atf/../build/opteemin-nand-stm32mp157d-ev1/bl2/stpmic1.o
                0x2ffefe2c                stpmic1_regulator_voltage_get
 .text.stpmic1_register_write
                0x2ffefebc       0x60 /home/dangcaominh/STM32MP1/atf/stm32mp1_atf/../build/opteemin-nand-stm32mp157d-ev1/bl2/stpmic1.o
                0x2ffefebc                stpmic1_register_write
 .text.stpmic1_regulator_voltage_set
                0x2ffeff1c       0x98 /home/dangcaominh/STM32MP1/atf/stm32mp1_atf/../build/opteemin-nand-stm32mp157d-ev1/bl2/stpmic1.o
                0x2ffeff1c                stpmic1_regulator_voltage_set
 .text.stpmic1_regulator_sink_mode_set
                0x2ffeffb4       0x30 /home/dangcaominh/STM32MP1/atf/stm32mp1_atf/../build/opteemin-nand-stm32mp157d-ev1/bl2/stpmic1.o
                0x2ffeffb4                stpmic1_regulator_sink_mode_set
 .text.stpmic1_regulator_bypass_mode_set
                0x2ffeffe4       0x30 /home/dangcaominh/STM32MP1/atf/stm32mp1_atf/../build/opteemin-nand-stm32mp157d-ev1/bl2/stpmic1.o
                0x2ffeffe4                stpmic1_regulator_bypass_mode_set
 .text.stpmic1_active_discharge_mode_set
                0x2fff0014       0x3c /home/dangcaominh/STM32MP1/atf/stm32mp1_atf/../build/opteemin-nand-stm32mp157d-ev1/bl2/stpmic1.o
                0x2fff0014                stpmic1_active_discharge_mode_set
 .text.stpmic1_bind_i2c
                0x2fff0050       0x14 /home/dangcaominh/STM32MP1/atf/stm32mp1_atf/../build/opteemin-nand-stm32mp157d-ev1/bl2/stpmic1.o
                0x2fff0050                stpmic1_bind_i2c
 .text.regulator_get_by_supply_name
                0x2fff0064       0x74 /home/dangcaominh/STM32MP1/atf/stm32mp1_atf/../build/opteemin-nand-stm32mp157d-ev1/bl2/regulator_core.o
                0x2fff0064                regulator_get_by_supply_name
 .text.regulator_enable
                0x2fff00d8       0x30 /home/dangcaominh/STM32MP1/atf/stm32mp1_atf/../build/opteemin-nand-stm32mp157d-ev1/bl2/regulator_core.o
                0x2fff00d8                regulator_enable
 .text.regulator_get_voltage
                0x2fff0108       0x4c /home/dangcaominh/STM32MP1/atf/stm32mp1_atf/../build/opteemin-nand-stm32mp157d-ev1/bl2/regulator_core.o
                0x2fff0108                regulator_get_voltage
 .text.regulator_set_voltage
                0x2fff0154       0x6c /home/dangcaominh/STM32MP1/atf/stm32mp1_atf/../build/opteemin-nand-stm32mp157d-ev1/bl2/regulator_core.o
                0x2fff0154                regulator_set_voltage
 .text.regulator_list_voltages
                0x2fff01c0       0xe0 /home/dangcaominh/STM32MP1/atf/stm32mp1_atf/../build/opteemin-nand-stm32mp157d-ev1/bl2/regulator_core.o
                0x2fff01c0                regulator_list_voltages
 .text.regulator_get_range
                0x2fff02a0       0x20 /home/dangcaominh/STM32MP1/atf/stm32mp1_atf/../build/opteemin-nand-stm32mp157d-ev1/bl2/regulator_core.o
                0x2fff02a0                regulator_get_range
 .text.regulator_register
                0x2fff02c0      0x180 /home/dangcaominh/STM32MP1/atf/stm32mp1_atf/../build/opteemin-nand-stm32mp157d-ev1/bl2/regulator_core.o
                0x2fff02c0                regulator_register
 .text.fixed_regulator_register
                0x2fff0440       0xc8 /home/dangcaominh/STM32MP1/atf/stm32mp1_atf/../build/opteemin-nand-stm32mp157d-ev1/bl2/regulator_fixed.o
                0x2fff0440                fixed_regulator_register
 .text.stm32mp_reset_assert
                0x2fff0508       0x60 /home/dangcaominh/STM32MP1/atf/stm32mp1_atf/../build/opteemin-nand-stm32mp157d-ev1/bl2/stm32mp1_reset.o
                0x2fff0508                stm32mp_reset_assert
 .text.stm32mp_reset_deassert
                0x2fff0568       0x60 /home/dangcaominh/STM32MP1/atf/stm32mp1_atf/../build/opteemin-nand-stm32mp157d-ev1/bl2/stm32mp1_reset.o
                0x2fff0568                stm32mp_reset_deassert
 .text.fconf_populate
                0x2fff05c8       0x88 /home/dangcaominh/STM32MP1/atf/stm32mp1_atf/../build/opteemin-nand-stm32mp157d-ev1/bl2/fconf.o
                0x2fff05c8                fconf_populate
 .text.set_config_info
                0x2fff0650       0x40 /home/dangcaominh/STM32MP1/atf/stm32mp1_atf/../build/opteemin-nand-stm32mp157d-ev1/bl2/fconf_dyn_cfg_getter.o
                0x2fff0650                set_config_info
 .text.fconf_populate_dtb_registry
                0x2fff0690      0x10c /home/dangcaominh/STM32MP1/atf/stm32mp1_atf/../build/opteemin-nand-stm32mp157d-ev1/bl2/fconf_dyn_cfg_getter.o
                0x2fff0690                fconf_populate_dtb_registry
 .text.dyn_cfg_dtb_info_get_index
                0x2fff079c       0x20 /home/dangcaominh/STM32MP1/atf/stm32mp1_atf/../build/opteemin-nand-stm32mp157d-ev1/bl2/fconf_dyn_cfg_getter.o
                0x2fff079c                dyn_cfg_dtb_info_get_index
 .text.dyn_cfg_dtb_info_getter
                0x2fff07bc       0x28 /home/dangcaominh/STM32MP1/atf/stm32mp1_atf/../build/opteemin-nand-stm32mp157d-ev1/bl2/fconf_dyn_cfg_getter.o
                0x2fff07bc                dyn_cfg_dtb_info_getter
 .text.parse_optee_image
                0x2fff07e4       0x60 /home/dangcaominh/STM32MP1/atf/stm32mp1_atf/../build/opteemin-nand-stm32mp157d-ev1/bl2/optee_utils.o
 .text.optee_header_is_valid
                0x2fff0844       0x24 /home/dangcaominh/STM32MP1/atf/stm32mp1_atf/../build/opteemin-nand-stm32mp157d-ev1/bl2/optee_utils.o
                0x2fff0844                optee_header_is_valid
 .text.parse_optee_header
                0x2fff0868      0x114 /home/dangcaominh/STM32MP1/atf/stm32mp1_atf/../build/opteemin-nand-stm32mp157d-ev1/bl2/optee_utils.o
                0x2fff0868                parse_optee_header
 .text.xlat_arch_regime_get_xn_desc
                0x2fff097c       0x28 /home/dangcaominh/STM32MP1/atf/stm32mp1_atf/../build/opteemin-nand-stm32mp157d-ev1/bl2/xlat_tables_arch.o
                0x2fff097c                xlat_arch_regime_get_xn_desc
 .text.xlat_arch_tlbi_va
                0x2fff09a4       0x2c /home/dangcaominh/STM32MP1/atf/stm32mp1_atf/../build/opteemin-nand-stm32mp157d-ev1/bl2/xlat_tables_arch.o
                0x2fff09a4                xlat_arch_tlbi_va
 .text.xlat_arch_current_el
                0x2fff09d0       0x3c /home/dangcaominh/STM32MP1/atf/stm32mp1_atf/../build/opteemin-nand-stm32mp157d-ev1/bl2/xlat_tables_arch.o
                0x2fff09d0                xlat_arch_current_el
 .text.is_mmu_enabled_ctx
                0x2fff0a0c       0x40 /home/dangcaominh/STM32MP1/atf/stm32mp1_atf/../build/opteemin-nand-stm32mp157d-ev1/bl2/xlat_tables_arch.o
                0x2fff0a0c                is_mmu_enabled_ctx
 .text.setup_mmu_cfg
                0x2fff0a4c       0xac /home/dangcaominh/STM32MP1/atf/stm32mp1_atf/../build/opteemin-nand-stm32mp157d-ev1/bl2/xlat_tables_arch.o
                0x2fff0a4c                setup_mmu_cfg
 .text.mmap_add_region
                0x2fff0af8       0x28 /home/dangcaominh/STM32MP1/atf/stm32mp1_atf/../build/opteemin-nand-stm32mp157d-ev1/bl2/xlat_tables_context.o
                0x2fff0af8                mmap_add_region
 .text.mmap_add
                0x2fff0b20        0xc /home/dangcaominh/STM32MP1/atf/stm32mp1_atf/../build/opteemin-nand-stm32mp157d-ev1/bl2/xlat_tables_context.o
                0x2fff0b20                mmap_add
 .text.mmap_add_dynamic_region
                0x2fff0b2c       0x28 /home/dangcaominh/STM32MP1/atf/stm32mp1_atf/../build/opteemin-nand-stm32mp157d-ev1/bl2/xlat_tables_context.o
                0x2fff0b2c                mmap_add_dynamic_region
 .text.mmap_remove_dynamic_region
                0x2fff0b54       0x10 /home/dangcaominh/STM32MP1/atf/stm32mp1_atf/../build/opteemin-nand-stm32mp157d-ev1/bl2/xlat_tables_context.o
                0x2fff0b54                mmap_remove_dynamic_region
 .text.init_xlat_tables
                0x2fff0b64       0x3c /home/dangcaominh/STM32MP1/atf/stm32mp1_atf/../build/opteemin-nand-stm32mp157d-ev1/bl2/xlat_tables_context.o
                0x2fff0b64                init_xlat_tables
 .text.enable_mmu_svc_mon
                0x2fff0ba0       0x34 /home/dangcaominh/STM32MP1/atf/stm32mp1_atf/../build/opteemin-nand-stm32mp157d-ev1/bl2/xlat_tables_context.o
                0x2fff0ba0                enable_mmu_svc_mon
 .text.xlat_table_get_index
                0x2fff0bd4       0x28 /home/dangcaominh/STM32MP1/atf/stm32mp1_atf/../build/opteemin-nand-stm32mp157d-ev1/bl2/xlat_tables_core.o
 .text.xlat_tables_unmap_region
                0x2fff0bfc      0x138 /home/dangcaominh/STM32MP1/atf/stm32mp1_atf/../build/opteemin-nand-stm32mp157d-ev1/bl2/xlat_tables_core.o
 .text.xlat_desc
                0x2fff0d34       0xc4 /home/dangcaominh/STM32MP1/atf/stm32mp1_atf/../build/opteemin-nand-stm32mp157d-ev1/bl2/xlat_tables_core.o
                0x2fff0d34                xlat_desc
 .text.xlat_tables_map_region
                0x2fff0df8      0x1ac /home/dangcaominh/STM32MP1/atf/stm32mp1_atf/../build/opteemin-nand-stm32mp157d-ev1/bl2/xlat_tables_core.o
 .text.mmap_add_region_ctx
                0x2fff0fa4       0xf0 /home/dangcaominh/STM32MP1/atf/stm32mp1_atf/../build/opteemin-nand-stm32mp157d-ev1/bl2/xlat_tables_core.o
                0x2fff0fa4                mmap_add_region_ctx
 .text.mmap_add_dynamic_region_ctx
                0x2fff1094      0x154 /home/dangcaominh/STM32MP1/atf/stm32mp1_atf/../build/opteemin-nand-stm32mp157d-ev1/bl2/xlat_tables_core.o
                0x2fff1094                mmap_add_dynamic_region_ctx
 .text.mmap_remove_dynamic_region_ctx
                0x2fff11e8      0x108 /home/dangcaominh/STM32MP1/atf/stm32mp1_atf/../build/opteemin-nand-stm32mp157d-ev1/bl2/xlat_tables_core.o
                0x2fff11e8                mmap_remove_dynamic_region_ctx
 .text.init_xlat_tables_ctx
                0x2fff12f0      0x140 /home/dangcaominh/STM32MP1/atf/stm32mp1_atf/../build/opteemin-nand-stm32mp157d-ev1/bl2/xlat_tables_core.o
                0x2fff12f0                init_xlat_tables_ctx
 .text.crc32_z  0x2fff1430       0xc8 /home/dangcaominh/STM32MP1/atf/stm32mp1_atf/../build/opteemin-nand-stm32mp157d-ev1/bl2/crc32.o
                0x2fff1430                crc32_z
 .text.plat_log_get_prefix
                0x2fff14f8       0x24 /home/dangcaominh/STM32MP1/atf/stm32mp1_atf/../build/opteemin-nand-stm32mp157d-ev1/bl2/plat_log_common.o
                0x2fff14f8                plat_log_get_prefix
 .text.open_fip
                0x2fff151c       0x10 /home/dangcaominh/STM32MP1/atf/stm32mp1_atf/../build/opteemin-nand-stm32mp157d-ev1/bl2/bl2_io_storage.o
                0x2fff151c                open_fip
 .text.open_storage
                0x2fff152c       0x10 /home/dangcaominh/STM32MP1/atf/stm32mp1_atf/../build/opteemin-nand-stm32mp157d-ev1/bl2/bl2_io_storage.o
                0x2fff152c                open_storage
 .text.stm32mp_io_setup
                0x2fff153c      0x138 /home/dangcaominh/STM32MP1/atf/stm32mp1_atf/../build/opteemin-nand-stm32mp157d-ev1/bl2/bl2_io_storage.o
                0x2fff153c                stm32mp_io_setup
 .text.bl2_plat_handle_pre_image_load
                0x2fff1674       0x28 /home/dangcaominh/STM32MP1/atf/stm32mp1_atf/../build/opteemin-nand-stm32mp157d-ev1/bl2/bl2_io_storage.o
                0x2fff1674                bl2_plat_handle_pre_image_load
 .text.plat_get_image_source
                0x2fff169c       0x44 /home/dangcaominh/STM32MP1/atf/stm32mp1_atf/../build/opteemin-nand-stm32mp157d-ev1/bl2/bl2_io_storage.o
                0x2fff169c                plat_get_image_source
 .text.plat_try_backup_partitions
                0x2fff16e0       0x5c /home/dangcaominh/STM32MP1/atf/stm32mp1_atf/../build/opteemin-nand-stm32mp157d-ev1/bl2/bl2_io_storage.o
                0x2fff16e0                plat_try_backup_partitions
 .text.plat_fwu_get_boot_idx
                0x2fff173c       0xac /home/dangcaominh/STM32MP1/atf/stm32mp1_atf/../build/opteemin-nand-stm32mp157d-ev1/bl2/bl2_io_storage.o
                0x2fff173c                plat_fwu_get_boot_idx
 .text.plat_fwu_set_images_source
                0x2fff17e8       0xcc /home/dangcaominh/STM32MP1/atf/stm32mp1_atf/../build/opteemin-nand-stm32mp157d-ev1/bl2/bl2_io_storage.o
                0x2fff17e8                plat_fwu_set_images_source
 .text.plat_fwu_set_metadata_image_source
                0x2fff18b4       0x64 /home/dangcaominh/STM32MP1/atf/stm32mp1_atf/../build/opteemin-nand-stm32mp157d-ev1/bl2/bl2_io_storage.o
                0x2fff18b4                plat_fwu_set_metadata_image_source
 .text.stm32_get_bootinfo_cell
                0x2fff1918       0x3c /home/dangcaominh/STM32MP1/atf/stm32mp1_atf/../build/opteemin-nand-stm32mp157d-ev1/bl2/stm32mp_common.o
 .text.stm32mp_save_boot_ctx_address
                0x2fff1954       0x40 /home/dangcaominh/STM32MP1/atf/stm32mp1_atf/../build/opteemin-nand-stm32mp157d-ev1/bl2/stm32mp_common.o
                0x2fff1954                stm32mp_save_boot_ctx_address
 .text.stm32mp_get_boot_ctx_address
                0x2fff1994        0xc /home/dangcaominh/STM32MP1/atf/stm32mp1_atf/../build/opteemin-nand-stm32mp157d-ev1/bl2/stm32mp_common.o
                0x2fff1994                stm32mp_get_boot_ctx_address
 .text.stm32mp_get_boot_itf_selected
                0x2fff19a0        0xc /home/dangcaominh/STM32MP1/atf/stm32mp1_atf/../build/opteemin-nand-stm32mp157d-ev1/bl2/stm32mp_common.o
                0x2fff19a0                stm32mp_get_boot_itf_selected
 .text.stm32mp_get_boot_action
                0x2fff19ac        0xc /home/dangcaominh/STM32MP1/atf/stm32mp1_atf/../build/opteemin-nand-stm32mp157d-ev1/bl2/stm32mp_common.o
                0x2fff19ac                stm32mp_get_boot_action
 .text.stm32mp_ddrctrl_base
                0x2fff19b8        0x8 /home/dangcaominh/STM32MP1/atf/stm32mp1_atf/../build/opteemin-nand-stm32mp157d-ev1/bl2/stm32mp_common.o
                0x2fff19b8                stm32mp_ddrctrl_base
 .text.stm32mp_ddrphyc_base
                0x2fff19c0        0x8 /home/dangcaominh/STM32MP1/atf/stm32mp1_atf/../build/opteemin-nand-stm32mp157d-ev1/bl2/stm32mp_common.o
                0x2fff19c0                stm32mp_ddrphyc_base
 .text.stm32mp_pwr_base
                0x2fff19c8        0x8 /home/dangcaominh/STM32MP1/atf/stm32mp1_atf/../build/opteemin-nand-stm32mp157d-ev1/bl2/stm32mp_common.o
                0x2fff19c8                stm32mp_pwr_base
 .text.stm32mp_pwr_regs_lock
                0x2fff19d0       0x18 /home/dangcaominh/STM32MP1/atf/stm32mp1_atf/../build/opteemin-nand-stm32mp157d-ev1/bl2/stm32mp_common.o
                0x2fff19d0                stm32mp_pwr_regs_lock
 .text.stm32mp_pwr_regs_unlock
                0x2fff19e8       0x18 /home/dangcaominh/STM32MP1/atf/stm32mp1_atf/../build/opteemin-nand-stm32mp157d-ev1/bl2/stm32mp_common.o
                0x2fff19e8                stm32mp_pwr_regs_unlock
 .text.stm32_get_otp_index
                0x2fff1a00       0x20 /home/dangcaominh/STM32MP1/atf/stm32mp1_atf/../build/opteemin-nand-stm32mp157d-ev1/bl2/stm32mp_common.o
                0x2fff1a00                stm32_get_otp_index
 .text.stm32_get_otp_value_from_idx
                0x2fff1a20       0x30 /home/dangcaominh/STM32MP1/atf/stm32mp1_atf/../build/opteemin-nand-stm32mp157d-ev1/bl2/stm32mp_common.o
                0x2fff1a20                stm32_get_otp_value_from_idx
 .text.stm32_get_otp_value
                0x2fff1a50       0x44 /home/dangcaominh/STM32MP1/atf/stm32mp1_atf/../build/opteemin-nand-stm32mp157d-ev1/bl2/stm32mp_common.o
                0x2fff1a50                stm32_get_otp_value
 .text.stm32mp_uart_console_setup
                0x2fff1a94       0x94 /home/dangcaominh/STM32MP1/atf/stm32mp1_atf/../build/opteemin-nand-stm32mp157d-ev1/bl2/stm32mp_common.o
                0x2fff1a94                stm32mp_uart_console_setup
 .text.stm32_display_board_info
                0x2fff1b28       0x2c /home/dangcaominh/STM32MP1/atf/stm32mp1_atf/../build/opteemin-nand-stm32mp157d-ev1/bl2/stm32mp_common.o
                0x2fff1b28                stm32_display_board_info
 .text.stm32_get_magic_number_cell
                0x2fff1b54       0x34 /home/dangcaominh/STM32MP1/atf/stm32mp1_atf/../build/opteemin-nand-stm32mp157d-ev1/bl2/stm32mp_common.o
                0x2fff1b54                stm32_get_magic_number_cell
 .text.stm32_get_core1_branch_address_cell
                0x2fff1b88       0x34 /home/dangcaominh/STM32MP1/atf/stm32mp1_atf/../build/opteemin-nand-stm32mp157d-ev1/bl2/stm32mp_common.o
                0x2fff1b88                stm32_get_core1_branch_address_cell
 .text.stm32_get_fwu_info_cell
                0x2fff1bbc       0x34 /home/dangcaominh/STM32MP1/atf/stm32mp1_atf/../build/opteemin-nand-stm32mp157d-ev1/bl2/stm32mp_common.o
                0x2fff1bbc                stm32_get_fwu_info_cell
 .text.stm32_get_boot_mode_cell
                0x2fff1bf0       0x34 /home/dangcaominh/STM32MP1/atf/stm32mp1_atf/../build/opteemin-nand-stm32mp157d-ev1/bl2/stm32mp_common.o
                0x2fff1bf0                stm32_get_boot_mode_cell
 .text.stm32_save_boot_info
                0x2fff1c24       0xcc /home/dangcaominh/STM32MP1/atf/stm32mp1_atf/../build/opteemin-nand-stm32mp157d-ev1/bl2/stm32mp_common.o
                0x2fff1c24                stm32_save_boot_info
 .text.stm32_get_and_dec_fwu_trial_boot_cnt
                0x2fff1cf0       0x60 /home/dangcaominh/STM32MP1/atf/stm32mp1_atf/../build/opteemin-nand-stm32mp157d-ev1/bl2/stm32mp_common.o
                0x2fff1cf0                stm32_get_and_dec_fwu_trial_boot_cnt
 .text.fdt_get_node_parent_address_cells
                0x2fff1d50       0x24 /home/dangcaominh/STM32MP1/atf/stm32mp1_atf/../build/opteemin-nand-stm32mp157d-ev1/bl2/stm32mp_dt.o
 .text.dt_open_and_check
                0x2fff1d74       0x14 /home/dangcaominh/STM32MP1/atf/stm32mp1_atf/../build/opteemin-nand-stm32mp157d-ev1/bl2/stm32mp_dt.o
                0x2fff1d74                dt_open_and_check
 .text.fdt_get_address
                0x2fff1d88       0x14 /home/dangcaominh/STM32MP1/atf/stm32mp1_atf/../build/opteemin-nand-stm32mp157d-ev1/bl2/stm32mp_dt.o
                0x2fff1d88                fdt_get_address
 .text.fdt_check_node
                0x2fff1d9c       0x20 /home/dangcaominh/STM32MP1/atf/stm32mp1_atf/../build/opteemin-nand-stm32mp157d-ev1/bl2/stm32mp_dt.o
                0x2fff1d9c                fdt_check_node
 .text.fdt_get_status
                0x2fff1dbc       0x74 /home/dangcaominh/STM32MP1/atf/stm32mp1_atf/../build/opteemin-nand-stm32mp157d-ev1/bl2/stm32mp_dt.o
                0x2fff1dbc                fdt_get_status
 .text.dt_set_stdout_pinctrl
                0x2fff1e30       0x20 /home/dangcaominh/STM32MP1/atf/stm32mp1_atf/../build/opteemin-nand-stm32mp157d-ev1/bl2/stm32mp_dt.o
                0x2fff1e30                dt_set_stdout_pinctrl
 .text.dt_fill_device_info
                0x2fff1e50       0x88 /home/dangcaominh/STM32MP1/atf/stm32mp1_atf/../build/opteemin-nand-stm32mp157d-ev1/bl2/stm32mp_dt.o
                0x2fff1e50                dt_fill_device_info
 .text.dt_get_node
                0x2fff1ed8       0x28 /home/dangcaominh/STM32MP1/atf/stm32mp1_atf/../build/opteemin-nand-stm32mp157d-ev1/bl2/stm32mp_dt.o
                0x2fff1ed8                dt_get_node
 .text.dt_get_stdout_uart_info
                0x2fff1f00       0x28 /home/dangcaominh/STM32MP1/atf/stm32mp1_atf/../build/opteemin-nand-stm32mp157d-ev1/bl2/stm32mp_dt.o
                0x2fff1f00                dt_get_stdout_uart_info
 .text.dt_get_ddr_size
                0x2fff1f28       0x58 /home/dangcaominh/STM32MP1/atf/stm32mp1_atf/../build/opteemin-nand-stm32mp157d-ev1/bl2/stm32mp_dt.o
                0x2fff1f28                dt_get_ddr_size
 .text.dt_get_vdd_regulator
                0x2fff1f80       0x30 /home/dangcaominh/STM32MP1/atf/stm32mp1_atf/../build/opteemin-nand-stm32mp157d-ev1/bl2/stm32mp_dt.o
                0x2fff1f80                dt_get_vdd_regulator
 .text.dt_get_board_model
                0x2fff1fb0       0x30 /home/dangcaominh/STM32MP1/atf/stm32mp1_atf/../build/opteemin-nand-stm32mp157d-ev1/bl2/stm32mp_dt.o
                0x2fff1fb0                dt_get_board_model
 .text.dt_find_otp_name
                0x2fff1fe0       0xa8 /home/dangcaominh/STM32MP1/atf/stm32mp1_atf/../build/opteemin-nand-stm32mp157d-ev1/bl2/stm32mp_dt.o
                0x2fff1fe0                dt_find_otp_name
 .text.dt_get_otp_by_phandle
                0x2fff2088       0x88 /home/dangcaominh/STM32MP1/atf/stm32mp1_atf/../build/opteemin-nand-stm32mp157d-ev1/bl2/stm32mp_dt.o
                0x2fff2088                dt_get_otp_by_phandle
 .text.fconf_populate_stm32mp_fuse_provisioning
                0x2fff2110      0x128 /home/dangcaominh/STM32MP1/atf/stm32mp1_atf/../build/opteemin-nand-stm32mp157d-ev1/bl2/stm32mp_fconf_fuse.o
 .text.fconf_populate_stm32mp_io_policies
                0x2fff2238       0xd8 /home/dangcaominh/STM32MP1/atf/stm32mp1_atf/../build/opteemin-nand-stm32mp157d-ev1/bl2/stm32mp_fconf_io.o
                0x2fff2238                fconf_populate_stm32mp_io_policies
 .text.bl2_platform_setup
                0x2fff2310       0x74 /home/dangcaominh/STM32MP1/atf/stm32mp1_atf/../build/opteemin-nand-stm32mp157d-ev1/bl2/bl2_plat_setup.o
                0x2fff2310                bl2_platform_setup
 .text.bl2_el3_plat_arch_setup
                0x2fff2384      0x3e0 /home/dangcaominh/STM32MP1/atf/stm32mp1_atf/../build/opteemin-nand-stm32mp157d-ev1/bl2/bl2_plat_setup.o
                0x2fff2384                bl2_el3_plat_arch_setup
 .text.bl2_plat_handle_post_image_load
                0x2fff2764      0x1f8 /home/dangcaominh/STM32MP1/atf/stm32mp1_atf/../build/opteemin-nand-stm32mp157d-ev1/bl2/bl2_plat_setup.o
                0x2fff2764                bl2_plat_handle_post_image_load
 .text.bl2_el3_plat_prepare_exit
                0x2fff295c       0x30 /home/dangcaominh/STM32MP1/atf/stm32mp1_atf/../build/opteemin-nand-stm32mp157d-ev1/bl2/bl2_plat_setup.o
                0x2fff295c                bl2_el3_plat_prepare_exit
 .text.stm32mp_board_ddr_power_init
                0x2fff298c      0x124 /home/dangcaominh/STM32MP1/atf/stm32mp1_atf/../build/opteemin-nand-stm32mp157d-ev1/bl2/plat_ddr.o
                0x2fff298c                stm32mp_board_ddr_power_init
 .text.plat_get_raw_nand_data
                0x2fff2ab0       0xd0 /home/dangcaominh/STM32MP1/atf/stm32mp1_atf/../build/opteemin-nand-stm32mp157d-ev1/bl2/stm32mp1_boot_device.o
                0x2fff2ab0                plat_get_raw_nand_data
 .text.stm32_pm_get_optee_ep
                0x2fff2b80       0x58 /home/dangcaominh/STM32MP1/atf/stm32mp1_atf/../build/opteemin-nand-stm32mp157d-ev1/bl2/stm32mp1_context.o
                0x2fff2b80                stm32_pm_get_optee_ep
 .text.stm32_context_save_bl2_param
                0x2fff2bd8       0x54 /home/dangcaominh/STM32MP1/atf/stm32mp1_atf/../build/opteemin-nand-stm32mp157d-ev1/bl2/stm32mp1_context.o
                0x2fff2bd8                stm32_context_save_bl2_param
 .text.stm32_pm_context_is_valid
                0x2fff2c2c       0x80 /home/dangcaominh/STM32MP1/atf/stm32mp1_atf/../build/opteemin-nand-stm32mp157d-ev1/bl2/stm32mp1_context.o
                0x2fff2c2c                stm32_pm_context_is_valid
 .text.stm32_restore_ddr_training_area
                0x2fff2cac       0x3c /home/dangcaominh/STM32MP1/atf/stm32mp1_atf/../build/opteemin-nand-stm32mp157d-ev1/bl2/stm32mp1_context.o
                0x2fff2cac                stm32_restore_ddr_training_area
 .text.stm32_pwr_down_wfi_load
                0x2fff2ce8       0x80 /home/dangcaominh/STM32MP1/atf/stm32mp1_atf/../build/opteemin-nand-stm32mp157d-ev1/bl2/stm32mp1_critic_power.o
                0x2fff2ce8                stm32_pwr_down_wfi_load
 .text.stm32mp1_dbgmcu_init
                0x2fff2d68       0x30 /home/dangcaominh/STM32MP1/atf/stm32mp1_atf/../build/opteemin-nand-stm32mp157d-ev1/bl2/stm32mp1_dbgmcu.o
 .text.stm32mp1_dbgmcu_get_chip_version
                0x2fff2d98       0x2c /home/dangcaominh/STM32MP1/atf/stm32mp1_atf/../build/opteemin-nand-stm32mp157d-ev1/bl2/stm32mp1_dbgmcu.o
                0x2fff2d98                stm32mp1_dbgmcu_get_chip_version
 .text.stm32mp1_dbgmcu_get_chip_dev_id
                0x2fff2dc4       0x30 /home/dangcaominh/STM32MP1/atf/stm32mp1_atf/../build/opteemin-nand-stm32mp157d-ev1/bl2/stm32mp1_dbgmcu.o
                0x2fff2dc4                stm32mp1_dbgmcu_get_chip_dev_id
 .text.fconf_populate_stm32mp1_firewall
                0x2fff2df4       0xcc /home/dangcaominh/STM32MP1/atf/stm32mp1_atf/../build/opteemin-nand-stm32mp157d-ev1/bl2/stm32mp1_fconf_firewall.o
 .text.stm32mp1_arch_security_setup
                0x2fff2ec0       0x34 /home/dangcaominh/STM32MP1/atf/stm32mp1_atf/../build/opteemin-nand-stm32mp157d-ev1/bl2/stm32mp1_fconf_firewall.o
                0x2fff2ec0                stm32mp1_arch_security_setup
 .text.stm32mp1_security_setup
                0x2fff2ef4       0x5c /home/dangcaominh/STM32MP1/atf/stm32mp1_atf/../build/opteemin-nand-stm32mp157d-ev1/bl2/stm32mp1_fconf_firewall.o
                0x2fff2ef4                stm32mp1_security_setup
 .text.configure_mmu
                0x2fff2f50       0x1c /home/dangcaominh/STM32MP1/atf/stm32mp1_atf/../build/opteemin-nand-stm32mp157d-ev1/bl2/stm32mp1_private.o
                0x2fff2f50                configure_mmu
 .text.stm32_get_gpio_bank_base
                0x2fff2f6c       0x28 /home/dangcaominh/STM32MP1/atf/stm32mp1_atf/../build/opteemin-nand-stm32mp157d-ev1/bl2/stm32mp1_private.o
                0x2fff2f6c                stm32_get_gpio_bank_base
 .text.stm32_get_gpio_bank_offset
                0x2fff2f94       0x20 /home/dangcaominh/STM32MP1/atf/stm32mp1_atf/../build/opteemin-nand-stm32mp157d-ev1/bl2/stm32mp1_private.o
                0x2fff2f94                stm32_get_gpio_bank_offset
 .text.stm32_get_gpio_bank_clock
                0x2fff2fb4       0x20 /home/dangcaominh/STM32MP1/atf/stm32mp1_atf/../build/opteemin-nand-stm32mp157d-ev1/bl2/stm32mp1_private.o
                0x2fff2fb4                stm32_get_gpio_bank_clock
 .text.stm32mp_get_chip_version
                0x2fff2fd4       0x24 /home/dangcaominh/STM32MP1/atf/stm32mp1_atf/../build/opteemin-nand-stm32mp157d-ev1/bl2/stm32mp1_private.o
                0x2fff2fd4                stm32mp_get_chip_version
 .text.stm32mp_get_chip_dev_id
                0x2fff2ff8       0x24 /home/dangcaominh/STM32MP1/atf/stm32mp1_atf/../build/opteemin-nand-stm32mp157d-ev1/bl2/stm32mp1_private.o
                0x2fff2ff8                stm32mp_get_chip_dev_id
 .text.stm32mp_get_part_number
                0x2fff301c       0x34 /home/dangcaominh/STM32MP1/atf/stm32mp1_atf/../build/opteemin-nand-stm32mp157d-ev1/bl2/stm32mp1_private.o
                0x2fff301c                stm32mp_get_part_number
 .text.stm32mp_get_soc_name
                0x2fff3050      0x148 /home/dangcaominh/STM32MP1/atf/stm32mp1_atf/../build/opteemin-nand-stm32mp157d-ev1/bl2/stm32mp1_private.o
                0x2fff3050                stm32mp_get_soc_name
 .text.stm32mp_print_cpuinfo
                0x2fff3198       0x1c /home/dangcaominh/STM32MP1/atf/stm32mp1_atf/../build/opteemin-nand-stm32mp157d-ev1/bl2/stm32mp1_private.o
                0x2fff3198                stm32mp_print_cpuinfo
 .text.stm32mp_print_boardinfo
                0x2fff31b4       0x24 /home/dangcaominh/STM32MP1/atf/stm32mp1_atf/../build/opteemin-nand-stm32mp157d-ev1/bl2/stm32mp1_private.o
                0x2fff31b4                stm32mp_print_boardinfo
 .text.stm32mp_check_closed_device
                0x2fff31d8       0x2c /home/dangcaominh/STM32MP1/atf/stm32mp1_atf/../build/opteemin-nand-stm32mp157d-ev1/bl2/stm32mp1_private.o
                0x2fff31d8                stm32mp_check_closed_device
 .text.stm32_iwdg_get_instance
                0x2fff3204       0x28 /home/dangcaominh/STM32MP1/atf/stm32mp1_atf/../build/opteemin-nand-stm32mp157d-ev1/bl2/stm32mp1_private.o
                0x2fff3204                stm32_iwdg_get_instance
 .text.stm32_iwdg_get_otp_config
                0x2fff322c       0x30 /home/dangcaominh/STM32MP1/atf/stm32mp1_atf/../build/opteemin-nand-stm32mp157d-ev1/bl2/stm32mp1_private.o
                0x2fff322c                stm32_iwdg_get_otp_config
 .text.stm32mp_skip_boot_device_after_standby
                0x2fff325c       0x2c /home/dangcaominh/STM32MP1/atf/stm32mp1_atf/../build/opteemin-nand-stm32mp157d-ev1/bl2/stm32mp1_private.o
                0x2fff325c                stm32mp_skip_boot_device_after_standby
 .text.stm32mp_bkpram_get_access
                0x2fff3288       0x20 /home/dangcaominh/STM32MP1/atf/stm32mp1_atf/../build/opteemin-nand-stm32mp157d-ev1/bl2/stm32mp1_private.o
                0x2fff3288                stm32mp_bkpram_get_access
 .text.stm32mp_syscfg_enable_io_compensation_start
                0x2fff32a8       0x18 /home/dangcaominh/STM32MP1/atf/stm32mp1_atf/../build/opteemin-nand-stm32mp157d-ev1/bl2/stm32mp1_syscfg.o
                0x2fff32a8                stm32mp_syscfg_enable_io_compensation_start
 .text.stm32mp_syscfg_init
                0x2fff32c0       0x8c /home/dangcaominh/STM32MP1/atf/stm32mp1_atf/../build/opteemin-nand-stm32mp157d-ev1/bl2/stm32mp1_syscfg.o
                0x2fff32c0                stm32mp_syscfg_init
 .text.stm32mp_syscfg_enable_io_compensation_finish
                0x2fff334c       0x50 /home/dangcaominh/STM32MP1/atf/stm32mp1_atf/../build/opteemin-nand-stm32mp157d-ev1/bl2/stm32mp1_syscfg.o
                0x2fff334c                stm32mp_syscfg_enable_io_compensation_finish
 .text          0x2fff339c       0x24 /home/dangcaominh/STM32MP1/atf/stm32mp1_atf/../build/opteemin-nand-stm32mp157d-ev1/bl2/aeabi_uldivmod.o
                0x2fff339c                __aeabi_uldivmod
 .text.fdt_ro_probe_
                0x2fff33c0       0x74 /home/dangcaominh/STM32MP1/atf/stm32mp1_atf/../build/opteemin-nand-stm32mp157d-ev1/lib/libfdt.a(fdt.o)
                0x2fff33c0                fdt_ro_probe_
 .text.fdt_check_header
                0x2fff3434       0xd0 /home/dangcaominh/STM32MP1/atf/stm32mp1_atf/../build/opteemin-nand-stm32mp157d-ev1/lib/libfdt.a(fdt.o)
                0x2fff3434                fdt_check_header
 .text.fdt_address_cells
                0x2fff3504       0x1c /home/dangcaominh/STM32MP1/atf/stm32mp1_atf/../build/opteemin-nand-stm32mp157d-ev1/lib/libfdt.a(fdt_addresses.o)
                0x2fff3504                fdt_address_cells
 .text.fdt_get_string
                0x2fff3520       0xb0 /home/dangcaominh/STM32MP1/atf/stm32mp1_atf/../build/opteemin-nand-stm32mp157d-ev1/lib/libfdt.a(fdt_ro.o)
                0x2fff3520                fdt_get_string
 .text.fdt_get_phandle
                0x2fff35d0       0x44 /home/dangcaominh/STM32MP1/atf/stm32mp1_atf/../build/opteemin-nand-stm32mp157d-ev1/lib/libfdt.a(fdt_ro.o)
                0x2fff35d0                fdt_get_phandle
 .text.fdt_get_alias_namelen
                0x2fff3614       0x2c /home/dangcaominh/STM32MP1/atf/stm32mp1_atf/../build/opteemin-nand-stm32mp157d-ev1/lib/libfdt.a(fdt_ro.o)
                0x2fff3614                fdt_get_alias_namelen
 .text.fdt_node_check_compatible
                0x2fff3640       0x28 /home/dangcaominh/STM32MP1/atf/stm32mp1_atf/../build/opteemin-nand-stm32mp157d-ev1/lib/libfdt.a(fdt_ro.o)
                0x2fff3640                fdt_node_check_compatible
 .text.__assert
                0x2fff3668       0x18 /home/dangcaominh/STM32MP1/atf/stm32mp1_atf/../build/opteemin-nand-stm32mp157d-ev1/lib/libc.a(assert.o)
                0x2fff3668                __assert
 .text.vprintf  0x2fff3680      0x1c4 /home/dangcaominh/STM32MP1/atf/stm32mp1_atf/../build/opteemin-nand-stm32mp157d-ev1/lib/libc.a(printf.o)
                0x2fff3680                vprintf
 .text.vsnprintf
                0x2fff3844      0x2d0 /home/dangcaominh/STM32MP1/atf/stm32mp1_atf/../build/opteemin-nand-stm32mp157d-ev1/lib/libc.a(snprintf.o)
                0x2fff3844                vsnprintf
 .text.bl2_arch_setup
                0x2fff3b14        0x2 /home/dangcaominh/STM32MP1/atf/stm32mp1_atf/../build/opteemin-nand-stm32mp157d-ev1/bl2/bl2_arch_setup.o
                0x2fff3b14                bl2_arch_setup
 .text.bl2_el3_setup
                0x2fff3b16        0xe /home/dangcaominh/STM32MP1/atf/stm32mp1_atf/../build/opteemin-nand-stm32mp157d-ev1/bl2/bl2_main.o
                0x2fff3b16                bl2_el3_setup
 .text.fdt32_to_cpu
                0x2fff3b24        0x4 /home/dangcaominh/STM32MP1/atf/stm32mp1_atf/../build/opteemin-nand-stm32mp157d-ev1/bl2/fdt_wrappers.o
 .text.fdt_read_uint32
                0x2fff3b28       0x10 /home/dangcaominh/STM32MP1/atf/stm32mp1_atf/../build/opteemin-nand-stm32mp157d-ev1/bl2/fdt_wrappers.o
                0x2fff3b28                fdt_read_uint32
 .text.fdt_read_uint32_default
                0x2fff3b38       0x18 /home/dangcaominh/STM32MP1/atf/stm32mp1_atf/../build/opteemin-nand-stm32mp157d-ev1/bl2/fdt_wrappers.o
                0x2fff3b38                fdt_read_uint32_default
 .text.fdt_read_uint64
                0x2fff3b50       0x28 /home/dangcaominh/STM32MP1/atf/stm32mp1_atf/../build/opteemin-nand-stm32mp157d-ev1/bl2/fdt_wrappers.o
                0x2fff3b50                fdt_read_uint64
 .text.hex_val  0x2fff3b78       0x2e /home/dangcaominh/STM32MP1/atf/stm32mp1_atf/../build/opteemin-nand-stm32mp157d-ev1/bl2/uuid.o
 .text.read_hex.part.0
                0x2fff3ba6       0x3a /home/dangcaominh/STM32MP1/atf/stm32mp1_atf/../build/opteemin-nand-stm32mp157d-ev1/bl2/uuid.o
 .text.putchar  0x2fff3be0       0x14 /home/dangcaominh/STM32MP1/atf/stm32mp1_atf/../build/opteemin-nand-stm32mp157d-ev1/bl2/multi_console.o
                0x2fff3be0                putchar
 .text.mdelay   0x2fff3bf4        0xa /home/dangcaominh/STM32MP1/atf/stm32mp1_atf/../build/opteemin-nand-stm32mp157d-ev1/bl2/delay_timer.o
                0x2fff3bf4                mdelay
 .text.get_timer_value
                0x2fff3bfe        0x8 /home/dangcaominh/STM32MP1/atf/stm32mp1_atf/../build/opteemin-nand-stm32mp157d-ev1/bl2/generic_delay_timer.o
 .text.device_type_fip
                0x2fff3c06        0x4 /home/dangcaominh/STM32MP1/atf/stm32mp1_atf/../build/opteemin-nand-stm32mp157d-ev1/bl2/io_fip.o
 .text.device_type_mtd
                0x2fff3c0a        0x4 /home/dangcaominh/STM32MP1/atf/stm32mp1_atf/../build/opteemin-nand-stm32mp157d-ev1/bl2/io_mtd.o
                0x2fff3c0a                device_type_mtd
 .text.mtd_close
                0x2fff3c0e        0x8 /home/dangcaominh/STM32MP1/atf/stm32mp1_atf/../build/opteemin-nand-stm32mp157d-ev1/bl2/io_mtd.o
 .text.is_valid_dev
                0x2fff3c16       0x18 /home/dangcaominh/STM32MP1/atf/stm32mp1_atf/../build/opteemin-nand-stm32mp157d-ev1/bl2/io_storage.o
 .text.is_valid_entity
                0x2fff3c2e       0x10 /home/dangcaominh/STM32MP1/atf/stm32mp1_atf/../build/opteemin-nand-stm32mp157d-ev1/bl2/io_storage.o
 .text.bsec_read_otp
                0x2fff3c3e       0x2c /home/dangcaominh/STM32MP1/atf/stm32mp1_atf/../build/opteemin-nand-stm32mp157d-ev1/bl2/bsec2.o
                0x2fff3c3e                bsec_read_otp
 .text.clock_is_always_on
                0x2fff3c6a       0x20 /home/dangcaominh/STM32MP1/atf/stm32mp1_atf/../build/opteemin-nand-stm32mp157d-ev1/bl2/stm32mp1_clk.o
 .text.stm32mp1_clk_lock
                0x2fff3c8a       0x16 /home/dangcaominh/STM32MP1/atf/stm32mp1_atf/../build/opteemin-nand-stm32mp157d-ev1/bl2/stm32mp1_clk.o
 .text.stm32mp1_clk_unlock
                0x2fff3ca0       0x16 /home/dangcaominh/STM32MP1/atf/stm32mp1_atf/../build/opteemin-nand-stm32mp157d-ev1/bl2/stm32mp1_clk.o
 .text.stm32_clk_parse_fdt_by_name
                0x2fff3cb6       0x36 /home/dangcaominh/STM32MP1/atf/stm32mp1_atf/../build/opteemin-nand-stm32mp157d-ev1/bl2/stm32mp1_clk.o
 .text.stm32mp1_pll_configure_src
                0x2fff3cec       0x18 /home/dangcaominh/STM32MP1/atf/stm32mp1_atf/../build/opteemin-nand-stm32mp157d-ev1/bl2/stm32mp1_clk.o
 .text.stm32mp1_mode_register_write.isra.0
                0x2fff3d04       0x22 /home/dangcaominh/STM32MP1/atf/stm32mp1_atf/../build/opteemin-nand-stm32mp157d-ev1/bl2/stm32mp1_ddr.o
 .text.stm32mp1_ddrphy_idone_wait
                0x2fff3d26       0x4a /home/dangcaominh/STM32MP1/atf/stm32mp1_atf/../build/opteemin-nand-stm32mp157d-ev1/bl2/stm32mp1_ddr.o
 .text.stm32mp1_wait_operating_mode
                0x2fff3d70       0x4e /home/dangcaominh/STM32MP1/atf/stm32mp1_atf/../build/opteemin-nand-stm32mp157d-ev1/bl2/stm32mp1_ddr.o
 .text.ddr_enable_clock
                0x2fff3dbe       0x2a /home/dangcaominh/STM32MP1/atf/stm32mp1_atf/../build/opteemin-nand-stm32mp157d-ev1/bl2/stm32mp1_ddr_helpers.o
                0x2fff3dbe                ddr_enable_clock
 .text.ddr_get_io_calibration_val
                0x2fff3de8       0x10 /home/dangcaominh/STM32MP1/atf/stm32mp1_atf/../build/opteemin-nand-stm32mp157d-ev1/bl2/stm32mp1_ddr_helpers.o
                0x2fff3de8                ddr_get_io_calibration_val
 .text.ddr_standby_sr_entry
                0x2fff3df8      0x17e /home/dangcaominh/STM32MP1/atf/stm32mp1_atf/../build/opteemin-nand-stm32mp157d-ev1/bl2/stm32mp1_ddr_helpers.o
                0x2fff3df8                ddr_standby_sr_entry
 .text.stm32mp_ddr_start_sw_done
                0x2fff3f76        0xe /home/dangcaominh/STM32MP1/atf/stm32mp1_atf/../build/opteemin-nand-stm32mp157d-ev1/bl2/stm32mp_ddr.o
                0x2fff3f76                stm32mp_ddr_start_sw_done
 .text.stm32mp_ddr_wait_sw_done_ack
                0x2fff3f84       0x3a /home/dangcaominh/STM32MP1/atf/stm32mp1_atf/../build/opteemin-nand-stm32mp157d-ev1/bl2/stm32mp_ddr.o
                0x2fff3f84                stm32mp_ddr_wait_sw_done_ack
 .text.stm32mp_ddr_enable_axi_port
                0x2fff3fbe       0x1a /home/dangcaominh/STM32MP1/atf/stm32mp1_atf/../build/opteemin-nand-stm32mp157d-ev1/bl2/stm32mp_ddr.o
                0x2fff3fbe                stm32mp_ddr_enable_axi_port
 .text.stm32mp_ddr_disable_axi_port
                0x2fff3fd8       0x46 /home/dangcaominh/STM32MP1/atf/stm32mp1_atf/../build/opteemin-nand-stm32mp157d-ev1/bl2/stm32mp_ddr.o
                0x2fff3fd8                stm32mp_ddr_disable_axi_port
 .text.stm32mp_ddr_enable_host_interface
                0x2fff401e        0xe /home/dangcaominh/STM32MP1/atf/stm32mp1_atf/../build/opteemin-nand-stm32mp157d-ev1/bl2/stm32mp_ddr.o
                0x2fff401e                stm32mp_ddr_enable_host_interface
 .text.stm32mp_ddr_disable_host_interface
                0x2fff402c       0x4a /home/dangcaominh/STM32MP1/atf/stm32mp1_atf/../build/opteemin-nand-stm32mp157d-ev1/bl2/stm32mp_ddr.o
                0x2fff402c                stm32mp_ddr_disable_host_interface
 .text.stm32mp_ddr_sw_selfref_exit
                0x2fff4076        0xa /home/dangcaominh/STM32MP1/atf/stm32mp1_atf/../build/opteemin-nand-stm32mp157d-ev1/bl2/stm32mp_ddr.o
                0x2fff4076                stm32mp_ddr_sw_selfref_exit
 .text.stm32mp_ddr_wait_refresh_update_done_ack
                0x2fff4080       0x4c /home/dangcaominh/STM32MP1/atf/stm32mp1_atf/../build/opteemin-nand-stm32mp157d-ev1/bl2/stm32mp_ddr.o
                0x2fff4080                stm32mp_ddr_wait_refresh_update_done_ack
 .text.stm32mp_ddr_test_rw_access
                0x2fff40cc       0x1a /home/dangcaominh/STM32MP1/atf/stm32mp1_atf/../build/opteemin-nand-stm32mp157d-ev1/bl2/stm32mp_ddr_test.o
                0x2fff40cc                stm32mp_ddr_test_rw_access
 .text.stm32mp_ddr_test_data_bus
                0x2fff40e6       0x1e /home/dangcaominh/STM32MP1/atf/stm32mp1_atf/../build/opteemin-nand-stm32mp157d-ev1/bl2/stm32mp_ddr_test.o
                0x2fff40e6                stm32mp_ddr_test_data_bus
 .text.stm32mp_ddr_test_addr_bus
                0x2fff4104       0x86 /home/dangcaominh/STM32MP1/atf/stm32mp1_atf/../build/opteemin-nand-stm32mp157d-ev1/bl2/stm32mp_ddr_test.o
                0x2fff4104                stm32mp_ddr_test_addr_bus
 .text.stm32mp_ddr_check_size
                0x2fff418a       0x2e /home/dangcaominh/STM32MP1/atf/stm32mp1_atf/../build/opteemin-nand-stm32mp157d-ev1/bl2/stm32mp_ddr_test.o
                0x2fff418a                stm32mp_ddr_check_size
 .text.fdt32_to_cpu
                0x2fff41b8        0x4 /home/dangcaominh/STM32MP1/atf/stm32mp1_atf/../build/opteemin-nand-stm32mp157d-ev1/bl2/stm32_fmc2_nand.o
 .text.fdt32_to_cpu
                0x2fff41bc        0x4 /home/dangcaominh/STM32MP1/atf/stm32mp1_atf/../build/opteemin-nand-stm32mp157d-ev1/bl2/stm32_gpio.o
 .text.i2c_wait_flag
                0x2fff41c0       0x44 /home/dangcaominh/STM32MP1/atf/stm32mp1_atf/../build/opteemin-nand-stm32mp157d-ev1/bl2/stm32_i2c.o
 .text.i2c_ack_failed
                0x2fff4204       0x8c /home/dangcaominh/STM32MP1/atf/stm32mp1_atf/../build/opteemin-nand-stm32mp157d-ev1/bl2/stm32_i2c.o
 .text.i2c_wait_txis
                0x2fff4290       0x42 /home/dangcaominh/STM32MP1/atf/stm32mp1_atf/../build/opteemin-nand-stm32mp157d-ev1/bl2/stm32_i2c.o
 .text.i2c_wait_stop
                0x2fff42d2       0x42 /home/dangcaominh/STM32MP1/atf/stm32mp1_atf/../build/opteemin-nand-stm32mp157d-ev1/bl2/stm32_i2c.o
 .text.stm32_i2c_mem_write
                0x2fff4314       0x1c /home/dangcaominh/STM32MP1/atf/stm32mp1_atf/../build/opteemin-nand-stm32mp157d-ev1/bl2/stm32_i2c.o
                0x2fff4314                stm32_i2c_mem_write
 .text.stm32_i2c_mem_read
                0x2fff4330       0x12 /home/dangcaominh/STM32MP1/atf/stm32mp1_atf/../build/opteemin-nand-stm32mp157d-ev1/bl2/stm32_i2c.o
                0x2fff4330                stm32_i2c_mem_read
 .text.nvmem_cell_read
                0x2fff4342       0x18 /home/dangcaominh/STM32MP1/atf/stm32mp1_atf/../build/opteemin-nand-stm32mp157d-ev1/bl2/nvmem.o
                0x2fff4342                nvmem_cell_read
 .text.nvmem_cell_write
                0x2fff435a       0x10 /home/dangcaominh/STM32MP1/atf/stm32mp1_atf/../build/opteemin-nand-stm32mp157d-ev1/bl2/nvmem.o
                0x2fff435a                nvmem_cell_write
 .text.fdt32_to_cpu
                0x2fff436a        0x4 /home/dangcaominh/STM32MP1/atf/stm32mp1_atf/../build/opteemin-nand-stm32mp157d-ev1/bl2/stm32mp_tamp_nvram_core.o
 .text.stm32_tamp_nvram_reg_get_zone
                0x2fff436e       0x2a /home/dangcaominh/STM32MP1/atf/stm32mp1_atf/../build/opteemin-nand-stm32mp157d-ev1/bl2/stm32mp_tamp_nvram_core.o
                0x2fff436e                stm32_tamp_nvram_reg_get_zone
 .text.stm32_tamp_nvram_reg_field_read
                0x2fff4398       0x30 /home/dangcaominh/STM32MP1/atf/stm32mp1_atf/../build/opteemin-nand-stm32mp157d-ev1/bl2/stm32mp_tamp_nvram_core.o
                0x2fff4398                stm32_tamp_nvram_reg_field_read
 .text.pmic_set_flag
                0x2fff43c8       0x44 /home/dangcaominh/STM32MP1/atf/stm32mp1_atf/../build/opteemin-nand-stm32mp157d-ev1/bl2/stm32mp_pmic.o
 .text.pmic_list_voltages
                0x2fff440c        0x6 /home/dangcaominh/STM32MP1/atf/stm32mp1_atf/../build/opteemin-nand-stm32mp157d-ev1/bl2/stm32mp_pmic.o
 .text.pmic_get_voltage
                0x2fff4412        0x6 /home/dangcaominh/STM32MP1/atf/stm32mp1_atf/../build/opteemin-nand-stm32mp157d-ev1/bl2/stm32mp_pmic.o
 .text.pmic_set_voltage
                0x2fff4418        0x6 /home/dangcaominh/STM32MP1/atf/stm32mp1_atf/../build/opteemin-nand-stm32mp157d-ev1/bl2/stm32mp_pmic.o
 .text.pmic_get_state
                0x2fff441e        0xa /home/dangcaominh/STM32MP1/atf/stm32mp1_atf/../build/opteemin-nand-stm32mp157d-ev1/bl2/stm32mp_pmic.o
 .text.pmic_set_state
                0x2fff4428        0xc /home/dangcaominh/STM32MP1/atf/stm32mp1_atf/../build/opteemin-nand-stm32mp157d-ev1/bl2/stm32mp_pmic.o
 .text.pmic_voltages_init
                0x2fff4434        0x4 /home/dangcaominh/STM32MP1/atf/stm32mp1_atf/../build/opteemin-nand-stm32mp157d-ev1/bl2/stm32mp_pmic.o
                0x2fff4434                pmic_voltages_init
 .text.pmic_switch_off
                0x2fff4438       0x16 /home/dangcaominh/STM32MP1/atf/stm32mp1_atf/../build/opteemin-nand-stm32mp157d-ev1/bl2/stm32mp_pmic.o
                0x2fff4438                pmic_switch_off
 .text.stpmic1_is_regulator_enabled
                0x2fff444e       0x2e /home/dangcaominh/STM32MP1/atf/stm32mp1_atf/../build/opteemin-nand-stm32mp157d-ev1/bl2/stpmic1.o
                0x2fff444e                stpmic1_is_regulator_enabled
 .text.stpmic1_register_update
                0x2fff447c       0x2e /home/dangcaominh/STM32MP1/atf/stm32mp1_atf/../build/opteemin-nand-stm32mp157d-ev1/bl2/stpmic1.o
                0x2fff447c                stpmic1_register_update
 .text.stpmic1_powerctrl_on
                0x2fff44aa        0xa /home/dangcaominh/STM32MP1/atf/stm32mp1_atf/../build/opteemin-nand-stm32mp157d-ev1/bl2/stpmic1.o
                0x2fff44aa                stpmic1_powerctrl_on
 .text.stpmic1_switch_off
                0x2fff44b4        0xa /home/dangcaominh/STM32MP1/atf/stm32mp1_atf/../build/opteemin-nand-stm32mp157d-ev1/bl2/stpmic1.o
                0x2fff44b4                stpmic1_switch_off
 .text.stpmic1_regulator_enable
                0x2fff44be       0x14 /home/dangcaominh/STM32MP1/atf/stm32mp1_atf/../build/opteemin-nand-stm32mp157d-ev1/bl2/stpmic1.o
                0x2fff44be                stpmic1_regulator_enable
 .text.stpmic1_regulator_disable
                0x2fff44d2       0x14 /home/dangcaominh/STM32MP1/atf/stm32mp1_atf/../build/opteemin-nand-stm32mp157d-ev1/bl2/stpmic1.o
                0x2fff44d2                stpmic1_regulator_disable
 .text.stpmic1_regulator_pull_down_set
                0x2fff44e6       0x24 /home/dangcaominh/STM32MP1/atf/stm32mp1_atf/../build/opteemin-nand-stm32mp157d-ev1/bl2/stpmic1.o
                0x2fff44e6                stpmic1_regulator_pull_down_set
 .text.stpmic1_regulator_mask_reset_set
                0x2fff450a       0x24 /home/dangcaominh/STM32MP1/atf/stm32mp1_atf/../build/opteemin-nand-stm32mp157d-ev1/bl2/stpmic1.o
                0x2fff450a                stpmic1_regulator_mask_reset_set
 .text.stpmic1_regulator_icc_set
                0x2fff452e       0x24 /home/dangcaominh/STM32MP1/atf/stm32mp1_atf/../build/opteemin-nand-stm32mp157d-ev1/bl2/stpmic1.o
                0x2fff452e                stpmic1_regulator_icc_set
 .text.stpmic1_get_version
                0x2fff4552       0x1e /home/dangcaominh/STM32MP1/atf/stm32mp1_atf/../build/opteemin-nand-stm32mp157d-ev1/bl2/stpmic1.o
                0x2fff4552                stpmic1_get_version
 .text.fdt32_to_cpu
                0x2fff4570        0x4 /home/dangcaominh/STM32MP1/atf/stm32mp1_atf/../build/opteemin-nand-stm32mp157d-ev1/bl2/regulator_core.o
 .text.unlock_driver.isra.0
                0x2fff4574        0xa /home/dangcaominh/STM32MP1/atf/stm32mp1_atf/../build/opteemin-nand-stm32mp157d-ev1/bl2/regulator_core.o
 .text.lock_driver.isra.0
                0x2fff457e        0xa /home/dangcaominh/STM32MP1/atf/stm32mp1_atf/../build/opteemin-nand-stm32mp157d-ev1/bl2/regulator_core.o
 .text.regulator_set_min_voltage
                0x2fff4588        0x6 /home/dangcaominh/STM32MP1/atf/stm32mp1_atf/../build/opteemin-nand-stm32mp157d-ev1/bl2/regulator_core.o
                0x2fff4588                regulator_set_min_voltage
 .text.fixed_set_state
                0x2fff458e        0x4 /home/dangcaominh/STM32MP1/atf/stm32mp1_atf/../build/opteemin-nand-stm32mp157d-ev1/bl2/regulator_fixed.o
 .text.fixed_get_state
                0x2fff4592        0x4 /home/dangcaominh/STM32MP1/atf/stm32mp1_atf/../build/opteemin-nand-stm32mp157d-ev1/bl2/regulator_fixed.o
 .text.stm32mp_system_reset
                0x2fff4596       0x14 /home/dangcaominh/STM32MP1/atf/stm32mp1_atf/../build/opteemin-nand-stm32mp157d-ev1/bl2/stm32mp1_reset.o
                0x2fff4596                stm32mp_system_reset
 .text.__ctzdi2
                0x2fff45aa       0x22 /home/dangcaominh/STM32MP1/atf/stm32mp1_atf/../build/opteemin-nand-stm32mp157d-ev1/bl2/ctzdi2.o
                0x2fff45aa                __ctzdi2
 .text.__popcountsi2
                0x2fff45cc       0x2a /home/dangcaominh/STM32MP1/atf/stm32mp1_atf/../build/opteemin-nand-stm32mp157d-ev1/bl2/popcountsi2.o
                0x2fff45cc                __popcountsi2
 .text.__udivmoddi4
                0x2fff45f6      0x180 /home/dangcaominh/STM32MP1/atf/stm32mp1_atf/../build/opteemin-nand-stm32mp157d-ev1/bl2/udivmoddi4.o
                0x2fff45f6                __udivmoddi4
 .text.xlat_arch_get_pas
                0x2fff4776       0x10 /home/dangcaominh/STM32MP1/atf/stm32mp1_atf/../build/opteemin-nand-stm32mp157d-ev1/bl2/xlat_tables_arch.o
                0x2fff4776                xlat_arch_get_pas
 .text.xlat_arch_get_max_supported_pa
                0x2fff4786        0x8 /home/dangcaominh/STM32MP1/atf/stm32mp1_atf/../build/opteemin-nand-stm32mp157d-ev1/bl2/xlat_tables_arch.o
                0x2fff4786                xlat_arch_get_max_supported_pa
 .text.xlat_get_min_virt_addr_space_size
                0x2fff478e        0x6 /home/dangcaominh/STM32MP1/atf/stm32mp1_atf/../build/opteemin-nand-stm32mp157d-ev1/bl2/xlat_tables_arch.o
                0x2fff478e                xlat_get_min_virt_addr_space_size
 .text.is_dcache_enabled
                0x2fff4794       0x1c /home/dangcaominh/STM32MP1/atf/stm32mp1_atf/../build/opteemin-nand-stm32mp157d-ev1/bl2/xlat_tables_arch.o
                0x2fff4794                is_dcache_enabled
 .text.xlat_arch_tlbi_va_sync
                0x2fff47b0       0x10 /home/dangcaominh/STM32MP1/atf/stm32mp1_atf/../build/opteemin-nand-stm32mp157d-ev1/bl2/xlat_tables_arch.o
                0x2fff47b0                xlat_arch_tlbi_va_sync
 .text.mmap_add_region_check
                0x2fff47c0      0x12e /home/dangcaominh/STM32MP1/atf/stm32mp1_atf/../build/opteemin-nand-stm32mp157d-ev1/bl2/xlat_tables_core.o
 .text.xlat_clean_dcache_range
                0x2fff48ee       0x1a /home/dangcaominh/STM32MP1/atf/stm32mp1_atf/../build/opteemin-nand-stm32mp157d-ev1/bl2/xlat_tables_core.o
 .text.mmap_add_ctx
                0x2fff4908       0x18 /home/dangcaominh/STM32MP1/atf/stm32mp1_atf/../build/opteemin-nand-stm32mp157d-ev1/bl2/xlat_tables_core.o
                0x2fff4908                mmap_add_ctx
 .text.xlat_mmap_print
                0x2fff4920        0x2 /home/dangcaominh/STM32MP1/atf/stm32mp1_atf/../build/opteemin-nand-stm32mp157d-ev1/bl2/xlat_tables_utils.o
                0x2fff4920                xlat_mmap_print
 .text.xlat_tables_print
                0x2fff4922        0x2 /home/dangcaominh/STM32MP1/atf/stm32mp1_atf/../build/opteemin-nand-stm32mp157d-ev1/bl2/xlat_tables_utils.o
                0x2fff4922                xlat_tables_print
 .text.crc32    0x2fff4924        0x4 /home/dangcaominh/STM32MP1/atf/stm32mp1_atf/../build/opteemin-nand-stm32mp157d-ev1/bl2/crc32.o
                0x2fff4924                crc32
 .text.tf_crc32
                0x2fff4928        0x4 /home/dangcaominh/STM32MP1/atf/stm32mp1_atf/../build/opteemin-nand-stm32mp157d-ev1/bl2/tf_gunzip.o
                0x2fff4928                tf_crc32
 .text.plat_error_handler
                0x2fff492c        0x4 /home/dangcaominh/STM32MP1/atf/stm32mp1_atf/../build/opteemin-nand-stm32mp157d-ev1/bl2/plat_bl_common.o
                0x2fff492c                plat_error_handler
 .text.bl2_plat_preload_setup
                0x2fff4930        0x2 /home/dangcaominh/STM32MP1/atf/stm32mp1_atf/../build/opteemin-nand-stm32mp157d-ev1/bl2/plat_bl_common.o
                0x2fff4930                bl2_plat_preload_setup
 .text.plat_fwu_is_enabled
                0x2fff4932        0xe /home/dangcaominh/STM32MP1/atf/stm32mp1_atf/../build/opteemin-nand-stm32mp157d-ev1/bl2/bl2_io_storage.o
                0x2fff4932                plat_fwu_is_enabled
 .text.plat_flush_next_bl_params
                0x2fff4940        0x4 /home/dangcaominh/STM32MP1/atf/stm32mp1_atf/../build/opteemin-nand-stm32mp157d-ev1/bl2/plat_image_load.o
                0x2fff4940                plat_flush_next_bl_params
 .text.plat_get_bl_image_load_info
                0x2fff4944        0x4 /home/dangcaominh/STM32MP1/atf/stm32mp1_atf/../build/opteemin-nand-stm32mp157d-ev1/bl2/plat_image_load.o
                0x2fff4944                plat_get_bl_image_load_info
 .text.plat_get_next_bl_params
                0x2fff4948       0x10 /home/dangcaominh/STM32MP1/atf/stm32mp1_atf/../build/opteemin-nand-stm32mp157d-ev1/bl2/plat_image_load.o
                0x2fff4948                plat_get_next_bl_params
 .text.stm32_nvmem_cell_clrset
                0x2fff4958       0x32 /home/dangcaominh/STM32MP1/atf/stm32mp1_atf/../build/opteemin-nand-stm32mp157d-ev1/bl2/stm32mp_common.o
 .text.plat_get_syscnt_freq2
                0x2fff498a        0x6 /home/dangcaominh/STM32MP1/atf/stm32mp1_atf/../build/opteemin-nand-stm32mp157d-ev1/bl2/stm32mp_common.o
                0x2fff498a                plat_get_syscnt_freq2
 .text.stm32mp_rcc_base
                0x2fff4990        0x6 /home/dangcaominh/STM32MP1/atf/stm32mp1_atf/../build/opteemin-nand-stm32mp157d-ev1/bl2/stm32mp_common.o
                0x2fff4990                stm32mp_rcc_base
 .text.stm32mp_lock_available
                0x2fff4996       0x10 /home/dangcaominh/STM32MP1/atf/stm32mp1_atf/../build/opteemin-nand-stm32mp157d-ev1/bl2/stm32mp_common.o
                0x2fff4996                stm32mp_lock_available
 .text.stm32mp_map_ddr_non_cacheable
                0x2fff49a6       0x1e /home/dangcaominh/STM32MP1/atf/stm32mp1_atf/../build/opteemin-nand-stm32mp157d-ev1/bl2/stm32mp_common.o
                0x2fff49a6                stm32mp_map_ddr_non_cacheable
 .text.stm32mp_unmap_ddr
                0x2fff49c4        0xc /home/dangcaominh/STM32MP1/atf/stm32mp1_atf/../build/opteemin-nand-stm32mp157d-ev1/bl2/stm32mp_common.o
                0x2fff49c4                stm32mp_unmap_ddr
 .text.stm32_fwu_set_boot_idx
                0x2fff49d0       0x28 /home/dangcaominh/STM32MP1/atf/stm32mp1_atf/../build/opteemin-nand-stm32mp157d-ev1/bl2/stm32mp_common.o
                0x2fff49d0                stm32_fwu_set_boot_idx
 .text.stm32_set_max_fwu_trial_boot_cnt
                0x2fff49f8       0x22 /home/dangcaominh/STM32MP1/atf/stm32mp1_atf/../build/opteemin-nand-stm32mp157d-ev1/bl2/stm32mp_common.o
                0x2fff49f8                stm32_set_max_fwu_trial_boot_cnt
 .text.stm32_clear_fwu_trial_boot_cnt
                0x2fff4a1a       0x22 /home/dangcaominh/STM32MP1/atf/stm32mp1_atf/../build/opteemin-nand-stm32mp157d-ev1/bl2/stm32mp_common.o
                0x2fff4a1a                stm32_clear_fwu_trial_boot_cnt
 .text.fdt32_to_cpu
                0x2fff4a3c        0x4 /home/dangcaominh/STM32MP1/atf/stm32mp1_atf/../build/opteemin-nand-stm32mp157d-ev1/bl2/stm32mp_dt.o
 .text.dt_get_pwr_vdd_voltage
                0x2fff4a40       0x22 /home/dangcaominh/STM32MP1/atf/stm32mp1_atf/../build/opteemin-nand-stm32mp157d-ev1/bl2/stm32mp_dt.o
                0x2fff4a40                dt_get_pwr_vdd_voltage
 .text.bl2_el3_early_platform_setup
                0x2fff4a62        0x4 /home/dangcaominh/STM32MP1/atf/stm32mp1_atf/../build/opteemin-nand-stm32mp157d-ev1/bl2/bl2_plat_setup.o
                0x2fff4a62                bl2_el3_early_platform_setup
 .text.stm32_clean_context
                0x2fff4a66       0x24 /home/dangcaominh/STM32MP1/atf/stm32mp1_atf/../build/opteemin-nand-stm32mp157d-ev1/bl2/stm32mp1_context.o
                0x2fff4a66                stm32_clean_context
 .text.stm32_get_zdata_from_context
                0x2fff4a8a       0x1c /home/dangcaominh/STM32MP1/atf/stm32mp1_atf/../build/opteemin-nand-stm32mp157d-ev1/bl2/stm32mp1_context.o
                0x2fff4a8a                stm32_get_zdata_from_context
 .text.stm32_pwr_cstop_critic_exit
                0x2fff4aa6       0x1a /home/dangcaominh/STM32MP1/atf/stm32mp1_atf/../build/opteemin-nand-stm32mp157d-ev1/bl2/stm32mp1_critic_power.o
                0x2fff4aa6                stm32_pwr_cstop_critic_exit
 .text.fdt32_to_cpu
                0x2fff4ac0        0x4 /home/dangcaominh/STM32MP1/atf/stm32mp1_atf/../build/opteemin-nand-stm32mp157d-ev1/bl2/stm32mp1_fconf_firewall.o
 .text.stm32mp1_addr_inside_backupsram
                0x2fff4ac4       0x10 /home/dangcaominh/STM32MP1/atf/stm32mp1_atf/../build/opteemin-nand-stm32mp157d-ev1/bl2/stm32mp1_private.o
                0x2fff4ac4                stm32mp1_addr_inside_backupsram
 .text.stm32mp_is_wakeup_from_standby
                0x2fff4ad4       0x46 /home/dangcaominh/STM32MP1/atf/stm32mp1_atf/../build/opteemin-nand-stm32mp157d-ev1/bl2/stm32mp1_private.o
                0x2fff4ad4                stm32mp_is_wakeup_from_standby
 .text.fdt32_ld
                0x2fff4b1a       0x18 /home/dangcaominh/STM32MP1/atf/stm32mp1_atf/../build/opteemin-nand-stm32mp157d-ev1/lib/libfdt.a(fdt.o)
 .text.fdt_header_size_
                0x2fff4b32       0x1a /home/dangcaominh/STM32MP1/atf/stm32mp1_atf/../build/opteemin-nand-stm32mp157d-ev1/lib/libfdt.a(fdt.o)
                0x2fff4b32                fdt_header_size_
 .text.fdt_header_size
                0x2fff4b4c       0x10 /home/dangcaominh/STM32MP1/atf/stm32mp1_atf/../build/opteemin-nand-stm32mp157d-ev1/lib/libfdt.a(fdt.o)
                0x2fff4b4c                fdt_header_size
 .text.fdt_offset_ptr
                0x2fff4b5c       0x54 /home/dangcaominh/STM32MP1/atf/stm32mp1_atf/../build/opteemin-nand-stm32mp157d-ev1/lib/libfdt.a(fdt.o)
                0x2fff4b5c                fdt_offset_ptr
 .text.fdt_next_tag
                0x2fff4bb0       0xbc /home/dangcaominh/STM32MP1/atf/stm32mp1_atf/../build/opteemin-nand-stm32mp157d-ev1/lib/libfdt.a(fdt.o)
                0x2fff4bb0                fdt_next_tag
 .text.fdt_check_node_offset_
                0x2fff4c6c       0x24 /home/dangcaominh/STM32MP1/atf/stm32mp1_atf/../build/opteemin-nand-stm32mp157d-ev1/lib/libfdt.a(fdt.o)
                0x2fff4c6c                fdt_check_node_offset_
 .text.fdt_check_prop_offset_
                0x2fff4c90       0x24 /home/dangcaominh/STM32MP1/atf/stm32mp1_atf/../build/opteemin-nand-stm32mp157d-ev1/lib/libfdt.a(fdt.o)
                0x2fff4c90                fdt_check_prop_offset_
 .text.fdt_next_node
                0x2fff4cb4       0x6e /home/dangcaominh/STM32MP1/atf/stm32mp1_atf/../build/opteemin-nand-stm32mp157d-ev1/lib/libfdt.a(fdt.o)
                0x2fff4cb4                fdt_next_node
 .text.fdt_first_subnode
                0x2fff4d22       0x26 /home/dangcaominh/STM32MP1/atf/stm32mp1_atf/../build/opteemin-nand-stm32mp157d-ev1/lib/libfdt.a(fdt.o)
                0x2fff4d22                fdt_first_subnode
 .text.fdt_next_subnode
                0x2fff4d48       0x2a /home/dangcaominh/STM32MP1/atf/stm32mp1_atf/../build/opteemin-nand-stm32mp157d-ev1/lib/libfdt.a(fdt.o)
                0x2fff4d48                fdt_next_subnode
 .text.fdt_cells
                0x2fff4d72       0x2a /home/dangcaominh/STM32MP1/atf/stm32mp1_atf/../build/opteemin-nand-stm32mp157d-ev1/lib/libfdt.a(fdt_addresses.o)
 .text.fdt32_ld
                0x2fff4d9c       0x18 /home/dangcaominh/STM32MP1/atf/stm32mp1_atf/../build/opteemin-nand-stm32mp157d-ev1/lib/libfdt.a(fdt_ro.o)
 .text.nextprop_
                0x2fff4db4       0x32 /home/dangcaominh/STM32MP1/atf/stm32mp1_atf/../build/opteemin-nand-stm32mp157d-ev1/lib/libfdt.a(fdt_ro.o)
 .text.fdt32_ld_.isra.0
                0x2fff4de6        0x4 /home/dangcaominh/STM32MP1/atf/stm32mp1_atf/../build/opteemin-nand-stm32mp157d-ev1/lib/libfdt.a(fdt_ro.o)
 .text.fdt_get_property_by_offset_
                0x2fff4dea       0x34 /home/dangcaominh/STM32MP1/atf/stm32mp1_atf/../build/opteemin-nand-stm32mp157d-ev1/lib/libfdt.a(fdt_ro.o)
 .text.fdt_get_name
                0x2fff4e1e       0x62 /home/dangcaominh/STM32MP1/atf/stm32mp1_atf/../build/opteemin-nand-stm32mp157d-ev1/lib/libfdt.a(fdt_ro.o)
                0x2fff4e1e                fdt_get_name
 .text.fdt_subnode_offset_namelen
                0x2fff4e80       0x7a /home/dangcaominh/STM32MP1/atf/stm32mp1_atf/../build/opteemin-nand-stm32mp157d-ev1/lib/libfdt.a(fdt_ro.o)
                0x2fff4e80                fdt_subnode_offset_namelen
 .text.fdt_subnode_offset
                0x2fff4efa       0x1e /home/dangcaominh/STM32MP1/atf/stm32mp1_atf/../build/opteemin-nand-stm32mp157d-ev1/lib/libfdt.a(fdt_ro.o)
                0x2fff4efa                fdt_subnode_offset
 .text.fdt_first_property_offset
                0x2fff4f18       0x18 /home/dangcaominh/STM32MP1/atf/stm32mp1_atf/../build/opteemin-nand-stm32mp157d-ev1/lib/libfdt.a(fdt_ro.o)
                0x2fff4f18                fdt_first_property_offset
 .text.fdt_next_property_offset
                0x2fff4f30       0x18 /home/dangcaominh/STM32MP1/atf/stm32mp1_atf/../build/opteemin-nand-stm32mp157d-ev1/lib/libfdt.a(fdt_ro.o)
                0x2fff4f30                fdt_next_property_offset
 .text.fdt_get_property_namelen_
                0x2fff4f48       0x7c /home/dangcaominh/STM32MP1/atf/stm32mp1_atf/../build/opteemin-nand-stm32mp157d-ev1/lib/libfdt.a(fdt_ro.o)
 .text.fdt_getprop_namelen
                0x2fff4fc4       0x40 /home/dangcaominh/STM32MP1/atf/stm32mp1_atf/../build/opteemin-nand-stm32mp157d-ev1/lib/libfdt.a(fdt_ro.o)
                0x2fff4fc4                fdt_getprop_namelen
 .text.fdt_getprop
                0x2fff5004       0x22 /home/dangcaominh/STM32MP1/atf/stm32mp1_atf/../build/opteemin-nand-stm32mp157d-ev1/lib/libfdt.a(fdt_ro.o)
                0x2fff5004                fdt_getprop
 .text.fdt_path_offset_namelen
                0x2fff5026       0x94 /home/dangcaominh/STM32MP1/atf/stm32mp1_atf/../build/opteemin-nand-stm32mp157d-ev1/lib/libfdt.a(fdt_ro.o)
                0x2fff5026                fdt_path_offset_namelen
 .text.fdt_path_offset
                0x2fff50ba       0x1a /home/dangcaominh/STM32MP1/atf/stm32mp1_atf/../build/opteemin-nand-stm32mp157d-ev1/lib/libfdt.a(fdt_ro.o)
                0x2fff50ba                fdt_path_offset
 .text.fdt_supernode_atdepth_offset
                0x2fff50d4       0x6c /home/dangcaominh/STM32MP1/atf/stm32mp1_atf/../build/opteemin-nand-stm32mp157d-ev1/lib/libfdt.a(fdt_ro.o)
                0x2fff50d4                fdt_supernode_atdepth_offset
 .text.fdt_node_depth
                0x2fff5140       0x20 /home/dangcaominh/STM32MP1/atf/stm32mp1_atf/../build/opteemin-nand-stm32mp157d-ev1/lib/libfdt.a(fdt_ro.o)
                0x2fff5140                fdt_node_depth
 .text.fdt_parent_offset
                0x2fff5160       0x20 /home/dangcaominh/STM32MP1/atf/stm32mp1_atf/../build/opteemin-nand-stm32mp157d-ev1/lib/libfdt.a(fdt_ro.o)
                0x2fff5160                fdt_parent_offset
 .text.fdt_node_offset_by_phandle
                0x2fff5180       0x42 /home/dangcaominh/STM32MP1/atf/stm32mp1_atf/../build/opteemin-nand-stm32mp157d-ev1/lib/libfdt.a(fdt_ro.o)
                0x2fff5180                fdt_node_offset_by_phandle
 .text.fdt_stringlist_contains
                0x2fff51c2       0x46 /home/dangcaominh/STM32MP1/atf/stm32mp1_atf/../build/opteemin-nand-stm32mp157d-ev1/lib/libfdt.a(fdt_ro.o)
                0x2fff51c2                fdt_stringlist_contains
 .text.fdt_stringlist_search
                0x2fff5208       0x66 /home/dangcaominh/STM32MP1/atf/stm32mp1_atf/../build/opteemin-nand-stm32mp157d-ev1/lib/libfdt.a(fdt_ro.o)
                0x2fff5208                fdt_stringlist_search
 .text.fdt_node_offset_by_compatible
                0x2fff526e       0x36 /home/dangcaominh/STM32MP1/atf/stm32mp1_atf/../build/opteemin-nand-stm32mp157d-ev1/lib/libfdt.a(fdt_ro.o)
                0x2fff526e                fdt_node_offset_by_compatible
 .text.memchr   0x2fff52a4       0x1c /home/dangcaominh/STM32MP1/atf/stm32mp1_atf/../build/opteemin-nand-stm32mp157d-ev1/lib/libc.a(memchr.o)
                0x2fff52a4                memchr
 .text.memcmp   0x2fff52c0       0x1c /home/dangcaominh/STM32MP1/atf/stm32mp1_atf/../build/opteemin-nand-stm32mp157d-ev1/lib/libc.a(memcmp.o)
                0x2fff52c0                memcmp
 .text.memcpy   0x2fff52dc       0x16 /home/dangcaominh/STM32MP1/atf/stm32mp1_atf/../build/opteemin-nand-stm32mp157d-ev1/lib/libc.a(memcpy.o)
                0x2fff52dc                memcpy
 .text.memmove  0x2fff52f2       0x2c /home/dangcaominh/STM32MP1/atf/stm32mp1_atf/../build/opteemin-nand-stm32mp157d-ev1/lib/libc.a(memmove.o)
                0x2fff52f2                memmove
 .text.memset   0x2fff531e       0x42 /home/dangcaominh/STM32MP1/atf/stm32mp1_atf/../build/opteemin-nand-stm32mp157d-ev1/lib/libc.a(memset.o)
                0x2fff531e                memset
 .text.unsigned_num_print.part.0
                0x2fff5360       0x92 /home/dangcaominh/STM32MP1/atf/stm32mp1_atf/../build/opteemin-nand-stm32mp157d-ev1/lib/libc.a(printf.o)
 .text.printf   0x2fff53f2       0x1a /home/dangcaominh/STM32MP1/atf/stm32mp1_atf/../build/opteemin-nand-stm32mp157d-ev1/lib/libc.a(printf.o)
                0x2fff53f2                printf
 .text.unsigned_num_print
                0x2fff540c       0xca /home/dangcaominh/STM32MP1/atf/stm32mp1_atf/../build/opteemin-nand-stm32mp157d-ev1/lib/libc.a(snprintf.o)
 .text.snprintf
                0x2fff54d6       0x1a /home/dangcaominh/STM32MP1/atf/stm32mp1_atf/../build/opteemin-nand-stm32mp157d-ev1/lib/libc.a(snprintf.o)
                0x2fff54d6                snprintf
 .text.strchr   0x2fff54f0       0x16 /home/dangcaominh/STM32MP1/atf/stm32mp1_atf/../build/opteemin-nand-stm32mp157d-ev1/lib/libc.a(strchr.o)
                0x2fff54f0                strchr
 .text.strcmp   0x2fff5506       0x18 /home/dangcaominh/STM32MP1/atf/stm32mp1_atf/../build/opteemin-nand-stm32mp157d-ev1/lib/libc.a(strcmp.o)
                0x2fff5506                strcmp
 .text.strlcpy  0x2fff551e       0x28 /home/dangcaominh/STM32MP1/atf/stm32mp1_atf/../build/opteemin-nand-stm32mp157d-ev1/lib/libc.a(strlcpy.o)
                0x2fff551e                strlcpy
 .text.strlen   0x2fff5546       0x10 /home/dangcaominh/STM32MP1/atf/stm32mp1_atf/../build/opteemin-nand-stm32mp157d-ev1/lib/libc.a(strlen.o)
                0x2fff5546                strlen
 .text.strncmp  0x2fff5556       0x28 /home/dangcaominh/STM32MP1/atf/stm32mp1_atf/../build/opteemin-nand-stm32mp157d-ev1/lib/libc.a(strncmp.o)
                0x2fff5556                strncmp
 .text.strnlen  0x2fff557e       0x14 /home/dangcaominh/STM32MP1/atf/stm32mp1_atf/../build/opteemin-nand-stm32mp157d-ev1/lib/libc.a(strnlen.o)
                0x2fff557e                strnlen
 .text.strrchr  0x2fff5592       0x1a /home/dangcaominh/STM32MP1/atf/stm32mp1_atf/../build/opteemin-nand-stm32mp157d-ev1/lib/libc.a(strrchr.o)
                0x2fff5592                strrchr
 *(SORT_BY_ALIGNMENT(.rodata*))
 *fill*         0x2fff55ac        0x4 
 .rodata.stm32mp1_mmap
                0x2fff55b0       0x60 /home/dangcaominh/STM32MP1/atf/stm32mp1_atf/../build/opteemin-nand-stm32mp157d-ev1/bl2/stm32mp1_private.o
 .rodata.fip_dev_funcs
                0x2fff5610       0x24 /home/dangcaominh/STM32MP1/atf/stm32mp1_atf/../build/opteemin-nand-stm32mp157d-ev1/bl2/io_fip.o
 .rodata.fip_dev_connector
                0x2fff5634        0x4 /home/dangcaominh/STM32MP1/atf/stm32mp1_atf/../build/opteemin-nand-stm32mp157d-ev1/bl2/io_fip.o
 .rodata.mtd_dev_funcs
                0x2fff5638       0x24 /home/dangcaominh/STM32MP1/atf/stm32mp1_atf/../build/opteemin-nand-stm32mp157d-ev1/bl2/io_mtd.o
 .rodata.mtd_dev_connector
                0x2fff565c        0x4 /home/dangcaominh/STM32MP1/atf/stm32mp1_atf/../build/opteemin-nand-stm32mp157d-ev1/bl2/io_mtd.o
 .rodata.stm32mp_clk_ops
                0x2fff5660       0x14 /home/dangcaominh/STM32MP1/atf/stm32mp1_atf/../build/opteemin-nand-stm32mp157d-ev1/bl2/stm32mp1_clk.o
 .rodata.stm32mp1_clk_pll
                0x2fff5674       0x80 /home/dangcaominh/STM32MP1/atf/stm32mp1_atf/../build/opteemin-nand-stm32mp157d-ev1/bl2/stm32mp1_clk.o
 .rodata.stm32mp1_clk_sel
                0x2fff56f4      0x108 /home/dangcaominh/STM32MP1/atf/stm32mp1_atf/../build/opteemin-nand-stm32mp157d-ev1/bl2/stm32mp1_clk.o
 .rodata        0x2fff57fc       0x40 /home/dangcaominh/STM32MP1/atf/stm32mp1_atf/../build/opteemin-nand-stm32mp157d-ev1/bl2/stm32mp1_clk.o
 .rodata.ddr_registers
                0x2fff583c       0x60 /home/dangcaominh/STM32MP1/atf/stm32mp1_atf/../build/opteemin-nand-stm32mp157d-ev1/bl2/stm32mp1_ddr.o
 .rodata        0x2fff589c       0x48 /home/dangcaominh/STM32MP1/atf/stm32mp1_atf/../build/opteemin-nand-stm32mp157d-ev1/bl2/stm32mp1_ram.o
 .rodata.ctrl_ops
                0x2fff58e4        0x8 /home/dangcaominh/STM32MP1/atf/stm32mp1_atf/../build/opteemin-nand-stm32mp157d-ev1/bl2/stm32_fmc2_nand.o
 .rodata.i2c_specs
                0x2fff58ec       0x60 /home/dangcaominh/STM32MP1/atf/stm32mp1_atf/../build/opteemin-nand-stm32mp157d-ev1/bl2/stm32_i2c.o
 .rodata.stm32_tamp_nvram_nvmem_ops
                0x2fff594c        0x8 /home/dangcaominh/STM32MP1/atf/stm32mp1_atf/../build/opteemin-nand-stm32mp157d-ev1/bl2/stm32mp_tamp_nvram_core.o
 .rodata.stm32mp1_tamp_nvram
                0x2fff5954        0x8 /home/dangcaominh/STM32MP1/atf/stm32mp1_atf/../build/opteemin-nand-stm32mp157d-ev1/bl2/stm32mp_tamp_nvram_mp1.o
 .rodata.mp1_zone_cfg_fields
                0x2fff595c       0x18 /home/dangcaominh/STM32MP1/atf/stm32mp1_atf/../build/opteemin-nand-stm32mp157d-ev1/bl2/stm32mp_tamp_nvram_mp1.o
 .rodata.pmic_regs
                0x2fff5974      0x118 /home/dangcaominh/STM32MP1/atf/stm32mp1_atf/../build/opteemin-nand-stm32mp157d-ev1/bl2/stm32mp_pmic.o
 .rodata.pmic_ops
                0x2fff5a8c       0x20 /home/dangcaominh/STM32MP1/atf/stm32mp1_atf/../build/opteemin-nand-stm32mp157d-ev1/bl2/stm32mp_pmic.o
 .rodata.regulators_table
                0x2fff5aac      0x118 /home/dangcaominh/STM32MP1/atf/stm32mp1_atf/../build/opteemin-nand-stm32mp157d-ev1/bl2/stpmic1.o
 .rodata.crc_table
                0x2fff5bc4      0x400 /home/dangcaominh/STM32MP1/atf/stm32mp1_atf/../build/opteemin-nand-stm32mp157d-ev1/bl2/crc32.o
 .rodata.plat_prefix_str
                0x2fff5fc4       0x14 /home/dangcaominh/STM32MP1/atf/stm32mp1_atf/../build/opteemin-nand-stm32mp157d-ev1/bl2/plat_log_common.o
 .rodata        0x2fff5fd8       0x20 /home/dangcaominh/STM32MP1/atf/stm32mp1_atf/../build/opteemin-nand-stm32mp157d-ev1/bl2/bl2_io_storage.o
 .rodata.load_info
                0x2fff5ff8       0x38 /home/dangcaominh/STM32MP1/atf/stm32mp1_atf/../build/opteemin-nand-stm32mp157d-ev1/bl2/stm32mp_fconf_io.o
 .rodata        0x2fff6030       0x10 /home/dangcaominh/STM32MP1/atf/stm32mp1_atf/../build/opteemin-nand-stm32mp157d-ev1/bl2/bl2_plat_setup.o
 .rodata.CSWTCH.28
                0x2fff6040       0x10 /home/dangcaominh/STM32MP1/atf/stm32mp1_atf/../build/opteemin-nand-stm32mp157d-ev1/bl2/stm32mp1_private.o
 .rodata.CSWTCH.27
                0x2fff6050       0x10 /home/dangcaominh/STM32MP1/atf/stm32mp1_atf/../build/opteemin-nand-stm32mp157d-ev1/bl2/stm32mp1_private.o
 .rodata.stm32mp1_clk_gate
                0x2fff6060      0x1d8 /home/dangcaominh/STM32MP1/atf/stm32mp1_atf/../build/opteemin-nand-stm32mp157d-ev1/bl2/stm32mp1_clk.o
 .rodata.parent_mp15
                0x2fff6238      0x108 /home/dangcaominh/STM32MP1/atf/stm32mp1_atf/../build/opteemin-nand-stm32mp157d-ev1/bl2/stm32mp1_clk.o
 .rodata.dividers_mp15
                0x2fff6340       0x96 /home/dangcaominh/STM32MP1/atf/stm32mp1_atf/../build/opteemin-nand-stm32mp157d-ev1/bl2/stm32mp1_clk.o
 .rodata.ddrphy_timing
                0x2fff63d6       0x28 /home/dangcaominh/STM32MP1/atf/stm32mp1_atf/../build/opteemin-nand-stm32mp157d-ev1/bl2/stm32mp1_ddr.o
 .rodata.ddrphy_reg
                0x2fff63fe       0x2c /home/dangcaominh/STM32MP1/atf/stm32mp1_atf/../build/opteemin-nand-stm32mp157d-ev1/bl2/stm32mp1_ddr.o
 .rodata.ddr_perf
                0x2fff642a       0x44 /home/dangcaominh/STM32MP1/atf/stm32mp1_atf/../build/opteemin-nand-stm32mp157d-ev1/bl2/stm32mp1_ddr.o
 .rodata.ddr_map
                0x2fff646e       0x24 /home/dangcaominh/STM32MP1/atf/stm32mp1_atf/../build/opteemin-nand-stm32mp157d-ev1/bl2/stm32mp1_ddr.o
 .rodata.ddr_timing
                0x2fff6492       0x30 /home/dangcaominh/STM32MP1/atf/stm32mp1_atf/../build/opteemin-nand-stm32mp157d-ev1/bl2/stm32mp1_ddr.o
 .rodata.ddr_reg
                0x2fff64c2       0x64 /home/dangcaominh/STM32MP1/atf/stm32mp1_atf/../build/opteemin-nand-stm32mp157d-ev1/bl2/stm32mp1_ddr.o
 .rodata.fixed_5v_voltage_table
                0x2fff6526        0x2 /home/dangcaominh/STM32MP1/atf/stm32mp1_atf/../build/opteemin-nand-stm32mp157d-ev1/bl2/stpmic1.o
 .rodata.vref_ddr_voltage_table
                0x2fff6528        0x2 /home/dangcaominh/STM32MP1/atf/stm32mp1_atf/../build/opteemin-nand-stm32mp157d-ev1/bl2/stpmic1.o
 .rodata.ldo4_voltage_table
                0x2fff652a        0x2 /home/dangcaominh/STM32MP1/atf/stm32mp1_atf/../build/opteemin-nand-stm32mp157d-ev1/bl2/stpmic1.o
 .rodata.ldo6_voltage_table
                0x2fff652c       0x32 /home/dangcaominh/STM32MP1/atf/stm32mp1_atf/../build/opteemin-nand-stm32mp157d-ev1/bl2/stpmic1.o
 .rodata.ldo5_voltage_table
                0x2fff655e       0x3e /home/dangcaominh/STM32MP1/atf/stm32mp1_atf/../build/opteemin-nand-stm32mp157d-ev1/bl2/stpmic1.o
 .rodata.ldo3_special_mode_table
                0x2fff659c        0x2 /home/dangcaominh/STM32MP1/atf/stm32mp1_atf/../build/opteemin-nand-stm32mp157d-ev1/bl2/stpmic1.o
 .rodata.ldo3_voltage_table
                0x2fff659e       0x3e /home/dangcaominh/STM32MP1/atf/stm32mp1_atf/../build/opteemin-nand-stm32mp157d-ev1/bl2/stpmic1.o
 .rodata.ldo2_voltage_table
                0x2fff65dc       0x32 /home/dangcaominh/STM32MP1/atf/stm32mp1_atf/../build/opteemin-nand-stm32mp157d-ev1/bl2/stpmic1.o
 .rodata.ldo1_voltage_table
                0x2fff660e       0x32 /home/dangcaominh/STM32MP1/atf/stm32mp1_atf/../build/opteemin-nand-stm32mp157d-ev1/bl2/stpmic1.o
 .rodata.buck4_voltage_table
                0x2fff6640       0x7a /home/dangcaominh/STM32MP1/atf/stm32mp1_atf/../build/opteemin-nand-stm32mp157d-ev1/bl2/stpmic1.o
 .rodata.buck3_voltage_table
                0x2fff66ba       0x70 /home/dangcaominh/STM32MP1/atf/stm32mp1_atf/../build/opteemin-nand-stm32mp157d-ev1/bl2/stpmic1.o
 .rodata.buck2_voltage_table
                0x2fff672a       0x4a /home/dangcaominh/STM32MP1/atf/stm32mp1_atf/../build/opteemin-nand-stm32mp157d-ev1/bl2/stpmic1.o
 .rodata.buck1_voltage_table
                0x2fff6774       0x80 /home/dangcaominh/STM32MP1/atf/stm32mp1_atf/../build/opteemin-nand-stm32mp157d-ev1/bl2/stpmic1.o
 .rodata.version_string
                0x2fff67f4       0x35 /home/dangcaominh/STM32MP1/atf/stm32mp1_atf/../build/opteemin-nand-stm32mp157d-ev1/bl2/build_message.o
                0x2fff67f4                version_string
 .rodata.build_message
                0x2fff6829       0x1e /home/dangcaominh/STM32MP1/atf/stm32mp1_atf/../build/opteemin-nand-stm32mp157d-ev1/bl2/build_message.o
                0x2fff6829                build_message
 .rodata.bl2_load_images.str1.1
                0x2fff6847     0x2925 /home/dangcaominh/STM32MP1/atf/stm32mp1_atf/../build/opteemin-nand-stm32mp157d-ev1/bl2/bl2_image_load_v2.o
                                0x11a (size before relaxing)
 .rodata.bl2_main.str1.1
                0x2fff916c       0x1e /home/dangcaominh/STM32MP1/atf/stm32mp1_atf/../build/opteemin-nand-stm32mp157d-ev1/bl2/bl2_main.o
 .rodata.load_auth_image.str1.1
                0x2fff916c      0x12d /home/dangcaominh/STM32MP1/atf/stm32mp1_atf/../build/opteemin-nand-stm32mp157d-ev1/bl2/bl_common.o
 .rodata.print_entry_point_info.str1.1
                0x2fff916c       0x2c /home/dangcaominh/STM32MP1/atf/stm32mp1_atf/../build/opteemin-nand-stm32mp157d-ev1/bl2/bl_common.o
 .rodata.flush_bl_params_desc_args.str1.1
                0x2fff916c       0x19 /home/dangcaominh/STM32MP1/atf/stm32mp1_atf/../build/opteemin-nand-stm32mp157d-ev1/bl2/desc_image_load.o
 .rodata.CSWTCH.28
                0x2fff916c        0x3 /home/dangcaominh/STM32MP1/atf/stm32mp1_atf/../build/opteemin-nand-stm32mp157d-ev1/bl2/desc_image_load.o
 .rodata.fdt_read_uint32_array.str1.1
                0x2fff916f       0x31 /home/dangcaominh/STM32MP1/atf/stm32mp1_atf/../build/opteemin-nand-stm32mp157d-ev1/bl2/fdt_wrappers.o
 .rodata.fdtw_read_bytes.str1.1
                0x2fff916f       0x23 /home/dangcaominh/STM32MP1/atf/stm32mp1_atf/../build/opteemin-nand-stm32mp157d-ev1/bl2/fdt_wrappers.o
 .rodata.fdtw_read_string.str1.1
                0x2fff916f       0x32 /home/dangcaominh/STM32MP1/atf/stm32mp1_atf/../build/opteemin-nand-stm32mp157d-ev1/bl2/fdt_wrappers.o
 .rodata.fdt_get_stdout_node_offset.str1.1
                0x2fff916f       0x23 /home/dangcaominh/STM32MP1/atf/stm32mp1_atf/../build/opteemin-nand-stm32mp157d-ev1/bl2/fdt_wrappers.o
 .rodata.tf_log.str1.1
                0x2fff916f       0x10 /home/dangcaominh/STM32MP1/atf/stm32mp1_atf/../build/opteemin-nand-stm32mp157d-ev1/bl2/tf_log.o
 .rodata.read_uuid.str1.1
                0x2fff916f       0x30 /home/dangcaominh/STM32MP1/atf/stm32mp1_atf/../build/opteemin-nand-stm32mp157d-ev1/bl2/uuid.o
 .rodata.tzc400_set_action.str1.1
                0x2fff916f       0x19 /home/dangcaominh/STM32MP1/atf/stm32mp1_atf/../build/opteemin-nand-stm32mp157d-ev1/bl2/tzc400.o
 .rodata.tzc400_init.str1.1
                0x2fff916f       0x24 /home/dangcaominh/STM32MP1/atf/stm32mp1_atf/../build/opteemin-nand-stm32mp157d-ev1/bl2/tzc400.o
 .rodata.tzc400_enable_filters.str1.1
                0x2fff916f       0x32 /home/dangcaominh/STM32MP1/atf/stm32mp1_atf/../build/opteemin-nand-stm32mp157d-ev1/bl2/tzc400.o
 .rodata.clk_enable.str1.1
                0x2fff916f       0x12 /home/dangcaominh/STM32MP1/atf/stm32mp1_atf/../build/opteemin-nand-stm32mp157d-ev1/bl2/clk.o
 .rodata.console_unregister.str1.1
                0x2fff916f       0x20 /home/dangcaominh/STM32MP1/atf/stm32mp1_atf/../build/opteemin-nand-stm32mp157d-ev1/bl2/multi_console.o
 .rodata.udelay.str1.1
                0x2fff916f       0x22 /home/dangcaominh/STM32MP1/atf/stm32mp1_atf/../build/opteemin-nand-stm32mp157d-ev1/bl2/delay_timer.o
 .rodata.generic_delay_timer_init.str1.1
                0x2fff916f       0x2a /home/dangcaominh/STM32MP1/atf/stm32mp1_atf/../build/opteemin-nand-stm32mp157d-ev1/bl2/generic_delay_timer.o
 .rodata.fwu_metadata_load.str1.1
                0x2fff916f      0x261 /home/dangcaominh/STM32MP1/atf/stm32mp1_atf/../build/opteemin-nand-stm32mp157d-ev1/bl2/fwu.o
 .rodata.fwu_get_active_bank_state.str1.1
                0x2fff916f       0x12 /home/dangcaominh/STM32MP1/atf/stm32mp1_atf/../build/opteemin-nand-stm32mp157d-ev1/bl2/fwu.o
 .rodata.fwu_init.str1.1
                0x2fff916f       0x60 /home/dangcaominh/STM32MP1/atf/stm32mp1_atf/../build/opteemin-nand-stm32mp157d-ev1/bl2/fwu.o
 .rodata.fip_dev_init.str1.1
                0x2fff916f       0x97 /home/dangcaominh/STM32MP1/atf/stm32mp1_atf/../build/opteemin-nand-stm32mp157d-ev1/bl2/io_fip.o
 .rodata.fip_file_read.str1.1
                0x2fff916f       0x58 /home/dangcaominh/STM32MP1/atf/stm32mp1_atf/../build/opteemin-nand-stm32mp157d-ev1/bl2/io_fip.o
 .rodata.fip_file_open.str1.1
                0x2fff916f       0x97 /home/dangcaominh/STM32MP1/atf/stm32mp1_atf/../build/opteemin-nand-stm32mp157d-ev1/bl2/io_fip.o
 .rodata.uuid_null.0
                0x2fff916f       0x10 /home/dangcaominh/STM32MP1/atf/stm32mp1_atf/../build/opteemin-nand-stm32mp157d-ev1/bl2/io_fip.o
 .rodata.mtd_read.str1.1
                0x2fff917f       0x14 /home/dangcaominh/STM32MP1/atf/stm32mp1_atf/../build/opteemin-nand-stm32mp157d-ev1/bl2/io_mtd.o
 .rodata.mtd_add_extra_offset.constprop.0.str1.1
                0x2fff917f       0x14 /home/dangcaominh/STM32MP1/atf/stm32mp1_atf/../build/opteemin-nand-stm32mp157d-ev1/bl2/io_mtd.o
 .rodata.__func__.0
                0x2fff917f       0x15 /home/dangcaominh/STM32MP1/atf/stm32mp1_atf/../build/opteemin-nand-stm32mp157d-ev1/bl2/io_mtd.o
 .rodata.free_entity.isra.0.str1.1
                0x2fff9194       0x18 /home/dangcaominh/STM32MP1/atf/stm32mp1_atf/../build/opteemin-nand-stm32mp157d-ev1/bl2/io_storage.o
 .rodata.plat_get_scratch_buffer.str1.1
                0x2fff9194       0x18 /home/dangcaominh/STM32MP1/atf/stm32mp1_atf/../build/opteemin-nand-stm32mp157d-ev1/bl2/core.o
 .rodata.nand_read_param_page.str1.1
                0x2fff9194       0x32 /home/dangcaominh/STM32MP1/atf/stm32mp1_atf/../build/opteemin-nand-stm32mp157d-ev1/bl2/raw_nand.o
 .rodata.nand_mtd_block_is_bad.str1.1
                0x2fff9194       0x12 /home/dangcaominh/STM32MP1/atf/stm32mp1_atf/../build/opteemin-nand-stm32mp157d-ev1/bl2/raw_nand.o
 .rodata.nand_raw_init.str1.1
                0x2fff9194       0x4a /home/dangcaominh/STM32MP1/atf/stm32mp1_atf/../build/opteemin-nand-stm32mp157d-ev1/bl2/raw_nand.o
 .rodata.is_otp_invalid_mode.str1.1
                0x2fff9194       0x1a /home/dangcaominh/STM32MP1/atf/stm32mp1_atf/../build/opteemin-nand-stm32mp157d-ev1/bl2/bsec2.o
 .rodata.otp_bank_offset.str1.1
                0x2fff9194       0x18 /home/dangcaominh/STM32MP1/atf/stm32mp1_atf/../build/opteemin-nand-stm32mp157d-ev1/bl2/bsec2.o
 .rodata.bsec_write_otp.str1.1
                0x2fff9194       0x2a /home/dangcaominh/STM32MP1/atf/stm32mp1_atf/../build/opteemin-nand-stm32mp157d-ev1/bl2/bsec2.o
 .rodata.bsec_program_otp.str1.1
                0x2fff9194       0xa8 /home/dangcaominh/STM32MP1/atf/stm32mp1_atf/../build/opteemin-nand-stm32mp157d-ev1/bl2/bsec2.o
 .rodata.bsec_shadow_read_otp.str1.1
                0x2fff9194       0x60 /home/dangcaominh/STM32MP1/atf/stm32mp1_atf/../build/opteemin-nand-stm32mp157d-ev1/bl2/bsec2.o
 .rodata.stm32mp1_clk_get_gated_id.str1.1
                0x2fff9194       0x1b /home/dangcaominh/STM32MP1/atf/stm32mp1_atf/../build/opteemin-nand-stm32mp157d-ev1/bl2/stm32mp1_clk.o
 .rodata.stm32mp_clk_disable.str1.1
                0x2fff9194       0x3d /home/dangcaominh/STM32MP1/atf/stm32mp1_atf/../build/opteemin-nand-stm32mp157d-ev1/bl2/stm32mp1_clk.o
 .rodata.stm32mp_clk_enable.str1.1
                0x2fff9194       0x44 /home/dangcaominh/STM32MP1/atf/stm32mp1_atf/../build/opteemin-nand-stm32mp157d-ev1/bl2/stm32mp1_clk.o
 .rodata.stm32mp1_osc_wait.isra.0.str1.1
                0x2fff9194       0x2c /home/dangcaominh/STM32MP1/atf/stm32mp1_atf/../build/opteemin-nand-stm32mp157d-ev1/bl2/stm32mp1_clk.o
 .rodata.stm32mp1_clk_init.str1.1
                0x2fff9194       0x45 /home/dangcaominh/STM32MP1/atf/stm32mp1_atf/../build/opteemin-nand-stm32mp157d-ev1/bl2/stm32mp1_clk.o
 .rodata.stm32mp1_clk_probe.str1.1
                0x2fff9194       0x62 /home/dangcaominh/STM32MP1/atf/stm32mp1_atf/../build/opteemin-nand-stm32mp157d-ev1/bl2/stm32mp1_clk.o
 .rodata.__func__.0
                0x2fff9194       0x1a /home/dangcaominh/STM32MP1/atf/stm32mp1_atf/../build/opteemin-nand-stm32mp157d-ev1/bl2/stm32mp1_clk.o
 .rodata.stm32mp1_axi_div
                0x2fff91ae        0x8 /home/dangcaominh/STM32MP1/atf/stm32mp1_atf/../build/opteemin-nand-stm32mp157d-ev1/bl2/stm32mp1_clk.o
 .rodata.stm32mp1_mpu_apbx_div
                0x2fff91b6        0x8 /home/dangcaominh/STM32MP1/atf/stm32mp1_atf/../build/opteemin-nand-stm32mp157d-ev1/bl2/stm32mp1_clk.o
 .rodata.stm32mp1_mcu_div
                0x2fff91be       0x10 /home/dangcaominh/STM32MP1/atf/stm32mp1_atf/../build/opteemin-nand-stm32mp157d-ev1/bl2/stm32mp1_clk.o
 .rodata.pllncfgr2
                0x2fff91ce        0x3 /home/dangcaominh/STM32MP1/atf/stm32mp1_atf/../build/opteemin-nand-stm32mp157d-ev1/bl2/stm32mp1_clk.o
 .rodata.stm32mp1_pll
                0x2fff91d1        0x4 /home/dangcaominh/STM32MP1/atf/stm32mp1_atf/../build/opteemin-nand-stm32mp157d-ev1/bl2/stm32mp1_clk.o
 .rodata.rtc_parents
                0x2fff91d5        0x4 /home/dangcaominh/STM32MP1/atf/stm32mp1_atf/../build/opteemin-nand-stm32mp157d-ev1/bl2/stm32mp1_clk.o
 .rodata.per_parents
                0x2fff91d9        0x3 /home/dangcaominh/STM32MP1/atf/stm32mp1_atf/../build/opteemin-nand-stm32mp157d-ev1/bl2/stm32mp1_clk.o
 .rodata.mpu_parents
                0x2fff91dc        0x4 /home/dangcaominh/STM32MP1/atf/stm32mp1_atf/../build/opteemin-nand-stm32mp157d-ev1/bl2/stm32mp1_clk.o
 .rodata.usbo_parents
                0x2fff91e0        0x2 /home/dangcaominh/STM32MP1/atf/stm32mp1_atf/../build/opteemin-nand-stm32mp157d-ev1/bl2/stm32mp1_clk.o
 .rodata.usbphy_parents
                0x2fff91e2        0x3 /home/dangcaominh/STM32MP1/atf/stm32mp1_atf/../build/opteemin-nand-stm32mp157d-ev1/bl2/stm32mp1_clk.o
 .rodata.mcuss_parents
                0x2fff91e5        0x4 /home/dangcaominh/STM32MP1/atf/stm32mp1_atf/../build/opteemin-nand-stm32mp157d-ev1/bl2/stm32mp1_clk.o
 .rodata.axiss_parents
                0x2fff91e9        0x3 /home/dangcaominh/STM32MP1/atf/stm32mp1_atf/../build/opteemin-nand-stm32mp157d-ev1/bl2/stm32mp1_clk.o
 .rodata.fmc_parents
                0x2fff91ec        0x4 /home/dangcaominh/STM32MP1/atf/stm32mp1_atf/../build/opteemin-nand-stm32mp157d-ev1/bl2/stm32mp1_clk.o
 .rodata.qspi_parents
                0x2fff91f0        0x4 /home/dangcaominh/STM32MP1/atf/stm32mp1_atf/../build/opteemin-nand-stm32mp157d-ev1/bl2/stm32mp1_clk.o
 .rodata.sdmmc3_parents
                0x2fff91f4        0x4 /home/dangcaominh/STM32MP1/atf/stm32mp1_atf/../build/opteemin-nand-stm32mp157d-ev1/bl2/stm32mp1_clk.o
 .rodata.sdmmc12_parents
                0x2fff91f8        0x4 /home/dangcaominh/STM32MP1/atf/stm32mp1_atf/../build/opteemin-nand-stm32mp157d-ev1/bl2/stm32mp1_clk.o
 .rodata.uart234578_parents
                0x2fff91fc        0x5 /home/dangcaominh/STM32MP1/atf/stm32mp1_atf/../build/opteemin-nand-stm32mp157d-ev1/bl2/stm32mp1_clk.o
 .rodata.uart6_parents
                0x2fff9201        0x5 /home/dangcaominh/STM32MP1/atf/stm32mp1_atf/../build/opteemin-nand-stm32mp157d-ev1/bl2/stm32mp1_clk.o
 .rodata.rng1_parents
                0x2fff9206        0x4 /home/dangcaominh/STM32MP1/atf/stm32mp1_atf/../build/opteemin-nand-stm32mp157d-ev1/bl2/stm32mp1_clk.o
 .rodata.usart1_parents
                0x2fff920a        0x6 /home/dangcaominh/STM32MP1/atf/stm32mp1_atf/../build/opteemin-nand-stm32mp157d-ev1/bl2/stm32mp1_clk.o
 .rodata.spi6_parents
                0x2fff9210        0x6 /home/dangcaominh/STM32MP1/atf/stm32mp1_atf/../build/opteemin-nand-stm32mp157d-ev1/bl2/stm32mp1_clk.o
 .rodata.i2c46_parents
                0x2fff9216        0x4 /home/dangcaominh/STM32MP1/atf/stm32mp1_atf/../build/opteemin-nand-stm32mp157d-ev1/bl2/stm32mp1_clk.o
 .rodata.stgen_parents
                0x2fff921a        0x2 /home/dangcaominh/STM32MP1/atf/stm32mp1_atf/../build/opteemin-nand-stm32mp157d-ev1/bl2/stm32mp1_clk.o
 .rodata.i2c35_parents
                0x2fff921c        0x4 /home/dangcaominh/STM32MP1/atf/stm32mp1_atf/../build/opteemin-nand-stm32mp157d-ev1/bl2/stm32mp1_clk.o
 .rodata.i2c12_parents
                0x2fff9220        0x4 /home/dangcaominh/STM32MP1/atf/stm32mp1_atf/../build/opteemin-nand-stm32mp157d-ev1/bl2/stm32mp1_clk.o
 .rodata.parent_id_clock_id
                0x2fff9224       0x23 /home/dangcaominh/STM32MP1/atf/stm32mp1_atf/../build/opteemin-nand-stm32mp157d-ev1/bl2/stm32mp1_clk.o
 .rodata.str1.1
                0x2fff9247       0x31 /home/dangcaominh/STM32MP1/atf/stm32mp1_atf/../build/opteemin-nand-stm32mp157d-ev1/bl2/stm32mp1_clk.o
 .rodata.fdt_osc_read_freq.str1.1
                0x2fff9247       0x18 /home/dangcaominh/STM32MP1/atf/stm32mp1_atf/../build/opteemin-nand-stm32mp157d-ev1/bl2/stm32mp_clkfunc.o
 .rodata.fdt_get_clock_id.str1.1
                0x2fff9247        0x7 /home/dangcaominh/STM32MP1/atf/stm32mp1_atf/../build/opteemin-nand-stm32mp157d-ev1/bl2/stm32mp_clkfunc.o
 .rodata.stm32mp1_ddr_init.str1.1
                0x2fff9247       0x31 /home/dangcaominh/STM32MP1/atf/stm32mp1_atf/../build/opteemin-nand-stm32mp157d-ev1/bl2/stm32mp1_ddr.o
 .rodata.str1.1
                0x2fff9247       0x17 /home/dangcaominh/STM32MP1/atf/stm32mp1_atf/../build/opteemin-nand-stm32mp157d-ev1/bl2/stm32mp1_ddr.o
 .rodata.ddr_set_sr_mode.str1.1
                0x2fff9247       0x1c /home/dangcaominh/STM32MP1/atf/stm32mp1_atf/../build/opteemin-nand-stm32mp157d-ev1/bl2/stm32mp1_ddr_helpers.o
 .rodata.CSWTCH.37
                0x2fff9247        0xa /home/dangcaominh/STM32MP1/atf/stm32mp1_atf/../build/opteemin-nand-stm32mp157d-ev1/bl2/stm32mp1_ddr_helpers.o
 .rodata.stm32mp1_ddr_setup.str1.1
                0x2fff9251      0x10f /home/dangcaominh/STM32MP1/atf/stm32mp1_atf/../build/opteemin-nand-stm32mp157d-ev1/bl2/stm32mp1_ram.o
 .rodata.stm32mp1_ddr_clk_enable.str1.1
                0x2fff9251       0x2f /home/dangcaominh/STM32MP1/atf/stm32mp1_atf/../build/opteemin-nand-stm32mp157d-ev1/bl2/stm32mp1_ram.o
 .rodata.__func__.0
                0x2fff9251       0x13 /home/dangcaominh/STM32MP1/atf/stm32mp1_atf/../build/opteemin-nand-stm32mp157d-ev1/bl2/stm32mp1_ram.o
 .rodata.str1.1
                0x2fff9264       0x49 /home/dangcaominh/STM32MP1/atf/stm32mp1_atf/../build/opteemin-nand-stm32mp157d-ev1/bl2/stm32mp1_ram.o
 .rodata.stm32mp_ddr_set_reg.str1.1
                0x2fff9264       0x1b /home/dangcaominh/STM32MP1/atf/stm32mp1_atf/../build/opteemin-nand-stm32mp157d-ev1/bl2/stm32mp_ddr.o
 .rodata.stm32mp_ddr_dt_get_info.str1.1
                0x2fff9264       0x23 /home/dangcaominh/STM32MP1/atf/stm32mp1_atf/../build/opteemin-nand-stm32mp157d-ev1/bl2/stm32mp_ram.o
 .rodata.stm32mp_ddr_dt_get_param.str1.1
                0x2fff9264       0x1f /home/dangcaominh/STM32MP1/atf/stm32mp1_atf/../build/opteemin-nand-stm32mp157d-ev1/bl2/stm32mp_ram.o
 .rodata.__func__.0
                0x2fff9264       0x19 /home/dangcaominh/STM32MP1/atf/stm32mp1_atf/../build/opteemin-nand-stm32mp157d-ev1/bl2/stm32mp_ram.o
 .rodata.stm32_fmc2_read_page.str1.1
                0x2fff927d       0x3e /home/dangcaominh/STM32MP1/atf/stm32mp1_atf/../build/opteemin-nand-stm32mp157d-ev1/bl2/stm32_fmc2_nand.o
 .rodata.stm32_fmc2_init.str1.1
                0x2fff927d       0x79 /home/dangcaominh/STM32MP1/atf/stm32mp1_atf/../build/opteemin-nand-stm32mp157d-ev1/bl2/stm32_fmc2_nand.o
 .rodata.__func__.0
                0x2fff927d       0x17 /home/dangcaominh/STM32MP1/atf/stm32mp1_atf/../build/opteemin-nand-stm32mp157d-ev1/bl2/stm32_fmc2_nand.o
 .rodata.set_gpio.isra.0.str1.1
                0x2fff9294       0x1d /home/dangcaominh/STM32MP1/atf/stm32mp1_atf/../build/opteemin-nand-stm32mp157d-ev1/bl2/stm32_gpio.o
 .rodata.dt_set_pinctrl_config.str1.1
                0x2fff9294       0x90 /home/dangcaominh/STM32MP1/atf/stm32mp1_atf/../build/opteemin-nand-stm32mp157d-ev1/bl2/stm32_gpio.o
 .rodata.stm32_i2c_get_setup_from_fdt.str1.1
                0x2fff9294       0x5d /home/dangcaominh/STM32MP1/atf/stm32mp1_atf/../build/opteemin-nand-stm32mp157d-ev1/bl2/stm32_i2c.o
 .rodata.stm32_i2c_init.str1.1
                0x2fff9294      0x146 /home/dangcaominh/STM32MP1/atf/stm32mp1_atf/../build/opteemin-nand-stm32mp157d-ev1/bl2/stm32_i2c.o
 .rodata.fdt_get_clk_by_name.str1.1
                0x2fff9294       0x13 /home/dangcaominh/STM32MP1/atf/stm32mp1_atf/../build/opteemin-nand-stm32mp157d-ev1/bl2/stm32_iwdg.o
 .rodata.stm32_iwdg_init.str1.1
                0x2fff9294       0x71 /home/dangcaominh/STM32MP1/atf/stm32mp1_atf/../build/opteemin-nand-stm32mp157d-ev1/bl2/stm32_iwdg.o
 .rodata.nvmem_driver_register.str1.1
                0x2fff9294       0x4a /home/dangcaominh/STM32MP1/atf/stm32mp1_atf/../build/opteemin-nand-stm32mp157d-ev1/bl2/nvmem.o
 .rodata.nvmem_get_cell_by_index.str1.1
                0x2fff9294       0x3f /home/dangcaominh/STM32MP1/atf/stm32mp1_atf/../build/opteemin-nand-stm32mp157d-ev1/bl2/nvmem.o
 .rodata.nvmem_get_cell_by_name.str1.1
                0x2fff9294       0x11 /home/dangcaominh/STM32MP1/atf/stm32mp1_atf/../build/opteemin-nand-stm32mp157d-ev1/bl2/nvmem.o
 .rodata.__func__.0
                0x2fff9294       0x12 /home/dangcaominh/STM32MP1/atf/stm32mp1_atf/../build/opteemin-nand-stm32mp157d-ev1/bl2/nvmem.o
 .rodata.stm32_tamp_nvram_write_bkp.str1.1
                0x2fff92a6       0x27 /home/dangcaominh/STM32MP1/atf/stm32mp1_atf/../build/opteemin-nand-stm32mp157d-ev1/bl2/stm32mp_tamp_nvram_core.o
 .rodata.stm32_tamp_nvram_read_cell.str1.1
                0x2fff92a6       0x19 /home/dangcaominh/STM32MP1/atf/stm32mp1_atf/../build/opteemin-nand-stm32mp157d-ev1/bl2/stm32mp_tamp_nvram_core.o
 .rodata.stm32_tamp_nvram_update_rights.str1.1
                0x2fff92a6       0x86 /home/dangcaominh/STM32MP1/atf/stm32mp1_atf/../build/opteemin-nand-stm32mp157d-ev1/bl2/stm32mp_tamp_nvram_core.o
 .rodata.stm32_tamp_nvram_init.str1.1
                0x2fff92a6       0x1c /home/dangcaominh/STM32MP1/atf/stm32mp1_atf/../build/opteemin-nand-stm32mp157d-ev1/bl2/stm32mp_tamp_nvram_core.o
 .rodata.dt_get_pmic_node.str1.1
                0x2fff92a6        0xb /home/dangcaominh/STM32MP1/atf/stm32mp1_atf/../build/opteemin-nand-stm32mp157d-ev1/bl2/stm32mp_pmic.o
 .rodata.handle_pmic_property.str1.1
                0x2fff92a6       0x10 /home/dangcaominh/STM32MP1/atf/stm32mp1_atf/../build/opteemin-nand-stm32mp157d-ev1/bl2/stm32mp_pmic.o
 .rodata.initialize_pmic_i2c.str1.1
                0x2fff92a6       0x59 /home/dangcaominh/STM32MP1/atf/stm32mp1_atf/../build/opteemin-nand-stm32mp157d-ev1/bl2/stm32mp_pmic.o
 .rodata.initialize_pmic.str1.1
                0x2fff92a6       0x83 /home/dangcaominh/STM32MP1/atf/stm32mp1_atf/../build/opteemin-nand-stm32mp157d-ev1/bl2/stm32mp_pmic.o
 .rodata.print_pmic_info_and_debug.str1.1
                0x2fff92a6       0x31 /home/dangcaominh/STM32MP1/atf/stm32mp1_atf/../build/opteemin-nand-stm32mp157d-ev1/bl2/stm32mp_pmic.o
 .rodata.__func__.0
                0x2fff92a6        0xe /home/dangcaominh/STM32MP1/atf/stm32mp1_atf/../build/opteemin-nand-stm32mp157d-ev1/bl2/stm32mp_pmic.o
 .rodata.str1.1
                0x2fff92b4       0x55 /home/dangcaominh/STM32MP1/atf/stm32mp1_atf/../build/opteemin-nand-stm32mp157d-ev1/bl2/stm32mp_pmic.o
 .rodata.stpmic1_regulator_levels_mv.str1.1
                0x2fff92b4        0x5 /home/dangcaominh/STM32MP1/atf/stm32mp1_atf/../build/opteemin-nand-stm32mp157d-ev1/bl2/stpmic1.o
 .rodata.stpmic1_regulator_voltage_get.str1.1
                0x2fff92b4        0xe /home/dangcaominh/STM32MP1/atf/stm32mp1_atf/../build/opteemin-nand-stm32mp157d-ev1/bl2/stpmic1.o
 .rodata.stpmic1_active_discharge_mode_set.str1.1
                0x2fff92b4       0x10 /home/dangcaominh/STM32MP1/atf/stm32mp1_atf/../build/opteemin-nand-stm32mp157d-ev1/bl2/stpmic1.o
 .rodata.str1.1
                0x2fff92b4       0x3b /home/dangcaominh/STM32MP1/atf/stm32mp1_atf/../build/opteemin-nand-stm32mp157d-ev1/bl2/stpmic1.o
 .rodata.regulator_get_by_name.str1.1
                0x2fff92b4       0x39 /home/dangcaominh/STM32MP1/atf/stm32mp1_atf/../build/opteemin-nand-stm32mp157d-ev1/bl2/regulator_core.o
 .rodata.regulator_get_by_supply_name.str1.1
                0x2fff92b4       0x25 /home/dangcaominh/STM32MP1/atf/stm32mp1_atf/../build/opteemin-nand-stm32mp157d-ev1/bl2/regulator_core.o
 .rodata.regulator_get_voltage.str1.1
                0x2fff92b4       0x26 /home/dangcaominh/STM32MP1/atf/stm32mp1_atf/../build/opteemin-nand-stm32mp157d-ev1/bl2/regulator_core.o
 .rodata.regulator_set_voltage.str1.1
                0x2fff92b4       0x23 /home/dangcaominh/STM32MP1/atf/stm32mp1_atf/../build/opteemin-nand-stm32mp157d-ev1/bl2/regulator_core.o
 .rodata.regulator_list_voltages.str1.1
                0x2fff92b4       0x98 /home/dangcaominh/STM32MP1/atf/stm32mp1_atf/../build/opteemin-nand-stm32mp157d-ev1/bl2/regulator_core.o
 .rodata.regulator_register.str1.1
                0x2fff92b4      0x101 /home/dangcaominh/STM32MP1/atf/stm32mp1_atf/../build/opteemin-nand-stm32mp157d-ev1/bl2/regulator_core.o
 .rodata.__func__.0
                0x2fff92b4       0x19 /home/dangcaominh/STM32MP1/atf/stm32mp1_atf/../build/opteemin-nand-stm32mp157d-ev1/bl2/regulator_core.o
 .rodata.fixed_regulator_register.str1.1
                0x2fff92cd       0x58 /home/dangcaominh/STM32MP1/atf/stm32mp1_atf/../build/opteemin-nand-stm32mp157d-ev1/bl2/regulator_fixed.o
 .rodata.__func__.0
                0x2fff92cd       0x19 /home/dangcaominh/STM32MP1/atf/stm32mp1_atf/../build/opteemin-nand-stm32mp157d-ev1/bl2/regulator_fixed.o
 .rodata.fconf_load_config.str1.1
                0x2fff92e6       0x52 /home/dangcaominh/STM32MP1/atf/stm32mp1_atf/../build/opteemin-nand-stm32mp157d-ev1/bl2/fconf.o
 .rodata.fconf_populate.str1.1
                0x2fff92e6       0xa0 /home/dangcaominh/STM32MP1/atf/stm32mp1_atf/../build/opteemin-nand-stm32mp157d-ev1/bl2/fconf.o
 .rodata.set_config_info.str1.1
                0x2fff92e6       0x3e /home/dangcaominh/STM32MP1/atf/stm32mp1_atf/../build/opteemin-nand-stm32mp157d-ev1/bl2/fconf_dyn_cfg_getter.o
 .rodata.fconf_populate_dtb_registry.str1.1
                0x2fff92e6       0xd1 /home/dangcaominh/STM32MP1/atf/stm32mp1_atf/../build/opteemin-nand-stm32mp157d-ev1/bl2/fconf_dyn_cfg_getter.o
 .rodata.dyn_cfg_dtb_info_getter.str1.1
                0x2fff92e6       0x1e /home/dangcaominh/STM32MP1/atf/stm32mp1_atf/../build/opteemin-nand-stm32mp157d-ev1/bl2/fconf_dyn_cfg_getter.o
 .rodata.str1.1
                0x2fff92e6       0x12 /home/dangcaominh/STM32MP1/atf/stm32mp1_atf/../build/opteemin-nand-stm32mp157d-ev1/bl2/fconf_dyn_cfg_getter.o
 .rodata.parse_optee_image.str1.1
                0x2fff92e6       0x4d /home/dangcaominh/STM32MP1/atf/stm32mp1_atf/../build/opteemin-nand-stm32mp157d-ev1/bl2/optee_utils.o
 .rodata.parse_optee_header.str1.1
                0x2fff92e6      0x125 /home/dangcaominh/STM32MP1/atf/stm32mp1_atf/../build/opteemin-nand-stm32mp157d-ev1/bl2/optee_utils.o
 .rodata.xlat_arch_regime_get_xn_desc.str1.1
                0x2fff92e6       0x2e /home/dangcaominh/STM32MP1/atf/stm32mp1_atf/../build/opteemin-nand-stm32mp157d-ev1/bl2/xlat_tables_arch.o
 .rodata.mmap_add_alloc_va.str1.1
                0x2fff92e6       0x29 /home/dangcaominh/STM32MP1/atf/stm32mp1_atf/../build/opteemin-nand-stm32mp157d-ev1/bl2/xlat_tables_context.o
 .rodata.xlat_table_get_index.str1.1
                0x2fff92e6       0x26 /home/dangcaominh/STM32MP1/atf/stm32mp1_atf/../build/opteemin-nand-stm32mp157d-ev1/bl2/xlat_tables_core.o
 .rodata.mmap_add_region_ctx.str1.1
                0x2fff92e6       0x2b /home/dangcaominh/STM32MP1/atf/stm32mp1_atf/../build/opteemin-nand-stm32mp157d-ev1/bl2/xlat_tables_core.o
 .rodata.init_xlat_tables_ctx.str1.1
                0x2fff92e6       0x4f /home/dangcaominh/STM32MP1/atf/stm32mp1_atf/../build/opteemin-nand-stm32mp157d-ev1/bl2/xlat_tables_core.o
 .rodata.str1.1
                0x2fff92e6       0x32 /home/dangcaominh/STM32MP1/atf/stm32mp1_atf/../build/opteemin-nand-stm32mp157d-ev1/bl2/plat_log_common.o
 .rodata.stm32mp_io_setup.str1.1
                0x2fff92e6       0xf3 /home/dangcaominh/STM32MP1/atf/stm32mp1_atf/../build/opteemin-nand-stm32mp157d-ev1/bl2/bl2_io_storage.o
 .rodata.bl2_plat_handle_pre_image_load.str1.1
                0x2fff92e6       0x10 /home/dangcaominh/STM32MP1/atf/stm32mp1_atf/../build/opteemin-nand-stm32mp157d-ev1/bl2/bl2_io_storage.o
 .rodata.plat_fwu_get_boot_idx.str1.1
                0x2fff92e6       0xba /home/dangcaominh/STM32MP1/atf/stm32mp1_atf/../build/opteemin-nand-stm32mp157d-ev1/bl2/bl2_io_storage.o
 .rodata.plat_fwu_set_images_source.str1.1
                0x2fff92e6       0x5e /home/dangcaominh/STM32MP1/atf/stm32mp1_atf/../build/opteemin-nand-stm32mp157d-ev1/bl2/bl2_io_storage.o
 .rodata.__func__.1
                0x2fff92e6       0x16 /home/dangcaominh/STM32MP1/atf/stm32mp1_atf/../build/opteemin-nand-stm32mp157d-ev1/bl2/bl2_io_storage.o
 .rodata.stm32_get_bootinfo_cell.str1.1
                0x2fff92fc       0x14 /home/dangcaominh/STM32MP1/atf/stm32mp1_atf/../build/opteemin-nand-stm32mp157d-ev1/bl2/stm32mp_common.o
 .rodata.stm32_get_otp_index.str1.1
                0x2fff92fc       0x20 /home/dangcaominh/STM32MP1/atf/stm32mp1_atf/../build/opteemin-nand-stm32mp157d-ev1/bl2/stm32mp_common.o
 .rodata.stm32_get_otp_value_from_idx.str1.1
                0x2fff92fc       0x1a /home/dangcaominh/STM32MP1/atf/stm32mp1_atf/../build/opteemin-nand-stm32mp157d-ev1/bl2/stm32mp_common.o
 .rodata.stm32_get_otp_value.str1.1
                0x2fff92fc       0x16 /home/dangcaominh/STM32MP1/atf/stm32mp1_atf/../build/opteemin-nand-stm32mp157d-ev1/bl2/stm32mp_common.o
 .rodata.stm32_display_board_info.str1.1
                0x2fff92fc       0x25 /home/dangcaominh/STM32MP1/atf/stm32mp1_atf/../build/opteemin-nand-stm32mp157d-ev1/bl2/stm32mp_common.o
 .rodata.stm32_get_magic_number_cell.str1.1
                0x2fff92fc        0xd /home/dangcaominh/STM32MP1/atf/stm32mp1_atf/../build/opteemin-nand-stm32mp157d-ev1/bl2/stm32mp_common.o
 .rodata.stm32_get_core1_branch_address_cell.str1.1
                0x2fff92fc       0x15 /home/dangcaominh/STM32MP1/atf/stm32mp1_atf/../build/opteemin-nand-stm32mp157d-ev1/bl2/stm32mp_common.o
 .rodata.stm32_get_fwu_info_cell.str1.1
                0x2fff92fc        0x9 /home/dangcaominh/STM32MP1/atf/stm32mp1_atf/../build/opteemin-nand-stm32mp157d-ev1/bl2/stm32mp_common.o
 .rodata.stm32_get_boot_mode_cell.str1.1
                0x2fff92fc        0xa /home/dangcaominh/STM32MP1/atf/stm32mp1_atf/../build/opteemin-nand-stm32mp157d-ev1/bl2/stm32mp_common.o
 .rodata.fdt_get_status.str1.1
                0x2fff92fc       0x1a /home/dangcaominh/STM32MP1/atf/stm32mp1_atf/../build/opteemin-nand-stm32mp157d-ev1/bl2/stm32mp_dt.o
 .rodata.dt_fill_device_info.str1.1
                0x2fff92fc       0x2e /home/dangcaominh/STM32MP1/atf/stm32mp1_atf/../build/opteemin-nand-stm32mp157d-ev1/bl2/stm32mp_dt.o
 .rodata.dt_get_ddr_size.str1.1
                0x2fff92fc       0x3d /home/dangcaominh/STM32MP1/atf/stm32mp1_atf/../build/opteemin-nand-stm32mp157d-ev1/bl2/stm32mp_dt.o
 .rodata.dt_get_vdd_regulator.str1.1
                0x2fff92fc       0x18 /home/dangcaominh/STM32MP1/atf/stm32mp1_atf/../build/opteemin-nand-stm32mp157d-ev1/bl2/stm32mp_dt.o
 .rodata.dt_get_board_model.str1.1
                0x2fff92fc        0x8 /home/dangcaominh/STM32MP1/atf/stm32mp1_atf/../build/opteemin-nand-stm32mp157d-ev1/bl2/stm32mp_dt.o
 .rodata.dt_find_otp_name.str1.1
                0x2fff92fc       0x76 /home/dangcaominh/STM32MP1/atf/stm32mp1_atf/../build/opteemin-nand-stm32mp157d-ev1/bl2/stm32mp_dt.o
 .rodata.__func__.0
                0x2fff92fc       0x10 /home/dangcaominh/STM32MP1/atf/stm32mp1_atf/../build/opteemin-nand-stm32mp157d-ev1/bl2/stm32mp_dt.o
 .rodata.fconf_populate_stm32mp_fuse_provisioning.str1.1
                0x2fff930c       0x8b /home/dangcaominh/STM32MP1/atf/stm32mp1_atf/../build/opteemin-nand-stm32mp157d-ev1/bl2/stm32mp_fconf_fuse.o
 .rodata.str1.1
                0x2fff930c       0x13 /home/dangcaominh/STM32MP1/atf/stm32mp1_atf/../build/opteemin-nand-stm32mp157d-ev1/bl2/stm32mp_fconf_fuse.o
 .rodata.fconf_populate_stm32mp_io_policies.str1.1
                0x2fff930c       0x99 /home/dangcaominh/STM32MP1/atf/stm32mp1_atf/../build/opteemin-nand-stm32mp157d-ev1/bl2/stm32mp_fconf_io.o
 .rodata.str1.1
                0x2fff930c       0x6f /home/dangcaominh/STM32MP1/atf/stm32mp1_atf/../build/opteemin-nand-stm32mp157d-ev1/bl2/stm32mp_fconf_io.o
 .rodata.bl2_platform_setup.str1.1
                0x2fff930c       0x35 /home/dangcaominh/STM32MP1/atf/stm32mp1_atf/../build/opteemin-nand-stm32mp157d-ev1/bl2/bl2_plat_setup.o
 .rodata.bl2_el3_plat_arch_setup.str1.1
                0x2fff930c      0x3c5 /home/dangcaominh/STM32MP1/atf/stm32mp1_atf/../build/opteemin-nand-stm32mp157d-ev1/bl2/bl2_plat_setup.o
 .rodata.bl2_plat_handle_post_image_load.str1.1
                0x2fff930c       0x26 /home/dangcaominh/STM32MP1/atf/stm32mp1_atf/../build/opteemin-nand-stm32mp157d-ev1/bl2/bl2_plat_setup.o
 .rodata.debug_msg
                0x2fff930c      0x1d5 /home/dangcaominh/STM32MP1/atf/stm32mp1_atf/../build/opteemin-nand-stm32mp157d-ev1/bl2/bl2_plat_setup.o
 .rodata.stm32mp_board_ddr_power_init.str1.1
                0x2fff94e1       0x4d /home/dangcaominh/STM32MP1/atf/stm32mp1_atf/../build/opteemin-nand-stm32mp157d-ev1/bl2/plat_ddr.o
 .rodata.__func__.0
                0x2fff94e1       0x14 /home/dangcaominh/STM32MP1/atf/stm32mp1_atf/../build/opteemin-nand-stm32mp157d-ev1/bl2/plat_ddr.o
 .rodata.plat_get_raw_nand_data.str1.1
                0x2fff94f5       0x74 /home/dangcaominh/STM32MP1/atf/stm32mp1_atf/../build/opteemin-nand-stm32mp157d-ev1/bl2/stm32mp1_boot_device.o
 .rodata.stm32_pm_get_optee_ep.str1.1
                0x2fff94f5       0x18 /home/dangcaominh/STM32MP1/atf/stm32mp1_atf/../build/opteemin-nand-stm32mp157d-ev1/bl2/stm32mp1_context.o
 .rodata.stm32_pm_context_is_valid.str1.1
                0x2fff94f5       0x33 /home/dangcaominh/STM32MP1/atf/stm32mp1_atf/../build/opteemin-nand-stm32mp157d-ev1/bl2/stm32mp1_context.o
 .rodata.stm32_pwr_down_wfi_load.str1.1
                0x2fff94f5       0x3a /home/dangcaominh/STM32MP1/atf/stm32mp1_atf/../build/opteemin-nand-stm32mp157d-ev1/bl2/stm32mp1_critic_power.o
 .rodata.stm32mp1_dbgmcu_init.str1.1
                0x2fff94f5       0x36 /home/dangcaominh/STM32MP1/atf/stm32mp1_atf/../build/opteemin-nand-stm32mp157d-ev1/bl2/stm32mp1_dbgmcu.o
 .rodata.stm32mp1_dbgmcu_get_chip_version.str1.1
                0x2fff94f5       0x23 /home/dangcaominh/STM32MP1/atf/stm32mp1_atf/../build/opteemin-nand-stm32mp157d-ev1/bl2/stm32mp1_dbgmcu.o
 .rodata.fconf_populate_stm32mp1_firewall.str1.1
                0x2fff94f5       0x68 /home/dangcaominh/STM32MP1/atf/stm32mp1_atf/../build/opteemin-nand-stm32mp157d-ev1/bl2/stm32mp1_fconf_firewall.o
 .rodata.stm32mp1_security_setup.str1.1
                0x2fff94f5       0x2b /home/dangcaominh/STM32MP1/atf/stm32mp1_atf/../build/opteemin-nand-stm32mp157d-ev1/bl2/stm32mp1_fconf_firewall.o
 .rodata.str1.1
                0x2fff94f5       0x1c /home/dangcaominh/STM32MP1/atf/stm32mp1_atf/../build/opteemin-nand-stm32mp157d-ev1/bl2/stm32mp1_fconf_firewall.o
 .rodata.stm32_get_gpio_bank_base.str1.1
                0x2fff94f5       0x24 /home/dangcaominh/STM32MP1/atf/stm32mp1_atf/../build/opteemin-nand-stm32mp157d-ev1/bl2/stm32mp1_private.o
 .rodata.stm32mp_get_chip_version.str1.1
                0x2fff94f5       0x29 /home/dangcaominh/STM32MP1/atf/stm32mp1_atf/../build/opteemin-nand-stm32mp157d-ev1/bl2/stm32mp1_private.o
 .rodata.stm32mp_get_chip_dev_id.str1.1
                0x2fff94f5       0x26 /home/dangcaominh/STM32MP1/atf/stm32mp1_atf/../build/opteemin-nand-stm32mp157d-ev1/bl2/stm32mp1_private.o
 .rodata.stm32mp_get_part_number.str1.1
                0x2fff94f5       0x10 /home/dangcaominh/STM32MP1/atf/stm32mp1_atf/../build/opteemin-nand-stm32mp157d-ev1/bl2/stm32mp1_private.o
 .rodata.stm32mp_get_soc_name.str1.1
                0x2fff94f5       0x65 /home/dangcaominh/STM32MP1/atf/stm32mp1_atf/../build/opteemin-nand-stm32mp157d-ev1/bl2/stm32mp1_private.o
 .rodata.stm32mp_print_cpuinfo.str1.1
                0x2fff94f5        0xa /home/dangcaominh/STM32MP1/atf/stm32mp1_atf/../build/opteemin-nand-stm32mp157d-ev1/bl2/stm32mp1_private.o
 .rodata.stm32mp_print_boardinfo.str1.1
                0x2fff94f5        0x9 /home/dangcaominh/STM32MP1/atf/stm32mp1_atf/../build/opteemin-nand-stm32mp157d-ev1/bl2/stm32mp1_private.o
 .rodata.stm32mp_check_closed_device.str1.1
                0x2fff94f5        0x9 /home/dangcaominh/STM32MP1/atf/stm32mp1_atf/../build/opteemin-nand-stm32mp157d-ev1/bl2/stm32mp1_private.o
 .rodata.stm32_iwdg_get_otp_config.str1.1
                0x2fff94f5        0x8 /home/dangcaominh/STM32MP1/atf/stm32mp1_atf/../build/opteemin-nand-stm32mp157d-ev1/bl2/stm32mp1_private.o
 .rodata.str1.1
                0x2fff94f5       0x12 /home/dangcaominh/STM32MP1/atf/stm32mp1_atf/../build/opteemin-nand-stm32mp157d-ev1/bl2/stm32mp1_private.o
 .rodata.stm32mp_syscfg_init.str1.1
                0x2fff94f5       0x97 /home/dangcaominh/STM32MP1/atf/stm32mp1_atf/../build/opteemin-nand-stm32mp157d-ev1/bl2/stm32mp1_syscfg.o
 .rodata.stm32mp_syscfg_enable_io_compensation_finish.str1.1
                0x2fff94f5       0x21 /home/dangcaominh/STM32MP1/atf/stm32mp1_atf/../build/opteemin-nand-stm32mp157d-ev1/bl2/stm32mp1_syscfg.o
 .rodata.str1.1
                0x2fff94f5       0x29 /home/dangcaominh/STM32MP1/atf/stm32mp1_atf/../build/opteemin-nand-stm32mp157d-ev1/bl2/bl2_el3_entrypoint.o
 .rodata.assert_str
                0x2fff951e       0x15 /home/dangcaominh/STM32MP1/atf/stm32mp1_atf/../build/opteemin-nand-stm32mp157d-ev1/bl2/debug.o
 .rodata.panic_str
                0x2fff9533       0x14 /home/dangcaominh/STM32MP1/atf/stm32mp1_atf/../build/opteemin-nand-stm32mp157d-ev1/bl2/debug.o
 .rodata.str1.1
                0x2fff9547       0x28 /home/dangcaominh/STM32MP1/atf/stm32mp1_atf/../build/opteemin-nand-stm32mp157d-ev1/bl2/stm32_console.o
 .rodata.errata_entries
                0x2fff956f        0x0 /home/dangcaominh/STM32MP1/atf/stm32mp1_atf/../build/opteemin-nand-stm32mp157d-ev1/bl2/cortex_a7.o
 .rodata.str1.1
                0x2fff956f       0x1f /home/dangcaominh/STM32MP1/atf/stm32mp1_atf/../build/opteemin-nand-stm32mp157d-ev1/bl2/cpu_helpers.o
 .rodata.str1.1
                0x2fff958e       0x28 /home/dangcaominh/STM32MP1/atf/stm32mp1_atf/../build/opteemin-nand-stm32mp157d-ev1/bl2/enable_mmu.o
 .rodata.rev_err_str
                0x2fff95b6       0x92 /home/dangcaominh/STM32MP1/atf/stm32mp1_atf/../build/opteemin-nand-stm32mp157d-ev1/bl2/stm32mp1_helper.o
 .rodata.fdt_address_cells.str1.1
                0x2fff9648        0xf /home/dangcaominh/STM32MP1/atf/stm32mp1_atf/../build/opteemin-nand-stm32mp157d-ev1/lib/libfdt.a(fdt_addresses.o)
 .rodata.fdt_get_phandle.str1.1
                0x2fff9648       0x16 /home/dangcaominh/STM32MP1/atf/stm32mp1_atf/../build/opteemin-nand-stm32mp157d-ev1/lib/libfdt.a(fdt_ro.o)
 .rodata.fdt_get_alias_namelen.str1.1
                0x2fff9648        0x9 /home/dangcaominh/STM32MP1/atf/stm32mp1_atf/../build/opteemin-nand-stm32mp157d-ev1/lib/libfdt.a(fdt_ro.o)
 .rodata.fdt_node_check_compatible.str1.1
                0x2fff9648        0xb /home/dangcaominh/STM32MP1/atf/stm32mp1_atf/../build/opteemin-nand-stm32mp157d-ev1/lib/libfdt.a(fdt_ro.o)
 .rodata.__assert.str1.1
                0x2fff9648        0xf /home/dangcaominh/STM32MP1/atf/stm32mp1_atf/../build/opteemin-nand-stm32mp157d-ev1/lib/libc.a(assert.o)
 .rodata.vprintf.str1.1
                0x2fff9648       0x15 /home/dangcaominh/STM32MP1/atf/stm32mp1_atf/../build/opteemin-nand-stm32mp157d-ev1/lib/libc.a(printf.o)
 .rodata.vsnprintf.str1.1
                0x2fff9648        0x3 /home/dangcaominh/STM32MP1/atf/stm32mp1_atf/../build/opteemin-nand-stm32mp157d-ev1/lib/libc.a(snprintf.o)
                0x2fff96d4                        . = ALIGN (0x4)
                0x2fff9648                        __RT_SVC_DESCS_START__ = .
 *(SORT_BY_ALIGNMENT(.rt_svc_descs))
                0x2fff9648                        __RT_SVC_DESCS_END__ = .
                0x2fff96d4                        . = ALIGN (0x4)
                0x2fff9648                        __FCONF_POPULATOR_START__ = .
 *(SORT_BY_ALIGNMENT(.fconf_populator))
 .fconf_populator
                0x2fff9648        0xc /home/dangcaominh/STM32MP1/atf/stm32mp1_atf/../build/opteemin-nand-stm32mp157d-ev1/bl2/fconf_dyn_cfg_getter.o
 .fconf_populator
                0x2fff9654        0xc /home/dangcaominh/STM32MP1/atf/stm32mp1_atf/../build/opteemin-nand-stm32mp157d-ev1/bl2/stm32mp_fconf_fuse.o
 .fconf_populator
                0x2fff9660        0xc /home/dangcaominh/STM32MP1/atf/stm32mp1_atf/../build/opteemin-nand-stm32mp157d-ev1/bl2/stm32mp_fconf_io.o
 .fconf_populator
                0x2fff966c        0xc /home/dangcaominh/STM32MP1/atf/stm32mp1_atf/../build/opteemin-nand-stm32mp157d-ev1/bl2/stm32mp1_fconf_firewall.o
                0x2fff9678                        __FCONF_POPULATOR_END__ = .
                0x2fff96d4                        . = ALIGN (0x4)
                0x2fff9678                        __PMF_SVC_DESCS_START__ = .
 *(SORT_BY_ALIGNMENT(.pmf_svc_descs))
                0x2fff9678                        __PMF_SVC_DESCS_END__ = .
                0x2fff96d4                        . = ALIGN (0x4)
                0x2fff9678                        __PARSER_LIB_DESCS_START__ = .
 *(SORT_BY_ALIGNMENT(.img_parser_lib_descs))
                0x2fff9678                        __PARSER_LIB_DESCS_END__ = .
                0x2fff96d4                        . = ALIGN (0x4)
                0x2fff9678                        __CPU_OPS_START__ = .
 *(SORT_BY_ALIGNMENT(.cpu_ops))
 .cpu_ops       0x2fff9678       0x10 /home/dangcaominh/STM32MP1/atf/stm32mp1_atf/../build/opteemin-nand-stm32mp157d-ev1/bl2/cortex_a7.o
                0x2fff9688                        __CPU_OPS_END__ = .
                0x2fff96d4                        . = ALIGN (0x4)
                0x2fff9688                        __GOT_START__ = .
 *(SORT_BY_ALIGNMENT(.got))
                0x2fff9688                        __GOT_END__ = .
 *(SORT_BY_ALIGNMENT(.vectors))
 *fill*         0x2fff9688       0x18 
 .vectors       0x2fff96a0       0x20 /home/dangcaominh/STM32MP1/atf/stm32mp1_atf/../build/opteemin-nand-stm32mp157d-ev1/bl2/bl2_el3_exceptions.o
                0x2fff96a0                bl2_vector_table
 .vectors.__stub
                0x2fff96c0       0x38 linker stubs
                0x2fff96f8                        __RO_END_UNALIGNED__ = .
                0x2fffa000                        . = ALIGN (0x1000)
 *fill*         0x2fff96f8      0x908 
                0x2fffa000                        __RO_END__ = .
                0x00000001                        ASSERT ((__CPU_OPS_END__ > __CPU_OPS_START__), cpu_ops not defined for this platform.)
                0x2fffa000                        __RW_START__ = .

.glue_7         0x2fffa000        0x0
 .glue_7        0x2fffa000        0x0 linker stubs

.glue_7t        0x2fffa000        0x0
 .glue_7t       0x2fffa000        0x0 linker stubs

.vfp11_veneer   0x2fffa000        0x0
 .vfp11_veneer  0x2fffa000        0x0 linker stubs

.v4_bx          0x2fffa000        0x0
 .v4_bx         0x2fffa000        0x0 linker stubs

.iplt           0x2fffa000        0x0
 .iplt          0x2fffa000        0x0 /home/dangcaominh/STM32MP1/atf/stm32mp1_atf/../build/opteemin-nand-stm32mp157d-ev1/bl2/bl2_image_load_v2.o

.data           0x2fffa000      0x5cd
                0x2fffa000                        __DATA_START__ = .
 *(SORT_BY_ALIGNMENT(.data*))
 .data.tf_xlat_ctx
                0x2fffa000       0x48 /home/dangcaominh/STM32MP1/atf/stm32mp1_atf/../build/opteemin-nand-stm32mp157d-ev1/bl2/xlat_tables_context.o
 .data.nand_dev_spec
                0x2fffa048       0x28 /home/dangcaominh/STM32MP1/atf/stm32mp1_atf/../build/opteemin-nand-stm32mp157d-ev1/bl2/bl2_io_storage.o
 .data.max_log_level
                0x2fffa070        0x4 /home/dangcaominh/STM32MP1/atf/stm32mp1_atf/../build/opteemin-nand-stm32mp157d-ev1/bl2/tf_log.o
 .data.stm32mp15_clock_data
                0x2fffa074       0x18 /home/dangcaominh/STM32MP1/atf/stm32mp1_atf/../build/opteemin-nand-stm32mp157d-ev1/bl2/stm32mp1_clk.o
 .data.stm32mp15_clock_pdata
                0x2fffa08c       0x1c /home/dangcaominh/STM32MP1/atf/stm32mp1_atf/../build/opteemin-nand-stm32mp157d-ev1/bl2/stm32mp1_clk.o
                0x2fffa08c                stm32mp15_clock_pdata
 .data.stm32mp_osc_node_label
                0x2fffa0a8       0x18 /home/dangcaominh/STM32MP1/atf/stm32mp1_atf/../build/opteemin-nand-stm32mp157d-ev1/bl2/stm32mp1_clk.o
                0x2fffa0a8                stm32mp_osc_node_label
 .data.mp1_bkpreg_access
                0x2fffa0c0        0xc /home/dangcaominh/STM32MP1/atf/stm32mp1_atf/../build/opteemin-nand-stm32mp157d-ev1/bl2/stm32mp_tamp_nvram_mp1.o
 .data.i2c_node.1
                0x2fffa0cc        0x4 /home/dangcaominh/STM32MP1/atf/stm32mp1_atf/../build/opteemin-nand-stm32mp157d-ev1/bl2/stm32mp_pmic.o
 .data.node.2   0x2fffa0d0        0x4 /home/dangcaominh/STM32MP1/atf/stm32mp1_atf/../build/opteemin-nand-stm32mp157d-ev1/bl2/stm32mp_pmic.o
 .data.status.3
                0x2fffa0d4        0x4 /home/dangcaominh/STM32MP1/atf/stm32mp1_atf/../build/opteemin-nand-stm32mp157d-ev1/bl2/stm32mp_pmic.o
 .data.fixed_ops
                0x2fffa0d8       0x20 /home/dangcaominh/STM32MP1/atf/stm32mp1_atf/../build/opteemin-nand-stm32mp157d-ev1/bl2/regulator_fixed.o
 .data.dtb_info_pool
                0x2fffa0f8       0x10 /home/dangcaominh/STM32MP1/atf/stm32mp1_atf/../build/opteemin-nand-stm32mp157d-ev1/bl2/fconf_dyn_cfg_getter.o
 .data.boot_idx.2
                0x2fffa108        0x4 /home/dangcaominh/STM32MP1/atf/stm32mp1_atf/../build/opteemin-nand-stm32mp157d-ev1/bl2/bl2_io_storage.o
 .data.fconf_stm32mp_uuids_pool
                0x2fffa10c       0x10 /home/dangcaominh/STM32MP1/atf/stm32mp1_atf/../build/opteemin-nand-stm32mp157d-ev1/bl2/stm32mp_fconf_io.o
 .data.policies
                0x2fffa11c      0x214 /home/dangcaominh/STM32MP1/atf/stm32mp1_atf/../build/opteemin-nand-stm32mp157d-ev1/bl2/stm32mp_fconf_io.o
                0x2fffa11c                policies
 .data.bl_mem_params_desc_num
                0x2fffa330        0x4 /home/dangcaominh/STM32MP1/atf/stm32mp1_atf/../build/opteemin-nand-stm32mp157d-ev1/bl2/plat_bl2_mem_params_desc.o
                0x2fffa330                bl_mem_params_desc_num
 .data.bl_mem_params_desc_ptr
                0x2fffa334        0x4 /home/dangcaominh/STM32MP1/atf/stm32mp1_atf/../build/opteemin-nand-stm32mp157d-ev1/bl2/plat_bl2_mem_params_desc.o
                0x2fffa334                bl_mem_params_desc_ptr
 .data.bl2_mem_params_descs
                0x2fffa338      0x284 /home/dangcaominh/STM32MP1/atf/stm32mp1_atf/../build/opteemin-nand-stm32mp157d-ev1/bl2/plat_bl2_mem_params_desc.o
 .data.skip.0   0x2fffa5bc        0x4 /home/dangcaominh/STM32MP1/atf/stm32mp1_atf/../build/opteemin-nand-stm32mp157d-ev1/bl2/stm32mp1_private.o
 .data          0x2fffa5c0        0xc /home/dangcaominh/STM32MP1/atf/stm32mp1_atf/../build/opteemin-nand-stm32mp157d-ev1/bl2/stm32mp1_critic_power_wrapper.o
 .data.console_state
                0x2fffa5cc        0x1 /home/dangcaominh/STM32MP1/atf/stm32mp1_atf/../build/opteemin-nand-stm32mp157d-ev1/bl2/multi_console.o
                0x2fffa5cd                        __DATA_END__ = .
                0x2fffa000                        __DATA_RAM_START__ = __DATA_START__
                0x2fffa5cd                        __DATA_RAM_END__ = __DATA_END__

.igot.plt       0x2fffa5d0        0x0
 .igot.plt      0x2fffa5d0        0x0 /home/dangcaominh/STM32MP1/atf/stm32mp1_atf/../build/opteemin-nand-stm32mp157d-ev1/bl2/bl2_image_load_v2.o

.rel.dyn        0x2fffa5d0        0x0
                0x2fffa5d0                        __RELA_START__ = .
 *(SORT_BY_ALIGNMENT(.rel*))
 .rel.iplt      0x2fffa5d0        0x0 /home/dangcaominh/STM32MP1/atf/stm32mp1_atf/../build/opteemin-nand-stm32mp157d-ev1/bl2/bl2_image_load_v2.o
                0x2fffa5d0                        __RELA_END__ = .

.stacks         0x2fffa600      0xc00
                0x2fffa600                        __STACKS_START__ = .
 *(SORT_BY_ALIGNMENT(.tzfw_normal_stacks))
 .tzfw_normal_stacks
                0x2fffa600      0xc00 /home/dangcaominh/STM32MP1/atf/stm32mp1_atf/../build/opteemin-nand-stm32mp157d-ev1/bl2/platform_up_stack.o
                0x2fffb200                        __STACKS_END__ = .

.bss            0x2fffb200     0x19e0
                0x2fffb200                        __BSS_START__ = .
 *(SORT_BY_ALIGNMENT(.bss*))
 .bss.current_fip_file
                0x2fffb200       0x30 /home/dangcaominh/STM32MP1/atf/stm32mp1_atf/../build/opteemin-nand-stm32mp157d-ev1/bl2/io_fip.o
 .bss.state_pool
                0x2fffb230       0x20 /home/dangcaominh/STM32MP1/atf/stm32mp1_atf/../build/opteemin-nand-stm32mp157d-ev1/bl2/io_mtd.o
 .bss.nand_dev  0x2fffb250       0x30 /home/dangcaominh/STM32MP1/atf/stm32mp1_atf/../build/opteemin-nand-stm32mp157d-ev1/bl2/core.o
 .bss.ddr_priv_data
                0x2fffb280       0x20 /home/dangcaominh/STM32MP1/atf/stm32mp1_atf/../build/opteemin-nand-stm32mp157d-ev1/bl2/stm32mp1_ram.o
 .bss.tf_mmap   0x2fffb2a0       0xc0 /home/dangcaominh/STM32MP1/atf/stm32mp1_atf/../build/opteemin-nand-stm32mp157d-ev1/bl2/xlat_tables_context.o
 .bss.mmu_cfg_params
                0x2fffb360       0x18 /home/dangcaominh/STM32MP1/atf/stm32mp1_atf/../build/opteemin-nand-stm32mp157d-ev1/bl2/xlat_tables_context.o
                0x2fffb360                mmu_cfg_params
 .bss.next_bl_params
                0x2fffb378        0xc /home/dangcaominh/STM32MP1/atf/stm32mp1_atf/../build/opteemin-nand-stm32mp157d-ev1/bl2/desc_image_load.o
 .bss.bl_load_info
                0x2fffb384        0xc /home/dangcaominh/STM32MP1/atf/stm32mp1_atf/../build/opteemin-nand-stm32mp157d-ev1/bl2/desc_image_load.o
 .bss.tzc400    0x2fffb390        0x8 /home/dangcaominh/STM32MP1/atf/stm32mp1_atf/../build/opteemin-nand-stm32mp157d-ev1/bl2/tzc400.o
 .bss.ops       0x2fffb398        0x4 /home/dangcaominh/STM32MP1/atf/stm32mp1_atf/../build/opteemin-nand-stm32mp157d-ev1/bl2/clk.o
 .bss.console_list
                0x2fffb39c        0x4 /home/dangcaominh/STM32MP1/atf/stm32mp1_atf/../build/opteemin-nand-stm32mp157d-ev1/bl2/multi_console.o
                0x2fffb39c                console_list
 .bss.timer_ops
                0x2fffb3a0        0x4 /home/dangcaominh/STM32MP1/atf/stm32mp1_atf/../build/opteemin-nand-stm32mp157d-ev1/bl2/delay_timer.o
 .bss.ops       0x2fffb3a4        0xc /home/dangcaominh/STM32MP1/atf/stm32mp1_atf/../build/opteemin-nand-stm32mp157d-ev1/bl2/generic_delay_timer.o
 .bss.fip_dev_count
                0x2fffb3b0        0x4 /home/dangcaominh/STM32MP1/atf/stm32mp1_atf/../build/opteemin-nand-stm32mp157d-ev1/bl2/io_fip.o
 .bss.dev_info_pool
                0x2fffb3b4        0x8 /home/dangcaominh/STM32MP1/atf/stm32mp1_atf/../build/opteemin-nand-stm32mp157d-ev1/bl2/io_fip.o
 .bss.state_pool
                0x2fffb3bc        0x8 /home/dangcaominh/STM32MP1/atf/stm32mp1_atf/../build/opteemin-nand-stm32mp157d-ev1/bl2/io_fip.o
 .bss.backend_image_spec
                0x2fffb3c4        0x4 /home/dangcaominh/STM32MP1/atf/stm32mp1_atf/../build/opteemin-nand-stm32mp157d-ev1/bl2/io_fip.o
 .bss.backend_dev_handle
                0x2fffb3c8        0x4 /home/dangcaominh/STM32MP1/atf/stm32mp1_atf/../build/opteemin-nand-stm32mp157d-ev1/bl2/io_fip.o
 .bss.dev_info_pool
                0x2fffb3cc        0x8 /home/dangcaominh/STM32MP1/atf/stm32mp1_atf/../build/opteemin-nand-stm32mp157d-ev1/bl2/io_mtd.o
 .bss.dev_count
                0x2fffb3d4        0x4 /home/dangcaominh/STM32MP1/atf/stm32mp1_atf/../build/opteemin-nand-stm32mp157d-ev1/bl2/io_storage.o
 .bss.entity_count
                0x2fffb3d8        0x4 /home/dangcaominh/STM32MP1/atf/stm32mp1_atf/../build/opteemin-nand-stm32mp157d-ev1/bl2/io_storage.o
 .bss.entity_map
                0x2fffb3dc       0x10 /home/dangcaominh/STM32MP1/atf/stm32mp1_atf/../build/opteemin-nand-stm32mp157d-ev1/bl2/io_storage.o
 .bss.entity_pool
                0x2fffb3ec       0x20 /home/dangcaominh/STM32MP1/atf/stm32mp1_atf/../build/opteemin-nand-stm32mp157d-ev1/bl2/io_storage.o
 .bss.rawnand_dev
                0x2fffb40c        0x8 /home/dangcaominh/STM32MP1/atf/stm32mp1_atf/../build/opteemin-nand-stm32mp157d-ev1/bl2/raw_nand.o
 .bss.bsec_spinlock
                0x2fffb414        0x4 /home/dangcaominh/STM32MP1/atf/stm32mp1_atf/../build/opteemin-nand-stm32mp157d-ev1/bl2/bsec2.o
 .bss.mp15_clkdiv
                0x2fffb418       0x64 /home/dangcaominh/STM32MP1/atf/stm32mp1_atf/../build/opteemin-nand-stm32mp157d-ev1/bl2/stm32mp1_clk.o
                0x2fffb418                mp15_clkdiv
 .bss.mp15_clksrc
                0x2fffb47c       0xb0 /home/dangcaominh/STM32MP1/atf/stm32mp1_atf/../build/opteemin-nand-stm32mp157d-ev1/bl2/stm32mp1_clk.o
                0x2fffb47c                mp15_clksrc
 .bss.mp15_pll  0x2fffb52c       0xd0 /home/dangcaominh/STM32MP1/atf/stm32mp1_atf/../build/opteemin-nand-stm32mp157d-ev1/bl2/stm32mp1_clk.o
                0x2fffb52c                mp15_pll
 .bss.refcount_lock
                0x2fffb5fc        0x4 /home/dangcaominh/STM32MP1/atf/stm32mp1_atf/../build/opteemin-nand-stm32mp157d-ev1/bl2/stm32mp1_clk.o
 .bss.gate_refcounts
                0x2fffb600       0xec /home/dangcaominh/STM32MP1/atf/stm32mp1_atf/../build/opteemin-nand-stm32mp157d-ev1/bl2/stm32mp1_clk.o
 .bss.reg_lock  0x2fffb6ec        0x4 /home/dangcaominh/STM32MP1/atf/stm32mp1_atf/../build/opteemin-nand-stm32mp157d-ev1/bl2/stm32mp1_clk.o
 .bss.stm32mp1_osc
                0x2fffb6f0       0x18 /home/dangcaominh/STM32MP1/atf/stm32mp1_atf/../build/opteemin-nand-stm32mp157d-ev1/bl2/stm32mp1_clk.o
 .bss.stm32_clock_data
                0x2fffb708        0x4 /home/dangcaominh/STM32MP1/atf/stm32mp1_atf/../build/opteemin-nand-stm32mp157d-ev1/bl2/stm32mp1_clk.o
 .bss.stm32_fmc2
                0x2fffb70c       0x24 /home/dangcaominh/STM32MP1/atf/stm32mp1_atf/../build/opteemin-nand-stm32mp157d-ev1/bl2/stm32_fmc2_nand.o
 .bss.stm32_iwdg
                0x2fffb730       0x20 /home/dangcaominh/STM32MP1/atf/stm32mp1_atf/../build/opteemin-nand-stm32mp157d-ev1/bl2/stm32_iwdg.o
 .bss.nvmem_dev_array
                0x2fffb750        0xc /home/dangcaominh/STM32MP1/atf/stm32mp1_atf/../build/opteemin-nand-stm32mp157d-ev1/bl2/nvmem.o
 .bss.static_bkpreg_zones_end.0
                0x2fffb75c        0xc /home/dangcaominh/STM32MP1/atf/stm32mp1_atf/../build/opteemin-nand-stm32mp157d-ev1/bl2/stm32mp_tamp_nvram_core.o
 .bss.nvram_drv_data
                0x2fffb768       0x2c /home/dangcaominh/STM32MP1/atf/stm32mp1_atf/../build/opteemin-nand-stm32mp157d-ev1/bl2/stm32mp_tamp_nvram_core.o
 .bss.pmic_i2c_addr
                0x2fffb794        0x4 /home/dangcaominh/STM32MP1/atf/stm32mp1_atf/../build/opteemin-nand-stm32mp157d-ev1/bl2/stm32mp_pmic.o
 .bss.i2c_handle
                0x2fffb798       0x24 /home/dangcaominh/STM32MP1/atf/stm32mp1_atf/../build/opteemin-nand-stm32mp157d-ev1/bl2/stm32mp_pmic.o
 .bss.pmic_i2c_handle
                0x2fffb7bc        0x4 /home/dangcaominh/STM32MP1/atf/stm32mp1_atf/../build/opteemin-nand-stm32mp157d-ev1/bl2/stpmic1.o
 .bss.rdev_array
                0x2fffb7c0      0x17c /home/dangcaominh/STM32MP1/atf/stm32mp1_atf/../build/opteemin-nand-stm32mp157d-ev1/bl2/regulator_core.o
 .bss.data      0x2fffb93c       0x68 /home/dangcaominh/STM32MP1/atf/stm32mp1_atf/../build/opteemin-nand-stm32mp157d-ev1/bl2/regulator_fixed.o
 .bss.dtb_infos
                0x2fffb9a4       0x60 /home/dangcaominh/STM32MP1/atf/stm32mp1_atf/../build/opteemin-nand-stm32mp157d-ev1/bl2/fconf_dyn_cfg_getter.o
 .bss.tf_mapped_regions
                0x2fffba04        0x8 /home/dangcaominh/STM32MP1/atf/stm32mp1_atf/../build/opteemin-nand-stm32mp157d-ev1/bl2/xlat_tables_context.o
 .bss.backup_block_nb.3
                0x2fffba0c        0x4 /home/dangcaominh/STM32MP1/atf/stm32mp1_atf/../build/opteemin-nand-stm32mp157d-ev1/bl2/bl2_io_storage.o
 .bss.backup_id.4
                0x2fffba10        0x4 /home/dangcaominh/STM32MP1/atf/stm32mp1_atf/../build/opteemin-nand-stm32mp157d-ev1/bl2/bl2_io_storage.o
 .bss.image_block_spec
                0x2fffba14        0x8 /home/dangcaominh/STM32MP1/atf/stm32mp1_atf/../build/opteemin-nand-stm32mp157d-ev1/bl2/bl2_io_storage.o
                0x2fffba14                image_block_spec
 .bss.nand_dev_con
                0x2fffba1c        0x4 /home/dangcaominh/STM32MP1/atf/stm32mp1_atf/../build/opteemin-nand-stm32mp157d-ev1/bl2/bl2_io_storage.o
 .bss.nand_block_sz
                0x2fffba20        0x4 /home/dangcaominh/STM32MP1/atf/stm32mp1_atf/../build/opteemin-nand-stm32mp157d-ev1/bl2/bl2_io_storage.o
 .bss.fip_dev_con
                0x2fffba24        0x4 /home/dangcaominh/STM32MP1/atf/stm32mp1_atf/../build/opteemin-nand-stm32mp157d-ev1/bl2/bl2_io_storage.o
 .bss.storage_dev_handle
                0x2fffba28        0x4 /home/dangcaominh/STM32MP1/atf/stm32mp1_atf/../build/opteemin-nand-stm32mp157d-ev1/bl2/bl2_io_storage.o
                0x2fffba28                storage_dev_handle
 .bss.fip_dev_handle
                0x2fffba2c        0x4 /home/dangcaominh/STM32MP1/atf/stm32mp1_atf/../build/opteemin-nand-stm32mp157d-ev1/bl2/bl2_io_storage.o
                0x2fffba2c                fip_dev_handle
 .bss.s_boot_mode.0
                0x2fffba30        0xc /home/dangcaominh/STM32MP1/atf/stm32mp1_atf/../build/opteemin-nand-stm32mp157d-ev1/bl2/stm32mp_common.o
 .bss.s_fwu_info.2
                0x2fffba3c        0xc /home/dangcaominh/STM32MP1/atf/stm32mp1_atf/../build/opteemin-nand-stm32mp157d-ev1/bl2/stm32mp_common.o
 .bss.s_core1_branch_address.4
                0x2fffba48        0xc /home/dangcaominh/STM32MP1/atf/stm32mp1_atf/../build/opteemin-nand-stm32mp157d-ev1/bl2/stm32mp_common.o
 .bss.s_magic_number.6
                0x2fffba54        0xc /home/dangcaominh/STM32MP1/atf/stm32mp1_atf/../build/opteemin-nand-stm32mp157d-ev1/bl2/stm32mp_common.o
 .bss.boot_action_saved
                0x2fffba60        0x4 /home/dangcaominh/STM32MP1/atf/stm32mp1_atf/../build/opteemin-nand-stm32mp157d-ev1/bl2/stm32mp_common.o
 .bss.boot_ctx_address
                0x2fffba64        0x4 /home/dangcaominh/STM32MP1/atf/stm32mp1_atf/../build/opteemin-nand-stm32mp157d-ev1/bl2/stm32mp_common.o
 .bss.lock      0x2fffba68        0x4 /home/dangcaominh/STM32MP1/atf/stm32mp1_atf/../build/opteemin-nand-stm32mp157d-ev1/bl2/stm32mp_common.o
 .bss.console_clk
                0x2fffba6c        0x4 /home/dangcaominh/STM32MP1/atf/stm32mp1_atf/../build/opteemin-nand-stm32mp157d-ev1/bl2/stm32mp_common.o
 .bss.console   0x2fffba70       0x14 /home/dangcaominh/STM32MP1/atf/stm32mp1_atf/../build/opteemin-nand-stm32mp157d-ev1/bl2/stm32mp_common.o
 .bss.size.1    0x2fffba84        0x4 /home/dangcaominh/STM32MP1/atf/stm32mp1_atf/../build/opteemin-nand-stm32mp157d-ev1/bl2/stm32mp_dt.o
 .bss.fdt       0x2fffba88        0x4 /home/dangcaominh/STM32MP1/atf/stm32mp1_atf/../build/opteemin-nand-stm32mp157d-ev1/bl2/stm32mp_dt.o
 .bss.metadata_block_spec
                0x2fffba8c        0x8 /home/dangcaominh/STM32MP1/atf/stm32mp1_atf/../build/opteemin-nand-stm32mp157d-ev1/bl2/stm32mp_fconf_io.o
 .bss.nb_regions
                0x2fffba94        0x4 /home/dangcaominh/STM32MP1/atf/stm32mp1_atf/../build/opteemin-nand-stm32mp157d-ev1/bl2/stm32mp1_fconf_firewall.o
 .bss.part_number.1
                0x2fffba98        0x4 /home/dangcaominh/STM32MP1/atf/stm32mp1_atf/../build/opteemin-nand-stm32mp157d-ev1/bl2/stm32mp1_private.o
 .bss.pmic_i2c_addr
                0x2fffba9c        0x2 /home/dangcaominh/STM32MP1/atf/stm32mp1_atf/../build/opteemin-nand-stm32mp157d-ev1/bl2/stpmic1.o
 .bss.boot_itf_selected
                0x2fffba9e        0x2 /home/dangcaominh/STM32MP1/atf/stm32mp1_atf/../build/opteemin-nand-stm32mp157d-ev1/bl2/stm32mp_common.o
 .bss.is_metadata_initialized
                0x2fffbaa0        0x1 /home/dangcaominh/STM32MP1/atf/stm32mp1_atf/../build/opteemin-nand-stm32mp157d-ev1/bl2/fwu.o
 .bss.metadata  0x2fffbaa1       0x78 /home/dangcaominh/STM32MP1/atf/stm32mp1_atf/../build/opteemin-nand-stm32mp157d-ev1/bl2/fwu.o
 .bss.scratch_buff.0
                0x2fffbb19     0x1000 /home/dangcaominh/STM32MP1/atf/stm32mp1_atf/../build/opteemin-nand-stm32mp157d-ev1/bl2/core.o
 .bss.ddr_self_refresh
                0x2fffcb19        0x1 /home/dangcaominh/STM32MP1/atf/stm32mp1_atf/../build/opteemin-nand-stm32mp157d-ev1/bl2/stm32mp1_ram.o
 .bss.host_interface_reenable_request
                0x2fffcb1a        0x1 /home/dangcaominh/STM32MP1/atf/stm32mp1_atf/../build/opteemin-nand-stm32mp157d-ev1/bl2/stm32mp_ddr.o
 .bss.axi_port_reenable_request
                0x2fffcb1b        0x1 /home/dangcaominh/STM32MP1/atf/stm32mp1_atf/../build/opteemin-nand-stm32mp157d-ev1/bl2/stm32mp_ddr.o
 .bss.ldo3_special_mode
                0x2fffcb1c        0x1 /home/dangcaominh/STM32MP1/atf/stm32mp1_atf/../build/opteemin-nand-stm32mp157d-ev1/bl2/stpmic1.o
 .bss.initialized.1
                0x2fffcb1d        0x1 /home/dangcaominh/STM32MP1/atf/stm32mp1_atf/../build/opteemin-nand-stm32mp157d-ev1/bl2/stm32mp_common.o
 .bss.initialized.3
                0x2fffcb1e        0x1 /home/dangcaominh/STM32MP1/atf/stm32mp1_atf/../build/opteemin-nand-stm32mp157d-ev1/bl2/stm32mp_common.o
 .bss.initialized.5
                0x2fffcb1f        0x1 /home/dangcaominh/STM32MP1/atf/stm32mp1_atf/../build/opteemin-nand-stm32mp157d-ev1/bl2/stm32mp_common.o
 .bss.initialized.7
                0x2fffcb20        0x1 /home/dangcaominh/STM32MP1/atf/stm32mp1_atf/../build/opteemin-nand-stm32mp157d-ev1/bl2/stm32mp_common.o
 .bss.fconf_stm32mp_uuids
                0x2fffcb21       0x70 /home/dangcaominh/STM32MP1/atf/stm32mp1_atf/../build/opteemin-nand-stm32mp157d-ev1/bl2/stm32mp_fconf_io.o
 *(SORT_BY_ALIGNMENT(COMMON))
                0x2fffcbc0                        . = ALIGN (0x40)
 *fill*         0x2fffcb91       0x2f 
                0x2fffcbc0                        __BAKERY_LOCK_START__ = .
                0x2fffcbc0                        __PERCPU_BAKERY_LOCK_START__ = .
 *(SORT_BY_ALIGNMENT(.bakery_lock))
                0x2fffcbc0                        . = ALIGN (0x40)
                0x2fffcbc0                        __PERCPU_BAKERY_LOCK_END__ = .
                0x00000000                        __PERCPU_BAKERY_LOCK_SIZE__ = ABSOLUTE ((__PERCPU_BAKERY_LOCK_END__ - __PERCPU_BAKERY_LOCK_START__))
                0x2fffcbc0                        . = (. + (__PERCPU_BAKERY_LOCK_SIZE__ * 0x1))
                0x2fffcbc0                        __BAKERY_LOCK_END__ = .
                0x2fffcbc0                        . = ALIGN (0x40)
                0x2fffcbc0                        __PMF_TIMESTAMP_START__ = .
 *(SORT_BY_ALIGNMENT(.pmf_timestamp_array))
                0x2fffcbc0                        . = ALIGN (0x40)
                0x2fffcbc0                        __PMF_PERCPU_TIMESTAMP_END__ = .
                0x00000000                        __PERCPU_TIMESTAMP_SIZE__ = ABSOLUTE ((. - __PMF_TIMESTAMP_START__))
                0x2fffcbc0                        . = (. + (__PERCPU_TIMESTAMP_SIZE__ * 0x1))
                0x2fffcbc0                        __PMF_TIMESTAMP_END__ = .
                0x2fffcbc0                        . = ALIGN (0x10)
                0x2fffcbc0                        __BASE_XLAT_TABLE_START__ = .
 *(SORT_BY_ALIGNMENT(.base_xlat_table))
 .base_xlat_table
                0x2fffcbc0       0x20 /home/dangcaominh/STM32MP1/atf/stm32mp1_atf/../build/opteemin-nand-stm32mp157d-ev1/bl2/xlat_tables_context.o
                0x2fffcbe0                        __BASE_XLAT_TABLE_END__ = .
                0x2fffcbe0                        __BSS_END__ = .

.xlat_table     0x2fffd000     0x2000
                0x2fffd000                        __XLAT_TABLE_START__ = .
 *(SORT_BY_ALIGNMENT(.xlat_table))
 .xlat_table    0x2fffd000     0x2000 /home/dangcaominh/STM32MP1/atf/stm32mp1_atf/../build/opteemin-nand-stm32mp157d-ev1/bl2/xlat_tables_context.o
                0x2ffff000                        __XLAT_TABLE_END__ = .
                0x2ffff000                        __RW_END__ = .
                0x2ffff000                        __BL2_END__ = .

/DISCARD/
 *(SORT_BY_ALIGNMENT(.dynsym) SORT_BY_ALIGNMENT(.dynstr) SORT_BY_ALIGNMENT(.hash) SORT_BY_ALIGNMENT(.gnu.hash))
                0x000019e0                        __BSS_SIZE__ = SIZEOF (.bss)
                0x2ffff000                        RAM_REGION_END = .
                0x00000001                        ASSERT ((. <= 0x2ffff000), BL2 image has exceeded its limit.)
LOAD /home/dangcaominh/STM32MP1/atf/stm32mp1_atf/../build/opteemin-nand-stm32mp157d-ev1/bl2/build_message.o
LOAD /home/dangcaominh/STM32MP1/atf/stm32mp1_atf/../build/opteemin-nand-stm32mp157d-ev1/bl2/bl2_arch_setup.o
LOAD /home/dangcaominh/STM32MP1/atf/stm32mp1_atf/../build/opteemin-nand-stm32mp157d-ev1/bl2/bl2_image_load_v2.o
LOAD /home/dangcaominh/STM32MP1/atf/stm32mp1_atf/../build/opteemin-nand-stm32mp157d-ev1/bl2/bl2_main.o
LOAD /home/dangcaominh/STM32MP1/atf/stm32mp1_atf/../build/opteemin-nand-stm32mp157d-ev1/bl2/bl_common.o
LOAD /home/dangcaominh/STM32MP1/atf/stm32mp1_atf/../build/opteemin-nand-stm32mp157d-ev1/bl2/desc_image_load.o
LOAD /home/dangcaominh/STM32MP1/atf/stm32mp1_atf/../build/opteemin-nand-stm32mp157d-ev1/bl2/fdt_wrappers.o
LOAD /home/dangcaominh/STM32MP1/atf/stm32mp1_atf/../build/opteemin-nand-stm32mp157d-ev1/bl2/tf_log.o
LOAD /home/dangcaominh/STM32MP1/atf/stm32mp1_atf/../build/opteemin-nand-stm32mp157d-ev1/bl2/uuid.o
LOAD /home/dangcaominh/STM32MP1/atf/stm32mp1_atf/../build/opteemin-nand-stm32mp157d-ev1/bl2/tzc400.o
LOAD /home/dangcaominh/STM32MP1/atf/stm32mp1_atf/../build/opteemin-nand-stm32mp157d-ev1/bl2/clk.o
LOAD /home/dangcaominh/STM32MP1/atf/stm32mp1_atf/../build/opteemin-nand-stm32mp157d-ev1/bl2/multi_console.o
LOAD /home/dangcaominh/STM32MP1/atf/stm32mp1_atf/../build/opteemin-nand-stm32mp157d-ev1/bl2/delay_timer.o
LOAD /home/dangcaominh/STM32MP1/atf/stm32mp1_atf/../build/opteemin-nand-stm32mp157d-ev1/bl2/generic_delay_timer.o
LOAD /home/dangcaominh/STM32MP1/atf/stm32mp1_atf/../build/opteemin-nand-stm32mp157d-ev1/bl2/fwu.o
LOAD /home/dangcaominh/STM32MP1/atf/stm32mp1_atf/../build/opteemin-nand-stm32mp157d-ev1/bl2/io_block.o
LOAD /home/dangcaominh/STM32MP1/atf/stm32mp1_atf/../build/opteemin-nand-stm32mp157d-ev1/bl2/io_fip.o
LOAD /home/dangcaominh/STM32MP1/atf/stm32mp1_atf/../build/opteemin-nand-stm32mp157d-ev1/bl2/io_mtd.o
LOAD /home/dangcaominh/STM32MP1/atf/stm32mp1_atf/../build/opteemin-nand-stm32mp157d-ev1/bl2/io_storage.o
LOAD /home/dangcaominh/STM32MP1/atf/stm32mp1_atf/../build/opteemin-nand-stm32mp157d-ev1/bl2/core.o
LOAD /home/dangcaominh/STM32MP1/atf/stm32mp1_atf/../build/opteemin-nand-stm32mp157d-ev1/bl2/raw_nand.o
LOAD /home/dangcaominh/STM32MP1/atf/stm32mp1_atf/../build/opteemin-nand-stm32mp157d-ev1/bl2/bsec2.o
LOAD /home/dangcaominh/STM32MP1/atf/stm32mp1_atf/../build/opteemin-nand-stm32mp157d-ev1/bl2/stm32mp1_clk.o
LOAD /home/dangcaominh/STM32MP1/atf/stm32mp1_atf/../build/opteemin-nand-stm32mp157d-ev1/bl2/stm32mp_clkfunc.o
LOAD /home/dangcaominh/STM32MP1/atf/stm32mp1_atf/../build/opteemin-nand-stm32mp157d-ev1/bl2/stm32_hash.o
LOAD /home/dangcaominh/STM32MP1/atf/stm32mp1_atf/../build/opteemin-nand-stm32mp157d-ev1/bl2/stm32mp1_ddr.o
LOAD /home/dangcaominh/STM32MP1/atf/stm32mp1_atf/../build/opteemin-nand-stm32mp157d-ev1/bl2/stm32mp1_ddr_helpers.o
LOAD /home/dangcaominh/STM32MP1/atf/stm32mp1_atf/../build/opteemin-nand-stm32mp157d-ev1/bl2/stm32mp1_ram.o
LOAD /home/dangcaominh/STM32MP1/atf/stm32mp1_atf/../build/opteemin-nand-stm32mp157d-ev1/bl2/stm32mp_ddr.o
LOAD /home/dangcaominh/STM32MP1/atf/stm32mp1_atf/../build/opteemin-nand-stm32mp157d-ev1/bl2/stm32mp_ddr_test.o
LOAD /home/dangcaominh/STM32MP1/atf/stm32mp1_atf/../build/opteemin-nand-stm32mp157d-ev1/bl2/stm32mp_ram.o
LOAD /home/dangcaominh/STM32MP1/atf/stm32mp1_atf/../build/opteemin-nand-stm32mp157d-ev1/bl2/stm32_fmc2_nand.o
LOAD /home/dangcaominh/STM32MP1/atf/stm32mp1_atf/../build/opteemin-nand-stm32mp157d-ev1/bl2/stm32_gpio.o
LOAD /home/dangcaominh/STM32MP1/atf/stm32mp1_atf/../build/opteemin-nand-stm32mp157d-ev1/bl2/stm32_i2c.o
LOAD /home/dangcaominh/STM32MP1/atf/stm32mp1_atf/../build/opteemin-nand-stm32mp157d-ev1/bl2/stm32_iwdg.o
LOAD /home/dangcaominh/STM32MP1/atf/stm32mp1_atf/../build/opteemin-nand-stm32mp157d-ev1/bl2/nvmem.o
LOAD /home/dangcaominh/STM32MP1/atf/stm32mp1_atf/../build/opteemin-nand-stm32mp157d-ev1/bl2/stm32mp_tamp_nvram_core.o
LOAD /home/dangcaominh/STM32MP1/atf/stm32mp1_atf/../build/opteemin-nand-stm32mp157d-ev1/bl2/stm32mp_tamp_nvram_mp1.o
LOAD /home/dangcaominh/STM32MP1/atf/stm32mp1_atf/../build/opteemin-nand-stm32mp157d-ev1/bl2/stm32mp_pmic.o
LOAD /home/dangcaominh/STM32MP1/atf/stm32mp1_atf/../build/opteemin-nand-stm32mp157d-ev1/bl2/stpmic1.o
LOAD /home/dangcaominh/STM32MP1/atf/stm32mp1_atf/../build/opteemin-nand-stm32mp157d-ev1/bl2/regulator_core.o
LOAD /home/dangcaominh/STM32MP1/atf/stm32mp1_atf/../build/opteemin-nand-stm32mp157d-ev1/bl2/regulator_fixed.o
LOAD /home/dangcaominh/STM32MP1/atf/stm32mp1_atf/../build/opteemin-nand-stm32mp157d-ev1/bl2/regulator_gpio.o
LOAD /home/dangcaominh/STM32MP1/atf/stm32mp1_atf/../build/opteemin-nand-stm32mp157d-ev1/bl2/stm32mp1_reset.o
LOAD /home/dangcaominh/STM32MP1/atf/stm32mp1_atf/../build/opteemin-nand-stm32mp157d-ev1/bl2/ctzdi2.o
LOAD /home/dangcaominh/STM32MP1/atf/stm32mp1_atf/../build/opteemin-nand-stm32mp157d-ev1/bl2/divdi3.o
LOAD /home/dangcaominh/STM32MP1/atf/stm32mp1_atf/../build/opteemin-nand-stm32mp157d-ev1/bl2/divmoddi4.o
LOAD /home/dangcaominh/STM32MP1/atf/stm32mp1_atf/../build/opteemin-nand-stm32mp157d-ev1/bl2/lshrdi3.o
LOAD /home/dangcaominh/STM32MP1/atf/stm32mp1_atf/../build/opteemin-nand-stm32mp157d-ev1/bl2/popcountdi2.o
LOAD /home/dangcaominh/STM32MP1/atf/stm32mp1_atf/../build/opteemin-nand-stm32mp157d-ev1/bl2/popcountsi2.o
LOAD /home/dangcaominh/STM32MP1/atf/stm32mp1_atf/../build/opteemin-nand-stm32mp157d-ev1/bl2/udivmoddi4.o
LOAD /home/dangcaominh/STM32MP1/atf/stm32mp1_atf/../build/opteemin-nand-stm32mp157d-ev1/bl2/pmuv3.o
LOAD /home/dangcaominh/STM32MP1/atf/stm32mp1_atf/../build/opteemin-nand-stm32mp157d-ev1/bl2/fconf.o
LOAD /home/dangcaominh/STM32MP1/atf/stm32mp1_atf/../build/opteemin-nand-stm32mp157d-ev1/bl2/fconf_dyn_cfg_getter.o
LOAD /home/dangcaominh/STM32MP1/atf/stm32mp1_atf/../build/opteemin-nand-stm32mp157d-ev1/bl2/optee_utils.o
LOAD /home/dangcaominh/STM32MP1/atf/stm32mp1_atf/../build/opteemin-nand-stm32mp157d-ev1/bl2/xlat_tables_arch.o
LOAD /home/dangcaominh/STM32MP1/atf/stm32mp1_atf/../build/opteemin-nand-stm32mp157d-ev1/bl2/xlat_tables_context.o
LOAD /home/dangcaominh/STM32MP1/atf/stm32mp1_atf/../build/opteemin-nand-stm32mp157d-ev1/bl2/xlat_tables_core.o
LOAD /home/dangcaominh/STM32MP1/atf/stm32mp1_atf/../build/opteemin-nand-stm32mp157d-ev1/bl2/xlat_tables_utils.o
LOAD /home/dangcaominh/STM32MP1/atf/stm32mp1_atf/../build/opteemin-nand-stm32mp157d-ev1/bl2/adler32.o
LOAD /home/dangcaominh/STM32MP1/atf/stm32mp1_atf/../build/opteemin-nand-stm32mp157d-ev1/bl2/crc32.o
LOAD /home/dangcaominh/STM32MP1/atf/stm32mp1_atf/../build/opteemin-nand-stm32mp157d-ev1/bl2/inffast.o
LOAD /home/dangcaominh/STM32MP1/atf/stm32mp1_atf/../build/opteemin-nand-stm32mp157d-ev1/bl2/inflate.o
LOAD /home/dangcaominh/STM32MP1/atf/stm32mp1_atf/../build/opteemin-nand-stm32mp157d-ev1/bl2/inftrees.o
LOAD /home/dangcaominh/STM32MP1/atf/stm32mp1_atf/../build/opteemin-nand-stm32mp157d-ev1/bl2/tf_gunzip.o
LOAD /home/dangcaominh/STM32MP1/atf/stm32mp1_atf/../build/opteemin-nand-stm32mp157d-ev1/bl2/zutil.o
LOAD /home/dangcaominh/STM32MP1/atf/stm32mp1_atf/../build/opteemin-nand-stm32mp157d-ev1/bl2/plat_common.o
LOAD /home/dangcaominh/STM32MP1/atf/stm32mp1_atf/../build/opteemin-nand-stm32mp157d-ev1/bl2/plat_bl_common.o
LOAD /home/dangcaominh/STM32MP1/atf/stm32mp1_atf/../build/opteemin-nand-stm32mp157d-ev1/bl2/plat_log_common.o
LOAD /home/dangcaominh/STM32MP1/atf/stm32mp1_atf/../build/opteemin-nand-stm32mp157d-ev1/bl2/bl2_io_storage.o
LOAD /home/dangcaominh/STM32MP1/atf/stm32mp1_atf/../build/opteemin-nand-stm32mp157d-ev1/bl2/plat_image_load.o
LOAD /home/dangcaominh/STM32MP1/atf/stm32mp1_atf/../build/opteemin-nand-stm32mp157d-ev1/bl2/stm32mp_common.o
LOAD /home/dangcaominh/STM32MP1/atf/stm32mp1_atf/../build/opteemin-nand-stm32mp157d-ev1/bl2/stm32mp_dt.o
LOAD /home/dangcaominh/STM32MP1/atf/stm32mp1_atf/../build/opteemin-nand-stm32mp157d-ev1/bl2/stm32mp_fconf_fuse.o
LOAD /home/dangcaominh/STM32MP1/atf/stm32mp1_atf/../build/opteemin-nand-stm32mp157d-ev1/bl2/stm32mp_fconf_io.o
LOAD /home/dangcaominh/STM32MP1/atf/stm32mp1_atf/../build/opteemin-nand-stm32mp157d-ev1/bl2/bl2_plat_setup.o
LOAD /home/dangcaominh/STM32MP1/atf/stm32mp1_atf/../build/opteemin-nand-stm32mp157d-ev1/bl2/plat_bl2_mem_params_desc.o
LOAD /home/dangcaominh/STM32MP1/atf/stm32mp1_atf/../build/opteemin-nand-stm32mp157d-ev1/bl2/plat_ddr.o
LOAD /home/dangcaominh/STM32MP1/atf/stm32mp1_atf/../build/opteemin-nand-stm32mp157d-ev1/bl2/stm32mp1_boot_device.o
LOAD /home/dangcaominh/STM32MP1/atf/stm32mp1_atf/../build/opteemin-nand-stm32mp157d-ev1/bl2/stm32mp1_context.o
LOAD /home/dangcaominh/STM32MP1/atf/stm32mp1_atf/../build/opteemin-nand-stm32mp157d-ev1/bl2/stm32mp1_critic_power.o
LOAD /home/dangcaominh/STM32MP1/atf/stm32mp1_atf/../build/opteemin-nand-stm32mp157d-ev1/bl2/stm32mp1_dbgmcu.o
LOAD /home/dangcaominh/STM32MP1/atf/stm32mp1_atf/../build/opteemin-nand-stm32mp157d-ev1/bl2/stm32mp1_fconf_firewall.o
LOAD /home/dangcaominh/STM32MP1/atf/stm32mp1_atf/../build/opteemin-nand-stm32mp157d-ev1/bl2/stm32mp1_private.o
LOAD /home/dangcaominh/STM32MP1/atf/stm32mp1_atf/../build/opteemin-nand-stm32mp157d-ev1/bl2/stm32mp1_syscfg.o
LOAD /home/dangcaominh/STM32MP1/atf/stm32mp1_atf/../build/opteemin-nand-stm32mp157d-ev1/bl2/bl2_el3_entrypoint.o
LOAD /home/dangcaominh/STM32MP1/atf/stm32mp1_atf/../build/opteemin-nand-stm32mp157d-ev1/bl2/bl2_el3_exceptions.o
LOAD /home/dangcaominh/STM32MP1/atf/stm32mp1_atf/../build/opteemin-nand-stm32mp157d-ev1/bl2/bl2_run_next_image.o
LOAD /home/dangcaominh/STM32MP1/atf/stm32mp1_atf/../build/opteemin-nand-stm32mp157d-ev1/bl2/debug.o
LOAD /home/dangcaominh/STM32MP1/atf/stm32mp1_atf/../build/opteemin-nand-stm32mp157d-ev1/bl2/stm32_console.o
LOAD /home/dangcaominh/STM32MP1/atf/stm32mp1_atf/../build/opteemin-nand-stm32mp157d-ev1/bl2/cache_helpers.o
LOAD /home/dangcaominh/STM32MP1/atf/stm32mp1_atf/../build/opteemin-nand-stm32mp157d-ev1/bl2/misc_helpers.o
LOAD /home/dangcaominh/STM32MP1/atf/stm32mp1_atf/../build/opteemin-nand-stm32mp157d-ev1/bl2/aeabi_ldivmod.o
LOAD /home/dangcaominh/STM32MP1/atf/stm32mp1_atf/../build/opteemin-nand-stm32mp157d-ev1/bl2/aeabi_memcpy.o
LOAD /home/dangcaominh/STM32MP1/atf/stm32mp1_atf/../build/opteemin-nand-stm32mp157d-ev1/bl2/aeabi_memset.o
LOAD /home/dangcaominh/STM32MP1/atf/stm32mp1_atf/../build/opteemin-nand-stm32mp157d-ev1/bl2/aeabi_uldivmod.o
LOAD /home/dangcaominh/STM32MP1/atf/stm32mp1_atf/../build/opteemin-nand-stm32mp157d-ev1/bl2/cortex_a7.o
LOAD /home/dangcaominh/STM32MP1/atf/stm32mp1_atf/../build/opteemin-nand-stm32mp157d-ev1/bl2/cpu_helpers.o
LOAD /home/dangcaominh/STM32MP1/atf/stm32mp1_atf/../build/opteemin-nand-stm32mp157d-ev1/bl2/spinlock.o
LOAD /home/dangcaominh/STM32MP1/atf/stm32mp1_atf/../build/opteemin-nand-stm32mp157d-ev1/bl2/enable_mmu.o
LOAD /home/dangcaominh/STM32MP1/atf/stm32mp1_atf/../build/opteemin-nand-stm32mp157d-ev1/bl2/platform_helpers.o
LOAD /home/dangcaominh/STM32MP1/atf/stm32mp1_atf/../build/opteemin-nand-stm32mp157d-ev1/bl2/platform_up_stack.o
LOAD /home/dangcaominh/STM32MP1/atf/stm32mp1_atf/../build/opteemin-nand-stm32mp157d-ev1/bl2/stm32mp1_critic_power_wrapper.o
LOAD /home/dangcaominh/STM32MP1/atf/stm32mp1_atf/../build/opteemin-nand-stm32mp157d-ev1/bl2/stm32mp1_helper.o
LOAD /home/dangcaominh/STM32MP1/atf/stm32mp1_atf/../build/opteemin-nand-stm32mp157d-ev1/lib/libfdt.a
LOAD /home/dangcaominh/STM32MP1/atf/stm32mp1_atf/../build/opteemin-nand-stm32mp157d-ev1/lib/libc.a
OUTPUT(/home/dangcaominh/STM32MP1/atf/stm32mp1_atf/../build/opteemin-nand-stm32mp157d-ev1/bl2/bl2.elf elf32-littlearm)
LOAD linker stubs

.debug_info     0x00000000    0x45276
 .debug_info    0x00000000       0xa6 /home/dangcaominh/STM32MP1/atf/stm32mp1_atf/../build/opteemin-nand-stm32mp157d-ev1/bl2/build_message.o
 .debug_info    0x000000a6       0xc6 /home/dangcaominh/STM32MP1/atf/stm32mp1_atf/../build/opteemin-nand-stm32mp157d-ev1/bl2/bl2_arch_setup.o
 .debug_info    0x0000016c      0x582 /home/dangcaominh/STM32MP1/atf/stm32mp1_atf/../build/opteemin-nand-stm32mp157d-ev1/bl2/bl2_image_load_v2.o
 .debug_info    0x000006ee      0x46a /home/dangcaominh/STM32MP1/atf/stm32mp1_atf/../build/opteemin-nand-stm32mp157d-ev1/bl2/bl2_main.o
 .debug_info    0x00000b58      0x70a /home/dangcaominh/STM32MP1/atf/stm32mp1_atf/../build/opteemin-nand-stm32mp157d-ev1/bl2/bl_common.o
 .debug_info    0x00001262      0x964 /home/dangcaominh/STM32MP1/atf/stm32mp1_atf/../build/opteemin-nand-stm32mp157d-ev1/bl2/desc_image_load.o
 .debug_info    0x00001bc6     0x1b58 /home/dangcaominh/STM32MP1/atf/stm32mp1_atf/../build/opteemin-nand-stm32mp157d-ev1/bl2/fdt_wrappers.o
 .debug_info    0x0000371e      0x2c5 /home/dangcaominh/STM32MP1/atf/stm32mp1_atf/../build/opteemin-nand-stm32mp157d-ev1/bl2/tf_log.o
 .debug_info    0x000039e3      0x653 /home/dangcaominh/STM32MP1/atf/stm32mp1_atf/../build/opteemin-nand-stm32mp157d-ev1/bl2/uuid.o
 .debug_info    0x00004036     0x14c0 /home/dangcaominh/STM32MP1/atf/stm32mp1_atf/../build/opteemin-nand-stm32mp157d-ev1/bl2/tzc400.o
 .debug_info    0x000054f6      0x2f5 /home/dangcaominh/STM32MP1/atf/stm32mp1_atf/../build/opteemin-nand-stm32mp157d-ev1/bl2/clk.o
 .debug_info    0x000057eb      0x513 /home/dangcaominh/STM32MP1/atf/stm32mp1_atf/../build/opteemin-nand-stm32mp157d-ev1/bl2/multi_console.o
 .debug_info    0x00005cfe      0x2d3 /home/dangcaominh/STM32MP1/atf/stm32mp1_atf/../build/opteemin-nand-stm32mp157d-ev1/bl2/delay_timer.o
 .debug_info    0x00005fd1      0x33d /home/dangcaominh/STM32MP1/atf/stm32mp1_atf/../build/opteemin-nand-stm32mp157d-ev1/bl2/generic_delay_timer.o
 .debug_info    0x0000630e      0x79e /home/dangcaominh/STM32MP1/atf/stm32mp1_atf/../build/opteemin-nand-stm32mp157d-ev1/bl2/fwu.o
 .debug_info    0x00006aac     0x12a8 /home/dangcaominh/STM32MP1/atf/stm32mp1_atf/../build/opteemin-nand-stm32mp157d-ev1/bl2/io_fip.o
 .debug_info    0x00007d54      0xdcc /home/dangcaominh/STM32MP1/atf/stm32mp1_atf/../build/opteemin-nand-stm32mp157d-ev1/bl2/io_mtd.o
 .debug_info    0x00008b20     0x1029 /home/dangcaominh/STM32MP1/atf/stm32mp1_atf/../build/opteemin-nand-stm32mp157d-ev1/bl2/io_storage.o
 .debug_info    0x00009b49      0x635 /home/dangcaominh/STM32MP1/atf/stm32mp1_atf/../build/opteemin-nand-stm32mp157d-ev1/bl2/core.o
 .debug_info    0x0000a17e     0x1488 /home/dangcaominh/STM32MP1/atf/stm32mp1_atf/../build/opteemin-nand-stm32mp157d-ev1/bl2/raw_nand.o
 .debug_info    0x0000b606     0x1655 /home/dangcaominh/STM32MP1/atf/stm32mp1_atf/../build/opteemin-nand-stm32mp157d-ev1/bl2/bsec2.o
 .debug_info    0x0000cc5b     0x6232 /home/dangcaominh/STM32MP1/atf/stm32mp1_atf/../build/opteemin-nand-stm32mp157d-ev1/bl2/stm32mp1_clk.o
 .debug_info    0x00012e8d      0xeb4 /home/dangcaominh/STM32MP1/atf/stm32mp1_atf/../build/opteemin-nand-stm32mp157d-ev1/bl2/stm32mp_clkfunc.o
 .debug_info    0x00013d41     0x409e /home/dangcaominh/STM32MP1/atf/stm32mp1_atf/../build/opteemin-nand-stm32mp157d-ev1/bl2/stm32mp1_ddr.o
 .debug_info    0x00017ddf     0x429d /home/dangcaominh/STM32MP1/atf/stm32mp1_atf/../build/opteemin-nand-stm32mp157d-ev1/bl2/stm32mp1_ddr_helpers.o
 .debug_info    0x0001c07c     0x1be7 /home/dangcaominh/STM32MP1/atf/stm32mp1_atf/../build/opteemin-nand-stm32mp157d-ev1/bl2/stm32mp1_ram.o
 .debug_info    0x0001dc63     0x2518 /home/dangcaominh/STM32MP1/atf/stm32mp1_atf/../build/opteemin-nand-stm32mp157d-ev1/bl2/stm32mp_ddr.o
 .debug_info    0x0002017b      0x808 /home/dangcaominh/STM32MP1/atf/stm32mp1_atf/../build/opteemin-nand-stm32mp157d-ev1/bl2/stm32mp_ddr_test.o
 .debug_info    0x00020983      0x3f7 /home/dangcaominh/STM32MP1/atf/stm32mp1_atf/../build/opteemin-nand-stm32mp157d-ev1/bl2/stm32mp_ram.o
 .debug_info    0x00020d7a     0x25bf /home/dangcaominh/STM32MP1/atf/stm32mp1_atf/../build/opteemin-nand-stm32mp157d-ev1/bl2/stm32_fmc2_nand.o
 .debug_info    0x00023339     0x1674 /home/dangcaominh/STM32MP1/atf/stm32mp1_atf/../build/opteemin-nand-stm32mp157d-ev1/bl2/stm32_gpio.o
 .debug_info    0x000249ad     0x31e5 /home/dangcaominh/STM32MP1/atf/stm32mp1_atf/../build/opteemin-nand-stm32mp157d-ev1/bl2/stm32_i2c.o
 .debug_info    0x00027b92      0xa0c /home/dangcaominh/STM32MP1/atf/stm32mp1_atf/../build/opteemin-nand-stm32mp157d-ev1/bl2/stm32_iwdg.o
 .debug_info    0x0002859e      0x7c0 /home/dangcaominh/STM32MP1/atf/stm32mp1_atf/../build/opteemin-nand-stm32mp157d-ev1/bl2/nvmem.o
 .debug_info    0x00028d5e     0x13f0 /home/dangcaominh/STM32MP1/atf/stm32mp1_atf/../build/opteemin-nand-stm32mp157d-ev1/bl2/stm32mp_tamp_nvram_core.o
 .debug_info    0x0002a14e      0x31b /home/dangcaominh/STM32MP1/atf/stm32mp1_atf/../build/opteemin-nand-stm32mp157d-ev1/bl2/stm32mp_tamp_nvram_mp1.o
 .debug_info    0x0002a469     0x13f1 /home/dangcaominh/STM32MP1/atf/stm32mp1_atf/../build/opteemin-nand-stm32mp157d-ev1/bl2/stm32mp_pmic.o
 .debug_info    0x0002b85a     0x1072 /home/dangcaominh/STM32MP1/atf/stm32mp1_atf/../build/opteemin-nand-stm32mp157d-ev1/bl2/stpmic1.o
 .debug_info    0x0002c8cc     0x12e9 /home/dangcaominh/STM32MP1/atf/stm32mp1_atf/../build/opteemin-nand-stm32mp157d-ev1/bl2/regulator_core.o
 .debug_info    0x0002dbb5      0x5fc /home/dangcaominh/STM32MP1/atf/stm32mp1_atf/../build/opteemin-nand-stm32mp157d-ev1/bl2/regulator_fixed.o
 .debug_info    0x0002e1b1      0x751 /home/dangcaominh/STM32MP1/atf/stm32mp1_atf/../build/opteemin-nand-stm32mp157d-ev1/bl2/stm32mp1_reset.o
 .debug_info    0x0002e902      0x171 /home/dangcaominh/STM32MP1/atf/stm32mp1_atf/../build/opteemin-nand-stm32mp157d-ev1/bl2/ctzdi2.o
 .debug_info    0x0002ea73       0xfa /home/dangcaominh/STM32MP1/atf/stm32mp1_atf/../build/opteemin-nand-stm32mp157d-ev1/bl2/popcountsi2.o
 .debug_info    0x0002eb6d      0x20b /home/dangcaominh/STM32MP1/atf/stm32mp1_atf/../build/opteemin-nand-stm32mp157d-ev1/bl2/udivmoddi4.o
 .debug_info    0x0002ed78      0x4fb /home/dangcaominh/STM32MP1/atf/stm32mp1_atf/../build/opteemin-nand-stm32mp157d-ev1/bl2/fconf.o
 .debug_info    0x0002f273      0x8af /home/dangcaominh/STM32MP1/atf/stm32mp1_atf/../build/opteemin-nand-stm32mp157d-ev1/bl2/fconf_dyn_cfg_getter.o
 .debug_info    0x0002fb22      0x649 /home/dangcaominh/STM32MP1/atf/stm32mp1_atf/../build/opteemin-nand-stm32mp157d-ev1/bl2/optee_utils.o
 .debug_info    0x0003016b      0x948 /home/dangcaominh/STM32MP1/atf/stm32mp1_atf/../build/opteemin-nand-stm32mp157d-ev1/bl2/xlat_tables_arch.o
 .debug_info    0x00030ab3      0xa92 /home/dangcaominh/STM32MP1/atf/stm32mp1_atf/../build/opteemin-nand-stm32mp157d-ev1/bl2/xlat_tables_context.o
 .debug_info    0x00031545     0x1872 /home/dangcaominh/STM32MP1/atf/stm32mp1_atf/../build/opteemin-nand-stm32mp157d-ev1/bl2/xlat_tables_core.o
 .debug_info    0x00032db7      0x9d9 /home/dangcaominh/STM32MP1/atf/stm32mp1_atf/../build/opteemin-nand-stm32mp157d-ev1/bl2/xlat_tables_utils.o
 .debug_info    0x00033790      0x504 /home/dangcaominh/STM32MP1/atf/stm32mp1_atf/../build/opteemin-nand-stm32mp157d-ev1/bl2/crc32.o
 .debug_info    0x00033c94      0x5e2 /home/dangcaominh/STM32MP1/atf/stm32mp1_atf/../build/opteemin-nand-stm32mp157d-ev1/bl2/tf_gunzip.o
 .debug_info    0x00034276      0x4bc /home/dangcaominh/STM32MP1/atf/stm32mp1_atf/../build/opteemin-nand-stm32mp157d-ev1/bl2/plat_bl_common.o
 .debug_info    0x00034732      0x163 /home/dangcaominh/STM32MP1/atf/stm32mp1_atf/../build/opteemin-nand-stm32mp157d-ev1/bl2/plat_log_common.o
 .debug_info    0x00034895     0x16e2 /home/dangcaominh/STM32MP1/atf/stm32mp1_atf/../build/opteemin-nand-stm32mp157d-ev1/bl2/bl2_io_storage.o
 .debug_info    0x00035f77      0x3f5 /home/dangcaominh/STM32MP1/atf/stm32mp1_atf/../build/opteemin-nand-stm32mp157d-ev1/bl2/plat_image_load.o
 .debug_info    0x0003636c     0x1f18 /home/dangcaominh/STM32MP1/atf/stm32mp1_atf/../build/opteemin-nand-stm32mp157d-ev1/bl2/stm32mp_common.o
 .debug_info    0x00038284     0x13ae /home/dangcaominh/STM32MP1/atf/stm32mp1_atf/../build/opteemin-nand-stm32mp157d-ev1/bl2/stm32mp_dt.o
 .debug_info    0x00039632      0x66e /home/dangcaominh/STM32MP1/atf/stm32mp1_atf/../build/opteemin-nand-stm32mp157d-ev1/bl2/stm32mp_fconf_fuse.o
 .debug_info    0x00039ca0      0x7a6 /home/dangcaominh/STM32MP1/atf/stm32mp1_atf/../build/opteemin-nand-stm32mp157d-ev1/bl2/stm32mp_fconf_io.o
 .debug_info    0x0003a446     0x1d2d /home/dangcaominh/STM32MP1/atf/stm32mp1_atf/../build/opteemin-nand-stm32mp157d-ev1/bl2/bl2_plat_setup.o
 .debug_info    0x0003c173      0x3be /home/dangcaominh/STM32MP1/atf/stm32mp1_atf/../build/opteemin-nand-stm32mp157d-ev1/bl2/plat_bl2_mem_params_desc.o
 .debug_info    0x0003c531      0x6cb /home/dangcaominh/STM32MP1/atf/stm32mp1_atf/../build/opteemin-nand-stm32mp157d-ev1/bl2/plat_ddr.o
 .debug_info    0x0003cbfc      0x3f2 /home/dangcaominh/STM32MP1/atf/stm32mp1_atf/../build/opteemin-nand-stm32mp157d-ev1/bl2/stm32mp1_boot_device.o
 .debug_info    0x0003cfee      0x6b0 /home/dangcaominh/STM32MP1/atf/stm32mp1_atf/../build/opteemin-nand-stm32mp157d-ev1/bl2/stm32mp1_context.o
 .debug_info    0x0003d69e      0x39a /home/dangcaominh/STM32MP1/atf/stm32mp1_atf/../build/opteemin-nand-stm32mp157d-ev1/bl2/stm32mp1_critic_power.o
 .debug_info    0x0003da38      0x31f /home/dangcaominh/STM32MP1/atf/stm32mp1_atf/../build/opteemin-nand-stm32mp157d-ev1/bl2/stm32mp1_dbgmcu.o
 .debug_info    0x0003dd57      0x67c /home/dangcaominh/STM32MP1/atf/stm32mp1_atf/../build/opteemin-nand-stm32mp157d-ev1/bl2/stm32mp1_fconf_firewall.o
 .debug_info    0x0003e3d3      0xcec /home/dangcaominh/STM32MP1/atf/stm32mp1_atf/../build/opteemin-nand-stm32mp157d-ev1/bl2/stm32mp1_private.o
 .debug_info    0x0003f0bf      0xb0b /home/dangcaominh/STM32MP1/atf/stm32mp1_atf/../build/opteemin-nand-stm32mp157d-ev1/bl2/stm32mp1_syscfg.o
 .debug_info    0x0003fbca       0x32 /home/dangcaominh/STM32MP1/atf/stm32mp1_atf/../build/opteemin-nand-stm32mp157d-ev1/bl2/bl2_el3_entrypoint.o
 .debug_info    0x0003fbfc       0x23 /home/dangcaominh/STM32MP1/atf/stm32mp1_atf/../build/opteemin-nand-stm32mp157d-ev1/bl2/bl2_el3_exceptions.o
 .debug_info    0x0003fc1f       0x30 /home/dangcaominh/STM32MP1/atf/stm32mp1_atf/../build/opteemin-nand-stm32mp157d-ev1/bl2/bl2_run_next_image.o
 .debug_info    0x0003fc4f       0x71 /home/dangcaominh/STM32MP1/atf/stm32mp1_atf/../build/opteemin-nand-stm32mp157d-ev1/bl2/debug.o
 .debug_info    0x0003fcc0       0x72 /home/dangcaominh/STM32MP1/atf/stm32mp1_atf/../build/opteemin-nand-stm32mp157d-ev1/bl2/stm32_console.o
 .debug_info    0x0003fd32       0x9a /home/dangcaominh/STM32MP1/atf/stm32mp1_atf/../build/opteemin-nand-stm32mp157d-ev1/bl2/cache_helpers.o
 .debug_info    0x0003fdcc       0x72 /home/dangcaominh/STM32MP1/atf/stm32mp1_atf/../build/opteemin-nand-stm32mp157d-ev1/bl2/misc_helpers.o
 .debug_info    0x0003fe3e       0x30 /home/dangcaominh/STM32MP1/atf/stm32mp1_atf/../build/opteemin-nand-stm32mp157d-ev1/bl2/aeabi_uldivmod.o
 .debug_info    0x0003fe6e       0x5b /home/dangcaominh/STM32MP1/atf/stm32mp1_atf/../build/opteemin-nand-stm32mp157d-ev1/bl2/cortex_a7.o
 .debug_info    0x0003fec9       0x5b /home/dangcaominh/STM32MP1/atf/stm32mp1_atf/../build/opteemin-nand-stm32mp157d-ev1/bl2/cpu_helpers.o
 .debug_info    0x0003ff24       0x3a /home/dangcaominh/STM32MP1/atf/stm32mp1_atf/../build/opteemin-nand-stm32mp157d-ev1/bl2/spinlock.o
 .debug_info    0x0003ff5e       0x3a /home/dangcaominh/STM32MP1/atf/stm32mp1_atf/../build/opteemin-nand-stm32mp157d-ev1/bl2/enable_mmu.o
 .debug_info    0x0003ff98       0x3a /home/dangcaominh/STM32MP1/atf/stm32mp1_atf/../build/opteemin-nand-stm32mp157d-ev1/bl2/platform_up_stack.o
 .debug_info    0x0003ffd2       0x31 /home/dangcaominh/STM32MP1/atf/stm32mp1_atf/../build/opteemin-nand-stm32mp157d-ev1/bl2/stm32mp1_critic_power_wrapper.o
 .debug_info    0x00040003       0xdb /home/dangcaominh/STM32MP1/atf/stm32mp1_atf/../build/opteemin-nand-stm32mp157d-ev1/bl2/stm32mp1_helper.o
 .debug_info    0x000400de      0xdb0 /home/dangcaominh/STM32MP1/atf/stm32mp1_atf/../build/opteemin-nand-stm32mp157d-ev1/lib/libfdt.a(fdt.o)
 .debug_info    0x00040e8e      0x5ba /home/dangcaominh/STM32MP1/atf/stm32mp1_atf/../build/opteemin-nand-stm32mp157d-ev1/lib/libfdt.a(fdt_addresses.o)
 .debug_info    0x00041448     0x274c /home/dangcaominh/STM32MP1/atf/stm32mp1_atf/../build/opteemin-nand-stm32mp157d-ev1/lib/libfdt.a(fdt_ro.o)
 .debug_info    0x00043b94      0x158 /home/dangcaominh/STM32MP1/atf/stm32mp1_atf/../build/opteemin-nand-stm32mp157d-ev1/lib/libc.a(assert.o)
 .debug_info    0x00043cec       0xd0 /home/dangcaominh/STM32MP1/atf/stm32mp1_atf/../build/opteemin-nand-stm32mp157d-ev1/lib/libc.a(memchr.o)
 .debug_info    0x00043dbc      0x106 /home/dangcaominh/STM32MP1/atf/stm32mp1_atf/../build/opteemin-nand-stm32mp157d-ev1/lib/libc.a(memcmp.o)
 .debug_info    0x00043ec2       0xdd /home/dangcaominh/STM32MP1/atf/stm32mp1_atf/../build/opteemin-nand-stm32mp157d-ev1/lib/libc.a(memcpy.o)
 .debug_info    0x00043f9f      0x152 /home/dangcaominh/STM32MP1/atf/stm32mp1_atf/../build/opteemin-nand-stm32mp157d-ev1/lib/libc.a(memmove.o)
 .debug_info    0x000440f1      0x137 /home/dangcaominh/STM32MP1/atf/stm32mp1_atf/../build/opteemin-nand-stm32mp157d-ev1/lib/libc.a(memset.o)
 .debug_info    0x00044228      0x6aa /home/dangcaominh/STM32MP1/atf/stm32mp1_atf/../build/opteemin-nand-stm32mp157d-ev1/lib/libc.a(printf.o)
 .debug_info    0x000448d2      0x4ad /home/dangcaominh/STM32MP1/atf/stm32mp1_atf/../build/opteemin-nand-stm32mp157d-ev1/lib/libc.a(snprintf.o)
 .debug_info    0x00044d7f       0xac /home/dangcaominh/STM32MP1/atf/stm32mp1_atf/../build/opteemin-nand-stm32mp157d-ev1/lib/libc.a(strchr.o)
 .debug_info    0x00044e2b       0x8e /home/dangcaominh/STM32MP1/atf/stm32mp1_atf/../build/opteemin-nand-stm32mp157d-ev1/lib/libc.a(strcmp.o)
 .debug_info    0x00044eb9      0x10f /home/dangcaominh/STM32MP1/atf/stm32mp1_atf/../build/opteemin-nand-stm32mp157d-ev1/lib/libc.a(strlcpy.o)
 .debug_info    0x00044fc8       0x9a /home/dangcaominh/STM32MP1/atf/stm32mp1_atf/../build/opteemin-nand-stm32mp157d-ev1/lib/libc.a(strlen.o)
 .debug_info    0x00045062       0xb3 /home/dangcaominh/STM32MP1/atf/stm32mp1_atf/../build/opteemin-nand-stm32mp157d-ev1/lib/libc.a(strncmp.o)
 .debug_info    0x00045115       0xa1 /home/dangcaominh/STM32MP1/atf/stm32mp1_atf/../build/opteemin-nand-stm32mp157d-ev1/lib/libc.a(strnlen.o)
 .debug_info    0x000451b6       0xc0 /home/dangcaominh/STM32MP1/atf/stm32mp1_atf/../build/opteemin-nand-stm32mp157d-ev1/lib/libc.a(strrchr.o)

.debug_abbrev   0x00000000     0xd77d
 .debug_abbrev  0x00000000       0x47 /home/dangcaominh/STM32MP1/atf/stm32mp1_atf/../build/opteemin-nand-stm32mp157d-ev1/bl2/build_message.o
 .debug_abbrev  0x00000047       0x69 /home/dangcaominh/STM32MP1/atf/stm32mp1_atf/../build/opteemin-nand-stm32mp157d-ev1/bl2/bl2_arch_setup.o
 .debug_abbrev  0x000000b0      0x184 /home/dangcaominh/STM32MP1/atf/stm32mp1_atf/../build/opteemin-nand-stm32mp157d-ev1/bl2/bl2_image_load_v2.o
 .debug_abbrev  0x00000234      0x1ca /home/dangcaominh/STM32MP1/atf/stm32mp1_atf/../build/opteemin-nand-stm32mp157d-ev1/bl2/bl2_main.o
 .debug_abbrev  0x000003fe      0x269 /home/dangcaominh/STM32MP1/atf/stm32mp1_atf/../build/opteemin-nand-stm32mp157d-ev1/bl2/bl_common.o
 .debug_abbrev  0x00000667      0x2be /home/dangcaominh/STM32MP1/atf/stm32mp1_atf/../build/opteemin-nand-stm32mp157d-ev1/bl2/desc_image_load.o
 .debug_abbrev  0x00000925      0x3d6 /home/dangcaominh/STM32MP1/atf/stm32mp1_atf/../build/opteemin-nand-stm32mp157d-ev1/bl2/fdt_wrappers.o
 .debug_abbrev  0x00000cfb      0x191 /home/dangcaominh/STM32MP1/atf/stm32mp1_atf/../build/opteemin-nand-stm32mp157d-ev1/bl2/tf_log.o
 .debug_abbrev  0x00000e8c      0x237 /home/dangcaominh/STM32MP1/atf/stm32mp1_atf/../build/opteemin-nand-stm32mp157d-ev1/bl2/uuid.o
 .debug_abbrev  0x000010c3      0x2d4 /home/dangcaominh/STM32MP1/atf/stm32mp1_atf/../build/opteemin-nand-stm32mp157d-ev1/bl2/tzc400.o
 .debug_abbrev  0x00001397      0x148 /home/dangcaominh/STM32MP1/atf/stm32mp1_atf/../build/opteemin-nand-stm32mp157d-ev1/bl2/clk.o
 .debug_abbrev  0x000014df      0x27a /home/dangcaominh/STM32MP1/atf/stm32mp1_atf/../build/opteemin-nand-stm32mp157d-ev1/bl2/multi_console.o
 .debug_abbrev  0x00001759      0x177 /home/dangcaominh/STM32MP1/atf/stm32mp1_atf/../build/opteemin-nand-stm32mp157d-ev1/bl2/delay_timer.o
 .debug_abbrev  0x000018d0      0x267 /home/dangcaominh/STM32MP1/atf/stm32mp1_atf/../build/opteemin-nand-stm32mp157d-ev1/bl2/generic_delay_timer.o
 .debug_abbrev  0x00001b37      0x2db /home/dangcaominh/STM32MP1/atf/stm32mp1_atf/../build/opteemin-nand-stm32mp157d-ev1/bl2/fwu.o
 .debug_abbrev  0x00001e12      0x3b7 /home/dangcaominh/STM32MP1/atf/stm32mp1_atf/../build/opteemin-nand-stm32mp157d-ev1/bl2/io_fip.o
 .debug_abbrev  0x000021c9      0x33a /home/dangcaominh/STM32MP1/atf/stm32mp1_atf/../build/opteemin-nand-stm32mp157d-ev1/bl2/io_mtd.o
 .debug_abbrev  0x00002503      0x34a /home/dangcaominh/STM32MP1/atf/stm32mp1_atf/../build/opteemin-nand-stm32mp157d-ev1/bl2/io_storage.o
 .debug_abbrev  0x0000284d      0x27f /home/dangcaominh/STM32MP1/atf/stm32mp1_atf/../build/opteemin-nand-stm32mp157d-ev1/bl2/core.o
 .debug_abbrev  0x00002acc      0x486 /home/dangcaominh/STM32MP1/atf/stm32mp1_atf/../build/opteemin-nand-stm32mp157d-ev1/bl2/raw_nand.o
 .debug_abbrev  0x00002f52      0x42f /home/dangcaominh/STM32MP1/atf/stm32mp1_atf/../build/opteemin-nand-stm32mp157d-ev1/bl2/bsec2.o
 .debug_abbrev  0x00003381      0x637 /home/dangcaominh/STM32MP1/atf/stm32mp1_atf/../build/opteemin-nand-stm32mp157d-ev1/bl2/stm32mp1_clk.o
 .debug_abbrev  0x000039b8      0x317 /home/dangcaominh/STM32MP1/atf/stm32mp1_atf/../build/opteemin-nand-stm32mp157d-ev1/bl2/stm32mp_clkfunc.o
 .debug_abbrev  0x00003ccf      0x425 /home/dangcaominh/STM32MP1/atf/stm32mp1_atf/../build/opteemin-nand-stm32mp157d-ev1/bl2/stm32mp1_ddr.o
 .debug_abbrev  0x000040f4      0x381 /home/dangcaominh/STM32MP1/atf/stm32mp1_atf/../build/opteemin-nand-stm32mp157d-ev1/bl2/stm32mp1_ddr_helpers.o
 .debug_abbrev  0x00004475      0x317 /home/dangcaominh/STM32MP1/atf/stm32mp1_atf/../build/opteemin-nand-stm32mp157d-ev1/bl2/stm32mp1_ram.o
 .debug_abbrev  0x0000478c      0x3a2 /home/dangcaominh/STM32MP1/atf/stm32mp1_atf/../build/opteemin-nand-stm32mp157d-ev1/bl2/stm32mp_ddr.o
 .debug_abbrev  0x00004b2e      0x168 /home/dangcaominh/STM32MP1/atf/stm32mp1_atf/../build/opteemin-nand-stm32mp157d-ev1/bl2/stm32mp_ddr_test.o
 .debug_abbrev  0x00004c96      0x19d /home/dangcaominh/STM32MP1/atf/stm32mp1_atf/../build/opteemin-nand-stm32mp157d-ev1/bl2/stm32mp_ram.o
 .debug_abbrev  0x00004e33      0x559 /home/dangcaominh/STM32MP1/atf/stm32mp1_atf/../build/opteemin-nand-stm32mp157d-ev1/bl2/stm32_fmc2_nand.o
 .debug_abbrev  0x0000538c      0x402 /home/dangcaominh/STM32MP1/atf/stm32mp1_atf/../build/opteemin-nand-stm32mp157d-ev1/bl2/stm32_gpio.o
 .debug_abbrev  0x0000578e      0x41b /home/dangcaominh/STM32MP1/atf/stm32mp1_atf/../build/opteemin-nand-stm32mp157d-ev1/bl2/stm32_i2c.o
 .debug_abbrev  0x00005ba9      0x324 /home/dangcaominh/STM32MP1/atf/stm32mp1_atf/../build/opteemin-nand-stm32mp157d-ev1/bl2/stm32_iwdg.o
 .debug_abbrev  0x00005ecd      0x260 /home/dangcaominh/STM32MP1/atf/stm32mp1_atf/../build/opteemin-nand-stm32mp157d-ev1/bl2/nvmem.o
 .debug_abbrev  0x0000612d      0x462 /home/dangcaominh/STM32MP1/atf/stm32mp1_atf/../build/opteemin-nand-stm32mp157d-ev1/bl2/stm32mp_tamp_nvram_core.o
 .debug_abbrev  0x0000658f      0x10e /home/dangcaominh/STM32MP1/atf/stm32mp1_atf/../build/opteemin-nand-stm32mp157d-ev1/bl2/stm32mp_tamp_nvram_mp1.o
 .debug_abbrev  0x0000669d      0x4bb /home/dangcaominh/STM32MP1/atf/stm32mp1_atf/../build/opteemin-nand-stm32mp157d-ev1/bl2/stm32mp_pmic.o
 .debug_abbrev  0x00006b58      0x2aa /home/dangcaominh/STM32MP1/atf/stm32mp1_atf/../build/opteemin-nand-stm32mp157d-ev1/bl2/stpmic1.o
 .debug_abbrev  0x00006e02      0x496 /home/dangcaominh/STM32MP1/atf/stm32mp1_atf/../build/opteemin-nand-stm32mp157d-ev1/bl2/regulator_core.o
 .debug_abbrev  0x00007298      0x23f /home/dangcaominh/STM32MP1/atf/stm32mp1_atf/../build/opteemin-nand-stm32mp157d-ev1/bl2/regulator_fixed.o
 .debug_abbrev  0x000074d7      0x1d1 /home/dangcaominh/STM32MP1/atf/stm32mp1_atf/../build/opteemin-nand-stm32mp157d-ev1/bl2/stm32mp1_reset.o
 .debug_abbrev  0x000076a8       0xe2 /home/dangcaominh/STM32MP1/atf/stm32mp1_atf/../build/opteemin-nand-stm32mp157d-ev1/bl2/ctzdi2.o
 .debug_abbrev  0x0000778a       0x7d /home/dangcaominh/STM32MP1/atf/stm32mp1_atf/../build/opteemin-nand-stm32mp157d-ev1/bl2/popcountsi2.o
 .debug_abbrev  0x00007807      0x119 /home/dangcaominh/STM32MP1/atf/stm32mp1_atf/../build/opteemin-nand-stm32mp157d-ev1/bl2/udivmoddi4.o
 .debug_abbrev  0x00007920      0x22b /home/dangcaominh/STM32MP1/atf/stm32mp1_atf/../build/opteemin-nand-stm32mp157d-ev1/bl2/fconf.o
 .debug_abbrev  0x00007b4b      0x278 /home/dangcaominh/STM32MP1/atf/stm32mp1_atf/../build/opteemin-nand-stm32mp157d-ev1/bl2/fconf_dyn_cfg_getter.o
 .debug_abbrev  0x00007dc3      0x1d5 /home/dangcaominh/STM32MP1/atf/stm32mp1_atf/../build/opteemin-nand-stm32mp157d-ev1/bl2/optee_utils.o
 .debug_abbrev  0x00007f98      0x301 /home/dangcaominh/STM32MP1/atf/stm32mp1_atf/../build/opteemin-nand-stm32mp157d-ev1/bl2/xlat_tables_arch.o
 .debug_abbrev  0x00008299      0x2a5 /home/dangcaominh/STM32MP1/atf/stm32mp1_atf/../build/opteemin-nand-stm32mp157d-ev1/bl2/xlat_tables_context.o
 .debug_abbrev  0x0000853e      0x4c1 /home/dangcaominh/STM32MP1/atf/stm32mp1_atf/../build/opteemin-nand-stm32mp157d-ev1/bl2/xlat_tables_core.o
 .debug_abbrev  0x000089ff      0x2db /home/dangcaominh/STM32MP1/atf/stm32mp1_atf/../build/opteemin-nand-stm32mp157d-ev1/bl2/xlat_tables_utils.o
 .debug_abbrev  0x00008cda      0x1cb /home/dangcaominh/STM32MP1/atf/stm32mp1_atf/../build/opteemin-nand-stm32mp157d-ev1/bl2/crc32.o
 .debug_abbrev  0x00008ea5      0x214 /home/dangcaominh/STM32MP1/atf/stm32mp1_atf/../build/opteemin-nand-stm32mp157d-ev1/bl2/tf_gunzip.o
 .debug_abbrev  0x000090b9      0x2b3 /home/dangcaominh/STM32MP1/atf/stm32mp1_atf/../build/opteemin-nand-stm32mp157d-ev1/bl2/plat_bl_common.o
 .debug_abbrev  0x0000936c       0xdd /home/dangcaominh/STM32MP1/atf/stm32mp1_atf/../build/opteemin-nand-stm32mp157d-ev1/bl2/plat_log_common.o
 .debug_abbrev  0x00009449      0x441 /home/dangcaominh/STM32MP1/atf/stm32mp1_atf/../build/opteemin-nand-stm32mp157d-ev1/bl2/bl2_io_storage.o
 .debug_abbrev  0x0000988a      0x14b /home/dangcaominh/STM32MP1/atf/stm32mp1_atf/../build/opteemin-nand-stm32mp157d-ev1/bl2/plat_image_load.o
 .debug_abbrev  0x000099d5      0x556 /home/dangcaominh/STM32MP1/atf/stm32mp1_atf/../build/opteemin-nand-stm32mp157d-ev1/bl2/stm32mp_common.o
 .debug_abbrev  0x00009f2b      0x338 /home/dangcaominh/STM32MP1/atf/stm32mp1_atf/../build/opteemin-nand-stm32mp157d-ev1/bl2/stm32mp_dt.o
 .debug_abbrev  0x0000a263      0x24c /home/dangcaominh/STM32MP1/atf/stm32mp1_atf/../build/opteemin-nand-stm32mp157d-ev1/bl2/stm32mp_fconf_fuse.o
 .debug_abbrev  0x0000a4af      0x2b2 /home/dangcaominh/STM32MP1/atf/stm32mp1_atf/../build/opteemin-nand-stm32mp157d-ev1/bl2/stm32mp_fconf_io.o
 .debug_abbrev  0x0000a761      0x4a5 /home/dangcaominh/STM32MP1/atf/stm32mp1_atf/../build/opteemin-nand-stm32mp157d-ev1/bl2/bl2_plat_setup.o
 .debug_abbrev  0x0000ac06       0xea /home/dangcaominh/STM32MP1/atf/stm32mp1_atf/../build/opteemin-nand-stm32mp157d-ev1/bl2/plat_bl2_mem_params_desc.o
 .debug_abbrev  0x0000acf0      0x235 /home/dangcaominh/STM32MP1/atf/stm32mp1_atf/../build/opteemin-nand-stm32mp157d-ev1/bl2/plat_ddr.o
 .debug_abbrev  0x0000af25      0x1b6 /home/dangcaominh/STM32MP1/atf/stm32mp1_atf/../build/opteemin-nand-stm32mp157d-ev1/bl2/stm32mp1_boot_device.o
 .debug_abbrev  0x0000b0db      0x270 /home/dangcaominh/STM32MP1/atf/stm32mp1_atf/../build/opteemin-nand-stm32mp157d-ev1/bl2/stm32mp1_context.o
 .debug_abbrev  0x0000b34b      0x1f9 /home/dangcaominh/STM32MP1/atf/stm32mp1_atf/../build/opteemin-nand-stm32mp157d-ev1/bl2/stm32mp1_critic_power.o
 .debug_abbrev  0x0000b544      0x1ca /home/dangcaominh/STM32MP1/atf/stm32mp1_atf/../build/opteemin-nand-stm32mp157d-ev1/bl2/stm32mp1_dbgmcu.o
 .debug_abbrev  0x0000b70e      0x253 /home/dangcaominh/STM32MP1/atf/stm32mp1_atf/../build/opteemin-nand-stm32mp157d-ev1/bl2/stm32mp1_fconf_firewall.o
 .debug_abbrev  0x0000b961      0x3d5 /home/dangcaominh/STM32MP1/atf/stm32mp1_atf/../build/opteemin-nand-stm32mp157d-ev1/bl2/stm32mp1_private.o
 .debug_abbrev  0x0000bd36      0x2c0 /home/dangcaominh/STM32MP1/atf/stm32mp1_atf/../build/opteemin-nand-stm32mp157d-ev1/bl2/stm32mp1_syscfg.o
 .debug_abbrev  0x0000bff6       0x28 /home/dangcaominh/STM32MP1/atf/stm32mp1_atf/../build/opteemin-nand-stm32mp157d-ev1/bl2/bl2_el3_entrypoint.o
 .debug_abbrev  0x0000c01e       0x14 /home/dangcaominh/STM32MP1/atf/stm32mp1_atf/../build/opteemin-nand-stm32mp157d-ev1/bl2/bl2_el3_exceptions.o
 .debug_abbrev  0x0000c032       0x28 /home/dangcaominh/STM32MP1/atf/stm32mp1_atf/../build/opteemin-nand-stm32mp157d-ev1/bl2/bl2_run_next_image.o
 .debug_abbrev  0x0000c05a       0x26 /home/dangcaominh/STM32MP1/atf/stm32mp1_atf/../build/opteemin-nand-stm32mp157d-ev1/bl2/debug.o
 .debug_abbrev  0x0000c080       0x26 /home/dangcaominh/STM32MP1/atf/stm32mp1_atf/../build/opteemin-nand-stm32mp157d-ev1/bl2/stm32_console.o
 .debug_abbrev  0x0000c0a6       0x26 /home/dangcaominh/STM32MP1/atf/stm32mp1_atf/../build/opteemin-nand-stm32mp157d-ev1/bl2/cache_helpers.o
 .debug_abbrev  0x0000c0cc       0x26 /home/dangcaominh/STM32MP1/atf/stm32mp1_atf/../build/opteemin-nand-stm32mp157d-ev1/bl2/misc_helpers.o
 .debug_abbrev  0x0000c0f2       0x28 /home/dangcaominh/STM32MP1/atf/stm32mp1_atf/../build/opteemin-nand-stm32mp157d-ev1/bl2/aeabi_uldivmod.o
 .debug_abbrev  0x0000c11a       0x24 /home/dangcaominh/STM32MP1/atf/stm32mp1_atf/../build/opteemin-nand-stm32mp157d-ev1/bl2/cortex_a7.o
 .debug_abbrev  0x0000c13e       0x26 /home/dangcaominh/STM32MP1/atf/stm32mp1_atf/../build/opteemin-nand-stm32mp157d-ev1/bl2/cpu_helpers.o
 .debug_abbrev  0x0000c164       0x26 /home/dangcaominh/STM32MP1/atf/stm32mp1_atf/../build/opteemin-nand-stm32mp157d-ev1/bl2/spinlock.o
 .debug_abbrev  0x0000c18a       0x26 /home/dangcaominh/STM32MP1/atf/stm32mp1_atf/../build/opteemin-nand-stm32mp157d-ev1/bl2/enable_mmu.o
 .debug_abbrev  0x0000c1b0       0x24 /home/dangcaominh/STM32MP1/atf/stm32mp1_atf/../build/opteemin-nand-stm32mp157d-ev1/bl2/platform_up_stack.o
 .debug_abbrev  0x0000c1d4       0x28 /home/dangcaominh/STM32MP1/atf/stm32mp1_atf/../build/opteemin-nand-stm32mp157d-ev1/bl2/stm32mp1_critic_power_wrapper.o
 .debug_abbrev  0x0000c1fc       0x26 /home/dangcaominh/STM32MP1/atf/stm32mp1_atf/../build/opteemin-nand-stm32mp157d-ev1/bl2/stm32mp1_helper.o
 .debug_abbrev  0x0000c222      0x2e7 /home/dangcaominh/STM32MP1/atf/stm32mp1_atf/../build/opteemin-nand-stm32mp157d-ev1/lib/libfdt.a(fdt.o)
 .debug_abbrev  0x0000c509      0x1d8 /home/dangcaominh/STM32MP1/atf/stm32mp1_atf/../build/opteemin-nand-stm32mp157d-ev1/lib/libfdt.a(fdt_addresses.o)
 .debug_abbrev  0x0000c6e1      0x399 /home/dangcaominh/STM32MP1/atf/stm32mp1_atf/../build/opteemin-nand-stm32mp157d-ev1/lib/libfdt.a(fdt_ro.o)
 .debug_abbrev  0x0000ca7a       0xf9 /home/dangcaominh/STM32MP1/atf/stm32mp1_atf/../build/opteemin-nand-stm32mp157d-ev1/lib/libc.a(assert.o)
 .debug_abbrev  0x0000cb73       0x9b /home/dangcaominh/STM32MP1/atf/stm32mp1_atf/../build/opteemin-nand-stm32mp157d-ev1/lib/libc.a(memchr.o)
 .debug_abbrev  0x0000cc0e       0x94 /home/dangcaominh/STM32MP1/atf/stm32mp1_atf/../build/opteemin-nand-stm32mp157d-ev1/lib/libc.a(memcmp.o)
 .debug_abbrev  0x0000cca2       0xa1 /home/dangcaominh/STM32MP1/atf/stm32mp1_atf/../build/opteemin-nand-stm32mp157d-ev1/lib/libc.a(memcpy.o)
 .debug_abbrev  0x0000cd43       0xd1 /home/dangcaominh/STM32MP1/atf/stm32mp1_atf/../build/opteemin-nand-stm32mp157d-ev1/lib/libc.a(memmove.o)
 .debug_abbrev  0x0000ce14       0xc8 /home/dangcaominh/STM32MP1/atf/stm32mp1_atf/../build/opteemin-nand-stm32mp157d-ev1/lib/libc.a(memset.o)
 .debug_abbrev  0x0000cedc      0x273 /home/dangcaominh/STM32MP1/atf/stm32mp1_atf/../build/opteemin-nand-stm32mp157d-ev1/lib/libc.a(printf.o)
 .debug_abbrev  0x0000d14f      0x277 /home/dangcaominh/STM32MP1/atf/stm32mp1_atf/../build/opteemin-nand-stm32mp157d-ev1/lib/libc.a(snprintf.o)
 .debug_abbrev  0x0000d3c6       0x80 /home/dangcaominh/STM32MP1/atf/stm32mp1_atf/../build/opteemin-nand-stm32mp157d-ev1/lib/libc.a(strchr.o)
 .debug_abbrev  0x0000d446       0x6c /home/dangcaominh/STM32MP1/atf/stm32mp1_atf/../build/opteemin-nand-stm32mp157d-ev1/lib/libc.a(strcmp.o)
 .debug_abbrev  0x0000d4b2       0xa3 /home/dangcaominh/STM32MP1/atf/stm32mp1_atf/../build/opteemin-nand-stm32mp157d-ev1/lib/libc.a(strlcpy.o)
 .debug_abbrev  0x0000d555       0x84 /home/dangcaominh/STM32MP1/atf/stm32mp1_atf/../build/opteemin-nand-stm32mp157d-ev1/lib/libc.a(strlen.o)
 .debug_abbrev  0x0000d5d9       0x7b /home/dangcaominh/STM32MP1/atf/stm32mp1_atf/../build/opteemin-nand-stm32mp157d-ev1/lib/libc.a(strncmp.o)
 .debug_abbrev  0x0000d654       0x95 /home/dangcaominh/STM32MP1/atf/stm32mp1_atf/../build/opteemin-nand-stm32mp157d-ev1/lib/libc.a(strnlen.o)
 .debug_abbrev  0x0000d6e9       0x94 /home/dangcaominh/STM32MP1/atf/stm32mp1_atf/../build/opteemin-nand-stm32mp157d-ev1/lib/libc.a(strrchr.o)

.debug_aranges  0x00000000     0x1eb0
 .debug_aranges
                0x00000000       0x18 /home/dangcaominh/STM32MP1/atf/stm32mp1_atf/../build/opteemin-nand-stm32mp157d-ev1/bl2/build_message.o
 .debug_aranges
                0x00000018       0x20 /home/dangcaominh/STM32MP1/atf/stm32mp1_atf/../build/opteemin-nand-stm32mp157d-ev1/bl2/bl2_arch_setup.o
 .debug_aranges
                0x00000038       0x20 /home/dangcaominh/STM32MP1/atf/stm32mp1_atf/../build/opteemin-nand-stm32mp157d-ev1/bl2/bl2_image_load_v2.o
 .debug_aranges
                0x00000058       0x28 /home/dangcaominh/STM32MP1/atf/stm32mp1_atf/../build/opteemin-nand-stm32mp157d-ev1/bl2/bl2_main.o
 .debug_aranges
                0x00000080       0x38 /home/dangcaominh/STM32MP1/atf/stm32mp1_atf/../build/opteemin-nand-stm32mp157d-ev1/bl2/bl_common.o
 .debug_aranges
                0x000000b8       0x58 /home/dangcaominh/STM32MP1/atf/stm32mp1_atf/../build/opteemin-nand-stm32mp157d-ev1/bl2/desc_image_load.o
 .debug_aranges
                0x00000110       0xa8 /home/dangcaominh/STM32MP1/atf/stm32mp1_atf/../build/opteemin-nand-stm32mp157d-ev1/bl2/fdt_wrappers.o
 .debug_aranges
                0x000001b8       0x30 /home/dangcaominh/STM32MP1/atf/stm32mp1_atf/../build/opteemin-nand-stm32mp157d-ev1/bl2/tf_log.o
 .debug_aranges
                0x000001e8       0x48 /home/dangcaominh/STM32MP1/atf/stm32mp1_atf/../build/opteemin-nand-stm32mp157d-ev1/bl2/uuid.o
 .debug_aranges
                0x00000230       0x58 /home/dangcaominh/STM32MP1/atf/stm32mp1_atf/../build/opteemin-nand-stm32mp157d-ev1/bl2/tzc400.o
 .debug_aranges
                0x00000288       0x48 /home/dangcaominh/STM32MP1/atf/stm32mp1_atf/../build/opteemin-nand-stm32mp157d-ev1/bl2/clk.o
 .debug_aranges
                0x000002d0       0x58 /home/dangcaominh/STM32MP1/atf/stm32mp1_atf/../build/opteemin-nand-stm32mp157d-ev1/bl2/multi_console.o
 .debug_aranges
                0x00000328       0x30 /home/dangcaominh/STM32MP1/atf/stm32mp1_atf/../build/opteemin-nand-stm32mp157d-ev1/bl2/delay_timer.o
 .debug_aranges
                0x00000358       0x30 /home/dangcaominh/STM32MP1/atf/stm32mp1_atf/../build/opteemin-nand-stm32mp157d-ev1/bl2/generic_delay_timer.o
 .debug_aranges
                0x00000388       0x40 /home/dangcaominh/STM32MP1/atf/stm32mp1_atf/../build/opteemin-nand-stm32mp157d-ev1/bl2/fwu.o
 .debug_aranges
                0x000003c8       0x68 /home/dangcaominh/STM32MP1/atf/stm32mp1_atf/../build/opteemin-nand-stm32mp157d-ev1/bl2/io_fip.o
 .debug_aranges
                0x00000430       0x60 /home/dangcaominh/STM32MP1/atf/stm32mp1_atf/../build/opteemin-nand-stm32mp157d-ev1/bl2/io_mtd.o
 .debug_aranges
                0x00000490       0x80 /home/dangcaominh/STM32MP1/atf/stm32mp1_atf/../build/opteemin-nand-stm32mp157d-ev1/bl2/io_storage.o
 .debug_aranges
                0x00000510       0x38 /home/dangcaominh/STM32MP1/atf/stm32mp1_atf/../build/opteemin-nand-stm32mp157d-ev1/bl2/core.o
 .debug_aranges
                0x00000548       0x80 /home/dangcaominh/STM32MP1/atf/stm32mp1_atf/../build/opteemin-nand-stm32mp157d-ev1/bl2/raw_nand.o
 .debug_aranges
                0x000005c8       0xc0 /home/dangcaominh/STM32MP1/atf/stm32mp1_atf/../build/opteemin-nand-stm32mp157d-ev1/bl2/bsec2.o
 .debug_aranges
                0x00000688       0xe0 /home/dangcaominh/STM32MP1/atf/stm32mp1_atf/../build/opteemin-nand-stm32mp157d-ev1/bl2/stm32mp1_clk.o
 .debug_aranges
                0x00000768       0x70 /home/dangcaominh/STM32MP1/atf/stm32mp1_atf/../build/opteemin-nand-stm32mp157d-ev1/bl2/stm32mp_clkfunc.o
 .debug_aranges
                0x000007d8       0x38 /home/dangcaominh/STM32MP1/atf/stm32mp1_atf/../build/opteemin-nand-stm32mp157d-ev1/bl2/stm32mp1_ddr.o
 .debug_aranges
                0x00000810       0x48 /home/dangcaominh/STM32MP1/atf/stm32mp1_atf/../build/opteemin-nand-stm32mp157d-ev1/bl2/stm32mp1_ddr_helpers.o
 .debug_aranges
                0x00000858       0x38 /home/dangcaominh/STM32MP1/atf/stm32mp1_atf/../build/opteemin-nand-stm32mp157d-ev1/bl2/stm32mp1_ram.o
 .debug_aranges
                0x00000890       0x78 /home/dangcaominh/STM32MP1/atf/stm32mp1_atf/../build/opteemin-nand-stm32mp157d-ev1/bl2/stm32mp_ddr.o
 .debug_aranges
                0x00000908       0x38 /home/dangcaominh/STM32MP1/atf/stm32mp1_atf/../build/opteemin-nand-stm32mp157d-ev1/bl2/stm32mp_ddr_test.o
 .debug_aranges
                0x00000940       0x28 /home/dangcaominh/STM32MP1/atf/stm32mp1_atf/../build/opteemin-nand-stm32mp157d-ev1/bl2/stm32mp_ram.o
 .debug_aranges
                0x00000968       0x50 /home/dangcaominh/STM32MP1/atf/stm32mp1_atf/../build/opteemin-nand-stm32mp157d-ev1/bl2/stm32_fmc2_nand.o
 .debug_aranges
                0x000009b8       0x58 /home/dangcaominh/STM32MP1/atf/stm32mp1_atf/../build/opteemin-nand-stm32mp157d-ev1/bl2/stm32_gpio.o
 .debug_aranges
                0x00000a10       0x88 /home/dangcaominh/STM32MP1/atf/stm32mp1_atf/../build/opteemin-nand-stm32mp157d-ev1/bl2/stm32_i2c.o
 .debug_aranges
                0x00000a98       0x30 /home/dangcaominh/STM32MP1/atf/stm32mp1_atf/../build/opteemin-nand-stm32mp157d-ev1/bl2/stm32_iwdg.o
 .debug_aranges
                0x00000ac8       0x40 /home/dangcaominh/STM32MP1/atf/stm32mp1_atf/../build/opteemin-nand-stm32mp157d-ev1/bl2/nvmem.o
 .debug_aranges
                0x00000b08       0x68 /home/dangcaominh/STM32MP1/atf/stm32mp1_atf/../build/opteemin-nand-stm32mp157d-ev1/bl2/stm32mp_tamp_nvram_core.o
 .debug_aranges
                0x00000b70       0x28 /home/dangcaominh/STM32MP1/atf/stm32mp1_atf/../build/opteemin-nand-stm32mp157d-ev1/bl2/stm32mp_tamp_nvram_mp1.o
 .debug_aranges
                0x00000b98       0x88 /home/dangcaominh/STM32MP1/atf/stm32mp1_atf/../build/opteemin-nand-stm32mp157d-ev1/bl2/stm32mp_pmic.o
 .debug_aranges
                0x00000c20       0xc0 /home/dangcaominh/STM32MP1/atf/stm32mp1_atf/../build/opteemin-nand-stm32mp157d-ev1/bl2/stpmic1.o
 .debug_aranges
                0x00000ce0       0x90 /home/dangcaominh/STM32MP1/atf/stm32mp1_atf/../build/opteemin-nand-stm32mp157d-ev1/bl2/regulator_core.o
 .debug_aranges
                0x00000d70       0x30 /home/dangcaominh/STM32MP1/atf/stm32mp1_atf/../build/opteemin-nand-stm32mp157d-ev1/bl2/regulator_fixed.o
 .debug_aranges
                0x00000da0       0x30 /home/dangcaominh/STM32MP1/atf/stm32mp1_atf/../build/opteemin-nand-stm32mp157d-ev1/bl2/stm32mp1_reset.o
 .debug_aranges
                0x00000dd0       0x20 /home/dangcaominh/STM32MP1/atf/stm32mp1_atf/../build/opteemin-nand-stm32mp157d-ev1/bl2/ctzdi2.o
 .debug_aranges
                0x00000df0       0x20 /home/dangcaominh/STM32MP1/atf/stm32mp1_atf/../build/opteemin-nand-stm32mp157d-ev1/bl2/popcountsi2.o
 .debug_aranges
                0x00000e10       0x20 /home/dangcaominh/STM32MP1/atf/stm32mp1_atf/../build/opteemin-nand-stm32mp157d-ev1/bl2/udivmoddi4.o
 .debug_aranges
                0x00000e30       0x28 /home/dangcaominh/STM32MP1/atf/stm32mp1_atf/../build/opteemin-nand-stm32mp157d-ev1/bl2/fconf.o
 .debug_aranges
                0x00000e58       0x38 /home/dangcaominh/STM32MP1/atf/stm32mp1_atf/../build/opteemin-nand-stm32mp157d-ev1/bl2/fconf_dyn_cfg_getter.o
 .debug_aranges
                0x00000e90       0x30 /home/dangcaominh/STM32MP1/atf/stm32mp1_atf/../build/opteemin-nand-stm32mp157d-ev1/bl2/optee_utils.o
 .debug_aranges
                0x00000ec0       0x78 /home/dangcaominh/STM32MP1/atf/stm32mp1_atf/../build/opteemin-nand-stm32mp157d-ev1/bl2/xlat_tables_arch.o
 .debug_aranges
                0x00000f38       0x78 /home/dangcaominh/STM32MP1/atf/stm32mp1_atf/../build/opteemin-nand-stm32mp157d-ev1/bl2/xlat_tables_context.o
 .debug_aranges
                0x00000fb0       0x90 /home/dangcaominh/STM32MP1/atf/stm32mp1_atf/../build/opteemin-nand-stm32mp157d-ev1/bl2/xlat_tables_core.o
 .debug_aranges
                0x00001040       0x48 /home/dangcaominh/STM32MP1/atf/stm32mp1_atf/../build/opteemin-nand-stm32mp157d-ev1/bl2/xlat_tables_utils.o
 .debug_aranges
                0x00001088       0x68 /home/dangcaominh/STM32MP1/atf/stm32mp1_atf/../build/opteemin-nand-stm32mp157d-ev1/bl2/crc32.o
 .debug_aranges
                0x000010f0       0x38 /home/dangcaominh/STM32MP1/atf/stm32mp1_atf/../build/opteemin-nand-stm32mp157d-ev1/bl2/tf_gunzip.o
 .debug_aranges
                0x00001128       0x78 /home/dangcaominh/STM32MP1/atf/stm32mp1_atf/../build/opteemin-nand-stm32mp157d-ev1/bl2/plat_bl_common.o
 .debug_aranges
                0x000011a0       0x20 /home/dangcaominh/STM32MP1/atf/stm32mp1_atf/../build/opteemin-nand-stm32mp157d-ev1/bl2/plat_log_common.o
 .debug_aranges
                0x000011c0       0x70 /home/dangcaominh/STM32MP1/atf/stm32mp1_atf/../build/opteemin-nand-stm32mp157d-ev1/bl2/bl2_io_storage.o
 .debug_aranges
                0x00001230       0x30 /home/dangcaominh/STM32MP1/atf/stm32mp1_atf/../build/opteemin-nand-stm32mp157d-ev1/bl2/plat_image_load.o
 .debug_aranges
                0x00001260      0x150 /home/dangcaominh/STM32MP1/atf/stm32mp1_atf/../build/opteemin-nand-stm32mp157d-ev1/bl2/stm32mp_common.o
 .debug_aranges
                0x000013b0       0xb8 /home/dangcaominh/STM32MP1/atf/stm32mp1_atf/../build/opteemin-nand-stm32mp157d-ev1/bl2/stm32mp_dt.o
 .debug_aranges
                0x00001468       0x20 /home/dangcaominh/STM32MP1/atf/stm32mp1_atf/../build/opteemin-nand-stm32mp157d-ev1/bl2/stm32mp_fconf_fuse.o
 .debug_aranges
                0x00001488       0x20 /home/dangcaominh/STM32MP1/atf/stm32mp1_atf/../build/opteemin-nand-stm32mp157d-ev1/bl2/stm32mp_fconf_io.o
 .debug_aranges
                0x000014a8       0x40 /home/dangcaominh/STM32MP1/atf/stm32mp1_atf/../build/opteemin-nand-stm32mp157d-ev1/bl2/bl2_plat_setup.o
 .debug_aranges
                0x000014e8       0x18 /home/dangcaominh/STM32MP1/atf/stm32mp1_atf/../build/opteemin-nand-stm32mp157d-ev1/bl2/plat_bl2_mem_params_desc.o
 .debug_aranges
                0x00001500       0x20 /home/dangcaominh/STM32MP1/atf/stm32mp1_atf/../build/opteemin-nand-stm32mp157d-ev1/bl2/plat_ddr.o
 .debug_aranges
                0x00001520       0x20 /home/dangcaominh/STM32MP1/atf/stm32mp1_atf/../build/opteemin-nand-stm32mp157d-ev1/bl2/stm32mp1_boot_device.o
 .debug_aranges
                0x00001540       0x48 /home/dangcaominh/STM32MP1/atf/stm32mp1_atf/../build/opteemin-nand-stm32mp157d-ev1/bl2/stm32mp1_context.o
 .debug_aranges
                0x00001588       0x28 /home/dangcaominh/STM32MP1/atf/stm32mp1_atf/../build/opteemin-nand-stm32mp157d-ev1/bl2/stm32mp1_critic_power.o
 .debug_aranges
                0x000015b0       0x30 /home/dangcaominh/STM32MP1/atf/stm32mp1_atf/../build/opteemin-nand-stm32mp157d-ev1/bl2/stm32mp1_dbgmcu.o
 .debug_aranges
                0x000015e0       0x38 /home/dangcaominh/STM32MP1/atf/stm32mp1_atf/../build/opteemin-nand-stm32mp157d-ev1/bl2/stm32mp1_fconf_firewall.o
 .debug_aranges
                0x00001618       0xc8 /home/dangcaominh/STM32MP1/atf/stm32mp1_atf/../build/opteemin-nand-stm32mp157d-ev1/bl2/stm32mp1_private.o
 .debug_aranges
                0x000016e0       0x48 /home/dangcaominh/STM32MP1/atf/stm32mp1_atf/../build/opteemin-nand-stm32mp157d-ev1/bl2/stm32mp1_syscfg.o
 .debug_aranges
                0x00001728       0x20 /home/dangcaominh/STM32MP1/atf/stm32mp1_atf/../build/opteemin-nand-stm32mp157d-ev1/bl2/bl2_el3_entrypoint.o
 .debug_aranges
                0x00001748       0x20 /home/dangcaominh/STM32MP1/atf/stm32mp1_atf/../build/opteemin-nand-stm32mp157d-ev1/bl2/bl2_el3_exceptions.o
 .debug_aranges
                0x00001768       0x20 /home/dangcaominh/STM32MP1/atf/stm32mp1_atf/../build/opteemin-nand-stm32mp157d-ev1/bl2/bl2_run_next_image.o
 .debug_aranges
                0x00001788       0x50 /home/dangcaominh/STM32MP1/atf/stm32mp1_atf/../build/opteemin-nand-stm32mp157d-ev1/bl2/debug.o
 .debug_aranges
                0x000017d8       0x50 /home/dangcaominh/STM32MP1/atf/stm32mp1_atf/../build/opteemin-nand-stm32mp157d-ev1/bl2/stm32_console.o
 .debug_aranges
                0x00001828       0x60 /home/dangcaominh/STM32MP1/atf/stm32mp1_atf/../build/opteemin-nand-stm32mp157d-ev1/bl2/cache_helpers.o
 .debug_aranges
                0x00001888       0x48 /home/dangcaominh/STM32MP1/atf/stm32mp1_atf/../build/opteemin-nand-stm32mp157d-ev1/bl2/misc_helpers.o
 .debug_aranges
                0x000018d0       0x20 /home/dangcaominh/STM32MP1/atf/stm32mp1_atf/../build/opteemin-nand-stm32mp157d-ev1/bl2/aeabi_uldivmod.o
 .debug_aranges
                0x000018f0       0x40 /home/dangcaominh/STM32MP1/atf/stm32mp1_atf/../build/opteemin-nand-stm32mp157d-ev1/bl2/cortex_a7.o
 .debug_aranges
                0x00001930       0x40 /home/dangcaominh/STM32MP1/atf/stm32mp1_atf/../build/opteemin-nand-stm32mp157d-ev1/bl2/cpu_helpers.o
 .debug_aranges
                0x00001970       0x28 /home/dangcaominh/STM32MP1/atf/stm32mp1_atf/../build/opteemin-nand-stm32mp157d-ev1/bl2/spinlock.o
 .debug_aranges
                0x00001998       0x28 /home/dangcaominh/STM32MP1/atf/stm32mp1_atf/../build/opteemin-nand-stm32mp157d-ev1/bl2/enable_mmu.o
 .debug_aranges
                0x000019c0       0x28 /home/dangcaominh/STM32MP1/atf/stm32mp1_atf/../build/opteemin-nand-stm32mp157d-ev1/bl2/platform_up_stack.o
 .debug_aranges
                0x000019e8       0x20 /home/dangcaominh/STM32MP1/atf/stm32mp1_atf/../build/opteemin-nand-stm32mp157d-ev1/bl2/stm32mp1_critic_power_wrapper.o
 .debug_aranges
                0x00001a08       0x88 /home/dangcaominh/STM32MP1/atf/stm32mp1_atf/../build/opteemin-nand-stm32mp157d-ev1/bl2/stm32mp1_helper.o
 .debug_aranges
                0x00001a90       0x88 /home/dangcaominh/STM32MP1/atf/stm32mp1_atf/../build/opteemin-nand-stm32mp157d-ev1/lib/libfdt.a(fdt.o)
 .debug_aranges
                0x00001b18       0x38 /home/dangcaominh/STM32MP1/atf/stm32mp1_atf/../build/opteemin-nand-stm32mp157d-ev1/lib/libfdt.a(fdt_addresses.o)
 .debug_aranges
                0x00001b50      0x160 /home/dangcaominh/STM32MP1/atf/stm32mp1_atf/../build/opteemin-nand-stm32mp157d-ev1/lib/libfdt.a(fdt_ro.o)
 .debug_aranges
                0x00001cb0       0x20 /home/dangcaominh/STM32MP1/atf/stm32mp1_atf/../build/opteemin-nand-stm32mp157d-ev1/lib/libc.a(assert.o)
 .debug_aranges
                0x00001cd0       0x20 /home/dangcaominh/STM32MP1/atf/stm32mp1_atf/../build/opteemin-nand-stm32mp157d-ev1/lib/libc.a(memchr.o)
 .debug_aranges
                0x00001cf0       0x20 /home/dangcaominh/STM32MP1/atf/stm32mp1_atf/../build/opteemin-nand-stm32mp157d-ev1/lib/libc.a(memcmp.o)
 .debug_aranges
                0x00001d10       0x20 /home/dangcaominh/STM32MP1/atf/stm32mp1_atf/../build/opteemin-nand-stm32mp157d-ev1/lib/libc.a(memcpy.o)
 .debug_aranges
                0x00001d30       0x20 /home/dangcaominh/STM32MP1/atf/stm32mp1_atf/../build/opteemin-nand-stm32mp157d-ev1/lib/libc.a(memmove.o)
 .debug_aranges
                0x00001d50       0x20 /home/dangcaominh/STM32MP1/atf/stm32mp1_atf/../build/opteemin-nand-stm32mp157d-ev1/lib/libc.a(memset.o)
 .debug_aranges
                0x00001d70       0x30 /home/dangcaominh/STM32MP1/atf/stm32mp1_atf/../build/opteemin-nand-stm32mp157d-ev1/lib/libc.a(printf.o)
 .debug_aranges
                0x00001da0       0x30 /home/dangcaominh/STM32MP1/atf/stm32mp1_atf/../build/opteemin-nand-stm32mp157d-ev1/lib/libc.a(snprintf.o)
 .debug_aranges
                0x00001dd0       0x20 /home/dangcaominh/STM32MP1/atf/stm32mp1_atf/../build/opteemin-nand-stm32mp157d-ev1/lib/libc.a(strchr.o)
 .debug_aranges
                0x00001df0       0x20 /home/dangcaominh/STM32MP1/atf/stm32mp1_atf/../build/opteemin-nand-stm32mp157d-ev1/lib/libc.a(strcmp.o)
 .debug_aranges
                0x00001e10       0x20 /home/dangcaominh/STM32MP1/atf/stm32mp1_atf/../build/opteemin-nand-stm32mp157d-ev1/lib/libc.a(strlcpy.o)
 .debug_aranges
                0x00001e30       0x20 /home/dangcaominh/STM32MP1/atf/stm32mp1_atf/../build/opteemin-nand-stm32mp157d-ev1/lib/libc.a(strlen.o)
 .debug_aranges
                0x00001e50       0x20 /home/dangcaominh/STM32MP1/atf/stm32mp1_atf/../build/opteemin-nand-stm32mp157d-ev1/lib/libc.a(strncmp.o)
 .debug_aranges
                0x00001e70       0x20 /home/dangcaominh/STM32MP1/atf/stm32mp1_atf/../build/opteemin-nand-stm32mp157d-ev1/lib/libc.a(strnlen.o)
 .debug_aranges
                0x00001e90       0x20 /home/dangcaominh/STM32MP1/atf/stm32mp1_atf/../build/opteemin-nand-stm32mp157d-ev1/lib/libc.a(strrchr.o)

.debug_line     0x00000000    0x208f0
 .debug_line    0x00000000       0x28 /home/dangcaominh/STM32MP1/atf/stm32mp1_atf/../build/opteemin-nand-stm32mp157d-ev1/bl2/build_message.o
 .debug_line    0x00000028       0x8a /home/dangcaominh/STM32MP1/atf/stm32mp1_atf/../build/opteemin-nand-stm32mp157d-ev1/bl2/bl2_arch_setup.o
 .debug_line    0x000000b2      0x24a /home/dangcaominh/STM32MP1/atf/stm32mp1_atf/../build/opteemin-nand-stm32mp157d-ev1/bl2/bl2_image_load_v2.o
 .debug_line    0x000002fc      0x1ce /home/dangcaominh/STM32MP1/atf/stm32mp1_atf/../build/opteemin-nand-stm32mp157d-ev1/bl2/bl2_main.o
 .debug_line    0x000004ca      0x347 /home/dangcaominh/STM32MP1/atf/stm32mp1_atf/../build/opteemin-nand-stm32mp157d-ev1/bl2/bl_common.o
 .debug_line    0x00000811      0x617 /home/dangcaominh/STM32MP1/atf/stm32mp1_atf/../build/opteemin-nand-stm32mp157d-ev1/bl2/desc_image_load.o
 .debug_line    0x00000e28      0xad2 /home/dangcaominh/STM32MP1/atf/stm32mp1_atf/../build/opteemin-nand-stm32mp157d-ev1/bl2/fdt_wrappers.o
 .debug_line    0x000018fa      0x201 /home/dangcaominh/STM32MP1/atf/stm32mp1_atf/../build/opteemin-nand-stm32mp157d-ev1/bl2/tf_log.o
 .debug_line    0x00001afb      0x30d /home/dangcaominh/STM32MP1/atf/stm32mp1_atf/../build/opteemin-nand-stm32mp157d-ev1/bl2/uuid.o
 .debug_line    0x00001e08      0x88d /home/dangcaominh/STM32MP1/atf/stm32mp1_atf/../build/opteemin-nand-stm32mp157d-ev1/bl2/tzc400.o
 .debug_line    0x00002695      0x1b3 /home/dangcaominh/STM32MP1/atf/stm32mp1_atf/../build/opteemin-nand-stm32mp157d-ev1/bl2/clk.o
 .debug_line    0x00002848      0x316 /home/dangcaominh/STM32MP1/atf/stm32mp1_atf/../build/opteemin-nand-stm32mp157d-ev1/bl2/multi_console.o
 .debug_line    0x00002b5e      0x1e7 /home/dangcaominh/STM32MP1/atf/stm32mp1_atf/../build/opteemin-nand-stm32mp157d-ev1/bl2/delay_timer.o
 .debug_line    0x00002d45      0x24d /home/dangcaominh/STM32MP1/atf/stm32mp1_atf/../build/opteemin-nand-stm32mp157d-ev1/bl2/generic_delay_timer.o
 .debug_line    0x00002f92      0x4b8 /home/dangcaominh/STM32MP1/atf/stm32mp1_atf/../build/opteemin-nand-stm32mp157d-ev1/bl2/fwu.o
 .debug_line    0x0000344a      0x731 /home/dangcaominh/STM32MP1/atf/stm32mp1_atf/../build/opteemin-nand-stm32mp157d-ev1/bl2/io_fip.o
 .debug_line    0x00003b7b      0x4f9 /home/dangcaominh/STM32MP1/atf/stm32mp1_atf/../build/opteemin-nand-stm32mp157d-ev1/bl2/io_mtd.o
 .debug_line    0x00004074      0x5f0 /home/dangcaominh/STM32MP1/atf/stm32mp1_atf/../build/opteemin-nand-stm32mp157d-ev1/bl2/io_storage.o
 .debug_line    0x00004664      0x3ba /home/dangcaominh/STM32MP1/atf/stm32mp1_atf/../build/opteemin-nand-stm32mp157d-ev1/bl2/core.o
 .debug_line    0x00004a1e      0x919 /home/dangcaominh/STM32MP1/atf/stm32mp1_atf/../build/opteemin-nand-stm32mp157d-ev1/bl2/raw_nand.o
 .debug_line    0x00005337      0xe01 /home/dangcaominh/STM32MP1/atf/stm32mp1_atf/../build/opteemin-nand-stm32mp157d-ev1/bl2/bsec2.o
 .debug_line    0x00006138     0x2d0e /home/dangcaominh/STM32MP1/atf/stm32mp1_atf/../build/opteemin-nand-stm32mp157d-ev1/bl2/stm32mp1_clk.o
 .debug_line    0x00008e46      0x732 /home/dangcaominh/STM32MP1/atf/stm32mp1_atf/../build/opteemin-nand-stm32mp157d-ev1/bl2/stm32mp_clkfunc.o
 .debug_line    0x00009578     0x145e /home/dangcaominh/STM32MP1/atf/stm32mp1_atf/../build/opteemin-nand-stm32mp157d-ev1/bl2/stm32mp1_ddr.o
 .debug_line    0x0000a9d6     0x17c7 /home/dangcaominh/STM32MP1/atf/stm32mp1_atf/../build/opteemin-nand-stm32mp157d-ev1/bl2/stm32mp1_ddr_helpers.o
 .debug_line    0x0000c19d      0x57d /home/dangcaominh/STM32MP1/atf/stm32mp1_atf/../build/opteemin-nand-stm32mp157d-ev1/bl2/stm32mp1_ram.o
 .debug_line    0x0000c71a      0xb99 /home/dangcaominh/STM32MP1/atf/stm32mp1_atf/../build/opteemin-nand-stm32mp157d-ev1/bl2/stm32mp_ddr.o
 .debug_line    0x0000d2b3      0x4ca /home/dangcaominh/STM32MP1/atf/stm32mp1_atf/../build/opteemin-nand-stm32mp157d-ev1/bl2/stm32mp_ddr_test.o
 .debug_line    0x0000d77d      0x21a /home/dangcaominh/STM32MP1/atf/stm32mp1_atf/../build/opteemin-nand-stm32mp157d-ev1/bl2/stm32mp_ram.o
 .debug_line    0x0000d997     0x14e4 /home/dangcaominh/STM32MP1/atf/stm32mp1_atf/../build/opteemin-nand-stm32mp157d-ev1/bl2/stm32_fmc2_nand.o
 .debug_line    0x0000ee7b      0x9e9 /home/dangcaominh/STM32MP1/atf/stm32mp1_atf/../build/opteemin-nand-stm32mp157d-ev1/bl2/stm32_gpio.o
 .debug_line    0x0000f864     0x1add /home/dangcaominh/STM32MP1/atf/stm32mp1_atf/../build/opteemin-nand-stm32mp157d-ev1/bl2/stm32_i2c.o
 .debug_line    0x00011341      0x518 /home/dangcaominh/STM32MP1/atf/stm32mp1_atf/../build/opteemin-nand-stm32mp157d-ev1/bl2/stm32_iwdg.o
 .debug_line    0x00011859      0x2fa /home/dangcaominh/STM32MP1/atf/stm32mp1_atf/../build/opteemin-nand-stm32mp157d-ev1/bl2/nvmem.o
 .debug_line    0x00011b53      0x962 /home/dangcaominh/STM32MP1/atf/stm32mp1_atf/../build/opteemin-nand-stm32mp157d-ev1/bl2/stm32mp_tamp_nvram_core.o
 .debug_line    0x000124b5      0x119 /home/dangcaominh/STM32MP1/atf/stm32mp1_atf/../build/opteemin-nand-stm32mp157d-ev1/bl2/stm32mp_tamp_nvram_mp1.o
 .debug_line    0x000125ce      0x773 /home/dangcaominh/STM32MP1/atf/stm32mp1_atf/../build/opteemin-nand-stm32mp157d-ev1/bl2/stm32mp_pmic.o
 .debug_line    0x00012d41      0x6e4 /home/dangcaominh/STM32MP1/atf/stm32mp1_atf/../build/opteemin-nand-stm32mp157d-ev1/bl2/stpmic1.o
 .debug_line    0x00013425      0x998 /home/dangcaominh/STM32MP1/atf/stm32mp1_atf/../build/opteemin-nand-stm32mp157d-ev1/bl2/regulator_core.o
 .debug_line    0x00013dbd      0x286 /home/dangcaominh/STM32MP1/atf/stm32mp1_atf/../build/opteemin-nand-stm32mp157d-ev1/bl2/regulator_fixed.o
 .debug_line    0x00014043      0x415 /home/dangcaominh/STM32MP1/atf/stm32mp1_atf/../build/opteemin-nand-stm32mp157d-ev1/bl2/stm32mp1_reset.o
 .debug_line    0x00014458       0xc6 /home/dangcaominh/STM32MP1/atf/stm32mp1_atf/../build/opteemin-nand-stm32mp157d-ev1/bl2/ctzdi2.o
 .debug_line    0x0001451e       0xc1 /home/dangcaominh/STM32MP1/atf/stm32mp1_atf/../build/opteemin-nand-stm32mp157d-ev1/bl2/popcountsi2.o
 .debug_line    0x000145df      0x385 /home/dangcaominh/STM32MP1/atf/stm32mp1_atf/../build/opteemin-nand-stm32mp157d-ev1/bl2/udivmoddi4.o
 .debug_line    0x00014964      0x2a7 /home/dangcaominh/STM32MP1/atf/stm32mp1_atf/../build/opteemin-nand-stm32mp157d-ev1/bl2/fconf.o
 .debug_line    0x00014c0b      0x3f8 /home/dangcaominh/STM32MP1/atf/stm32mp1_atf/../build/opteemin-nand-stm32mp157d-ev1/bl2/fconf_dyn_cfg_getter.o
 .debug_line    0x00015003      0x343 /home/dangcaominh/STM32MP1/atf/stm32mp1_atf/../build/opteemin-nand-stm32mp157d-ev1/bl2/optee_utils.o
 .debug_line    0x00015346      0x54b /home/dangcaominh/STM32MP1/atf/stm32mp1_atf/../build/opteemin-nand-stm32mp157d-ev1/bl2/xlat_tables_arch.o
 .debug_line    0x00015891      0x39c /home/dangcaominh/STM32MP1/atf/stm32mp1_atf/../build/opteemin-nand-stm32mp157d-ev1/bl2/xlat_tables_context.o
 .debug_line    0x00015c2d     0x106b /home/dangcaominh/STM32MP1/atf/stm32mp1_atf/../build/opteemin-nand-stm32mp157d-ev1/bl2/xlat_tables_core.o
 .debug_line    0x00016c98      0x5f2 /home/dangcaominh/STM32MP1/atf/stm32mp1_atf/../build/opteemin-nand-stm32mp157d-ev1/bl2/xlat_tables_utils.o
 .debug_line    0x0001728a      0x2e8 /home/dangcaominh/STM32MP1/atf/stm32mp1_atf/../build/opteemin-nand-stm32mp157d-ev1/bl2/crc32.o
 .debug_line    0x00017572      0x24c /home/dangcaominh/STM32MP1/atf/stm32mp1_atf/../build/opteemin-nand-stm32mp157d-ev1/bl2/tf_gunzip.o
 .debug_line    0x000177be      0x2a9 /home/dangcaominh/STM32MP1/atf/stm32mp1_atf/../build/opteemin-nand-stm32mp157d-ev1/bl2/plat_bl_common.o
 .debug_line    0x00017a67       0xce /home/dangcaominh/STM32MP1/atf/stm32mp1_atf/../build/opteemin-nand-stm32mp157d-ev1/bl2/plat_log_common.o
 .debug_line    0x00017b35      0x87c /home/dangcaominh/STM32MP1/atf/stm32mp1_atf/../build/opteemin-nand-stm32mp157d-ev1/bl2/bl2_io_storage.o
 .debug_line    0x000183b1      0x130 /home/dangcaominh/STM32MP1/atf/stm32mp1_atf/../build/opteemin-nand-stm32mp157d-ev1/bl2/plat_image_load.o
 .debug_line    0x000184e1      0xd82 /home/dangcaominh/STM32MP1/atf/stm32mp1_atf/../build/opteemin-nand-stm32mp157d-ev1/bl2/stm32mp_common.o
 .debug_line    0x00019263      0x978 /home/dangcaominh/STM32MP1/atf/stm32mp1_atf/../build/opteemin-nand-stm32mp157d-ev1/bl2/stm32mp_dt.o
 .debug_line    0x00019bdb      0x34a /home/dangcaominh/STM32MP1/atf/stm32mp1_atf/../build/opteemin-nand-stm32mp157d-ev1/bl2/stm32mp_fconf_fuse.o
 .debug_line    0x00019f25      0x34d /home/dangcaominh/STM32MP1/atf/stm32mp1_atf/../build/opteemin-nand-stm32mp157d-ev1/bl2/stm32mp_fconf_io.o
 .debug_line    0x0001a272      0xd45 /home/dangcaominh/STM32MP1/atf/stm32mp1_atf/../build/opteemin-nand-stm32mp157d-ev1/bl2/bl2_plat_setup.o
 .debug_line    0x0001afb7      0x111 /home/dangcaominh/STM32MP1/atf/stm32mp1_atf/../build/opteemin-nand-stm32mp157d-ev1/bl2/plat_bl2_mem_params_desc.o
 .debug_line    0x0001b0c8      0x2e2 /home/dangcaominh/STM32MP1/atf/stm32mp1_atf/../build/opteemin-nand-stm32mp157d-ev1/bl2/plat_ddr.o
 .debug_line    0x0001b3aa      0x208 /home/dangcaominh/STM32MP1/atf/stm32mp1_atf/../build/opteemin-nand-stm32mp157d-ev1/bl2/stm32mp1_boot_device.o
 .debug_line    0x0001b5b2      0x3c5 /home/dangcaominh/STM32MP1/atf/stm32mp1_atf/../build/opteemin-nand-stm32mp157d-ev1/bl2/stm32mp1_context.o
 .debug_line    0x0001b977      0x29d /home/dangcaominh/STM32MP1/atf/stm32mp1_atf/../build/opteemin-nand-stm32mp157d-ev1/bl2/stm32mp1_critic_power.o
 .debug_line    0x0001bc14      0x1fc /home/dangcaominh/STM32MP1/atf/stm32mp1_atf/../build/opteemin-nand-stm32mp157d-ev1/bl2/stm32mp1_dbgmcu.o
 .debug_line    0x0001be10      0x34d /home/dangcaominh/STM32MP1/atf/stm32mp1_atf/../build/opteemin-nand-stm32mp157d-ev1/bl2/stm32mp1_fconf_firewall.o
 .debug_line    0x0001c15d      0x818 /home/dangcaominh/STM32MP1/atf/stm32mp1_atf/../build/opteemin-nand-stm32mp157d-ev1/bl2/stm32mp1_private.o
 .debug_line    0x0001c975      0x5bb /home/dangcaominh/STM32MP1/atf/stm32mp1_atf/../build/opteemin-nand-stm32mp157d-ev1/bl2/stm32mp1_syscfg.o
 .debug_line    0x0001cf30       0x64 /home/dangcaominh/STM32MP1/atf/stm32mp1_atf/../build/opteemin-nand-stm32mp157d-ev1/bl2/bl2_el3_entrypoint.o
 .debug_line    0x0001cf94       0x58 /home/dangcaominh/STM32MP1/atf/stm32mp1_atf/../build/opteemin-nand-stm32mp157d-ev1/bl2/bl2_el3_exceptions.o
 .debug_line    0x0001cfec       0x60 /home/dangcaominh/STM32MP1/atf/stm32mp1_atf/../build/opteemin-nand-stm32mp157d-ev1/bl2/bl2_run_next_image.o
 .debug_line    0x0001d04c       0xed /home/dangcaominh/STM32MP1/atf/stm32mp1_atf/../build/opteemin-nand-stm32mp157d-ev1/bl2/debug.o
 .debug_line    0x0001d139      0x10c /home/dangcaominh/STM32MP1/atf/stm32mp1_atf/../build/opteemin-nand-stm32mp157d-ev1/bl2/stm32_console.o
 .debug_line    0x0001d245       0xfb /home/dangcaominh/STM32MP1/atf/stm32mp1_atf/../build/opteemin-nand-stm32mp157d-ev1/bl2/cache_helpers.o
 .debug_line    0x0001d340      0x10b /home/dangcaominh/STM32MP1/atf/stm32mp1_atf/../build/opteemin-nand-stm32mp157d-ev1/bl2/misc_helpers.o
 .debug_line    0x0001d44b       0x68 /home/dangcaominh/STM32MP1/atf/stm32mp1_atf/../build/opteemin-nand-stm32mp157d-ev1/bl2/aeabi_uldivmod.o
 .debug_line    0x0001d4b3       0xa5 /home/dangcaominh/STM32MP1/atf/stm32mp1_atf/../build/opteemin-nand-stm32mp157d-ev1/bl2/cortex_a7.o
 .debug_line    0x0001d558       0xbd /home/dangcaominh/STM32MP1/atf/stm32mp1_atf/../build/opteemin-nand-stm32mp157d-ev1/bl2/cpu_helpers.o
 .debug_line    0x0001d615       0x71 /home/dangcaominh/STM32MP1/atf/stm32mp1_atf/../build/opteemin-nand-stm32mp157d-ev1/bl2/spinlock.o
 .debug_line    0x0001d686       0xa5 /home/dangcaominh/STM32MP1/atf/stm32mp1_atf/../build/opteemin-nand-stm32mp157d-ev1/bl2/enable_mmu.o
 .debug_line    0x0001d72b       0x6c /home/dangcaominh/STM32MP1/atf/stm32mp1_atf/../build/opteemin-nand-stm32mp157d-ev1/bl2/platform_up_stack.o
 .debug_line    0x0001d797       0x84 /home/dangcaominh/STM32MP1/atf/stm32mp1_atf/../build/opteemin-nand-stm32mp157d-ev1/bl2/stm32mp1_critic_power_wrapper.o
 .debug_line    0x0001d81b      0x1b3 /home/dangcaominh/STM32MP1/atf/stm32mp1_atf/../build/opteemin-nand-stm32mp157d-ev1/bl2/stm32mp1_helper.o
 .debug_line    0x0001d9ce      0x7d2 /home/dangcaominh/STM32MP1/atf/stm32mp1_atf/../build/opteemin-nand-stm32mp157d-ev1/lib/libfdt.a(fdt.o)
 .debug_line    0x0001e1a0      0x2c6 /home/dangcaominh/STM32MP1/atf/stm32mp1_atf/../build/opteemin-nand-stm32mp157d-ev1/lib/libfdt.a(fdt_addresses.o)
 .debug_line    0x0001e466     0x1280 /home/dangcaominh/STM32MP1/atf/stm32mp1_atf/../build/opteemin-nand-stm32mp157d-ev1/lib/libfdt.a(fdt_ro.o)
 .debug_line    0x0001f6e6       0xe1 /home/dangcaominh/STM32MP1/atf/stm32mp1_atf/../build/opteemin-nand-stm32mp157d-ev1/lib/libc.a(assert.o)
 .debug_line    0x0001f7c7       0x89 /home/dangcaominh/STM32MP1/atf/stm32mp1_atf/../build/opteemin-nand-stm32mp157d-ev1/lib/libc.a(memchr.o)
 .debug_line    0x0001f850       0xa3 /home/dangcaominh/STM32MP1/atf/stm32mp1_atf/../build/opteemin-nand-stm32mp157d-ev1/lib/libc.a(memcmp.o)
 .debug_line    0x0001f8f3       0x8c /home/dangcaominh/STM32MP1/atf/stm32mp1_atf/../build/opteemin-nand-stm32mp157d-ev1/lib/libc.a(memcpy.o)
 .debug_line    0x0001f97f       0xe4 /home/dangcaominh/STM32MP1/atf/stm32mp1_atf/../build/opteemin-nand-stm32mp157d-ev1/lib/libc.a(memmove.o)
 .debug_line    0x0001fa63      0x109 /home/dangcaominh/STM32MP1/atf/stm32mp1_atf/../build/opteemin-nand-stm32mp157d-ev1/lib/libc.a(memset.o)
 .debug_line    0x0001fb6c      0x448 /home/dangcaominh/STM32MP1/atf/stm32mp1_atf/../build/opteemin-nand-stm32mp157d-ev1/lib/libc.a(printf.o)
 .debug_line    0x0001ffb4      0x572 /home/dangcaominh/STM32MP1/atf/stm32mp1_atf/../build/opteemin-nand-stm32mp157d-ev1/lib/libc.a(snprintf.o)
 .debug_line    0x00020526       0x6c /home/dangcaominh/STM32MP1/atf/stm32mp1_atf/../build/opteemin-nand-stm32mp157d-ev1/lib/libc.a(strchr.o)
 .debug_line    0x00020592       0x66 /home/dangcaominh/STM32MP1/atf/stm32mp1_atf/../build/opteemin-nand-stm32mp157d-ev1/lib/libc.a(strcmp.o)
 .debug_line    0x000205f8       0xc3 /home/dangcaominh/STM32MP1/atf/stm32mp1_atf/../build/opteemin-nand-stm32mp157d-ev1/lib/libc.a(strlcpy.o)
 .debug_line    0x000206bb       0x7b /home/dangcaominh/STM32MP1/atf/stm32mp1_atf/../build/opteemin-nand-stm32mp157d-ev1/lib/libc.a(strlen.o)
 .debug_line    0x00020736       0xa9 /home/dangcaominh/STM32MP1/atf/stm32mp1_atf/../build/opteemin-nand-stm32mp157d-ev1/lib/libc.a(strncmp.o)
 .debug_line    0x000207df       0x9e /home/dangcaominh/STM32MP1/atf/stm32mp1_atf/../build/opteemin-nand-stm32mp157d-ev1/lib/libc.a(strnlen.o)
 .debug_line    0x0002087d       0x73 /home/dangcaominh/STM32MP1/atf/stm32mp1_atf/../build/opteemin-nand-stm32mp157d-ev1/lib/libc.a(strrchr.o)

.debug_str      0x00000000     0x98a9
 .debug_str     0x00000000     0x98a9 /home/dangcaominh/STM32MP1/atf/stm32mp1_atf/../build/opteemin-nand-stm32mp157d-ev1/bl2/build_message.o
                                0x168 (size before relaxing)
 .debug_str     0x000098a9      0x210 /home/dangcaominh/STM32MP1/atf/stm32mp1_atf/../build/opteemin-nand-stm32mp157d-ev1/bl2/bl2_arch_setup.o
 .debug_str     0x000098a9      0x4cf /home/dangcaominh/STM32MP1/atf/stm32mp1_atf/../build/opteemin-nand-stm32mp157d-ev1/bl2/bl2_image_load_v2.o
 .debug_str     0x000098a9      0x40f /home/dangcaominh/STM32MP1/atf/stm32mp1_atf/../build/opteemin-nand-stm32mp157d-ev1/bl2/bl2_main.o
 .debug_str     0x000098a9      0x44d /home/dangcaominh/STM32MP1/atf/stm32mp1_atf/../build/opteemin-nand-stm32mp157d-ev1/bl2/bl_common.o
 .debug_str     0x000098a9      0x6b1 /home/dangcaominh/STM32MP1/atf/stm32mp1_atf/../build/opteemin-nand-stm32mp157d-ev1/bl2/desc_image_load.o
 .debug_str     0x000098a9      0x747 /home/dangcaominh/STM32MP1/atf/stm32mp1_atf/../build/opteemin-nand-stm32mp157d-ev1/bl2/fdt_wrappers.o
 .debug_str     0x000098a9      0x2d4 /home/dangcaominh/STM32MP1/atf/stm32mp1_atf/../build/opteemin-nand-stm32mp157d-ev1/bl2/tf_log.o
 .debug_str     0x000098a9      0x29b /home/dangcaominh/STM32MP1/atf/stm32mp1_atf/../build/opteemin-nand-stm32mp157d-ev1/bl2/uuid.o
 .debug_str     0x000098a9      0x635 /home/dangcaominh/STM32MP1/atf/stm32mp1_atf/../build/opteemin-nand-stm32mp157d-ev1/bl2/tzc400.o
 .debug_str     0x000098a9      0x260 /home/dangcaominh/STM32MP1/atf/stm32mp1_atf/../build/opteemin-nand-stm32mp157d-ev1/bl2/clk.o
 .debug_str     0x000098a9      0x32c /home/dangcaominh/STM32MP1/atf/stm32mp1_atf/../build/opteemin-nand-stm32mp157d-ev1/bl2/multi_console.o
 .debug_str     0x000098a9      0x2fa /home/dangcaominh/STM32MP1/atf/stm32mp1_atf/../build/opteemin-nand-stm32mp157d-ev1/bl2/delay_timer.o
 .debug_str     0x000098a9      0x34e /home/dangcaominh/STM32MP1/atf/stm32mp1_atf/../build/opteemin-nand-stm32mp157d-ev1/bl2/generic_delay_timer.o
 .debug_str     0x000098a9      0x579 /home/dangcaominh/STM32MP1/atf/stm32mp1_atf/../build/opteemin-nand-stm32mp157d-ev1/bl2/fwu.o
 .debug_str     0x000098a9      0x84f /home/dangcaominh/STM32MP1/atf/stm32mp1_atf/../build/opteemin-nand-stm32mp157d-ev1/bl2/io_fip.o
 .debug_str     0x000098a9      0x622 /home/dangcaominh/STM32MP1/atf/stm32mp1_atf/../build/opteemin-nand-stm32mp157d-ev1/bl2/io_mtd.o
 .debug_str     0x000098a9      0x5bb /home/dangcaominh/STM32MP1/atf/stm32mp1_atf/../build/opteemin-nand-stm32mp157d-ev1/bl2/io_storage.o
 .debug_str     0x000098a9      0x405 /home/dangcaominh/STM32MP1/atf/stm32mp1_atf/../build/opteemin-nand-stm32mp157d-ev1/bl2/core.o
 .debug_str     0x000098a9      0x885 /home/dangcaominh/STM32MP1/atf/stm32mp1_atf/../build/opteemin-nand-stm32mp157d-ev1/bl2/raw_nand.o
 .debug_str     0x000098a9      0x502 /home/dangcaominh/STM32MP1/atf/stm32mp1_atf/../build/opteemin-nand-stm32mp157d-ev1/bl2/bsec2.o
 .debug_str     0x000098a9     0x1513 /home/dangcaominh/STM32MP1/atf/stm32mp1_atf/../build/opteemin-nand-stm32mp157d-ev1/bl2/stm32mp1_clk.o
 .debug_str     0x000098a9      0x559 /home/dangcaominh/STM32MP1/atf/stm32mp1_atf/../build/opteemin-nand-stm32mp157d-ev1/bl2/stm32mp_clkfunc.o
 .debug_str     0x000098a9     0x1005 /home/dangcaominh/STM32MP1/atf/stm32mp1_atf/../build/opteemin-nand-stm32mp157d-ev1/bl2/stm32mp1_ddr.o
 .debug_str     0x000098a9      0xb19 /home/dangcaominh/STM32MP1/atf/stm32mp1_atf/../build/opteemin-nand-stm32mp157d-ev1/bl2/stm32mp1_ddr_helpers.o
 .debug_str     0x000098a9      0xe79 /home/dangcaominh/STM32MP1/atf/stm32mp1_atf/../build/opteemin-nand-stm32mp157d-ev1/bl2/stm32mp1_ram.o
 .debug_str     0x000098a9      0xe07 /home/dangcaominh/STM32MP1/atf/stm32mp1_atf/../build/opteemin-nand-stm32mp157d-ev1/bl2/stm32mp_ddr.o
 .debug_str     0x000098a9      0x311 /home/dangcaominh/STM32MP1/atf/stm32mp1_atf/../build/opteemin-nand-stm32mp157d-ev1/bl2/stm32mp_ddr_test.o
 .debug_str     0x000098a9      0x2f0 /home/dangcaominh/STM32MP1/atf/stm32mp1_atf/../build/opteemin-nand-stm32mp157d-ev1/bl2/stm32mp_ram.o
 .debug_str     0x000098a9      0x98d /home/dangcaominh/STM32MP1/atf/stm32mp1_atf/../build/opteemin-nand-stm32mp157d-ev1/bl2/stm32_fmc2_nand.o
 .debug_str     0x000098a9      0x576 /home/dangcaominh/STM32MP1/atf/stm32mp1_atf/../build/opteemin-nand-stm32mp157d-ev1/bl2/stm32_gpio.o
 .debug_str     0x000098a9      0x977 /home/dangcaominh/STM32MP1/atf/stm32mp1_atf/../build/opteemin-nand-stm32mp157d-ev1/bl2/stm32_i2c.o
 .debug_str     0x000098a9      0x4ca /home/dangcaominh/STM32MP1/atf/stm32mp1_atf/../build/opteemin-nand-stm32mp157d-ev1/bl2/stm32_iwdg.o
 .debug_str     0x000098a9      0x434 /home/dangcaominh/STM32MP1/atf/stm32mp1_atf/../build/opteemin-nand-stm32mp157d-ev1/bl2/nvmem.o
 .debug_str     0x000098a9      0x7e0 /home/dangcaominh/STM32MP1/atf/stm32mp1_atf/../build/opteemin-nand-stm32mp157d-ev1/bl2/stm32mp_tamp_nvram_core.o
 .debug_str     0x000098a9      0x41a /home/dangcaominh/STM32MP1/atf/stm32mp1_atf/../build/opteemin-nand-stm32mp157d-ev1/bl2/stm32mp_tamp_nvram_mp1.o
 .debug_str     0x000098a9      0xb22 /home/dangcaominh/STM32MP1/atf/stm32mp1_atf/../build/opteemin-nand-stm32mp157d-ev1/bl2/stm32mp_pmic.o
 .debug_str     0x000098a9      0x7f2 /home/dangcaominh/STM32MP1/atf/stm32mp1_atf/../build/opteemin-nand-stm32mp157d-ev1/bl2/stpmic1.o
 .debug_str     0x000098a9      0x596 /home/dangcaominh/STM32MP1/atf/stm32mp1_atf/../build/opteemin-nand-stm32mp157d-ev1/bl2/regulator_core.o
 .debug_str     0x000098a9      0x3f9 /home/dangcaominh/STM32MP1/atf/stm32mp1_atf/../build/opteemin-nand-stm32mp157d-ev1/bl2/regulator_fixed.o
 .debug_str     0x000098a9      0x373 /home/dangcaominh/STM32MP1/atf/stm32mp1_atf/../build/opteemin-nand-stm32mp157d-ev1/bl2/stm32mp1_reset.o
 .debug_str     0x000098a9      0x250 /home/dangcaominh/STM32MP1/atf/stm32mp1_atf/../build/opteemin-nand-stm32mp157d-ev1/bl2/ctzdi2.o
 .debug_str     0x000098a9      0x23f /home/dangcaominh/STM32MP1/atf/stm32mp1_atf/../build/opteemin-nand-stm32mp157d-ev1/bl2/popcountsi2.o
 .debug_str     0x000098a9      0x27b /home/dangcaominh/STM32MP1/atf/stm32mp1_atf/../build/opteemin-nand-stm32mp157d-ev1/bl2/udivmoddi4.o
 .debug_str     0x000098a9      0x40a /home/dangcaominh/STM32MP1/atf/stm32mp1_atf/../build/opteemin-nand-stm32mp157d-ev1/bl2/fconf.o
 .debug_str     0x000098a9      0x517 /home/dangcaominh/STM32MP1/atf/stm32mp1_atf/../build/opteemin-nand-stm32mp157d-ev1/bl2/fconf_dyn_cfg_getter.o
 .debug_str     0x000098a9      0x45e /home/dangcaominh/STM32MP1/atf/stm32mp1_atf/../build/opteemin-nand-stm32mp157d-ev1/bl2/optee_utils.o
 .debug_str     0x000098a9      0x524 /home/dangcaominh/STM32MP1/atf/stm32mp1_atf/../build/opteemin-nand-stm32mp157d-ev1/bl2/xlat_tables_arch.o
 .debug_str     0x000098a9      0x627 /home/dangcaominh/STM32MP1/atf/stm32mp1_atf/../build/opteemin-nand-stm32mp157d-ev1/bl2/xlat_tables_context.o
 .debug_str     0x000098a9      0x8e7 /home/dangcaominh/STM32MP1/atf/stm32mp1_atf/../build/opteemin-nand-stm32mp157d-ev1/bl2/xlat_tables_core.o
 .debug_str     0x000098a9      0x551 /home/dangcaominh/STM32MP1/atf/stm32mp1_atf/../build/opteemin-nand-stm32mp157d-ev1/bl2/xlat_tables_utils.o
 .debug_str     0x000098a9      0x260 /home/dangcaominh/STM32MP1/atf/stm32mp1_atf/../build/opteemin-nand-stm32mp157d-ev1/bl2/crc32.o
 .debug_str     0x000098a9      0x36a /home/dangcaominh/STM32MP1/atf/stm32mp1_atf/../build/opteemin-nand-stm32mp157d-ev1/bl2/tf_gunzip.o
 .debug_str     0x000098a9      0x45b /home/dangcaominh/STM32MP1/atf/stm32mp1_atf/../build/opteemin-nand-stm32mp157d-ev1/bl2/plat_bl_common.o
 .debug_str     0x000098a9      0x27f /home/dangcaominh/STM32MP1/atf/stm32mp1_atf/../build/opteemin-nand-stm32mp157d-ev1/bl2/plat_log_common.o
 .debug_str     0x000098a9      0xcc9 /home/dangcaominh/STM32MP1/atf/stm32mp1_atf/../build/opteemin-nand-stm32mp157d-ev1/bl2/bl2_io_storage.o
 .debug_str     0x000098a9      0x476 /home/dangcaominh/STM32MP1/atf/stm32mp1_atf/../build/opteemin-nand-stm32mp157d-ev1/bl2/plat_image_load.o
 .debug_str     0x000098a9      0xdfe /home/dangcaominh/STM32MP1/atf/stm32mp1_atf/../build/opteemin-nand-stm32mp157d-ev1/bl2/stm32mp_common.o
 .debug_str     0x000098a9      0x777 /home/dangcaominh/STM32MP1/atf/stm32mp1_atf/../build/opteemin-nand-stm32mp157d-ev1/bl2/stm32mp_dt.o
 .debug_str     0x000098a9      0x458 /home/dangcaominh/STM32MP1/atf/stm32mp1_atf/../build/opteemin-nand-stm32mp157d-ev1/bl2/stm32mp_fconf_fuse.o
 .debug_str     0x000098a9      0x584 /home/dangcaominh/STM32MP1/atf/stm32mp1_atf/../build/opteemin-nand-stm32mp157d-ev1/bl2/stm32mp_fconf_io.o
 .debug_str     0x000098a9      0xfbc /home/dangcaominh/STM32MP1/atf/stm32mp1_atf/../build/opteemin-nand-stm32mp157d-ev1/bl2/bl2_plat_setup.o
 .debug_str     0x000098a9      0x462 /home/dangcaominh/STM32MP1/atf/stm32mp1_atf/../build/opteemin-nand-stm32mp157d-ev1/bl2/plat_bl2_mem_params_desc.o
 .debug_str     0x000098a9      0x40e /home/dangcaominh/STM32MP1/atf/stm32mp1_atf/../build/opteemin-nand-stm32mp157d-ev1/bl2/plat_ddr.o
 .debug_str     0x000098a9      0x369 /home/dangcaominh/STM32MP1/atf/stm32mp1_atf/../build/opteemin-nand-stm32mp157d-ev1/bl2/stm32mp1_boot_device.o
 .debug_str     0x000098a9      0x48d /home/dangcaominh/STM32MP1/atf/stm32mp1_atf/../build/opteemin-nand-stm32mp157d-ev1/bl2/stm32mp1_context.o
 .debug_str     0x000098a9      0x3cd /home/dangcaominh/STM32MP1/atf/stm32mp1_atf/../build/opteemin-nand-stm32mp157d-ev1/bl2/stm32mp1_critic_power.o
 .debug_str     0x000098a9      0x2da /home/dangcaominh/STM32MP1/atf/stm32mp1_atf/../build/opteemin-nand-stm32mp157d-ev1/bl2/stm32mp1_dbgmcu.o
 .debug_str     0x000098a9      0x487 /home/dangcaominh/STM32MP1/atf/stm32mp1_atf/../build/opteemin-nand-stm32mp157d-ev1/bl2/stm32mp1_fconf_firewall.o
 .debug_str     0x000098a9      0x7ba /home/dangcaominh/STM32MP1/atf/stm32mp1_atf/../build/opteemin-nand-stm32mp157d-ev1/bl2/stm32mp1_private.o
 .debug_str     0x000098a9      0x4d1 /home/dangcaominh/STM32MP1/atf/stm32mp1_atf/../build/opteemin-nand-stm32mp157d-ev1/bl2/stm32mp1_syscfg.o
 .debug_str     0x000098a9       0x6a /home/dangcaominh/STM32MP1/atf/stm32mp1_atf/../build/opteemin-nand-stm32mp157d-ev1/bl2/bl2_el3_entrypoint.o
 .debug_str     0x000098a9       0x5b /home/dangcaominh/STM32MP1/atf/stm32mp1_atf/../build/opteemin-nand-stm32mp157d-ev1/bl2/bl2_el3_exceptions.o
 .debug_str     0x000098a9       0x6e /home/dangcaominh/STM32MP1/atf/stm32mp1_atf/../build/opteemin-nand-stm32mp157d-ev1/bl2/bl2_run_next_image.o
 .debug_str     0x000098a9       0xbb /home/dangcaominh/STM32MP1/atf/stm32mp1_atf/../build/opteemin-nand-stm32mp157d-ev1/bl2/debug.o
 .debug_str     0x000098a9      0x101 /home/dangcaominh/STM32MP1/atf/stm32mp1_atf/../build/opteemin-nand-stm32mp157d-ev1/bl2/stm32_console.o
 .debug_str     0x000098a9       0xdf /home/dangcaominh/STM32MP1/atf/stm32mp1_atf/../build/opteemin-nand-stm32mp157d-ev1/bl2/cache_helpers.o
 .debug_str     0x000098a9       0xb5 /home/dangcaominh/STM32MP1/atf/stm32mp1_atf/../build/opteemin-nand-stm32mp157d-ev1/bl2/misc_helpers.o
 .debug_str     0x000098a9       0x79 /home/dangcaominh/STM32MP1/atf/stm32mp1_atf/../build/opteemin-nand-stm32mp157d-ev1/bl2/aeabi_uldivmod.o
 .debug_str     0x000098a9       0xc8 /home/dangcaominh/STM32MP1/atf/stm32mp1_atf/../build/opteemin-nand-stm32mp157d-ev1/bl2/cortex_a7.o
 .debug_str     0x000098a9       0xa5 /home/dangcaominh/STM32MP1/atf/stm32mp1_atf/../build/opteemin-nand-stm32mp157d-ev1/bl2/cpu_helpers.o
 .debug_str     0x000098a9       0x77 /home/dangcaominh/STM32MP1/atf/stm32mp1_atf/../build/opteemin-nand-stm32mp157d-ev1/bl2/spinlock.o
 .debug_str     0x000098a9       0x92 /home/dangcaominh/STM32MP1/atf/stm32mp1_atf/../build/opteemin-nand-stm32mp157d-ev1/bl2/enable_mmu.o
 .debug_str     0x000098a9       0x86 /home/dangcaominh/STM32MP1/atf/stm32mp1_atf/../build/opteemin-nand-stm32mp157d-ev1/bl2/platform_up_stack.o
 .debug_str     0x000098a9       0x86 /home/dangcaominh/STM32MP1/atf/stm32mp1_atf/../build/opteemin-nand-stm32mp157d-ev1/bl2/stm32mp1_critic_power_wrapper.o
 .debug_str     0x000098a9      0x19f /home/dangcaominh/STM32MP1/atf/stm32mp1_atf/../build/opteemin-nand-stm32mp157d-ev1/bl2/stm32mp1_helper.o
 .debug_str     0x000098a9      0x4bd /home/dangcaominh/STM32MP1/atf/stm32mp1_atf/../build/opteemin-nand-stm32mp157d-ev1/lib/libfdt.a(fdt.o)
 .debug_str     0x000098a9      0x2bd /home/dangcaominh/STM32MP1/atf/stm32mp1_atf/../build/opteemin-nand-stm32mp157d-ev1/lib/libfdt.a(fdt_addresses.o)
 .debug_str     0x000098a9      0x8cb /home/dangcaominh/STM32MP1/atf/stm32mp1_atf/../build/opteemin-nand-stm32mp157d-ev1/lib/libfdt.a(fdt_ro.o)
 .debug_str     0x000098a9      0x229 /home/dangcaominh/STM32MP1/atf/stm32mp1_atf/../build/opteemin-nand-stm32mp157d-ev1/lib/libc.a(assert.o)
 .debug_str     0x000098a9      0x184 /home/dangcaominh/STM32MP1/atf/stm32mp1_atf/../build/opteemin-nand-stm32mp157d-ev1/lib/libc.a(memchr.o)
 .debug_str     0x000098a9      0x184 /home/dangcaominh/STM32MP1/atf/stm32mp1_atf/../build/opteemin-nand-stm32mp157d-ev1/lib/libc.a(memcmp.o)
 .debug_str     0x000098a9      0x17b /home/dangcaominh/STM32MP1/atf/stm32mp1_atf/../build/opteemin-nand-stm32mp157d-ev1/lib/libc.a(memcpy.o)
 .debug_str     0x000098a9      0x184 /home/dangcaominh/STM32MP1/atf/stm32mp1_atf/../build/opteemin-nand-stm32mp157d-ev1/lib/libc.a(memmove.o)
 .debug_str     0x000098a9      0x1f9 /home/dangcaominh/STM32MP1/atf/stm32mp1_atf/../build/opteemin-nand-stm32mp157d-ev1/lib/libc.a(memset.o)
 .debug_str     0x000098a9      0x273 /home/dangcaominh/STM32MP1/atf/stm32mp1_atf/../build/opteemin-nand-stm32mp157d-ev1/lib/libc.a(printf.o)
 .debug_str     0x000098a9      0x2a3 /home/dangcaominh/STM32MP1/atf/stm32mp1_atf/../build/opteemin-nand-stm32mp157d-ev1/lib/libc.a(snprintf.o)
 .debug_str     0x000098a9      0x174 /home/dangcaominh/STM32MP1/atf/stm32mp1_atf/../build/opteemin-nand-stm32mp157d-ev1/lib/libc.a(strchr.o)
 .debug_str     0x000098a9      0x15d /home/dangcaominh/STM32MP1/atf/stm32mp1_atf/../build/opteemin-nand-stm32mp157d-ev1/lib/libc.a(strcmp.o)
 .debug_str     0x000098a9      0x1e5 /home/dangcaominh/STM32MP1/atf/stm32mp1_atf/../build/opteemin-nand-stm32mp157d-ev1/lib/libc.a(strlcpy.o)
 .debug_str     0x000098a9      0x182 /home/dangcaominh/STM32MP1/atf/stm32mp1_atf/../build/opteemin-nand-stm32mp157d-ev1/lib/libc.a(strlen.o)
 .debug_str     0x000098a9      0x17d /home/dangcaominh/STM32MP1/atf/stm32mp1_atf/../build/opteemin-nand-stm32mp157d-ev1/lib/libc.a(strncmp.o)
 .debug_str     0x000098a9      0x16d /home/dangcaominh/STM32MP1/atf/stm32mp1_atf/../build/opteemin-nand-stm32mp157d-ev1/lib/libc.a(strnlen.o)
 .debug_str     0x000098a9      0x17b /home/dangcaominh/STM32MP1/atf/stm32mp1_atf/../build/opteemin-nand-stm32mp157d-ev1/lib/libc.a(strrchr.o)

.comment        0x00000000       0x12
 .comment       0x00000000       0x12 /home/dangcaominh/STM32MP1/atf/stm32mp1_atf/../build/opteemin-nand-stm32mp157d-ev1/bl2/build_message.o
                                 0x13 (size before relaxing)
 .comment       0x00000012       0x13 /home/dangcaominh/STM32MP1/atf/stm32mp1_atf/../build/opteemin-nand-stm32mp157d-ev1/bl2/bl2_arch_setup.o
 .comment       0x00000012       0x13 /home/dangcaominh/STM32MP1/atf/stm32mp1_atf/../build/opteemin-nand-stm32mp157d-ev1/bl2/bl2_image_load_v2.o
 .comment       0x00000012       0x13 /home/dangcaominh/STM32MP1/atf/stm32mp1_atf/../build/opteemin-nand-stm32mp157d-ev1/bl2/bl2_main.o
 .comment       0x00000012       0x13 /home/dangcaominh/STM32MP1/atf/stm32mp1_atf/../build/opteemin-nand-stm32mp157d-ev1/bl2/bl_common.o
 .comment       0x00000012       0x13 /home/dangcaominh/STM32MP1/atf/stm32mp1_atf/../build/opteemin-nand-stm32mp157d-ev1/bl2/desc_image_load.o
 .comment       0x00000012       0x13 /home/dangcaominh/STM32MP1/atf/stm32mp1_atf/../build/opteemin-nand-stm32mp157d-ev1/bl2/fdt_wrappers.o
 .comment       0x00000012       0x13 /home/dangcaominh/STM32MP1/atf/stm32mp1_atf/../build/opteemin-nand-stm32mp157d-ev1/bl2/tf_log.o
 .comment       0x00000012       0x13 /home/dangcaominh/STM32MP1/atf/stm32mp1_atf/../build/opteemin-nand-stm32mp157d-ev1/bl2/uuid.o
 .comment       0x00000012       0x13 /home/dangcaominh/STM32MP1/atf/stm32mp1_atf/../build/opteemin-nand-stm32mp157d-ev1/bl2/tzc400.o
 .comment       0x00000012       0x13 /home/dangcaominh/STM32MP1/atf/stm32mp1_atf/../build/opteemin-nand-stm32mp157d-ev1/bl2/clk.o
 .comment       0x00000012       0x13 /home/dangcaominh/STM32MP1/atf/stm32mp1_atf/../build/opteemin-nand-stm32mp157d-ev1/bl2/multi_console.o
 .comment       0x00000012       0x13 /home/dangcaominh/STM32MP1/atf/stm32mp1_atf/../build/opteemin-nand-stm32mp157d-ev1/bl2/delay_timer.o
 .comment       0x00000012       0x13 /home/dangcaominh/STM32MP1/atf/stm32mp1_atf/../build/opteemin-nand-stm32mp157d-ev1/bl2/generic_delay_timer.o
 .comment       0x00000012       0x13 /home/dangcaominh/STM32MP1/atf/stm32mp1_atf/../build/opteemin-nand-stm32mp157d-ev1/bl2/fwu.o
 .comment       0x00000012       0x13 /home/dangcaominh/STM32MP1/atf/stm32mp1_atf/../build/opteemin-nand-stm32mp157d-ev1/bl2/io_fip.o
 .comment       0x00000012       0x13 /home/dangcaominh/STM32MP1/atf/stm32mp1_atf/../build/opteemin-nand-stm32mp157d-ev1/bl2/io_mtd.o
 .comment       0x00000012       0x13 /home/dangcaominh/STM32MP1/atf/stm32mp1_atf/../build/opteemin-nand-stm32mp157d-ev1/bl2/io_storage.o
 .comment       0x00000012       0x13 /home/dangcaominh/STM32MP1/atf/stm32mp1_atf/../build/opteemin-nand-stm32mp157d-ev1/bl2/core.o
 .comment       0x00000012       0x13 /home/dangcaominh/STM32MP1/atf/stm32mp1_atf/../build/opteemin-nand-stm32mp157d-ev1/bl2/raw_nand.o
 .comment       0x00000012       0x13 /home/dangcaominh/STM32MP1/atf/stm32mp1_atf/../build/opteemin-nand-stm32mp157d-ev1/bl2/bsec2.o
 .comment       0x00000012       0x13 /home/dangcaominh/STM32MP1/atf/stm32mp1_atf/../build/opteemin-nand-stm32mp157d-ev1/bl2/stm32mp1_clk.o
 .comment       0x00000012       0x13 /home/dangcaominh/STM32MP1/atf/stm32mp1_atf/../build/opteemin-nand-stm32mp157d-ev1/bl2/stm32mp_clkfunc.o
 .comment       0x00000012       0x13 /home/dangcaominh/STM32MP1/atf/stm32mp1_atf/../build/opteemin-nand-stm32mp157d-ev1/bl2/stm32mp1_ddr.o
 .comment       0x00000012       0x13 /home/dangcaominh/STM32MP1/atf/stm32mp1_atf/../build/opteemin-nand-stm32mp157d-ev1/bl2/stm32mp1_ddr_helpers.o
 .comment       0x00000012       0x13 /home/dangcaominh/STM32MP1/atf/stm32mp1_atf/../build/opteemin-nand-stm32mp157d-ev1/bl2/stm32mp1_ram.o
 .comment       0x00000012       0x13 /home/dangcaominh/STM32MP1/atf/stm32mp1_atf/../build/opteemin-nand-stm32mp157d-ev1/bl2/stm32mp_ddr.o
 .comment       0x00000012       0x13 /home/dangcaominh/STM32MP1/atf/stm32mp1_atf/../build/opteemin-nand-stm32mp157d-ev1/bl2/stm32mp_ddr_test.o
 .comment       0x00000012       0x13 /home/dangcaominh/STM32MP1/atf/stm32mp1_atf/../build/opteemin-nand-stm32mp157d-ev1/bl2/stm32mp_ram.o
 .comment       0x00000012       0x13 /home/dangcaominh/STM32MP1/atf/stm32mp1_atf/../build/opteemin-nand-stm32mp157d-ev1/bl2/stm32_fmc2_nand.o
 .comment       0x00000012       0x13 /home/dangcaominh/STM32MP1/atf/stm32mp1_atf/../build/opteemin-nand-stm32mp157d-ev1/bl2/stm32_gpio.o
 .comment       0x00000012       0x13 /home/dangcaominh/STM32MP1/atf/stm32mp1_atf/../build/opteemin-nand-stm32mp157d-ev1/bl2/stm32_i2c.o
 .comment       0x00000012       0x13 /home/dangcaominh/STM32MP1/atf/stm32mp1_atf/../build/opteemin-nand-stm32mp157d-ev1/bl2/stm32_iwdg.o
 .comment       0x00000012       0x13 /home/dangcaominh/STM32MP1/atf/stm32mp1_atf/../build/opteemin-nand-stm32mp157d-ev1/bl2/nvmem.o
 .comment       0x00000012       0x13 /home/dangcaominh/STM32MP1/atf/stm32mp1_atf/../build/opteemin-nand-stm32mp157d-ev1/bl2/stm32mp_tamp_nvram_core.o
 .comment       0x00000012       0x13 /home/dangcaominh/STM32MP1/atf/stm32mp1_atf/../build/opteemin-nand-stm32mp157d-ev1/bl2/stm32mp_tamp_nvram_mp1.o
 .comment       0x00000012       0x13 /home/dangcaominh/STM32MP1/atf/stm32mp1_atf/../build/opteemin-nand-stm32mp157d-ev1/bl2/stm32mp_pmic.o
 .comment       0x00000012       0x13 /home/dangcaominh/STM32MP1/atf/stm32mp1_atf/../build/opteemin-nand-stm32mp157d-ev1/bl2/stpmic1.o
 .comment       0x00000012       0x13 /home/dangcaominh/STM32MP1/atf/stm32mp1_atf/../build/opteemin-nand-stm32mp157d-ev1/bl2/regulator_core.o
 .comment       0x00000012       0x13 /home/dangcaominh/STM32MP1/atf/stm32mp1_atf/../build/opteemin-nand-stm32mp157d-ev1/bl2/regulator_fixed.o
 .comment       0x00000012       0x13 /home/dangcaominh/STM32MP1/atf/stm32mp1_atf/../build/opteemin-nand-stm32mp157d-ev1/bl2/stm32mp1_reset.o
 .comment       0x00000012       0x13 /home/dangcaominh/STM32MP1/atf/stm32mp1_atf/../build/opteemin-nand-stm32mp157d-ev1/bl2/ctzdi2.o
 .comment       0x00000012       0x13 /home/dangcaominh/STM32MP1/atf/stm32mp1_atf/../build/opteemin-nand-stm32mp157d-ev1/bl2/popcountsi2.o
 .comment       0x00000012       0x13 /home/dangcaominh/STM32MP1/atf/stm32mp1_atf/../build/opteemin-nand-stm32mp157d-ev1/bl2/udivmoddi4.o
 .comment       0x00000012       0x13 /home/dangcaominh/STM32MP1/atf/stm32mp1_atf/../build/opteemin-nand-stm32mp157d-ev1/bl2/fconf.o
 .comment       0x00000012       0x13 /home/dangcaominh/STM32MP1/atf/stm32mp1_atf/../build/opteemin-nand-stm32mp157d-ev1/bl2/fconf_dyn_cfg_getter.o
 .comment       0x00000012       0x13 /home/dangcaominh/STM32MP1/atf/stm32mp1_atf/../build/opteemin-nand-stm32mp157d-ev1/bl2/optee_utils.o
 .comment       0x00000012       0x13 /home/dangcaominh/STM32MP1/atf/stm32mp1_atf/../build/opteemin-nand-stm32mp157d-ev1/bl2/xlat_tables_arch.o
 .comment       0x00000012       0x13 /home/dangcaominh/STM32MP1/atf/stm32mp1_atf/../build/opteemin-nand-stm32mp157d-ev1/bl2/xlat_tables_context.o
 .comment       0x00000012       0x13 /home/dangcaominh/STM32MP1/atf/stm32mp1_atf/../build/opteemin-nand-stm32mp157d-ev1/bl2/xlat_tables_core.o
 .comment       0x00000012       0x13 /home/dangcaominh/STM32MP1/atf/stm32mp1_atf/../build/opteemin-nand-stm32mp157d-ev1/bl2/xlat_tables_utils.o
 .comment       0x00000012       0x13 /home/dangcaominh/STM32MP1/atf/stm32mp1_atf/../build/opteemin-nand-stm32mp157d-ev1/bl2/crc32.o
 .comment       0x00000012       0x13 /home/dangcaominh/STM32MP1/atf/stm32mp1_atf/../build/opteemin-nand-stm32mp157d-ev1/bl2/tf_gunzip.o
 .comment       0x00000012       0x13 /home/dangcaominh/STM32MP1/atf/stm32mp1_atf/../build/opteemin-nand-stm32mp157d-ev1/bl2/plat_bl_common.o
 .comment       0x00000012       0x13 /home/dangcaominh/STM32MP1/atf/stm32mp1_atf/../build/opteemin-nand-stm32mp157d-ev1/bl2/plat_log_common.o
 .comment       0x00000012       0x13 /home/dangcaominh/STM32MP1/atf/stm32mp1_atf/../build/opteemin-nand-stm32mp157d-ev1/bl2/bl2_io_storage.o
 .comment       0x00000012       0x13 /home/dangcaominh/STM32MP1/atf/stm32mp1_atf/../build/opteemin-nand-stm32mp157d-ev1/bl2/plat_image_load.o
 .comment       0x00000012       0x13 /home/dangcaominh/STM32MP1/atf/stm32mp1_atf/../build/opteemin-nand-stm32mp157d-ev1/bl2/stm32mp_common.o
 .comment       0x00000012       0x13 /home/dangcaominh/STM32MP1/atf/stm32mp1_atf/../build/opteemin-nand-stm32mp157d-ev1/bl2/stm32mp_dt.o
 .comment       0x00000012       0x13 /home/dangcaominh/STM32MP1/atf/stm32mp1_atf/../build/opteemin-nand-stm32mp157d-ev1/bl2/stm32mp_fconf_fuse.o
 .comment       0x00000012       0x13 /home/dangcaominh/STM32MP1/atf/stm32mp1_atf/../build/opteemin-nand-stm32mp157d-ev1/bl2/stm32mp_fconf_io.o
 .comment       0x00000012       0x13 /home/dangcaominh/STM32MP1/atf/stm32mp1_atf/../build/opteemin-nand-stm32mp157d-ev1/bl2/bl2_plat_setup.o
 .comment       0x00000012       0x13 /home/dangcaominh/STM32MP1/atf/stm32mp1_atf/../build/opteemin-nand-stm32mp157d-ev1/bl2/plat_bl2_mem_params_desc.o
 .comment       0x00000012       0x13 /home/dangcaominh/STM32MP1/atf/stm32mp1_atf/../build/opteemin-nand-stm32mp157d-ev1/bl2/plat_ddr.o
 .comment       0x00000012       0x13 /home/dangcaominh/STM32MP1/atf/stm32mp1_atf/../build/opteemin-nand-stm32mp157d-ev1/bl2/stm32mp1_boot_device.o
 .comment       0x00000012       0x13 /home/dangcaominh/STM32MP1/atf/stm32mp1_atf/../build/opteemin-nand-stm32mp157d-ev1/bl2/stm32mp1_context.o
 .comment       0x00000012       0x13 /home/dangcaominh/STM32MP1/atf/stm32mp1_atf/../build/opteemin-nand-stm32mp157d-ev1/bl2/stm32mp1_critic_power.o
 .comment       0x00000012       0x13 /home/dangcaominh/STM32MP1/atf/stm32mp1_atf/../build/opteemin-nand-stm32mp157d-ev1/bl2/stm32mp1_dbgmcu.o
 .comment       0x00000012       0x13 /home/dangcaominh/STM32MP1/atf/stm32mp1_atf/../build/opteemin-nand-stm32mp157d-ev1/bl2/stm32mp1_fconf_firewall.o
 .comment       0x00000012       0x13 /home/dangcaominh/STM32MP1/atf/stm32mp1_atf/../build/opteemin-nand-stm32mp157d-ev1/bl2/stm32mp1_private.o
 .comment       0x00000012       0x13 /home/dangcaominh/STM32MP1/atf/stm32mp1_atf/../build/opteemin-nand-stm32mp157d-ev1/bl2/stm32mp1_syscfg.o
 .comment       0x00000012       0x13 /home/dangcaominh/STM32MP1/atf/stm32mp1_atf/../build/opteemin-nand-stm32mp157d-ev1/lib/libfdt.a(fdt.o)
 .comment       0x00000012       0x13 /home/dangcaominh/STM32MP1/atf/stm32mp1_atf/../build/opteemin-nand-stm32mp157d-ev1/lib/libfdt.a(fdt_addresses.o)
 .comment       0x00000012       0x13 /home/dangcaominh/STM32MP1/atf/stm32mp1_atf/../build/opteemin-nand-stm32mp157d-ev1/lib/libfdt.a(fdt_ro.o)
 .comment       0x00000012       0x13 /home/dangcaominh/STM32MP1/atf/stm32mp1_atf/../build/opteemin-nand-stm32mp157d-ev1/lib/libc.a(assert.o)
 .comment       0x00000012       0x13 /home/dangcaominh/STM32MP1/atf/stm32mp1_atf/../build/opteemin-nand-stm32mp157d-ev1/lib/libc.a(memchr.o)
 .comment       0x00000012       0x13 /home/dangcaominh/STM32MP1/atf/stm32mp1_atf/../build/opteemin-nand-stm32mp157d-ev1/lib/libc.a(memcmp.o)
 .comment       0x00000012       0x13 /home/dangcaominh/STM32MP1/atf/stm32mp1_atf/../build/opteemin-nand-stm32mp157d-ev1/lib/libc.a(memcpy.o)
 .comment       0x00000012       0x13 /home/dangcaominh/STM32MP1/atf/stm32mp1_atf/../build/opteemin-nand-stm32mp157d-ev1/lib/libc.a(memmove.o)
 .comment       0x00000012       0x13 /home/dangcaominh/STM32MP1/atf/stm32mp1_atf/../build/opteemin-nand-stm32mp157d-ev1/lib/libc.a(memset.o)
 .comment       0x00000012       0x13 /home/dangcaominh/STM32MP1/atf/stm32mp1_atf/../build/opteemin-nand-stm32mp157d-ev1/lib/libc.a(printf.o)
 .comment       0x00000012       0x13 /home/dangcaominh/STM32MP1/atf/stm32mp1_atf/../build/opteemin-nand-stm32mp157d-ev1/lib/libc.a(snprintf.o)
 .comment       0x00000012       0x13 /home/dangcaominh/STM32MP1/atf/stm32mp1_atf/../build/opteemin-nand-stm32mp157d-ev1/lib/libc.a(strchr.o)
 .comment       0x00000012       0x13 /home/dangcaominh/STM32MP1/atf/stm32mp1_atf/../build/opteemin-nand-stm32mp157d-ev1/lib/libc.a(strcmp.o)
 .comment       0x00000012       0x13 /home/dangcaominh/STM32MP1/atf/stm32mp1_atf/../build/opteemin-nand-stm32mp157d-ev1/lib/libc.a(strlcpy.o)
 .comment       0x00000012       0x13 /home/dangcaominh/STM32MP1/atf/stm32mp1_atf/../build/opteemin-nand-stm32mp157d-ev1/lib/libc.a(strlen.o)
 .comment       0x00000012       0x13 /home/dangcaominh/STM32MP1/atf/stm32mp1_atf/../build/opteemin-nand-stm32mp157d-ev1/lib/libc.a(strncmp.o)
 .comment       0x00000012       0x13 /home/dangcaominh/STM32MP1/atf/stm32mp1_atf/../build/opteemin-nand-stm32mp157d-ev1/lib/libc.a(strnlen.o)
 .comment       0x00000012       0x13 /home/dangcaominh/STM32MP1/atf/stm32mp1_atf/../build/opteemin-nand-stm32mp157d-ev1/lib/libc.a(strrchr.o)

.note.GNU-stack
                0x00000000        0x0
 .note.GNU-stack
                0x00000000        0x0 /home/dangcaominh/STM32MP1/atf/stm32mp1_atf/../build/opteemin-nand-stm32mp157d-ev1/bl2/build_message.o
 .note.GNU-stack
                0x00000000        0x0 /home/dangcaominh/STM32MP1/atf/stm32mp1_atf/../build/opteemin-nand-stm32mp157d-ev1/bl2/bl2_arch_setup.o
 .note.GNU-stack
                0x00000000        0x0 /home/dangcaominh/STM32MP1/atf/stm32mp1_atf/../build/opteemin-nand-stm32mp157d-ev1/bl2/bl2_image_load_v2.o
 .note.GNU-stack
                0x00000000        0x0 /home/dangcaominh/STM32MP1/atf/stm32mp1_atf/../build/opteemin-nand-stm32mp157d-ev1/bl2/bl2_main.o
 .note.GNU-stack
                0x00000000        0x0 /home/dangcaominh/STM32MP1/atf/stm32mp1_atf/../build/opteemin-nand-stm32mp157d-ev1/bl2/bl_common.o
 .note.GNU-stack
                0x00000000        0x0 /home/dangcaominh/STM32MP1/atf/stm32mp1_atf/../build/opteemin-nand-stm32mp157d-ev1/bl2/desc_image_load.o
 .note.GNU-stack
                0x00000000        0x0 /home/dangcaominh/STM32MP1/atf/stm32mp1_atf/../build/opteemin-nand-stm32mp157d-ev1/bl2/fdt_wrappers.o
 .note.GNU-stack
                0x00000000        0x0 /home/dangcaominh/STM32MP1/atf/stm32mp1_atf/../build/opteemin-nand-stm32mp157d-ev1/bl2/tf_log.o
 .note.GNU-stack
                0x00000000        0x0 /home/dangcaominh/STM32MP1/atf/stm32mp1_atf/../build/opteemin-nand-stm32mp157d-ev1/bl2/uuid.o
 .note.GNU-stack
                0x00000000        0x0 /home/dangcaominh/STM32MP1/atf/stm32mp1_atf/../build/opteemin-nand-stm32mp157d-ev1/bl2/tzc400.o
 .note.GNU-stack
                0x00000000        0x0 /home/dangcaominh/STM32MP1/atf/stm32mp1_atf/../build/opteemin-nand-stm32mp157d-ev1/bl2/clk.o
 .note.GNU-stack
                0x00000000        0x0 /home/dangcaominh/STM32MP1/atf/stm32mp1_atf/../build/opteemin-nand-stm32mp157d-ev1/bl2/multi_console.o
 .note.GNU-stack
                0x00000000        0x0 /home/dangcaominh/STM32MP1/atf/stm32mp1_atf/../build/opteemin-nand-stm32mp157d-ev1/bl2/delay_timer.o
 .note.GNU-stack
                0x00000000        0x0 /home/dangcaominh/STM32MP1/atf/stm32mp1_atf/../build/opteemin-nand-stm32mp157d-ev1/bl2/generic_delay_timer.o
 .note.GNU-stack
                0x00000000        0x0 /home/dangcaominh/STM32MP1/atf/stm32mp1_atf/../build/opteemin-nand-stm32mp157d-ev1/bl2/fwu.o
 .note.GNU-stack
                0x00000000        0x0 /home/dangcaominh/STM32MP1/atf/stm32mp1_atf/../build/opteemin-nand-stm32mp157d-ev1/bl2/io_fip.o
 .note.GNU-stack
                0x00000000        0x0 /home/dangcaominh/STM32MP1/atf/stm32mp1_atf/../build/opteemin-nand-stm32mp157d-ev1/bl2/io_mtd.o
 .note.GNU-stack
                0x00000000        0x0 /home/dangcaominh/STM32MP1/atf/stm32mp1_atf/../build/opteemin-nand-stm32mp157d-ev1/bl2/io_storage.o
 .note.GNU-stack
                0x00000000        0x0 /home/dangcaominh/STM32MP1/atf/stm32mp1_atf/../build/opteemin-nand-stm32mp157d-ev1/bl2/core.o
 .note.GNU-stack
                0x00000000        0x0 /home/dangcaominh/STM32MP1/atf/stm32mp1_atf/../build/opteemin-nand-stm32mp157d-ev1/bl2/raw_nand.o
 .note.GNU-stack
                0x00000000        0x0 /home/dangcaominh/STM32MP1/atf/stm32mp1_atf/../build/opteemin-nand-stm32mp157d-ev1/bl2/bsec2.o
 .note.GNU-stack
                0x00000000        0x0 /home/dangcaominh/STM32MP1/atf/stm32mp1_atf/../build/opteemin-nand-stm32mp157d-ev1/bl2/stm32mp1_clk.o
 .note.GNU-stack
                0x00000000        0x0 /home/dangcaominh/STM32MP1/atf/stm32mp1_atf/../build/opteemin-nand-stm32mp157d-ev1/bl2/stm32mp_clkfunc.o
 .note.GNU-stack
                0x00000000        0x0 /home/dangcaominh/STM32MP1/atf/stm32mp1_atf/../build/opteemin-nand-stm32mp157d-ev1/bl2/stm32mp1_ddr.o
 .note.GNU-stack
                0x00000000        0x0 /home/dangcaominh/STM32MP1/atf/stm32mp1_atf/../build/opteemin-nand-stm32mp157d-ev1/bl2/stm32mp1_ddr_helpers.o
 .note.GNU-stack
                0x00000000        0x0 /home/dangcaominh/STM32MP1/atf/stm32mp1_atf/../build/opteemin-nand-stm32mp157d-ev1/bl2/stm32mp1_ram.o
 .note.GNU-stack
                0x00000000        0x0 /home/dangcaominh/STM32MP1/atf/stm32mp1_atf/../build/opteemin-nand-stm32mp157d-ev1/bl2/stm32mp_ddr.o
 .note.GNU-stack
                0x00000000        0x0 /home/dangcaominh/STM32MP1/atf/stm32mp1_atf/../build/opteemin-nand-stm32mp157d-ev1/bl2/stm32mp_ddr_test.o
 .note.GNU-stack
                0x00000000        0x0 /home/dangcaominh/STM32MP1/atf/stm32mp1_atf/../build/opteemin-nand-stm32mp157d-ev1/bl2/stm32mp_ram.o
 .note.GNU-stack
                0x00000000        0x0 /home/dangcaominh/STM32MP1/atf/stm32mp1_atf/../build/opteemin-nand-stm32mp157d-ev1/bl2/stm32_fmc2_nand.o
 .note.GNU-stack
                0x00000000        0x0 /home/dangcaominh/STM32MP1/atf/stm32mp1_atf/../build/opteemin-nand-stm32mp157d-ev1/bl2/stm32_gpio.o
 .note.GNU-stack
                0x00000000        0x0 /home/dangcaominh/STM32MP1/atf/stm32mp1_atf/../build/opteemin-nand-stm32mp157d-ev1/bl2/stm32_i2c.o
 .note.GNU-stack
                0x00000000        0x0 /home/dangcaominh/STM32MP1/atf/stm32mp1_atf/../build/opteemin-nand-stm32mp157d-ev1/bl2/stm32_iwdg.o
 .note.GNU-stack
                0x00000000        0x0 /home/dangcaominh/STM32MP1/atf/stm32mp1_atf/../build/opteemin-nand-stm32mp157d-ev1/bl2/nvmem.o
 .note.GNU-stack
                0x00000000        0x0 /home/dangcaominh/STM32MP1/atf/stm32mp1_atf/../build/opteemin-nand-stm32mp157d-ev1/bl2/stm32mp_tamp_nvram_core.o
 .note.GNU-stack
                0x00000000        0x0 /home/dangcaominh/STM32MP1/atf/stm32mp1_atf/../build/opteemin-nand-stm32mp157d-ev1/bl2/stm32mp_tamp_nvram_mp1.o
 .note.GNU-stack
                0x00000000        0x0 /home/dangcaominh/STM32MP1/atf/stm32mp1_atf/../build/opteemin-nand-stm32mp157d-ev1/bl2/stm32mp_pmic.o
 .note.GNU-stack
                0x00000000        0x0 /home/dangcaominh/STM32MP1/atf/stm32mp1_atf/../build/opteemin-nand-stm32mp157d-ev1/bl2/stpmic1.o
 .note.GNU-stack
                0x00000000        0x0 /home/dangcaominh/STM32MP1/atf/stm32mp1_atf/../build/opteemin-nand-stm32mp157d-ev1/bl2/regulator_core.o
 .note.GNU-stack
                0x00000000        0x0 /home/dangcaominh/STM32MP1/atf/stm32mp1_atf/../build/opteemin-nand-stm32mp157d-ev1/bl2/regulator_fixed.o
 .note.GNU-stack
                0x00000000        0x0 /home/dangcaominh/STM32MP1/atf/stm32mp1_atf/../build/opteemin-nand-stm32mp157d-ev1/bl2/stm32mp1_reset.o
 .note.GNU-stack
                0x00000000        0x0 /home/dangcaominh/STM32MP1/atf/stm32mp1_atf/../build/opteemin-nand-stm32mp157d-ev1/bl2/ctzdi2.o
 .note.GNU-stack
                0x00000000        0x0 /home/dangcaominh/STM32MP1/atf/stm32mp1_atf/../build/opteemin-nand-stm32mp157d-ev1/bl2/popcountsi2.o
 .note.GNU-stack
                0x00000000        0x0 /home/dangcaominh/STM32MP1/atf/stm32mp1_atf/../build/opteemin-nand-stm32mp157d-ev1/bl2/udivmoddi4.o
 .note.GNU-stack
                0x00000000        0x0 /home/dangcaominh/STM32MP1/atf/stm32mp1_atf/../build/opteemin-nand-stm32mp157d-ev1/bl2/fconf.o
 .note.GNU-stack
                0x00000000        0x0 /home/dangcaominh/STM32MP1/atf/stm32mp1_atf/../build/opteemin-nand-stm32mp157d-ev1/bl2/fconf_dyn_cfg_getter.o
 .note.GNU-stack
                0x00000000        0x0 /home/dangcaominh/STM32MP1/atf/stm32mp1_atf/../build/opteemin-nand-stm32mp157d-ev1/bl2/optee_utils.o
 .note.GNU-stack
                0x00000000        0x0 /home/dangcaominh/STM32MP1/atf/stm32mp1_atf/../build/opteemin-nand-stm32mp157d-ev1/bl2/xlat_tables_arch.o
 .note.GNU-stack
                0x00000000        0x0 /home/dangcaominh/STM32MP1/atf/stm32mp1_atf/../build/opteemin-nand-stm32mp157d-ev1/bl2/xlat_tables_context.o
 .note.GNU-stack
                0x00000000        0x0 /home/dangcaominh/STM32MP1/atf/stm32mp1_atf/../build/opteemin-nand-stm32mp157d-ev1/bl2/xlat_tables_core.o
 .note.GNU-stack
                0x00000000        0x0 /home/dangcaominh/STM32MP1/atf/stm32mp1_atf/../build/opteemin-nand-stm32mp157d-ev1/bl2/xlat_tables_utils.o
 .note.GNU-stack
                0x00000000        0x0 /home/dangcaominh/STM32MP1/atf/stm32mp1_atf/../build/opteemin-nand-stm32mp157d-ev1/bl2/crc32.o
 .note.GNU-stack
                0x00000000        0x0 /home/dangcaominh/STM32MP1/atf/stm32mp1_atf/../build/opteemin-nand-stm32mp157d-ev1/bl2/tf_gunzip.o
 .note.GNU-stack
                0x00000000        0x0 /home/dangcaominh/STM32MP1/atf/stm32mp1_atf/../build/opteemin-nand-stm32mp157d-ev1/bl2/plat_bl_common.o
 .note.GNU-stack
                0x00000000        0x0 /home/dangcaominh/STM32MP1/atf/stm32mp1_atf/../build/opteemin-nand-stm32mp157d-ev1/bl2/plat_log_common.o
 .note.GNU-stack
                0x00000000        0x0 /home/dangcaominh/STM32MP1/atf/stm32mp1_atf/../build/opteemin-nand-stm32mp157d-ev1/bl2/bl2_io_storage.o
 .note.GNU-stack
                0x00000000        0x0 /home/dangcaominh/STM32MP1/atf/stm32mp1_atf/../build/opteemin-nand-stm32mp157d-ev1/bl2/plat_image_load.o
 .note.GNU-stack
                0x00000000        0x0 /home/dangcaominh/STM32MP1/atf/stm32mp1_atf/../build/opteemin-nand-stm32mp157d-ev1/bl2/stm32mp_common.o
 .note.GNU-stack
                0x00000000        0x0 /home/dangcaominh/STM32MP1/atf/stm32mp1_atf/../build/opteemin-nand-stm32mp157d-ev1/bl2/stm32mp_dt.o
 .note.GNU-stack
                0x00000000        0x0 /home/dangcaominh/STM32MP1/atf/stm32mp1_atf/../build/opteemin-nand-stm32mp157d-ev1/bl2/stm32mp_fconf_fuse.o
 .note.GNU-stack
                0x00000000        0x0 /home/dangcaominh/STM32MP1/atf/stm32mp1_atf/../build/opteemin-nand-stm32mp157d-ev1/bl2/stm32mp_fconf_io.o
 .note.GNU-stack
                0x00000000        0x0 /home/dangcaominh/STM32MP1/atf/stm32mp1_atf/../build/opteemin-nand-stm32mp157d-ev1/bl2/bl2_plat_setup.o
 .note.GNU-stack
                0x00000000        0x0 /home/dangcaominh/STM32MP1/atf/stm32mp1_atf/../build/opteemin-nand-stm32mp157d-ev1/bl2/plat_bl2_mem_params_desc.o
 .note.GNU-stack
                0x00000000        0x0 /home/dangcaominh/STM32MP1/atf/stm32mp1_atf/../build/opteemin-nand-stm32mp157d-ev1/bl2/plat_ddr.o
 .note.GNU-stack
                0x00000000        0x0 /home/dangcaominh/STM32MP1/atf/stm32mp1_atf/../build/opteemin-nand-stm32mp157d-ev1/bl2/stm32mp1_boot_device.o
 .note.GNU-stack
                0x00000000        0x0 /home/dangcaominh/STM32MP1/atf/stm32mp1_atf/../build/opteemin-nand-stm32mp157d-ev1/bl2/stm32mp1_context.o
 .note.GNU-stack
                0x00000000        0x0 /home/dangcaominh/STM32MP1/atf/stm32mp1_atf/../build/opteemin-nand-stm32mp157d-ev1/bl2/stm32mp1_critic_power.o
 .note.GNU-stack
                0x00000000        0x0 /home/dangcaominh/STM32MP1/atf/stm32mp1_atf/../build/opteemin-nand-stm32mp157d-ev1/bl2/stm32mp1_dbgmcu.o
 .note.GNU-stack
                0x00000000        0x0 /home/dangcaominh/STM32MP1/atf/stm32mp1_atf/../build/opteemin-nand-stm32mp157d-ev1/bl2/stm32mp1_fconf_firewall.o
 .note.GNU-stack
                0x00000000        0x0 /home/dangcaominh/STM32MP1/atf/stm32mp1_atf/../build/opteemin-nand-stm32mp157d-ev1/bl2/stm32mp1_private.o
 .note.GNU-stack
                0x00000000        0x0 /home/dangcaominh/STM32MP1/atf/stm32mp1_atf/../build/opteemin-nand-stm32mp157d-ev1/bl2/stm32mp1_syscfg.o
 .note.GNU-stack
                0x00000000        0x0 /home/dangcaominh/STM32MP1/atf/stm32mp1_atf/../build/opteemin-nand-stm32mp157d-ev1/bl2/aeabi_uldivmod.o
 .note.GNU-stack
                0x00000000        0x0 /home/dangcaominh/STM32MP1/atf/stm32mp1_atf/../build/opteemin-nand-stm32mp157d-ev1/lib/libfdt.a(fdt.o)
 .note.GNU-stack
                0x00000000        0x0 /home/dangcaominh/STM32MP1/atf/stm32mp1_atf/../build/opteemin-nand-stm32mp157d-ev1/lib/libfdt.a(fdt_addresses.o)
 .note.GNU-stack
                0x00000000        0x0 /home/dangcaominh/STM32MP1/atf/stm32mp1_atf/../build/opteemin-nand-stm32mp157d-ev1/lib/libfdt.a(fdt_ro.o)
 .note.GNU-stack
                0x00000000        0x0 /home/dangcaominh/STM32MP1/atf/stm32mp1_atf/../build/opteemin-nand-stm32mp157d-ev1/lib/libc.a(assert.o)
 .note.GNU-stack
                0x00000000        0x0 /home/dangcaominh/STM32MP1/atf/stm32mp1_atf/../build/opteemin-nand-stm32mp157d-ev1/lib/libc.a(memchr.o)
 .note.GNU-stack
                0x00000000        0x0 /home/dangcaominh/STM32MP1/atf/stm32mp1_atf/../build/opteemin-nand-stm32mp157d-ev1/lib/libc.a(memcmp.o)
 .note.GNU-stack
                0x00000000        0x0 /home/dangcaominh/STM32MP1/atf/stm32mp1_atf/../build/opteemin-nand-stm32mp157d-ev1/lib/libc.a(memcpy.o)
 .note.GNU-stack
                0x00000000        0x0 /home/dangcaominh/STM32MP1/atf/stm32mp1_atf/../build/opteemin-nand-stm32mp157d-ev1/lib/libc.a(memmove.o)
 .note.GNU-stack
                0x00000000        0x0 /home/dangcaominh/STM32MP1/atf/stm32mp1_atf/../build/opteemin-nand-stm32mp157d-ev1/lib/libc.a(memset.o)
 .note.GNU-stack
                0x00000000        0x0 /home/dangcaominh/STM32MP1/atf/stm32mp1_atf/../build/opteemin-nand-stm32mp157d-ev1/lib/libc.a(printf.o)
 .note.GNU-stack
                0x00000000        0x0 /home/dangcaominh/STM32MP1/atf/stm32mp1_atf/../build/opteemin-nand-stm32mp157d-ev1/lib/libc.a(snprintf.o)
 .note.GNU-stack
                0x00000000        0x0 /home/dangcaominh/STM32MP1/atf/stm32mp1_atf/../build/opteemin-nand-stm32mp157d-ev1/lib/libc.a(strchr.o)
 .note.GNU-stack
                0x00000000        0x0 /home/dangcaominh/STM32MP1/atf/stm32mp1_atf/../build/opteemin-nand-stm32mp157d-ev1/lib/libc.a(strcmp.o)
 .note.GNU-stack
                0x00000000        0x0 /home/dangcaominh/STM32MP1/atf/stm32mp1_atf/../build/opteemin-nand-stm32mp157d-ev1/lib/libc.a(strlcpy.o)
 .note.GNU-stack
                0x00000000        0x0 /home/dangcaominh/STM32MP1/atf/stm32mp1_atf/../build/opteemin-nand-stm32mp157d-ev1/lib/libc.a(strlen.o)
 .note.GNU-stack
                0x00000000        0x0 /home/dangcaominh/STM32MP1/atf/stm32mp1_atf/../build/opteemin-nand-stm32mp157d-ev1/lib/libc.a(strncmp.o)
 .note.GNU-stack
                0x00000000        0x0 /home/dangcaominh/STM32MP1/atf/stm32mp1_atf/../build/opteemin-nand-stm32mp157d-ev1/lib/libc.a(strnlen.o)
 .note.GNU-stack
                0x00000000        0x0 /home/dangcaominh/STM32MP1/atf/stm32mp1_atf/../build/opteemin-nand-stm32mp157d-ev1/lib/libc.a(strrchr.o)

.ARM.attributes
                0x00000000       0x35
 .ARM.attributes
                0x00000000       0x33 /home/dangcaominh/STM32MP1/atf/stm32mp1_atf/../build/opteemin-nand-stm32mp157d-ev1/bl2/build_message.o
 .ARM.attributes
                0x00000033       0x33 /home/dangcaominh/STM32MP1/atf/stm32mp1_atf/../build/opteemin-nand-stm32mp157d-ev1/bl2/bl2_arch_setup.o
 .ARM.attributes
                0x00000066       0x33 /home/dangcaominh/STM32MP1/atf/stm32mp1_atf/../build/opteemin-nand-stm32mp157d-ev1/bl2/bl2_image_load_v2.o
 .ARM.attributes
                0x00000099       0x33 /home/dangcaominh/STM32MP1/atf/stm32mp1_atf/../build/opteemin-nand-stm32mp157d-ev1/bl2/bl2_main.o
 .ARM.attributes
                0x000000cc       0x33 /home/dangcaominh/STM32MP1/atf/stm32mp1_atf/../build/opteemin-nand-stm32mp157d-ev1/bl2/bl_common.o
 .ARM.attributes
                0x000000ff       0x33 /home/dangcaominh/STM32MP1/atf/stm32mp1_atf/../build/opteemin-nand-stm32mp157d-ev1/bl2/desc_image_load.o
 .ARM.attributes
                0x00000132       0x33 /home/dangcaominh/STM32MP1/atf/stm32mp1_atf/../build/opteemin-nand-stm32mp157d-ev1/bl2/fdt_wrappers.o
 .ARM.attributes
                0x00000165       0x33 /home/dangcaominh/STM32MP1/atf/stm32mp1_atf/../build/opteemin-nand-stm32mp157d-ev1/bl2/tf_log.o
 .ARM.attributes
                0x00000198       0x33 /home/dangcaominh/STM32MP1/atf/stm32mp1_atf/../build/opteemin-nand-stm32mp157d-ev1/bl2/uuid.o
 .ARM.attributes
                0x000001cb       0x33 /home/dangcaominh/STM32MP1/atf/stm32mp1_atf/../build/opteemin-nand-stm32mp157d-ev1/bl2/tzc400.o
 .ARM.attributes
                0x000001fe       0x33 /home/dangcaominh/STM32MP1/atf/stm32mp1_atf/../build/opteemin-nand-stm32mp157d-ev1/bl2/clk.o
 .ARM.attributes
                0x00000231       0x33 /home/dangcaominh/STM32MP1/atf/stm32mp1_atf/../build/opteemin-nand-stm32mp157d-ev1/bl2/multi_console.o
 .ARM.attributes
                0x00000264       0x33 /home/dangcaominh/STM32MP1/atf/stm32mp1_atf/../build/opteemin-nand-stm32mp157d-ev1/bl2/delay_timer.o
 .ARM.attributes
                0x00000297       0x33 /home/dangcaominh/STM32MP1/atf/stm32mp1_atf/../build/opteemin-nand-stm32mp157d-ev1/bl2/generic_delay_timer.o
 .ARM.attributes
                0x000002ca       0x33 /home/dangcaominh/STM32MP1/atf/stm32mp1_atf/../build/opteemin-nand-stm32mp157d-ev1/bl2/fwu.o
 .ARM.attributes
                0x000002fd       0x33 /home/dangcaominh/STM32MP1/atf/stm32mp1_atf/../build/opteemin-nand-stm32mp157d-ev1/bl2/io_fip.o
 .ARM.attributes
                0x00000330       0x33 /home/dangcaominh/STM32MP1/atf/stm32mp1_atf/../build/opteemin-nand-stm32mp157d-ev1/bl2/io_mtd.o
 .ARM.attributes
                0x00000363       0x33 /home/dangcaominh/STM32MP1/atf/stm32mp1_atf/../build/opteemin-nand-stm32mp157d-ev1/bl2/io_storage.o
 .ARM.attributes
                0x00000396       0x33 /home/dangcaominh/STM32MP1/atf/stm32mp1_atf/../build/opteemin-nand-stm32mp157d-ev1/bl2/core.o
 .ARM.attributes
                0x000003c9       0x33 /home/dangcaominh/STM32MP1/atf/stm32mp1_atf/../build/opteemin-nand-stm32mp157d-ev1/bl2/raw_nand.o
 .ARM.attributes
                0x000003fc       0x33 /home/dangcaominh/STM32MP1/atf/stm32mp1_atf/../build/opteemin-nand-stm32mp157d-ev1/bl2/bsec2.o
 .ARM.attributes
                0x0000042f       0x33 /home/dangcaominh/STM32MP1/atf/stm32mp1_atf/../build/opteemin-nand-stm32mp157d-ev1/bl2/stm32mp1_clk.o
 .ARM.attributes
                0x00000462       0x33 /home/dangcaominh/STM32MP1/atf/stm32mp1_atf/../build/opteemin-nand-stm32mp157d-ev1/bl2/stm32mp_clkfunc.o
 .ARM.attributes
                0x00000495       0x33 /home/dangcaominh/STM32MP1/atf/stm32mp1_atf/../build/opteemin-nand-stm32mp157d-ev1/bl2/stm32mp1_ddr.o
 .ARM.attributes
                0x000004c8       0x33 /home/dangcaominh/STM32MP1/atf/stm32mp1_atf/../build/opteemin-nand-stm32mp157d-ev1/bl2/stm32mp1_ddr_helpers.o
 .ARM.attributes
                0x000004fb       0x33 /home/dangcaominh/STM32MP1/atf/stm32mp1_atf/../build/opteemin-nand-stm32mp157d-ev1/bl2/stm32mp1_ram.o
 .ARM.attributes
                0x0000052e       0x33 /home/dangcaominh/STM32MP1/atf/stm32mp1_atf/../build/opteemin-nand-stm32mp157d-ev1/bl2/stm32mp_ddr.o
 .ARM.attributes
                0x00000561       0x33 /home/dangcaominh/STM32MP1/atf/stm32mp1_atf/../build/opteemin-nand-stm32mp157d-ev1/bl2/stm32mp_ddr_test.o
 .ARM.attributes
                0x00000594       0x33 /home/dangcaominh/STM32MP1/atf/stm32mp1_atf/../build/opteemin-nand-stm32mp157d-ev1/bl2/stm32mp_ram.o
 .ARM.attributes
                0x000005c7       0x33 /home/dangcaominh/STM32MP1/atf/stm32mp1_atf/../build/opteemin-nand-stm32mp157d-ev1/bl2/stm32_fmc2_nand.o
 .ARM.attributes
                0x000005fa       0x33 /home/dangcaominh/STM32MP1/atf/stm32mp1_atf/../build/opteemin-nand-stm32mp157d-ev1/bl2/stm32_gpio.o
 .ARM.attributes
                0x0000062d       0x33 /home/dangcaominh/STM32MP1/atf/stm32mp1_atf/../build/opteemin-nand-stm32mp157d-ev1/bl2/stm32_i2c.o
 .ARM.attributes
                0x00000660       0x33 /home/dangcaominh/STM32MP1/atf/stm32mp1_atf/../build/opteemin-nand-stm32mp157d-ev1/bl2/stm32_iwdg.o
 .ARM.attributes
                0x00000693       0x33 /home/dangcaominh/STM32MP1/atf/stm32mp1_atf/../build/opteemin-nand-stm32mp157d-ev1/bl2/nvmem.o
 .ARM.attributes
                0x000006c6       0x33 /home/dangcaominh/STM32MP1/atf/stm32mp1_atf/../build/opteemin-nand-stm32mp157d-ev1/bl2/stm32mp_tamp_nvram_core.o
 .ARM.attributes
                0x000006f9       0x33 /home/dangcaominh/STM32MP1/atf/stm32mp1_atf/../build/opteemin-nand-stm32mp157d-ev1/bl2/stm32mp_tamp_nvram_mp1.o
 .ARM.attributes
                0x0000072c       0x33 /home/dangcaominh/STM32MP1/atf/stm32mp1_atf/../build/opteemin-nand-stm32mp157d-ev1/bl2/stm32mp_pmic.o
 .ARM.attributes
                0x0000075f       0x33 /home/dangcaominh/STM32MP1/atf/stm32mp1_atf/../build/opteemin-nand-stm32mp157d-ev1/bl2/stpmic1.o
 .ARM.attributes
                0x00000792       0x33 /home/dangcaominh/STM32MP1/atf/stm32mp1_atf/../build/opteemin-nand-stm32mp157d-ev1/bl2/regulator_core.o
 .ARM.attributes
                0x000007c5       0x33 /home/dangcaominh/STM32MP1/atf/stm32mp1_atf/../build/opteemin-nand-stm32mp157d-ev1/bl2/regulator_fixed.o
 .ARM.attributes
                0x000007f8       0x33 /home/dangcaominh/STM32MP1/atf/stm32mp1_atf/../build/opteemin-nand-stm32mp157d-ev1/bl2/stm32mp1_reset.o
 .ARM.attributes
                0x0000082b       0x33 /home/dangcaominh/STM32MP1/atf/stm32mp1_atf/../build/opteemin-nand-stm32mp157d-ev1/bl2/ctzdi2.o
 .ARM.attributes
                0x0000085e       0x33 /home/dangcaominh/STM32MP1/atf/stm32mp1_atf/../build/opteemin-nand-stm32mp157d-ev1/bl2/popcountsi2.o
 .ARM.attributes
                0x00000891       0x33 /home/dangcaominh/STM32MP1/atf/stm32mp1_atf/../build/opteemin-nand-stm32mp157d-ev1/bl2/udivmoddi4.o
 .ARM.attributes
                0x000008c4       0x33 /home/dangcaominh/STM32MP1/atf/stm32mp1_atf/../build/opteemin-nand-stm32mp157d-ev1/bl2/fconf.o
 .ARM.attributes
                0x000008f7       0x33 /home/dangcaominh/STM32MP1/atf/stm32mp1_atf/../build/opteemin-nand-stm32mp157d-ev1/bl2/fconf_dyn_cfg_getter.o
 .ARM.attributes
                0x0000092a       0x33 /home/dangcaominh/STM32MP1/atf/stm32mp1_atf/../build/opteemin-nand-stm32mp157d-ev1/bl2/optee_utils.o
 .ARM.attributes
                0x0000095d       0x33 /home/dangcaominh/STM32MP1/atf/stm32mp1_atf/../build/opteemin-nand-stm32mp157d-ev1/bl2/xlat_tables_arch.o
 .ARM.attributes
                0x00000990       0x33 /home/dangcaominh/STM32MP1/atf/stm32mp1_atf/../build/opteemin-nand-stm32mp157d-ev1/bl2/xlat_tables_context.o
 .ARM.attributes
                0x000009c3       0x33 /home/dangcaominh/STM32MP1/atf/stm32mp1_atf/../build/opteemin-nand-stm32mp157d-ev1/bl2/xlat_tables_core.o
 .ARM.attributes
                0x000009f6       0x33 /home/dangcaominh/STM32MP1/atf/stm32mp1_atf/../build/opteemin-nand-stm32mp157d-ev1/bl2/xlat_tables_utils.o
 .ARM.attributes
                0x00000a29       0x33 /home/dangcaominh/STM32MP1/atf/stm32mp1_atf/../build/opteemin-nand-stm32mp157d-ev1/bl2/crc32.o
 .ARM.attributes
                0x00000a5c       0x33 /home/dangcaominh/STM32MP1/atf/stm32mp1_atf/../build/opteemin-nand-stm32mp157d-ev1/bl2/tf_gunzip.o
 .ARM.attributes
                0x00000a8f       0x33 /home/dangcaominh/STM32MP1/atf/stm32mp1_atf/../build/opteemin-nand-stm32mp157d-ev1/bl2/plat_bl_common.o
 .ARM.attributes
                0x00000ac2       0x33 /home/dangcaominh/STM32MP1/atf/stm32mp1_atf/../build/opteemin-nand-stm32mp157d-ev1/bl2/plat_log_common.o
 .ARM.attributes
                0x00000af5       0x33 /home/dangcaominh/STM32MP1/atf/stm32mp1_atf/../build/opteemin-nand-stm32mp157d-ev1/bl2/bl2_io_storage.o
 .ARM.attributes
                0x00000b28       0x33 /home/dangcaominh/STM32MP1/atf/stm32mp1_atf/../build/opteemin-nand-stm32mp157d-ev1/bl2/plat_image_load.o
 .ARM.attributes
                0x00000b5b       0x33 /home/dangcaominh/STM32MP1/atf/stm32mp1_atf/../build/opteemin-nand-stm32mp157d-ev1/bl2/stm32mp_common.o
 .ARM.attributes
                0x00000b8e       0x33 /home/dangcaominh/STM32MP1/atf/stm32mp1_atf/../build/opteemin-nand-stm32mp157d-ev1/bl2/stm32mp_dt.o
 .ARM.attributes
                0x00000bc1       0x33 /home/dangcaominh/STM32MP1/atf/stm32mp1_atf/../build/opteemin-nand-stm32mp157d-ev1/bl2/stm32mp_fconf_fuse.o
 .ARM.attributes
                0x00000bf4       0x33 /home/dangcaominh/STM32MP1/atf/stm32mp1_atf/../build/opteemin-nand-stm32mp157d-ev1/bl2/stm32mp_fconf_io.o
 .ARM.attributes
                0x00000c27       0x33 /home/dangcaominh/STM32MP1/atf/stm32mp1_atf/../build/opteemin-nand-stm32mp157d-ev1/bl2/bl2_plat_setup.o
 .ARM.attributes
                0x00000c5a       0x33 /home/dangcaominh/STM32MP1/atf/stm32mp1_atf/../build/opteemin-nand-stm32mp157d-ev1/bl2/plat_bl2_mem_params_desc.o
 .ARM.attributes
                0x00000c8d       0x33 /home/dangcaominh/STM32MP1/atf/stm32mp1_atf/../build/opteemin-nand-stm32mp157d-ev1/bl2/plat_ddr.o
 .ARM.attributes
                0x00000cc0       0x33 /home/dangcaominh/STM32MP1/atf/stm32mp1_atf/../build/opteemin-nand-stm32mp157d-ev1/bl2/stm32mp1_boot_device.o
 .ARM.attributes
                0x00000cf3       0x33 /home/dangcaominh/STM32MP1/atf/stm32mp1_atf/../build/opteemin-nand-stm32mp157d-ev1/bl2/stm32mp1_context.o
 .ARM.attributes
                0x00000d26       0x33 /home/dangcaominh/STM32MP1/atf/stm32mp1_atf/../build/opteemin-nand-stm32mp157d-ev1/bl2/stm32mp1_critic_power.o
 .ARM.attributes
                0x00000d59       0x33 /home/dangcaominh/STM32MP1/atf/stm32mp1_atf/../build/opteemin-nand-stm32mp157d-ev1/bl2/stm32mp1_dbgmcu.o
 .ARM.attributes
                0x00000d8c       0x33 /home/dangcaominh/STM32MP1/atf/stm32mp1_atf/../build/opteemin-nand-stm32mp157d-ev1/bl2/stm32mp1_fconf_firewall.o
 .ARM.attributes
                0x00000dbf       0x33 /home/dangcaominh/STM32MP1/atf/stm32mp1_atf/../build/opteemin-nand-stm32mp157d-ev1/bl2/stm32mp1_private.o
 .ARM.attributes
                0x00000df2       0x33 /home/dangcaominh/STM32MP1/atf/stm32mp1_atf/../build/opteemin-nand-stm32mp157d-ev1/bl2/stm32mp1_syscfg.o
 .ARM.attributes
                0x00000e25       0x27 /home/dangcaominh/STM32MP1/atf/stm32mp1_atf/../build/opteemin-nand-stm32mp157d-ev1/bl2/bl2_el3_entrypoint.o
 .ARM.attributes
                0x00000e4c       0x27 /home/dangcaominh/STM32MP1/atf/stm32mp1_atf/../build/opteemin-nand-stm32mp157d-ev1/bl2/bl2_el3_exceptions.o
 .ARM.attributes
                0x00000e73       0x27 /home/dangcaominh/STM32MP1/atf/stm32mp1_atf/../build/opteemin-nand-stm32mp157d-ev1/bl2/bl2_run_next_image.o
 .ARM.attributes
                0x00000e9a       0x27 /home/dangcaominh/STM32MP1/atf/stm32mp1_atf/../build/opteemin-nand-stm32mp157d-ev1/bl2/debug.o
 .ARM.attributes
                0x00000ec1       0x27 /home/dangcaominh/STM32MP1/atf/stm32mp1_atf/../build/opteemin-nand-stm32mp157d-ev1/bl2/stm32_console.o
 .ARM.attributes
                0x00000ee8       0x27 /home/dangcaominh/STM32MP1/atf/stm32mp1_atf/../build/opteemin-nand-stm32mp157d-ev1/bl2/cache_helpers.o
 .ARM.attributes
                0x00000f0f       0x27 /home/dangcaominh/STM32MP1/atf/stm32mp1_atf/../build/opteemin-nand-stm32mp157d-ev1/bl2/misc_helpers.o
 .ARM.attributes
                0x00000f36       0x27 /home/dangcaominh/STM32MP1/atf/stm32mp1_atf/../build/opteemin-nand-stm32mp157d-ev1/bl2/aeabi_uldivmod.o
 .ARM.attributes
                0x00000f5d       0x27 /home/dangcaominh/STM32MP1/atf/stm32mp1_atf/../build/opteemin-nand-stm32mp157d-ev1/bl2/cortex_a7.o
 .ARM.attributes
                0x00000f84       0x27 /home/dangcaominh/STM32MP1/atf/stm32mp1_atf/../build/opteemin-nand-stm32mp157d-ev1/bl2/cpu_helpers.o
 .ARM.attributes
                0x00000fab       0x27 /home/dangcaominh/STM32MP1/atf/stm32mp1_atf/../build/opteemin-nand-stm32mp157d-ev1/bl2/spinlock.o
 .ARM.attributes
                0x00000fd2       0x27 /home/dangcaominh/STM32MP1/atf/stm32mp1_atf/../build/opteemin-nand-stm32mp157d-ev1/bl2/enable_mmu.o
 .ARM.attributes
                0x00000ff9       0x27 /home/dangcaominh/STM32MP1/atf/stm32mp1_atf/../build/opteemin-nand-stm32mp157d-ev1/bl2/platform_up_stack.o
 .ARM.attributes
                0x00001020       0x27 /home/dangcaominh/STM32MP1/atf/stm32mp1_atf/../build/opteemin-nand-stm32mp157d-ev1/bl2/stm32mp1_critic_power_wrapper.o
 .ARM.attributes
                0x00001047       0x27 /home/dangcaominh/STM32MP1/atf/stm32mp1_atf/../build/opteemin-nand-stm32mp157d-ev1/bl2/stm32mp1_helper.o
 .ARM.attributes
                0x0000106e       0x33 /home/dangcaominh/STM32MP1/atf/stm32mp1_atf/../build/opteemin-nand-stm32mp157d-ev1/lib/libfdt.a(fdt.o)
 .ARM.attributes
                0x000010a1       0x33 /home/dangcaominh/STM32MP1/atf/stm32mp1_atf/../build/opteemin-nand-stm32mp157d-ev1/lib/libfdt.a(fdt_addresses.o)
 .ARM.attributes
                0x000010d4       0x33 /home/dangcaominh/STM32MP1/atf/stm32mp1_atf/../build/opteemin-nand-stm32mp157d-ev1/lib/libfdt.a(fdt_ro.o)
 .ARM.attributes
                0x00001107       0x33 /home/dangcaominh/STM32MP1/atf/stm32mp1_atf/../build/opteemin-nand-stm32mp157d-ev1/lib/libc.a(assert.o)
 .ARM.attributes
                0x0000113a       0x33 /home/dangcaominh/STM32MP1/atf/stm32mp1_atf/../build/opteemin-nand-stm32mp157d-ev1/lib/libc.a(memchr.o)
 .ARM.attributes
                0x0000116d       0x33 /home/dangcaominh/STM32MP1/atf/stm32mp1_atf/../build/opteemin-nand-stm32mp157d-ev1/lib/libc.a(memcmp.o)
 .ARM.attributes
                0x000011a0       0x33 /home/dangcaominh/STM32MP1/atf/stm32mp1_atf/../build/opteemin-nand-stm32mp157d-ev1/lib/libc.a(memcpy.o)
 .ARM.attributes
                0x000011d3       0x33 /home/dangcaominh/STM32MP1/atf/stm32mp1_atf/../build/opteemin-nand-stm32mp157d-ev1/lib/libc.a(memmove.o)
 .ARM.attributes
                0x00001206       0x33 /home/dangcaominh/STM32MP1/atf/stm32mp1_atf/../build/opteemin-nand-stm32mp157d-ev1/lib/libc.a(memset.o)
 .ARM.attributes
                0x00001239       0x33 /home/dangcaominh/STM32MP1/atf/stm32mp1_atf/../build/opteemin-nand-stm32mp157d-ev1/lib/libc.a(printf.o)
 .ARM.attributes
                0x0000126c       0x33 /home/dangcaominh/STM32MP1/atf/stm32mp1_atf/../build/opteemin-nand-stm32mp157d-ev1/lib/libc.a(snprintf.o)
 .ARM.attributes
                0x0000129f       0x33 /home/dangcaominh/STM32MP1/atf/stm32mp1_atf/../build/opteemin-nand-stm32mp157d-ev1/lib/libc.a(strchr.o)
 .ARM.attributes
                0x000012d2       0x33 /home/dangcaominh/STM32MP1/atf/stm32mp1_atf/../build/opteemin-nand-stm32mp157d-ev1/lib/libc.a(strcmp.o)
 .ARM.attributes
                0x00001305       0x33 /home/dangcaominh/STM32MP1/atf/stm32mp1_atf/../build/opteemin-nand-stm32mp157d-ev1/lib/libc.a(strlcpy.o)
 .ARM.attributes
                0x00001338       0x33 /home/dangcaominh/STM32MP1/atf/stm32mp1_atf/../build/opteemin-nand-stm32mp157d-ev1/lib/libc.a(strlen.o)
 .ARM.attributes
                0x0000136b       0x33 /home/dangcaominh/STM32MP1/atf/stm32mp1_atf/../build/opteemin-nand-stm32mp157d-ev1/lib/libc.a(strncmp.o)
 .ARM.attributes
                0x0000139e       0x33 /home/dangcaominh/STM32MP1/atf/stm32mp1_atf/../build/opteemin-nand-stm32mp157d-ev1/lib/libc.a(strnlen.o)
 .ARM.attributes
                0x000013d1       0x33 /home/dangcaominh/STM32MP1/atf/stm32mp1_atf/../build/opteemin-nand-stm32mp157d-ev1/lib/libc.a(strrchr.o)

.debug_ranges   0x00000000     0x55e0
 .debug_ranges  0x00000000       0x10 /home/dangcaominh/STM32MP1/atf/stm32mp1_atf/../build/opteemin-nand-stm32mp157d-ev1/bl2/bl2_arch_setup.o
 .debug_ranges  0x00000010       0x10 /home/dangcaominh/STM32MP1/atf/stm32mp1_atf/../build/opteemin-nand-stm32mp157d-ev1/bl2/bl2_image_load_v2.o
 .debug_ranges  0x00000020       0x18 /home/dangcaominh/STM32MP1/atf/stm32mp1_atf/../build/opteemin-nand-stm32mp157d-ev1/bl2/bl2_main.o
 .debug_ranges  0x00000038       0x50 /home/dangcaominh/STM32MP1/atf/stm32mp1_atf/../build/opteemin-nand-stm32mp157d-ev1/bl2/bl_common.o
 .debug_ranges  0x00000088       0x60 /home/dangcaominh/STM32MP1/atf/stm32mp1_atf/../build/opteemin-nand-stm32mp157d-ev1/bl2/desc_image_load.o
 .debug_ranges  0x000000e8      0x140 /home/dangcaominh/STM32MP1/atf/stm32mp1_atf/../build/opteemin-nand-stm32mp157d-ev1/bl2/fdt_wrappers.o
 .debug_ranges  0x00000228       0x20 /home/dangcaominh/STM32MP1/atf/stm32mp1_atf/../build/opteemin-nand-stm32mp157d-ev1/bl2/tf_log.o
 .debug_ranges  0x00000248      0x118 /home/dangcaominh/STM32MP1/atf/stm32mp1_atf/../build/opteemin-nand-stm32mp157d-ev1/bl2/uuid.o
 .debug_ranges  0x00000360      0x248 /home/dangcaominh/STM32MP1/atf/stm32mp1_atf/../build/opteemin-nand-stm32mp157d-ev1/bl2/tzc400.o
 .debug_ranges  0x000005a8       0x38 /home/dangcaominh/STM32MP1/atf/stm32mp1_atf/../build/opteemin-nand-stm32mp157d-ev1/bl2/clk.o
 .debug_ranges  0x000005e0       0x78 /home/dangcaominh/STM32MP1/atf/stm32mp1_atf/../build/opteemin-nand-stm32mp157d-ev1/bl2/multi_console.o
 .debug_ranges  0x00000658       0x40 /home/dangcaominh/STM32MP1/atf/stm32mp1_atf/../build/opteemin-nand-stm32mp157d-ev1/bl2/delay_timer.o
 .debug_ranges  0x00000698       0x38 /home/dangcaominh/STM32MP1/atf/stm32mp1_atf/../build/opteemin-nand-stm32mp157d-ev1/bl2/generic_delay_timer.o
 .debug_ranges  0x000006d0       0x50 /home/dangcaominh/STM32MP1/atf/stm32mp1_atf/../build/opteemin-nand-stm32mp157d-ev1/bl2/fwu.o
 .debug_ranges  0x00000720      0x140 /home/dangcaominh/STM32MP1/atf/stm32mp1_atf/../build/opteemin-nand-stm32mp157d-ev1/bl2/io_fip.o
 .debug_ranges  0x00000860       0xb8 /home/dangcaominh/STM32MP1/atf/stm32mp1_atf/../build/opteemin-nand-stm32mp157d-ev1/bl2/io_mtd.o
 .debug_ranges  0x00000918      0x110 /home/dangcaominh/STM32MP1/atf/stm32mp1_atf/../build/opteemin-nand-stm32mp157d-ev1/bl2/io_storage.o
 .debug_ranges  0x00000a28       0x60 /home/dangcaominh/STM32MP1/atf/stm32mp1_atf/../build/opteemin-nand-stm32mp157d-ev1/bl2/core.o
 .debug_ranges  0x00000a88       0xf8 /home/dangcaominh/STM32MP1/atf/stm32mp1_atf/../build/opteemin-nand-stm32mp157d-ev1/bl2/raw_nand.o
 .debug_ranges  0x00000b80      0x398 /home/dangcaominh/STM32MP1/atf/stm32mp1_atf/../build/opteemin-nand-stm32mp157d-ev1/bl2/bsec2.o
 .debug_ranges  0x00000f18      0xb20 /home/dangcaominh/STM32MP1/atf/stm32mp1_atf/../build/opteemin-nand-stm32mp157d-ev1/bl2/stm32mp1_clk.o
 .debug_ranges  0x00001a38      0x108 /home/dangcaominh/STM32MP1/atf/stm32mp1_atf/../build/opteemin-nand-stm32mp157d-ev1/bl2/stm32mp_clkfunc.o
 .debug_ranges  0x00001b40      0x450 /home/dangcaominh/STM32MP1/atf/stm32mp1_atf/../build/opteemin-nand-stm32mp157d-ev1/bl2/stm32mp1_ddr.o
 .debug_ranges  0x00001f90      0x1d8 /home/dangcaominh/STM32MP1/atf/stm32mp1_atf/../build/opteemin-nand-stm32mp157d-ev1/bl2/stm32mp1_ddr_helpers.o
 .debug_ranges  0x00002168       0x88 /home/dangcaominh/STM32MP1/atf/stm32mp1_atf/../build/opteemin-nand-stm32mp157d-ev1/bl2/stm32mp1_ram.o
 .debug_ranges  0x000021f0      0x1e8 /home/dangcaominh/STM32MP1/atf/stm32mp1_atf/../build/opteemin-nand-stm32mp157d-ev1/bl2/stm32mp_ddr.o
 .debug_ranges  0x000023d8      0x120 /home/dangcaominh/STM32MP1/atf/stm32mp1_atf/../build/opteemin-nand-stm32mp157d-ev1/bl2/stm32mp_ddr_test.o
 .debug_ranges  0x000024f8       0x18 /home/dangcaominh/STM32MP1/atf/stm32mp1_atf/../build/opteemin-nand-stm32mp157d-ev1/bl2/stm32mp_ram.o
 .debug_ranges  0x00002510      0x698 /home/dangcaominh/STM32MP1/atf/stm32mp1_atf/../build/opteemin-nand-stm32mp157d-ev1/bl2/stm32_fmc2_nand.o
 .debug_ranges  0x00002ba8      0x260 /home/dangcaominh/STM32MP1/atf/stm32mp1_atf/../build/opteemin-nand-stm32mp157d-ev1/bl2/stm32_gpio.o
 .debug_ranges  0x00002e08      0x790 /home/dangcaominh/STM32MP1/atf/stm32mp1_atf/../build/opteemin-nand-stm32mp157d-ev1/bl2/stm32_i2c.o
 .debug_ranges  0x00003598      0x108 /home/dangcaominh/STM32MP1/atf/stm32mp1_atf/../build/opteemin-nand-stm32mp157d-ev1/bl2/stm32_iwdg.o
 .debug_ranges  0x000036a0       0x50 /home/dangcaominh/STM32MP1/atf/stm32mp1_atf/../build/opteemin-nand-stm32mp157d-ev1/bl2/nvmem.o
 .debug_ranges  0x000036f0      0x1d8 /home/dangcaominh/STM32MP1/atf/stm32mp1_atf/../build/opteemin-nand-stm32mp157d-ev1/bl2/stm32mp_tamp_nvram_core.o
 .debug_ranges  0x000038c8       0x18 /home/dangcaominh/STM32MP1/atf/stm32mp1_atf/../build/opteemin-nand-stm32mp157d-ev1/bl2/stm32mp_tamp_nvram_mp1.o
 .debug_ranges  0x000038e0      0x128 /home/dangcaominh/STM32MP1/atf/stm32mp1_atf/../build/opteemin-nand-stm32mp157d-ev1/bl2/stm32mp_pmic.o
 .debug_ranges  0x00003a08       0xb0 /home/dangcaominh/STM32MP1/atf/stm32mp1_atf/../build/opteemin-nand-stm32mp157d-ev1/bl2/stpmic1.o
 .debug_ranges  0x00003ab8      0x110 /home/dangcaominh/STM32MP1/atf/stm32mp1_atf/../build/opteemin-nand-stm32mp157d-ev1/bl2/regulator_core.o
 .debug_ranges  0x00003bc8       0x50 /home/dangcaominh/STM32MP1/atf/stm32mp1_atf/../build/opteemin-nand-stm32mp157d-ev1/bl2/regulator_fixed.o
 .debug_ranges  0x00003c18      0x120 /home/dangcaominh/STM32MP1/atf/stm32mp1_atf/../build/opteemin-nand-stm32mp157d-ev1/bl2/stm32mp1_reset.o
 .debug_ranges  0x00003d38       0x10 /home/dangcaominh/STM32MP1/atf/stm32mp1_atf/../build/opteemin-nand-stm32mp157d-ev1/bl2/ctzdi2.o
 .debug_ranges  0x00003d48       0x10 /home/dangcaominh/STM32MP1/atf/stm32mp1_atf/../build/opteemin-nand-stm32mp157d-ev1/bl2/popcountsi2.o
 .debug_ranges  0x00003d58       0x28 /home/dangcaominh/STM32MP1/atf/stm32mp1_atf/../build/opteemin-nand-stm32mp157d-ev1/bl2/udivmoddi4.o
 .debug_ranges  0x00003d80       0x18 /home/dangcaominh/STM32MP1/atf/stm32mp1_atf/../build/opteemin-nand-stm32mp157d-ev1/bl2/fconf.o
 .debug_ranges  0x00003d98       0x70 /home/dangcaominh/STM32MP1/atf/stm32mp1_atf/../build/opteemin-nand-stm32mp157d-ev1/bl2/fconf_dyn_cfg_getter.o
 .debug_ranges  0x00003e08       0x20 /home/dangcaominh/STM32MP1/atf/stm32mp1_atf/../build/opteemin-nand-stm32mp157d-ev1/bl2/optee_utils.o
 .debug_ranges  0x00003e28       0xe0 /home/dangcaominh/STM32MP1/atf/stm32mp1_atf/../build/opteemin-nand-stm32mp157d-ev1/bl2/xlat_tables_arch.o
 .debug_ranges  0x00003f08       0x68 /home/dangcaominh/STM32MP1/atf/stm32mp1_atf/../build/opteemin-nand-stm32mp157d-ev1/bl2/xlat_tables_context.o
 .debug_ranges  0x00003f70      0x2a0 /home/dangcaominh/STM32MP1/atf/stm32mp1_atf/../build/opteemin-nand-stm32mp157d-ev1/bl2/xlat_tables_core.o
 .debug_ranges  0x00004210      0x100 /home/dangcaominh/STM32MP1/atf/stm32mp1_atf/../build/opteemin-nand-stm32mp157d-ev1/bl2/xlat_tables_utils.o
 .debug_ranges  0x00004310       0x58 /home/dangcaominh/STM32MP1/atf/stm32mp1_atf/../build/opteemin-nand-stm32mp157d-ev1/bl2/crc32.o
 .debug_ranges  0x00004368       0x28 /home/dangcaominh/STM32MP1/atf/stm32mp1_atf/../build/opteemin-nand-stm32mp157d-ev1/bl2/tf_gunzip.o
 .debug_ranges  0x00004390       0x68 /home/dangcaominh/STM32MP1/atf/stm32mp1_atf/../build/opteemin-nand-stm32mp157d-ev1/bl2/plat_bl_common.o
 .debug_ranges  0x000043f8       0x10 /home/dangcaominh/STM32MP1/atf/stm32mp1_atf/../build/opteemin-nand-stm32mp157d-ev1/bl2/plat_log_common.o
 .debug_ranges  0x00004408       0xe8 /home/dangcaominh/STM32MP1/atf/stm32mp1_atf/../build/opteemin-nand-stm32mp157d-ev1/bl2/bl2_io_storage.o
 .debug_ranges  0x000044f0       0x20 /home/dangcaominh/STM32MP1/atf/stm32mp1_atf/../build/opteemin-nand-stm32mp157d-ev1/bl2/plat_image_load.o
 .debug_ranges  0x00004510      0x1a8 /home/dangcaominh/STM32MP1/atf/stm32mp1_atf/../build/opteemin-nand-stm32mp157d-ev1/bl2/stm32mp_common.o
 .debug_ranges  0x000046b8      0x130 /home/dangcaominh/STM32MP1/atf/stm32mp1_atf/../build/opteemin-nand-stm32mp157d-ev1/bl2/stm32mp_dt.o
 .debug_ranges  0x000047e8       0x98 /home/dangcaominh/STM32MP1/atf/stm32mp1_atf/../build/opteemin-nand-stm32mp157d-ev1/bl2/stm32mp_fconf_fuse.o
 .debug_ranges  0x00004880       0x58 /home/dangcaominh/STM32MP1/atf/stm32mp1_atf/../build/opteemin-nand-stm32mp157d-ev1/bl2/stm32mp_fconf_io.o
 .debug_ranges  0x000048d8      0x118 /home/dangcaominh/STM32MP1/atf/stm32mp1_atf/../build/opteemin-nand-stm32mp157d-ev1/bl2/bl2_plat_setup.o
 .debug_ranges  0x000049f0       0x60 /home/dangcaominh/STM32MP1/atf/stm32mp1_atf/../build/opteemin-nand-stm32mp157d-ev1/bl2/plat_ddr.o
 .debug_ranges  0x00004a50       0x30 /home/dangcaominh/STM32MP1/atf/stm32mp1_atf/../build/opteemin-nand-stm32mp157d-ev1/bl2/stm32mp1_boot_device.o
 .debug_ranges  0x00004a80       0x58 /home/dangcaominh/STM32MP1/atf/stm32mp1_atf/../build/opteemin-nand-stm32mp157d-ev1/bl2/stm32mp1_context.o
 .debug_ranges  0x00004ad8       0x30 /home/dangcaominh/STM32MP1/atf/stm32mp1_atf/../build/opteemin-nand-stm32mp157d-ev1/bl2/stm32mp1_critic_power.o
 .debug_ranges  0x00004b08       0x50 /home/dangcaominh/STM32MP1/atf/stm32mp1_atf/../build/opteemin-nand-stm32mp157d-ev1/bl2/stm32mp1_dbgmcu.o
 .debug_ranges  0x00004b58       0x48 /home/dangcaominh/STM32MP1/atf/stm32mp1_atf/../build/opteemin-nand-stm32mp157d-ev1/bl2/stm32mp1_fconf_firewall.o
 .debug_ranges  0x00004ba0       0xe8 /home/dangcaominh/STM32MP1/atf/stm32mp1_atf/../build/opteemin-nand-stm32mp157d-ev1/bl2/stm32mp1_private.o
 .debug_ranges  0x00004c88      0x138 /home/dangcaominh/STM32MP1/atf/stm32mp1_atf/../build/opteemin-nand-stm32mp157d-ev1/bl2/stm32mp1_syscfg.o
 .debug_ranges  0x00004dc0       0x48 /home/dangcaominh/STM32MP1/atf/stm32mp1_atf/../build/opteemin-nand-stm32mp157d-ev1/bl2/debug.o
 .debug_ranges  0x00004e08       0x48 /home/dangcaominh/STM32MP1/atf/stm32mp1_atf/../build/opteemin-nand-stm32mp157d-ev1/bl2/stm32_console.o
 .debug_ranges  0x00004e50       0x58 /home/dangcaominh/STM32MP1/atf/stm32mp1_atf/../build/opteemin-nand-stm32mp157d-ev1/bl2/cache_helpers.o
 .debug_ranges  0x00004ea8       0x40 /home/dangcaominh/STM32MP1/atf/stm32mp1_atf/../build/opteemin-nand-stm32mp157d-ev1/bl2/misc_helpers.o
 .debug_ranges  0x00004ee8       0x38 /home/dangcaominh/STM32MP1/atf/stm32mp1_atf/../build/opteemin-nand-stm32mp157d-ev1/bl2/cortex_a7.o
 .debug_ranges  0x00004f20       0x38 /home/dangcaominh/STM32MP1/atf/stm32mp1_atf/../build/opteemin-nand-stm32mp157d-ev1/bl2/cpu_helpers.o
 .debug_ranges  0x00004f58       0x20 /home/dangcaominh/STM32MP1/atf/stm32mp1_atf/../build/opteemin-nand-stm32mp157d-ev1/bl2/spinlock.o
 .debug_ranges  0x00004f78       0x20 /home/dangcaominh/STM32MP1/atf/stm32mp1_atf/../build/opteemin-nand-stm32mp157d-ev1/bl2/enable_mmu.o
 .debug_ranges  0x00004f98       0x20 /home/dangcaominh/STM32MP1/atf/stm32mp1_atf/../build/opteemin-nand-stm32mp157d-ev1/bl2/platform_up_stack.o
 .debug_ranges  0x00004fb8       0x80 /home/dangcaominh/STM32MP1/atf/stm32mp1_atf/../build/opteemin-nand-stm32mp157d-ev1/bl2/stm32mp1_helper.o
 .debug_ranges  0x00005038      0x108 /home/dangcaominh/STM32MP1/atf/stm32mp1_atf/../build/opteemin-nand-stm32mp157d-ev1/lib/libfdt.a(fdt.o)
 .debug_ranges  0x00005140       0x28 /home/dangcaominh/STM32MP1/atf/stm32mp1_atf/../build/opteemin-nand-stm32mp157d-ev1/lib/libfdt.a(fdt_addresses.o)
 .debug_ranges  0x00005168      0x290 /home/dangcaominh/STM32MP1/atf/stm32mp1_atf/../build/opteemin-nand-stm32mp157d-ev1/lib/libfdt.a(fdt_ro.o)
 .debug_ranges  0x000053f8       0x10 /home/dangcaominh/STM32MP1/atf/stm32mp1_atf/../build/opteemin-nand-stm32mp157d-ev1/lib/libc.a(assert.o)
 .debug_ranges  0x00005408       0x10 /home/dangcaominh/STM32MP1/atf/stm32mp1_atf/../build/opteemin-nand-stm32mp157d-ev1/lib/libc.a(memchr.o)
 .debug_ranges  0x00005418       0x10 /home/dangcaominh/STM32MP1/atf/stm32mp1_atf/../build/opteemin-nand-stm32mp157d-ev1/lib/libc.a(memcmp.o)
 .debug_ranges  0x00005428       0x10 /home/dangcaominh/STM32MP1/atf/stm32mp1_atf/../build/opteemin-nand-stm32mp157d-ev1/lib/libc.a(memcpy.o)
 .debug_ranges  0x00005438       0x28 /home/dangcaominh/STM32MP1/atf/stm32mp1_atf/../build/opteemin-nand-stm32mp157d-ev1/lib/libc.a(memmove.o)
 .debug_ranges  0x00005460       0x10 /home/dangcaominh/STM32MP1/atf/stm32mp1_atf/../build/opteemin-nand-stm32mp157d-ev1/lib/libc.a(memset.o)
 .debug_ranges  0x00005470       0xc0 /home/dangcaominh/STM32MP1/atf/stm32mp1_atf/../build/opteemin-nand-stm32mp157d-ev1/lib/libc.a(printf.o)
 .debug_ranges  0x00005530       0x40 /home/dangcaominh/STM32MP1/atf/stm32mp1_atf/../build/opteemin-nand-stm32mp157d-ev1/lib/libc.a(snprintf.o)
 .debug_ranges  0x00005570       0x10 /home/dangcaominh/STM32MP1/atf/stm32mp1_atf/../build/opteemin-nand-stm32mp157d-ev1/lib/libc.a(strchr.o)
 .debug_ranges  0x00005580       0x10 /home/dangcaominh/STM32MP1/atf/stm32mp1_atf/../build/opteemin-nand-stm32mp157d-ev1/lib/libc.a(strcmp.o)
 .debug_ranges  0x00005590       0x10 /home/dangcaominh/STM32MP1/atf/stm32mp1_atf/../build/opteemin-nand-stm32mp157d-ev1/lib/libc.a(strlcpy.o)
 .debug_ranges  0x000055a0       0x10 /home/dangcaominh/STM32MP1/atf/stm32mp1_atf/../build/opteemin-nand-stm32mp157d-ev1/lib/libc.a(strlen.o)
 .debug_ranges  0x000055b0       0x10 /home/dangcaominh/STM32MP1/atf/stm32mp1_atf/../build/opteemin-nand-stm32mp157d-ev1/lib/libc.a(strncmp.o)
 .debug_ranges  0x000055c0       0x10 /home/dangcaominh/STM32MP1/atf/stm32mp1_atf/../build/opteemin-nand-stm32mp157d-ev1/lib/libc.a(strnlen.o)
 .debug_ranges  0x000055d0       0x10 /home/dangcaominh/STM32MP1/atf/stm32mp1_atf/../build/opteemin-nand-stm32mp157d-ev1/lib/libc.a(strrchr.o)

.debug_frame    0x00000000     0x4dd4
 .debug_frame   0x00000000       0x20 /home/dangcaominh/STM32MP1/atf/stm32mp1_atf/../build/opteemin-nand-stm32mp157d-ev1/bl2/bl2_arch_setup.o
 .debug_frame   0x00000020       0x34 /home/dangcaominh/STM32MP1/atf/stm32mp1_atf/../build/opteemin-nand-stm32mp157d-ev1/bl2/bl2_image_load_v2.o
 .debug_frame   0x00000054       0x48 /home/dangcaominh/STM32MP1/atf/stm32mp1_atf/../build/opteemin-nand-stm32mp157d-ev1/bl2/bl2_main.o
 .debug_frame   0x0000009c       0x78 /home/dangcaominh/STM32MP1/atf/stm32mp1_atf/../build/opteemin-nand-stm32mp157d-ev1/bl2/bl_common.o
 .debug_frame   0x00000114       0xe0 /home/dangcaominh/STM32MP1/atf/stm32mp1_atf/../build/opteemin-nand-stm32mp157d-ev1/bl2/desc_image_load.o
 .debug_frame   0x000001f4      0x294 /home/dangcaominh/STM32MP1/atf/stm32mp1_atf/../build/opteemin-nand-stm32mp157d-ev1/bl2/fdt_wrappers.o
 .debug_frame   0x00000488       0x80 /home/dangcaominh/STM32MP1/atf/stm32mp1_atf/../build/opteemin-nand-stm32mp157d-ev1/bl2/tf_log.o
 .debug_frame   0x00000508       0x98 /home/dangcaominh/STM32MP1/atf/stm32mp1_atf/../build/opteemin-nand-stm32mp157d-ev1/bl2/uuid.o
 .debug_frame   0x000005a0       0xec /home/dangcaominh/STM32MP1/atf/stm32mp1_atf/../build/opteemin-nand-stm32mp157d-ev1/bl2/tzc400.o
 .debug_frame   0x0000068c       0xb4 /home/dangcaominh/STM32MP1/atf/stm32mp1_atf/../build/opteemin-nand-stm32mp157d-ev1/bl2/clk.o
 .debug_frame   0x00000740       0xd4 /home/dangcaominh/STM32MP1/atf/stm32mp1_atf/../build/opteemin-nand-stm32mp157d-ev1/bl2/multi_console.o
 .debug_frame   0x00000814       0x58 /home/dangcaominh/STM32MP1/atf/stm32mp1_atf/../build/opteemin-nand-stm32mp157d-ev1/bl2/delay_timer.o
 .debug_frame   0x0000086c       0x4c /home/dangcaominh/STM32MP1/atf/stm32mp1_atf/../build/opteemin-nand-stm32mp157d-ev1/bl2/generic_delay_timer.o
 .debug_frame   0x000008b8       0x98 /home/dangcaominh/STM32MP1/atf/stm32mp1_atf/../build/opteemin-nand-stm32mp157d-ev1/bl2/fwu.o
 .debug_frame   0x00000950      0x12c /home/dangcaominh/STM32MP1/atf/stm32mp1_atf/../build/opteemin-nand-stm32mp157d-ev1/bl2/io_fip.o
 .debug_frame   0x00000a7c       0xfc /home/dangcaominh/STM32MP1/atf/stm32mp1_atf/../build/opteemin-nand-stm32mp157d-ev1/bl2/io_mtd.o
 .debug_frame   0x00000b78      0x1c4 /home/dangcaominh/STM32MP1/atf/stm32mp1_atf/../build/opteemin-nand-stm32mp157d-ev1/bl2/io_storage.o
 .debug_frame   0x00000d3c       0x8c /home/dangcaominh/STM32MP1/atf/stm32mp1_atf/../build/opteemin-nand-stm32mp157d-ev1/bl2/core.o
 .debug_frame   0x00000dc8      0x1b8 /home/dangcaominh/STM32MP1/atf/stm32mp1_atf/../build/opteemin-nand-stm32mp157d-ev1/bl2/raw_nand.o
 .debug_frame   0x00000f80      0x250 /home/dangcaominh/STM32MP1/atf/stm32mp1_atf/../build/opteemin-nand-stm32mp157d-ev1/bl2/bsec2.o
 .debug_frame   0x000011d0      0x2f0 /home/dangcaominh/STM32MP1/atf/stm32mp1_atf/../build/opteemin-nand-stm32mp157d-ev1/bl2/stm32mp1_clk.o
 .debug_frame   0x000014c0      0x170 /home/dangcaominh/STM32MP1/atf/stm32mp1_atf/../build/opteemin-nand-stm32mp157d-ev1/bl2/stm32mp_clkfunc.o
 .debug_frame   0x00001630       0x98 /home/dangcaominh/STM32MP1/atf/stm32mp1_atf/../build/opteemin-nand-stm32mp157d-ev1/bl2/stm32mp1_ddr.o
 .debug_frame   0x000016c8       0xc0 /home/dangcaominh/STM32MP1/atf/stm32mp1_atf/../build/opteemin-nand-stm32mp157d-ev1/bl2/stm32mp1_ddr_helpers.o
 .debug_frame   0x00001788       0x7c /home/dangcaominh/STM32MP1/atf/stm32mp1_atf/../build/opteemin-nand-stm32mp157d-ev1/bl2/stm32mp1_ram.o
 .debug_frame   0x00001804      0x130 /home/dangcaominh/STM32MP1/atf/stm32mp1_atf/../build/opteemin-nand-stm32mp157d-ev1/bl2/stm32mp_ddr.o
 .debug_frame   0x00001934       0x68 /home/dangcaominh/STM32MP1/atf/stm32mp1_atf/../build/opteemin-nand-stm32mp157d-ev1/bl2/stm32mp_ddr_test.o
 .debug_frame   0x0000199c       0x58 /home/dangcaominh/STM32MP1/atf/stm32mp1_atf/../build/opteemin-nand-stm32mp157d-ev1/bl2/stm32mp_ram.o
 .debug_frame   0x000019f4       0xe4 /home/dangcaominh/STM32MP1/atf/stm32mp1_atf/../build/opteemin-nand-stm32mp157d-ev1/bl2/stm32_fmc2_nand.o
 .debug_frame   0x00001ad8      0x140 /home/dangcaominh/STM32MP1/atf/stm32mp1_atf/../build/opteemin-nand-stm32mp157d-ev1/bl2/stm32_gpio.o
 .debug_frame   0x00001c18      0x1f8 /home/dangcaominh/STM32MP1/atf/stm32mp1_atf/../build/opteemin-nand-stm32mp157d-ev1/bl2/stm32_i2c.o
 .debug_frame   0x00001e10       0x80 /home/dangcaominh/STM32MP1/atf/stm32mp1_atf/../build/opteemin-nand-stm32mp157d-ev1/bl2/stm32_iwdg.o
 .debug_frame   0x00001e90       0xa4 /home/dangcaominh/STM32MP1/atf/stm32mp1_atf/../build/opteemin-nand-stm32mp157d-ev1/bl2/nvmem.o
 .debug_frame   0x00001f34      0x180 /home/dangcaominh/STM32MP1/atf/stm32mp1_atf/../build/opteemin-nand-stm32mp157d-ev1/bl2/stm32mp_tamp_nvram_core.o
 .debug_frame   0x000020b4       0x30 /home/dangcaominh/STM32MP1/atf/stm32mp1_atf/../build/opteemin-nand-stm32mp157d-ev1/bl2/stm32mp_tamp_nvram_mp1.o
 .debug_frame   0x000020e4      0x160 /home/dangcaominh/STM32MP1/atf/stm32mp1_atf/../build/opteemin-nand-stm32mp157d-ev1/bl2/stm32mp_pmic.o
 .debug_frame   0x00002244      0x264 /home/dangcaominh/STM32MP1/atf/stm32mp1_atf/../build/opteemin-nand-stm32mp157d-ev1/bl2/stpmic1.o
 .debug_frame   0x000024a8      0x194 /home/dangcaominh/STM32MP1/atf/stm32mp1_atf/../build/opteemin-nand-stm32mp157d-ev1/bl2/regulator_core.o
 .debug_frame   0x0000263c       0x5c /home/dangcaominh/STM32MP1/atf/stm32mp1_atf/../build/opteemin-nand-stm32mp157d-ev1/bl2/regulator_fixed.o
 .debug_frame   0x00002698       0x70 /home/dangcaominh/STM32MP1/atf/stm32mp1_atf/../build/opteemin-nand-stm32mp157d-ev1/bl2/stm32mp1_reset.o
 .debug_frame   0x00002708       0x20 /home/dangcaominh/STM32MP1/atf/stm32mp1_atf/../build/opteemin-nand-stm32mp157d-ev1/bl2/ctzdi2.o
 .debug_frame   0x00002728       0x20 /home/dangcaominh/STM32MP1/atf/stm32mp1_atf/../build/opteemin-nand-stm32mp157d-ev1/bl2/popcountsi2.o
 .debug_frame   0x00002748       0x30 /home/dangcaominh/STM32MP1/atf/stm32mp1_atf/../build/opteemin-nand-stm32mp157d-ev1/bl2/udivmoddi4.o
 .debug_frame   0x00002778       0x50 /home/dangcaominh/STM32MP1/atf/stm32mp1_atf/../build/opteemin-nand-stm32mp157d-ev1/bl2/fconf.o
 .debug_frame   0x000027c8       0x88 /home/dangcaominh/STM32MP1/atf/stm32mp1_atf/../build/opteemin-nand-stm32mp157d-ev1/bl2/fconf_dyn_cfg_getter.o
 .debug_frame   0x00002850       0x68 /home/dangcaominh/STM32MP1/atf/stm32mp1_atf/../build/opteemin-nand-stm32mp157d-ev1/bl2/optee_utils.o
 .debug_frame   0x000028b8      0x100 /home/dangcaominh/STM32MP1/atf/stm32mp1_atf/../build/opteemin-nand-stm32mp157d-ev1/bl2/xlat_tables_arch.o
 .debug_frame   0x000029b8      0x138 /home/dangcaominh/STM32MP1/atf/stm32mp1_atf/../build/opteemin-nand-stm32mp157d-ev1/bl2/xlat_tables_context.o
 .debug_frame   0x00002af0      0x258 /home/dangcaominh/STM32MP1/atf/stm32mp1_atf/../build/opteemin-nand-stm32mp157d-ev1/bl2/xlat_tables_core.o
 .debug_frame   0x00002d48       0xc4 /home/dangcaominh/STM32MP1/atf/stm32mp1_atf/../build/opteemin-nand-stm32mp157d-ev1/bl2/xlat_tables_utils.o
 .debug_frame   0x00002e0c       0xec /home/dangcaominh/STM32MP1/atf/stm32mp1_atf/../build/opteemin-nand-stm32mp157d-ev1/bl2/crc32.o
 .debug_frame   0x00002ef8       0x74 /home/dangcaominh/STM32MP1/atf/stm32mp1_atf/../build/opteemin-nand-stm32mp157d-ev1/bl2/tf_gunzip.o
 .debug_frame   0x00002f6c       0xf0 /home/dangcaominh/STM32MP1/atf/stm32mp1_atf/../build/opteemin-nand-stm32mp157d-ev1/bl2/plat_bl_common.o
 .debug_frame   0x0000305c       0x20 /home/dangcaominh/STM32MP1/atf/stm32mp1_atf/../build/opteemin-nand-stm32mp157d-ev1/bl2/plat_log_common.o
 .debug_frame   0x0000307c      0x130 /home/dangcaominh/STM32MP1/atf/stm32mp1_atf/../build/opteemin-nand-stm32mp157d-ev1/bl2/bl2_io_storage.o
 .debug_frame   0x000031ac       0x48 /home/dangcaominh/STM32MP1/atf/stm32mp1_atf/../build/opteemin-nand-stm32mp157d-ev1/bl2/plat_image_load.o
 .debug_frame   0x000031f4      0x3d0 /home/dangcaominh/STM32MP1/atf/stm32mp1_atf/../build/opteemin-nand-stm32mp157d-ev1/bl2/stm32mp_common.o
 .debug_frame   0x000035c4      0x268 /home/dangcaominh/STM32MP1/atf/stm32mp1_atf/../build/opteemin-nand-stm32mp157d-ev1/bl2/stm32mp_dt.o
 .debug_frame   0x0000382c       0x40 /home/dangcaominh/STM32MP1/atf/stm32mp1_atf/../build/opteemin-nand-stm32mp157d-ev1/bl2/stm32mp_fconf_fuse.o
 .debug_frame   0x0000386c       0x40 /home/dangcaominh/STM32MP1/atf/stm32mp1_atf/../build/opteemin-nand-stm32mp157d-ev1/bl2/stm32mp_fconf_io.o
 .debug_frame   0x000038ac       0xb8 /home/dangcaominh/STM32MP1/atf/stm32mp1_atf/../build/opteemin-nand-stm32mp157d-ev1/bl2/bl2_plat_setup.o
 .debug_frame   0x00003964       0x34 /home/dangcaominh/STM32MP1/atf/stm32mp1_atf/../build/opteemin-nand-stm32mp157d-ev1/bl2/plat_ddr.o
 .debug_frame   0x00003998       0x30 /home/dangcaominh/STM32MP1/atf/stm32mp1_atf/../build/opteemin-nand-stm32mp157d-ev1/bl2/stm32mp1_boot_device.o
 .debug_frame   0x000039c8       0xbc /home/dangcaominh/STM32MP1/atf/stm32mp1_atf/../build/opteemin-nand-stm32mp157d-ev1/bl2/stm32mp1_context.o
 .debug_frame   0x00003a84       0x50 /home/dangcaominh/STM32MP1/atf/stm32mp1_atf/../build/opteemin-nand-stm32mp157d-ev1/bl2/stm32mp1_critic_power.o
 .debug_frame   0x00003ad4       0x58 /home/dangcaominh/STM32MP1/atf/stm32mp1_atf/../build/opteemin-nand-stm32mp157d-ev1/bl2/stm32mp1_dbgmcu.o
 .debug_frame   0x00003b2c       0x8c /home/dangcaominh/STM32MP1/atf/stm32mp1_atf/../build/opteemin-nand-stm32mp157d-ev1/bl2/stm32mp1_fconf_firewall.o
 .debug_frame   0x00003bb8      0x228 /home/dangcaominh/STM32MP1/atf/stm32mp1_atf/../build/opteemin-nand-stm32mp157d-ev1/bl2/stm32mp1_private.o
 .debug_frame   0x00003de0       0xa8 /home/dangcaominh/STM32MP1/atf/stm32mp1_atf/../build/opteemin-nand-stm32mp157d-ev1/bl2/stm32mp1_syscfg.o
 .debug_frame   0x00003e88       0x20 /home/dangcaominh/STM32MP1/atf/stm32mp1_atf/../build/opteemin-nand-stm32mp157d-ev1/bl2/bl2_el3_entrypoint.o
 .debug_frame   0x00003ea8       0x20 /home/dangcaominh/STM32MP1/atf/stm32mp1_atf/../build/opteemin-nand-stm32mp157d-ev1/bl2/bl2_run_next_image.o
 .debug_frame   0x00003ec8       0x80 /home/dangcaominh/STM32MP1/atf/stm32mp1_atf/../build/opteemin-nand-stm32mp157d-ev1/bl2/debug.o
 .debug_frame   0x00003f48       0x80 /home/dangcaominh/STM32MP1/atf/stm32mp1_atf/../build/opteemin-nand-stm32mp157d-ev1/bl2/stm32_console.o
 .debug_frame   0x00003fc8       0xa0 /home/dangcaominh/STM32MP1/atf/stm32mp1_atf/../build/opteemin-nand-stm32mp157d-ev1/bl2/cache_helpers.o
 .debug_frame   0x00004068       0x70 /home/dangcaominh/STM32MP1/atf/stm32mp1_atf/../build/opteemin-nand-stm32mp157d-ev1/bl2/misc_helpers.o
 .debug_frame   0x000040d8       0x60 /home/dangcaominh/STM32MP1/atf/stm32mp1_atf/../build/opteemin-nand-stm32mp157d-ev1/bl2/cortex_a7.o
 .debug_frame   0x00004138       0x60 /home/dangcaominh/STM32MP1/atf/stm32mp1_atf/../build/opteemin-nand-stm32mp157d-ev1/bl2/cpu_helpers.o
 .debug_frame   0x00004198       0x30 /home/dangcaominh/STM32MP1/atf/stm32mp1_atf/../build/opteemin-nand-stm32mp157d-ev1/bl2/spinlock.o
 .debug_frame   0x000041c8       0x30 /home/dangcaominh/STM32MP1/atf/stm32mp1_atf/../build/opteemin-nand-stm32mp157d-ev1/bl2/enable_mmu.o
 .debug_frame   0x000041f8       0x30 /home/dangcaominh/STM32MP1/atf/stm32mp1_atf/../build/opteemin-nand-stm32mp157d-ev1/bl2/platform_up_stack.o
 .debug_frame   0x00004228       0x20 /home/dangcaominh/STM32MP1/atf/stm32mp1_atf/../build/opteemin-nand-stm32mp157d-ev1/bl2/stm32mp1_critic_power_wrapper.o
 .debug_frame   0x00004248       0xf0 /home/dangcaominh/STM32MP1/atf/stm32mp1_atf/../build/opteemin-nand-stm32mp157d-ev1/bl2/stm32mp1_helper.o
 .debug_frame   0x00004338      0x198 /home/dangcaominh/STM32MP1/atf/stm32mp1_atf/../build/opteemin-nand-stm32mp157d-ev1/lib/libfdt.a(fdt.o)
 .debug_frame   0x000044d0       0x8c /home/dangcaominh/STM32MP1/atf/stm32mp1_atf/../build/opteemin-nand-stm32mp157d-ev1/lib/libfdt.a(fdt_addresses.o)
 .debug_frame   0x0000455c      0x548 /home/dangcaominh/STM32MP1/atf/stm32mp1_atf/../build/opteemin-nand-stm32mp157d-ev1/lib/libfdt.a(fdt_ro.o)
 .debug_frame   0x00004aa4       0x28 /home/dangcaominh/STM32MP1/atf/stm32mp1_atf/../build/opteemin-nand-stm32mp157d-ev1/lib/libc.a(assert.o)
 .debug_frame   0x00004acc       0x28 /home/dangcaominh/STM32MP1/atf/stm32mp1_atf/../build/opteemin-nand-stm32mp157d-ev1/lib/libc.a(memchr.o)
 .debug_frame   0x00004af4       0x28 /home/dangcaominh/STM32MP1/atf/stm32mp1_atf/../build/opteemin-nand-stm32mp157d-ev1/lib/libc.a(memcmp.o)
 .debug_frame   0x00004b1c       0x28 /home/dangcaominh/STM32MP1/atf/stm32mp1_atf/../build/opteemin-nand-stm32mp157d-ev1/lib/libc.a(memcpy.o)
 .debug_frame   0x00004b44       0x3c /home/dangcaominh/STM32MP1/atf/stm32mp1_atf/../build/opteemin-nand-stm32mp157d-ev1/lib/libc.a(memmove.o)
 .debug_frame   0x00004b80       0x2c /home/dangcaominh/STM32MP1/atf/stm32mp1_atf/../build/opteemin-nand-stm32mp157d-ev1/lib/libc.a(memset.o)
 .debug_frame   0x00004bac       0x9c /home/dangcaominh/STM32MP1/atf/stm32mp1_atf/../build/opteemin-nand-stm32mp157d-ev1/lib/libc.a(printf.o)
 .debug_frame   0x00004c48       0x94 /home/dangcaominh/STM32MP1/atf/stm32mp1_atf/../build/opteemin-nand-stm32mp157d-ev1/lib/libc.a(snprintf.o)
 .debug_frame   0x00004cdc       0x20 /home/dangcaominh/STM32MP1/atf/stm32mp1_atf/../build/opteemin-nand-stm32mp157d-ev1/lib/libc.a(strchr.o)
 .debug_frame   0x00004cfc       0x20 /home/dangcaominh/STM32MP1/atf/stm32mp1_atf/../build/opteemin-nand-stm32mp157d-ev1/lib/libc.a(strcmp.o)
 .debug_frame   0x00004d1c       0x28 /home/dangcaominh/STM32MP1/atf/stm32mp1_atf/../build/opteemin-nand-stm32mp157d-ev1/lib/libc.a(strlcpy.o)
 .debug_frame   0x00004d44       0x20 /home/dangcaominh/STM32MP1/atf/stm32mp1_atf/../build/opteemin-nand-stm32mp157d-ev1/lib/libc.a(strlen.o)
 .debug_frame   0x00004d64       0x28 /home/dangcaominh/STM32MP1/atf/stm32mp1_atf/../build/opteemin-nand-stm32mp157d-ev1/lib/libc.a(strncmp.o)
 .debug_frame   0x00004d8c       0x20 /home/dangcaominh/STM32MP1/atf/stm32mp1_atf/../build/opteemin-nand-stm32mp157d-ev1/lib/libc.a(strnlen.o)
 .debug_frame   0x00004dac       0x28 /home/dangcaominh/STM32MP1/atf/stm32mp1_atf/../build/opteemin-nand-stm32mp157d-ev1/lib/libc.a(strrchr.o)

.debug_loc      0x00000000    0x2e353
 .debug_loc     0x00000000      0x170 /home/dangcaominh/STM32MP1/atf/stm32mp1_atf/../build/opteemin-nand-stm32mp157d-ev1/bl2/bl2_image_load_v2.o
 .debug_loc     0x00000170       0xdb /home/dangcaominh/STM32MP1/atf/stm32mp1_atf/../build/opteemin-nand-stm32mp157d-ev1/bl2/bl2_main.o
 .debug_loc     0x0000024b      0x308 /home/dangcaominh/STM32MP1/atf/stm32mp1_atf/../build/opteemin-nand-stm32mp157d-ev1/bl2/bl_common.o
 .debug_loc     0x00000553      0x97b /home/dangcaominh/STM32MP1/atf/stm32mp1_atf/../build/opteemin-nand-stm32mp157d-ev1/bl2/desc_image_load.o
 .debug_loc     0x00000ece     0x1d21 /home/dangcaominh/STM32MP1/atf/stm32mp1_atf/../build/opteemin-nand-stm32mp157d-ev1/bl2/fdt_wrappers.o
 .debug_loc     0x00002bef      0x16e /home/dangcaominh/STM32MP1/atf/stm32mp1_atf/../build/opteemin-nand-stm32mp157d-ev1/bl2/tf_log.o
 .debug_loc     0x00002d5d      0x69c /home/dangcaominh/STM32MP1/atf/stm32mp1_atf/../build/opteemin-nand-stm32mp157d-ev1/bl2/uuid.o
 .debug_loc     0x000033f9     0x1287 /home/dangcaominh/STM32MP1/atf/stm32mp1_atf/../build/opteemin-nand-stm32mp157d-ev1/bl2/tzc400.o
 .debug_loc     0x00004680      0x1be /home/dangcaominh/STM32MP1/atf/stm32mp1_atf/../build/opteemin-nand-stm32mp157d-ev1/bl2/clk.o
 .debug_loc     0x0000483e      0x30b /home/dangcaominh/STM32MP1/atf/stm32mp1_atf/../build/opteemin-nand-stm32mp157d-ev1/bl2/multi_console.o
 .debug_loc     0x00004b49      0x156 /home/dangcaominh/STM32MP1/atf/stm32mp1_atf/../build/opteemin-nand-stm32mp157d-ev1/bl2/delay_timer.o
 .debug_loc     0x00004c9f       0xc5 /home/dangcaominh/STM32MP1/atf/stm32mp1_atf/../build/opteemin-nand-stm32mp157d-ev1/bl2/generic_delay_timer.o
 .debug_loc     0x00004d64      0x302 /home/dangcaominh/STM32MP1/atf/stm32mp1_atf/../build/opteemin-nand-stm32mp157d-ev1/bl2/fwu.o
 .debug_loc     0x00005066      0xdc9 /home/dangcaominh/STM32MP1/atf/stm32mp1_atf/../build/opteemin-nand-stm32mp157d-ev1/bl2/io_fip.o
 .debug_loc     0x00005e2f      0xa79 /home/dangcaominh/STM32MP1/atf/stm32mp1_atf/../build/opteemin-nand-stm32mp157d-ev1/bl2/io_mtd.o
 .debug_loc     0x000068a8     0x114b /home/dangcaominh/STM32MP1/atf/stm32mp1_atf/../build/opteemin-nand-stm32mp157d-ev1/bl2/io_storage.o
 .debug_loc     0x000079f3      0x5b7 /home/dangcaominh/STM32MP1/atf/stm32mp1_atf/../build/opteemin-nand-stm32mp157d-ev1/bl2/core.o
 .debug_loc     0x00007faa      0xbea /home/dangcaominh/STM32MP1/atf/stm32mp1_atf/../build/opteemin-nand-stm32mp157d-ev1/bl2/raw_nand.o
 .debug_loc     0x00008b94     0x119d /home/dangcaominh/STM32MP1/atf/stm32mp1_atf/../build/opteemin-nand-stm32mp157d-ev1/bl2/bsec2.o
 .debug_loc     0x00009d31     0x569e /home/dangcaominh/STM32MP1/atf/stm32mp1_atf/../build/opteemin-nand-stm32mp157d-ev1/bl2/stm32mp1_clk.o
 .debug_loc     0x0000f3cf      0x789 /home/dangcaominh/STM32MP1/atf/stm32mp1_atf/../build/opteemin-nand-stm32mp157d-ev1/bl2/stm32mp_clkfunc.o
 .debug_loc     0x0000fb58     0x1e5c /home/dangcaominh/STM32MP1/atf/stm32mp1_atf/../build/opteemin-nand-stm32mp157d-ev1/bl2/stm32mp1_ddr.o
 .debug_loc     0x000119b4     0x2b65 /home/dangcaominh/STM32MP1/atf/stm32mp1_atf/../build/opteemin-nand-stm32mp157d-ev1/bl2/stm32mp1_ddr_helpers.o
 .debug_loc     0x00014519      0x31d /home/dangcaominh/STM32MP1/atf/stm32mp1_atf/../build/opteemin-nand-stm32mp157d-ev1/bl2/stm32mp1_ram.o
 .debug_loc     0x00014836     0x1155 /home/dangcaominh/STM32MP1/atf/stm32mp1_atf/../build/opteemin-nand-stm32mp157d-ev1/bl2/stm32mp_ddr.o
 .debug_loc     0x0001598b      0x6f2 /home/dangcaominh/STM32MP1/atf/stm32mp1_atf/../build/opteemin-nand-stm32mp157d-ev1/bl2/stm32mp_ddr_test.o
 .debug_loc     0x0001607d      0x18f /home/dangcaominh/STM32MP1/atf/stm32mp1_atf/../build/opteemin-nand-stm32mp157d-ev1/bl2/stm32mp_ram.o
 .debug_loc     0x0001620c     0x25f2 /home/dangcaominh/STM32MP1/atf/stm32mp1_atf/../build/opteemin-nand-stm32mp157d-ev1/bl2/stm32_fmc2_nand.o
 .debug_loc     0x000187fe     0x1361 /home/dangcaominh/STM32MP1/atf/stm32mp1_atf/../build/opteemin-nand-stm32mp157d-ev1/bl2/stm32_gpio.o
 .debug_loc     0x00019b5f     0x3131 /home/dangcaominh/STM32MP1/atf/stm32mp1_atf/../build/opteemin-nand-stm32mp157d-ev1/bl2/stm32_i2c.o
 .debug_loc     0x0001cc90      0x57a /home/dangcaominh/STM32MP1/atf/stm32mp1_atf/../build/opteemin-nand-stm32mp157d-ev1/bl2/stm32_iwdg.o
 .debug_loc     0x0001d20a      0x693 /home/dangcaominh/STM32MP1/atf/stm32mp1_atf/../build/opteemin-nand-stm32mp157d-ev1/bl2/nvmem.o
 .debug_loc     0x0001d89d     0x100b /home/dangcaominh/STM32MP1/atf/stm32mp1_atf/../build/opteemin-nand-stm32mp157d-ev1/bl2/stm32mp_tamp_nvram_core.o
 .debug_loc     0x0001e8a8       0x2b /home/dangcaominh/STM32MP1/atf/stm32mp1_atf/../build/opteemin-nand-stm32mp157d-ev1/bl2/stm32mp_tamp_nvram_mp1.o
 .debug_loc     0x0001e8d3      0x813 /home/dangcaominh/STM32MP1/atf/stm32mp1_atf/../build/opteemin-nand-stm32mp157d-ev1/bl2/stm32mp_pmic.o
 .debug_loc     0x0001f0e6      0x787 /home/dangcaominh/STM32MP1/atf/stm32mp1_atf/../build/opteemin-nand-stm32mp157d-ev1/bl2/stpmic1.o
 .debug_loc     0x0001f86d      0xb32 /home/dangcaominh/STM32MP1/atf/stm32mp1_atf/../build/opteemin-nand-stm32mp157d-ev1/bl2/regulator_core.o
 .debug_loc     0x0002039f      0x1ac /home/dangcaominh/STM32MP1/atf/stm32mp1_atf/../build/opteemin-nand-stm32mp157d-ev1/bl2/regulator_fixed.o
 .debug_loc     0x0002054b      0x46a /home/dangcaominh/STM32MP1/atf/stm32mp1_atf/../build/opteemin-nand-stm32mp157d-ev1/bl2/stm32mp1_reset.o
 .debug_loc     0x000209b5       0x47 /home/dangcaominh/STM32MP1/atf/stm32mp1_atf/../build/opteemin-nand-stm32mp157d-ev1/bl2/ctzdi2.o
 .debug_loc     0x000209fc      0x17c /home/dangcaominh/STM32MP1/atf/stm32mp1_atf/../build/opteemin-nand-stm32mp157d-ev1/bl2/popcountsi2.o
 .debug_loc     0x00020b78      0x31d /home/dangcaominh/STM32MP1/atf/stm32mp1_atf/../build/opteemin-nand-stm32mp157d-ev1/bl2/udivmoddi4.o
 .debug_loc     0x00020e95      0x123 /home/dangcaominh/STM32MP1/atf/stm32mp1_atf/../build/opteemin-nand-stm32mp157d-ev1/bl2/fconf.o
 .debug_loc     0x00020fb8      0x421 /home/dangcaominh/STM32MP1/atf/stm32mp1_atf/../build/opteemin-nand-stm32mp157d-ev1/bl2/fconf_dyn_cfg_getter.o
 .debug_loc     0x000213d9      0x31d /home/dangcaominh/STM32MP1/atf/stm32mp1_atf/../build/opteemin-nand-stm32mp157d-ev1/bl2/optee_utils.o
 .debug_loc     0x000216f6      0x579 /home/dangcaominh/STM32MP1/atf/stm32mp1_atf/../build/opteemin-nand-stm32mp157d-ev1/bl2/xlat_tables_arch.o
 .debug_loc     0x00021c6f      0x5f2 /home/dangcaominh/STM32MP1/atf/stm32mp1_atf/../build/opteemin-nand-stm32mp157d-ev1/bl2/xlat_tables_context.o
 .debug_loc     0x00022261     0x184f /home/dangcaominh/STM32MP1/atf/stm32mp1_atf/../build/opteemin-nand-stm32mp157d-ev1/bl2/xlat_tables_core.o
 .debug_loc     0x00023ab0      0x969 /home/dangcaominh/STM32MP1/atf/stm32mp1_atf/../build/opteemin-nand-stm32mp157d-ev1/bl2/xlat_tables_utils.o
 .debug_loc     0x00024419      0x5b1 /home/dangcaominh/STM32MP1/atf/stm32mp1_atf/../build/opteemin-nand-stm32mp157d-ev1/bl2/crc32.o
 .debug_loc     0x000249ca      0x332 /home/dangcaominh/STM32MP1/atf/stm32mp1_atf/../build/opteemin-nand-stm32mp157d-ev1/bl2/tf_gunzip.o
 .debug_loc     0x00024cfc      0x1e9 /home/dangcaominh/STM32MP1/atf/stm32mp1_atf/../build/opteemin-nand-stm32mp157d-ev1/bl2/plat_bl_common.o
 .debug_loc     0x00024ee5       0xa2 /home/dangcaominh/STM32MP1/atf/stm32mp1_atf/../build/opteemin-nand-stm32mp157d-ev1/bl2/plat_log_common.o
 .debug_loc     0x00024f87      0x8ac /home/dangcaominh/STM32MP1/atf/stm32mp1_atf/../build/opteemin-nand-stm32mp157d-ev1/bl2/bl2_io_storage.o
 .debug_loc     0x00025833       0x22 /home/dangcaominh/STM32MP1/atf/stm32mp1_atf/../build/opteemin-nand-stm32mp157d-ev1/bl2/plat_image_load.o
 .debug_loc     0x00025855      0xcee /home/dangcaominh/STM32MP1/atf/stm32mp1_atf/../build/opteemin-nand-stm32mp157d-ev1/bl2/stm32mp_common.o
 .debug_loc     0x00026543      0xb08 /home/dangcaominh/STM32MP1/atf/stm32mp1_atf/../build/opteemin-nand-stm32mp157d-ev1/bl2/stm32mp_dt.o
 .debug_loc     0x0002704b      0x259 /home/dangcaominh/STM32MP1/atf/stm32mp1_atf/../build/opteemin-nand-stm32mp157d-ev1/bl2/stm32mp_fconf_fuse.o
 .debug_loc     0x000272a4      0x163 /home/dangcaominh/STM32MP1/atf/stm32mp1_atf/../build/opteemin-nand-stm32mp157d-ev1/bl2/stm32mp_fconf_io.o
 .debug_loc     0x00027407      0xad6 /home/dangcaominh/STM32MP1/atf/stm32mp1_atf/../build/opteemin-nand-stm32mp157d-ev1/bl2/bl2_plat_setup.o
 .debug_loc     0x00027edd      0x318 /home/dangcaominh/STM32MP1/atf/stm32mp1_atf/../build/opteemin-nand-stm32mp157d-ev1/bl2/plat_ddr.o
 .debug_loc     0x000281f5       0x40 /home/dangcaominh/STM32MP1/atf/stm32mp1_atf/../build/opteemin-nand-stm32mp157d-ev1/bl2/stm32mp1_boot_device.o
 .debug_loc     0x00028235       0xe9 /home/dangcaominh/STM32MP1/atf/stm32mp1_atf/../build/opteemin-nand-stm32mp157d-ev1/bl2/stm32mp1_context.o
 .debug_loc     0x0002831e      0x119 /home/dangcaominh/STM32MP1/atf/stm32mp1_atf/../build/opteemin-nand-stm32mp157d-ev1/bl2/stm32mp1_critic_power.o
 .debug_loc     0x00028437      0x127 /home/dangcaominh/STM32MP1/atf/stm32mp1_atf/../build/opteemin-nand-stm32mp157d-ev1/bl2/stm32mp1_dbgmcu.o
 .debug_loc     0x0002855e      0x2c1 /home/dangcaominh/STM32MP1/atf/stm32mp1_atf/../build/opteemin-nand-stm32mp157d-ev1/bl2/stm32mp1_fconf_firewall.o
 .debug_loc     0x0002881f      0x5b9 /home/dangcaominh/STM32MP1/atf/stm32mp1_atf/../build/opteemin-nand-stm32mp157d-ev1/bl2/stm32mp1_private.o
 .debug_loc     0x00028dd8      0x5b9 /home/dangcaominh/STM32MP1/atf/stm32mp1_atf/../build/opteemin-nand-stm32mp157d-ev1/bl2/stm32mp1_syscfg.o
 .debug_loc     0x00029391      0xa24 /home/dangcaominh/STM32MP1/atf/stm32mp1_atf/../build/opteemin-nand-stm32mp157d-ev1/lib/libfdt.a(fdt.o)
 .debug_loc     0x00029db5      0x543 /home/dangcaominh/STM32MP1/atf/stm32mp1_atf/../build/opteemin-nand-stm32mp157d-ev1/lib/libfdt.a(fdt_addresses.o)
 .debug_loc     0x0002a2f8     0x24e3 /home/dangcaominh/STM32MP1/atf/stm32mp1_atf/../build/opteemin-nand-stm32mp157d-ev1/lib/libfdt.a(fdt_ro.o)
 .debug_loc     0x0002c7db       0x70 /home/dangcaominh/STM32MP1/atf/stm32mp1_atf/../build/opteemin-nand-stm32mp157d-ev1/lib/libc.a(assert.o)
 .debug_loc     0x0002c84b      0x14c /home/dangcaominh/STM32MP1/atf/stm32mp1_atf/../build/opteemin-nand-stm32mp157d-ev1/lib/libc.a(memchr.o)
 .debug_loc     0x0002c997      0x132 /home/dangcaominh/STM32MP1/atf/stm32mp1_atf/../build/opteemin-nand-stm32mp157d-ev1/lib/libc.a(memcmp.o)
 .debug_loc     0x0002cac9       0xb4 /home/dangcaominh/STM32MP1/atf/stm32mp1_atf/../build/opteemin-nand-stm32mp157d-ev1/lib/libc.a(memcpy.o)
 .debug_loc     0x0002cb7d      0x188 /home/dangcaominh/STM32MP1/atf/stm32mp1_atf/../build/opteemin-nand-stm32mp157d-ev1/lib/libc.a(memmove.o)
 .debug_loc     0x0002cd05      0x185 /home/dangcaominh/STM32MP1/atf/stm32mp1_atf/../build/opteemin-nand-stm32mp157d-ev1/lib/libc.a(memset.o)
 .debug_loc     0x0002ce8a      0x918 /home/dangcaominh/STM32MP1/atf/stm32mp1_atf/../build/opteemin-nand-stm32mp157d-ev1/lib/libc.a(printf.o)
 .debug_loc     0x0002d7a2      0x73f /home/dangcaominh/STM32MP1/atf/stm32mp1_atf/../build/opteemin-nand-stm32mp157d-ev1/lib/libc.a(snprintf.o)
 .debug_loc     0x0002dee1       0x71 /home/dangcaominh/STM32MP1/atf/stm32mp1_atf/../build/opteemin-nand-stm32mp157d-ev1/lib/libc.a(strchr.o)
 .debug_loc     0x0002df52       0x71 /home/dangcaominh/STM32MP1/atf/stm32mp1_atf/../build/opteemin-nand-stm32mp157d-ev1/lib/libc.a(strcmp.o)
 .debug_loc     0x0002dfc3      0x13e /home/dangcaominh/STM32MP1/atf/stm32mp1_atf/../build/opteemin-nand-stm32mp157d-ev1/lib/libc.a(strlcpy.o)
 .debug_loc     0x0002e101       0x4d /home/dangcaominh/STM32MP1/atf/stm32mp1_atf/../build/opteemin-nand-stm32mp157d-ev1/lib/libc.a(strlen.o)
 .debug_loc     0x0002e14e      0x12e /home/dangcaominh/STM32MP1/atf/stm32mp1_atf/../build/opteemin-nand-stm32mp157d-ev1/lib/libc.a(strncmp.o)
 .debug_loc     0x0002e27c       0x38 /home/dangcaominh/STM32MP1/atf/stm32mp1_atf/../build/opteemin-nand-stm32mp157d-ev1/lib/libc.a(strnlen.o)
 .debug_loc     0x0002e2b4       0x9f /home/dangcaominh/STM32MP1/atf/stm32mp1_atf/../build/opteemin-nand-stm32mp157d-ev1/lib/libc.a(strrchr.o)
